(lp0
S'UtilityHacks'
p1
a(lp2
ccopy_reg
_reconstructor
p3
(ctwitter.status
Status
p4
c__builtin__
object
p5
Ntp6
Rp7
(dp8
S'_favorite_count'
p9
I0
sS'_location'
p10
NsS'_withheld_scope'
p11
NsS'hashtags'
p12
(lp13
sS'_truncated'
p14
I00
sS'_retweeted_status'
p15
g3
(g4
g5
Ntp16
Rp17
(dp18
g9
I35514
sg10
Nsg11
Nsg12
(lp19
sg14
I00
sg15
NsS'_withheld_copyright'
p20
NsS'media'
p21
(lp22
sS'_place'
p23
NsS'_contributors'
p24
NsS'_current_user_retweet'
p25
NsS'_created_at'
p26
VWed Jan 29 17:47:25 +0000 2014
p27
sS'_scopes'
p28
NsS'_possibly_sensitive'
p29
NsS'_in_reply_to_screen_name'
p30
NsS'_coordinates'
p31
NsS'_in_reply_to_user_id'
p32
NsS'_geo'
p33
NsS'_favorited'
p34
I00
sS'_withheld_in_countries'
p35
NsS'user_mentions'
p36
(lp37
sS'_now'
p38
NsS'_id_str'
p39
NsS'_in_reply_to_status_id'
p40
NsS'_text'
p41
V"you support gay rights so you must be gay"       \u000a\u000ai support animal rights do i look like a fucking alpaca to you
p42
sS'_retweeted'
p43
I00
sS'lang'
p44
Ven
p45
sS'_user'
p46
g3
(ctwitter.user
User
p47
g5
Ntp48
Rp49
(dp50
g10
VScotland
p51
sS'_profile_text_color'
p52
V333333
p53
sS'_lang'
p54
Ven
p55
sS'_time_zone'
p56
VAmsterdam
p57
sS'_followers_count'
p58
I101154
sS'_statuses_count'
p59
I4234
sg26
VSat Jul 24 22:15:28 +0000 2010
p60
sS'_verified'
p61
I00
sS'_description'
p62
VYou give me that hummingbird heartbeat\u2764\ufe0f Sometimes I sing... Other times I'm asleep follow me on Instagram\u2764\ufe0f http://t.co/IrzPniMbye
p63
sS'_profile_image_url'
p64
Vhttps://pbs.twimg.com/profile_images/536668645179809792/b4uNGMWk_normal.jpeg
p65
sS'_friends_count'
p66
I73339
sS'_favourites_count'
p67
I4
sS'_utc_offset'
p68
I3600
sS'_status'
p69
NsS'_protected'
p70
I00
sS'_profile_banner_url'
p71
Vhttps://pbs.twimg.com/profile_banners/170459130/1401889057
p72
sS'_notifications'
p73
I00
sS'_profile_background_tile'
p74
I00
sS'_profile_link_color'
p75
V0084B4
p76
sS'_geo_enabled'
p77
I01
sS'_contributors_enabled'
p78
I00
sS'_profile_background_image_url'
p79
Vhttp://abs.twimg.com/images/themes/theme1/bg.png
p80
sS'_screen_name'
p81
Vomgitspaddy
p82
sS'_listed_count'
p83
I151
sS'_name'
p84
VPatrick.
p85
sS'_profile_sidebar_fill_color'
p86
VDDEEF6
p87
sS'_url'
p88
Vhttp://t.co/GkfQ2hEDTa
p89
sS'_id'
p90
I170459130
sS'_profile_background_color'
p91
VC0DEED
p92
sbsS'_retweet_count'
p93
I40138
sS'_source'
p94
V<a href="http://twitter.com/download/iphone" rel="nofollow">Twitter for iPhone</a>
p95
sS'urls'
p96
(lp97
sg90
I428585183881990144
sbsg20
Nsg21
(lp98
sg23
Nsg24
Nsg25
Nsg26
VSun Dec 14 18:25:59 +0000 2014
p99
sg28
Nsg29
Nsg30
Nsg31
Nsg32
Nsg33
Nsg34
I00
sg35
Nsg36
(lp100
g3
(g47
g5
Ntp101
Rp102
(dp103
g10
Nsg52
Nsg54
Nsg56
Nsg58
Nsg59
Nsg26
Nsg61
Nsg62
Nsg64
Nsg66
Nsg67
Nsg68
Nsg69
Nsg70
Nsg71
Nsg73
Nsg74
Nsg75
Nsg77
Nsg78
Nsg79
Nsg81
Vomgitspaddy
p104
sg83
Nsg84
VPatrick.
p105
sg86
Nsg88
Nsg90
I170459130
sg91
Nsbasg38
Nsg39
Nsg40
Nsg41
VRT @omgitspaddy: "you support gay rights so you must be gay"       \u000a\u000ai support animal rights do i look like a fucking alpaca to you
p106
sg43
I00
sg44
Ven
p107
sg46
g3
(g47
g5
Ntp108
Rp109
(dp110
g10
V
p111
sg52
V333333
p112
sg54
Ven
p113
sg56
VNew Delhi
p114
sg58
I65176
sg59
I404
sg26
VTue Feb 11 06:32:22 +0000 2014
p115
sg61
I00
sg62
VPosting the best Tips to make your life a lot easier
p116
sg64
Vhttps://pbs.twimg.com/profile_images/529928112163680256/sF6iyAoV_normal.jpeg
p117
sg66
I638
sg67
I4
sg68
I19800
sg69
Nsg70
I00
sg71
Vhttps://pbs.twimg.com/profile_banners/2337871266/1415179683
p118
sg73
I00
sg74
I01
sg75
V009999
p119
sg77
I00
sg78
I00
sg79
Vhttp://abs.twimg.com/images/themes/theme14/bg.gif
p120
sg81
VUtilityHacks
p121
sg83
I97
sg84
VUtility
p122
sg86
VEFEFEF
p123
sg88
Nsg90
I2337871266
sg91
V131516
p124
sbsg93
I40138
sg94
V<a href="http://twitter.com/download/iphone" rel="nofollow">Twitter for iPhone</a>
p125
sg96
(lp126
sg90
I544196618191261696
sbag3
(g4
g5
Ntp127
Rp128
(dp129
g9
I0
sg10
Nsg11
Nsg12
(lp130
sg14
I00
sg15
g3
(g4
g5
Ntp131
Rp132
(dp133
g9
I22
sg10
Nsg11
Nsg12
(lp134
sg14
I00
sg15
Nsg20
Nsg21
(lp135
(dp136
Vexpanded_url
p137
Vhttp://twitter.com/omgitspaddy/status/544084921682518016/photo/1
p138
sVdisplay_url
p139
Vpic.twitter.com/YwuCjPpySa
p140
sVurl
p141
Vhttp://t.co/YwuCjPpySa
p142
sVmedia_url_https
p143
Vhttps://pbs.twimg.com/media/B4z6UlYCEAE05iM.jpg
p144
sVid_str
p145
V544084886542225409
p146
sVsizes
p147
(dp148
Vlarge
p149
(dp150
Vh
p151
I936
sVresize
p152
Vfit
p153
sVw
p154
I702
ssVsmall
p155
(dp156
Vh
p157
I453
sVresize
p158
Vfit
p159
sVw
p160
I340
ssVmedium
p161
(dp162
Vh
p163
I800
sVresize
p164
Vfit
p165
sVw
p166
I600
ssVthumb
p167
(dp168
Vh
p169
I150
sVresize
p170
Vcrop
p171
sVw
p172
I150
sssVindices
p173
(lp174
I121
aI143
asVtype
p175
Vphoto
p176
sVid
p177
I544084886542225409
sVmedia_url
p178
Vhttp://pbs.twimg.com/media/B4z6UlYCEAE05iM.jpg
p179
sasg23
Nsg24
Nsg25
Nsg26
VSun Dec 14 11:02:08 +0000 2014
p180
sg28
Nsg29
I00
sg30
Nsg31
Nsg32
Nsg33
Nsg34
I00
sg35
Nsg36
(lp181
sg38
Nsg39
Nsg40
Nsg41
Vhe was beaten up by his dad for coming out as gay. Hes now in hospital. Look at his face now &gt; http://t.co/D6FEnqzIuE http://t.co/YwuCjPpySa
p182
sg43
I00
sg44
Ven
p183
sg46
g3
(g47
g5
Ntp184
Rp185
(dp186
g10
VScotland
p187
sg52
V333333
p188
sg54
Ven
p189
sg56
VAmsterdam
p190
sg58
I101154
sg59
I4234
sg26
VSat Jul 24 22:15:28 +0000 2010
p191
sg61
I00
sg62
VYou give me that hummingbird heartbeat\u2764\ufe0f Sometimes I sing... Other times I'm asleep follow me on Instagram\u2764\ufe0f http://t.co/IrzPniMbye
p192
sg64
Vhttps://pbs.twimg.com/profile_images/536668645179809792/b4uNGMWk_normal.jpeg
p193
sg66
I73339
sg67
I4
sg68
I3600
sg69
Nsg70
I00
sg71
Vhttps://pbs.twimg.com/profile_banners/170459130/1401889057
p194
sg73
I00
sg74
I00
sg75
V0084B4
p195
sg77
I01
sg78
I00
sg79
Vhttp://abs.twimg.com/images/themes/theme1/bg.png
p196
sg81
Vomgitspaddy
p197
sg83
I151
sg84
VPatrick.
p198
sg86
VDDEEF6
p199
sg88
Vhttp://t.co/GkfQ2hEDTa
p200
sg90
I170459130
sg91
VC0DEED
p201
sbsg93
I49
sg94
V<a href="http://twitter.com/download/iphone" rel="nofollow">Twitter for iPhone</a>
p202
sg96
(lp203
g3
(ctwitter.url
Url
p204
g5
Ntp205
Rp206
(dp207
S'url'
p208
Vhttp://t.co/D6FEnqzIuE
p209
sS'expanded_url'
p210
Vhttp://twit-pics-us.com/r/2z3Hj
p211
sbasg90
I544084921682518016
sbsg20
Nsg21
(lp212
(dp213
Vsource_user_id
p214
I170459130
sVsource_status_id_str
p215
V544084921682518016
p216
sVexpanded_url
p217
Vhttp://twitter.com/omgitspaddy/status/544084921682518016/photo/1
p218
sVdisplay_url
p219
Vpic.twitter.com/YwuCjPpySa
p220
sVurl
p221
Vhttp://t.co/YwuCjPpySa
p222
sVmedia_url_https
p223
Vhttps://pbs.twimg.com/media/B4z6UlYCEAE05iM.jpg
p224
sVsource_user_id_str
p225
V170459130
p226
sVsource_status_id
p227
I544084921682518016
sVid_str
p228
V544084886542225409
p229
sVsizes
p230
(dp231
Vlarge
p232
(dp233
Vh
p234
I936
sVresize
p235
Vfit
p236
sVw
p237
I702
ssVsmall
p238
(dp239
Vh
p240
I453
sVresize
p241
Vfit
p242
sVw
p243
I340
ssVmedium
p244
(dp245
Vh
p246
I800
sVresize
p247
Vfit
p248
sVw
p249
I600
ssVthumb
p250
(dp251
Vh
p252
I150
sVresize
p253
Vcrop
p254
sVw
p255
I150
sssVindices
p256
(lp257
I142
aI143
asVtype
p258
Vphoto
p259
sVid
p260
I544084886542225409
sVmedia_url
p261
Vhttp://pbs.twimg.com/media/B4z6UlYCEAE05iM.jpg
p262
sasg23
Nsg24
Nsg25
Nsg26
VSun Dec 14 18:25:54 +0000 2014
p263
sg28
Nsg29
I00
sg30
Nsg31
Nsg32
Nsg33
Nsg34
I00
sg35
Nsg36
(lp264
g3
(g47
g5
Ntp265
Rp266
(dp267
g10
Nsg52
Nsg54
Nsg56
Nsg58
Nsg59
Nsg26
Nsg61
Nsg62
Nsg64
Nsg66
Nsg67
Nsg68
Nsg69
Nsg70
Nsg71
Nsg73
Nsg74
Nsg75
Nsg77
Nsg78
Nsg79
Nsg81
Vomgitspaddy
p268
sg83
Nsg84
VPatrick.
p269
sg86
Nsg88
Nsg90
I170459130
sg91
Nsbasg38
Nsg39
Nsg40
Nsg41
VRT @omgitspaddy: he was beaten up by his dad for coming out as gay. Hes now in hospital. Look at his face now &gt; http://t.co/D6FEnqzIuE http\u2026
p270
sg43
I00
sg44
Ven
p271
sg46
g3
(g47
g5
Ntp272
Rp273
(dp274
g10
g111
sg52
V333333
p275
sg54
Ven
p276
sg56
VNew Delhi
p277
sg58
I65176
sg59
I404
sg26
VTue Feb 11 06:32:22 +0000 2014
p278
sg61
I00
sg62
VPosting the best Tips to make your life a lot easier
p279
sg64
Vhttps://pbs.twimg.com/profile_images/529928112163680256/sF6iyAoV_normal.jpeg
p280
sg66
I638
sg67
I4
sg68
I19800
sg69
Nsg70
I00
sg71
Vhttps://pbs.twimg.com/profile_banners/2337871266/1415179683
p281
sg73
I00
sg74
I01
sg75
V009999
p282
sg77
I00
sg78
I00
sg79
Vhttp://abs.twimg.com/images/themes/theme14/bg.gif
p283
sg81
VUtilityHacks
p284
sg83
I97
sg84
VUtility
p285
sg86
VEFEFEF
p286
sg88
Nsg90
I2337871266
sg91
V131516
p287
sbsg93
I49
sg94
V<a href="http://twitter.com/download/iphone" rel="nofollow">Twitter for iPhone</a>
p288
sg96
(lp289
g3
(g204
g5
Ntp290
Rp291
(dp292
g208
Vhttp://t.co/D6FEnqzIuE
p293
sg210
Vhttp://twit-pics-us.com/r/2z3Hj
p294
sbasg90
I544196599308500992
sbag3
(g4
g5
Ntp295
Rp296
(dp297
g9
I0
sg10
Nsg11
Nsg12
(lp298
sg14
I00
sg15
g3
(g4
g5
Ntp299
Rp300
(dp301
g9
I134
sg10
Nsg11
Nsg12
(lp302
sg14
I00
sg15
Nsg20
Nsg21
(lp303
(dp304
Vsource_user_id
p305
I1109703859
sVsource_status_id_str
p306
V480786746418810880
p307
sVexpanded_url
p308
Vhttp://twitter.com/StrokersInc/status/480786746418810880/photo/1
p309
sVdisplay_url
p310
Vpic.twitter.com/Lcy6BXr5oN
p311
sVurl
p312
Vhttp://t.co/Lcy6BXr5oN
p313
sVmedia_url_https
p314
Vhttps://pbs.twimg.com/media/BqwY_5QCYAATLI2.jpg
p315
sVsource_user_id_str
p316
V1109703859
p317
sVsource_status_id
p318
I480786746418810880
sVid_str
p319
V480786746200711168
p320
sVsizes
p321
(dp322
Vsmall
p323
(dp324
Vh
p325
I340
sVresize
p326
Vfit
p327
sVw
p328
I340
ssVlarge
p329
(dp330
Vh
p331
I600
sVresize
p332
Vfit
p333
sVw
p334
I600
ssVmedium
p335
(dp336
Vh
p337
I600
sVresize
p338
Vfit
p339
sVw
p340
I600
ssVthumb
p341
(dp342
Vh
p343
I150
sVresize
p344
Vcrop
p345
sVw
p346
I150
sssVindices
p347
(lp348
I78
aI100
asVtype
p349
Vphoto
p350
sVid
p351
I480786746200711168
sVmedia_url
p352
Vhttp://pbs.twimg.com/media/BqwY_5QCYAATLI2.jpg
p353
sasg23
Nsg24
Nsg25
Nsg26
VThu Nov 27 05:11:21 +0000 2014
p354
sg28
Nsg29
I00
sg30
Nsg31
Nsg32
Nsg33
Nsg34
I00
sg35
Nsg36
(lp355
sg38
Nsg39
Nsg40
Nsg41
V\U0001f648Freaky wedding day pics\U0001f470check here for more pics \u000a\U0001f449http://t.co/wKVRyZ1fwY\u000a\u000a  http://t.co/Lcy6BXr5oN
p356
sg43
I00
sg44
Ven
p357
sg46
g3
(g47
g5
Ntp358
Rp359
(dp360
g10
Vcanada
p361
sg52
V333333
p362
sg54
Ven
p363
sg56
VChennai
p364
sg58
I56234
sg59
I659
sg26
VTue Jan 21 16:56:36 +0000 2014
p365
sg61
I00
sg62
g111
sg64
Vhttps://pbs.twimg.com/profile_images/485598697917390849/OLWxhBEV_normal.jpeg
p366
sg66
I1637
sg67
I22
sg68
I19800
sg69
Nsg70
I00
sg71
Nsg73
I00
sg74
I00
sg75
V0084B4
p367
sg77
I00
sg78
I00
sg79
Vhttp://abs.twimg.com/images/themes/theme1/bg.png
p368
sg81
VWeEatQuotess
p369
sg83
I134
sg84
VWeEat Quote
p370
sg86
VDDEEF6
p371
sg88
Nsg90
I2303396011
sg91
VC0DEED
p372
sbsg93
I89
sg94
V<a href="http://twitter.com/download/iphone" rel="nofollow">Twitter for iPhone</a>
p373
sg96
(lp374
g3
(g204
g5
Ntp375
Rp376
(dp377
g208
Vhttp://t.co/wKVRyZ1fwY
p378
sg210
Vhttp://goo.gl/bfO4II
p379
sbasg90
I537836049745977346
sbsg20
Nsg21
(lp380
(dp381
Vsource_user_id
p382
I1109703859
sVsource_status_id_str
p383
V480786746418810880
p384
sVexpanded_url
p385
Vhttp://twitter.com/StrokersInc/status/480786746418810880/photo/1
p386
sVdisplay_url
p387
Vpic.twitter.com/Lcy6BXr5oN
p388
sVurl
p389
Vhttp://t.co/Lcy6BXr5oN
p390
sVmedia_url_https
p391
Vhttps://pbs.twimg.com/media/BqwY_5QCYAATLI2.jpg
p392
sVsource_user_id_str
p393
V1109703859
p394
sVsource_status_id
p395
I480786746418810880
sVid_str
p396
V480786746200711168
p397
sVsizes
p398
(dp399
Vsmall
p400
(dp401
Vh
p402
I340
sVresize
p403
Vfit
p404
sVw
p405
I340
ssVlarge
p406
(dp407
Vh
p408
I600
sVresize
p409
Vfit
p410
sVw
p411
I600
ssVmedium
p412
(dp413
Vh
p414
I600
sVresize
p415
Vfit
p416
sVw
p417
I600
ssVthumb
p418
(dp419
Vh
p420
I150
sVresize
p421
Vcrop
p422
sVw
p423
I150
sssVindices
p424
(lp425
I96
aI118
asVtype
p426
Vphoto
p427
sVid
p428
I480786746200711168
sVmedia_url
p429
Vhttp://pbs.twimg.com/media/BqwY_5QCYAATLI2.jpg
p430
sasg23
Nsg24
Nsg25
Nsg26
VSun Dec 14 18:17:50 +0000 2014
p431
sg28
Nsg29
I00
sg30
Nsg31
Nsg32
Nsg33
Nsg34
I00
sg35
Nsg36
(lp432
g3
(g47
g5
Ntp433
Rp434
(dp435
g10
Nsg52
Nsg54
Nsg56
Nsg58
Nsg59
Nsg26
Nsg61
Nsg62
Nsg64
Nsg66
Nsg67
Nsg68
Nsg69
Nsg70
Nsg71
Nsg73
Nsg74
Nsg75
Nsg77
Nsg78
Nsg79
Nsg81
VWeEatQuotess
p436
sg83
Nsg84
VWeEat Quote
p437
sg86
Nsg88
Nsg90
I2303396011
sg91
Nsbasg38
Nsg39
Nsg40
Nsg41
VRT @WeEatQuotess: \U0001f648Freaky wedding day pics\U0001f470check here for more pics \u000a\U0001f449http://t.co/wKVRyZ1fwY\u000a\u000a  http://t.co/Lcy6BXr5oN
p438
sg43
I00
sg44
Ven
p439
sg46
g3
(g47
g5
Ntp440
Rp441
(dp442
g10
g111
sg52
V333333
p443
sg54
Ven
p444
sg56
VNew Delhi
p445
sg58
I65176
sg59
I404
sg26
VTue Feb 11 06:32:22 +0000 2014
p446
sg61
I00
sg62
VPosting the best Tips to make your life a lot easier
p447
sg64
Vhttps://pbs.twimg.com/profile_images/529928112163680256/sF6iyAoV_normal.jpeg
p448
sg66
I638
sg67
I4
sg68
I19800
sg69
Nsg70
I00
sg71
Vhttps://pbs.twimg.com/profile_banners/2337871266/1415179683
p449
sg73
I00
sg74
I01
sg75
V009999
p450
sg77
I00
sg78
I00
sg79
Vhttp://abs.twimg.com/images/themes/theme14/bg.gif
p451
sg81
VUtilityHacks
p452
sg83
I97
sg84
VUtility
p453
sg86
VEFEFEF
p454
sg88
Nsg90
I2337871266
sg91
V131516
p455
sbsg93
I89
sg94
V<a href="http://twitter.com/download/iphone" rel="nofollow">Twitter for iPhone</a>
p456
sg96
(lp457
g3
(g204
g5
Ntp458
Rp459
(dp460
g208
Vhttp://t.co/wKVRyZ1fwY
p461
sg210
Vhttp://goo.gl/bfO4II
p462
sbasg90
I544194567478599680
sbag3
(g4
g5
Ntp463
Rp464
(dp465
g9
I0
sg10
Nsg11
Nsg12
(lp466
sg14
I00
sg15
g3
(g4
g5
Ntp467
Rp468
(dp469
g9
I72
sg10
Nsg11
Nsg12
(lp470
sg14
I00
sg15
Nsg20
Nsg21
(lp471
(dp472
Vsource_user_id
p473
I533055000
sVsource_status_id_str
p474
V491005818116919297
p475
sVexpanded_url
p476
Vhttp://twitter.com/NotCommonFactz/status/491005818116919297/photo/1
p477
sVdisplay_url
p478
Vpic.twitter.com/yrry7luaok
p479
sVurl
p480
Vhttp://t.co/yrry7luaok
p481
sVmedia_url_https
p482
Vhttps://pbs.twimg.com/media/BtBnJwoCEAA4I2E.jpg
p483
sVsource_user_id_str
p484
V533055000
p485
sVsource_status_id
p486
I491005818116919297
sVid_str
p487
V491005776752676864
p488
sVsizes
p489
(dp490
Vlarge
p491
(dp492
Vh
p493
I367
sVresize
p494
Vfit
p495
sVw
p496
I540
ssVsmall
p497
(dp498
Vh
p499
I231
sVresize
p500
Vfit
p501
sVw
p502
I340
ssVmedium
p503
(dp504
Vh
p505
I367
sVresize
p506
Vfit
p507
sVw
p508
I540
ssVthumb
p509
(dp510
Vh
p511
I150
sVresize
p512
Vcrop
p513
sVw
p514
I150
sssVindices
p515
(lp516
I88
aI110
asVtype
p517
Vphoto
p518
sVid
p519
I491005776752676864
sVmedia_url
p520
Vhttp://pbs.twimg.com/media/BtBnJwoCEAA4I2E.jpg
p521
sasg23
Nsg24
Nsg25
Nsg26
VThu Nov 27 05:23:01 +0000 2014
p522
sg28
Nsg29
I00
sg30
Nsg31
Nsg32
Nsg33
Nsg34
I00
sg35
Nsg36
(lp523
sg38
Nsg39
Nsg40
Nsg41
VWhat Your Sleeping Position Says About Your Relationship.\u000a\u27a1 http://t.co/ogovsjr8C4 \u2b05\U0001f490\U0001f483\u000a\u000ahttp://t.co/yrry7luaok
p524
sg43
I00
sg44
Ven
p525
sg46
g3
(g47
g5
Ntp526
Rp527
(dp528
g10
Vcanada
p529
sg52
V333333
p530
sg54
Ven
p531
sg56
VChennai
p532
sg58
I56234
sg59
I659
sg26
VTue Jan 21 16:56:36 +0000 2014
p533
sg61
I00
sg62
g111
sg64
Vhttps://pbs.twimg.com/profile_images/485598697917390849/OLWxhBEV_normal.jpeg
p534
sg66
I1637
sg67
I22
sg68
I19800
sg69
Nsg70
I00
sg71
Nsg73
I00
sg74
I00
sg75
V0084B4
p535
sg77
I00
sg78
I00
sg79
Vhttp://abs.twimg.com/images/themes/theme1/bg.png
p536
sg81
VWeEatQuotess
p537
sg83
I134
sg84
VWeEat Quote
p538
sg86
VDDEEF6
p539
sg88
Nsg90
I2303396011
sg91
VC0DEED
p540
sbsg93
I115
sg94
V<a href="http://twitter.com/download/iphone" rel="nofollow">Twitter for iPhone</a>
p541
sg96
(lp542
g3
(g204
g5
Ntp543
Rp544
(dp545
g208
Vhttp://t.co/ogovsjr8C4
p546
sg210
Vhttp://goo.gl/AwL6JZ
p547
sbasg90
I537838984949288960
sbsg20
Nsg21
(lp548
(dp549
Vsource_user_id
p550
I533055000
sVsource_status_id_str
p551
V491005818116919297
p552
sVexpanded_url
p553
Vhttp://twitter.com/NotCommonFactz/status/491005818116919297/photo/1
p554
sVdisplay_url
p555
Vpic.twitter.com/yrry7luaok
p556
sVurl
p557
Vhttp://t.co/yrry7luaok
p558
sVmedia_url_https
p559
Vhttps://pbs.twimg.com/media/BtBnJwoCEAA4I2E.jpg
p560
sVsource_user_id_str
p561
V533055000
p562
sVsource_status_id
p563
I491005818116919297
sVid_str
p564
V491005776752676864
p565
sVsizes
p566
(dp567
Vlarge
p568
(dp569
Vh
p570
I367
sVresize
p571
Vfit
p572
sVw
p573
I540
ssVsmall
p574
(dp575
Vh
p576
I231
sVresize
p577
Vfit
p578
sVw
p579
I340
ssVmedium
p580
(dp581
Vh
p582
I367
sVresize
p583
Vfit
p584
sVw
p585
I540
ssVthumb
p586
(dp587
Vh
p588
I150
sVresize
p589
Vcrop
p590
sVw
p591
I150
sssVindices
p592
(lp593
I106
aI128
asVtype
p594
Vphoto
p595
sVid
p596
I491005776752676864
sVmedia_url
p597
Vhttp://pbs.twimg.com/media/BtBnJwoCEAA4I2E.jpg
p598
sasg23
Nsg24
Nsg25
Nsg26
VSun Dec 14 18:17:48 +0000 2014
p599
sg28
Nsg29
I00
sg30
Nsg31
Nsg32
Nsg33
Nsg34
I00
sg35
Nsg36
(lp600
g3
(g47
g5
Ntp601
Rp602
(dp603
g10
Nsg52
Nsg54
Nsg56
Nsg58
Nsg59
Nsg26
Nsg61
Nsg62
Nsg64
Nsg66
Nsg67
Nsg68
Nsg69
Nsg70
Nsg71
Nsg73
Nsg74
Nsg75
Nsg77
Nsg78
Nsg79
Nsg81
VWeEatQuotess
p604
sg83
Nsg84
VWeEat Quote
p605
sg86
Nsg88
Nsg90
I2303396011
sg91
Nsbasg38
Nsg39
Nsg40
Nsg41
VRT @WeEatQuotess: What Your Sleeping Position Says About Your Relationship.\u000a\u27a1 http://t.co/ogovsjr8C4 \u2b05\U0001f490\U0001f483\u000a\u000ahttp://t.co/yrry7luaok
p606
sg43
I00
sg44
Ven
p607
sg46
g3
(g47
g5
Ntp608
Rp609
(dp610
g10
g111
sg52
V333333
p611
sg54
Ven
p612
sg56
VNew Delhi
p613
sg58
I65176
sg59
I404
sg26
VTue Feb 11 06:32:22 +0000 2014
p614
sg61
I00
sg62
VPosting the best Tips to make your life a lot easier
p615
sg64
Vhttps://pbs.twimg.com/profile_images/529928112163680256/sF6iyAoV_normal.jpeg
p616
sg66
I638
sg67
I4
sg68
I19800
sg69
Nsg70
I00
sg71
Vhttps://pbs.twimg.com/profile_banners/2337871266/1415179683
p617
sg73
I00
sg74
I01
sg75
V009999
p618
sg77
I00
sg78
I00
sg79
Vhttp://abs.twimg.com/images/themes/theme14/bg.gif
p619
sg81
VUtilityHacks
p620
sg83
I97
sg84
VUtility
p621
sg86
VEFEFEF
p622
sg88
Nsg90
I2337871266
sg91
V131516
p623
sbsg93
I115
sg94
V<a href="http://twitter.com/download/iphone" rel="nofollow">Twitter for iPhone</a>
p624
sg96
(lp625
g3
(g204
g5
Ntp626
Rp627
(dp628
g208
Vhttp://t.co/ogovsjr8C4
p629
sg210
Vhttp://goo.gl/AwL6JZ
p630
sbasg90
I544194559689768960
sbag3
(g4
g5
Ntp631
Rp632
(dp633
g9
I0
sg10
Nsg11
Nsg12
(lp634
sg14
I00
sg15
g3
(g4
g5
Ntp635
Rp636
(dp637
g9
I12
sg10
Nsg11
Nsg12
(lp638
sg14
I00
sg15
Nsg20
Nsg21
(lp639
sg23
Nsg24
Nsg25
Nsg26
VMon Dec 08 11:39:12 +0000 2014
p640
sg28
Nsg29
I00
sg30
Nsg31
Nsg32
Nsg33
Nsg34
I00
sg35
Nsg36
(lp641
sg38
Nsg39
Nsg40
Nsg41
VBF:"lets have sex"\u000a\u000aGF:"ok but promise to never leave me?"\u000a\u000aBF:"I promise"\u000a\u000a*10 minutes later he sends this text*  http://t.co/nTVgnJOlVA\U0001f631\U0001f631
p642
sg43
I00
sg44
Ven
p643
sg46
g3
(g47
g5
Ntp644
Rp645
(dp646
g10
Vcanada
p647
sg52
V333333
p648
sg54
Ven
p649
sg56
VChennai
p650
sg58
I56234
sg59
I659
sg26
VTue Jan 21 16:56:36 +0000 2014
p651
sg61
I00
sg62
g111
sg64
Vhttps://pbs.twimg.com/profile_images/485598697917390849/OLWxhBEV_normal.jpeg
p652
sg66
I1637
sg67
I22
sg68
I19800
sg69
Nsg70
I00
sg71
Nsg73
I00
sg74
I00
sg75
V0084B4
p653
sg77
I00
sg78
I00
sg79
Vhttp://abs.twimg.com/images/themes/theme1/bg.png
p654
sg81
VWeEatQuotess
p655
sg83
I134
sg84
VWeEat Quote
p656
sg86
VDDEEF6
p657
sg88
Nsg90
I2303396011
sg91
VC0DEED
p658
sbsg93
I54
sg94
V<a href="http://twitter.com/download/iphone" rel="nofollow">Twitter for iPhone</a>
p659
sg96
(lp660
g3
(g204
g5
Ntp661
Rp662
(dp663
g208
Vhttp://t.co/nTVgnJOlVA
p664
sg210
Vhttp://goo.gl/bfRuVK
p665
sbasg90
I541919923652403200
sbsg20
Nsg21
(lp666
sg23
Nsg24
Nsg25
Nsg26
VSun Dec 14 18:17:44 +0000 2014
p667
sg28
Nsg29
I00
sg30
Nsg31
Nsg32
Nsg33
Nsg34
I00
sg35
Nsg36
(lp668
g3
(g47
g5
Ntp669
Rp670
(dp671
g10
Nsg52
Nsg54
Nsg56
Nsg58
Nsg59
Nsg26
Nsg61
Nsg62
Nsg64
Nsg66
Nsg67
Nsg68
Nsg69
Nsg70
Nsg71
Nsg73
Nsg74
Nsg75
Nsg77
Nsg78
Nsg79
Nsg81
VWeEatQuotess
p672
sg83
Nsg84
VWeEat Quote
p673
sg86
Nsg88
Nsg90
I2303396011
sg91
Nsbasg38
Nsg39
Nsg40
Nsg41
VRT @WeEatQuotess: BF:"lets have sex"\u000a\u000aGF:"ok but promise to never leave me?"\u000a\u000aBF:"I promise"\u000a\u000a*10 minutes later he sends this text*  http:/\u2026
p674
sg43
I00
sg44
Ven
p675
sg46
g3
(g47
g5
Ntp676
Rp677
(dp678
g10
g111
sg52
V333333
p679
sg54
Ven
p680
sg56
VNew Delhi
p681
sg58
I65176
sg59
I404
sg26
VTue Feb 11 06:32:22 +0000 2014
p682
sg61
I00
sg62
VPosting the best Tips to make your life a lot easier
p683
sg64
Vhttps://pbs.twimg.com/profile_images/529928112163680256/sF6iyAoV_normal.jpeg
p684
sg66
I638
sg67
I4
sg68
I19800
sg69
Nsg70
I00
sg71
Vhttps://pbs.twimg.com/profile_banners/2337871266/1415179683
p685
sg73
I00
sg74
I01
sg75
V009999
p686
sg77
I00
sg78
I00
sg79
Vhttp://abs.twimg.com/images/themes/theme14/bg.gif
p687
sg81
VUtilityHacks
p688
sg83
I97
sg84
VUtility
p689
sg86
VEFEFEF
p690
sg88
Nsg90
I2337871266
sg91
V131516
p691
sbsg93
I54
sg94
V<a href="http://twitter.com/download/iphone" rel="nofollow">Twitter for iPhone</a>
p692
sg96
(lp693
g3
(g204
g5
Ntp694
Rp695
(dp696
g208
Vhttp://t.co/nTVgnJOlVA
p697
sg210
Vhttp://goo.gl/bfRuVK
p698
sbasg90
I544194543998873601
sbag3
(g4
g5
Ntp699
Rp700
(dp701
g9
I0
sg10
Nsg11
Nsg12
(lp702
sg14
I00
sg15
g3
(g4
g5
Ntp703
Rp704
(dp705
g9
I80
sg10
Nsg11
Nsg12
(lp706
sg14
I00
sg15
Nsg20
Nsg21
(lp707
(dp708
Vexpanded_url
p709
Vhttp://twitter.com/Drakevibe_funny/status/543009508339892224/photo/1
p710
sVdisplay_url
p711
Vpic.twitter.com/6h3l8FsSds
p712
sVurl
p713
Vhttp://t.co/6h3l8FsSds
p714
sVmedia_url_https
p715
Vhttps://pbs.twimg.com/media/B4koRNUCIAAy5gQ.jpg
p716
sVid_str
p717
V543009506171428864
p718
sVsizes
p719
(dp720
Vsmall
p721
(dp722
Vh
p723
I455
sVresize
p724
Vfit
p725
sVw
p726
I340
ssVlarge
p727
(dp728
Vh
p729
I669
sVresize
p730
Vfit
p731
sVw
p732
I499
ssVmedium
p733
(dp734
Vh
p735
I669
sVresize
p736
Vfit
p737
sVw
p738
I499
ssVthumb
p739
(dp740
Vh
p741
I150
sVresize
p742
Vcrop
p743
sVw
p744
I150
sssVindices
p745
(lp746
I57
aI79
asVtype
p747
Vphoto
p748
sVid
p749
I543009506171428864
sVmedia_url
p750
Vhttp://pbs.twimg.com/media/B4koRNUCIAAy5gQ.jpg
p751
sasg23
Nsg24
Nsg25
Nsg26
VThu Dec 11 11:48:50 +0000 2014
p752
sg28
Nsg29
I01
sg30
Nsg31
Nsg32
Nsg33
Nsg34
I00
sg35
Nsg36
(lp753
sg38
Nsg39
Nsg40
Nsg41
VThese Are the WORST Kind of Boobs http://t.co/t7RQxtbN3B http://t.co/6h3l8FsSds
p754
sg43
I00
sg44
Ven
p755
sg46
g3
(g47
g5
Ntp756
Rp757
(dp758
g10
VUSA
p759
sg52
V666666
p760
sg54
Ven
p761
sg56
VEastern Time (US & Canada)
p762
sg58
I99631
sg59
I832
sg26
VWed Jun 20 06:18:28 +0000 2012
p763
sg61
I00
sg62
V\u10e6 Tweeting quotes, Jokes & facts that relate to your everyday life! \u10e6 I'm like 35% funny and 75% bad at math Inactive
p764
sg64
Vhttps://pbs.twimg.com/profile_images/490458783668121601/0sw1qOLa_normal.jpeg
p765
sg66
I5127
sg67
I13
sg68
I-18000
sg69
Nsg70
I00
sg71
Vhttps://pbs.twimg.com/profile_banners/613266975/1405769525
p766
sg73
I00
sg74
I00
sg75
V2FC2EF
p767
sg77
I00
sg78
I00
sg79
Vhttp://abs.twimg.com/images/themes/theme9/bg.gif
p768
sg81
VDrakevibe_funny
p769
sg83
I138
sg84
VDRAKE VIBE
p770
sg86
V252429
p771
sg88
Nsg90
I613266975
sg91
V1A1B1F
p772
sbsg93
I110
sg94
V<a href="http://twitter.com/download/iphone" rel="nofollow">Twitter for iPhone</a>
p773
sg96
(lp774
g3
(g204
g5
Ntp775
Rp776
(dp777
g208
Vhttp://t.co/t7RQxtbN3B
p778
sg210
Vhttp://tvittere.net/these-are-the-worst-kind-of-boobs
p779
sbasg90
I543009508339892224
sbsg20
Nsg21
(lp780
(dp781
Vsource_user_id
p782
I613266975
sVsource_status_id_str
p783
V543009508339892224
p784
sVexpanded_url
p785
Vhttp://twitter.com/Drakevibe_funny/status/543009508339892224/photo/1
p786
sVdisplay_url
p787
Vpic.twitter.com/6h3l8FsSds
p788
sVurl
p789
Vhttp://t.co/6h3l8FsSds
p790
sVmedia_url_https
p791
Vhttps://pbs.twimg.com/media/B4koRNUCIAAy5gQ.jpg
p792
sVsource_user_id_str
p793
V613266975
p794
sVsource_status_id
p795
I543009508339892224
sVid_str
p796
V543009506171428864
p797
sVsizes
p798
(dp799
Vsmall
p800
(dp801
Vh
p802
I455
sVresize
p803
Vfit
p804
sVw
p805
I340
ssVlarge
p806
(dp807
Vh
p808
I669
sVresize
p809
Vfit
p810
sVw
p811
I499
ssVmedium
p812
(dp813
Vh
p814
I669
sVresize
p815
Vfit
p816
sVw
p817
I499
ssVthumb
p818
(dp819
Vh
p820
I150
sVresize
p821
Vcrop
p822
sVw
p823
I150
sssVindices
p824
(lp825
I78
aI100
asVtype
p826
Vphoto
p827
sVid
p828
I543009506171428864
sVmedia_url
p829
Vhttp://pbs.twimg.com/media/B4koRNUCIAAy5gQ.jpg
p830
sasg23
Nsg24
Nsg25
Nsg26
VSun Dec 14 18:15:20 +0000 2014
p831
sg28
Nsg29
I00
sg30
Nsg31
Nsg32
Nsg33
Nsg34
I00
sg35
Nsg36
(lp832
g3
(g47
g5
Ntp833
Rp834
(dp835
g10
Nsg52
Nsg54
Nsg56
Nsg58
Nsg59
Nsg26
Nsg61
Nsg62
Nsg64
Nsg66
Nsg67
Nsg68
Nsg69
Nsg70
Nsg71
Nsg73
Nsg74
Nsg75
Nsg77
Nsg78
Nsg79
Nsg81
VDrakevibe_funny
p836
sg83
Nsg84
VDRAKE VIBE
p837
sg86
Nsg88
Nsg90
I613266975
sg91
Nsbasg38
Nsg39
Nsg40
Nsg41
VRT @Drakevibe_funny: These Are the WORST Kind of Boobs http://t.co/t7RQxtbN3B http://t.co/6h3l8FsSds
p838
sg43
I00
sg44
Ven
p839
sg46
g3
(g47
g5
Ntp840
Rp841
(dp842
g10
g111
sg52
V333333
p843
sg54
Ven
p844
sg56
VNew Delhi
p845
sg58
I65176
sg59
I404
sg26
VTue Feb 11 06:32:22 +0000 2014
p846
sg61
I00
sg62
VPosting the best Tips to make your life a lot easier
p847
sg64
Vhttps://pbs.twimg.com/profile_images/529928112163680256/sF6iyAoV_normal.jpeg
p848
sg66
I638
sg67
I4
sg68
I19800
sg69
Nsg70
I00
sg71
Vhttps://pbs.twimg.com/profile_banners/2337871266/1415179683
p849
sg73
I00
sg74
I01
sg75
V009999
p850
sg77
I00
sg78
I00
sg79
Vhttp://abs.twimg.com/images/themes/theme14/bg.gif
p851
sg81
VUtilityHacks
p852
sg83
I97
sg84
VUtility
p853
sg86
VEFEFEF
p854
sg88
Nsg90
I2337871266
sg91
V131516
p855
sbsg93
I110
sg94
V<a href="http://twitter.com/download/iphone" rel="nofollow">Twitter for iPhone</a>
p856
sg96
(lp857
g3
(g204
g5
Ntp858
Rp859
(dp860
g208
Vhttp://t.co/t7RQxtbN3B
p861
sg210
Vhttp://tvittere.net/these-are-the-worst-kind-of-boobs
p862
sbasg90
I544193940207837184
sbag3
(g4
g5
Ntp863
Rp864
(dp865
g9
I0
sg10
Nsg11
Nsg12
(lp866
sg14
I00
sg15
g3
(g4
g5
Ntp867
Rp868
(dp869
g9
I80
sg10
Nsg11
Nsg12
(lp870
sg14
I00
sg15
Nsg20
Nsg21
(lp871
(dp872
Vexpanded_url
p873
Vhttp://twitter.com/Drakevibe_funny/status/543011407491366913/photo/1
p874
sVdisplay_url
p875
Vpic.twitter.com/O2EYAdoWZf
p876
sVurl
p877
Vhttp://t.co/O2EYAdoWZf
p878
sVmedia_url_https
p879
Vhttps://pbs.twimg.com/media/B4kp_x6CYAAmvom.jpg
p880
sVid_str
p881
V543011405780115456
p882
sVsizes
p883
(dp884
Vsmall
p885
(dp886
Vh
p887
I255
sVresize
p888
Vfit
p889
sVw
p890
I340
ssVlarge
p891
(dp892
Vh
p893
I444
sVresize
p894
Vfit
p895
sVw
p896
I592
ssVmedium
p897
(dp898
Vh
p899
I444
sVresize
p900
Vfit
p901
sVw
p902
I592
ssVthumb
p903
(dp904
Vh
p905
I150
sVresize
p906
Vcrop
p907
sVw
p908
I150
sssVindices
p909
(lp910
I67
aI89
asVtype
p911
Vphoto
p912
sVid
p913
I543011405780115456
sVmedia_url
p914
Vhttp://pbs.twimg.com/media/B4kp_x6CYAAmvom.jpg
p915
sasg23
Nsg24
Nsg25
Nsg26
VThu Dec 11 11:56:22 +0000 2014
p916
sg28
Nsg29
I01
sg30
Nsg31
Nsg32
Nsg33
Nsg34
I00
sg35
Nsg36
(lp917
sg38
Nsg39
Nsg40
Nsg41
V\U0001f44d\U0001f44c itsy bitsy teenie weenie tiny lil bikini http://t.co/HlKcpfqwv3 http://t.co/O2EYAdoWZf
p918
sg43
I00
sg44
Ven
p919
sg46
g3
(g47
g5
Ntp920
Rp921
(dp922
g10
VUSA
p923
sg52
V666666
p924
sg54
Ven
p925
sg56
VEastern Time (US & Canada)
p926
sg58
I99631
sg59
I832
sg26
VWed Jun 20 06:18:28 +0000 2012
p927
sg61
I00
sg62
V\u10e6 Tweeting quotes, Jokes & facts that relate to your everyday life! \u10e6 I'm like 35% funny and 75% bad at math Inactive
p928
sg64
Vhttps://pbs.twimg.com/profile_images/490458783668121601/0sw1qOLa_normal.jpeg
p929
sg66
I5127
sg67
I13
sg68
I-18000
sg69
Nsg70
I00
sg71
Vhttps://pbs.twimg.com/profile_banners/613266975/1405769525
p930
sg73
I00
sg74
I00
sg75
V2FC2EF
p931
sg77
I00
sg78
I00
sg79
Vhttp://abs.twimg.com/images/themes/theme9/bg.gif
p932
sg81
VDrakevibe_funny
p933
sg83
I138
sg84
VDRAKE VIBE
p934
sg86
V252429
p935
sg88
Nsg90
I613266975
sg91
V1A1B1F
p936
sbsg93
I96
sg94
V<a href="http://twitter.com/download/iphone" rel="nofollow">Twitter for iPhone</a>
p937
sg96
(lp938
g3
(g204
g5
Ntp939
Rp940
(dp941
g208
Vhttp://t.co/HlKcpfqwv3
p942
sg210
Vhttp://tvittere.net/itsy-bitsy-teenie-weenie-tiny-lil-bikini-1
p943
sbasg90
I543011407491366913
sbsg20
Nsg21
(lp944
(dp945
Vsource_user_id
p946
I613266975
sVsource_status_id_str
p947
V543011407491366913
p948
sVexpanded_url
p949
Vhttp://twitter.com/Drakevibe_funny/status/543011407491366913/photo/1
p950
sVdisplay_url
p951
Vpic.twitter.com/O2EYAdoWZf
p952
sVurl
p953
Vhttp://t.co/O2EYAdoWZf
p954
sVmedia_url_https
p955
Vhttps://pbs.twimg.com/media/B4kp_x6CYAAmvom.jpg
p956
sVsource_user_id_str
p957
V613266975
p958
sVsource_status_id
p959
I543011407491366913
sVid_str
p960
V543011405780115456
p961
sVsizes
p962
(dp963
Vsmall
p964
(dp965
Vh
p966
I255
sVresize
p967
Vfit
p968
sVw
p969
I340
ssVlarge
p970
(dp971
Vh
p972
I444
sVresize
p973
Vfit
p974
sVw
p975
I592
ssVmedium
p976
(dp977
Vh
p978
I444
sVresize
p979
Vfit
p980
sVw
p981
I592
ssVthumb
p982
(dp983
Vh
p984
I150
sVresize
p985
Vcrop
p986
sVw
p987
I150
sssVindices
p988
(lp989
I88
aI110
asVtype
p990
Vphoto
p991
sVid
p992
I543011405780115456
sVmedia_url
p993
Vhttp://pbs.twimg.com/media/B4kp_x6CYAAmvom.jpg
p994
sasg23
Nsg24
Nsg25
Nsg26
VSun Dec 14 18:15:17 +0000 2014
p995
sg28
Nsg29
I00
sg30
Nsg31
Nsg32
Nsg33
Nsg34
I00
sg35
Nsg36
(lp996
g3
(g47
g5
Ntp997
Rp998
(dp999
g10
Nsg52
Nsg54
Nsg56
Nsg58
Nsg59
Nsg26
Nsg61
Nsg62
Nsg64
Nsg66
Nsg67
Nsg68
Nsg69
Nsg70
Nsg71
Nsg73
Nsg74
Nsg75
Nsg77
Nsg78
Nsg79
Nsg81
VDrakevibe_funny
p1000
sg83
Nsg84
VDRAKE VIBE
p1001
sg86
Nsg88
Nsg90
I613266975
sg91
Nsbasg38
Nsg39
Nsg40
Nsg41
VRT @Drakevibe_funny: \U0001f44d\U0001f44c itsy bitsy teenie weenie tiny lil bikini http://t.co/HlKcpfqwv3 http://t.co/O2EYAdoWZf
p1002
sg43
I00
sg44
Ven
p1003
sg46
g3
(g47
g5
Ntp1004
Rp1005
(dp1006
g10
g111
sg52
V333333
p1007
sg54
Ven
p1008
sg56
VNew Delhi
p1009
sg58
I65176
sg59
I404
sg26
VTue Feb 11 06:32:22 +0000 2014
p1010
sg61
I00
sg62
VPosting the best Tips to make your life a lot easier
p1011
sg64
Vhttps://pbs.twimg.com/profile_images/529928112163680256/sF6iyAoV_normal.jpeg
p1012
sg66
I638
sg67
I4
sg68
I19800
sg69
Nsg70
I00
sg71
Vhttps://pbs.twimg.com/profile_banners/2337871266/1415179683
p1013
sg73
I00
sg74
I01
sg75
V009999
p1014
sg77
I00
sg78
I00
sg79
Vhttp://abs.twimg.com/images/themes/theme14/bg.gif
p1015
sg81
VUtilityHacks
p1016
sg83
I97
sg84
VUtility
p1017
sg86
VEFEFEF
p1018
sg88
Nsg90
I2337871266
sg91
V131516
p1019
sbsg93
I96
sg94
V<a href="http://twitter.com/download/iphone" rel="nofollow">Twitter for iPhone</a>
p1020
sg96
(lp1021
g3
(g204
g5
Ntp1022
Rp1023
(dp1024
g208
Vhttp://t.co/HlKcpfqwv3
p1025
sg210
Vhttp://tvittere.net/itsy-bitsy-teenie-weenie-tiny-lil-bikini-1
p1026
sbasg90
I544193928769982464
sbag3
(g4
g5
Ntp1027
Rp1028
(dp1029
g9
I0
sg10
Nsg11
Nsg12
(lp1030
sg14
I00
sg15
g3
(g4
g5
Ntp1031
Rp1032
(dp1033
g9
I56
sg10
Nsg11
Nsg12
(lp1034
sg14
I00
sg15
Nsg20
Nsg21
(lp1035
(dp1036
Vexpanded_url
p1037
Vhttp://twitter.com/Drakevibe_funny/status/543019504192593920/photo/1
p1038
sVdisplay_url
p1039
Vpic.twitter.com/zhz3zVZ7yr
p1040
sVurl
p1041
Vhttp://t.co/zhz3zVZ7yr
p1042
sVmedia_url_https
p1043
Vhttps://pbs.twimg.com/media/B4kxW_OCQAA1cIW.jpg
p1044
sVid_str
p1045
V543019501072039936
p1046
sVsizes
p1047
(dp1048
Vlarge
p1049
(dp1050
Vh
p1051
I592
sVresize
p1052
Vfit
p1053
sVw
p1054
I592
ssVsmall
p1055
(dp1056
Vh
p1057
I340
sVresize
p1058
Vfit
p1059
sVw
p1060
I340
ssVmedium
p1061
(dp1062
Vh
p1063
I592
sVresize
p1064
Vfit
p1065
sVw
p1066
I592
ssVthumb
p1067
(dp1068
Vh
p1069
I150
sVresize
p1070
Vcrop
p1071
sVw
p1072
I150
sssVindices
p1073
(lp1074
I78
aI100
asVtype
p1075
Vphoto
p1076
sVid
p1077
I543019501072039936
sVmedia_url
p1078
Vhttp://pbs.twimg.com/media/B4kxW_OCQAA1cIW.jpg
p1079
sasg23
Nsg24
Nsg25
Nsg26
VThu Dec 11 12:28:33 +0000 2014
p1080
sg28
Nsg29
I01
sg30
Nsg31
Nsg32
Nsg33
Nsg34
I00
sg35
Nsg36
(lp1081
sg38
Nsg39
Nsg40
Nsg41
VThese Celebs Had their Naked Pics Leaked to the World! http://t.co/WtDdQHiQL5 http://t.co/zhz3zVZ7yr
p1082
sg43
I00
sg44
Ven
p1083
sg46
g3
(g47
g5
Ntp1084
Rp1085
(dp1086
g10
VUSA
p1087
sg52
V666666
p1088
sg54
Ven
p1089
sg56
VEastern Time (US & Canada)
p1090
sg58
I99631
sg59
I832
sg26
VWed Jun 20 06:18:28 +0000 2012
p1091
sg61
I00
sg62
V\u10e6 Tweeting quotes, Jokes & facts that relate to your everyday life! \u10e6 I'm like 35% funny and 75% bad at math Inactive
p1092
sg64
Vhttps://pbs.twimg.com/profile_images/490458783668121601/0sw1qOLa_normal.jpeg
p1093
sg66
I5127
sg67
I13
sg68
I-18000
sg69
Nsg70
I00
sg71
Vhttps://pbs.twimg.com/profile_banners/613266975/1405769525
p1094
sg73
I00
sg74
I00
sg75
V2FC2EF
p1095
sg77
I00
sg78
I00
sg79
Vhttp://abs.twimg.com/images/themes/theme9/bg.gif
p1096
sg81
VDrakevibe_funny
p1097
sg83
I138
sg84
VDRAKE VIBE
p1098
sg86
V252429
p1099
sg88
Nsg90
I613266975
sg91
V1A1B1F
p1100
sbsg93
I128
sg94
V<a href="http://twitter.com/download/iphone" rel="nofollow">Twitter for iPhone</a>
p1101
sg96
(lp1102
g3
(g204
g5
Ntp1103
Rp1104
(dp1105
g208
Vhttp://t.co/WtDdQHiQL5
p1106
sg210
Vhttp://tvittere.net/scandal-stars-whose-nudes-were-leaked
p1107
sbasg90
I543019504192593920
sbsg20
Nsg21
(lp1108
(dp1109
Vsource_user_id
p1110
I613266975
sVsource_status_id_str
p1111
V543019504192593920
p1112
sVexpanded_url
p1113
Vhttp://twitter.com/Drakevibe_funny/status/543019504192593920/photo/1
p1114
sVdisplay_url
p1115
Vpic.twitter.com/zhz3zVZ7yr
p1116
sVurl
p1117
Vhttp://t.co/zhz3zVZ7yr
p1118
sVmedia_url_https
p1119
Vhttps://pbs.twimg.com/media/B4kxW_OCQAA1cIW.jpg
p1120
sVsource_user_id_str
p1121
V613266975
p1122
sVsource_status_id
p1123
I543019504192593920
sVid_str
p1124
V543019501072039936
p1125
sVsizes
p1126
(dp1127
Vlarge
p1128
(dp1129
Vh
p1130
I592
sVresize
p1131
Vfit
p1132
sVw
p1133
I592
ssVsmall
p1134
(dp1135
Vh
p1136
I340
sVresize
p1137
Vfit
p1138
sVw
p1139
I340
ssVmedium
p1140
(dp1141
Vh
p1142
I592
sVresize
p1143
Vfit
p1144
sVw
p1145
I592
ssVthumb
p1146
(dp1147
Vh
p1148
I150
sVresize
p1149
Vcrop
p1150
sVw
p1151
I150
sssVindices
p1152
(lp1153
I99
aI121
asVtype
p1154
Vphoto
p1155
sVid
p1156
I543019501072039936
sVmedia_url
p1157
Vhttp://pbs.twimg.com/media/B4kxW_OCQAA1cIW.jpg
p1158
sasg23
Nsg24
Nsg25
Nsg26
VSun Dec 14 18:15:16 +0000 2014
p1159
sg28
Nsg29
I00
sg30
Nsg31
Nsg32
Nsg33
Nsg34
I00
sg35
Nsg36
(lp1160
g3
(g47
g5
Ntp1161
Rp1162
(dp1163
g10
Nsg52
Nsg54
Nsg56
Nsg58
Nsg59
Nsg26
Nsg61
Nsg62
Nsg64
Nsg66
Nsg67
Nsg68
Nsg69
Nsg70
Nsg71
Nsg73
Nsg74
Nsg75
Nsg77
Nsg78
Nsg79
Nsg81
VDrakevibe_funny
p1164
sg83
Nsg84
VDRAKE VIBE
p1165
sg86
Nsg88
Nsg90
I613266975
sg91
Nsbasg38
Nsg39
Nsg40
Nsg41
VRT @Drakevibe_funny: These Celebs Had their Naked Pics Leaked to the World! http://t.co/WtDdQHiQL5 http://t.co/zhz3zVZ7yr
p1166
sg43
I00
sg44
Ven
p1167
sg46
g3
(g47
g5
Ntp1168
Rp1169
(dp1170
g10
g111
sg52
V333333
p1171
sg54
Ven
p1172
sg56
VNew Delhi
p1173
sg58
I65176
sg59
I404
sg26
VTue Feb 11 06:32:22 +0000 2014
p1174
sg61
I00
sg62
VPosting the best Tips to make your life a lot easier
p1175
sg64
Vhttps://pbs.twimg.com/profile_images/529928112163680256/sF6iyAoV_normal.jpeg
p1176
sg66
I638
sg67
I4
sg68
I19800
sg69
Nsg70
I00
sg71
Vhttps://pbs.twimg.com/profile_banners/2337871266/1415179683
p1177
sg73
I00
sg74
I01
sg75
V009999
p1178
sg77
I00
sg78
I00
sg79
Vhttp://abs.twimg.com/images/themes/theme14/bg.gif
p1179
sg81
VUtilityHacks
p1180
sg83
I97
sg84
VUtility
p1181
sg86
VEFEFEF
p1182
sg88
Nsg90
I2337871266
sg91
V131516
p1183
sbsg93
I128
sg94
V<a href="http://twitter.com/download/iphone" rel="nofollow">Twitter for iPhone</a>
p1184
sg96
(lp1185
g3
(g204
g5
Ntp1186
Rp1187
(dp1188
g208
Vhttp://t.co/WtDdQHiQL5
p1189
sg210
Vhttp://tvittere.net/scandal-stars-whose-nudes-were-leaked
p1190
sbasg90
I544193924017840128
sbag3
(g4
g5
Ntp1191
Rp1192
(dp1193
g9
I25
sg10
Nsg11
Nsg12
(lp1194
sg14
I00
sg15
Nsg20
Nsg21
(lp1195
(dp1196
Vexpanded_url
p1197
Vhttp://twitter.com/UtilityHacks/status/531299462501507073/photo/1
p1198
sVdisplay_url
p1199
Vpic.twitter.com/n6wSti80N5
p1200
sVurl
p1201
Vhttp://t.co/n6wSti80N5
p1202
sVmedia_url_https
p1203
Vhttps://pbs.twimg.com/media/B1-OCRACQAAPBba.jpg
p1204
sVid_str
p1205
V531299450627440640
p1206
sVsizes
p1207
(dp1208
Vlarge
p1209
(dp1210
Vh
p1211
I352
sVresize
p1212
Vfit
p1213
sVw
p1214
I700
ssVsmall
p1215
(dp1216
Vh
p1217
I170
sVresize
p1218
Vfit
p1219
sVw
p1220
I340
ssVmedium
p1221
(dp1222
Vh
p1223
I301
sVresize
p1224
Vfit
p1225
sVw
p1226
I600
ssVthumb
p1227
(dp1228
Vh
p1229
I150
sVresize
p1230
Vcrop
p1231
sVw
p1232
I150
sssVindices
p1233
(lp1234
I0
aI22
asVtype
p1235
Vphoto
p1236
sVid
p1237
I531299450627440640
sVmedia_url
p1238
Vhttp://pbs.twimg.com/media/B1-OCRACQAAPBba.jpg
p1239
sasg23
Nsg24
Nsg25
Nsg26
VSun Nov 09 04:17:17 +0000 2014
p1240
sg28
Nsg29
I00
sg30
Nsg31
Nsg32
Nsg33
Nsg34
I00
sg35
Nsg36
(lp1241
sg38
Nsg39
Nsg40
Nsg41
Vhttp://t.co/n6wSti80N5
p1242
sg43
I00
sg44
Vund
p1243
sg46
g3
(g47
g5
Ntp1244
Rp1245
(dp1246
g10
g111
sg52
V333333
p1247
sg54
Ven
p1248
sg56
VNew Delhi
p1249
sg58
I65176
sg59
I404
sg26
VTue Feb 11 06:32:22 +0000 2014
p1250
sg61
I00
sg62
VPosting the best Tips to make your life a lot easier
p1251
sg64
Vhttps://pbs.twimg.com/profile_images/529928112163680256/sF6iyAoV_normal.jpeg
p1252
sg66
I638
sg67
I4
sg68
I19800
sg69
Nsg70
I00
sg71
Vhttps://pbs.twimg.com/profile_banners/2337871266/1415179683
p1253
sg73
I00
sg74
I01
sg75
V009999
p1254
sg77
I00
sg78
I00
sg79
Vhttp://abs.twimg.com/images/themes/theme14/bg.gif
p1255
sg81
VUtilityHacks
p1256
sg83
I97
sg84
VUtility
p1257
sg86
VEFEFEF
p1258
sg88
Nsg90
I2337871266
sg91
V131516
p1259
sbsg93
I34
sg94
V<a href="http://twitter.com/download/iphone" rel="nofollow">Twitter for iPhone</a>
p1260
sg96
(lp1261
sg90
I531299462501507073
sbag3
(g4
g5
Ntp1262
Rp1263
(dp1264
g9
I53
sg10
Nsg11
Nsg12
(lp1265
sg14
I00
sg15
Nsg20
Nsg21
(lp1266
(dp1267
Vexpanded_url
p1268
Vhttp://twitter.com/UtilityHacks/status/531299428661874690/photo/1
p1269
sVdisplay_url
p1270
Vpic.twitter.com/yKZIWGLDj3
p1271
sVurl
p1272
Vhttp://t.co/yKZIWGLDj3
p1273
sVmedia_url_https
p1274
Vhttps://pbs.twimg.com/media/B1-OAxpCYAAXYMy.jpg
p1275
sVid_str
p1276
V531299425029611520
p1277
sVsizes
p1278
(dp1279
Vlarge
p1280
(dp1281
Vh
p1282
I412
sVresize
p1283
Vfit
p1284
sVw
p1285
I592
ssVsmall
p1286
(dp1287
Vh
p1288
I236
sVresize
p1289
Vfit
p1290
sVw
p1291
I340
ssVmedium
p1292
(dp1293
Vh
p1294
I412
sVresize
p1295
Vfit
p1296
sVw
p1297
I592
ssVthumb
p1298
(dp1299
Vh
p1300
I150
sVresize
p1301
Vcrop
p1302
sVw
p1303
I150
sssVindices
p1304
(lp1305
I0
aI22
asVtype
p1306
Vphoto
p1307
sVid
p1308
I531299425029611520
sVmedia_url
p1309
Vhttp://pbs.twimg.com/media/B1-OAxpCYAAXYMy.jpg
p1310
sasg23
Nsg24
Nsg25
Nsg26
VSun Nov 09 04:17:09 +0000 2014
p1311
sg28
Nsg29
I00
sg30
Nsg31
Nsg32
Nsg33
Nsg34
I00
sg35
Nsg36
(lp1312
sg38
Nsg39
Nsg40
Nsg41
Vhttp://t.co/yKZIWGLDj3
p1313
sg43
I00
sg44
Vund
p1314
sg46
g3
(g47
g5
Ntp1315
Rp1316
(dp1317
g10
g111
sg52
V333333
p1318
sg54
Ven
p1319
sg56
VNew Delhi
p1320
sg58
I65176
sg59
I404
sg26
VTue Feb 11 06:32:22 +0000 2014
p1321
sg61
I00
sg62
VPosting the best Tips to make your life a lot easier
p1322
sg64
Vhttps://pbs.twimg.com/profile_images/529928112163680256/sF6iyAoV_normal.jpeg
p1323
sg66
I638
sg67
I4
sg68
I19800
sg69
Nsg70
I00
sg71
Vhttps://pbs.twimg.com/profile_banners/2337871266/1415179683
p1324
sg73
I00
sg74
I01
sg75
V009999
p1325
sg77
I00
sg78
I00
sg79
Vhttp://abs.twimg.com/images/themes/theme14/bg.gif
p1326
sg81
VUtilityHacks
p1327
sg83
I97
sg84
VUtility
p1328
sg86
VEFEFEF
p1329
sg88
Nsg90
I2337871266
sg91
V131516
p1330
sbsg93
I15
sg94
V<a href="http://twitter.com/download/iphone" rel="nofollow">Twitter for iPhone</a>
p1331
sg96
(lp1332
sg90
I531299428661874690
sbag3
(g4
g5
Ntp1333
Rp1334
(dp1335
g9
I54
sg10
Nsg11
Nsg12
(lp1336
sg14
I00
sg15
Nsg20
Nsg21
(lp1337
(dp1338
Vexpanded_url
p1339
Vhttp://twitter.com/UtilityHacks/status/531299417718935552/photo/1
p1340
sVdisplay_url
p1341
Vpic.twitter.com/33xuxx8ebg
p1342
sVurl
p1343
Vhttp://t.co/33xuxx8ebg
p1344
sVmedia_url_https
p1345
Vhttps://pbs.twimg.com/media/B1-OALkCYAAXk2E.jpg
p1346
sVid_str
p1347
V531299414808092672
p1348
sVsizes
p1349
(dp1350
Vlarge
p1351
(dp1352
Vh
p1353
I452
sVresize
p1354
Vfit
p1355
sVw
p1356
I594
ssVsmall
p1357
(dp1358
Vh
p1359
I258
sVresize
p1360
Vfit
p1361
sVw
p1362
I340
ssVmedium
p1363
(dp1364
Vh
p1365
I452
sVresize
p1366
Vfit
p1367
sVw
p1368
I594
ssVthumb
p1369
(dp1370
Vh
p1371
I150
sVresize
p1372
Vcrop
p1373
sVw
p1374
I150
sssVindices
p1375
(lp1376
I0
aI22
asVtype
p1377
Vphoto
p1378
sVid
p1379
I531299414808092672
sVmedia_url
p1380
Vhttp://pbs.twimg.com/media/B1-OALkCYAAXk2E.jpg
p1381
sasg23
Nsg24
Nsg25
Nsg26
VSun Nov 09 04:17:06 +0000 2014
p1382
sg28
Nsg29
I00
sg30
Nsg31
Nsg32
Nsg33
Nsg34
I00
sg35
Nsg36
(lp1383
sg38
Nsg39
Nsg40
Nsg41
Vhttp://t.co/33xuxx8ebg
p1384
sg43
I00
sg44
Vund
p1385
sg46
g3
(g47
g5
Ntp1386
Rp1387
(dp1388
g10
g111
sg52
V333333
p1389
sg54
Ven
p1390
sg56
VNew Delhi
p1391
sg58
I65176
sg59
I404
sg26
VTue Feb 11 06:32:22 +0000 2014
p1392
sg61
I00
sg62
VPosting the best Tips to make your life a lot easier
p1393
sg64
Vhttps://pbs.twimg.com/profile_images/529928112163680256/sF6iyAoV_normal.jpeg
p1394
sg66
I638
sg67
I4
sg68
I19800
sg69
Nsg70
I00
sg71
Vhttps://pbs.twimg.com/profile_banners/2337871266/1415179683
p1395
sg73
I00
sg74
I01
sg75
V009999
p1396
sg77
I00
sg78
I00
sg79
Vhttp://abs.twimg.com/images/themes/theme14/bg.gif
p1397
sg81
VUtilityHacks
p1398
sg83
I97
sg84
VUtility
p1399
sg86
VEFEFEF
p1400
sg88
Nsg90
I2337871266
sg91
V131516
p1401
sbsg93
I38
sg94
V<a href="http://twitter.com/download/iphone" rel="nofollow">Twitter for iPhone</a>
p1402
sg96
(lp1403
sg90
I531299417718935552
sbag3
(g4
g5
Ntp1404
Rp1405
(dp1406
g9
I63
sg10
Nsg11
Nsg12
(lp1407
sg14
I00
sg15
Nsg20
Nsg21
(lp1408
sg23
Nsg24
Nsg25
Nsg26
VSun Nov 09 04:16:56 +0000 2014
p1409
sg28
Nsg29
Nsg30
Nsg31
Nsg32
Nsg33
Nsg34
I00
sg35
Nsg36
(lp1410
sg38
Nsg39
Nsg40
Nsg41
VDating an awkward person is considered less stressful because you laugh more and have more fun, which improves quality of life.
p1411
sg43
I00
sg44
Ven
p1412
sg46
g3
(g47
g5
Ntp1413
Rp1414
(dp1415
g10
g111
sg52
V333333
p1416
sg54
Ven
p1417
sg56
VNew Delhi
p1418
sg58
I65176
sg59
I404
sg26
VTue Feb 11 06:32:22 +0000 2014
p1419
sg61
I00
sg62
VPosting the best Tips to make your life a lot easier
p1420
sg64
Vhttps://pbs.twimg.com/profile_images/529928112163680256/sF6iyAoV_normal.jpeg
p1421
sg66
I638
sg67
I4
sg68
I19800
sg69
Nsg70
I00
sg71
Vhttps://pbs.twimg.com/profile_banners/2337871266/1415179683
p1422
sg73
I00
sg74
I01
sg75
V009999
p1423
sg77
I00
sg78
I00
sg79
Vhttp://abs.twimg.com/images/themes/theme14/bg.gif
p1424
sg81
VUtilityHacks
p1425
sg83
I97
sg84
VUtility
p1426
sg86
VEFEFEF
p1427
sg88
Nsg90
I2337871266
sg91
V131516
p1428
sbsg93
I48
sg94
V<a href="http://twitter.com/download/iphone" rel="nofollow">Twitter for iPhone</a>
p1429
sg96
(lp1430
sg90
I531299374660214786
sbag3
(g4
g5
Ntp1431
Rp1432
(dp1433
g9
I59
sg10
Nsg11
Nsg12
(lp1434
sg14
I00
sg15
Nsg20
Nsg21
(lp1435
sg23
Nsg24
Nsg25
Nsg26
VSun Nov 09 04:16:48 +0000 2014
p1436
sg28
Nsg29
Nsg30
Nsg31
Nsg32
Nsg33
Nsg34
I00
sg35
Nsg36
(lp1437
sg38
Nsg39
Nsg40
Nsg41
VMarijuana is the oldest natural, purest, and healthiest pain relief medication in the world. It's use dates back to 10 B.C.
p1438
sg43
I00
sg44
Ven
p1439
sg46
g3
(g47
g5
Ntp1440
Rp1441
(dp1442
g10
g111
sg52
V333333
p1443
sg54
Ven
p1444
sg56
VNew Delhi
p1445
sg58
I65176
sg59
I404
sg26
VTue Feb 11 06:32:22 +0000 2014
p1446
sg61
I00
sg62
VPosting the best Tips to make your life a lot easier
p1447
sg64
Vhttps://pbs.twimg.com/profile_images/529928112163680256/sF6iyAoV_normal.jpeg
p1448
sg66
I638
sg67
I4
sg68
I19800
sg69
Nsg70
I00
sg71
Vhttps://pbs.twimg.com/profile_banners/2337871266/1415179683
p1449
sg73
I00
sg74
I01
sg75
V009999
p1450
sg77
I00
sg78
I00
sg79
Vhttp://abs.twimg.com/images/themes/theme14/bg.gif
p1451
sg81
VUtilityHacks
p1452
sg83
I97
sg84
VUtility
p1453
sg86
VEFEFEF
p1454
sg88
Nsg90
I2337871266
sg91
V131516
p1455
sbsg93
I60
sg94
V<a href="http://twitter.com/download/iphone" rel="nofollow">Twitter for iPhone</a>
p1456
sg96
(lp1457
sg90
I531299341143527425
sbag3
(g4
g5
Ntp1458
Rp1459
(dp1460
g9
I20
sg10
Nsg11
Nsg12
(lp1461
sg14
I00
sg15
Nsg20
Nsg21
(lp1462
(dp1463
Vexpanded_url
p1464
Vhttp://twitter.com/UtilityHacks/status/529488155339014144/photo/1
p1465
sVdisplay_url
p1466
Vpic.twitter.com/d59qUjiRcJ
p1467
sVurl
p1468
Vhttp://t.co/d59qUjiRcJ
p1469
sVmedia_url_https
p1470
Vhttps://pbs.twimg.com/media/B1ken5lCQAAdgOw.jpg
p1471
sVid_str
p1472
V529488102012633088
p1473
sVsizes
p1474
(dp1475
Vsmall
p1476
(dp1477
Vh
p1478
I254
sVresize
p1479
Vfit
p1480
sVw
p1481
I340
ssVlarge
p1482
(dp1483
Vh
p1484
I448
sVresize
p1485
Vfit
p1486
sVw
p1487
I599
ssVmedium
p1488
(dp1489
Vh
p1490
I448
sVresize
p1491
Vfit
p1492
sVw
p1493
I599
ssVthumb
p1494
(dp1495
Vh
p1496
I150
sVresize
p1497
Vcrop
p1498
sVw
p1499
I150
sssVindices
p1500
(lp1501
I115
aI137
asVtype
p1502
Vphoto
p1503
sVid
p1504
I529488102012633088
sVmedia_url
p1505
Vhttp://pbs.twimg.com/media/B1ken5lCQAAdgOw.jpg
p1506
sasg23
Nsg24
Nsg25
Nsg26
VTue Nov 04 04:19:48 +0000 2014
p1507
sg28
Nsg29
I00
sg30
Nsg31
Nsg32
Nsg33
Nsg34
I00
sg35
Nsg36
(lp1508
sg38
Nsg39
Nsg40
Nsg41
VYou'll never eat again from Dominos, McDonald, The Burger King or KFC after looking at this http://t.co/H7md4EAOSR http://t.co/d59qUjiRcJ
p1509
sg43
I00
sg44
Ven
p1510
sg46
g3
(g47
g5
Ntp1511
Rp1512
(dp1513
g10
g111
sg52
V333333
p1514
sg54
Ven
p1515
sg56
VNew Delhi
p1516
sg58
I65176
sg59
I404
sg26
VTue Feb 11 06:32:22 +0000 2014
p1517
sg61
I00
sg62
VPosting the best Tips to make your life a lot easier
p1518
sg64
Vhttps://pbs.twimg.com/profile_images/529928112163680256/sF6iyAoV_normal.jpeg
p1519
sg66
I638
sg67
I4
sg68
I19800
sg69
Nsg70
I00
sg71
Vhttps://pbs.twimg.com/profile_banners/2337871266/1415179683
p1520
sg73
I00
sg74
I01
sg75
V009999
p1521
sg77
I00
sg78
I00
sg79
Vhttp://abs.twimg.com/images/themes/theme14/bg.gif
p1522
sg81
VUtilityHacks
p1523
sg83
I97
sg84
VUtility
p1524
sg86
VEFEFEF
p1525
sg88
Nsg90
I2337871266
sg91
V131516
p1526
sbsg93
I35
sg94
V<a href="http://twitter.com/download/iphone" rel="nofollow">Twitter for iPhone</a>
p1527
sg96
(lp1528
g3
(g204
g5
Ntp1529
Rp1530
(dp1531
g208
Vhttp://t.co/H7md4EAOSR
p1532
sg210
Vhttp://pic.twitterr.co/foody
p1533
sbasg90
I529488155339014144
sbag3
(g4
g5
Ntp1534
Rp1535
(dp1536
g9
I191
sg10
Nsg11
Nsg12
(lp1537
sg14
I00
sg15
Nsg20
Nsg21
(lp1538
(dp1539
Vexpanded_url
p1540
Vhttp://twitter.com/UtilityHacks/status/528518138858455040/photo/1
p1541
sVdisplay_url
p1542
Vpic.twitter.com/fqVXnQoif5
p1543
sVurl
p1544
Vhttp://t.co/fqVXnQoif5
p1545
sVmedia_url_https
p1546
Vhttps://pbs.twimg.com/media/B1WsbWuCUAEUZma.jpg
p1547
sVid_str
p1548
V528518117241016321
p1549
sVsizes
p1550
(dp1551
Vsmall
p1552
(dp1553
Vh
p1554
I312
sVresize
p1555
Vfit
p1556
sVw
p1557
I340
ssVlarge
p1558
(dp1559
Vh
p1560
I544
sVresize
p1561
Vfit
p1562
sVw
p1563
I592
ssVmedium
p1564
(dp1565
Vh
p1566
I544
sVresize
p1567
Vfit
p1568
sVw
p1569
I592
ssVthumb
p1570
(dp1571
Vh
p1572
I150
sVresize
p1573
Vcrop
p1574
sVw
p1575
I150
sssVindices
p1576
(lp1577
I0
aI22
asVtype
p1578
Vphoto
p1579
sVid
p1580
I528518117241016321
sVmedia_url
p1581
Vhttp://pbs.twimg.com/media/B1WsbWuCUAEUZma.jpg
p1582
sasg23
Nsg24
Nsg25
Nsg26
VSat Nov 01 12:05:18 +0000 2014
p1583
sg28
Nsg29
I00
sg30
Nsg31
Nsg32
Nsg33
Nsg34
I00
sg35
Nsg36
(lp1584
sg38
Nsg39
Nsg40
Nsg41
Vhttp://t.co/fqVXnQoif5
p1585
sg43
I00
sg44
Vund
p1586
sg46
g3
(g47
g5
Ntp1587
Rp1588
(dp1589
g10
g111
sg52
V333333
p1590
sg54
Ven
p1591
sg56
VNew Delhi
p1592
sg58
I65176
sg59
I404
sg26
VTue Feb 11 06:32:22 +0000 2014
p1593
sg61
I00
sg62
VPosting the best Tips to make your life a lot easier
p1594
sg64
Vhttps://pbs.twimg.com/profile_images/529928112163680256/sF6iyAoV_normal.jpeg
p1595
sg66
I638
sg67
I4
sg68
I19800
sg69
Nsg70
I00
sg71
Vhttps://pbs.twimg.com/profile_banners/2337871266/1415179683
p1596
sg73
I00
sg74
I01
sg75
V009999
p1597
sg77
I00
sg78
I00
sg79
Vhttp://abs.twimg.com/images/themes/theme14/bg.gif
p1598
sg81
VUtilityHacks
p1599
sg83
I97
sg84
VUtility
p1600
sg86
VEFEFEF
p1601
sg88
Nsg90
I2337871266
sg91
V131516
p1602
sbsg93
I141
sg94
V<a href="http://twitter.com/download/iphone" rel="nofollow">Twitter for iPhone</a>
p1603
sg96
(lp1604
sg90
I528518138858455040
sbag3
(g4
g5
Ntp1605
Rp1606
(dp1607
g9
I131
sg10
Nsg11
Nsg12
(lp1608
sg14
I00
sg15
Nsg20
Nsg21
(lp1609
(dp1610
Vexpanded_url
p1611
Vhttp://twitter.com/UtilityHacks/status/528518132894162945/photo/1
p1612
sVdisplay_url
p1613
Vpic.twitter.com/aKneN3ZSLW
p1614
sVurl
p1615
Vhttp://t.co/aKneN3ZSLW
p1616
sVmedia_url_https
p1617
Vhttps://pbs.twimg.com/media/B1WsavbCQAE7iG5.jpg
p1618
sVid_str
p1619
V528518106692337665
p1620
sVsizes
p1621
(dp1622
Vsmall
p1623
(dp1624
Vh
p1625
I321
sVresize
p1626
Vfit
p1627
sVw
p1628
I340
ssVlarge
p1629
(dp1630
Vh
p1631
I560
sVresize
p1632
Vfit
p1633
sVw
p1634
I592
ssVmedium
p1635
(dp1636
Vh
p1637
I560
sVresize
p1638
Vfit
p1639
sVw
p1640
I592
ssVthumb
p1641
(dp1642
Vh
p1643
I150
sVresize
p1644
Vcrop
p1645
sVw
p1646
I150
sssVindices
p1647
(lp1648
I0
aI22
asVtype
p1649
Vphoto
p1650
sVid
p1651
I528518106692337665
sVmedia_url
p1652
Vhttp://pbs.twimg.com/media/B1WsavbCQAE7iG5.jpg
p1653
sasg23
Nsg24
Nsg25
Nsg26
VSat Nov 01 12:05:16 +0000 2014
p1654
sg28
Nsg29
I00
sg30
Nsg31
Nsg32
Nsg33
Nsg34
I00
sg35
Nsg36
(lp1655
sg38
Nsg39
Nsg40
Nsg41
Vhttp://t.co/aKneN3ZSLW
p1656
sg43
I00
sg44
Vund
p1657
sg46
g3
(g47
g5
Ntp1658
Rp1659
(dp1660
g10
g111
sg52
V333333
p1661
sg54
Ven
p1662
sg56
VNew Delhi
p1663
sg58
I65176
sg59
I404
sg26
VTue Feb 11 06:32:22 +0000 2014
p1664
sg61
I00
sg62
VPosting the best Tips to make your life a lot easier
p1665
sg64
Vhttps://pbs.twimg.com/profile_images/529928112163680256/sF6iyAoV_normal.jpeg
p1666
sg66
I638
sg67
I4
sg68
I19800
sg69
Nsg70
I00
sg71
Vhttps://pbs.twimg.com/profile_banners/2337871266/1415179683
p1667
sg73
I00
sg74
I01
sg75
V009999
p1668
sg77
I00
sg78
I00
sg79
Vhttp://abs.twimg.com/images/themes/theme14/bg.gif
p1669
sg81
VUtilityHacks
p1670
sg83
I97
sg84
VUtility
p1671
sg86
VEFEFEF
p1672
sg88
Nsg90
I2337871266
sg91
V131516
p1673
sbsg93
I51
sg94
V<a href="http://twitter.com/download/iphone" rel="nofollow">Twitter for iPhone</a>
p1674
sg96
(lp1675
sg90
I528518132894162945
sbag3
(g4
g5
Ntp1676
Rp1677
(dp1678
g9
I242
sg10
Nsg11
Nsg12
(lp1679
sg14
I00
sg15
Nsg20
Nsg21
(lp1680
(dp1681
Vexpanded_url
p1682
Vhttp://twitter.com/UtilityHacks/status/528518121305296896/photo/1
p1683
sVdisplay_url
p1684
Vpic.twitter.com/Gi4IEWlETG
p1685
sVurl
p1686
Vhttp://t.co/Gi4IEWlETG
p1687
sVmedia_url_https
p1688
Vhttps://pbs.twimg.com/media/B1WsZcECEAApahG.jpg
p1689
sVid_str
p1690
V528518084315713536
p1691
sVsizes
p1692
(dp1693
Vsmall
p1694
(dp1695
Vh
p1696
I214
sVresize
p1697
Vfit
p1698
sVw
p1699
I340
ssVlarge
p1700
(dp1701
Vh
p1702
I374
sVresize
p1703
Vfit
p1704
sVw
p1705
I592
ssVmedium
p1706
(dp1707
Vh
p1708
I374
sVresize
p1709
Vfit
p1710
sVw
p1711
I592
ssVthumb
p1712
(dp1713
Vh
p1714
I150
sVresize
p1715
Vcrop
p1716
sVw
p1717
I150
sssVindices
p1718
(lp1719
I0
aI22
asVtype
p1720
Vphoto
p1721
sVid
p1722
I528518084315713536
sVmedia_url
p1723
Vhttp://pbs.twimg.com/media/B1WsZcECEAApahG.jpg
p1724
sasg23
Nsg24
Nsg25
Nsg26
VSat Nov 01 12:05:14 +0000 2014
p1725
sg28
Nsg29
I00
sg30
Nsg31
Nsg32
Nsg33
Nsg34
I00
sg35
Nsg36
(lp1726
sg38
Nsg39
Nsg40
Nsg41
Vhttp://t.co/Gi4IEWlETG
p1727
sg43
I00
sg44
Vund
p1728
sg46
g3
(g47
g5
Ntp1729
Rp1730
(dp1731
g10
g111
sg52
V333333
p1732
sg54
Ven
p1733
sg56
VNew Delhi
p1734
sg58
I65176
sg59
I404
sg26
VTue Feb 11 06:32:22 +0000 2014
p1735
sg61
I00
sg62
VPosting the best Tips to make your life a lot easier
p1736
sg64
Vhttps://pbs.twimg.com/profile_images/529928112163680256/sF6iyAoV_normal.jpeg
p1737
sg66
I638
sg67
I4
sg68
I19800
sg69
Nsg70
I00
sg71
Vhttps://pbs.twimg.com/profile_banners/2337871266/1415179683
p1738
sg73
I00
sg74
I01
sg75
V009999
p1739
sg77
I00
sg78
I00
sg79
Vhttp://abs.twimg.com/images/themes/theme14/bg.gif
p1740
sg81
VUtilityHacks
p1741
sg83
I97
sg84
VUtility
p1742
sg86
VEFEFEF
p1743
sg88
Nsg90
I2337871266
sg91
V131516
p1744
sbsg93
I122
sg94
V<a href="http://twitter.com/download/iphone" rel="nofollow">Twitter for iPhone</a>
p1745
sg96
(lp1746
sg90
I528518121305296896
sbag3
(g4
g5
Ntp1747
Rp1748
(dp1749
g9
I131
sg10
Nsg11
Nsg12
(lp1750
sg14
I00
sg15
Nsg20
Nsg21
(lp1751
(dp1752
Vexpanded_url
p1753
Vhttp://twitter.com/UtilityHacks/status/528518118746755074/photo/1
p1754
sVdisplay_url
p1755
Vpic.twitter.com/3fhyadFbOl
p1756
sVurl
p1757
Vhttp://t.co/3fhyadFbOl
p1758
sVmedia_url_https
p1759
Vhttps://pbs.twimg.com/media/B1WsZjkCUAABx0t.jpg
p1760
sVid_str
p1761
V528518086328995840
p1762
sVsizes
p1763
(dp1764
Vsmall
p1765
(dp1766
Vh
p1767
I223
sVresize
p1768
Vfit
p1769
sVw
p1770
I340
ssVlarge
p1771
(dp1772
Vh
p1773
I390
sVresize
p1774
Vfit
p1775
sVw
p1776
I592
ssVmedium
p1777
(dp1778
Vh
p1779
I390
sVresize
p1780
Vfit
p1781
sVw
p1782
I592
ssVthumb
p1783
(dp1784
Vh
p1785
I150
sVresize
p1786
Vcrop
p1787
sVw
p1788
I150
sssVindices
p1789
(lp1790
I0
aI22
asVtype
p1791
Vphoto
p1792
sVid
p1793
I528518086328995840
sVmedia_url
p1794
Vhttp://pbs.twimg.com/media/B1WsZjkCUAABx0t.jpg
p1795
sasg23
Nsg24
Nsg25
Nsg26
VSat Nov 01 12:05:13 +0000 2014
p1796
sg28
Nsg29
I00
sg30
Nsg31
Nsg32
Nsg33
Nsg34
I00
sg35
Nsg36
(lp1797
sg38
Nsg39
Nsg40
Nsg41
Vhttp://t.co/3fhyadFbOl
p1798
sg43
I00
sg44
Vund
p1799
sg46
g3
(g47
g5
Ntp1800
Rp1801
(dp1802
g10
g111
sg52
V333333
p1803
sg54
Ven
p1804
sg56
VNew Delhi
p1805
sg58
I65176
sg59
I404
sg26
VTue Feb 11 06:32:22 +0000 2014
p1806
sg61
I00
sg62
VPosting the best Tips to make your life a lot easier
p1807
sg64
Vhttps://pbs.twimg.com/profile_images/529928112163680256/sF6iyAoV_normal.jpeg
p1808
sg66
I638
sg67
I4
sg68
I19800
sg69
Nsg70
I00
sg71
Vhttps://pbs.twimg.com/profile_banners/2337871266/1415179683
p1809
sg73
I00
sg74
I01
sg75
V009999
p1810
sg77
I00
sg78
I00
sg79
Vhttp://abs.twimg.com/images/themes/theme14/bg.gif
p1811
sg81
VUtilityHacks
p1812
sg83
I97
sg84
VUtility
p1813
sg86
VEFEFEF
p1814
sg88
Nsg90
I2337871266
sg91
V131516
p1815
sbsg93
I97
sg94
V<a href="http://twitter.com/download/iphone" rel="nofollow">Twitter for iPhone</a>
p1816
sg96
(lp1817
sg90
I528518118746755074
sbag3
(g4
g5
Ntp1818
Rp1819
(dp1820
g9
I183
sg10
Nsg11
Nsg12
(lp1821
sg14
I00
sg15
Nsg20
Nsg21
(lp1822
(dp1823
Vexpanded_url
p1824
Vhttp://twitter.com/UtilityHacks/status/527816428225695745/photo/1
p1825
sVdisplay_url
p1826
Vpic.twitter.com/mKpuqDxFVh
p1827
sVurl
p1828
Vhttp://t.co/mKpuqDxFVh
p1829
sVmedia_url_https
p1830
Vhttps://pbs.twimg.com/media/B1MuOADCUAEAyrq.jpg
p1831
sVid_str
p1832
V527816399398260737
p1833
sVsizes
p1834
(dp1835
Vsmall
p1836
(dp1837
Vh
p1838
I321
sVresize
p1839
Vfit
p1840
sVw
p1841
I340
ssVlarge
p1842
(dp1843
Vh
p1844
I560
sVresize
p1845
Vfit
p1846
sVw
p1847
I592
ssVmedium
p1848
(dp1849
Vh
p1850
I560
sVresize
p1851
Vfit
p1852
sVw
p1853
I592
ssVthumb
p1854
(dp1855
Vh
p1856
I150
sVresize
p1857
Vcrop
p1858
sVw
p1859
I150
sssVindices
p1860
(lp1861
I0
aI22
asVtype
p1862
Vphoto
p1863
sVid
p1864
I527816399398260737
sVmedia_url
p1865
Vhttp://pbs.twimg.com/media/B1MuOADCUAEAyrq.jpg
p1866
sasg23
Nsg24
Nsg25
Nsg26
VThu Oct 30 13:36:57 +0000 2014
p1867
sg28
Nsg29
I00
sg30
Nsg31
Nsg32
Nsg33
Nsg34
I00
sg35
Nsg36
(lp1868
sg38
Nsg39
Nsg40
Nsg41
Vhttp://t.co/mKpuqDxFVh
p1869
sg43
I00
sg44
Vund
p1870
sg46
g3
(g47
g5
Ntp1871
Rp1872
(dp1873
g10
g111
sg52
V333333
p1874
sg54
Ven
p1875
sg56
VNew Delhi
p1876
sg58
I65176
sg59
I404
sg26
VTue Feb 11 06:32:22 +0000 2014
p1877
sg61
I00
sg62
VPosting the best Tips to make your life a lot easier
p1878
sg64
Vhttps://pbs.twimg.com/profile_images/529928112163680256/sF6iyAoV_normal.jpeg
p1879
sg66
I638
sg67
I4
sg68
I19800
sg69
Nsg70
I00
sg71
Vhttps://pbs.twimg.com/profile_banners/2337871266/1415179683
p1880
sg73
I00
sg74
I01
sg75
V009999
p1881
sg77
I00
sg78
I00
sg79
Vhttp://abs.twimg.com/images/themes/theme14/bg.gif
p1882
sg81
VUtilityHacks
p1883
sg83
I97
sg84
VUtility
p1884
sg86
VEFEFEF
p1885
sg88
Nsg90
I2337871266
sg91
V131516
p1886
sbsg93
I85
sg94
V<a href="http://twitter.com/download/iphone" rel="nofollow">Twitter for iPhone</a>
p1887
sg96
(lp1888
sg90
I527816428225695745
sbag3
(g4
g5
Ntp1889
Rp1890
(dp1891
g9
I94
sg10
Nsg11
Nsg12
(lp1892
sg14
I00
sg15
Nsg20
Nsg21
(lp1893
(dp1894
Vexpanded_url
p1895
Vhttp://twitter.com/UtilityHacks/status/527816405958160384/photo/1
p1896
sVdisplay_url
p1897
Vpic.twitter.com/tAv4uRxwme
p1898
sVurl
p1899
Vhttp://t.co/tAv4uRxwme
p1900
sVmedia_url_https
p1901
Vhttps://pbs.twimg.com/media/B1MuM1pCMAEL9pV.jpg
p1902
sVid_str
p1903
V527816379424976897
p1904
sVsizes
p1905
(dp1906
Vsmall
p1907
(dp1908
Vh
p1909
I453
sVresize
p1910
Vfit
p1911
sVw
p1912
I340
ssVlarge
p1913
(dp1914
Vh
p1915
I790
sVresize
p1916
Vfit
p1917
sVw
p1918
I592
ssVmedium
p1919
(dp1920
Vh
p1921
I790
sVresize
p1922
Vfit
p1923
sVw
p1924
I592
ssVthumb
p1925
(dp1926
Vh
p1927
I150
sVresize
p1928
Vcrop
p1929
sVw
p1930
I150
sssVindices
p1931
(lp1932
I0
aI22
asVtype
p1933
Vphoto
p1934
sVid
p1935
I527816379424976897
sVmedia_url
p1936
Vhttp://pbs.twimg.com/media/B1MuM1pCMAEL9pV.jpg
p1937
sasg23
Nsg24
Nsg25
Nsg26
VThu Oct 30 13:36:52 +0000 2014
p1938
sg28
Nsg29
I00
sg30
Nsg31
Nsg32
Nsg33
Nsg34
I00
sg35
Nsg36
(lp1939
sg38
Nsg39
Nsg40
Nsg41
Vhttp://t.co/tAv4uRxwme
p1940
sg43
I00
sg44
Vund
p1941
sg46
g3
(g47
g5
Ntp1942
Rp1943
(dp1944
g10
g111
sg52
V333333
p1945
sg54
Ven
p1946
sg56
VNew Delhi
p1947
sg58
I65176
sg59
I404
sg26
VTue Feb 11 06:32:22 +0000 2014
p1948
sg61
I00
sg62
VPosting the best Tips to make your life a lot easier
p1949
sg64
Vhttps://pbs.twimg.com/profile_images/529928112163680256/sF6iyAoV_normal.jpeg
p1950
sg66
I638
sg67
I4
sg68
I19800
sg69
Nsg70
I00
sg71
Vhttps://pbs.twimg.com/profile_banners/2337871266/1415179683
p1951
sg73
I00
sg74
I01
sg75
V009999
p1952
sg77
I00
sg78
I00
sg79
Vhttp://abs.twimg.com/images/themes/theme14/bg.gif
p1953
sg81
VUtilityHacks
p1954
sg83
I97
sg84
VUtility
p1955
sg86
VEFEFEF
p1956
sg88
Nsg90
I2337871266
sg91
V131516
p1957
sbsg93
I49
sg94
V<a href="http://twitter.com/download/iphone" rel="nofollow">Twitter for iPhone</a>
p1958
sg96
(lp1959
sg90
I527816405958160384
sbaa.