(lp0
S'annielovesAlot'
p1
a(lp2
ccopy_reg
_reconstructor
p3
(ctwitter.status
Status
p4
c__builtin__
object
p5
Ntp6
Rp7
(dp8
S'_favorite_count'
p9
I0
sS'_location'
p10
NsS'_withheld_scope'
p11
NsS'hashtags'
p12
(lp13
sS'_truncated'
p14
I00
sS'_retweeted_status'
p15
NsS'_withheld_copyright'
p16
NsS'media'
p17
(lp18
sS'_place'
p19
NsS'_contributors'
p20
NsS'_current_user_retweet'
p21
NsS'_created_at'
p22
VSat Dec 13 20:51:34 +0000 2014
p23
sS'_scopes'
p24
NsS'_possibly_sensitive'
p25
I00
sS'_in_reply_to_screen_name'
p26
NsS'_coordinates'
p27
NsS'_in_reply_to_user_id'
p28
NsS'_geo'
p29
NsS'_favorited'
p30
I00
sS'_withheld_in_countries'
p31
NsS'user_mentions'
p32
(lp33
g3
(ctwitter.user
User
p34
g5
Ntp35
Rp36
(dp37
g10
NsS'_profile_text_color'
p38
NsS'_lang'
p39
NsS'_time_zone'
p40
NsS'_followers_count'
p41
NsS'_statuses_count'
p42
Nsg22
NsS'_verified'
p43
NsS'_description'
p44
NsS'_profile_image_url'
p45
NsS'_friends_count'
p46
NsS'_favourites_count'
p47
NsS'_utc_offset'
p48
NsS'_status'
p49
NsS'_protected'
p50
NsS'_profile_banner_url'
p51
NsS'_notifications'
p52
NsS'_profile_background_tile'
p53
NsS'_profile_link_color'
p54
NsS'_geo_enabled'
p55
NsS'_contributors_enabled'
p56
NsS'_profile_background_image_url'
p57
NsS'_screen_name'
p58
VSyleena_Johnson
p59
sS'_listed_count'
p60
NsS'_name'
p61
VSyleena Johnson
p62
sS'_profile_sidebar_fill_color'
p63
NsS'_url'
p64
NsS'_id'
p65
I181630001
sS'_profile_background_color'
p66
Nsbag3
(g34
g5
Ntp67
Rp68
(dp69
g10
Nsg38
Nsg39
Nsg40
Nsg41
Nsg42
Nsg22
Nsg43
Nsg44
Nsg45
Nsg46
Nsg47
Nsg48
Nsg49
Nsg50
Nsg51
Nsg52
Nsg53
Nsg54
Nsg55
Nsg56
Nsg57
Nsg58
VSyleena_Johnson
p70
sg60
Nsg61
VSyleena Johnson
p71
sg63
Nsg64
Nsg65
I181630001
sg66
NsbasS'_now'
p72
NsS'_id_str'
p73
NsS'_in_reply_to_status_id'
p74
NsS'_text'
p75
V.@Syleena_Johnson's 7 Days of Giving Holiday Contest: Day Six \u2014 Skype Video Call with @Syleena_Johnson! Enter here: http://t.co/zphdNnH2xN
p76
sS'_retweeted'
p77
I00
sS'lang'
p78
Ven
p79
sS'_user'
p80
g3
(g34
g5
Ntp81
Rp82
(dp83
g10
V
p84
sg38
V333333
p85
sg39
Ven
p86
sg40
Nsg41
I19
sg42
I85
sg22
VWed Sep 24 17:14:01 +0000 2014
p87
sg43
I00
sg44
g84
sg45
Vhttps://pbs.twimg.com/profile_images/522831447057383425/l9_Mhqqm_normal.jpeg
p88
sg46
I164
sg47
I6
sg48
Nsg49
Nsg50
I00
sg51
Vhttps://pbs.twimg.com/profile_banners/2830235251/1411578998
p89
sg52
I00
sg53
I00
sg54
V0084B4
p90
sg55
I00
sg56
I00
sg57
Vhttp://abs.twimg.com/images/themes/theme1/bg.png
p91
sg58
VannielovesAlot
p92
sg60
I0
sg61
VAnnie LovesAlot
p93
sg63
VDDEEF6
p94
sg64
Nsg65
I2830235251
sg66
VC0DEED
p95
sbsS'_retweet_count'
p96
I0
sS'_source'
p97
V<a href="http://lockerdome.com" rel="nofollow">LockerDome</a>
p98
sS'urls'
p99
(lp100
g3
(ctwitter.url
Url
p101
g5
Ntp102
Rp103
(dp104
S'url'
p105
Vhttp://t.co/zphdNnH2xN
p106
sS'expanded_url'
p107
Vhttp://lockerdo.me/6*CZL
p108
sbasg65
I543870868615491585
sbag3
(g4
g5
Ntp109
Rp110
(dp111
g9
I0
sg10
Nsg11
Nsg12
(lp112
sg14
I00
sg15
Nsg16
Nsg17
(lp113
sg19
Nsg20
Nsg21
Nsg22
VFri Dec 12 20:39:23 +0000 2014
p114
sg24
Nsg25
I00
sg26
Nsg27
Nsg28
Nsg29
Nsg30
I00
sg31
Nsg32
(lp115
g3
(g34
g5
Ntp116
Rp117
(dp118
g10
Nsg38
Nsg39
Nsg40
Nsg41
Nsg42
Nsg22
Nsg43
Nsg44
Nsg45
Nsg46
Nsg47
Nsg48
Nsg49
Nsg50
Nsg51
Nsg52
Nsg53
Nsg54
Nsg55
Nsg56
Nsg57
Nsg58
VSyleena_Johnson
p119
sg60
Nsg61
VSyleena Johnson
p120
sg63
Nsg64
Nsg65
I181630001
sg66
Nsbag3
(g34
g5
Ntp121
Rp122
(dp123
g10
Nsg38
Nsg39
Nsg40
Nsg41
Nsg42
Nsg22
Nsg43
Nsg44
Nsg45
Nsg46
Nsg47
Nsg48
Nsg49
Nsg50
Nsg51
Nsg52
Nsg53
Nsg54
Nsg55
Nsg56
Nsg57
Nsg58
VSyleena_Johnson
p124
sg60
Nsg61
VSyleena Johnson
p125
sg63
Nsg64
Nsg65
I181630001
sg66
Nsbasg72
Nsg73
Nsg74
Nsg75
V.@Syleena_Johnson's 7 Days of Giving Holiday Contest: Day Five \u2014 Meet and Greet with @Syleena_Johnson. Enter here: http://t.co/mwFtn7VqGa
p126
sg77
I00
sg78
Ven
p127
sg80
g3
(g34
g5
Ntp128
Rp129
(dp130
g10
g84
sg38
V333333
p131
sg39
Ven
p132
sg40
Nsg41
I19
sg42
I85
sg22
VWed Sep 24 17:14:01 +0000 2014
p133
sg43
I00
sg44
g84
sg45
Vhttps://pbs.twimg.com/profile_images/522831447057383425/l9_Mhqqm_normal.jpeg
p134
sg46
I164
sg47
I6
sg48
Nsg49
Nsg50
I00
sg51
Vhttps://pbs.twimg.com/profile_banners/2830235251/1411578998
p135
sg52
I00
sg53
I00
sg54
V0084B4
p136
sg55
I00
sg56
I00
sg57
Vhttp://abs.twimg.com/images/themes/theme1/bg.png
p137
sg58
VannielovesAlot
p138
sg60
I0
sg61
VAnnie LovesAlot
p139
sg63
VDDEEF6
p140
sg64
Nsg65
I2830235251
sg66
VC0DEED
p141
sbsg96
I0
sg97
V<a href="http://lockerdome.com" rel="nofollow">LockerDome</a>
p142
sg99
(lp143
g3
(g101
g5
Ntp144
Rp145
(dp146
g105
Vhttp://t.co/mwFtn7VqGa
p147
sg107
Vhttp://lockerdo.me/SQ*2W
p148
sbasg65
I543505414302597120
sbag3
(g4
g5
Ntp149
Rp150
(dp151
g9
I0
sg10
Nsg11
Nsg12
(lp152
sg14
I00
sg15
Nsg16
Nsg17
(lp153
sg19
Nsg20
Nsg21
Nsg22
VFri Dec 12 20:37:39 +0000 2014
p154
sg24
Nsg25
I00
sg26
Nsg27
Nsg28
Nsg29
Nsg30
I00
sg31
Nsg32
(lp155
g3
(g34
g5
Ntp156
Rp157
(dp158
g10
Nsg38
Nsg39
Nsg40
Nsg41
Nsg42
Nsg22
Nsg43
Nsg44
Nsg45
Nsg46
Nsg47
Nsg48
Nsg49
Nsg50
Nsg51
Nsg52
Nsg53
Nsg54
Nsg55
Nsg56
Nsg57
Nsg58
VHomeDSGN
p159
sg60
Nsg61
VHomeDSGN
p160
sg63
Nsg64
Nsg65
I232934340
sg66
Nsbasg72
Nsg73
Nsg74
Nsg75
VJust entered to win a Bose bluetooth speaker from @HomeDSGN! Enter here: http://t.co/nq7bFx5wyN
p161
sg77
I00
sg78
Ven
p162
sg80
g3
(g34
g5
Ntp163
Rp164
(dp165
g10
g84
sg38
V333333
p166
sg39
Ven
p167
sg40
Nsg41
I19
sg42
I85
sg22
VWed Sep 24 17:14:01 +0000 2014
p168
sg43
I00
sg44
g84
sg45
Vhttps://pbs.twimg.com/profile_images/522831447057383425/l9_Mhqqm_normal.jpeg
p169
sg46
I164
sg47
I6
sg48
Nsg49
Nsg50
I00
sg51
Vhttps://pbs.twimg.com/profile_banners/2830235251/1411578998
p170
sg52
I00
sg53
I00
sg54
V0084B4
p171
sg55
I00
sg56
I00
sg57
Vhttp://abs.twimg.com/images/themes/theme1/bg.png
p172
sg58
VannielovesAlot
p173
sg60
I0
sg61
VAnnie LovesAlot
p174
sg63
VDDEEF6
p175
sg64
Nsg65
I2830235251
sg66
VC0DEED
p176
sbsg96
I0
sg97
V<a href="http://lockerdome.com" rel="nofollow">LockerDome</a>
p177
sg99
(lp178
g3
(g101
g5
Ntp179
Rp180
(dp181
g105
Vhttp://t.co/nq7bFx5wyN
p182
sg107
Vhttp://lockerdo.me/S1ZBN
p183
sbasg65
I543504979768516608
sbag3
(g4
g5
Ntp184
Rp185
(dp186
g9
I0
sg10
Nsg11
Nsg12
(lp187
g3
(ctwitter.hashtag
Hashtag
p188
g5
Ntp189
Rp190
(dp191
S'text'
p192
VGremlins
p193
sbasg14
I00
sg15
Nsg16
Nsg17
(lp194
sg19
Nsg20
Nsg21
Nsg22
VFri Dec 12 20:36:52 +0000 2014
p195
sg24
Nsg25
I00
sg26
Nsg27
Nsg28
Nsg29
Nsg30
I00
sg31
Nsg32
(lp196
sg72
Nsg73
Nsg74
Nsg75
VI want this autographed #Gremlins poster SO BAD! http://t.co/Kb9pCaepiB
p197
sg77
I00
sg78
Ven
p198
sg80
g3
(g34
g5
Ntp199
Rp200
(dp201
g10
g84
sg38
V333333
p202
sg39
Ven
p203
sg40
Nsg41
I19
sg42
I85
sg22
VWed Sep 24 17:14:01 +0000 2014
p204
sg43
I00
sg44
g84
sg45
Vhttps://pbs.twimg.com/profile_images/522831447057383425/l9_Mhqqm_normal.jpeg
p205
sg46
I164
sg47
I6
sg48
Nsg49
Nsg50
I00
sg51
Vhttps://pbs.twimg.com/profile_banners/2830235251/1411578998
p206
sg52
I00
sg53
I00
sg54
V0084B4
p207
sg55
I00
sg56
I00
sg57
Vhttp://abs.twimg.com/images/themes/theme1/bg.png
p208
sg58
VannielovesAlot
p209
sg60
I0
sg61
VAnnie LovesAlot
p210
sg63
VDDEEF6
p211
sg64
Nsg65
I2830235251
sg66
VC0DEED
p212
sbsg96
I0
sg97
V<a href="http://lockerdome.com" rel="nofollow">LockerDome</a>
p213
sg99
(lp214
g3
(g101
g5
Ntp215
Rp216
(dp217
g105
Vhttp://t.co/Kb9pCaepiB
p218
sg107
Vhttp://lockerdo.me/mQHBa
p219
sbasg65
I543504783345074176
sbag3
(g4
g5
Ntp220
Rp221
(dp222
g9
I0
sg10
Nsg11
Nsg12
(lp223
sg14
I00
sg15
Nsg16
Nsg17
(lp224
sg19
Nsg20
Nsg21
Nsg22
VThu Dec 11 17:51:49 +0000 2014
p225
sg24
Nsg25
I00
sg26
Nsg27
Nsg28
Nsg29
Nsg30
I00
sg31
Nsg32
(lp226
sg72
Nsg73
Nsg74
Nsg75
VWin a Star Wars R2-D2 Backpack w/ Hood from Nerd Reactor http://t.co/NKL928utsK
p227
sg77
I00
sg78
Ven
p228
sg80
g3
(g34
g5
Ntp229
Rp230
(dp231
g10
g84
sg38
V333333
p232
sg39
Ven
p233
sg40
Nsg41
I19
sg42
I85
sg22
VWed Sep 24 17:14:01 +0000 2014
p234
sg43
I00
sg44
g84
sg45
Vhttps://pbs.twimg.com/profile_images/522831447057383425/l9_Mhqqm_normal.jpeg
p235
sg46
I164
sg47
I6
sg48
Nsg49
Nsg50
I00
sg51
Vhttps://pbs.twimg.com/profile_banners/2830235251/1411578998
p236
sg52
I00
sg53
I00
sg54
V0084B4
p237
sg55
I00
sg56
I00
sg57
Vhttp://abs.twimg.com/images/themes/theme1/bg.png
p238
sg58
VannielovesAlot
p239
sg60
I0
sg61
VAnnie LovesAlot
p240
sg63
VDDEEF6
p241
sg64
Nsg65
I2830235251
sg66
VC0DEED
p242
sbsg96
I0
sg97
V<a href="http://lockerdome.com" rel="nofollow">LockerDome</a>
p243
sg99
(lp244
g3
(g101
g5
Ntp245
Rp246
(dp247
g105
Vhttp://t.co/NKL928utsK
p248
sg107
Vhttp://lockerdo.me/_1hWg
p249
sbasg65
I543100859668643840
sbag3
(g4
g5
Ntp250
Rp251
(dp252
g9
I0
sg10
Nsg11
Nsg12
(lp253
sg14
I00
sg15
Nsg16
Nsg17
(lp254
sg19
Nsg20
Nsg21
Nsg22
VWed Dec 10 23:29:55 +0000 2014
p255
sg24
Nsg25
I00
sg26
Nsg27
Nsg28
Nsg29
Nsg30
I00
sg31
Nsg32
(lp256
g3
(g34
g5
Ntp257
Rp258
(dp259
g10
Nsg38
Nsg39
Nsg40
Nsg41
Nsg42
Nsg22
Nsg43
Nsg44
Nsg45
Nsg46
Nsg47
Nsg48
Nsg49
Nsg50
Nsg51
Nsg52
Nsg53
Nsg54
Nsg55
Nsg56
Nsg57
Nsg58
VBoredBugcom
p260
sg60
Nsg61
VBoredBug
p261
sg63
Nsg64
Nsg65
I2803468009
sg66
Nsbasg72
Nsg73
Nsg74
Nsg75
VHope I win a new iPad Air from @BoredBugcom! Just click the link to enter! http://t.co/n5nXPvIpvn
p262
sg77
I00
sg78
Ven
p263
sg80
g3
(g34
g5
Ntp264
Rp265
(dp266
g10
g84
sg38
V333333
p267
sg39
Ven
p268
sg40
Nsg41
I19
sg42
I85
sg22
VWed Sep 24 17:14:01 +0000 2014
p269
sg43
I00
sg44
g84
sg45
Vhttps://pbs.twimg.com/profile_images/522831447057383425/l9_Mhqqm_normal.jpeg
p270
sg46
I164
sg47
I6
sg48
Nsg49
Nsg50
I00
sg51
Vhttps://pbs.twimg.com/profile_banners/2830235251/1411578998
p271
sg52
I00
sg53
I00
sg54
V0084B4
p272
sg55
I00
sg56
I00
sg57
Vhttp://abs.twimg.com/images/themes/theme1/bg.png
p273
sg58
VannielovesAlot
p274
sg60
I0
sg61
VAnnie LovesAlot
p275
sg63
VDDEEF6
p276
sg64
Nsg65
I2830235251
sg66
VC0DEED
p277
sbsg96
I0
sg97
V<a href="http://lockerdome.com" rel="nofollow">LockerDome</a>
p278
sg99
(lp279
g3
(g101
g5
Ntp280
Rp281
(dp282
g105
Vhttp://t.co/n5nXPvIpvn
p283
sg107
Vhttp://lockerdo.me/m87ZL
p284
sbasg65
I542823555046457344
sbag3
(g4
g5
Ntp285
Rp286
(dp287
g9
I0
sg10
Nsg11
Nsg12
(lp288
g3
(g188
g5
Ntp289
Rp290
(dp291
g192
VTeamSyleena
p292
sbasg14
I00
sg15
Nsg16
Nsg17
(lp293
sg19
Nsg20
Nsg21
Nsg22
VWed Dec 10 19:03:25 +0000 2014
p294
sg24
Nsg25
I00
sg26
Nsg27
Nsg28
Nsg29
Nsg30
I00
sg31
Nsg32
(lp295
g3
(g34
g5
Ntp296
Rp297
(dp298
g10
Nsg38
Nsg39
Nsg40
Nsg41
Nsg42
Nsg22
Nsg43
Nsg44
Nsg45
Nsg46
Nsg47
Nsg48
Nsg49
Nsg50
Nsg51
Nsg52
Nsg53
Nsg54
Nsg55
Nsg56
Nsg57
Nsg58
VSyleena_Johnson
p299
sg60
Nsg61
VSyleena Johnson
p300
sg63
Nsg64
Nsg65
I181630001
sg66
Nsbasg72
Nsg73
Nsg74
Nsg75
V.@Syleena_Johnson's 7 Days of Giving Holiday Contest: Day Three \u2014 #TeamSyleena T-Shirt. Click here to enter: http://t.co/uSGB6wvy6B
p301
sg77
I00
sg78
Ven
p302
sg80
g3
(g34
g5
Ntp303
Rp304
(dp305
g10
g84
sg38
V333333
p306
sg39
Ven
p307
sg40
Nsg41
I19
sg42
I85
sg22
VWed Sep 24 17:14:01 +0000 2014
p308
sg43
I00
sg44
g84
sg45
Vhttps://pbs.twimg.com/profile_images/522831447057383425/l9_Mhqqm_normal.jpeg
p309
sg46
I164
sg47
I6
sg48
Nsg49
Nsg50
I00
sg51
Vhttps://pbs.twimg.com/profile_banners/2830235251/1411578998
p310
sg52
I00
sg53
I00
sg54
V0084B4
p311
sg55
I00
sg56
I00
sg57
Vhttp://abs.twimg.com/images/themes/theme1/bg.png
p312
sg58
VannielovesAlot
p313
sg60
I0
sg61
VAnnie LovesAlot
p314
sg63
VDDEEF6
p315
sg64
Nsg65
I2830235251
sg66
VC0DEED
p316
sbsg96
I0
sg97
V<a href="http://lockerdome.com" rel="nofollow">LockerDome</a>
p317
sg99
(lp318
g3
(g101
g5
Ntp319
Rp320
(dp321
g105
Vhttp://t.co/uSGB6wvy6B
p322
sg107
Vhttp://lockerdo.me/4C8Vu
p323
sbasg65
I542756489668984832
sbag3
(g4
g5
Ntp324
Rp325
(dp326
g9
I0
sg10
Nsg11
Nsg12
(lp327
g3
(g188
g5
Ntp328
Rp329
(dp330
g192
VJewish
p331
sbag3
(g188
g5
Ntp332
Rp333
(dp334
g192
VArt
p335
sbag3
(g188
g5
Ntp336
Rp337
(dp338
g192
VHanukkah
p339
sbasg14
I00
sg15
Nsg16
Nsg17
(lp340
sg19
Nsg20
Nsg21
Nsg22
VTue Dec 09 23:38:38 +0000 2014
p341
sg24
Nsg25
I00
sg26
Nsg27
Nsg28
Nsg29
Nsg30
I00
sg31
Nsg32
(lp342
g3
(g34
g5
Ntp343
Rp344
(dp345
g10
Nsg38
Nsg39
Nsg40
Nsg41
Nsg42
Nsg22
Nsg43
Nsg44
Nsg45
Nsg46
Nsg47
Nsg48
Nsg49
Nsg50
Nsg51
Nsg52
Nsg53
Nsg54
Nsg55
Nsg56
Nsg57
Nsg58
VThe_GRC
p346
sg60
Nsg61
VThe GRC
p347
sg63
Nsg64
Nsg65
I425878651
sg66
Nsbasg72
Nsg73
Nsg74
Nsg75
VI want to win a lasercut steel dreidel from artist Gary Rosenthal @The_GRC! Happy Hanukkah! #Jewish #Art #Hanukkah http://t.co/JymQYnOoay
p348
sg77
I00
sg78
Ven
p349
sg80
g3
(g34
g5
Ntp350
Rp351
(dp352
g10
g84
sg38
V333333
p353
sg39
Ven
p354
sg40
Nsg41
I19
sg42
I85
sg22
VWed Sep 24 17:14:01 +0000 2014
p355
sg43
I00
sg44
g84
sg45
Vhttps://pbs.twimg.com/profile_images/522831447057383425/l9_Mhqqm_normal.jpeg
p356
sg46
I164
sg47
I6
sg48
Nsg49
Nsg50
I00
sg51
Vhttps://pbs.twimg.com/profile_banners/2830235251/1411578998
p357
sg52
I00
sg53
I00
sg54
V0084B4
p358
sg55
I00
sg56
I00
sg57
Vhttp://abs.twimg.com/images/themes/theme1/bg.png
p359
sg58
VannielovesAlot
p360
sg60
I0
sg61
VAnnie LovesAlot
p361
sg63
VDDEEF6
p362
sg64
Nsg65
I2830235251
sg66
VC0DEED
p363
sbsg96
I0
sg97
V<a href="http://lockerdome.com" rel="nofollow">LockerDome</a>
p364
sg99
(lp365
g3
(g101
g5
Ntp366
Rp367
(dp368
g105
Vhttp://t.co/JymQYnOoay
p369
sg107
Vhttp://lockerdo.me/hsjy4
p370
sbasg65
I542463361309372417
sbag3
(g4
g5
Ntp371
Rp372
(dp373
g9
I1
sg10
Nsg11
Nsg12
(lp374
sg14
I00
sg15
Nsg16
Nsg17
(lp375
sg19
Nsg20
Nsg21
Nsg22
VTue Dec 09 23:38:05 +0000 2014
p376
sg24
Nsg25
I00
sg26
Nsg27
Nsg28
Nsg29
Nsg30
I00
sg31
Nsg32
(lp377
g3
(g34
g5
Ntp378
Rp379
(dp380
g10
Nsg38
Nsg39
Nsg40
Nsg41
Nsg42
Nsg22
Nsg43
Nsg44
Nsg45
Nsg46
Nsg47
Nsg48
Nsg49
Nsg50
Nsg51
Nsg52
Nsg53
Nsg54
Nsg55
Nsg56
Nsg57
Nsg58
VSyleena_Johnson
p381
sg60
Nsg61
VSyleena Johnson
p382
sg63
Nsg64
Nsg65
I181630001
sg66
Nsbasg72
Nsg73
Nsg74
Nsg75
V.@Syleena_Johnson's 7 Days of Giving Holiday Contest: Day Two \u2014 Autographed Chapter 6: Couples Therapy. Enter here: http://t.co/4qTbMB0ERo
p383
sg77
I00
sg78
Ven
p384
sg80
g3
(g34
g5
Ntp385
Rp386
(dp387
g10
g84
sg38
V333333
p388
sg39
Ven
p389
sg40
Nsg41
I19
sg42
I85
sg22
VWed Sep 24 17:14:01 +0000 2014
p390
sg43
I00
sg44
g84
sg45
Vhttps://pbs.twimg.com/profile_images/522831447057383425/l9_Mhqqm_normal.jpeg
p391
sg46
I164
sg47
I6
sg48
Nsg49
Nsg50
I00
sg51
Vhttps://pbs.twimg.com/profile_banners/2830235251/1411578998
p392
sg52
I00
sg53
I00
sg54
V0084B4
p393
sg55
I00
sg56
I00
sg57
Vhttp://abs.twimg.com/images/themes/theme1/bg.png
p394
sg58
VannielovesAlot
p395
sg60
I0
sg61
VAnnie LovesAlot
p396
sg63
VDDEEF6
p397
sg64
Nsg65
I2830235251
sg66
VC0DEED
p398
sbsg96
I3
sg97
V<a href="http://lockerdome.com" rel="nofollow">LockerDome</a>
p399
sg99
(lp400
g3
(g101
g5
Ntp401
Rp402
(dp403
g105
Vhttp://t.co/4qTbMB0ERo
p404
sg107
Vhttp://lockerdo.me/Kg-Ab
p405
sbasg65
I542463224705073153
sbag3
(g4
g5
Ntp406
Rp407
(dp408
g9
I0
sg10
Nsg11
Nsg12
(lp409
sg14
I00
sg15
Nsg16
Nsg17
(lp410
sg19
Nsg20
Nsg21
Nsg22
VMon Dec 08 15:52:23 +0000 2014
p411
sg24
Nsg25
I00
sg26
Nsg27
Nsg28
Nsg29
Nsg30
I00
sg31
Nsg32
(lp412
sg72
Nsg73
Nsg74
Nsg75
VEnter to win a pair of sol republic headphones from Wellium! http://t.co/B9U1OzANDe
p413
sg77
I00
sg78
Ven
p414
sg80
g3
(g34
g5
Ntp415
Rp416
(dp417
g10
g84
sg38
V333333
p418
sg39
Ven
p419
sg40
Nsg41
I19
sg42
I85
sg22
VWed Sep 24 17:14:01 +0000 2014
p420
sg43
I00
sg44
g84
sg45
Vhttps://pbs.twimg.com/profile_images/522831447057383425/l9_Mhqqm_normal.jpeg
p421
sg46
I164
sg47
I6
sg48
Nsg49
Nsg50
I00
sg51
Vhttps://pbs.twimg.com/profile_banners/2830235251/1411578998
p422
sg52
I00
sg53
I00
sg54
V0084B4
p423
sg55
I00
sg56
I00
sg57
Vhttp://abs.twimg.com/images/themes/theme1/bg.png
p424
sg58
VannielovesAlot
p425
sg60
I0
sg61
VAnnie LovesAlot
p426
sg63
VDDEEF6
p427
sg64
Nsg65
I2830235251
sg66
VC0DEED
p428
sbsg96
I0
sg97
V<a href="http://lockerdome.com" rel="nofollow">LockerDome</a>
p429
sg99
(lp430
g3
(g101
g5
Ntp431
Rp432
(dp433
g105
Vhttp://t.co/B9U1OzANDe
p434
sg107
Vhttp://lockerdo.me//civk
p435
sbasg65
I541983636191342592
sbag3
(g4
g5
Ntp436
Rp437
(dp438
g9
I0
sg10
Nsg11
Nsg12
(lp439
sg14
I00
sg15
Nsg16
Nsg17
(lp440
sg19
Nsg20
Nsg21
Nsg22
VMon Dec 08 15:51:59 +0000 2014
p441
sg24
Nsg25
I00
sg26
Nsg27
Nsg28
Nsg29
Nsg30
I00
sg31
Nsg32
(lp442
g3
(g34
g5
Ntp443
Rp444
(dp445
g10
Nsg38
Nsg39
Nsg40
Nsg41
Nsg42
Nsg22
Nsg43
Nsg44
Nsg45
Nsg46
Nsg47
Nsg48
Nsg49
Nsg50
Nsg51
Nsg52
Nsg53
Nsg54
Nsg55
Nsg56
Nsg57
Nsg58
VTheEscapistMag
p446
sg60
Nsg61
VThe Escapist
p447
sg63
Nsg64
Nsg65
I21791940
sg66
Nsbag3
(g34
g5
Ntp448
Rp449
(dp450
g10
Nsg38
Nsg39
Nsg40
Nsg41
Nsg42
Nsg22
Nsg43
Nsg44
Nsg45
Nsg46
Nsg47
Nsg48
Nsg49
Nsg50
Nsg51
Nsg52
Nsg53
Nsg54
Nsg55
Nsg56
Nsg57
Nsg58
VGameFrontCom
p451
sg60
Nsg61
VGameFront
p452
sg63
Nsg64
Nsg65
I161830543
sg66
Nsbasg72
Nsg73
Nsg74
Nsg75
VJust entered for a chance to win a copy of Call of Duty: Advanced Warfare from @theescapistmag &amp; @gamefrontcom! http://t.co/L7aH0bRX26
p453
sg77
I00
sg78
Ven
p454
sg80
g3
(g34
g5
Ntp455
Rp456
(dp457
g10
g84
sg38
V333333
p458
sg39
Ven
p459
sg40
Nsg41
I19
sg42
I85
sg22
VWed Sep 24 17:14:01 +0000 2014
p460
sg43
I00
sg44
g84
sg45
Vhttps://pbs.twimg.com/profile_images/522831447057383425/l9_Mhqqm_normal.jpeg
p461
sg46
I164
sg47
I6
sg48
Nsg49
Nsg50
I00
sg51
Vhttps://pbs.twimg.com/profile_banners/2830235251/1411578998
p462
sg52
I00
sg53
I00
sg54
V0084B4
p463
sg55
I00
sg56
I00
sg57
Vhttp://abs.twimg.com/images/themes/theme1/bg.png
p464
sg58
VannielovesAlot
p465
sg60
I0
sg61
VAnnie LovesAlot
p466
sg63
VDDEEF6
p467
sg64
Nsg65
I2830235251
sg66
VC0DEED
p468
sbsg96
I0
sg97
V<a href="http://lockerdome.com" rel="nofollow">LockerDome</a>
p469
sg99
(lp470
g3
(g101
g5
Ntp471
Rp472
(dp473
g105
Vhttp://t.co/L7aH0bRX26
p474
sg107
Vhttp://lockerdo.me/gjK0P
p475
sbasg65
I541983535486074880
sbag3
(g4
g5
Ntp476
Rp477
(dp478
g9
I0
sg10
Nsg11
Nsg12
(lp479
sg14
I00
sg15
Nsg16
Nsg17
(lp480
sg19
Nsg20
Nsg21
Nsg22
VFri Dec 05 23:38:07 +0000 2014
p481
sg24
Nsg25
I00
sg26
Nsg27
Nsg28
Nsg29
Nsg30
I00
sg31
Nsg32
(lp482
g3
(g34
g5
Ntp483
Rp484
(dp485
g10
Nsg38
Nsg39
Nsg40
Nsg41
Nsg42
Nsg22
Nsg43
Nsg44
Nsg45
Nsg46
Nsg47
Nsg48
Nsg49
Nsg50
Nsg51
Nsg52
Nsg53
Nsg54
Nsg55
Nsg56
Nsg57
Nsg58
VDualShockers
p486
sg60
Nsg61
VDualShockers
p487
sg63
Nsg64
Nsg65
I68396833
sg66
Nsbasg72
Nsg73
Nsg74
Nsg75
VWin a Xbox One Call of Duty Bundle from @DualShockers! Click here to enter: http://t.co/BABdzYGvoR http://t.co/3YWpoveZtt
p488
sg77
I00
sg78
Ven
p489
sg80
g3
(g34
g5
Ntp490
Rp491
(dp492
g10
g84
sg38
V333333
p493
sg39
Ven
p494
sg40
Nsg41
I19
sg42
I85
sg22
VWed Sep 24 17:14:01 +0000 2014
p495
sg43
I00
sg44
g84
sg45
Vhttps://pbs.twimg.com/profile_images/522831447057383425/l9_Mhqqm_normal.jpeg
p496
sg46
I164
sg47
I6
sg48
Nsg49
Nsg50
I00
sg51
Vhttps://pbs.twimg.com/profile_banners/2830235251/1411578998
p497
sg52
I00
sg53
I00
sg54
V0084B4
p498
sg55
I00
sg56
I00
sg57
Vhttp://abs.twimg.com/images/themes/theme1/bg.png
p499
sg58
VannielovesAlot
p500
sg60
I0
sg61
VAnnie LovesAlot
p501
sg63
VDDEEF6
p502
sg64
Nsg65
I2830235251
sg66
VC0DEED
p503
sbsg96
I0
sg97
V<a href="http://lockerdome.com" rel="nofollow">LockerDome</a>
p504
sg99
(lp505
g3
(g101
g5
Ntp506
Rp507
(dp508
g105
Vhttp://t.co/BABdzYGvoR
p509
sg107
Vhttp://bit.ly/1vV3ljF
p510
sbag3
(g101
g5
Ntp511
Rp512
(dp513
g105
Vhttp://t.co/3YWpoveZtt
p514
sg107
Vhttp://lockerdo.me/4RI1G
p515
sbasg65
I541013679357956096
sbag3
(g4
g5
Ntp516
Rp517
(dp518
g9
I0
sg10
Nsg11
Nsg12
(lp519
sg14
I00
sg15
Nsg16
Nsg17
(lp520
sg19
Nsg20
Nsg21
Nsg22
VFri Dec 05 19:20:54 +0000 2014
p521
sg24
Nsg25
I00
sg26
Nsg27
Nsg28
Nsg29
Nsg30
I00
sg31
Nsg32
(lp522
g3
(g34
g5
Ntp523
Rp524
(dp525
g10
Nsg38
Nsg39
Nsg40
Nsg41
Nsg42
Nsg22
Nsg43
Nsg44
Nsg45
Nsg46
Nsg47
Nsg48
Nsg49
Nsg50
Nsg51
Nsg52
Nsg53
Nsg54
Nsg55
Nsg56
Nsg57
Nsg58
VBrian_Detrick
p526
sg60
Nsg61
VBrian Detrick
p527
sg63
Nsg64
Nsg65
I193185567
sg66
Nsbag3
(g34
g5
Ntp528
Rp529
(dp530
g10
Nsg38
Nsg39
Nsg40
Nsg41
Nsg42
Nsg22
Nsg43
Nsg44
Nsg45
Nsg46
Nsg47
Nsg48
Nsg49
Nsg50
Nsg51
Nsg52
Nsg53
Nsg54
Nsg55
Nsg56
Nsg57
Nsg58
VInTowTournament
p531
sg60
Nsg61
VBrenda Sue Bullard
p532
sg63
Nsg64
Nsg65
I1245234486
sg66
Nsbag3
(g34
g5
Ntp533
Rp534
(dp535
g10
Nsg38
Nsg39
Nsg40
Nsg41
Nsg42
Nsg22
Nsg43
Nsg44
Nsg45
Nsg46
Nsg47
Nsg48
Nsg49
Nsg50
Nsg51
Nsg52
Nsg53
Nsg54
Nsg55
Nsg56
Nsg57
Nsg58
VWODRepairLotion
p536
sg60
Nsg61
VWOD Repair Lotion
p537
sg63
Nsg64
Nsg65
I2329736587
sg66
Nsbasg72
Nsg73
Nsg74
Nsg75
VWin cool water-skiing prizes from @Brian_Detrick and his sponsors @InTowTournament @WodRepairLotion and HOSports: http://t.co/777xyVnCri
p538
sg77
I00
sg78
Ven
p539
sg80
g3
(g34
g5
Ntp540
Rp541
(dp542
g10
g84
sg38
V333333
p543
sg39
Ven
p544
sg40
Nsg41
I19
sg42
I85
sg22
VWed Sep 24 17:14:01 +0000 2014
p545
sg43
I00
sg44
g84
sg45
Vhttps://pbs.twimg.com/profile_images/522831447057383425/l9_Mhqqm_normal.jpeg
p546
sg46
I164
sg47
I6
sg48
Nsg49
Nsg50
I00
sg51
Vhttps://pbs.twimg.com/profile_banners/2830235251/1411578998
p547
sg52
I00
sg53
I00
sg54
V0084B4
p548
sg55
I00
sg56
I00
sg57
Vhttp://abs.twimg.com/images/themes/theme1/bg.png
p549
sg58
VannielovesAlot
p550
sg60
I0
sg61
VAnnie LovesAlot
p551
sg63
VDDEEF6
p552
sg64
Nsg65
I2830235251
sg66
VC0DEED
p553
sbsg96
I0
sg97
V<a href="http://lockerdome.com" rel="nofollow">LockerDome</a>
p554
sg99
(lp555
g3
(g101
g5
Ntp556
Rp557
(dp558
g105
Vhttp://t.co/777xyVnCri
p559
sg107
Vhttp://lockerdo.me/Exmml
p560
sbasg65
I540948947175342081
sbag3
(g4
g5
Ntp561
Rp562
(dp563
g9
I0
sg10
Nsg11
Nsg12
(lp564
sg14
I00
sg15
Nsg16
Nsg17
(lp565
sg19
Nsg20
Nsg21
Nsg22
VFri Dec 05 00:24:10 +0000 2014
p566
sg24
Nsg25
I00
sg26
Nsg27
Nsg28
Nsg29
Nsg30
I00
sg31
Nsg32
(lp567
sg72
Nsg73
Nsg74
Nsg75
VEnter to win a Canon PowerShot SX510 HS 12.1 MP Digital Camera from One Big Photo! http://t.co/hTKa1yOsNE
p568
sg77
I00
sg78
Ven
p569
sg80
g3
(g34
g5
Ntp570
Rp571
(dp572
g10
g84
sg38
V333333
p573
sg39
Ven
p574
sg40
Nsg41
I19
sg42
I85
sg22
VWed Sep 24 17:14:01 +0000 2014
p575
sg43
I00
sg44
g84
sg45
Vhttps://pbs.twimg.com/profile_images/522831447057383425/l9_Mhqqm_normal.jpeg
p576
sg46
I164
sg47
I6
sg48
Nsg49
Nsg50
I00
sg51
Vhttps://pbs.twimg.com/profile_banners/2830235251/1411578998
p577
sg52
I00
sg53
I00
sg54
V0084B4
p578
sg55
I00
sg56
I00
sg57
Vhttp://abs.twimg.com/images/themes/theme1/bg.png
p579
sg58
VannielovesAlot
p580
sg60
I0
sg61
VAnnie LovesAlot
p581
sg63
VDDEEF6
p582
sg64
Nsg65
I2830235251
sg66
VC0DEED
p583
sbsg96
I0
sg97
V<a href="http://lockerdome.com" rel="nofollow">LockerDome</a>
p584
sg99
(lp585
g3
(g101
g5
Ntp586
Rp587
(dp588
g105
Vhttp://t.co/hTKa1yOsNE
p589
sg107
Vhttp://lockerdo.me/CU-Eq
p590
sbasg65
I540662880966684672
sbag3
(g4
g5
Ntp591
Rp592
(dp593
g9
I0
sg10
Nsg11
Nsg12
(lp594
g3
(g188
g5
Ntp595
Rp596
(dp597
g192
VPerkyJerky
p598
sbag3
(g188
g5
Ntp599
Rp600
(dp601
g192
VgetFRUSH
p602
sbag3
(g188
g5
Ntp603
Rp604
(dp605
g192
VSOHH
p606
sbasg14
I00
sg15
Nsg16
Nsg17
(lp607
sg19
Nsg20
Nsg21
Nsg22
VThu Dec 04 14:54:43 +0000 2014
p608
sg24
Nsg25
I00
sg26
Nsg27
Nsg28
Nsg29
Nsg30
I00
sg31
Nsg32
(lp609
sg72
Nsg73
Nsg74
Nsg75
VPlaying to win a #PerkyJerky bundle on #getFRUSH #SOHH http://t.co/nfnZkU15xr
p610
sg77
I00
sg78
Ven
p611
sg80
g3
(g34
g5
Ntp612
Rp613
(dp614
g10
g84
sg38
V333333
p615
sg39
Ven
p616
sg40
Nsg41
I19
sg42
I85
sg22
VWed Sep 24 17:14:01 +0000 2014
p617
sg43
I00
sg44
g84
sg45
Vhttps://pbs.twimg.com/profile_images/522831447057383425/l9_Mhqqm_normal.jpeg
p618
sg46
I164
sg47
I6
sg48
Nsg49
Nsg50
I00
sg51
Vhttps://pbs.twimg.com/profile_banners/2830235251/1411578998
p619
sg52
I00
sg53
I00
sg54
V0084B4
p620
sg55
I00
sg56
I00
sg57
Vhttp://abs.twimg.com/images/themes/theme1/bg.png
p621
sg58
VannielovesAlot
p622
sg60
I0
sg61
VAnnie LovesAlot
p623
sg63
VDDEEF6
p624
sg64
Nsg65
I2830235251
sg66
VC0DEED
p625
sbsg96
I0
sg97
V<a href="http://lockerdome.com" rel="nofollow">LockerDome</a>
p626
sg99
(lp627
g3
(g101
g5
Ntp628
Rp629
(dp630
g105
Vhttp://t.co/nfnZkU15xr
p631
sg107
Vhttp://lockerdo.me/hyocF
p632
sbasg65
I540519572768428034
sbag3
(g4
g5
Ntp633
Rp634
(dp635
g9
I0
sg10
Nsg11
Nsg12
(lp636
g3
(g188
g5
Ntp637
Rp638
(dp639
g192
VNosgoth
p640
sbasg14
I00
sg15
Nsg16
Nsg17
(lp641
sg19
Nsg20
Nsg21
Nsg22
VTue Dec 02 20:32:59 +0000 2014
p642
sg24
Nsg25
I00
sg26
Nsg27
Nsg28
Nsg29
Nsg30
I00
sg31
Nsg32
(lp643
sg72
Nsg73
Nsg74
Nsg75
VWin a #Nosgoth beta key here and come play with me! http://t.co/XhyMs4Qy8u
p644
sg77
I00
sg78
Ven
p645
sg80
g3
(g34
g5
Ntp646
Rp647
(dp648
g10
g84
sg38
V333333
p649
sg39
Ven
p650
sg40
Nsg41
I19
sg42
I85
sg22
VWed Sep 24 17:14:01 +0000 2014
p651
sg43
I00
sg44
g84
sg45
Vhttps://pbs.twimg.com/profile_images/522831447057383425/l9_Mhqqm_normal.jpeg
p652
sg46
I164
sg47
I6
sg48
Nsg49
Nsg50
I00
sg51
Vhttps://pbs.twimg.com/profile_banners/2830235251/1411578998
p653
sg52
I00
sg53
I00
sg54
V0084B4
p654
sg55
I00
sg56
I00
sg57
Vhttp://abs.twimg.com/images/themes/theme1/bg.png
p655
sg58
VannielovesAlot
p656
sg60
I0
sg61
VAnnie LovesAlot
p657
sg63
VDDEEF6
p658
sg64
Nsg65
I2830235251
sg66
VC0DEED
p659
sbsg96
I0
sg97
V<a href="http://lockerdome.com" rel="nofollow">LockerDome</a>
p660
sg99
(lp661
g3
(g101
g5
Ntp662
Rp663
(dp664
g105
Vhttp://t.co/XhyMs4Qy8u
p665
sg107
Vhttp://lockerdo.me/U1J8A
p666
sbasg65
I539879925441134593
sbag3
(g4
g5
Ntp667
Rp668
(dp669
g9
I3
sg10
Nsg11
Nsg12
(lp670
g3
(g188
g5
Ntp671
Rp672
(dp673
g192
Vhealth
p674
sbag3
(g188
g5
Ntp675
Rp676
(dp677
g192
Vfood
p678
sbag3
(g188
g5
Ntp679
Rp680
(dp681
g192
Vfitness
p682
sbasg14
I00
sg15
Nsg16
Nsg17
(lp683
sg19
Nsg20
Nsg21
Nsg22
VTue Dec 02 14:53:19 +0000 2014
p684
sg24
Nsg25
I00
sg26
Nsg27
Nsg28
Nsg29
Nsg30
I00
sg31
Nsg32
(lp685
g3
(g34
g5
Ntp686
Rp687
(dp688
g10
Nsg38
Nsg39
Nsg40
Nsg41
Nsg42
Nsg22
Nsg43
Nsg44
Nsg45
Nsg46
Nsg47
Nsg48
Nsg49
Nsg50
Nsg51
Nsg52
Nsg53
Nsg54
Nsg55
Nsg56
Nsg57
Nsg58
Vdrjkahn
p689
sg60
Nsg61
VJoel Kahn
p690
sg63
Nsg64
Nsg65
I1898872286
sg66
Nsbasg72
Nsg73
Nsg74
Nsg75
VGoing to read @DrJKahn's heart health book 'The Whole Heart Solution' http://t.co/LGIcK5cT5e #health #food #fitness http://t.co/hJEmFyTXRc
p691
sg77
I00
sg78
Ven
p692
sg80
g3
(g34
g5
Ntp693
Rp694
(dp695
g10
g84
sg38
V333333
p696
sg39
Ven
p697
sg40
Nsg41
I19
sg42
I85
sg22
VWed Sep 24 17:14:01 +0000 2014
p698
sg43
I00
sg44
g84
sg45
Vhttps://pbs.twimg.com/profile_images/522831447057383425/l9_Mhqqm_normal.jpeg
p699
sg46
I164
sg47
I6
sg48
Nsg49
Nsg50
I00
sg51
Vhttps://pbs.twimg.com/profile_banners/2830235251/1411578998
p700
sg52
I00
sg53
I00
sg54
V0084B4
p701
sg55
I00
sg56
I00
sg57
Vhttp://abs.twimg.com/images/themes/theme1/bg.png
p702
sg58
VannielovesAlot
p703
sg60
I0
sg61
VAnnie LovesAlot
p704
sg63
VDDEEF6
p705
sg64
Nsg65
I2830235251
sg66
VC0DEED
p706
sbsg96
I2
sg97
V<a href="http://lockerdome.com" rel="nofollow">LockerDome</a>
p707
sg99
(lp708
g3
(g101
g5
Ntp709
Rp710
(dp711
g105
Vhttp://t.co/LGIcK5cT5e
p712
sg107
Vhttp://amzn.to/1wfPLdf
p713
sbag3
(g101
g5
Ntp714
Rp715
(dp716
g105
Vhttp://t.co/hJEmFyTXRc
p717
sg107
Vhttp://lockerdo.me/U+Z+P
p718
sbasg65
I539794447538454529
sbag3
(g4
g5
Ntp719
Rp720
(dp721
g9
I0
sg10
Nsg11
Nsg12
(lp722
sg14
I00
sg15
Nsg16
Nsg17
(lp723
sg19
Nsg20
Nsg21
Nsg22
VTue Dec 02 00:02:55 +0000 2014
p724
sg24
Nsg25
I00
sg26
Nsg27
Nsg28
Nsg29
Nsg30
I00
sg31
Nsg32
(lp725
g3
(g34
g5
Ntp726
Rp727
(dp728
g10
Nsg38
Nsg39
Nsg40
Nsg41
Nsg42
Nsg22
Nsg43
Nsg44
Nsg45
Nsg46
Nsg47
Nsg48
Nsg49
Nsg50
Nsg51
Nsg52
Nsg53
Nsg54
Nsg55
Nsg56
Nsg57
Nsg58
VExpatriateTaxes
p729
sg60
Nsg61
VDiane Siriani
p730
sg63
Nsg64
Nsg65
I255809304
sg66
Nsbasg72
Nsg73
Nsg74
Nsg75
VWin a $25 Amazon Gift Card from @ExpatriateTaxes! Click here to enter: http://t.co/G2zqL17KHw
p731
sg77
I00
sg78
Ven
p732
sg80
g3
(g34
g5
Ntp733
Rp734
(dp735
g10
g84
sg38
V333333
p736
sg39
Ven
p737
sg40
Nsg41
I19
sg42
I85
sg22
VWed Sep 24 17:14:01 +0000 2014
p738
sg43
I00
sg44
g84
sg45
Vhttps://pbs.twimg.com/profile_images/522831447057383425/l9_Mhqqm_normal.jpeg
p739
sg46
I164
sg47
I6
sg48
Nsg49
Nsg50
I00
sg51
Vhttps://pbs.twimg.com/profile_banners/2830235251/1411578998
p740
sg52
I00
sg53
I00
sg54
V0084B4
p741
sg55
I00
sg56
I00
sg57
Vhttp://abs.twimg.com/images/themes/theme1/bg.png
p742
sg58
VannielovesAlot
p743
sg60
I0
sg61
VAnnie LovesAlot
p744
sg63
VDDEEF6
p745
sg64
Nsg65
I2830235251
sg66
VC0DEED
p746
sbsg96
I0
sg97
V<a href="http://lockerdome.com" rel="nofollow">LockerDome</a>
p747
sg99
(lp748
g3
(g101
g5
Ntp749
Rp750
(dp751
g105
Vhttp://t.co/G2zqL17KHw
p752
sg107
Vhttp://lockerdo.me/+RQho
p753
sbasg65
I539570367895851008
sbag3
(g4
g5
Ntp754
Rp755
(dp756
g9
I0
sg10
Nsg11
Nsg12
(lp757
sg14
I00
sg15
Nsg16
Nsg17
(lp758
sg19
Nsg20
Nsg21
Nsg22
VWed Nov 26 21:29:13 +0000 2014
p759
sg24
Nsg25
I00
sg26
Nsg27
Nsg28
Nsg29
Nsg30
I00
sg31
Nsg32
(lp760
sg72
Nsg73
Nsg74
Nsg75
VWin A OnePlus One Invite from KnowTechie! http://t.co/2DxzEtid5P
p761
sg77
I00
sg78
Ven
p762
sg80
g3
(g34
g5
Ntp763
Rp764
(dp765
g10
g84
sg38
V333333
p766
sg39
Ven
p767
sg40
Nsg41
I19
sg42
I85
sg22
VWed Sep 24 17:14:01 +0000 2014
p768
sg43
I00
sg44
g84
sg45
Vhttps://pbs.twimg.com/profile_images/522831447057383425/l9_Mhqqm_normal.jpeg
p769
sg46
I164
sg47
I6
sg48
Nsg49
Nsg50
I00
sg51
Vhttps://pbs.twimg.com/profile_banners/2830235251/1411578998
p770
sg52
I00
sg53
I00
sg54
V0084B4
p771
sg55
I00
sg56
I00
sg57
Vhttp://abs.twimg.com/images/themes/theme1/bg.png
p772
sg58
VannielovesAlot
p773
sg60
I0
sg61
VAnnie LovesAlot
p774
sg63
VDDEEF6
p775
sg64
Nsg65
I2830235251
sg66
VC0DEED
p776
sbsg96
I0
sg97
V<a href="http://lockerdome.com" rel="nofollow">LockerDome</a>
p777
sg99
(lp778
g3
(g101
g5
Ntp779
Rp780
(dp781
g105
Vhttp://t.co/2DxzEtid5P
p782
sg107
Vhttp://lockerdo.me/vbqcd
p783
sbasg65
I537719749132578816
sbag3
(g4
g5
Ntp784
Rp785
(dp786
g9
I0
sg10
Nsg11
Nsg12
(lp787
sg14
I00
sg15
Nsg16
Nsg17
(lp788
sg19
Nsg20
Nsg21
Nsg22
VTue Nov 25 14:05:27 +0000 2014
p789
sg24
Nsg25
I00
sg26
Nsg27
Nsg28
Nsg29
Nsg30
I00
sg31
Nsg32
(lp790
sg72
Nsg73
Nsg74
Nsg75
VEnter to win an iPhone 6 case! http://t.co/BpmgpVf9Ib
p791
sg77
I00
sg78
Ven
p792
sg80
g3
(g34
g5
Ntp793
Rp794
(dp795
g10
g84
sg38
V333333
p796
sg39
Ven
p797
sg40
Nsg41
I19
sg42
I85
sg22
VWed Sep 24 17:14:01 +0000 2014
p798
sg43
I00
sg44
g84
sg45
Vhttps://pbs.twimg.com/profile_images/522831447057383425/l9_Mhqqm_normal.jpeg
p799
sg46
I164
sg47
I6
sg48
Nsg49
Nsg50
I00
sg51
Vhttps://pbs.twimg.com/profile_banners/2830235251/1411578998
p800
sg52
I00
sg53
I00
sg54
V0084B4
p801
sg55
I00
sg56
I00
sg57
Vhttp://abs.twimg.com/images/themes/theme1/bg.png
p802
sg58
VannielovesAlot
p803
sg60
I0
sg61
VAnnie LovesAlot
p804
sg63
VDDEEF6
p805
sg64
Nsg65
I2830235251
sg66
VC0DEED
p806
sbsg96
I0
sg97
V<a href="http://lockerdome.com" rel="nofollow">LockerDome</a>
p807
sg99
(lp808
g3
(g101
g5
Ntp809
Rp810
(dp811
g105
Vhttp://t.co/BpmgpVf9Ib
p812
sg107
Vhttp://lockerdo.me/IP12Y
p813
sbasg65
I537245683237916672
sbaa.