(lp0
S'SquareFootTiles'
p1
a(lp2
ccopy_reg
_reconstructor
p3
(ctwitter
Status
p4
c__builtin__
object
p5
Ntp6
Rp7
(dp8
S'_favorite_count'
p9
I1
sS'_location'
p10
NsS'_withheld_scope'
p11
NsS'hashtags'
p12
(lp13
g3
(ctwitter
Hashtag
p14
g5
Ntp15
Rp16
(dp17
S'text'
p18
Vprojects
p19
sbag3
(g14
g5
Ntp20
Rp21
(dp22
g18
Vart
p23
sbag3
(g14
g5
Ntp24
Rp25
(dp26
g18
Vinteriordesign
p27
sbasS'_truncated'
p28
I00
sS'_retweeted_status'
p29
NsS'_withheld_copyright'
p30
NsS'media'
p31
(lp32
sS'_place'
p33
NsS'_contributors'
p34
NsS'_current_user_retweet'
p35
NsS'_created_at'
p36
VWed Dec 10 17:40:46 +0000 2014
p37
sS'_scopes'
p38
NsS'_possibly_sensitive'
p39
I00
sS'_in_reply_to_screen_name'
p40
NsS'_coordinates'
p41
NsS'_in_reply_to_user_id'
p42
NsS'_geo'
p43
NsS'_favorited'
p44
I00
sS'_withheld_in_countries'
p45
NsS'user_mentions'
p46
(lp47
sS'_now'
p48
NsS'_id_str'
p49
V542735690598211584
p50
sS'_in_reply_to_status_id'
p51
NsS'_text'
p52
VOur #projects team are experts in designing &amp; creating mosaic wall #art - click here: http://t.co/WVPTjPOltH for more info.\u000a#interiordesign
p53
sS'_retweeted'
p54
I00
sS'lang'
p55
Ven
p56
sS'_user'
p57
g3
(ctwitter
User
p58
g5
Ntp59
Rp60
(dp61
g10
VChessington, Surrey, UK
p62
sS'_profile_text_color'
p63
V000000
p64
sS'_lang'
p65
Ven
p66
sS'_time_zone'
p67
VLondon
p68
sS'_followers_count'
p69
I691
sS'_statuses_count'
p70
I43
sg36
VWed Oct 15 11:32:20 +0000 2014
p71
sS'_verified'
p72
I00
sS'_description'
p73
VSquare Foot supply anti-slip, ceramic, porcelain, mosaic, glass, wood-effect & stone tiles to the interior design, architect & contract industries. 0208 3976284
p74
sS'_profile_image_url'
p75
Vhttps://pbs.twimg.com/profile_images/525235447811674112/7bBTmRQ2_normal.jpeg
p76
sS'_friends_count'
p77
I185
sS'_favourites_count'
p78
I3
sS'_utc_offset'
p79
I0
sS'_status'
p80
NsS'_protected'
p81
I00
sS'_profile_banner_url'
p82
Vhttps://pbs.twimg.com/profile_banners/2831480500/1414577640
p83
sS'_notifications'
p84
I00
sS'_profile_background_tile'
p85
I00
sS'_profile_link_color'
p86
V3B94D9
p87
sS'_geo_enabled'
p88
I00
sS'_contributors_enabled'
p89
I00
sS'_profile_background_image_url'
p90
Vhttp://abs.twimg.com/images/themes/theme1/bg.png
p91
sS'_screen_name'
p92
VSquareFootTiles
p93
sS'_listed_count'
p94
I3
sS'_name'
p95
VSquare Foot Ceramics
p96
sS'_profile_sidebar_fill_color'
p97
V000000
p98
sS'_url'
p99
Vhttp://t.co/15P2a3xIVu
p100
sS'_id'
p101
I2831480500
sS'_profile_background_color'
p102
V3B94D9
p103
sbsS'_retweet_count'
p104
I0
sS'_source'
p105
V<a href="http://twitter.com" rel="nofollow">Twitter Web Client</a>
p106
sS'urls'
p107
(lp108
g3
(ctwitter
Url
p109
g5
Ntp110
Rp111
(dp112
S'url'
p113
Vhttp://t.co/WVPTjPOltH
p114
sS'expanded_url'
p115
Vhttp://www.squarefootceramics.com/products/page/bespoke
p116
sbasg101
I542735690598211584
sbag3
(g4
g5
Ntp117
Rp118
(dp119
g9
I0
sg10
Nsg11
Nsg12
(lp120
sg28
I00
sg29
Nsg30
Nsg31
(lp121
sg33
Nsg34
Nsg35
Nsg36
VWed Dec 10 17:12:19 +0000 2014
p122
sg38
Nsg39
I00
sg40
Nsg41
Nsg42
Nsg43
Nsg44
I00
sg45
Nsg46
(lp123
g3
(g58
g5
Ntp124
Rp125
(dp126
g10
Nsg63
Nsg65
Nsg67
Nsg69
Nsg70
Nsg36
Nsg72
Nsg73
Nsg75
Nsg77
Nsg78
Nsg79
Nsg80
Nsg81
Nsg82
Nsg84
Nsg85
Nsg86
Nsg88
Nsg89
Nsg90
Nsg92
VCeramicaTiles
p127
sg94
Nsg95
VCeramica Tiles
p128
sg97
Nsg99
Nsg101
I2831618475
sg102
Nsbasg48
Nsg49
V542728530774482945
p129
sg51
Nsg52
VFor non-trade customers, interested in our tile range, please visit our sister company, @CeramicaTiles http://t.co/8pjgCQUMPY
p130
sg54
I00
sg55
Ven
p131
sg57
g3
(g58
g5
Ntp132
Rp133
(dp134
g10
VChessington, Surrey, UK
p135
sg63
V000000
p136
sg65
Ven
p137
sg67
VLondon
p138
sg69
I691
sg70
I43
sg36
VWed Oct 15 11:32:20 +0000 2014
p139
sg72
I00
sg73
VSquare Foot supply anti-slip, ceramic, porcelain, mosaic, glass, wood-effect & stone tiles to the interior design, architect & contract industries. 0208 3976284
p140
sg75
Vhttps://pbs.twimg.com/profile_images/525235447811674112/7bBTmRQ2_normal.jpeg
p141
sg77
I185
sg78
I3
sg79
I0
sg80
Nsg81
I00
sg82
Vhttps://pbs.twimg.com/profile_banners/2831480500/1414577640
p142
sg84
I00
sg85
I00
sg86
V3B94D9
p143
sg88
I00
sg89
I00
sg90
Vhttp://abs.twimg.com/images/themes/theme1/bg.png
p144
sg92
VSquareFootTiles
p145
sg94
I3
sg95
VSquare Foot Ceramics
p146
sg97
V000000
p147
sg99
Vhttp://t.co/15P2a3xIVu
p148
sg101
I2831480500
sg102
V3B94D9
p149
sbsg104
I0
sg105
V<a href="http://twitter.com" rel="nofollow">Twitter Web Client</a>
p150
sg107
(lp151
g3
(g109
g5
Ntp152
Rp153
(dp154
g113
Vhttp://t.co/8pjgCQUMPY
p155
sg115
Vhttp://www.ceramicatiles.com
p156
sbasg101
I542728530774482945
sbag3
(g4
g5
Ntp157
Rp158
(dp159
g9
I0
sg10
Nsg11
Nsg12
(lp160
g3
(g14
g5
Ntp161
Rp162
(dp163
g18
Vinteriordesign
p164
sbag3
(g14
g5
Ntp165
Rp166
(dp167
g18
Vtiles
p168
sbasg28
I00
sg29
Nsg30
Nsg31
(lp169
(dp170
Vexpanded_url
p171
Vhttp://twitter.com/SquareFootTiles/status/540180485037895680/photo/1
p172
sVdisplay_url
p173
Vpic.twitter.com/qOS0YdzkQD
p174
sVurl
p175
Vhttp://t.co/qOS0YdzkQD
p176
sVmedia_url_https
p177
Vhttps://pbs.twimg.com/media/B38bSczCEAAJv-R.jpg
p178
sVid_str
p179
V540180484089581568
p180
sVsizes
p181
(dp182
Vlarge
p183
(dp184
Vh
p185
I484
sVresize
p186
Vfit
p187
sVw
p188
I947
ssVsmall
p189
(dp190
Vh
p191
I173
sVresize
p192
Vfit
p193
sVw
p194
I340
ssVmedium
p195
(dp196
Vh
p197
I306
sVresize
p198
Vfit
p199
sVw
p200
I600
ssVthumb
p201
(dp202
Vh
p203
I150
sVresize
p204
Vcrop
p205
sVw
p206
I150
sssVindices
p207
(lp208
I114
aI136
asVtype
p209
Vphoto
p210
sVid
p211
I540180484089581568
sVmedia_url
p212
Vhttp://pbs.twimg.com/media/B38bSczCEAAJv-R.jpg
p213
sasg33
Nsg34
Nsg35
Nsg36
VWed Dec 03 16:27:18 +0000 2014
p214
sg38
Nsg39
I00
sg40
Nsg41
Nsg42
Nsg43
Nsg44
I00
sg45
Nsg46
(lp215
sg48
Nsg49
V540180485037895680
p216
sg51
Nsg52
VLooking for the latest #interiordesign elements for sophisticated projects? 'City Sense' wall &amp; floor #tiles: http://t.co/qOS0YdzkQD
p217
sg54
I00
sg55
Ven
p218
sg57
g3
(g58
g5
Ntp219
Rp220
(dp221
g10
VChessington, Surrey, UK
p222
sg63
V000000
p223
sg65
Ven
p224
sg67
VLondon
p225
sg69
I691
sg70
I43
sg36
VWed Oct 15 11:32:20 +0000 2014
p226
sg72
I00
sg73
VSquare Foot supply anti-slip, ceramic, porcelain, mosaic, glass, wood-effect & stone tiles to the interior design, architect & contract industries. 0208 3976284
p227
sg75
Vhttps://pbs.twimg.com/profile_images/525235447811674112/7bBTmRQ2_normal.jpeg
p228
sg77
I185
sg78
I3
sg79
I0
sg80
Nsg81
I00
sg82
Vhttps://pbs.twimg.com/profile_banners/2831480500/1414577640
p229
sg84
I00
sg85
I00
sg86
V3B94D9
p230
sg88
I00
sg89
I00
sg90
Vhttp://abs.twimg.com/images/themes/theme1/bg.png
p231
sg92
VSquareFootTiles
p232
sg94
I3
sg95
VSquare Foot Ceramics
p233
sg97
V000000
p234
sg99
Vhttp://t.co/15P2a3xIVu
p235
sg101
I2831480500
sg102
V3B94D9
p236
sbsg104
I0
sg105
V<a href="http://twitter.com" rel="nofollow">Twitter Web Client</a>
p237
sg107
(lp238
sg101
I540180485037895680
sbag3
(g4
g5
Ntp239
Rp240
(dp241
g9
I3
sg10
Nsg11
Nsg12
(lp242
g3
(g14
g5
Ntp243
Rp244
(dp245
g18
VChampagne
p246
sbag3
(g14
g5
Ntp247
Rp248
(dp249
g18
Vcompetition
p250
sbag3
(g14
g5
Ntp251
Rp252
(dp253
g18
Vwinner
p254
sbasg28
I00
sg29
Nsg30
Nsg31
(lp255
sg33
Nsg34
Nsg35
Nsg36
VWed Dec 03 15:06:05 +0000 2014
p256
sg38
Nsg39
Nsg40
Nsg41
Nsg42
Nsg43
Nsg44
I00
sg45
Nsg46
(lp257
sg48
Nsg49
V540160046894940161
p258
sg51
Nsg52
VWe'll be announcing our lucky #Champagne #competition #winner very soon!
p259
sg54
I00
sg55
Ven
p260
sg57
g3
(g58
g5
Ntp261
Rp262
(dp263
g10
VChessington, Surrey, UK
p264
sg63
V000000
p265
sg65
Ven
p266
sg67
VLondon
p267
sg69
I691
sg70
I43
sg36
VWed Oct 15 11:32:20 +0000 2014
p268
sg72
I00
sg73
VSquare Foot supply anti-slip, ceramic, porcelain, mosaic, glass, wood-effect & stone tiles to the interior design, architect & contract industries. 0208 3976284
p269
sg75
Vhttps://pbs.twimg.com/profile_images/525235447811674112/7bBTmRQ2_normal.jpeg
p270
sg77
I185
sg78
I3
sg79
I0
sg80
Nsg81
I00
sg82
Vhttps://pbs.twimg.com/profile_banners/2831480500/1414577640
p271
sg84
I00
sg85
I00
sg86
V3B94D9
p272
sg88
I00
sg89
I00
sg90
Vhttp://abs.twimg.com/images/themes/theme1/bg.png
p273
sg92
VSquareFootTiles
p274
sg94
I3
sg95
VSquare Foot Ceramics
p275
sg97
V000000
p276
sg99
Vhttp://t.co/15P2a3xIVu
p277
sg101
I2831480500
sg102
V3B94D9
p278
sbsg104
I0
sg105
V<a href="http://twitter.com" rel="nofollow">Twitter Web Client</a>
p279
sg107
(lp280
sg101
I540160046894940161
sbag3
(g4
g5
Ntp281
Rp282
(dp283
g9
I1
sg10
Nsg11
Nsg12
(lp284
g3
(g14
g5
Ntp285
Rp286
(dp287
g18
Vgiveaway
p288
sbag3
(g14
g5
Ntp289
Rp290
(dp291
g18
Vcompetition
p292
sbag3
(g14
g5
Ntp293
Rp294
(dp295
g18
Vwin
p296
sbag3
(g14
g5
Ntp297
Rp298
(dp299
g18
VChampagne
p300
sbasg28
I00
sg29
Nsg30
Nsg31
(lp301
sg33
Nsg34
Nsg35
Nsg36
VFri Nov 28 17:28:38 +0000 2014
p302
sg38
Nsg39
I00
sg40
Nsg41
Nsg42
Nsg43
Nsg44
I00
sg45
Nsg46
(lp303
sg48
Nsg49
V538383981520388096
p304
sg51
Nsg52
VEnter our Facebook #giveaway #competition for a chance to #win a bottle of #Champagne: http://t.co/kdiaFWhTvz  (ends 30.11.14)
p305
sg54
I00
sg55
Ven
p306
sg57
g3
(g58
g5
Ntp307
Rp308
(dp309
g10
VChessington, Surrey, UK
p310
sg63
V000000
p311
sg65
Ven
p312
sg67
VLondon
p313
sg69
I691
sg70
I43
sg36
VWed Oct 15 11:32:20 +0000 2014
p314
sg72
I00
sg73
VSquare Foot supply anti-slip, ceramic, porcelain, mosaic, glass, wood-effect & stone tiles to the interior design, architect & contract industries. 0208 3976284
p315
sg75
Vhttps://pbs.twimg.com/profile_images/525235447811674112/7bBTmRQ2_normal.jpeg
p316
sg77
I185
sg78
I3
sg79
I0
sg80
Nsg81
I00
sg82
Vhttps://pbs.twimg.com/profile_banners/2831480500/1414577640
p317
sg84
I00
sg85
I00
sg86
V3B94D9
p318
sg88
I00
sg89
I00
sg90
Vhttp://abs.twimg.com/images/themes/theme1/bg.png
p319
sg92
VSquareFootTiles
p320
sg94
I3
sg95
VSquare Foot Ceramics
p321
sg97
V000000
p322
sg99
Vhttp://t.co/15P2a3xIVu
p323
sg101
I2831480500
sg102
V3B94D9
p324
sbsg104
I14
sg105
V<a href="http://twitter.com" rel="nofollow">Twitter Web Client</a>
p325
sg107
(lp326
g3
(g109
g5
Ntp327
Rp328
(dp329
g113
Vhttp://t.co/kdiaFWhTvz
p330
sg115
Vhttp://fb.me/1oU42bVXc
p331
sbasg101
I538383981520388096
sbag3
(g4
g5
Ntp332
Rp333
(dp334
g9
I11
sg10
Nsg11
Nsg12
(lp335
g3
(g14
g5
Ntp336
Rp337
(dp338
g18
Vgiveaway
p339
sbag3
(g14
g5
Ntp340
Rp341
(dp342
g18
Vcompetition
p343
sbag3
(g14
g5
Ntp344
Rp345
(dp346
g18
Vwin
p347
sbag3
(g14
g5
Ntp348
Rp349
(dp350
g18
VRT
p351
sbasg28
I00
sg29
Nsg30
Nsg31
(lp352
sg33
Nsg34
Nsg35
Nsg36
VFri Nov 28 17:11:47 +0000 2014
p353
sg38
Nsg39
Nsg40
Nsg41
Nsg42
Nsg43
Nsg44
I00
sg45
Nsg46
(lp354
sg48
Nsg49
V538379739116089344
p355
sg51
Nsg52
VEnter our #giveaway #competition for a chance to #win a bottle of Champagne - just follow us &amp; #RT (competition ends this Sunday, 30.11.14)
p356
sg54
I00
sg55
Ven
p357
sg57
g3
(g58
g5
Ntp358
Rp359
(dp360
g10
VChessington, Surrey, UK
p361
sg63
V000000
p362
sg65
Ven
p363
sg67
VLondon
p364
sg69
I691
sg70
I43
sg36
VWed Oct 15 11:32:20 +0000 2014
p365
sg72
I00
sg73
VSquare Foot supply anti-slip, ceramic, porcelain, mosaic, glass, wood-effect & stone tiles to the interior design, architect & contract industries. 0208 3976284
p366
sg75
Vhttps://pbs.twimg.com/profile_images/525235447811674112/7bBTmRQ2_normal.jpeg
p367
sg77
I185
sg78
I3
sg79
I0
sg80
Nsg81
I00
sg82
Vhttps://pbs.twimg.com/profile_banners/2831480500/1414577640
p368
sg84
I00
sg85
I00
sg86
V3B94D9
p369
sg88
I00
sg89
I00
sg90
Vhttp://abs.twimg.com/images/themes/theme1/bg.png
p370
sg92
VSquareFootTiles
p371
sg94
I3
sg95
VSquare Foot Ceramics
p372
sg97
V000000
p373
sg99
Vhttp://t.co/15P2a3xIVu
p374
sg101
I2831480500
sg102
V3B94D9
p375
sbsg104
I65
sg105
V<a href="http://twitter.com" rel="nofollow">Twitter Web Client</a>
p376
sg107
(lp377
sg101
I538379739116089344
sbag3
(g4
g5
Ntp378
Rp379
(dp380
g9
I3
sg10
Nsg11
Nsg12
(lp381
g3
(g14
g5
Ntp382
Rp383
(dp384
g18
VFF
p385
sbasg28
I00
sg29
Nsg30
Nsg31
(lp386
sg33
Nsg34
Nsg35
Nsg36
VFri Nov 28 17:11:05 +0000 2014
p387
sg38
Nsg39
Nsg40
Nsg41
Nsg42
Nsg43
Nsg44
I00
sg45
Nsg46
(lp388
g3
(g58
g5
Ntp389
Rp390
(dp391
g10
Nsg63
Nsg65
Nsg67
Nsg69
Nsg70
Nsg36
Nsg72
Nsg73
Nsg75
Nsg77
Nsg78
Nsg79
Nsg80
Nsg81
Nsg82
Nsg84
Nsg85
Nsg86
Nsg88
Nsg89
Nsg90
Nsg92
VLisa15781
p392
sg94
Nsg95
VLisa Shepherd
p393
sg97
Nsg99
Nsg101
I56223647
sg102
Nsbag3
(g58
g5
Ntp394
Rp395
(dp396
g10
Nsg63
Nsg65
Nsg67
Nsg69
Nsg70
Nsg36
Nsg72
Nsg73
Nsg75
Nsg77
Nsg78
Nsg79
Nsg80
Nsg81
Nsg82
Nsg84
Nsg85
Nsg86
Nsg88
Nsg89
Nsg90
Nsg92
Vkirsty_burke
p397
sg94
Nsg95
Vkirsty burke
p398
sg97
Nsg99
Nsg101
I572989202
sg102
Nsbag3
(g58
g5
Ntp399
Rp400
(dp401
g10
Nsg63
Nsg65
Nsg67
Nsg69
Nsg70
Nsg36
Nsg72
Nsg73
Nsg75
Nsg77
Nsg78
Nsg79
Nsg80
Nsg81
Nsg82
Nsg84
Nsg85
Nsg86
Nsg88
Nsg89
Nsg90
Nsg92
VLinseyPerry
p402
sg94
Nsg95
VLinsey Perry
p403
sg97
Nsg99
Nsg101
I768232399
sg102
Nsbag3
(g58
g5
Ntp404
Rp405
(dp406
g10
Nsg63
Nsg65
Nsg67
Nsg69
Nsg70
Nsg36
Nsg72
Nsg73
Nsg75
Nsg77
Nsg78
Nsg79
Nsg80
Nsg81
Nsg82
Nsg84
Nsg85
Nsg86
Nsg88
Nsg89
Nsg90
Nsg92
VDanielYoung100
p407
sg94
Nsg95
VDaniel Young
p408
sg97
Nsg99
Nsg101
I397189672
sg102
Nsbag3
(g58
g5
Ntp409
Rp410
(dp411
g10
Nsg63
Nsg65
Nsg67
Nsg69
Nsg70
Nsg36
Nsg72
Nsg73
Nsg75
Nsg77
Nsg78
Nsg79
Nsg80
Nsg81
Nsg82
Nsg84
Nsg85
Nsg86
Nsg88
Nsg89
Nsg90
Nsg92
VLaurie_March
p412
sg94
Nsg95
VLaurie March
p413
sg97
Nsg99
Nsg101
I16572109
sg102
Nsbag3
(g58
g5
Ntp414
Rp415
(dp416
g10
Nsg63
Nsg65
Nsg67
Nsg69
Nsg70
Nsg36
Nsg72
Nsg73
Nsg75
Nsg77
Nsg78
Nsg79
Nsg80
Nsg81
Nsg82
Nsg84
Nsg85
Nsg86
Nsg88
Nsg89
Nsg90
Nsg92
VFrostingQueen69
p417
sg94
Nsg95
VLisa
p418
sg97
Nsg99
Nsg101
I2787678680
sg102
Nsbag3
(g58
g5
Ntp419
Rp420
(dp421
g10
Nsg63
Nsg65
Nsg67
Nsg69
Nsg70
Nsg36
Nsg72
Nsg73
Nsg75
Nsg77
Nsg78
Nsg79
Nsg80
Nsg81
Nsg82
Nsg84
Nsg85
Nsg86
Nsg88
Nsg89
Nsg90
Nsg92
Vblueberryheart1
p422
sg94
Nsg95
VKerry Blueberry
p423
sg97
Nsg99
Nsg101
I568935286
sg102
Nsbag3
(g58
g5
Ntp424
Rp425
(dp426
g10
Nsg63
Nsg65
Nsg67
Nsg69
Nsg70
Nsg36
Nsg72
Nsg73
Nsg75
Nsg77
Nsg78
Nsg79
Nsg80
Nsg81
Nsg82
Nsg84
Nsg85
Nsg86
Nsg88
Nsg89
Nsg90
Nsg92
VDeanBurfoot
p427
sg94
Nsg95
VDean Burfoot
p428
sg97
Nsg99
Nsg101
I484760016
sg102
Nsbasg48
Nsg49
V538379566763737088
p429
sg51
Nsg52
VThanks for following:@Lisa15781 @kirsty_burke @LinseyPerry @DanielYoung100 @Laurie_March @FrostingQueen69 @blueberryheart1 @DeanBurfoot #FF
p430
sg54
I00
sg55
Ven
p431
sg57
g3
(g58
g5
Ntp432
Rp433
(dp434
g10
VChessington, Surrey, UK
p435
sg63
V000000
p436
sg65
Ven
p437
sg67
VLondon
p438
sg69
I691
sg70
I43
sg36
VWed Oct 15 11:32:20 +0000 2014
p439
sg72
I00
sg73
VSquare Foot supply anti-slip, ceramic, porcelain, mosaic, glass, wood-effect & stone tiles to the interior design, architect & contract industries. 0208 3976284
p440
sg75
Vhttps://pbs.twimg.com/profile_images/525235447811674112/7bBTmRQ2_normal.jpeg
p441
sg77
I185
sg78
I3
sg79
I0
sg80
Nsg81
I00
sg82
Vhttps://pbs.twimg.com/profile_banners/2831480500/1414577640
p442
sg84
I00
sg85
I00
sg86
V3B94D9
p443
sg88
I00
sg89
I00
sg90
Vhttp://abs.twimg.com/images/themes/theme1/bg.png
p444
sg92
VSquareFootTiles
p445
sg94
I3
sg95
VSquare Foot Ceramics
p446
sg97
V000000
p447
sg99
Vhttp://t.co/15P2a3xIVu
p448
sg101
I2831480500
sg102
V3B94D9
p449
sbsg104
I0
sg105
V<a href="http://twitter.com" rel="nofollow">Twitter Web Client</a>
p450
sg107
(lp451
sg101
I538379566763737088
sbag3
(g4
g5
Ntp452
Rp453
(dp454
g9
I2
sg10
Nsg11
Nsg12
(lp455
g3
(g14
g5
Ntp456
Rp457
(dp458
g18
Vgiveaway
p459
sbag3
(g14
g5
Ntp460
Rp461
(dp462
g18
Vcompetition
p463
sbag3
(g14
g5
Ntp464
Rp465
(dp466
g18
Vwin
p467
sbag3
(g14
g5
Ntp468
Rp469
(dp470
g18
VChampagne
p471
sbasg28
I00
sg29
Nsg30
Nsg31
(lp472
sg33
Nsg34
Nsg35
Nsg36
VSat Nov 22 11:40:19 +0000 2014
p473
sg38
Nsg39
I00
sg40
Nsg41
Nsg42
Nsg43
Nsg44
I00
sg45
Nsg46
(lp474
sg48
Nsg49
V536121995998818304
p475
sg51
Nsg52
VEnter our Facebook #giveaway #competition to #win one of two bottles of #Champagne: http://t.co/kdiaFWhTvz (ends 30.11.14)
p476
sg54
I00
sg55
Ven
p477
sg57
g3
(g58
g5
Ntp478
Rp479
(dp480
g10
VChessington, Surrey, UK
p481
sg63
V000000
p482
sg65
Ven
p483
sg67
VLondon
p484
sg69
I691
sg70
I43
sg36
VWed Oct 15 11:32:20 +0000 2014
p485
sg72
I00
sg73
VSquare Foot supply anti-slip, ceramic, porcelain, mosaic, glass, wood-effect & stone tiles to the interior design, architect & contract industries. 0208 3976284
p486
sg75
Vhttps://pbs.twimg.com/profile_images/525235447811674112/7bBTmRQ2_normal.jpeg
p487
sg77
I185
sg78
I3
sg79
I0
sg80
Nsg81
I00
sg82
Vhttps://pbs.twimg.com/profile_banners/2831480500/1414577640
p488
sg84
I00
sg85
I00
sg86
V3B94D9
p489
sg88
I00
sg89
I00
sg90
Vhttp://abs.twimg.com/images/themes/theme1/bg.png
p490
sg92
VSquareFootTiles
p491
sg94
I3
sg95
VSquare Foot Ceramics
p492
sg97
V000000
p493
sg99
Vhttp://t.co/15P2a3xIVu
p494
sg101
I2831480500
sg102
V3B94D9
p495
sbsg104
I13
sg105
V<a href="http://www.hootsuite.com" rel="nofollow">Hootsuite</a>
p496
sg107
(lp497
g3
(g109
g5
Ntp498
Rp499
(dp500
g113
Vhttp://t.co/kdiaFWhTvz
p501
sg115
Vhttp://fb.me/1oU42bVXc
p502
sbasg101
I536121995998818304
sbag3
(g4
g5
Ntp503
Rp504
(dp505
g9
I12
sg10
Nsg11
Nsg12
(lp506
g3
(g14
g5
Ntp507
Rp508
(dp509
g18
Vgiveaway
p510
sbag3
(g14
g5
Ntp511
Rp512
(dp513
g18
Vcompetition
p514
sbag3
(g14
g5
Ntp515
Rp516
(dp517
g18
Vwin
p518
sbag3
(g14
g5
Ntp519
Rp520
(dp521
g18
VRT
p522
sbasg28
I00
sg29
Nsg30
Nsg31
(lp523
sg33
Nsg34
Nsg35
Nsg36
VFri Nov 21 17:01:59 +0000 2014
p524
sg38
Nsg39
Nsg40
Nsg41
Nsg42
Nsg43
Nsg44
I00
sg45
Nsg46
(lp525
sg48
Nsg49
V535840557927366656
p526
sg51
Nsg52
VEnter our #giveaway #competition for a chance to #win a bottle of Champagne - just follow us &amp; #RT (competition ends 30.11.14)
p527
sg54
I00
sg55
Ven
p528
sg57
g3
(g58
g5
Ntp529
Rp530
(dp531
g10
VChessington, Surrey, UK
p532
sg63
V000000
p533
sg65
Ven
p534
sg67
VLondon
p535
sg69
I691
sg70
I43
sg36
VWed Oct 15 11:32:20 +0000 2014
p536
sg72
I00
sg73
VSquare Foot supply anti-slip, ceramic, porcelain, mosaic, glass, wood-effect & stone tiles to the interior design, architect & contract industries. 0208 3976284
p537
sg75
Vhttps://pbs.twimg.com/profile_images/525235447811674112/7bBTmRQ2_normal.jpeg
p538
sg77
I185
sg78
I3
sg79
I0
sg80
Nsg81
I00
sg82
Vhttps://pbs.twimg.com/profile_banners/2831480500/1414577640
p539
sg84
I00
sg85
I00
sg86
V3B94D9
p540
sg88
I00
sg89
I00
sg90
Vhttp://abs.twimg.com/images/themes/theme1/bg.png
p541
sg92
VSquareFootTiles
p542
sg94
I3
sg95
VSquare Foot Ceramics
p543
sg97
V000000
p544
sg99
Vhttp://t.co/15P2a3xIVu
p545
sg101
I2831480500
sg102
V3B94D9
p546
sbsg104
I92
sg105
V<a href="http://www.hootsuite.com" rel="nofollow">Hootsuite</a>
p547
sg107
(lp548
sg101
I535840557927366656
sbag3
(g4
g5
Ntp549
Rp550
(dp551
g9
I0
sg10
Nsg11
Nsg12
(lp552
g3
(g14
g5
Ntp553
Rp554
(dp555
g18
Vgiveaway
p556
sbag3
(g14
g5
Ntp557
Rp558
(dp559
g18
Vcompetition
p560
sbag3
(g14
g5
Ntp561
Rp562
(dp563
g18
Vwin
p564
sbag3
(g14
g5
Ntp565
Rp566
(dp567
g18
VChampagne
p568
sbasg28
I00
sg29
Nsg30
Nsg31
(lp569
sg33
Nsg34
Nsg35
Nsg36
VThu Nov 20 16:56:33 +0000 2014
p570
sg38
Nsg39
I00
sg40
Nsg41
Nsg42
Nsg43
Nsg44
I00
sg45
Nsg46
(lp571
sg48
Nsg49
V535476804149325824
p572
sg51
Nsg52
VDouble your chances - enter our Facebook #giveaway #competition to #win one of two bottles of #Champagne: http://t.co/kdiaFWhTvz
p573
sg54
I00
sg55
Ven
p574
sg57
g3
(g58
g5
Ntp575
Rp576
(dp577
g10
VChessington, Surrey, UK
p578
sg63
V000000
p579
sg65
Ven
p580
sg67
VLondon
p581
sg69
I691
sg70
I43
sg36
VWed Oct 15 11:32:20 +0000 2014
p582
sg72
I00
sg73
VSquare Foot supply anti-slip, ceramic, porcelain, mosaic, glass, wood-effect & stone tiles to the interior design, architect & contract industries. 0208 3976284
p583
sg75
Vhttps://pbs.twimg.com/profile_images/525235447811674112/7bBTmRQ2_normal.jpeg
p584
sg77
I185
sg78
I3
sg79
I0
sg80
Nsg81
I00
sg82
Vhttps://pbs.twimg.com/profile_banners/2831480500/1414577640
p585
sg84
I00
sg85
I00
sg86
V3B94D9
p586
sg88
I00
sg89
I00
sg90
Vhttp://abs.twimg.com/images/themes/theme1/bg.png
p587
sg92
VSquareFootTiles
p588
sg94
I3
sg95
VSquare Foot Ceramics
p589
sg97
V000000
p590
sg99
Vhttp://t.co/15P2a3xIVu
p591
sg101
I2831480500
sg102
V3B94D9
p592
sbsg104
I1
sg105
V<a href="http://twitter.com" rel="nofollow">Twitter Web Client</a>
p593
sg107
(lp594
g3
(g109
g5
Ntp595
Rp596
(dp597
g113
Vhttp://t.co/kdiaFWhTvz
p598
sg115
Vhttp://fb.me/1oU42bVXc
p599
sbasg101
I535476804149325824
sbag3
(g4
g5
Ntp600
Rp601
(dp602
g9
I6
sg10
Nsg11
Nsg12
(lp603
g3
(g14
g5
Ntp604
Rp605
(dp606
g18
Vgiveaway
p607
sbag3
(g14
g5
Ntp608
Rp609
(dp610
g18
Vcompetition
p611
sbag3
(g14
g5
Ntp612
Rp613
(dp614
g18
Vwin
p615
sbag3
(g14
g5
Ntp616
Rp617
(dp618
g18
VRT
p619
sbasg28
I00
sg29
Nsg30
Nsg31
(lp620
sg33
Nsg34
Nsg35
Nsg36
VThu Nov 20 16:56:11 +0000 2014
p621
sg38
Nsg39
Nsg40
Nsg41
Nsg42
Nsg43
Nsg44
I00
sg45
Nsg46
(lp622
sg48
Nsg49
V535476712575082496
p623
sg51
Nsg52
VEnter our Twitter #giveaway #competition for a chance to #win a bottle of Champagne - just follow us &amp; #RT (competition ends 30.11.14)
p624
sg54
I00
sg55
Ven
p625
sg57
g3
(g58
g5
Ntp626
Rp627
(dp628
g10
VChessington, Surrey, UK
p629
sg63
V000000
p630
sg65
Ven
p631
sg67
VLondon
p632
sg69
I691
sg70
I43
sg36
VWed Oct 15 11:32:20 +0000 2014
p633
sg72
I00
sg73
VSquare Foot supply anti-slip, ceramic, porcelain, mosaic, glass, wood-effect & stone tiles to the interior design, architect & contract industries. 0208 3976284
p634
sg75
Vhttps://pbs.twimg.com/profile_images/525235447811674112/7bBTmRQ2_normal.jpeg
p635
sg77
I185
sg78
I3
sg79
I0
sg80
Nsg81
I00
sg82
Vhttps://pbs.twimg.com/profile_banners/2831480500/1414577640
p636
sg84
I00
sg85
I00
sg86
V3B94D9
p637
sg88
I00
sg89
I00
sg90
Vhttp://abs.twimg.com/images/themes/theme1/bg.png
p638
sg92
VSquareFootTiles
p639
sg94
I3
sg95
VSquare Foot Ceramics
p640
sg97
V000000
p641
sg99
Vhttp://t.co/15P2a3xIVu
p642
sg101
I2831480500
sg102
V3B94D9
p643
sbsg104
I59
sg105
V<a href="http://twitter.com" rel="nofollow">Twitter Web Client</a>
p644
sg107
(lp645
sg101
I535476712575082496
sbag3
(g4
g5
Ntp646
Rp647
(dp648
g9
I6
sg10
Nsg11
Nsg12
(lp649
g3
(g14
g5
Ntp650
Rp651
(dp652
g18
Vgiveaway
p653
sbag3
(g14
g5
Ntp654
Rp655
(dp656
g18
Vcompetition
p657
sbag3
(g14
g5
Ntp658
Rp659
(dp660
g18
Vwin
p661
sbag3
(g14
g5
Ntp662
Rp663
(dp664
g18
VRT
p665
sbasg28
I00
sg29
Nsg30
Nsg31
(lp666
sg33
Nsg34
Nsg35
Nsg36
VSun Nov 16 17:30:41 +0000 2014
p667
sg38
Nsg39
Nsg40
Nsg41
Nsg42
Nsg43
Nsg44
I00
sg45
Nsg46
(lp668
sg48
Nsg49
V534035844009840640
p669
sg51
Nsg52
VEnter our Twitter #giveaway #competition for a chance to #win a bottle of Champagne - just follow us &amp; #RT (competition ends 30.11.14)
p670
sg54
I00
sg55
Ven
p671
sg57
g3
(g58
g5
Ntp672
Rp673
(dp674
g10
VChessington, Surrey, UK
p675
sg63
V000000
p676
sg65
Ven
p677
sg67
VLondon
p678
sg69
I691
sg70
I43
sg36
VWed Oct 15 11:32:20 +0000 2014
p679
sg72
I00
sg73
VSquare Foot supply anti-slip, ceramic, porcelain, mosaic, glass, wood-effect & stone tiles to the interior design, architect & contract industries. 0208 3976284
p680
sg75
Vhttps://pbs.twimg.com/profile_images/525235447811674112/7bBTmRQ2_normal.jpeg
p681
sg77
I185
sg78
I3
sg79
I0
sg80
Nsg81
I00
sg82
Vhttps://pbs.twimg.com/profile_banners/2831480500/1414577640
p682
sg84
I00
sg85
I00
sg86
V3B94D9
p683
sg88
I00
sg89
I00
sg90
Vhttp://abs.twimg.com/images/themes/theme1/bg.png
p684
sg92
VSquareFootTiles
p685
sg94
I3
sg95
VSquare Foot Ceramics
p686
sg97
V000000
p687
sg99
Vhttp://t.co/15P2a3xIVu
p688
sg101
I2831480500
sg102
V3B94D9
p689
sbsg104
I101
sg105
V<a href="http://www.hootsuite.com" rel="nofollow">Hootsuite</a>
p690
sg107
(lp691
sg101
I534035844009840640
sbag3
(g4
g5
Ntp692
Rp693
(dp694
g9
I4
sg10
Nsg11
Nsg12
(lp695
g3
(g14
g5
Ntp696
Rp697
(dp698
g18
Vgiveaway
p699
sbag3
(g14
g5
Ntp700
Rp701
(dp702
g18
Vcompetition
p703
sbag3
(g14
g5
Ntp704
Rp705
(dp706
g18
Vwin
p707
sbag3
(g14
g5
Ntp708
Rp709
(dp710
g18
VRT
p711
sbasg28
I00
sg29
Nsg30
Nsg31
(lp712
sg33
Nsg34
Nsg35
Nsg36
VSat Nov 15 10:30:15 +0000 2014
p713
sg38
Nsg39
Nsg40
Nsg41
Nsg42
Nsg43
Nsg44
I00
sg45
Nsg46
(lp714
sg48
Nsg49
V533567647880065024
p715
sg51
Nsg52
VEnter our Twitter #giveaway #competition for a chance to #win a bottle of Champagne - just follow us &amp; #RT (competition ends 30.11.14)
p716
sg54
I00
sg55
Ven
p717
sg57
g3
(g58
g5
Ntp718
Rp719
(dp720
g10
VChessington, Surrey, UK
p721
sg63
V000000
p722
sg65
Ven
p723
sg67
VLondon
p724
sg69
I691
sg70
I43
sg36
VWed Oct 15 11:32:20 +0000 2014
p725
sg72
I00
sg73
VSquare Foot supply anti-slip, ceramic, porcelain, mosaic, glass, wood-effect & stone tiles to the interior design, architect & contract industries. 0208 3976284
p726
sg75
Vhttps://pbs.twimg.com/profile_images/525235447811674112/7bBTmRQ2_normal.jpeg
p727
sg77
I185
sg78
I3
sg79
I0
sg80
Nsg81
I00
sg82
Vhttps://pbs.twimg.com/profile_banners/2831480500/1414577640
p728
sg84
I00
sg85
I00
sg86
V3B94D9
p729
sg88
I00
sg89
I00
sg90
Vhttp://abs.twimg.com/images/themes/theme1/bg.png
p730
sg92
VSquareFootTiles
p731
sg94
I3
sg95
VSquare Foot Ceramics
p732
sg97
V000000
p733
sg99
Vhttp://t.co/15P2a3xIVu
p734
sg101
I2831480500
sg102
V3B94D9
p735
sbsg104
I83
sg105
V<a href="http://www.hootsuite.com" rel="nofollow">Hootsuite</a>
p736
sg107
(lp737
sg101
I533567647880065024
sbag3
(g4
g5
Ntp738
Rp739
(dp740
g9
I0
sg10
Nsg11
Nsg12
(lp741
g3
(g14
g5
Ntp742
Rp743
(dp744
g18
Vgiveaway
p745
sbag3
(g14
g5
Ntp746
Rp747
(dp748
g18
Vcompetition
p749
sbag3
(g14
g5
Ntp750
Rp751
(dp752
g18
Vwin
p753
sbag3
(g14
g5
Ntp754
Rp755
(dp756
g18
VChampagne
p757
sbasg28
I00
sg29
Nsg30
Nsg31
(lp758
sg33
Nsg34
Nsg35
Nsg36
VFri Nov 14 16:31:10 +0000 2014
p759
sg38
Nsg39
I00
sg40
Nsg41
Nsg42
Nsg43
Nsg44
I00
sg45
Nsg46
(lp760
sg48
Nsg49
V533296087969566720
p761
sg51
Nsg52
VDouble your chances - enter our Facebook #giveaway #competition to #win one of two bottles of #Champagne: http://t.co/kdiaFWhTvz
p762
sg54
I00
sg55
Ven
p763
sg57
g3
(g58
g5
Ntp764
Rp765
(dp766
g10
VChessington, Surrey, UK
p767
sg63
V000000
p768
sg65
Ven
p769
sg67
VLondon
p770
sg69
I691
sg70
I43
sg36
VWed Oct 15 11:32:20 +0000 2014
p771
sg72
I00
sg73
VSquare Foot supply anti-slip, ceramic, porcelain, mosaic, glass, wood-effect & stone tiles to the interior design, architect & contract industries. 0208 3976284
p772
sg75
Vhttps://pbs.twimg.com/profile_images/525235447811674112/7bBTmRQ2_normal.jpeg
p773
sg77
I185
sg78
I3
sg79
I0
sg80
Nsg81
I00
sg82
Vhttps://pbs.twimg.com/profile_banners/2831480500/1414577640
p774
sg84
I00
sg85
I00
sg86
V3B94D9
p775
sg88
I00
sg89
I00
sg90
Vhttp://abs.twimg.com/images/themes/theme1/bg.png
p776
sg92
VSquareFootTiles
p777
sg94
I3
sg95
VSquare Foot Ceramics
p778
sg97
V000000
p779
sg99
Vhttp://t.co/15P2a3xIVu
p780
sg101
I2831480500
sg102
V3B94D9
p781
sbsg104
I1
sg105
V<a href="http://www.hootsuite.com" rel="nofollow">Hootsuite</a>
p782
sg107
(lp783
g3
(g109
g5
Ntp784
Rp785
(dp786
g113
Vhttp://t.co/kdiaFWhTvz
p787
sg115
Vhttp://fb.me/1oU42bVXc
p788
sbasg101
I533296087969566720
sbag3
(g4
g5
Ntp789
Rp790
(dp791
g9
I14
sg10
Nsg11
Nsg12
(lp792
g3
(g14
g5
Ntp793
Rp794
(dp795
g18
Vgiveaway
p796
sbag3
(g14
g5
Ntp797
Rp798
(dp799
g18
Vcompetition
p800
sbag3
(g14
g5
Ntp801
Rp802
(dp803
g18
Vwin
p804
sbag3
(g14
g5
Ntp805
Rp806
(dp807
g18
VChampagne
p808
sbag3
(g14
g5
Ntp809
Rp810
(dp811
g18
VRT
p812
sbasg28
I00
sg29
Nsg30
Nsg31
(lp813
sg33
Nsg34
Nsg35
Nsg36
VTue Nov 11 15:04:10 +0000 2014
p814
sg38
Nsg39
Nsg40
Nsg41
Nsg42
Nsg43
Nsg44
I00
sg45
Nsg46
(lp815
sg48
Nsg49
V532187032198864896
p816
sg51
Nsg52
VEnter our Twitter #giveaway #competition for a chance to #win a bottle of #Champagne - just follow us &amp; #RT (competition ends 30.11.14)
p817
sg54
I00
sg55
Ven
p818
sg57
g3
(g58
g5
Ntp819
Rp820
(dp821
g10
VChessington, Surrey, UK
p822
sg63
V000000
p823
sg65
Ven
p824
sg67
VLondon
p825
sg69
I691
sg70
I43
sg36
VWed Oct 15 11:32:20 +0000 2014
p826
sg72
I00
sg73
VSquare Foot supply anti-slip, ceramic, porcelain, mosaic, glass, wood-effect & stone tiles to the interior design, architect & contract industries. 0208 3976284
p827
sg75
Vhttps://pbs.twimg.com/profile_images/525235447811674112/7bBTmRQ2_normal.jpeg
p828
sg77
I185
sg78
I3
sg79
I0
sg80
Nsg81
I00
sg82
Vhttps://pbs.twimg.com/profile_banners/2831480500/1414577640
p829
sg84
I00
sg85
I00
sg86
V3B94D9
p830
sg88
I00
sg89
I00
sg90
Vhttp://abs.twimg.com/images/themes/theme1/bg.png
p831
sg92
VSquareFootTiles
p832
sg94
I3
sg95
VSquare Foot Ceramics
p833
sg97
V000000
p834
sg99
Vhttp://t.co/15P2a3xIVu
p835
sg101
I2831480500
sg102
V3B94D9
p836
sbsg104
I229
sg105
V<a href="http://twitter.com" rel="nofollow">Twitter Web Client</a>
p837
sg107
(lp838
sg101
I532187032198864896
sbag3
(g4
g5
Ntp839
Rp840
(dp841
g9
I2
sg10
Nsg11
Nsg12
(lp842
g3
(g14
g5
Ntp843
Rp844
(dp845
g18
Vgiveaway
p846
sbag3
(g14
g5
Ntp847
Rp848
(dp849
g18
Vcompetition
p850
sbag3
(g14
g5
Ntp851
Rp852
(dp853
g18
Vwin
p854
sbag3
(g14
g5
Ntp855
Rp856
(dp857
g18
VChampagne
p858
sbasg28
I00
sg29
Nsg30
Nsg31
(lp859
sg33
Nsg34
Nsg35
Nsg36
VTue Nov 11 15:02:18 +0000 2014
p860
sg38
Nsg39
I00
sg40
Nsg41
Nsg42
Nsg43
Nsg44
I00
sg45
Nsg46
(lp861
sg48
Nsg49
V532186562180947968
p862
sg51
Nsg52
VDouble your chances - enter our Facebook #giveaway #competition to #win one of two bottles of #Champagne: http://t.co/tMar9zTY0c
p863
sg54
I00
sg55
Ven
p864
sg57
g3
(g58
g5
Ntp865
Rp866
(dp867
g10
VChessington, Surrey, UK
p868
sg63
V000000
p869
sg65
Ven
p870
sg67
VLondon
p871
sg69
I691
sg70
I43
sg36
VWed Oct 15 11:32:20 +0000 2014
p872
sg72
I00
sg73
VSquare Foot supply anti-slip, ceramic, porcelain, mosaic, glass, wood-effect & stone tiles to the interior design, architect & contract industries. 0208 3976284
p873
sg75
Vhttps://pbs.twimg.com/profile_images/525235447811674112/7bBTmRQ2_normal.jpeg
p874
sg77
I185
sg78
I3
sg79
I0
sg80
Nsg81
I00
sg82
Vhttps://pbs.twimg.com/profile_banners/2831480500/1414577640
p875
sg84
I00
sg85
I00
sg86
V3B94D9
p876
sg88
I00
sg89
I00
sg90
Vhttp://abs.twimg.com/images/themes/theme1/bg.png
p877
sg92
VSquareFootTiles
p878
sg94
I3
sg95
VSquare Foot Ceramics
p879
sg97
V000000
p880
sg99
Vhttp://t.co/15P2a3xIVu
p881
sg101
I2831480500
sg102
V3B94D9
p882
sbsg104
I13
sg105
V<a href="http://twitter.com" rel="nofollow">Twitter Web Client</a>
p883
sg107
(lp884
g3
(g109
g5
Ntp885
Rp886
(dp887
g113
Vhttp://t.co/tMar9zTY0c
p888
sg115
Vhttp://fb.me/1oU42bVXc
p889
sbasg101
I532186562180947968
sbag3
(g4
g5
Ntp890
Rp891
(dp892
g9
I1
sg10
Nsg11
Nsg12
(lp893
g3
(g14
g5
Ntp894
Rp895
(dp896
g18
Vcompetition
p897
sbag3
(g14
g5
Ntp898
Rp899
(dp900
g18
Vwin
p901
sbasg28
I00
sg29
Nsg30
Nsg31
(lp902
sg33
Nsg34
Nsg35
Nsg36
VTue Nov 11 13:48:29 +0000 2014
p903
sg38
Nsg39
I00
sg40
Nsg41
Nsg42
Nsg43
Nsg44
I00
sg45
Nsg46
(lp904
sg48
Nsg49
V532167985705025536
p905
sg51
Nsg52
VEnter our exclusive Facebook #competition! For your chance to #win one of two bottles of Champagne, simply like... http://t.co/tMar9zTY0c
p906
sg54
I00
sg55
Ven
p907
sg57
g3
(g58
g5
Ntp908
Rp909
(dp910
g10
VChessington, Surrey, UK
p911
sg63
V000000
p912
sg65
Ven
p913
sg67
VLondon
p914
sg69
I691
sg70
I43
sg36
VWed Oct 15 11:32:20 +0000 2014
p915
sg72
I00
sg73
VSquare Foot supply anti-slip, ceramic, porcelain, mosaic, glass, wood-effect & stone tiles to the interior design, architect & contract industries. 0208 3976284
p916
sg75
Vhttps://pbs.twimg.com/profile_images/525235447811674112/7bBTmRQ2_normal.jpeg
p917
sg77
I185
sg78
I3
sg79
I0
sg80
Nsg81
I00
sg82
Vhttps://pbs.twimg.com/profile_banners/2831480500/1414577640
p918
sg84
I00
sg85
I00
sg86
V3B94D9
p919
sg88
I00
sg89
I00
sg90
Vhttp://abs.twimg.com/images/themes/theme1/bg.png
p920
sg92
VSquareFootTiles
p921
sg94
I3
sg95
VSquare Foot Ceramics
p922
sg97
V000000
p923
sg99
Vhttp://t.co/15P2a3xIVu
p924
sg101
I2831480500
sg102
V3B94D9
p925
sbsg104
I11
sg105
V<a href="http://www.facebook.com/twitter" rel="nofollow">Facebook</a>
p926
sg107
(lp927
g3
(g109
g5
Ntp928
Rp929
(dp930
g113
Vhttp://t.co/tMar9zTY0c
p931
sg115
Vhttp://fb.me/1oU42bVXc
p932
sbasg101
I532167985705025536
sbag3
(g4
g5
Ntp933
Rp934
(dp935
g9
I0
sg10
Nsg11
Nsg12
(lp936
g3
(g14
g5
Ntp937
Rp938
(dp939
g18
Vcompetition
p940
sbag3
(g14
g5
Ntp941
Rp942
(dp943
g18
Vwin
p944
sbasg28
I00
sg29
Nsg30
Nsg31
(lp945
sg33
Nsg34
Nsg35
Nsg36
VMon Nov 10 17:10:06 +0000 2014
p946
sg38
Nsg39
I00
sg40
Nsg41
Nsg42
Nsg43
Nsg44
I00
sg45
Nsg46
(lp947
sg48
Nsg49
V531856334359392256
p948
sg51
Nsg52
VEnter our exclusive Facebook #competition! For your chance to #win one of two bottles of Champagne, simply like... http://t.co/6OMMG6q6Cj
p949
sg54
I00
sg55
Ven
p950
sg57
g3
(g58
g5
Ntp951
Rp952
(dp953
g10
VChessington, Surrey, UK
p954
sg63
V000000
p955
sg65
Ven
p956
sg67
VLondon
p957
sg69
I691
sg70
I43
sg36
VWed Oct 15 11:32:20 +0000 2014
p958
sg72
I00
sg73
VSquare Foot supply anti-slip, ceramic, porcelain, mosaic, glass, wood-effect & stone tiles to the interior design, architect & contract industries. 0208 3976284
p959
sg75
Vhttps://pbs.twimg.com/profile_images/525235447811674112/7bBTmRQ2_normal.jpeg
p960
sg77
I185
sg78
I3
sg79
I0
sg80
Nsg81
I00
sg82
Vhttps://pbs.twimg.com/profile_banners/2831480500/1414577640
p961
sg84
I00
sg85
I00
sg86
V3B94D9
p962
sg88
I00
sg89
I00
sg90
Vhttp://abs.twimg.com/images/themes/theme1/bg.png
p963
sg92
VSquareFootTiles
p964
sg94
I3
sg95
VSquare Foot Ceramics
p965
sg97
V000000
p966
sg99
Vhttp://t.co/15P2a3xIVu
p967
sg101
I2831480500
sg102
V3B94D9
p968
sbsg104
I4
sg105
V<a href="http://www.facebook.com/twitter" rel="nofollow">Facebook</a>
p969
sg107
(lp970
g3
(g109
g5
Ntp971
Rp972
(dp973
g113
Vhttp://t.co/6OMMG6q6Cj
p974
sg115
Vhttp://fb.me/2L6SkJ3WF
p975
sbasg101
I531856334359392256
sbag3
(g4
g5
Ntp976
Rp977
(dp978
g9
I0
sg10
Nsg11
Nsg12
(lp979
g3
(g14
g5
Ntp980
Rp981
(dp982
g18
VChampagne
p983
sbag3
(g14
g5
Ntp984
Rp985
(dp986
g18
Vgiveaway
p987
sbag3
(g14
g5
Ntp988
Rp989
(dp990
g18
Vcompetition
p991
sbasg28
I00
sg29
Nsg30
Nsg31
(lp992
sg33
Nsg34
Nsg35
Nsg36
VMon Nov 10 16:54:30 +0000 2014
p993
sg38
Nsg39
I00
sg40
Nsg41
Nsg42
Nsg43
Nsg44
I00
sg45
Nsg46
(lp994
sg48
Nsg49
V531852410365706240
p995
sg51
Nsg52
VDouble your chances of winning a bottle of #Champagne in our #giveaway #competition - just visit our Facebook page: http://t.co/qolUiAQ2lw
p996
sg54
I00
sg55
Ven
p997
sg57
g3
(g58
g5
Ntp998
Rp999
(dp1000
g10
VChessington, Surrey, UK
p1001
sg63
V000000
p1002
sg65
Ven
p1003
sg67
VLondon
p1004
sg69
I691
sg70
I43
sg36
VWed Oct 15 11:32:20 +0000 2014
p1005
sg72
I00
sg73
VSquare Foot supply anti-slip, ceramic, porcelain, mosaic, glass, wood-effect & stone tiles to the interior design, architect & contract industries. 0208 3976284
p1006
sg75
Vhttps://pbs.twimg.com/profile_images/525235447811674112/7bBTmRQ2_normal.jpeg
p1007
sg77
I185
sg78
I3
sg79
I0
sg80
Nsg81
I00
sg82
Vhttps://pbs.twimg.com/profile_banners/2831480500/1414577640
p1008
sg84
I00
sg85
I00
sg86
V3B94D9
p1009
sg88
I00
sg89
I00
sg90
Vhttp://abs.twimg.com/images/themes/theme1/bg.png
p1010
sg92
VSquareFootTiles
p1011
sg94
I3
sg95
VSquare Foot Ceramics
p1012
sg97
V000000
p1013
sg99
Vhttp://t.co/15P2a3xIVu
p1014
sg101
I2831480500
sg102
V3B94D9
p1015
sbsg104
I8
sg105
V<a href="http://twitter.com" rel="nofollow">Twitter Web Client</a>
p1016
sg107
(lp1017
g3
(g109
g5
Ntp1018
Rp1019
(dp1020
g113
Vhttp://t.co/qolUiAQ2lw
p1021
sg115
Vhttp://fb.me/6PTU5PyHc
p1022
sbasg101
I531852410365706240
sbag3
(g4
g5
Ntp1023
Rp1024
(dp1025
g9
I4
sg10
Nsg11
Nsg12
(lp1026
g3
(g14
g5
Ntp1027
Rp1028
(dp1029
g18
Vweekend
p1030
sbag3
(g14
g5
Ntp1031
Rp1032
(dp1033
g18
Vgiveaway
p1034
sbag3
(g14
g5
Ntp1035
Rp1036
(dp1037
g18
Vcompetition
p1038
sbag3
(g14
g5
Ntp1039
Rp1040
(dp1041
g18
Vwin
p1042
sbag3
(g14
g5
Ntp1043
Rp1044
(dp1045
g18
VChampagne
p1046
sbag3
(g14
g5
Ntp1047
Rp1048
(dp1049
g18
VRT
p1050
sbasg28
I00
sg29
Nsg30
Nsg31
(lp1051
sg33
Nsg34
Nsg35
Nsg36
VSun Nov 09 17:30:48 +0000 2014
p1052
sg38
Nsg39
Nsg40
Nsg41
Nsg42
Nsg43
Nsg44
I00
sg45
Nsg46
(lp1053
sg48
Nsg49
V531499155483807745
p1054
sg51
Nsg52
VA great end to your #weekend: enter our #giveaway #competition for a chance to #win a bottle of #Champagne - follow us &amp; #RT (ends 30.11.14)
p1055
sg54
I00
sg55
Ven
p1056
sg57
g3
(g58
g5
Ntp1057
Rp1058
(dp1059
g10
VChessington, Surrey, UK
p1060
sg63
V000000
p1061
sg65
Ven
p1062
sg67
VLondon
p1063
sg69
I691
sg70
I43
sg36
VWed Oct 15 11:32:20 +0000 2014
p1064
sg72
I00
sg73
VSquare Foot supply anti-slip, ceramic, porcelain, mosaic, glass, wood-effect & stone tiles to the interior design, architect & contract industries. 0208 3976284
p1065
sg75
Vhttps://pbs.twimg.com/profile_images/525235447811674112/7bBTmRQ2_normal.jpeg
p1066
sg77
I185
sg78
I3
sg79
I0
sg80
Nsg81
I00
sg82
Vhttps://pbs.twimg.com/profile_banners/2831480500/1414577640
p1067
sg84
I00
sg85
I00
sg86
V3B94D9
p1068
sg88
I00
sg89
I00
sg90
Vhttp://abs.twimg.com/images/themes/theme1/bg.png
p1069
sg92
VSquareFootTiles
p1070
sg94
I3
sg95
VSquare Foot Ceramics
p1071
sg97
V000000
p1072
sg99
Vhttp://t.co/15P2a3xIVu
p1073
sg101
I2831480500
sg102
V3B94D9
p1074
sbsg104
I79
sg105
V<a href="http://www.hootsuite.com" rel="nofollow">Hootsuite</a>
p1075
sg107
(lp1076
sg101
I531499155483807745
sbaa.