(lp0
S'Rajendra9Prasad'
p1
a(lp2
ccopy_reg
_reconstructor
p3
(ctwitter
Status
p4
c__builtin__
object
p5
Ntp6
Rp7
(dp8
S'_favorite_count'
p9
I0
sS'_location'
p10
NsS'_withheld_scope'
p11
NsS'hashtags'
p12
(lp13
g3
(ctwitter
Hashtag
p14
g5
Ntp15
Rp16
(dp17
S'text'
p18
VKFHunt
p19
sbasS'_truncated'
p20
I00
sS'_retweeted_status'
p21
NsS'_withheld_copyright'
p22
NsS'media'
p23
(lp24
(dp25
Vsource_user_id
p26
I436652553
sVsource_status_id_str
p27
V544188076310806528
p28
sVexpanded_url
p29
Vhttp://twitter.com/Rajendra9Prasad/status/544188076310806528/photo/1
p30
sVdisplay_url
p31
Vpic.twitter.com/jchUj2qIfL
p32
sVurl
p33
Vhttp://t.co/jchUj2qIfL
p34
sVmedia_url_https
p35
Vhttps://pbs.twimg.com/media/B41YK7VCQAA6t2g.png
p36
sVsource_user_id_str
p37
V436652553
p38
sVsource_status_id
p39
I544188076310806528
sVid_str
p40
V544188074729553920
p41
sVsizes
p42
(dp43
Vsmall
p44
(dp45
Vh
p46
I482
sVresize
p47
Vfit
p48
sVw
p49
I340
ssVlarge
p50
(dp51
Vh
p52
I599
sVresize
p53
Vfit
p54
sVw
p55
I422
ssVmedium
p56
(dp57
Vh
p58
I599
sVresize
p59
Vfit
p60
sVw
p61
I422
ssVthumb
p62
(dp63
Vh
p64
I150
sVresize
p65
Vcrop
p66
sVw
p67
I150
sssVindices
p68
(lp69
I111
aI133
asVtype
p70
Vphoto
p71
sVid
p72
I544188074729553920
sVmedia_url
p73
Vhttp://pbs.twimg.com/media/B41YK7VCQAA6t2g.png
p74
sasS'_place'
p75
NsS'_contributors'
p76
NsS'_current_user_retweet'
p77
NsS'_created_at'
p78
VSun Dec 14 17:55:56 +0000 2014
p79
sS'_scopes'
p80
NsS'_possibly_sensitive'
p81
I00
sS'_in_reply_to_screen_name'
p82
Vndtvgoodtimes
p83
sS'_coordinates'
p84
NsS'_in_reply_to_user_id'
p85
I38412590
sS'_geo'
p86
NsS'_favorited'
p87
I00
sS'_withheld_in_countries'
p88
NsS'user_mentions'
p89
(lp90
g3
(ctwitter
User
p91
g5
Ntp92
Rp93
(dp94
g10
NsS'_profile_text_color'
p95
NsS'_lang'
p96
NsS'_time_zone'
p97
NsS'_followers_count'
p98
NsS'_statuses_count'
p99
Nsg78
NsS'_verified'
p100
NsS'_description'
p101
NsS'_profile_image_url'
p102
NsS'_friends_count'
p103
NsS'_favourites_count'
p104
NsS'_utc_offset'
p105
NsS'_status'
p106
NsS'_protected'
p107
NsS'_profile_banner_url'
p108
NsS'_notifications'
p109
NsS'_profile_background_tile'
p110
NsS'_profile_link_color'
p111
NsS'_geo_enabled'
p112
NsS'_contributors_enabled'
p113
NsS'_profile_background_image_url'
p114
NsS'_screen_name'
p115
Vndtvgoodtimes
p116
sS'_listed_count'
p117
NsS'_name'
p118
VNDTV Good Times
p119
sS'_profile_sidebar_fill_color'
p120
NsS'_url'
p121
NsS'_id'
p122
I38412590
sS'_profile_background_color'
p123
Nsbag3
(g91
g5
Ntp124
Rp125
(dp126
g10
Nsg95
Nsg96
Nsg97
Nsg98
Nsg99
Nsg78
Nsg100
Nsg101
Nsg102
Nsg103
Nsg104
Nsg105
Nsg106
Nsg107
Nsg108
Nsg109
Nsg110
Nsg111
Nsg112
Nsg113
Nsg114
Nsg115
Vlovecolorbar
p127
sg117
Nsg118
VColorBar Cosmetics
p128
sg120
Nsg121
Nsg122
I135629397
sg123
Nsbag3
(g91
g5
Ntp129
Rp130
(dp131
g10
Nsg95
Nsg96
Nsg97
Nsg98
Nsg99
Nsg78
Nsg100
Nsg101
Nsg102
Nsg103
Nsg104
Nsg105
Nsg106
Nsg107
Nsg108
Nsg109
Nsg110
Nsg111
Nsg112
Nsg113
Nsg114
Nsg115
VPanasonic_mob
p132
sg117
Nsg118
VPanasonic Mobiles
p133
sg120
Nsg121
Nsg122
I2904256754
sg123
NsbasS'_now'
p134
NsS'_id_str'
p135
V544189058377711616
p136
sS'_in_reply_to_status_id'
p137
I544182796646760448
sS'_text'
p138
V@ndtvgoodtimes @lovecolorbar @Panasonic_mob  #KFHunt \u000aA1) limeroad,A2) amrita,A3) Atul Kasbekar, Model- Mehnaz http://t.co/jchUj2qIfL 27
p139
sS'_retweeted'
p140
I00
sS'lang'
p141
Vet
p142
sS'_user'
p143
g3
(g91
g5
Ntp144
Rp145
(dp146
g10
VSUper 
p147
sg95
V663B12
p148
sg96
Ven
p149
sg97
VNew Delhi
p150
sg98
I384
sg99
I103554
sg78
VWed Dec 14 11:54:58 +0000 2011
p151
sg100
I00
sg101
V
p152
sg102
Vhttps://pbs.twimg.com/profile_images/378800000665499222/9abcdeb5ede71b2127ae77df46e06ba6_normal.png
p153
sg103
I756
sg104
I13311
sg105
I19800
sg106
Nsg107
I00
sg108
Vhttps://pbs.twimg.com/profile_banners/436652553/1417338198
p154
sg109
I00
sg110
I00
sg111
V1F98C7
p155
sg112
I01
sg113
I00
sg114
Vhttp://abs.twimg.com/images/themes/theme2/bg.gif
p156
sg115
VRajendra9Prasad
p157
sg117
I2
sg118
VRajendra9Prasad
p158
sg120
VDAECF4
p159
sg121
Nsg122
I436652553
sg123
VC6E2EE
p160
sbsS'_retweet_count'
p161
I0
sS'_source'
p162
V<a href="http://twitter.com" rel="nofollow">Twitter Web Client</a>
p163
sS'urls'
p164
(lp165
sg122
I544189058377711616
sbag3
(g4
g5
Ntp166
Rp167
(dp168
g9
I0
sg10
Nsg11
Nsg12
(lp169
g3
(g14
g5
Ntp170
Rp171
(dp172
g18
VKFHunt
p173
sbasg20
I00
sg21
Nsg22
Nsg23
(lp174
(dp175
Vsource_user_id
p176
I436652553
sVsource_status_id_str
p177
V544188076310806528
p178
sVexpanded_url
p179
Vhttp://twitter.com/Rajendra9Prasad/status/544188076310806528/photo/1
p180
sVdisplay_url
p181
Vpic.twitter.com/jchUj2qIfL
p182
sVurl
p183
Vhttp://t.co/jchUj2qIfL
p184
sVmedia_url_https
p185
Vhttps://pbs.twimg.com/media/B41YK7VCQAA6t2g.png
p186
sVsource_user_id_str
p187
V436652553
p188
sVsource_status_id
p189
I544188076310806528
sVid_str
p190
V544188074729553920
p191
sVsizes
p192
(dp193
Vsmall
p194
(dp195
Vh
p196
I482
sVresize
p197
Vfit
p198
sVw
p199
I340
ssVlarge
p200
(dp201
Vh
p202
I599
sVresize
p203
Vfit
p204
sVw
p205
I422
ssVmedium
p206
(dp207
Vh
p208
I599
sVresize
p209
Vfit
p210
sVw
p211
I422
ssVthumb
p212
(dp213
Vh
p214
I150
sVresize
p215
Vcrop
p216
sVw
p217
I150
sssVindices
p218
(lp219
I111
aI133
asVtype
p220
Vphoto
p221
sVid
p222
I544188074729553920
sVmedia_url
p223
Vhttp://pbs.twimg.com/media/B41YK7VCQAA6t2g.png
p224
sasg75
Nsg76
Nsg77
Nsg78
VSun Dec 14 17:55:51 +0000 2014
p225
sg80
Nsg81
I00
sg82
Vndtvgoodtimes
p226
sg84
Nsg85
I38412590
sg86
Nsg87
I00
sg88
Nsg89
(lp227
g3
(g91
g5
Ntp228
Rp229
(dp230
g10
Nsg95
Nsg96
Nsg97
Nsg98
Nsg99
Nsg78
Nsg100
Nsg101
Nsg102
Nsg103
Nsg104
Nsg105
Nsg106
Nsg107
Nsg108
Nsg109
Nsg110
Nsg111
Nsg112
Nsg113
Nsg114
Nsg115
Vndtvgoodtimes
p231
sg117
Nsg118
VNDTV Good Times
p232
sg120
Nsg121
Nsg122
I38412590
sg123
Nsbag3
(g91
g5
Ntp233
Rp234
(dp235
g10
Nsg95
Nsg96
Nsg97
Nsg98
Nsg99
Nsg78
Nsg100
Nsg101
Nsg102
Nsg103
Nsg104
Nsg105
Nsg106
Nsg107
Nsg108
Nsg109
Nsg110
Nsg111
Nsg112
Nsg113
Nsg114
Nsg115
Vlovecolorbar
p236
sg117
Nsg118
VColorBar Cosmetics
p237
sg120
Nsg121
Nsg122
I135629397
sg123
Nsbag3
(g91
g5
Ntp238
Rp239
(dp240
g10
Nsg95
Nsg96
Nsg97
Nsg98
Nsg99
Nsg78
Nsg100
Nsg101
Nsg102
Nsg103
Nsg104
Nsg105
Nsg106
Nsg107
Nsg108
Nsg109
Nsg110
Nsg111
Nsg112
Nsg113
Nsg114
Nsg115
VPanasonic_mob
p241
sg117
Nsg118
VPanasonic Mobiles
p242
sg120
Nsg121
Nsg122
I2904256754
sg123
Nsbasg134
Nsg135
V544189038266048512
p243
sg137
I544182796646760448
sg138
V@ndtvgoodtimes @lovecolorbar @Panasonic_mob  #KFHunt \u000aA1) limeroad,A2) amrita,A3) Atul Kasbekar, Model- Mehnaz http://t.co/jchUj2qIfL 26
p244
sg140
I00
sg141
Vet
p245
sg143
g3
(g91
g5
Ntp246
Rp247
(dp248
g10
VSUper 
p249
sg95
V663B12
p250
sg96
Ven
p251
sg97
VNew Delhi
p252
sg98
I384
sg99
I103554
sg78
VWed Dec 14 11:54:58 +0000 2011
p253
sg100
I00
sg101
g152
sg102
Vhttps://pbs.twimg.com/profile_images/378800000665499222/9abcdeb5ede71b2127ae77df46e06ba6_normal.png
p254
sg103
I756
sg104
I13311
sg105
I19800
sg106
Nsg107
I00
sg108
Vhttps://pbs.twimg.com/profile_banners/436652553/1417338198
p255
sg109
I00
sg110
I00
sg111
V1F98C7
p256
sg112
I01
sg113
I00
sg114
Vhttp://abs.twimg.com/images/themes/theme2/bg.gif
p257
sg115
VRajendra9Prasad
p258
sg117
I2
sg118
VRajendra9Prasad
p259
sg120
VDAECF4
p260
sg121
Nsg122
I436652553
sg123
VC6E2EE
p261
sbsg161
I0
sg162
V<a href="http://twitter.com" rel="nofollow">Twitter Web Client</a>
p262
sg164
(lp263
sg122
I544189038266048512
sbag3
(g4
g5
Ntp264
Rp265
(dp266
g9
I0
sg10
Nsg11
Nsg12
(lp267
g3
(g14
g5
Ntp268
Rp269
(dp270
g18
VKFHunt
p271
sbasg20
I00
sg21
Nsg22
Nsg23
(lp272
(dp273
Vsource_user_id
p274
I436652553
sVsource_status_id_str
p275
V544188076310806528
p276
sVexpanded_url
p277
Vhttp://twitter.com/Rajendra9Prasad/status/544188076310806528/photo/1
p278
sVdisplay_url
p279
Vpic.twitter.com/jchUj2qIfL
p280
sVurl
p281
Vhttp://t.co/jchUj2qIfL
p282
sVmedia_url_https
p283
Vhttps://pbs.twimg.com/media/B41YK7VCQAA6t2g.png
p284
sVsource_user_id_str
p285
V436652553
p286
sVsource_status_id
p287
I544188076310806528
sVid_str
p288
V544188074729553920
p289
sVsizes
p290
(dp291
Vsmall
p292
(dp293
Vh
p294
I482
sVresize
p295
Vfit
p296
sVw
p297
I340
ssVlarge
p298
(dp299
Vh
p300
I599
sVresize
p301
Vfit
p302
sVw
p303
I422
ssVmedium
p304
(dp305
Vh
p306
I599
sVresize
p307
Vfit
p308
sVw
p309
I422
ssVthumb
p310
(dp311
Vh
p312
I150
sVresize
p313
Vcrop
p314
sVw
p315
I150
sssVindices
p316
(lp317
I111
aI133
asVtype
p318
Vphoto
p319
sVid
p320
I544188074729553920
sVmedia_url
p321
Vhttp://pbs.twimg.com/media/B41YK7VCQAA6t2g.png
p322
sasg75
Nsg76
Nsg77
Nsg78
VSun Dec 14 17:55:48 +0000 2014
p323
sg80
Nsg81
I00
sg82
Vndtvgoodtimes
p324
sg84
Nsg85
I38412590
sg86
Nsg87
I00
sg88
Nsg89
(lp325
g3
(g91
g5
Ntp326
Rp327
(dp328
g10
Nsg95
Nsg96
Nsg97
Nsg98
Nsg99
Nsg78
Nsg100
Nsg101
Nsg102
Nsg103
Nsg104
Nsg105
Nsg106
Nsg107
Nsg108
Nsg109
Nsg110
Nsg111
Nsg112
Nsg113
Nsg114
Nsg115
Vndtvgoodtimes
p329
sg117
Nsg118
VNDTV Good Times
p330
sg120
Nsg121
Nsg122
I38412590
sg123
Nsbag3
(g91
g5
Ntp331
Rp332
(dp333
g10
Nsg95
Nsg96
Nsg97
Nsg98
Nsg99
Nsg78
Nsg100
Nsg101
Nsg102
Nsg103
Nsg104
Nsg105
Nsg106
Nsg107
Nsg108
Nsg109
Nsg110
Nsg111
Nsg112
Nsg113
Nsg114
Nsg115
Vlovecolorbar
p334
sg117
Nsg118
VColorBar Cosmetics
p335
sg120
Nsg121
Nsg122
I135629397
sg123
Nsbag3
(g91
g5
Ntp336
Rp337
(dp338
g10
Nsg95
Nsg96
Nsg97
Nsg98
Nsg99
Nsg78
Nsg100
Nsg101
Nsg102
Nsg103
Nsg104
Nsg105
Nsg106
Nsg107
Nsg108
Nsg109
Nsg110
Nsg111
Nsg112
Nsg113
Nsg114
Nsg115
VPanasonic_mob
p339
sg117
Nsg118
VPanasonic Mobiles
p340
sg120
Nsg121
Nsg122
I2904256754
sg123
Nsbasg134
Nsg135
V544189022638075904
p341
sg137
I544182796646760448
sg138
V@ndtvgoodtimes @lovecolorbar @Panasonic_mob  #KFHunt \u000aA1) limeroad,A2) amrita,A3) Atul Kasbekar, Model- Mehnaz http://t.co/jchUj2qIfL 25
p342
sg140
I00
sg141
Vet
p343
sg143
g3
(g91
g5
Ntp344
Rp345
(dp346
g10
VSUper 
p347
sg95
V663B12
p348
sg96
Ven
p349
sg97
VNew Delhi
p350
sg98
I384
sg99
I103554
sg78
VWed Dec 14 11:54:58 +0000 2011
p351
sg100
I00
sg101
g152
sg102
Vhttps://pbs.twimg.com/profile_images/378800000665499222/9abcdeb5ede71b2127ae77df46e06ba6_normal.png
p352
sg103
I756
sg104
I13311
sg105
I19800
sg106
Nsg107
I00
sg108
Vhttps://pbs.twimg.com/profile_banners/436652553/1417338198
p353
sg109
I00
sg110
I00
sg111
V1F98C7
p354
sg112
I01
sg113
I00
sg114
Vhttp://abs.twimg.com/images/themes/theme2/bg.gif
p355
sg115
VRajendra9Prasad
p356
sg117
I2
sg118
VRajendra9Prasad
p357
sg120
VDAECF4
p358
sg121
Nsg122
I436652553
sg123
VC6E2EE
p359
sbsg161
I0
sg162
V<a href="http://twitter.com" rel="nofollow">Twitter Web Client</a>
p360
sg164
(lp361
sg122
I544189022638075904
sbag3
(g4
g5
Ntp362
Rp363
(dp364
g9
I0
sg10
Nsg11
Nsg12
(lp365
g3
(g14
g5
Ntp366
Rp367
(dp368
g18
VKFHunt
p369
sbasg20
I00
sg21
Nsg22
Nsg23
(lp370
(dp371
Vsource_user_id
p372
I436652553
sVsource_status_id_str
p373
V544188076310806528
p374
sVexpanded_url
p375
Vhttp://twitter.com/Rajendra9Prasad/status/544188076310806528/photo/1
p376
sVdisplay_url
p377
Vpic.twitter.com/jchUj2qIfL
p378
sVurl
p379
Vhttp://t.co/jchUj2qIfL
p380
sVmedia_url_https
p381
Vhttps://pbs.twimg.com/media/B41YK7VCQAA6t2g.png
p382
sVsource_user_id_str
p383
V436652553
p384
sVsource_status_id
p385
I544188076310806528
sVid_str
p386
V544188074729553920
p387
sVsizes
p388
(dp389
Vsmall
p390
(dp391
Vh
p392
I482
sVresize
p393
Vfit
p394
sVw
p395
I340
ssVlarge
p396
(dp397
Vh
p398
I599
sVresize
p399
Vfit
p400
sVw
p401
I422
ssVmedium
p402
(dp403
Vh
p404
I599
sVresize
p405
Vfit
p406
sVw
p407
I422
ssVthumb
p408
(dp409
Vh
p410
I150
sVresize
p411
Vcrop
p412
sVw
p413
I150
sssVindices
p414
(lp415
I111
aI133
asVtype
p416
Vphoto
p417
sVid
p418
I544188074729553920
sVmedia_url
p419
Vhttp://pbs.twimg.com/media/B41YK7VCQAA6t2g.png
p420
sasg75
Nsg76
Nsg77
Nsg78
VSun Dec 14 17:55:43 +0000 2014
p421
sg80
Nsg81
I00
sg82
Vndtvgoodtimes
p422
sg84
Nsg85
I38412590
sg86
Nsg87
I00
sg88
Nsg89
(lp423
g3
(g91
g5
Ntp424
Rp425
(dp426
g10
Nsg95
Nsg96
Nsg97
Nsg98
Nsg99
Nsg78
Nsg100
Nsg101
Nsg102
Nsg103
Nsg104
Nsg105
Nsg106
Nsg107
Nsg108
Nsg109
Nsg110
Nsg111
Nsg112
Nsg113
Nsg114
Nsg115
Vndtvgoodtimes
p427
sg117
Nsg118
VNDTV Good Times
p428
sg120
Nsg121
Nsg122
I38412590
sg123
Nsbag3
(g91
g5
Ntp429
Rp430
(dp431
g10
Nsg95
Nsg96
Nsg97
Nsg98
Nsg99
Nsg78
Nsg100
Nsg101
Nsg102
Nsg103
Nsg104
Nsg105
Nsg106
Nsg107
Nsg108
Nsg109
Nsg110
Nsg111
Nsg112
Nsg113
Nsg114
Nsg115
Vlovecolorbar
p432
sg117
Nsg118
VColorBar Cosmetics
p433
sg120
Nsg121
Nsg122
I135629397
sg123
Nsbag3
(g91
g5
Ntp434
Rp435
(dp436
g10
Nsg95
Nsg96
Nsg97
Nsg98
Nsg99
Nsg78
Nsg100
Nsg101
Nsg102
Nsg103
Nsg104
Nsg105
Nsg106
Nsg107
Nsg108
Nsg109
Nsg110
Nsg111
Nsg112
Nsg113
Nsg114
Nsg115
VPanasonic_mob
p437
sg117
Nsg118
VPanasonic Mobiles
p438
sg120
Nsg121
Nsg122
I2904256754
sg123
Nsbasg134
Nsg135
V544189003679805440
p439
sg137
I544182796646760448
sg138
V@ndtvgoodtimes @lovecolorbar @Panasonic_mob  #KFHunt \u000aA1) limeroad,A2) amrita,A3) Atul Kasbekar, Model- Mehnaz http://t.co/jchUj2qIfL 24
p440
sg140
I00
sg141
Vet
p441
sg143
g3
(g91
g5
Ntp442
Rp443
(dp444
g10
VSUper 
p445
sg95
V663B12
p446
sg96
Ven
p447
sg97
VNew Delhi
p448
sg98
I384
sg99
I103554
sg78
VWed Dec 14 11:54:58 +0000 2011
p449
sg100
I00
sg101
g152
sg102
Vhttps://pbs.twimg.com/profile_images/378800000665499222/9abcdeb5ede71b2127ae77df46e06ba6_normal.png
p450
sg103
I756
sg104
I13311
sg105
I19800
sg106
Nsg107
I00
sg108
Vhttps://pbs.twimg.com/profile_banners/436652553/1417338198
p451
sg109
I00
sg110
I00
sg111
V1F98C7
p452
sg112
I01
sg113
I00
sg114
Vhttp://abs.twimg.com/images/themes/theme2/bg.gif
p453
sg115
VRajendra9Prasad
p454
sg117
I2
sg118
VRajendra9Prasad
p455
sg120
VDAECF4
p456
sg121
Nsg122
I436652553
sg123
VC6E2EE
p457
sbsg161
I0
sg162
V<a href="http://twitter.com" rel="nofollow">Twitter Web Client</a>
p458
sg164
(lp459
sg122
I544189003679805440
sbag3
(g4
g5
Ntp460
Rp461
(dp462
g9
I0
sg10
Nsg11
Nsg12
(lp463
g3
(g14
g5
Ntp464
Rp465
(dp466
g18
VKFHunt
p467
sbasg20
I00
sg21
Nsg22
Nsg23
(lp468
(dp469
Vsource_user_id
p470
I436652553
sVsource_status_id_str
p471
V544188076310806528
p472
sVexpanded_url
p473
Vhttp://twitter.com/Rajendra9Prasad/status/544188076310806528/photo/1
p474
sVdisplay_url
p475
Vpic.twitter.com/jchUj2qIfL
p476
sVurl
p477
Vhttp://t.co/jchUj2qIfL
p478
sVmedia_url_https
p479
Vhttps://pbs.twimg.com/media/B41YK7VCQAA6t2g.png
p480
sVsource_user_id_str
p481
V436652553
p482
sVsource_status_id
p483
I544188076310806528
sVid_str
p484
V544188074729553920
p485
sVsizes
p486
(dp487
Vsmall
p488
(dp489
Vh
p490
I482
sVresize
p491
Vfit
p492
sVw
p493
I340
ssVlarge
p494
(dp495
Vh
p496
I599
sVresize
p497
Vfit
p498
sVw
p499
I422
ssVmedium
p500
(dp501
Vh
p502
I599
sVresize
p503
Vfit
p504
sVw
p505
I422
ssVthumb
p506
(dp507
Vh
p508
I150
sVresize
p509
Vcrop
p510
sVw
p511
I150
sssVindices
p512
(lp513
I111
aI133
asVtype
p514
Vphoto
p515
sVid
p516
I544188074729553920
sVmedia_url
p517
Vhttp://pbs.twimg.com/media/B41YK7VCQAA6t2g.png
p518
sasg75
Nsg76
Nsg77
Nsg78
VSun Dec 14 17:55:35 +0000 2014
p519
sg80
Nsg81
I00
sg82
Vndtvgoodtimes
p520
sg84
Nsg85
I38412590
sg86
Nsg87
I00
sg88
Nsg89
(lp521
g3
(g91
g5
Ntp522
Rp523
(dp524
g10
Nsg95
Nsg96
Nsg97
Nsg98
Nsg99
Nsg78
Nsg100
Nsg101
Nsg102
Nsg103
Nsg104
Nsg105
Nsg106
Nsg107
Nsg108
Nsg109
Nsg110
Nsg111
Nsg112
Nsg113
Nsg114
Nsg115
Vndtvgoodtimes
p525
sg117
Nsg118
VNDTV Good Times
p526
sg120
Nsg121
Nsg122
I38412590
sg123
Nsbag3
(g91
g5
Ntp527
Rp528
(dp529
g10
Nsg95
Nsg96
Nsg97
Nsg98
Nsg99
Nsg78
Nsg100
Nsg101
Nsg102
Nsg103
Nsg104
Nsg105
Nsg106
Nsg107
Nsg108
Nsg109
Nsg110
Nsg111
Nsg112
Nsg113
Nsg114
Nsg115
Vlovecolorbar
p530
sg117
Nsg118
VColorBar Cosmetics
p531
sg120
Nsg121
Nsg122
I135629397
sg123
Nsbag3
(g91
g5
Ntp532
Rp533
(dp534
g10
Nsg95
Nsg96
Nsg97
Nsg98
Nsg99
Nsg78
Nsg100
Nsg101
Nsg102
Nsg103
Nsg104
Nsg105
Nsg106
Nsg107
Nsg108
Nsg109
Nsg110
Nsg111
Nsg112
Nsg113
Nsg114
Nsg115
VPanasonic_mob
p535
sg117
Nsg118
VPanasonic Mobiles
p536
sg120
Nsg121
Nsg122
I2904256754
sg123
Nsbasg134
Nsg135
V544188967881420801
p537
sg137
Nsg138
V@ndtvgoodtimes @lovecolorbar @Panasonic_mob  #KFHunt \u000aA1) limeroad,A2) amrita,A3) Atul Kasbekar, Model- Mehnaz http://t.co/jchUj2qIfL 23
p538
sg140
I00
sg141
Vet
p539
sg143
g3
(g91
g5
Ntp540
Rp541
(dp542
g10
VSUper 
p543
sg95
V663B12
p544
sg96
Ven
p545
sg97
VNew Delhi
p546
sg98
I384
sg99
I103554
sg78
VWed Dec 14 11:54:58 +0000 2011
p547
sg100
I00
sg101
g152
sg102
Vhttps://pbs.twimg.com/profile_images/378800000665499222/9abcdeb5ede71b2127ae77df46e06ba6_normal.png
p548
sg103
I756
sg104
I13311
sg105
I19800
sg106
Nsg107
I00
sg108
Vhttps://pbs.twimg.com/profile_banners/436652553/1417338198
p549
sg109
I00
sg110
I00
sg111
V1F98C7
p550
sg112
I01
sg113
I00
sg114
Vhttp://abs.twimg.com/images/themes/theme2/bg.gif
p551
sg115
VRajendra9Prasad
p552
sg117
I2
sg118
VRajendra9Prasad
p553
sg120
VDAECF4
p554
sg121
Nsg122
I436652553
sg123
VC6E2EE
p555
sbsg161
I0
sg162
V<a href="http://twitter.com" rel="nofollow">Twitter Web Client</a>
p556
sg164
(lp557
sg122
I544188967881420801
sbag3
(g4
g5
Ntp558
Rp559
(dp560
g9
I0
sg10
Nsg11
Nsg12
(lp561
g3
(g14
g5
Ntp562
Rp563
(dp564
g18
VKFHunt
p565
sbasg20
I00
sg21
Nsg22
Nsg23
(lp566
(dp567
Vsource_user_id
p568
I436652553
sVsource_status_id_str
p569
V544188076310806528
p570
sVexpanded_url
p571
Vhttp://twitter.com/Rajendra9Prasad/status/544188076310806528/photo/1
p572
sVdisplay_url
p573
Vpic.twitter.com/jchUj2qIfL
p574
sVurl
p575
Vhttp://t.co/jchUj2qIfL
p576
sVmedia_url_https
p577
Vhttps://pbs.twimg.com/media/B41YK7VCQAA6t2g.png
p578
sVsource_user_id_str
p579
V436652553
p580
sVsource_status_id
p581
I544188076310806528
sVid_str
p582
V544188074729553920
p583
sVsizes
p584
(dp585
Vsmall
p586
(dp587
Vh
p588
I482
sVresize
p589
Vfit
p590
sVw
p591
I340
ssVlarge
p592
(dp593
Vh
p594
I599
sVresize
p595
Vfit
p596
sVw
p597
I422
ssVmedium
p598
(dp599
Vh
p600
I599
sVresize
p601
Vfit
p602
sVw
p603
I422
ssVthumb
p604
(dp605
Vh
p606
I150
sVresize
p607
Vcrop
p608
sVw
p609
I150
sssVindices
p610
(lp611
I111
aI133
asVtype
p612
Vphoto
p613
sVid
p614
I544188074729553920
sVmedia_url
p615
Vhttp://pbs.twimg.com/media/B41YK7VCQAA6t2g.png
p616
sasg75
Nsg76
Nsg77
Nsg78
VSun Dec 14 17:55:19 +0000 2014
p617
sg80
Nsg81
I00
sg82
Vndtvgoodtimes
p618
sg84
Nsg85
I38412590
sg86
Nsg87
I00
sg88
Nsg89
(lp619
g3
(g91
g5
Ntp620
Rp621
(dp622
g10
Nsg95
Nsg96
Nsg97
Nsg98
Nsg99
Nsg78
Nsg100
Nsg101
Nsg102
Nsg103
Nsg104
Nsg105
Nsg106
Nsg107
Nsg108
Nsg109
Nsg110
Nsg111
Nsg112
Nsg113
Nsg114
Nsg115
Vndtvgoodtimes
p623
sg117
Nsg118
VNDTV Good Times
p624
sg120
Nsg121
Nsg122
I38412590
sg123
Nsbag3
(g91
g5
Ntp625
Rp626
(dp627
g10
Nsg95
Nsg96
Nsg97
Nsg98
Nsg99
Nsg78
Nsg100
Nsg101
Nsg102
Nsg103
Nsg104
Nsg105
Nsg106
Nsg107
Nsg108
Nsg109
Nsg110
Nsg111
Nsg112
Nsg113
Nsg114
Nsg115
Vlovecolorbar
p628
sg117
Nsg118
VColorBar Cosmetics
p629
sg120
Nsg121
Nsg122
I135629397
sg123
Nsbag3
(g91
g5
Ntp630
Rp631
(dp632
g10
Nsg95
Nsg96
Nsg97
Nsg98
Nsg99
Nsg78
Nsg100
Nsg101
Nsg102
Nsg103
Nsg104
Nsg105
Nsg106
Nsg107
Nsg108
Nsg109
Nsg110
Nsg111
Nsg112
Nsg113
Nsg114
Nsg115
VPanasonic_mob
p633
sg117
Nsg118
VPanasonic Mobiles
p634
sg120
Nsg121
Nsg122
I2904256754
sg123
Nsbasg134
Nsg135
V544188900449599489
p635
sg137
Nsg138
V@ndtvgoodtimes @lovecolorbar @Panasonic_mob  #KFHunt \u000aA1) limeroad,A2) amrita,A3) Atul Kasbekar, Model- Mehnaz http://t.co/jchUj2qIfL 21
p636
sg140
I00
sg141
Vet
p637
sg143
g3
(g91
g5
Ntp638
Rp639
(dp640
g10
VSUper 
p641
sg95
V663B12
p642
sg96
Ven
p643
sg97
VNew Delhi
p644
sg98
I384
sg99
I103554
sg78
VWed Dec 14 11:54:58 +0000 2011
p645
sg100
I00
sg101
g152
sg102
Vhttps://pbs.twimg.com/profile_images/378800000665499222/9abcdeb5ede71b2127ae77df46e06ba6_normal.png
p646
sg103
I756
sg104
I13311
sg105
I19800
sg106
Nsg107
I00
sg108
Vhttps://pbs.twimg.com/profile_banners/436652553/1417338198
p647
sg109
I00
sg110
I00
sg111
V1F98C7
p648
sg112
I01
sg113
I00
sg114
Vhttp://abs.twimg.com/images/themes/theme2/bg.gif
p649
sg115
VRajendra9Prasad
p650
sg117
I2
sg118
VRajendra9Prasad
p651
sg120
VDAECF4
p652
sg121
Nsg122
I436652553
sg123
VC6E2EE
p653
sbsg161
I0
sg162
V<a href="http://twitter.com" rel="nofollow">Twitter Web Client</a>
p654
sg164
(lp655
sg122
I544188900449599489
sbag3
(g4
g5
Ntp656
Rp657
(dp658
g9
I0
sg10
Nsg11
Nsg12
(lp659
g3
(g14
g5
Ntp660
Rp661
(dp662
g18
VKFHunt
p663
sbasg20
I00
sg21
Nsg22
Nsg23
(lp664
(dp665
Vsource_user_id
p666
I436652553
sVsource_status_id_str
p667
V544188076310806528
p668
sVexpanded_url
p669
Vhttp://twitter.com/Rajendra9Prasad/status/544188076310806528/photo/1
p670
sVdisplay_url
p671
Vpic.twitter.com/jchUj2qIfL
p672
sVurl
p673
Vhttp://t.co/jchUj2qIfL
p674
sVmedia_url_https
p675
Vhttps://pbs.twimg.com/media/B41YK7VCQAA6t2g.png
p676
sVsource_user_id_str
p677
V436652553
p678
sVsource_status_id
p679
I544188076310806528
sVid_str
p680
V544188074729553920
p681
sVsizes
p682
(dp683
Vsmall
p684
(dp685
Vh
p686
I482
sVresize
p687
Vfit
p688
sVw
p689
I340
ssVlarge
p690
(dp691
Vh
p692
I599
sVresize
p693
Vfit
p694
sVw
p695
I422
ssVmedium
p696
(dp697
Vh
p698
I599
sVresize
p699
Vfit
p700
sVw
p701
I422
ssVthumb
p702
(dp703
Vh
p704
I150
sVresize
p705
Vcrop
p706
sVw
p707
I150
sssVindices
p708
(lp709
I111
aI133
asVtype
p710
Vphoto
p711
sVid
p712
I544188074729553920
sVmedia_url
p713
Vhttp://pbs.twimg.com/media/B41YK7VCQAA6t2g.png
p714
sasg75
Nsg76
Nsg77
Nsg78
VSun Dec 14 17:55:13 +0000 2014
p715
sg80
Nsg81
I00
sg82
Vndtvgoodtimes
p716
sg84
Nsg85
I38412590
sg86
Nsg87
I00
sg88
Nsg89
(lp717
g3
(g91
g5
Ntp718
Rp719
(dp720
g10
Nsg95
Nsg96
Nsg97
Nsg98
Nsg99
Nsg78
Nsg100
Nsg101
Nsg102
Nsg103
Nsg104
Nsg105
Nsg106
Nsg107
Nsg108
Nsg109
Nsg110
Nsg111
Nsg112
Nsg113
Nsg114
Nsg115
Vndtvgoodtimes
p721
sg117
Nsg118
VNDTV Good Times
p722
sg120
Nsg121
Nsg122
I38412590
sg123
Nsbag3
(g91
g5
Ntp723
Rp724
(dp725
g10
Nsg95
Nsg96
Nsg97
Nsg98
Nsg99
Nsg78
Nsg100
Nsg101
Nsg102
Nsg103
Nsg104
Nsg105
Nsg106
Nsg107
Nsg108
Nsg109
Nsg110
Nsg111
Nsg112
Nsg113
Nsg114
Nsg115
Vlovecolorbar
p726
sg117
Nsg118
VColorBar Cosmetics
p727
sg120
Nsg121
Nsg122
I135629397
sg123
Nsbag3
(g91
g5
Ntp728
Rp729
(dp730
g10
Nsg95
Nsg96
Nsg97
Nsg98
Nsg99
Nsg78
Nsg100
Nsg101
Nsg102
Nsg103
Nsg104
Nsg105
Nsg106
Nsg107
Nsg108
Nsg109
Nsg110
Nsg111
Nsg112
Nsg113
Nsg114
Nsg115
VPanasonic_mob
p731
sg117
Nsg118
VPanasonic Mobiles
p732
sg120
Nsg121
Nsg122
I2904256754
sg123
Nsbasg134
Nsg135
V544188877540302848
p733
sg137
Nsg138
V@ndtvgoodtimes @lovecolorbar @Panasonic_mob  #KFHunt \u000aA1) limeroad,A2) amrita,A3) Atul Kasbekar, Model- Mehnaz http://t.co/jchUj2qIfL 20
p734
sg140
I00
sg141
Vet
p735
sg143
g3
(g91
g5
Ntp736
Rp737
(dp738
g10
VSUper 
p739
sg95
V663B12
p740
sg96
Ven
p741
sg97
VNew Delhi
p742
sg98
I384
sg99
I103554
sg78
VWed Dec 14 11:54:58 +0000 2011
p743
sg100
I00
sg101
g152
sg102
Vhttps://pbs.twimg.com/profile_images/378800000665499222/9abcdeb5ede71b2127ae77df46e06ba6_normal.png
p744
sg103
I756
sg104
I13311
sg105
I19800
sg106
Nsg107
I00
sg108
Vhttps://pbs.twimg.com/profile_banners/436652553/1417338198
p745
sg109
I00
sg110
I00
sg111
V1F98C7
p746
sg112
I01
sg113
I00
sg114
Vhttp://abs.twimg.com/images/themes/theme2/bg.gif
p747
sg115
VRajendra9Prasad
p748
sg117
I2
sg118
VRajendra9Prasad
p749
sg120
VDAECF4
p750
sg121
Nsg122
I436652553
sg123
VC6E2EE
p751
sbsg161
I0
sg162
V<a href="http://twitter.com" rel="nofollow">Twitter Web Client</a>
p752
sg164
(lp753
sg122
I544188877540302848
sbag3
(g4
g5
Ntp754
Rp755
(dp756
g9
I0
sg10
Nsg11
Nsg12
(lp757
g3
(g14
g5
Ntp758
Rp759
(dp760
g18
VKFHunt
p761
sbasg20
I00
sg21
Nsg22
Nsg23
(lp762
(dp763
Vsource_user_id
p764
I436652553
sVsource_status_id_str
p765
V544188076310806528
p766
sVexpanded_url
p767
Vhttp://twitter.com/Rajendra9Prasad/status/544188076310806528/photo/1
p768
sVdisplay_url
p769
Vpic.twitter.com/jchUj2qIfL
p770
sVurl
p771
Vhttp://t.co/jchUj2qIfL
p772
sVmedia_url_https
p773
Vhttps://pbs.twimg.com/media/B41YK7VCQAA6t2g.png
p774
sVsource_user_id_str
p775
V436652553
p776
sVsource_status_id
p777
I544188076310806528
sVid_str
p778
V544188074729553920
p779
sVsizes
p780
(dp781
Vsmall
p782
(dp783
Vh
p784
I482
sVresize
p785
Vfit
p786
sVw
p787
I340
ssVlarge
p788
(dp789
Vh
p790
I599
sVresize
p791
Vfit
p792
sVw
p793
I422
ssVmedium
p794
(dp795
Vh
p796
I599
sVresize
p797
Vfit
p798
sVw
p799
I422
ssVthumb
p800
(dp801
Vh
p802
I150
sVresize
p803
Vcrop
p804
sVw
p805
I150
sssVindices
p806
(lp807
I111
aI133
asVtype
p808
Vphoto
p809
sVid
p810
I544188074729553920
sVmedia_url
p811
Vhttp://pbs.twimg.com/media/B41YK7VCQAA6t2g.png
p812
sasg75
Nsg76
Nsg77
Nsg78
VSun Dec 14 17:55:10 +0000 2014
p813
sg80
Nsg81
I00
sg82
Vndtvgoodtimes
p814
sg84
Nsg85
I38412590
sg86
Nsg87
I00
sg88
Nsg89
(lp815
g3
(g91
g5
Ntp816
Rp817
(dp818
g10
Nsg95
Nsg96
Nsg97
Nsg98
Nsg99
Nsg78
Nsg100
Nsg101
Nsg102
Nsg103
Nsg104
Nsg105
Nsg106
Nsg107
Nsg108
Nsg109
Nsg110
Nsg111
Nsg112
Nsg113
Nsg114
Nsg115
Vndtvgoodtimes
p819
sg117
Nsg118
VNDTV Good Times
p820
sg120
Nsg121
Nsg122
I38412590
sg123
Nsbag3
(g91
g5
Ntp821
Rp822
(dp823
g10
Nsg95
Nsg96
Nsg97
Nsg98
Nsg99
Nsg78
Nsg100
Nsg101
Nsg102
Nsg103
Nsg104
Nsg105
Nsg106
Nsg107
Nsg108
Nsg109
Nsg110
Nsg111
Nsg112
Nsg113
Nsg114
Nsg115
Vlovecolorbar
p824
sg117
Nsg118
VColorBar Cosmetics
p825
sg120
Nsg121
Nsg122
I135629397
sg123
Nsbag3
(g91
g5
Ntp826
Rp827
(dp828
g10
Nsg95
Nsg96
Nsg97
Nsg98
Nsg99
Nsg78
Nsg100
Nsg101
Nsg102
Nsg103
Nsg104
Nsg105
Nsg106
Nsg107
Nsg108
Nsg109
Nsg110
Nsg111
Nsg112
Nsg113
Nsg114
Nsg115
VPanasonic_mob
p829
sg117
Nsg118
VPanasonic Mobiles
p830
sg120
Nsg121
Nsg122
I2904256754
sg123
Nsbasg134
Nsg135
V544188863158046720
p831
sg137
Nsg138
V@ndtvgoodtimes @lovecolorbar @Panasonic_mob  #KFHunt \u000aA1) limeroad,A2) amrita,A3) Atul Kasbekar, Model- Mehnaz http://t.co/jchUj2qIfL 19
p832
sg140
I00
sg141
Vet
p833
sg143
g3
(g91
g5
Ntp834
Rp835
(dp836
g10
VSUper 
p837
sg95
V663B12
p838
sg96
Ven
p839
sg97
VNew Delhi
p840
sg98
I384
sg99
I103554
sg78
VWed Dec 14 11:54:58 +0000 2011
p841
sg100
I00
sg101
g152
sg102
Vhttps://pbs.twimg.com/profile_images/378800000665499222/9abcdeb5ede71b2127ae77df46e06ba6_normal.png
p842
sg103
I756
sg104
I13311
sg105
I19800
sg106
Nsg107
I00
sg108
Vhttps://pbs.twimg.com/profile_banners/436652553/1417338198
p843
sg109
I00
sg110
I00
sg111
V1F98C7
p844
sg112
I01
sg113
I00
sg114
Vhttp://abs.twimg.com/images/themes/theme2/bg.gif
p845
sg115
VRajendra9Prasad
p846
sg117
I2
sg118
VRajendra9Prasad
p847
sg120
VDAECF4
p848
sg121
Nsg122
I436652553
sg123
VC6E2EE
p849
sbsg161
I0
sg162
V<a href="http://twitter.com" rel="nofollow">Twitter Web Client</a>
p850
sg164
(lp851
sg122
I544188863158046720
sbag3
(g4
g5
Ntp852
Rp853
(dp854
g9
I0
sg10
Nsg11
Nsg12
(lp855
g3
(g14
g5
Ntp856
Rp857
(dp858
g18
VKFHunt
p859
sbasg20
I00
sg21
Nsg22
Nsg23
(lp860
(dp861
Vsource_user_id
p862
I436652553
sVsource_status_id_str
p863
V544188076310806528
p864
sVexpanded_url
p865
Vhttp://twitter.com/Rajendra9Prasad/status/544188076310806528/photo/1
p866
sVdisplay_url
p867
Vpic.twitter.com/jchUj2qIfL
p868
sVurl
p869
Vhttp://t.co/jchUj2qIfL
p870
sVmedia_url_https
p871
Vhttps://pbs.twimg.com/media/B41YK7VCQAA6t2g.png
p872
sVsource_user_id_str
p873
V436652553
p874
sVsource_status_id
p875
I544188076310806528
sVid_str
p876
V544188074729553920
p877
sVsizes
p878
(dp879
Vsmall
p880
(dp881
Vh
p882
I482
sVresize
p883
Vfit
p884
sVw
p885
I340
ssVlarge
p886
(dp887
Vh
p888
I599
sVresize
p889
Vfit
p890
sVw
p891
I422
ssVmedium
p892
(dp893
Vh
p894
I599
sVresize
p895
Vfit
p896
sVw
p897
I422
ssVthumb
p898
(dp899
Vh
p900
I150
sVresize
p901
Vcrop
p902
sVw
p903
I150
sssVindices
p904
(lp905
I111
aI133
asVtype
p906
Vphoto
p907
sVid
p908
I544188074729553920
sVmedia_url
p909
Vhttp://pbs.twimg.com/media/B41YK7VCQAA6t2g.png
p910
sasg75
Nsg76
Nsg77
Nsg78
VSun Dec 14 17:55:06 +0000 2014
p911
sg80
Nsg81
I00
sg82
Vndtvgoodtimes
p912
sg84
Nsg85
I38412590
sg86
Nsg87
I00
sg88
Nsg89
(lp913
g3
(g91
g5
Ntp914
Rp915
(dp916
g10
Nsg95
Nsg96
Nsg97
Nsg98
Nsg99
Nsg78
Nsg100
Nsg101
Nsg102
Nsg103
Nsg104
Nsg105
Nsg106
Nsg107
Nsg108
Nsg109
Nsg110
Nsg111
Nsg112
Nsg113
Nsg114
Nsg115
Vndtvgoodtimes
p917
sg117
Nsg118
VNDTV Good Times
p918
sg120
Nsg121
Nsg122
I38412590
sg123
Nsbag3
(g91
g5
Ntp919
Rp920
(dp921
g10
Nsg95
Nsg96
Nsg97
Nsg98
Nsg99
Nsg78
Nsg100
Nsg101
Nsg102
Nsg103
Nsg104
Nsg105
Nsg106
Nsg107
Nsg108
Nsg109
Nsg110
Nsg111
Nsg112
Nsg113
Nsg114
Nsg115
Vlovecolorbar
p922
sg117
Nsg118
VColorBar Cosmetics
p923
sg120
Nsg121
Nsg122
I135629397
sg123
Nsbag3
(g91
g5
Ntp924
Rp925
(dp926
g10
Nsg95
Nsg96
Nsg97
Nsg98
Nsg99
Nsg78
Nsg100
Nsg101
Nsg102
Nsg103
Nsg104
Nsg105
Nsg106
Nsg107
Nsg108
Nsg109
Nsg110
Nsg111
Nsg112
Nsg113
Nsg114
Nsg115
VPanasonic_mob
p927
sg117
Nsg118
VPanasonic Mobiles
p928
sg120
Nsg121
Nsg122
I2904256754
sg123
Nsbasg134
Nsg135
V544188849505579009
p929
sg137
Nsg138
V@ndtvgoodtimes @lovecolorbar @Panasonic_mob  #KFHunt \u000aA1) limeroad,A2) amrita,A3) Atul Kasbekar, Model- Mehnaz http://t.co/jchUj2qIfL 18
p930
sg140
I00
sg141
Vet
p931
sg143
g3
(g91
g5
Ntp932
Rp933
(dp934
g10
VSUper 
p935
sg95
V663B12
p936
sg96
Ven
p937
sg97
VNew Delhi
p938
sg98
I384
sg99
I103554
sg78
VWed Dec 14 11:54:58 +0000 2011
p939
sg100
I00
sg101
g152
sg102
Vhttps://pbs.twimg.com/profile_images/378800000665499222/9abcdeb5ede71b2127ae77df46e06ba6_normal.png
p940
sg103
I756
sg104
I13311
sg105
I19800
sg106
Nsg107
I00
sg108
Vhttps://pbs.twimg.com/profile_banners/436652553/1417338198
p941
sg109
I00
sg110
I00
sg111
V1F98C7
p942
sg112
I01
sg113
I00
sg114
Vhttp://abs.twimg.com/images/themes/theme2/bg.gif
p943
sg115
VRajendra9Prasad
p944
sg117
I2
sg118
VRajendra9Prasad
p945
sg120
VDAECF4
p946
sg121
Nsg122
I436652553
sg123
VC6E2EE
p947
sbsg161
I0
sg162
V<a href="http://twitter.com" rel="nofollow">Twitter Web Client</a>
p948
sg164
(lp949
sg122
I544188849505579009
sbag3
(g4
g5
Ntp950
Rp951
(dp952
g9
I0
sg10
Nsg11
Nsg12
(lp953
g3
(g14
g5
Ntp954
Rp955
(dp956
g18
VKFHunt
p957
sbasg20
I00
sg21
Nsg22
Nsg23
(lp958
(dp959
Vsource_user_id
p960
I436652553
sVsource_status_id_str
p961
V544188076310806528
p962
sVexpanded_url
p963
Vhttp://twitter.com/Rajendra9Prasad/status/544188076310806528/photo/1
p964
sVdisplay_url
p965
Vpic.twitter.com/jchUj2qIfL
p966
sVurl
p967
Vhttp://t.co/jchUj2qIfL
p968
sVmedia_url_https
p969
Vhttps://pbs.twimg.com/media/B41YK7VCQAA6t2g.png
p970
sVsource_user_id_str
p971
V436652553
p972
sVsource_status_id
p973
I544188076310806528
sVid_str
p974
V544188074729553920
p975
sVsizes
p976
(dp977
Vsmall
p978
(dp979
Vh
p980
I482
sVresize
p981
Vfit
p982
sVw
p983
I340
ssVlarge
p984
(dp985
Vh
p986
I599
sVresize
p987
Vfit
p988
sVw
p989
I422
ssVmedium
p990
(dp991
Vh
p992
I599
sVresize
p993
Vfit
p994
sVw
p995
I422
ssVthumb
p996
(dp997
Vh
p998
I150
sVresize
p999
Vcrop
p1000
sVw
p1001
I150
sssVindices
p1002
(lp1003
I111
aI133
asVtype
p1004
Vphoto
p1005
sVid
p1006
I544188074729553920
sVmedia_url
p1007
Vhttp://pbs.twimg.com/media/B41YK7VCQAA6t2g.png
p1008
sasg75
Nsg76
Nsg77
Nsg78
VSun Dec 14 17:55:02 +0000 2014
p1009
sg80
Nsg81
I00
sg82
Vndtvgoodtimes
p1010
sg84
Nsg85
I38412590
sg86
Nsg87
I00
sg88
Nsg89
(lp1011
g3
(g91
g5
Ntp1012
Rp1013
(dp1014
g10
Nsg95
Nsg96
Nsg97
Nsg98
Nsg99
Nsg78
Nsg100
Nsg101
Nsg102
Nsg103
Nsg104
Nsg105
Nsg106
Nsg107
Nsg108
Nsg109
Nsg110
Nsg111
Nsg112
Nsg113
Nsg114
Nsg115
Vndtvgoodtimes
p1015
sg117
Nsg118
VNDTV Good Times
p1016
sg120
Nsg121
Nsg122
I38412590
sg123
Nsbag3
(g91
g5
Ntp1017
Rp1018
(dp1019
g10
Nsg95
Nsg96
Nsg97
Nsg98
Nsg99
Nsg78
Nsg100
Nsg101
Nsg102
Nsg103
Nsg104
Nsg105
Nsg106
Nsg107
Nsg108
Nsg109
Nsg110
Nsg111
Nsg112
Nsg113
Nsg114
Nsg115
Vlovecolorbar
p1020
sg117
Nsg118
VColorBar Cosmetics
p1021
sg120
Nsg121
Nsg122
I135629397
sg123
Nsbag3
(g91
g5
Ntp1022
Rp1023
(dp1024
g10
Nsg95
Nsg96
Nsg97
Nsg98
Nsg99
Nsg78
Nsg100
Nsg101
Nsg102
Nsg103
Nsg104
Nsg105
Nsg106
Nsg107
Nsg108
Nsg109
Nsg110
Nsg111
Nsg112
Nsg113
Nsg114
Nsg115
VPanasonic_mob
p1025
sg117
Nsg118
VPanasonic Mobiles
p1026
sg120
Nsg121
Nsg122
I2904256754
sg123
Nsbasg134
Nsg135
V544188830253711360
p1027
sg137
Nsg138
V@ndtvgoodtimes @lovecolorbar @Panasonic_mob  #KFHunt \u000aA1) limeroad,A2) amrita,A3) Atul Kasbekar, Model- Mehnaz http://t.co/jchUj2qIfL 17
p1028
sg140
I00
sg141
Vet
p1029
sg143
g3
(g91
g5
Ntp1030
Rp1031
(dp1032
g10
VSUper 
p1033
sg95
V663B12
p1034
sg96
Ven
p1035
sg97
VNew Delhi
p1036
sg98
I384
sg99
I103554
sg78
VWed Dec 14 11:54:58 +0000 2011
p1037
sg100
I00
sg101
g152
sg102
Vhttps://pbs.twimg.com/profile_images/378800000665499222/9abcdeb5ede71b2127ae77df46e06ba6_normal.png
p1038
sg103
I756
sg104
I13311
sg105
I19800
sg106
Nsg107
I00
sg108
Vhttps://pbs.twimg.com/profile_banners/436652553/1417338198
p1039
sg109
I00
sg110
I00
sg111
V1F98C7
p1040
sg112
I01
sg113
I00
sg114
Vhttp://abs.twimg.com/images/themes/theme2/bg.gif
p1041
sg115
VRajendra9Prasad
p1042
sg117
I2
sg118
VRajendra9Prasad
p1043
sg120
VDAECF4
p1044
sg121
Nsg122
I436652553
sg123
VC6E2EE
p1045
sbsg161
I0
sg162
V<a href="http://twitter.com" rel="nofollow">Twitter Web Client</a>
p1046
sg164
(lp1047
sg122
I544188830253711360
sbag3
(g4
g5
Ntp1048
Rp1049
(dp1050
g9
I0
sg10
Nsg11
Nsg12
(lp1051
g3
(g14
g5
Ntp1052
Rp1053
(dp1054
g18
VKFHunt
p1055
sbasg20
I00
sg21
Nsg22
Nsg23
(lp1056
(dp1057
Vsource_user_id
p1058
I436652553
sVsource_status_id_str
p1059
V544188076310806528
p1060
sVexpanded_url
p1061
Vhttp://twitter.com/Rajendra9Prasad/status/544188076310806528/photo/1
p1062
sVdisplay_url
p1063
Vpic.twitter.com/jchUj2qIfL
p1064
sVurl
p1065
Vhttp://t.co/jchUj2qIfL
p1066
sVmedia_url_https
p1067
Vhttps://pbs.twimg.com/media/B41YK7VCQAA6t2g.png
p1068
sVsource_user_id_str
p1069
V436652553
p1070
sVsource_status_id
p1071
I544188076310806528
sVid_str
p1072
V544188074729553920
p1073
sVsizes
p1074
(dp1075
Vsmall
p1076
(dp1077
Vh
p1078
I482
sVresize
p1079
Vfit
p1080
sVw
p1081
I340
ssVlarge
p1082
(dp1083
Vh
p1084
I599
sVresize
p1085
Vfit
p1086
sVw
p1087
I422
ssVmedium
p1088
(dp1089
Vh
p1090
I599
sVresize
p1091
Vfit
p1092
sVw
p1093
I422
ssVthumb
p1094
(dp1095
Vh
p1096
I150
sVresize
p1097
Vcrop
p1098
sVw
p1099
I150
sssVindices
p1100
(lp1101
I111
aI133
asVtype
p1102
Vphoto
p1103
sVid
p1104
I544188074729553920
sVmedia_url
p1105
Vhttp://pbs.twimg.com/media/B41YK7VCQAA6t2g.png
p1106
sasg75
Nsg76
Nsg77
Nsg78
VSun Dec 14 17:54:57 +0000 2014
p1107
sg80
Nsg81
I00
sg82
Vndtvgoodtimes
p1108
sg84
Nsg85
I38412590
sg86
Nsg87
I00
sg88
Nsg89
(lp1109
g3
(g91
g5
Ntp1110
Rp1111
(dp1112
g10
Nsg95
Nsg96
Nsg97
Nsg98
Nsg99
Nsg78
Nsg100
Nsg101
Nsg102
Nsg103
Nsg104
Nsg105
Nsg106
Nsg107
Nsg108
Nsg109
Nsg110
Nsg111
Nsg112
Nsg113
Nsg114
Nsg115
Vndtvgoodtimes
p1113
sg117
Nsg118
VNDTV Good Times
p1114
sg120
Nsg121
Nsg122
I38412590
sg123
Nsbag3
(g91
g5
Ntp1115
Rp1116
(dp1117
g10
Nsg95
Nsg96
Nsg97
Nsg98
Nsg99
Nsg78
Nsg100
Nsg101
Nsg102
Nsg103
Nsg104
Nsg105
Nsg106
Nsg107
Nsg108
Nsg109
Nsg110
Nsg111
Nsg112
Nsg113
Nsg114
Nsg115
Vlovecolorbar
p1118
sg117
Nsg118
VColorBar Cosmetics
p1119
sg120
Nsg121
Nsg122
I135629397
sg123
Nsbag3
(g91
g5
Ntp1120
Rp1121
(dp1122
g10
Nsg95
Nsg96
Nsg97
Nsg98
Nsg99
Nsg78
Nsg100
Nsg101
Nsg102
Nsg103
Nsg104
Nsg105
Nsg106
Nsg107
Nsg108
Nsg109
Nsg110
Nsg111
Nsg112
Nsg113
Nsg114
Nsg115
VPanasonic_mob
p1123
sg117
Nsg118
VPanasonic Mobiles
p1124
sg120
Nsg121
Nsg122
I2904256754
sg123
Nsbasg134
Nsg135
V544188808351076352
p1125
sg137
Nsg138
V@ndtvgoodtimes @lovecolorbar @Panasonic_mob  #KFHunt \u000aA1) limeroad,A2) amrita,A3) Atul Kasbekar, Model- Mehnaz http://t.co/jchUj2qIfL 16
p1126
sg140
I00
sg141
Vet
p1127
sg143
g3
(g91
g5
Ntp1128
Rp1129
(dp1130
g10
VSUper 
p1131
sg95
V663B12
p1132
sg96
Ven
p1133
sg97
VNew Delhi
p1134
sg98
I384
sg99
I103554
sg78
VWed Dec 14 11:54:58 +0000 2011
p1135
sg100
I00
sg101
g152
sg102
Vhttps://pbs.twimg.com/profile_images/378800000665499222/9abcdeb5ede71b2127ae77df46e06ba6_normal.png
p1136
sg103
I756
sg104
I13311
sg105
I19800
sg106
Nsg107
I00
sg108
Vhttps://pbs.twimg.com/profile_banners/436652553/1417338198
p1137
sg109
I00
sg110
I00
sg111
V1F98C7
p1138
sg112
I01
sg113
I00
sg114
Vhttp://abs.twimg.com/images/themes/theme2/bg.gif
p1139
sg115
VRajendra9Prasad
p1140
sg117
I2
sg118
VRajendra9Prasad
p1141
sg120
VDAECF4
p1142
sg121
Nsg122
I436652553
sg123
VC6E2EE
p1143
sbsg161
I0
sg162
V<a href="http://twitter.com" rel="nofollow">Twitter Web Client</a>
p1144
sg164
(lp1145
sg122
I544188808351076352
sbag3
(g4
g5
Ntp1146
Rp1147
(dp1148
g9
I0
sg10
Nsg11
Nsg12
(lp1149
g3
(g14
g5
Ntp1150
Rp1151
(dp1152
g18
VKFHunt
p1153
sbasg20
I00
sg21
Nsg22
Nsg23
(lp1154
(dp1155
Vsource_user_id
p1156
I436652553
sVsource_status_id_str
p1157
V544188076310806528
p1158
sVexpanded_url
p1159
Vhttp://twitter.com/Rajendra9Prasad/status/544188076310806528/photo/1
p1160
sVdisplay_url
p1161
Vpic.twitter.com/jchUj2qIfL
p1162
sVurl
p1163
Vhttp://t.co/jchUj2qIfL
p1164
sVmedia_url_https
p1165
Vhttps://pbs.twimg.com/media/B41YK7VCQAA6t2g.png
p1166
sVsource_user_id_str
p1167
V436652553
p1168
sVsource_status_id
p1169
I544188076310806528
sVid_str
p1170
V544188074729553920
p1171
sVsizes
p1172
(dp1173
Vsmall
p1174
(dp1175
Vh
p1176
I482
sVresize
p1177
Vfit
p1178
sVw
p1179
I340
ssVlarge
p1180
(dp1181
Vh
p1182
I599
sVresize
p1183
Vfit
p1184
sVw
p1185
I422
ssVmedium
p1186
(dp1187
Vh
p1188
I599
sVresize
p1189
Vfit
p1190
sVw
p1191
I422
ssVthumb
p1192
(dp1193
Vh
p1194
I150
sVresize
p1195
Vcrop
p1196
sVw
p1197
I150
sssVindices
p1198
(lp1199
I111
aI133
asVtype
p1200
Vphoto
p1201
sVid
p1202
I544188074729553920
sVmedia_url
p1203
Vhttp://pbs.twimg.com/media/B41YK7VCQAA6t2g.png
p1204
sasg75
Nsg76
Nsg77
Nsg78
VSun Dec 14 17:54:53 +0000 2014
p1205
sg80
Nsg81
I00
sg82
Vndtvgoodtimes
p1206
sg84
Nsg85
I38412590
sg86
Nsg87
I00
sg88
Nsg89
(lp1207
g3
(g91
g5
Ntp1208
Rp1209
(dp1210
g10
Nsg95
Nsg96
Nsg97
Nsg98
Nsg99
Nsg78
Nsg100
Nsg101
Nsg102
Nsg103
Nsg104
Nsg105
Nsg106
Nsg107
Nsg108
Nsg109
Nsg110
Nsg111
Nsg112
Nsg113
Nsg114
Nsg115
Vndtvgoodtimes
p1211
sg117
Nsg118
VNDTV Good Times
p1212
sg120
Nsg121
Nsg122
I38412590
sg123
Nsbag3
(g91
g5
Ntp1213
Rp1214
(dp1215
g10
Nsg95
Nsg96
Nsg97
Nsg98
Nsg99
Nsg78
Nsg100
Nsg101
Nsg102
Nsg103
Nsg104
Nsg105
Nsg106
Nsg107
Nsg108
Nsg109
Nsg110
Nsg111
Nsg112
Nsg113
Nsg114
Nsg115
Vlovecolorbar
p1216
sg117
Nsg118
VColorBar Cosmetics
p1217
sg120
Nsg121
Nsg122
I135629397
sg123
Nsbag3
(g91
g5
Ntp1218
Rp1219
(dp1220
g10
Nsg95
Nsg96
Nsg97
Nsg98
Nsg99
Nsg78
Nsg100
Nsg101
Nsg102
Nsg103
Nsg104
Nsg105
Nsg106
Nsg107
Nsg108
Nsg109
Nsg110
Nsg111
Nsg112
Nsg113
Nsg114
Nsg115
VPanasonic_mob
p1221
sg117
Nsg118
VPanasonic Mobiles
p1222
sg120
Nsg121
Nsg122
I2904256754
sg123
Nsbasg134
Nsg135
V544188792232374272
p1223
sg137
Nsg138
V@ndtvgoodtimes @lovecolorbar @Panasonic_mob  #KFHunt \u000aA1) limeroad,A2) amrita,A3) Atul Kasbekar, Model- Mehnaz http://t.co/jchUj2qIfL 15
p1224
sg140
I00
sg141
Vet
p1225
sg143
g3
(g91
g5
Ntp1226
Rp1227
(dp1228
g10
VSUper 
p1229
sg95
V663B12
p1230
sg96
Ven
p1231
sg97
VNew Delhi
p1232
sg98
I384
sg99
I103554
sg78
VWed Dec 14 11:54:58 +0000 2011
p1233
sg100
I00
sg101
g152
sg102
Vhttps://pbs.twimg.com/profile_images/378800000665499222/9abcdeb5ede71b2127ae77df46e06ba6_normal.png
p1234
sg103
I756
sg104
I13311
sg105
I19800
sg106
Nsg107
I00
sg108
Vhttps://pbs.twimg.com/profile_banners/436652553/1417338198
p1235
sg109
I00
sg110
I00
sg111
V1F98C7
p1236
sg112
I01
sg113
I00
sg114
Vhttp://abs.twimg.com/images/themes/theme2/bg.gif
p1237
sg115
VRajendra9Prasad
p1238
sg117
I2
sg118
VRajendra9Prasad
p1239
sg120
VDAECF4
p1240
sg121
Nsg122
I436652553
sg123
VC6E2EE
p1241
sbsg161
I0
sg162
V<a href="http://twitter.com" rel="nofollow">Twitter Web Client</a>
p1242
sg164
(lp1243
sg122
I544188792232374272
sbag3
(g4
g5
Ntp1244
Rp1245
(dp1246
g9
I0
sg10
Nsg11
Nsg12
(lp1247
g3
(g14
g5
Ntp1248
Rp1249
(dp1250
g18
VKFHunt
p1251
sbasg20
I00
sg21
Nsg22
Nsg23
(lp1252
(dp1253
Vsource_user_id
p1254
I436652553
sVsource_status_id_str
p1255
V544188076310806528
p1256
sVexpanded_url
p1257
Vhttp://twitter.com/Rajendra9Prasad/status/544188076310806528/photo/1
p1258
sVdisplay_url
p1259
Vpic.twitter.com/jchUj2qIfL
p1260
sVurl
p1261
Vhttp://t.co/jchUj2qIfL
p1262
sVmedia_url_https
p1263
Vhttps://pbs.twimg.com/media/B41YK7VCQAA6t2g.png
p1264
sVsource_user_id_str
p1265
V436652553
p1266
sVsource_status_id
p1267
I544188076310806528
sVid_str
p1268
V544188074729553920
p1269
sVsizes
p1270
(dp1271
Vsmall
p1272
(dp1273
Vh
p1274
I482
sVresize
p1275
Vfit
p1276
sVw
p1277
I340
ssVlarge
p1278
(dp1279
Vh
p1280
I599
sVresize
p1281
Vfit
p1282
sVw
p1283
I422
ssVmedium
p1284
(dp1285
Vh
p1286
I599
sVresize
p1287
Vfit
p1288
sVw
p1289
I422
ssVthumb
p1290
(dp1291
Vh
p1292
I150
sVresize
p1293
Vcrop
p1294
sVw
p1295
I150
sssVindices
p1296
(lp1297
I111
aI133
asVtype
p1298
Vphoto
p1299
sVid
p1300
I544188074729553920
sVmedia_url
p1301
Vhttp://pbs.twimg.com/media/B41YK7VCQAA6t2g.png
p1302
sasg75
Nsg76
Nsg77
Nsg78
VSun Dec 14 17:54:48 +0000 2014
p1303
sg80
Nsg81
I00
sg82
Vndtvgoodtimes
p1304
sg84
Nsg85
I38412590
sg86
Nsg87
I00
sg88
Nsg89
(lp1305
g3
(g91
g5
Ntp1306
Rp1307
(dp1308
g10
Nsg95
Nsg96
Nsg97
Nsg98
Nsg99
Nsg78
Nsg100
Nsg101
Nsg102
Nsg103
Nsg104
Nsg105
Nsg106
Nsg107
Nsg108
Nsg109
Nsg110
Nsg111
Nsg112
Nsg113
Nsg114
Nsg115
Vndtvgoodtimes
p1309
sg117
Nsg118
VNDTV Good Times
p1310
sg120
Nsg121
Nsg122
I38412590
sg123
Nsbag3
(g91
g5
Ntp1311
Rp1312
(dp1313
g10
Nsg95
Nsg96
Nsg97
Nsg98
Nsg99
Nsg78
Nsg100
Nsg101
Nsg102
Nsg103
Nsg104
Nsg105
Nsg106
Nsg107
Nsg108
Nsg109
Nsg110
Nsg111
Nsg112
Nsg113
Nsg114
Nsg115
Vlovecolorbar
p1314
sg117
Nsg118
VColorBar Cosmetics
p1315
sg120
Nsg121
Nsg122
I135629397
sg123
Nsbag3
(g91
g5
Ntp1316
Rp1317
(dp1318
g10
Nsg95
Nsg96
Nsg97
Nsg98
Nsg99
Nsg78
Nsg100
Nsg101
Nsg102
Nsg103
Nsg104
Nsg105
Nsg106
Nsg107
Nsg108
Nsg109
Nsg110
Nsg111
Nsg112
Nsg113
Nsg114
Nsg115
VPanasonic_mob
p1319
sg117
Nsg118
VPanasonic Mobiles
p1320
sg120
Nsg121
Nsg122
I2904256754
sg123
Nsbasg134
Nsg135
V544188771806101504
p1321
sg137
Nsg138
V@ndtvgoodtimes @lovecolorbar @Panasonic_mob  #KFHunt \u000aA1) limeroad,A2) amrita,A3) Atul Kasbekar, Model- Mehnaz http://t.co/jchUj2qIfL 14
p1322
sg140
I00
sg141
Vet
p1323
sg143
g3
(g91
g5
Ntp1324
Rp1325
(dp1326
g10
VSUper 
p1327
sg95
V663B12
p1328
sg96
Ven
p1329
sg97
VNew Delhi
p1330
sg98
I384
sg99
I103554
sg78
VWed Dec 14 11:54:58 +0000 2011
p1331
sg100
I00
sg101
g152
sg102
Vhttps://pbs.twimg.com/profile_images/378800000665499222/9abcdeb5ede71b2127ae77df46e06ba6_normal.png
p1332
sg103
I756
sg104
I13311
sg105
I19800
sg106
Nsg107
I00
sg108
Vhttps://pbs.twimg.com/profile_banners/436652553/1417338198
p1333
sg109
I00
sg110
I00
sg111
V1F98C7
p1334
sg112
I01
sg113
I00
sg114
Vhttp://abs.twimg.com/images/themes/theme2/bg.gif
p1335
sg115
VRajendra9Prasad
p1336
sg117
I2
sg118
VRajendra9Prasad
p1337
sg120
VDAECF4
p1338
sg121
Nsg122
I436652553
sg123
VC6E2EE
p1339
sbsg161
I0
sg162
V<a href="http://twitter.com" rel="nofollow">Twitter Web Client</a>
p1340
sg164
(lp1341
sg122
I544188771806101504
sbag3
(g4
g5
Ntp1342
Rp1343
(dp1344
g9
I0
sg10
Nsg11
Nsg12
(lp1345
g3
(g14
g5
Ntp1346
Rp1347
(dp1348
g18
VKFHunt
p1349
sbasg20
I00
sg21
Nsg22
Nsg23
(lp1350
(dp1351
Vsource_user_id
p1352
I436652553
sVsource_status_id_str
p1353
V544188076310806528
p1354
sVexpanded_url
p1355
Vhttp://twitter.com/Rajendra9Prasad/status/544188076310806528/photo/1
p1356
sVdisplay_url
p1357
Vpic.twitter.com/jchUj2qIfL
p1358
sVurl
p1359
Vhttp://t.co/jchUj2qIfL
p1360
sVmedia_url_https
p1361
Vhttps://pbs.twimg.com/media/B41YK7VCQAA6t2g.png
p1362
sVsource_user_id_str
p1363
V436652553
p1364
sVsource_status_id
p1365
I544188076310806528
sVid_str
p1366
V544188074729553920
p1367
sVsizes
p1368
(dp1369
Vsmall
p1370
(dp1371
Vh
p1372
I482
sVresize
p1373
Vfit
p1374
sVw
p1375
I340
ssVlarge
p1376
(dp1377
Vh
p1378
I599
sVresize
p1379
Vfit
p1380
sVw
p1381
I422
ssVmedium
p1382
(dp1383
Vh
p1384
I599
sVresize
p1385
Vfit
p1386
sVw
p1387
I422
ssVthumb
p1388
(dp1389
Vh
p1390
I150
sVresize
p1391
Vcrop
p1392
sVw
p1393
I150
sssVindices
p1394
(lp1395
I111
aI133
asVtype
p1396
Vphoto
p1397
sVid
p1398
I544188074729553920
sVmedia_url
p1399
Vhttp://pbs.twimg.com/media/B41YK7VCQAA6t2g.png
p1400
sasg75
Nsg76
Nsg77
Nsg78
VSun Dec 14 17:54:44 +0000 2014
p1401
sg80
Nsg81
I00
sg82
Vndtvgoodtimes
p1402
sg84
Nsg85
I38412590
sg86
Nsg87
I00
sg88
Nsg89
(lp1403
g3
(g91
g5
Ntp1404
Rp1405
(dp1406
g10
Nsg95
Nsg96
Nsg97
Nsg98
Nsg99
Nsg78
Nsg100
Nsg101
Nsg102
Nsg103
Nsg104
Nsg105
Nsg106
Nsg107
Nsg108
Nsg109
Nsg110
Nsg111
Nsg112
Nsg113
Nsg114
Nsg115
Vndtvgoodtimes
p1407
sg117
Nsg118
VNDTV Good Times
p1408
sg120
Nsg121
Nsg122
I38412590
sg123
Nsbag3
(g91
g5
Ntp1409
Rp1410
(dp1411
g10
Nsg95
Nsg96
Nsg97
Nsg98
Nsg99
Nsg78
Nsg100
Nsg101
Nsg102
Nsg103
Nsg104
Nsg105
Nsg106
Nsg107
Nsg108
Nsg109
Nsg110
Nsg111
Nsg112
Nsg113
Nsg114
Nsg115
Vlovecolorbar
p1412
sg117
Nsg118
VColorBar Cosmetics
p1413
sg120
Nsg121
Nsg122
I135629397
sg123
Nsbag3
(g91
g5
Ntp1414
Rp1415
(dp1416
g10
Nsg95
Nsg96
Nsg97
Nsg98
Nsg99
Nsg78
Nsg100
Nsg101
Nsg102
Nsg103
Nsg104
Nsg105
Nsg106
Nsg107
Nsg108
Nsg109
Nsg110
Nsg111
Nsg112
Nsg113
Nsg114
Nsg115
VPanasonic_mob
p1417
sg117
Nsg118
VPanasonic Mobiles
p1418
sg120
Nsg121
Nsg122
I2904256754
sg123
Nsbasg134
Nsg135
V544188755817410560
p1419
sg137
Nsg138
V@ndtvgoodtimes @lovecolorbar @Panasonic_mob  #KFHunt \u000aA1) limeroad,A2) amrita,A3) Atul Kasbekar, Model- Mehnaz http://t.co/jchUj2qIfL 12
p1420
sg140
I00
sg141
Vet
p1421
sg143
g3
(g91
g5
Ntp1422
Rp1423
(dp1424
g10
VSUper 
p1425
sg95
V663B12
p1426
sg96
Ven
p1427
sg97
VNew Delhi
p1428
sg98
I384
sg99
I103554
sg78
VWed Dec 14 11:54:58 +0000 2011
p1429
sg100
I00
sg101
g152
sg102
Vhttps://pbs.twimg.com/profile_images/378800000665499222/9abcdeb5ede71b2127ae77df46e06ba6_normal.png
p1430
sg103
I756
sg104
I13311
sg105
I19800
sg106
Nsg107
I00
sg108
Vhttps://pbs.twimg.com/profile_banners/436652553/1417338198
p1431
sg109
I00
sg110
I00
sg111
V1F98C7
p1432
sg112
I01
sg113
I00
sg114
Vhttp://abs.twimg.com/images/themes/theme2/bg.gif
p1433
sg115
VRajendra9Prasad
p1434
sg117
I2
sg118
VRajendra9Prasad
p1435
sg120
VDAECF4
p1436
sg121
Nsg122
I436652553
sg123
VC6E2EE
p1437
sbsg161
I0
sg162
V<a href="http://twitter.com" rel="nofollow">Twitter Web Client</a>
p1438
sg164
(lp1439
sg122
I544188755817410560
sbag3
(g4
g5
Ntp1440
Rp1441
(dp1442
g9
I0
sg10
Nsg11
Nsg12
(lp1443
g3
(g14
g5
Ntp1444
Rp1445
(dp1446
g18
VKFHunt
p1447
sbasg20
I00
sg21
Nsg22
Nsg23
(lp1448
(dp1449
Vsource_user_id
p1450
I436652553
sVsource_status_id_str
p1451
V544188076310806528
p1452
sVexpanded_url
p1453
Vhttp://twitter.com/Rajendra9Prasad/status/544188076310806528/photo/1
p1454
sVdisplay_url
p1455
Vpic.twitter.com/jchUj2qIfL
p1456
sVurl
p1457
Vhttp://t.co/jchUj2qIfL
p1458
sVmedia_url_https
p1459
Vhttps://pbs.twimg.com/media/B41YK7VCQAA6t2g.png
p1460
sVsource_user_id_str
p1461
V436652553
p1462
sVsource_status_id
p1463
I544188076310806528
sVid_str
p1464
V544188074729553920
p1465
sVsizes
p1466
(dp1467
Vsmall
p1468
(dp1469
Vh
p1470
I482
sVresize
p1471
Vfit
p1472
sVw
p1473
I340
ssVlarge
p1474
(dp1475
Vh
p1476
I599
sVresize
p1477
Vfit
p1478
sVw
p1479
I422
ssVmedium
p1480
(dp1481
Vh
p1482
I599
sVresize
p1483
Vfit
p1484
sVw
p1485
I422
ssVthumb
p1486
(dp1487
Vh
p1488
I150
sVresize
p1489
Vcrop
p1490
sVw
p1491
I150
sssVindices
p1492
(lp1493
I111
aI133
asVtype
p1494
Vphoto
p1495
sVid
p1496
I544188074729553920
sVmedia_url
p1497
Vhttp://pbs.twimg.com/media/B41YK7VCQAA6t2g.png
p1498
sasg75
Nsg76
Nsg77
Nsg78
VSun Dec 14 17:53:52 +0000 2014
p1499
sg80
Nsg81
I00
sg82
Vndtvgoodtimes
p1500
sg84
Nsg85
I38412590
sg86
Nsg87
I00
sg88
Nsg89
(lp1501
g3
(g91
g5
Ntp1502
Rp1503
(dp1504
g10
Nsg95
Nsg96
Nsg97
Nsg98
Nsg99
Nsg78
Nsg100
Nsg101
Nsg102
Nsg103
Nsg104
Nsg105
Nsg106
Nsg107
Nsg108
Nsg109
Nsg110
Nsg111
Nsg112
Nsg113
Nsg114
Nsg115
Vndtvgoodtimes
p1505
sg117
Nsg118
VNDTV Good Times
p1506
sg120
Nsg121
Nsg122
I38412590
sg123
Nsbag3
(g91
g5
Ntp1507
Rp1508
(dp1509
g10
Nsg95
Nsg96
Nsg97
Nsg98
Nsg99
Nsg78
Nsg100
Nsg101
Nsg102
Nsg103
Nsg104
Nsg105
Nsg106
Nsg107
Nsg108
Nsg109
Nsg110
Nsg111
Nsg112
Nsg113
Nsg114
Nsg115
Vlovecolorbar
p1510
sg117
Nsg118
VColorBar Cosmetics
p1511
sg120
Nsg121
Nsg122
I135629397
sg123
Nsbag3
(g91
g5
Ntp1512
Rp1513
(dp1514
g10
Nsg95
Nsg96
Nsg97
Nsg98
Nsg99
Nsg78
Nsg100
Nsg101
Nsg102
Nsg103
Nsg104
Nsg105
Nsg106
Nsg107
Nsg108
Nsg109
Nsg110
Nsg111
Nsg112
Nsg113
Nsg114
Nsg115
VPanasonic_mob
p1515
sg117
Nsg118
VPanasonic Mobiles
p1516
sg120
Nsg121
Nsg122
I2904256754
sg123
Nsbasg134
Nsg135
V544188535314468865
p1517
sg137
I544182796646760448
sg138
V@ndtvgoodtimes @lovecolorbar @Panasonic_mob  #KFHunt \u000aA1) limeroad,A2) amrita,A3) Atul Kasbekar, Model- Mehnaz http://t.co/jchUj2qIfL 11
p1518
sg140
I00
sg141
Vet
p1519
sg143
g3
(g91
g5
Ntp1520
Rp1521
(dp1522
g10
VSUper 
p1523
sg95
V663B12
p1524
sg96
Ven
p1525
sg97
VNew Delhi
p1526
sg98
I384
sg99
I103554
sg78
VWed Dec 14 11:54:58 +0000 2011
p1527
sg100
I00
sg101
g152
sg102
Vhttps://pbs.twimg.com/profile_images/378800000665499222/9abcdeb5ede71b2127ae77df46e06ba6_normal.png
p1528
sg103
I756
sg104
I13311
sg105
I19800
sg106
Nsg107
I00
sg108
Vhttps://pbs.twimg.com/profile_banners/436652553/1417338198
p1529
sg109
I00
sg110
I00
sg111
V1F98C7
p1530
sg112
I01
sg113
I00
sg114
Vhttp://abs.twimg.com/images/themes/theme2/bg.gif
p1531
sg115
VRajendra9Prasad
p1532
sg117
I2
sg118
VRajendra9Prasad
p1533
sg120
VDAECF4
p1534
sg121
Nsg122
I436652553
sg123
VC6E2EE
p1535
sbsg161
I0
sg162
V<a href="http://twitter.com" rel="nofollow">Twitter Web Client</a>
p1536
sg164
(lp1537
sg122
I544188535314468865
sbag3
(g4
g5
Ntp1538
Rp1539
(dp1540
g9
I0
sg10
Nsg11
Nsg12
(lp1541
g3
(g14
g5
Ntp1542
Rp1543
(dp1544
g18
VKFHunt
p1545
sbasg20
I00
sg21
Nsg22
Nsg23
(lp1546
(dp1547
Vsource_user_id
p1548
I436652553
sVsource_status_id_str
p1549
V544188076310806528
p1550
sVexpanded_url
p1551
Vhttp://twitter.com/Rajendra9Prasad/status/544188076310806528/photo/1
p1552
sVdisplay_url
p1553
Vpic.twitter.com/jchUj2qIfL
p1554
sVurl
p1555
Vhttp://t.co/jchUj2qIfL
p1556
sVmedia_url_https
p1557
Vhttps://pbs.twimg.com/media/B41YK7VCQAA6t2g.png
p1558
sVsource_user_id_str
p1559
V436652553
p1560
sVsource_status_id
p1561
I544188076310806528
sVid_str
p1562
V544188074729553920
p1563
sVsizes
p1564
(dp1565
Vsmall
p1566
(dp1567
Vh
p1568
I482
sVresize
p1569
Vfit
p1570
sVw
p1571
I340
ssVlarge
p1572
(dp1573
Vh
p1574
I599
sVresize
p1575
Vfit
p1576
sVw
p1577
I422
ssVmedium
p1578
(dp1579
Vh
p1580
I599
sVresize
p1581
Vfit
p1582
sVw
p1583
I422
ssVthumb
p1584
(dp1585
Vh
p1586
I150
sVresize
p1587
Vcrop
p1588
sVw
p1589
I150
sssVindices
p1590
(lp1591
I111
aI133
asVtype
p1592
Vphoto
p1593
sVid
p1594
I544188074729553920
sVmedia_url
p1595
Vhttp://pbs.twimg.com/media/B41YK7VCQAA6t2g.png
p1596
sasg75
Nsg76
Nsg77
Nsg78
VSun Dec 14 17:53:40 +0000 2014
p1597
sg80
Nsg81
I00
sg82
Vndtvgoodtimes
p1598
sg84
Nsg85
I38412590
sg86
Nsg87
I00
sg88
Nsg89
(lp1599
g3
(g91
g5
Ntp1600
Rp1601
(dp1602
g10
Nsg95
Nsg96
Nsg97
Nsg98
Nsg99
Nsg78
Nsg100
Nsg101
Nsg102
Nsg103
Nsg104
Nsg105
Nsg106
Nsg107
Nsg108
Nsg109
Nsg110
Nsg111
Nsg112
Nsg113
Nsg114
Nsg115
Vndtvgoodtimes
p1603
sg117
Nsg118
VNDTV Good Times
p1604
sg120
Nsg121
Nsg122
I38412590
sg123
Nsbag3
(g91
g5
Ntp1605
Rp1606
(dp1607
g10
Nsg95
Nsg96
Nsg97
Nsg98
Nsg99
Nsg78
Nsg100
Nsg101
Nsg102
Nsg103
Nsg104
Nsg105
Nsg106
Nsg107
Nsg108
Nsg109
Nsg110
Nsg111
Nsg112
Nsg113
Nsg114
Nsg115
Vlovecolorbar
p1608
sg117
Nsg118
VColorBar Cosmetics
p1609
sg120
Nsg121
Nsg122
I135629397
sg123
Nsbag3
(g91
g5
Ntp1610
Rp1611
(dp1612
g10
Nsg95
Nsg96
Nsg97
Nsg98
Nsg99
Nsg78
Nsg100
Nsg101
Nsg102
Nsg103
Nsg104
Nsg105
Nsg106
Nsg107
Nsg108
Nsg109
Nsg110
Nsg111
Nsg112
Nsg113
Nsg114
Nsg115
VPanasonic_mob
p1613
sg117
Nsg118
VPanasonic Mobiles
p1614
sg120
Nsg121
Nsg122
I2904256754
sg123
Nsbasg134
Nsg135
V544188488799641600
p1615
sg137
I544182796646760448
sg138
V@ndtvgoodtimes @lovecolorbar @Panasonic_mob  #KFHunt \u000aA1) limeroad,A2) amrita,A3) Atul Kasbekar, Model- Mehnaz http://t.co/jchUj2qIfL 10
p1616
sg140
I00
sg141
Vet
p1617
sg143
g3
(g91
g5
Ntp1618
Rp1619
(dp1620
g10
VSUper 
p1621
sg95
V663B12
p1622
sg96
Ven
p1623
sg97
VNew Delhi
p1624
sg98
I384
sg99
I103554
sg78
VWed Dec 14 11:54:58 +0000 2011
p1625
sg100
I00
sg101
g152
sg102
Vhttps://pbs.twimg.com/profile_images/378800000665499222/9abcdeb5ede71b2127ae77df46e06ba6_normal.png
p1626
sg103
I756
sg104
I13311
sg105
I19800
sg106
Nsg107
I00
sg108
Vhttps://pbs.twimg.com/profile_banners/436652553/1417338198
p1627
sg109
I00
sg110
I00
sg111
V1F98C7
p1628
sg112
I01
sg113
I00
sg114
Vhttp://abs.twimg.com/images/themes/theme2/bg.gif
p1629
sg115
VRajendra9Prasad
p1630
sg117
I2
sg118
VRajendra9Prasad
p1631
sg120
VDAECF4
p1632
sg121
Nsg122
I436652553
sg123
VC6E2EE
p1633
sbsg161
I0
sg162
V<a href="http://twitter.com" rel="nofollow">Twitter Web Client</a>
p1634
sg164
(lp1635
sg122
I544188488799641600
sbag3
(g4
g5
Ntp1636
Rp1637
(dp1638
g9
I0
sg10
Nsg11
Nsg12
(lp1639
g3
(g14
g5
Ntp1640
Rp1641
(dp1642
g18
VKFHunt
p1643
sbasg20
I00
sg21
Nsg22
Nsg23
(lp1644
(dp1645
Vsource_user_id
p1646
I436652553
sVsource_status_id_str
p1647
V544188076310806528
p1648
sVexpanded_url
p1649
Vhttp://twitter.com/Rajendra9Prasad/status/544188076310806528/photo/1
p1650
sVdisplay_url
p1651
Vpic.twitter.com/jchUj2qIfL
p1652
sVurl
p1653
Vhttp://t.co/jchUj2qIfL
p1654
sVmedia_url_https
p1655
Vhttps://pbs.twimg.com/media/B41YK7VCQAA6t2g.png
p1656
sVsource_user_id_str
p1657
V436652553
p1658
sVsource_status_id
p1659
I544188076310806528
sVid_str
p1660
V544188074729553920
p1661
sVsizes
p1662
(dp1663
Vsmall
p1664
(dp1665
Vh
p1666
I482
sVresize
p1667
Vfit
p1668
sVw
p1669
I340
ssVlarge
p1670
(dp1671
Vh
p1672
I599
sVresize
p1673
Vfit
p1674
sVw
p1675
I422
ssVmedium
p1676
(dp1677
Vh
p1678
I599
sVresize
p1679
Vfit
p1680
sVw
p1681
I422
ssVthumb
p1682
(dp1683
Vh
p1684
I150
sVresize
p1685
Vcrop
p1686
sVw
p1687
I150
sssVindices
p1688
(lp1689
I111
aI133
asVtype
p1690
Vphoto
p1691
sVid
p1692
I544188074729553920
sVmedia_url
p1693
Vhttp://pbs.twimg.com/media/B41YK7VCQAA6t2g.png
p1694
sasg75
Nsg76
Nsg77
Nsg78
VSun Dec 14 17:53:35 +0000 2014
p1695
sg80
Nsg81
I00
sg82
Vndtvgoodtimes
p1696
sg84
Nsg85
I38412590
sg86
Nsg87
I00
sg88
Nsg89
(lp1697
g3
(g91
g5
Ntp1698
Rp1699
(dp1700
g10
Nsg95
Nsg96
Nsg97
Nsg98
Nsg99
Nsg78
Nsg100
Nsg101
Nsg102
Nsg103
Nsg104
Nsg105
Nsg106
Nsg107
Nsg108
Nsg109
Nsg110
Nsg111
Nsg112
Nsg113
Nsg114
Nsg115
Vndtvgoodtimes
p1701
sg117
Nsg118
VNDTV Good Times
p1702
sg120
Nsg121
Nsg122
I38412590
sg123
Nsbag3
(g91
g5
Ntp1703
Rp1704
(dp1705
g10
Nsg95
Nsg96
Nsg97
Nsg98
Nsg99
Nsg78
Nsg100
Nsg101
Nsg102
Nsg103
Nsg104
Nsg105
Nsg106
Nsg107
Nsg108
Nsg109
Nsg110
Nsg111
Nsg112
Nsg113
Nsg114
Nsg115
Vlovecolorbar
p1706
sg117
Nsg118
VColorBar Cosmetics
p1707
sg120
Nsg121
Nsg122
I135629397
sg123
Nsbag3
(g91
g5
Ntp1708
Rp1709
(dp1710
g10
Nsg95
Nsg96
Nsg97
Nsg98
Nsg99
Nsg78
Nsg100
Nsg101
Nsg102
Nsg103
Nsg104
Nsg105
Nsg106
Nsg107
Nsg108
Nsg109
Nsg110
Nsg111
Nsg112
Nsg113
Nsg114
Nsg115
VPanasonic_mob
p1711
sg117
Nsg118
VPanasonic Mobiles
p1712
sg120
Nsg121
Nsg122
I2904256754
sg123
Nsbasg134
Nsg135
V544188464288104448
p1713
sg137
I544182796646760448
sg138
V@ndtvgoodtimes @lovecolorbar @Panasonic_mob  #KFHunt \u000aA1) limeroad,A2) amrita,A3) Atul Kasbekar, Model- Mehnaz http://t.co/jchUj2qIfL 9
p1714
sg140
I00
sg141
Vet
p1715
sg143
g3
(g91
g5
Ntp1716
Rp1717
(dp1718
g10
VSUper 
p1719
sg95
V663B12
p1720
sg96
Ven
p1721
sg97
VNew Delhi
p1722
sg98
I384
sg99
I103554
sg78
VWed Dec 14 11:54:58 +0000 2011
p1723
sg100
I00
sg101
g152
sg102
Vhttps://pbs.twimg.com/profile_images/378800000665499222/9abcdeb5ede71b2127ae77df46e06ba6_normal.png
p1724
sg103
I756
sg104
I13311
sg105
I19800
sg106
Nsg107
I00
sg108
Vhttps://pbs.twimg.com/profile_banners/436652553/1417338198
p1725
sg109
I00
sg110
I00
sg111
V1F98C7
p1726
sg112
I01
sg113
I00
sg114
Vhttp://abs.twimg.com/images/themes/theme2/bg.gif
p1727
sg115
VRajendra9Prasad
p1728
sg117
I2
sg118
VRajendra9Prasad
p1729
sg120
VDAECF4
p1730
sg121
Nsg122
I436652553
sg123
VC6E2EE
p1731
sbsg161
I0
sg162
V<a href="http://twitter.com" rel="nofollow">Twitter Web Client</a>
p1732
sg164
(lp1733
sg122
I544188464288104448
sbag3
(g4
g5
Ntp1734
Rp1735
(dp1736
g9
I0
sg10
Nsg11
Nsg12
(lp1737
g3
(g14
g5
Ntp1738
Rp1739
(dp1740
g18
VKFHunt
p1741
sbasg20
I00
sg21
Nsg22
Nsg23
(lp1742
(dp1743
Vsource_user_id
p1744
I436652553
sVsource_status_id_str
p1745
V544188076310806528
p1746
sVexpanded_url
p1747
Vhttp://twitter.com/Rajendra9Prasad/status/544188076310806528/photo/1
p1748
sVdisplay_url
p1749
Vpic.twitter.com/jchUj2qIfL
p1750
sVurl
p1751
Vhttp://t.co/jchUj2qIfL
p1752
sVmedia_url_https
p1753
Vhttps://pbs.twimg.com/media/B41YK7VCQAA6t2g.png
p1754
sVsource_user_id_str
p1755
V436652553
p1756
sVsource_status_id
p1757
I544188076310806528
sVid_str
p1758
V544188074729553920
p1759
sVsizes
p1760
(dp1761
Vsmall
p1762
(dp1763
Vh
p1764
I482
sVresize
p1765
Vfit
p1766
sVw
p1767
I340
ssVlarge
p1768
(dp1769
Vh
p1770
I599
sVresize
p1771
Vfit
p1772
sVw
p1773
I422
ssVmedium
p1774
(dp1775
Vh
p1776
I599
sVresize
p1777
Vfit
p1778
sVw
p1779
I422
ssVthumb
p1780
(dp1781
Vh
p1782
I150
sVresize
p1783
Vcrop
p1784
sVw
p1785
I150
sssVindices
p1786
(lp1787
I111
aI133
asVtype
p1788
Vphoto
p1789
sVid
p1790
I544188074729553920
sVmedia_url
p1791
Vhttp://pbs.twimg.com/media/B41YK7VCQAA6t2g.png
p1792
sasg75
Nsg76
Nsg77
Nsg78
VSun Dec 14 17:53:31 +0000 2014
p1793
sg80
Nsg81
I00
sg82
Vndtvgoodtimes
p1794
sg84
Nsg85
I38412590
sg86
Nsg87
I00
sg88
Nsg89
(lp1795
g3
(g91
g5
Ntp1796
Rp1797
(dp1798
g10
Nsg95
Nsg96
Nsg97
Nsg98
Nsg99
Nsg78
Nsg100
Nsg101
Nsg102
Nsg103
Nsg104
Nsg105
Nsg106
Nsg107
Nsg108
Nsg109
Nsg110
Nsg111
Nsg112
Nsg113
Nsg114
Nsg115
Vndtvgoodtimes
p1799
sg117
Nsg118
VNDTV Good Times
p1800
sg120
Nsg121
Nsg122
I38412590
sg123
Nsbag3
(g91
g5
Ntp1801
Rp1802
(dp1803
g10
Nsg95
Nsg96
Nsg97
Nsg98
Nsg99
Nsg78
Nsg100
Nsg101
Nsg102
Nsg103
Nsg104
Nsg105
Nsg106
Nsg107
Nsg108
Nsg109
Nsg110
Nsg111
Nsg112
Nsg113
Nsg114
Nsg115
Vlovecolorbar
p1804
sg117
Nsg118
VColorBar Cosmetics
p1805
sg120
Nsg121
Nsg122
I135629397
sg123
Nsbag3
(g91
g5
Ntp1806
Rp1807
(dp1808
g10
Nsg95
Nsg96
Nsg97
Nsg98
Nsg99
Nsg78
Nsg100
Nsg101
Nsg102
Nsg103
Nsg104
Nsg105
Nsg106
Nsg107
Nsg108
Nsg109
Nsg110
Nsg111
Nsg112
Nsg113
Nsg114
Nsg115
VPanasonic_mob
p1809
sg117
Nsg118
VPanasonic Mobiles
p1810
sg120
Nsg121
Nsg122
I2904256754
sg123
Nsbasg134
Nsg135
V544188450715344898
p1811
sg137
I544182796646760448
sg138
V@ndtvgoodtimes @lovecolorbar @Panasonic_mob  #KFHunt \u000aA1) limeroad,A2) amrita,A3) Atul Kasbekar, Model- Mehnaz http://t.co/jchUj2qIfL 8
p1812
sg140
I00
sg141
Vet
p1813
sg143
g3
(g91
g5
Ntp1814
Rp1815
(dp1816
g10
VSUper 
p1817
sg95
V663B12
p1818
sg96
Ven
p1819
sg97
VNew Delhi
p1820
sg98
I384
sg99
I103554
sg78
VWed Dec 14 11:54:58 +0000 2011
p1821
sg100
I00
sg101
g152
sg102
Vhttps://pbs.twimg.com/profile_images/378800000665499222/9abcdeb5ede71b2127ae77df46e06ba6_normal.png
p1822
sg103
I756
sg104
I13311
sg105
I19800
sg106
Nsg107
I00
sg108
Vhttps://pbs.twimg.com/profile_banners/436652553/1417338198
p1823
sg109
I00
sg110
I00
sg111
V1F98C7
p1824
sg112
I01
sg113
I00
sg114
Vhttp://abs.twimg.com/images/themes/theme2/bg.gif
p1825
sg115
VRajendra9Prasad
p1826
sg117
I2
sg118
VRajendra9Prasad
p1827
sg120
VDAECF4
p1828
sg121
Nsg122
I436652553
sg123
VC6E2EE
p1829
sbsg161
I0
sg162
V<a href="http://twitter.com" rel="nofollow">Twitter Web Client</a>
p1830
sg164
(lp1831
sg122
I544188450715344898
sbag3
(g4
g5
Ntp1832
Rp1833
(dp1834
g9
I0
sg10
Nsg11
Nsg12
(lp1835
g3
(g14
g5
Ntp1836
Rp1837
(dp1838
g18
VKFHunt
p1839
sbasg20
I00
sg21
Nsg22
Nsg23
(lp1840
(dp1841
Vsource_user_id
p1842
I436652553
sVsource_status_id_str
p1843
V544188076310806528
p1844
sVexpanded_url
p1845
Vhttp://twitter.com/Rajendra9Prasad/status/544188076310806528/photo/1
p1846
sVdisplay_url
p1847
Vpic.twitter.com/jchUj2qIfL
p1848
sVurl
p1849
Vhttp://t.co/jchUj2qIfL
p1850
sVmedia_url_https
p1851
Vhttps://pbs.twimg.com/media/B41YK7VCQAA6t2g.png
p1852
sVsource_user_id_str
p1853
V436652553
p1854
sVsource_status_id
p1855
I544188076310806528
sVid_str
p1856
V544188074729553920
p1857
sVsizes
p1858
(dp1859
Vsmall
p1860
(dp1861
Vh
p1862
I482
sVresize
p1863
Vfit
p1864
sVw
p1865
I340
ssVlarge
p1866
(dp1867
Vh
p1868
I599
sVresize
p1869
Vfit
p1870
sVw
p1871
I422
ssVmedium
p1872
(dp1873
Vh
p1874
I599
sVresize
p1875
Vfit
p1876
sVw
p1877
I422
ssVthumb
p1878
(dp1879
Vh
p1880
I150
sVresize
p1881
Vcrop
p1882
sVw
p1883
I150
sssVindices
p1884
(lp1885
I111
aI133
asVtype
p1886
Vphoto
p1887
sVid
p1888
I544188074729553920
sVmedia_url
p1889
Vhttp://pbs.twimg.com/media/B41YK7VCQAA6t2g.png
p1890
sasg75
Nsg76
Nsg77
Nsg78
VSun Dec 14 17:53:28 +0000 2014
p1891
sg80
Nsg81
I00
sg82
Vndtvgoodtimes
p1892
sg84
Nsg85
I38412590
sg86
Nsg87
I00
sg88
Nsg89
(lp1893
g3
(g91
g5
Ntp1894
Rp1895
(dp1896
g10
Nsg95
Nsg96
Nsg97
Nsg98
Nsg99
Nsg78
Nsg100
Nsg101
Nsg102
Nsg103
Nsg104
Nsg105
Nsg106
Nsg107
Nsg108
Nsg109
Nsg110
Nsg111
Nsg112
Nsg113
Nsg114
Nsg115
Vndtvgoodtimes
p1897
sg117
Nsg118
VNDTV Good Times
p1898
sg120
Nsg121
Nsg122
I38412590
sg123
Nsbag3
(g91
g5
Ntp1899
Rp1900
(dp1901
g10
Nsg95
Nsg96
Nsg97
Nsg98
Nsg99
Nsg78
Nsg100
Nsg101
Nsg102
Nsg103
Nsg104
Nsg105
Nsg106
Nsg107
Nsg108
Nsg109
Nsg110
Nsg111
Nsg112
Nsg113
Nsg114
Nsg115
Vlovecolorbar
p1902
sg117
Nsg118
VColorBar Cosmetics
p1903
sg120
Nsg121
Nsg122
I135629397
sg123
Nsbag3
(g91
g5
Ntp1904
Rp1905
(dp1906
g10
Nsg95
Nsg96
Nsg97
Nsg98
Nsg99
Nsg78
Nsg100
Nsg101
Nsg102
Nsg103
Nsg104
Nsg105
Nsg106
Nsg107
Nsg108
Nsg109
Nsg110
Nsg111
Nsg112
Nsg113
Nsg114
Nsg115
VPanasonic_mob
p1907
sg117
Nsg118
VPanasonic Mobiles
p1908
sg120
Nsg121
Nsg122
I2904256754
sg123
Nsbasg134
Nsg135
V544188437008355328
p1909
sg137
I544182796646760448
sg138
V@ndtvgoodtimes @lovecolorbar @Panasonic_mob  #KFHunt \u000aA1) limeroad,A2) amrita,A3) Atul Kasbekar, Model- Mehnaz http://t.co/jchUj2qIfL 7
p1910
sg140
I00
sg141
Vet
p1911
sg143
g3
(g91
g5
Ntp1912
Rp1913
(dp1914
g10
VSUper 
p1915
sg95
V663B12
p1916
sg96
Ven
p1917
sg97
VNew Delhi
p1918
sg98
I384
sg99
I103554
sg78
VWed Dec 14 11:54:58 +0000 2011
p1919
sg100
I00
sg101
g152
sg102
Vhttps://pbs.twimg.com/profile_images/378800000665499222/9abcdeb5ede71b2127ae77df46e06ba6_normal.png
p1920
sg103
I756
sg104
I13311
sg105
I19800
sg106
Nsg107
I00
sg108
Vhttps://pbs.twimg.com/profile_banners/436652553/1417338198
p1921
sg109
I00
sg110
I00
sg111
V1F98C7
p1922
sg112
I01
sg113
I00
sg114
Vhttp://abs.twimg.com/images/themes/theme2/bg.gif
p1923
sg115
VRajendra9Prasad
p1924
sg117
I2
sg118
VRajendra9Prasad
p1925
sg120
VDAECF4
p1926
sg121
Nsg122
I436652553
sg123
VC6E2EE
p1927
sbsg161
I0
sg162
V<a href="http://twitter.com" rel="nofollow">Twitter Web Client</a>
p1928
sg164
(lp1929
sg122
I544188437008355328
sbag3
(g4
g5
Ntp1930
Rp1931
(dp1932
g9
I0
sg10
Nsg11
Nsg12
(lp1933
g3
(g14
g5
Ntp1934
Rp1935
(dp1936
g18
VKFHunt
p1937
sbasg20
I00
sg21
Nsg22
Nsg23
(lp1938
(dp1939
Vsource_user_id
p1940
I436652553
sVsource_status_id_str
p1941
V544188076310806528
p1942
sVexpanded_url
p1943
Vhttp://twitter.com/Rajendra9Prasad/status/544188076310806528/photo/1
p1944
sVdisplay_url
p1945
Vpic.twitter.com/jchUj2qIfL
p1946
sVurl
p1947
Vhttp://t.co/jchUj2qIfL
p1948
sVmedia_url_https
p1949
Vhttps://pbs.twimg.com/media/B41YK7VCQAA6t2g.png
p1950
sVsource_user_id_str
p1951
V436652553
p1952
sVsource_status_id
p1953
I544188076310806528
sVid_str
p1954
V544188074729553920
p1955
sVsizes
p1956
(dp1957
Vsmall
p1958
(dp1959
Vh
p1960
I482
sVresize
p1961
Vfit
p1962
sVw
p1963
I340
ssVlarge
p1964
(dp1965
Vh
p1966
I599
sVresize
p1967
Vfit
p1968
sVw
p1969
I422
ssVmedium
p1970
(dp1971
Vh
p1972
I599
sVresize
p1973
Vfit
p1974
sVw
p1975
I422
ssVthumb
p1976
(dp1977
Vh
p1978
I150
sVresize
p1979
Vcrop
p1980
sVw
p1981
I150
sssVindices
p1982
(lp1983
I111
aI133
asVtype
p1984
Vphoto
p1985
sVid
p1986
I544188074729553920
sVmedia_url
p1987
Vhttp://pbs.twimg.com/media/B41YK7VCQAA6t2g.png
p1988
sasg75
Nsg76
Nsg77
Nsg78
VSun Dec 14 17:53:24 +0000 2014
p1989
sg80
Nsg81
I00
sg82
Vndtvgoodtimes
p1990
sg84
Nsg85
I38412590
sg86
Nsg87
I00
sg88
Nsg89
(lp1991
g3
(g91
g5
Ntp1992
Rp1993
(dp1994
g10
Nsg95
Nsg96
Nsg97
Nsg98
Nsg99
Nsg78
Nsg100
Nsg101
Nsg102
Nsg103
Nsg104
Nsg105
Nsg106
Nsg107
Nsg108
Nsg109
Nsg110
Nsg111
Nsg112
Nsg113
Nsg114
Nsg115
Vndtvgoodtimes
p1995
sg117
Nsg118
VNDTV Good Times
p1996
sg120
Nsg121
Nsg122
I38412590
sg123
Nsbag3
(g91
g5
Ntp1997
Rp1998
(dp1999
g10
Nsg95
Nsg96
Nsg97
Nsg98
Nsg99
Nsg78
Nsg100
Nsg101
Nsg102
Nsg103
Nsg104
Nsg105
Nsg106
Nsg107
Nsg108
Nsg109
Nsg110
Nsg111
Nsg112
Nsg113
Nsg114
Nsg115
Vlovecolorbar
p2000
sg117
Nsg118
VColorBar Cosmetics
p2001
sg120
Nsg121
Nsg122
I135629397
sg123
Nsbag3
(g91
g5
Ntp2002
Rp2003
(dp2004
g10
Nsg95
Nsg96
Nsg97
Nsg98
Nsg99
Nsg78
Nsg100
Nsg101
Nsg102
Nsg103
Nsg104
Nsg105
Nsg106
Nsg107
Nsg108
Nsg109
Nsg110
Nsg111
Nsg112
Nsg113
Nsg114
Nsg115
VPanasonic_mob
p2005
sg117
Nsg118
VPanasonic Mobiles
p2006
sg120
Nsg121
Nsg122
I2904256754
sg123
Nsbasg134
Nsg135
V544188420315045888
p2007
sg137
I544182796646760448
sg138
V@ndtvgoodtimes @lovecolorbar @Panasonic_mob  #KFHunt \u000aA1) limeroad,A2) amrita,A3) Atul Kasbekar, Model- Mehnaz http://t.co/jchUj2qIfL 6
p2008
sg140
I00
sg141
Vet
p2009
sg143
g3
(g91
g5
Ntp2010
Rp2011
(dp2012
g10
VSUper 
p2013
sg95
V663B12
p2014
sg96
Ven
p2015
sg97
VNew Delhi
p2016
sg98
I384
sg99
I103554
sg78
VWed Dec 14 11:54:58 +0000 2011
p2017
sg100
I00
sg101
g152
sg102
Vhttps://pbs.twimg.com/profile_images/378800000665499222/9abcdeb5ede71b2127ae77df46e06ba6_normal.png
p2018
sg103
I756
sg104
I13311
sg105
I19800
sg106
Nsg107
I00
sg108
Vhttps://pbs.twimg.com/profile_banners/436652553/1417338198
p2019
sg109
I00
sg110
I00
sg111
V1F98C7
p2020
sg112
I01
sg113
I00
sg114
Vhttp://abs.twimg.com/images/themes/theme2/bg.gif
p2021
sg115
VRajendra9Prasad
p2022
sg117
I2
sg118
VRajendra9Prasad
p2023
sg120
VDAECF4
p2024
sg121
Nsg122
I436652553
sg123
VC6E2EE
p2025
sbsg161
I0
sg162
V<a href="http://twitter.com" rel="nofollow">Twitter Web Client</a>
p2026
sg164
(lp2027
sg122
I544188420315045888
sbaa.