(lp0
S'ErinsPlexus'
p1
a(lp2
ccopy_reg
_reconstructor
p3
(ctwitter
Status
p4
c__builtin__
object
p5
Ntp6
Rp7
(dp8
S'_favorite_count'
p9
I0
sS'_location'
p10
NsS'_withheld_scope'
p11
NsS'hashtags'
p12
(lp13
sS'_truncated'
p14
I00
sS'_retweeted_status'
p15
NsS'_withheld_copyright'
p16
NsS'media'
p17
(lp18
(dp19
Vexpanded_url
p20
Vhttp://twitter.com/ErinsPlexus/status/543788198590423040/photo/1
p21
sVdisplay_url
p22
Vpic.twitter.com/k2pZby5Qsw
p23
sVurl
p24
Vhttp://t.co/k2pZby5Qsw
p25
sVmedia_url_https
p26
Vhttps://pbs.twimg.com/media/B4vsfEBIMAEaOkH.jpg
p27
sVid_str
p28
V543788198426849281
p29
sVsizes
p30
(dp31
Vlarge
p32
(dp33
Vh
p34
I537
sVresize
p35
Vfit
p36
sVw
p37
I1024
ssVsmall
p38
(dp39
Vh
p40
I178
sVresize
p41
Vfit
p42
sVw
p43
I340
ssVmedium
p44
(dp45
Vh
p46
I315
sVresize
p47
Vfit
p48
sVw
p49
I600
ssVthumb
p50
(dp51
Vh
p52
I150
sVresize
p53
Vcrop
p54
sVw
p55
I150
sssVindices
p56
(lp57
I83
aI105
asVtype
p58
Vphoto
p59
sVid
p60
I543788198426849281
sVmedia_url
p61
Vhttp://pbs.twimg.com/media/B4vsfEBIMAEaOkH.jpg
p62
sasS'_place'
p63
NsS'_contributors'
p64
NsS'_current_user_retweet'
p65
NsS'_created_at'
p66
VSat Dec 13 15:23:04 +0000 2014
p67
sS'_scopes'
p68
NsS'_possibly_sensitive'
p69
I00
sS'_in_reply_to_screen_name'
p70
NsS'_coordinates'
p71
NsS'_in_reply_to_user_id'
p72
NsS'_geo'
p73
NsS'_favorited'
p74
I00
sS'_withheld_in_countries'
p75
NsS'user_mentions'
p76
(lp77
sS'_now'
p78
NsS'_id_str'
p79
V543788198590423040
p80
sS'_in_reply_to_status_id'
p81
NsS'_text'
p82
VWouldn't you rather have your morning meeting on the beach? http://t.co/WHTac0yD6x http://t.co/k2pZby5Qsw
p83
sS'_retweeted'
p84
I00
sS'lang'
p85
Ven
p86
sS'_user'
p87
g3
(ctwitter
User
p88
g5
Ntp89
Rp90
(dp91
g10
VBeaver, Utah
p92
sS'_profile_text_color'
p93
V333333
p94
sS'_lang'
p95
Ven
p96
sS'_time_zone'
p97
NsS'_followers_count'
p98
I21
sS'_statuses_count'
p99
I65
sg66
VTue Feb 25 17:41:23 +0000 2014
p100
sS'_verified'
p101
I00
sS'_description'
p102
V
p103
sS'_profile_image_url'
p104
Vhttps://pbs.twimg.com/profile_images/471774627157381120/fayhBRIh_normal.jpeg
p105
sS'_friends_count'
p106
I50
sS'_favourites_count'
p107
I0
sS'_utc_offset'
p108
NsS'_status'
p109
NsS'_protected'
p110
I00
sS'_profile_banner_url'
p111
Vhttps://pbs.twimg.com/profile_banners/2361437551/1401314452
p112
sS'_notifications'
p113
I00
sS'_profile_background_tile'
p114
I00
sS'_profile_link_color'
p115
V0084B4
p116
sS'_geo_enabled'
p117
I00
sS'_contributors_enabled'
p118
I00
sS'_profile_background_image_url'
p119
Vhttp://abs.twimg.com/images/themes/theme16/bg.gif
p120
sS'_screen_name'
p121
VErinsPlexus
p122
sS'_listed_count'
p123
I1
sS'_name'
p124
VErin Tibbetts Austin
p125
sS'_profile_sidebar_fill_color'
p126
VDDFFCC
p127
sS'_url'
p128
Vhttp://t.co/84YguYrLWL
p129
sS'_id'
p130
I2361437551
sS'_profile_background_color'
p131
V9AE4E8
p132
sbsS'_retweet_count'
p133
I0
sS'_source'
p134
V<a href="http://myplexusbuilder.com/" rel="nofollow">My Plexus Builder</a>
p135
sS'urls'
p136
(lp137
g3
(ctwitter
Url
p138
g5
Ntp139
Rp140
(dp141
S'url'
p142
Vhttp://t.co/WHTac0yD6x
p143
sS'expanded_url'
p144
Vhttp://ltl.is/IR3QV
p145
sbasg130
I543788198590423040
sbag3
(g4
g5
Ntp146
Rp147
(dp148
g9
I0
sg10
Nsg11
Nsg12
(lp149
sg14
I00
sg15
Nsg16
Nsg17
(lp150
sg63
Nsg64
Nsg65
Nsg66
VFri Dec 12 14:17:03 +0000 2014
p151
sg68
Nsg69
I00
sg70
Nsg71
Nsg72
Nsg73
Nsg74
I00
sg75
Nsg76
(lp152
sg78
Nsg79
V543409196444946433
p153
sg81
Nsg82
VIf you're looking to lose body fat then changing your diet may not be enough. http://t.co/T67AGP02NM
p154
sg84
I00
sg85
Ven
p155
sg87
g3
(g88
g5
Ntp156
Rp157
(dp158
g10
VBeaver, Utah
p159
sg93
V333333
p160
sg95
Ven
p161
sg97
Nsg98
I21
sg99
I65
sg66
VTue Feb 25 17:41:23 +0000 2014
p162
sg101
I00
sg102
g103
sg104
Vhttps://pbs.twimg.com/profile_images/471774627157381120/fayhBRIh_normal.jpeg
p163
sg106
I50
sg107
I0
sg108
Nsg109
Nsg110
I00
sg111
Vhttps://pbs.twimg.com/profile_banners/2361437551/1401314452
p164
sg113
I00
sg114
I00
sg115
V0084B4
p165
sg117
I00
sg118
I00
sg119
Vhttp://abs.twimg.com/images/themes/theme16/bg.gif
p166
sg121
VErinsPlexus
p167
sg123
I1
sg124
VErin Tibbetts Austin
p168
sg126
VDDFFCC
p169
sg128
Vhttp://t.co/84YguYrLWL
p170
sg130
I2361437551
sg131
V9AE4E8
p171
sbsg133
I0
sg134
V<a href="http://myplexusbuilder.com/" rel="nofollow">My Plexus Builder</a>
p172
sg136
(lp173
g3
(g138
g5
Ntp174
Rp175
(dp176
g142
Vhttp://t.co/T67AGP02NM
p177
sg144
Vhttp://ltl.is/UPG7y
p178
sbasg130
I543409196444946433
sbag3
(g4
g5
Ntp179
Rp180
(dp181
g9
I0
sg10
Nsg11
Nsg12
(lp182
sg14
I00
sg15
Nsg16
Nsg17
(lp183
(dp184
Vexpanded_url
p185
Vhttp://twitter.com/ErinsPlexus/status/543113253078192129/photo/1
p186
sVdisplay_url
p187
Vpic.twitter.com/pPHTcrxWLz
p188
sVurl
p189
Vhttp://t.co/pPHTcrxWLz
p190
sVmedia_url_https
p191
Vhttps://pbs.twimg.com/media/B4mGoETIAAEwC-J.jpg
p192
sVid_str
p193
V543113252981702657
p194
sVsizes
p195
(dp196
Vlarge
p197
(dp198
Vh
p199
I537
sVresize
p200
Vfit
p201
sVw
p202
I1024
ssVsmall
p203
(dp204
Vh
p205
I178
sVresize
p206
Vfit
p207
sVw
p208
I340
ssVmedium
p209
(dp210
Vh
p211
I315
sVresize
p212
Vfit
p213
sVw
p214
I600
ssVthumb
p215
(dp216
Vh
p217
I150
sVresize
p218
Vcrop
p219
sVw
p220
I150
sssVindices
p221
(lp222
I83
aI105
asVtype
p223
Vphoto
p224
sVid
p225
I543113252981702657
sVmedia_url
p226
Vhttp://pbs.twimg.com/media/B4mGoETIAAEwC-J.jpg
p227
sasg63
Nsg64
Nsg65
Nsg66
VThu Dec 11 18:41:04 +0000 2014
p228
sg68
Nsg69
I00
sg70
Nsg71
Nsg72
Nsg73
Nsg74
I00
sg75
Nsg76
(lp229
sg78
Nsg79
V543113253078192129
p230
sg81
Nsg82
VWouldn't you rather have your morning meeting on the beach? http://t.co/WHTac0yD6x http://t.co/pPHTcrxWLz
p231
sg84
I00
sg85
Ven
p232
sg87
g3
(g88
g5
Ntp233
Rp234
(dp235
g10
VBeaver, Utah
p236
sg93
V333333
p237
sg95
Ven
p238
sg97
Nsg98
I21
sg99
I65
sg66
VTue Feb 25 17:41:23 +0000 2014
p239
sg101
I00
sg102
g103
sg104
Vhttps://pbs.twimg.com/profile_images/471774627157381120/fayhBRIh_normal.jpeg
p240
sg106
I50
sg107
I0
sg108
Nsg109
Nsg110
I00
sg111
Vhttps://pbs.twimg.com/profile_banners/2361437551/1401314452
p241
sg113
I00
sg114
I00
sg115
V0084B4
p242
sg117
I00
sg118
I00
sg119
Vhttp://abs.twimg.com/images/themes/theme16/bg.gif
p243
sg121
VErinsPlexus
p244
sg123
I1
sg124
VErin Tibbetts Austin
p245
sg126
VDDFFCC
p246
sg128
Vhttp://t.co/84YguYrLWL
p247
sg130
I2361437551
sg131
V9AE4E8
p248
sbsg133
I0
sg134
V<a href="http://myplexusbuilder.com/" rel="nofollow">My Plexus Builder</a>
p249
sg136
(lp250
g3
(g138
g5
Ntp251
Rp252
(dp253
g142
Vhttp://t.co/WHTac0yD6x
p254
sg144
Vhttp://ltl.is/IR3QV
p255
sbasg130
I543113253078192129
sbag3
(g4
g5
Ntp256
Rp257
(dp258
g9
I0
sg10
Nsg11
Nsg12
(lp259
sg14
I00
sg15
Nsg16
Nsg17
(lp260
(dp261
Vexpanded_url
p262
Vhttp://twitter.com/ErinsPlexus/status/542768481352298496/photo/1
p263
sVdisplay_url
p264
Vpic.twitter.com/FyvlyfgT7Y
p265
sVurl
p266
Vhttp://t.co/FyvlyfgT7Y
p267
sVmedia_url_https
p268
Vhttps://pbs.twimg.com/media/B4hNDtSIUAEeq4y.jpg
p269
sVid_str
p270
V542768481188728833
p271
sVsizes
p272
(dp273
Vlarge
p274
(dp275
Vh
p276
I537
sVresize
p277
Vfit
p278
sVw
p279
I1024
ssVsmall
p280
(dp281
Vh
p282
I178
sVresize
p283
Vfit
p284
sVw
p285
I340
ssVmedium
p286
(dp287
Vh
p288
I315
sVresize
p289
Vfit
p290
sVw
p291
I600
ssVthumb
p292
(dp293
Vh
p294
I150
sVresize
p295
Vcrop
p296
sVw
p297
I150
sssVindices
p298
(lp299
I84
aI106
asVtype
p300
Vphoto
p301
sVid
p302
I542768481188728833
sVmedia_url
p303
Vhttp://pbs.twimg.com/media/B4hNDtSIUAEeq4y.jpg
p304
sasg63
Nsg64
Nsg65
Nsg66
VWed Dec 10 19:51:04 +0000 2014
p305
sg68
Nsg69
I00
sg70
Nsg71
Nsg72
Nsg73
Nsg74
I00
sg75
Nsg76
(lp306
sg78
Nsg79
V542768481352298496
p307
sg81
Nsg82
VClick here to learn how to improve your financial situation! http://t.co/hDV9ubevH5 http://t.co/FyvlyfgT7Y
p308
sg84
I00
sg85
Ven
p309
sg87
g3
(g88
g5
Ntp310
Rp311
(dp312
g10
VBeaver, Utah
p313
sg93
V333333
p314
sg95
Ven
p315
sg97
Nsg98
I21
sg99
I65
sg66
VTue Feb 25 17:41:23 +0000 2014
p316
sg101
I00
sg102
g103
sg104
Vhttps://pbs.twimg.com/profile_images/471774627157381120/fayhBRIh_normal.jpeg
p317
sg106
I50
sg107
I0
sg108
Nsg109
Nsg110
I00
sg111
Vhttps://pbs.twimg.com/profile_banners/2361437551/1401314452
p318
sg113
I00
sg114
I00
sg115
V0084B4
p319
sg117
I00
sg118
I00
sg119
Vhttp://abs.twimg.com/images/themes/theme16/bg.gif
p320
sg121
VErinsPlexus
p321
sg123
I1
sg124
VErin Tibbetts Austin
p322
sg126
VDDFFCC
p323
sg128
Vhttp://t.co/84YguYrLWL
p324
sg130
I2361437551
sg131
V9AE4E8
p325
sbsg133
I0
sg134
V<a href="http://myplexusbuilder.com/" rel="nofollow">My Plexus Builder</a>
p326
sg136
(lp327
g3
(g138
g5
Ntp328
Rp329
(dp330
g142
Vhttp://t.co/hDV9ubevH5
p331
sg144
Vhttp://ltl.is/GgXVM
p332
sbasg130
I542768481352298496
sbag3
(g4
g5
Ntp333
Rp334
(dp335
g9
I0
sg10
Nsg11
Nsg12
(lp336
sg14
I00
sg15
Nsg16
Nsg17
(lp337
sg63
Nsg64
Nsg65
Nsg66
VWed Dec 10 14:16:07 +0000 2014
p338
sg68
Nsg69
I00
sg70
Nsg71
Nsg72
Nsg73
Nsg74
I00
sg75
Nsg76
(lp339
g3
(g88
g5
Ntp340
Rp341
(dp342
g10
Nsg93
Nsg95
Nsg97
Nsg98
Nsg99
Nsg66
Nsg101
Nsg102
Nsg104
Nsg106
Nsg107
Nsg108
Nsg109
Nsg110
Nsg111
Nsg113
Nsg114
Nsg115
Nsg117
Nsg118
Nsg119
Nsg121
Vgofundme
p343
sg123
Nsg124
VGoFundMe
p344
sg126
Nsg128
Nsg130
I112897540
sg131
Nsbasg78
Nsg79
V542684186444697604
p345
sg81
Nsg82
VCheck it out! I donated to Car Fire Fund http://t.co/6iiQGhwa1Q via @gofundme
p346
sg84
I00
sg85
Ven
p347
sg87
g3
(g88
g5
Ntp348
Rp349
(dp350
g10
VBeaver, Utah
p351
sg93
V333333
p352
sg95
Ven
p353
sg97
Nsg98
I21
sg99
I65
sg66
VTue Feb 25 17:41:23 +0000 2014
p354
sg101
I00
sg102
g103
sg104
Vhttps://pbs.twimg.com/profile_images/471774627157381120/fayhBRIh_normal.jpeg
p355
sg106
I50
sg107
I0
sg108
Nsg109
Nsg110
I00
sg111
Vhttps://pbs.twimg.com/profile_banners/2361437551/1401314452
p356
sg113
I00
sg114
I00
sg115
V0084B4
p357
sg117
I00
sg118
I00
sg119
Vhttp://abs.twimg.com/images/themes/theme16/bg.gif
p358
sg121
VErinsPlexus
p359
sg123
I1
sg124
VErin Tibbetts Austin
p360
sg126
VDDFFCC
p361
sg128
Vhttp://t.co/84YguYrLWL
p362
sg130
I2361437551
sg131
V9AE4E8
p363
sbsg133
I0
sg134
V<a href="https://dev.twitter.com/docs/tfw" rel="nofollow">Twitter for Websites</a>
p364
sg136
(lp365
g3
(g138
g5
Ntp366
Rp367
(dp368
g142
Vhttp://t.co/6iiQGhwa1Q
p369
sg144
Vhttp://gofund.me/car_fire_fund
p370
sbasg130
I542684186444697604
sbag3
(g4
g5
Ntp371
Rp372
(dp373
g9
I0
sg10
Nsg11
Nsg12
(lp374
sg14
I00
sg15
Nsg16
Nsg17
(lp375
sg63
Nsg64
Nsg65
Nsg66
VTue Dec 09 21:45:08 +0000 2014
p376
sg68
Nsg69
I00
sg70
Nsg71
Nsg72
Nsg73
Nsg74
I00
sg75
Nsg76
(lp377
sg78
Nsg79
V542434797679702017
p378
sg81
Nsg82
VFor an amazing opportunity just waiting for you click the link. http://t.co/ZFhP7YLYwT
p379
sg84
I00
sg85
Ven
p380
sg87
g3
(g88
g5
Ntp381
Rp382
(dp383
g10
VBeaver, Utah
p384
sg93
V333333
p385
sg95
Ven
p386
sg97
Nsg98
I21
sg99
I65
sg66
VTue Feb 25 17:41:23 +0000 2014
p387
sg101
I00
sg102
g103
sg104
Vhttps://pbs.twimg.com/profile_images/471774627157381120/fayhBRIh_normal.jpeg
p388
sg106
I50
sg107
I0
sg108
Nsg109
Nsg110
I00
sg111
Vhttps://pbs.twimg.com/profile_banners/2361437551/1401314452
p389
sg113
I00
sg114
I00
sg115
V0084B4
p390
sg117
I00
sg118
I00
sg119
Vhttp://abs.twimg.com/images/themes/theme16/bg.gif
p391
sg121
VErinsPlexus
p392
sg123
I1
sg124
VErin Tibbetts Austin
p393
sg126
VDDFFCC
p394
sg128
Vhttp://t.co/84YguYrLWL
p395
sg130
I2361437551
sg131
V9AE4E8
p396
sbsg133
I0
sg134
V<a href="http://myplexusbuilder.com/" rel="nofollow">My Plexus Builder</a>
p397
sg136
(lp398
g3
(g138
g5
Ntp399
Rp400
(dp401
g142
Vhttp://t.co/ZFhP7YLYwT
p402
sg144
Vhttp://ltl.is/4HQMp
p403
sbasg130
I542434797679702017
sbag3
(g4
g5
Ntp404
Rp405
(dp406
g9
I0
sg10
Nsg11
Nsg12
(lp407
sg14
I00
sg15
Nsg16
Nsg17
(lp408
(dp409
Vexpanded_url
p410
Vhttp://twitter.com/ErinsPlexus/status/541944552006111233/photo/1
p411
sVdisplay_url
p412
Vpic.twitter.com/MMekKodxPJ
p413
sVurl
p414
Vhttp://t.co/MMekKodxPJ
p415
sVmedia_url_https
p416
Vhttps://pbs.twimg.com/media/B4VfstlIMAEK_dc.jpg
p417
sVid_str
p418
V541944551922216961
p419
sVsizes
p420
(dp421
Vlarge
p422
(dp423
Vh
p424
I537
sVresize
p425
Vfit
p426
sVw
p427
I1024
ssVsmall
p428
(dp429
Vh
p430
I178
sVresize
p431
Vfit
p432
sVw
p433
I340
ssVmedium
p434
(dp435
Vh
p436
I315
sVresize
p437
Vfit
p438
sVw
p439
I600
ssVthumb
p440
(dp441
Vh
p442
I150
sVresize
p443
Vcrop
p444
sVw
p445
I150
sssVindices
p446
(lp447
I83
aI105
asVtype
p448
Vphoto
p449
sVid
p450
I541944551922216961
sVmedia_url
p451
Vhttp://pbs.twimg.com/media/B4VfstlIMAEK_dc.jpg
p452
sasg63
Nsg64
Nsg65
Nsg66
VMon Dec 08 13:17:04 +0000 2014
p453
sg68
Nsg69
I00
sg70
Nsg71
Nsg72
Nsg73
Nsg74
I00
sg75
Nsg76
(lp454
sg78
Nsg79
V541944552006111233
p455
sg81
Nsg82
VWouldn't you rather have your morning meeting on the beach? http://t.co/WHTac0yD6x http://t.co/MMekKodxPJ
p456
sg84
I00
sg85
Ven
p457
sg87
g3
(g88
g5
Ntp458
Rp459
(dp460
g10
VBeaver, Utah
p461
sg93
V333333
p462
sg95
Ven
p463
sg97
Nsg98
I21
sg99
I65
sg66
VTue Feb 25 17:41:23 +0000 2014
p464
sg101
I00
sg102
g103
sg104
Vhttps://pbs.twimg.com/profile_images/471774627157381120/fayhBRIh_normal.jpeg
p465
sg106
I50
sg107
I0
sg108
Nsg109
Nsg110
I00
sg111
Vhttps://pbs.twimg.com/profile_banners/2361437551/1401314452
p466
sg113
I00
sg114
I00
sg115
V0084B4
p467
sg117
I00
sg118
I00
sg119
Vhttp://abs.twimg.com/images/themes/theme16/bg.gif
p468
sg121
VErinsPlexus
p469
sg123
I1
sg124
VErin Tibbetts Austin
p470
sg126
VDDFFCC
p471
sg128
Vhttp://t.co/84YguYrLWL
p472
sg130
I2361437551
sg131
V9AE4E8
p473
sbsg133
I0
sg134
V<a href="http://myplexusbuilder.com/" rel="nofollow">My Plexus Builder</a>
p474
sg136
(lp475
g3
(g138
g5
Ntp476
Rp477
(dp478
g142
Vhttp://t.co/WHTac0yD6x
p479
sg144
Vhttp://ltl.is/IR3QV
p480
sbasg130
I541944552006111233
sbag3
(g4
g5
Ntp481
Rp482
(dp483
g9
I0
sg10
Nsg11
Nsg12
(lp484
sg14
I00
sg15
Nsg16
Nsg17
(lp485
(dp486
Vexpanded_url
p487
Vhttp://twitter.com/ErinsPlexus/status/541657408867958785/photo/1
p488
sVdisplay_url
p489
Vpic.twitter.com/A8e4uspE8h
p490
sVurl
p491
Vhttp://t.co/A8e4uspE8h
p492
sVmedia_url_https
p493
Vhttps://pbs.twimg.com/media/B4Raix2IMAAVBXT.jpg
p494
sVid_str
p495
V541657408733720576
p496
sVsizes
p497
(dp498
Vlarge
p499
(dp500
Vh
p501
I537
sVresize
p502
Vfit
p503
sVw
p504
I1024
ssVsmall
p505
(dp506
Vh
p507
I178
sVresize
p508
Vfit
p509
sVw
p510
I340
ssVmedium
p511
(dp512
Vh
p513
I315
sVresize
p514
Vfit
p515
sVw
p516
I600
ssVthumb
p517
(dp518
Vh
p519
I150
sVresize
p520
Vcrop
p521
sVw
p522
I150
sssVindices
p523
(lp524
I45
aI67
asVtype
p525
Vphoto
p526
sVid
p527
I541657408733720576
sVmedia_url
p528
Vhttp://pbs.twimg.com/media/B4Raix2IMAAVBXT.jpg
p529
sasg63
Nsg64
Nsg65
Nsg66
VSun Dec 07 18:16:04 +0000 2014
p530
sg68
Nsg69
I00
sg70
Nsg71
Nsg72
Nsg73
Nsg74
I00
sg75
Nsg76
(lp531
sg78
Nsg79
V541657408867958785
p532
sg81
Nsg82
VEnjoy more free time. http://t.co/WHTac0yD6x http://t.co/A8e4uspE8h
p533
sg84
I00
sg85
Ven
p534
sg87
g3
(g88
g5
Ntp535
Rp536
(dp537
g10
VBeaver, Utah
p538
sg93
V333333
p539
sg95
Ven
p540
sg97
Nsg98
I21
sg99
I65
sg66
VTue Feb 25 17:41:23 +0000 2014
p541
sg101
I00
sg102
g103
sg104
Vhttps://pbs.twimg.com/profile_images/471774627157381120/fayhBRIh_normal.jpeg
p542
sg106
I50
sg107
I0
sg108
Nsg109
Nsg110
I00
sg111
Vhttps://pbs.twimg.com/profile_banners/2361437551/1401314452
p543
sg113
I00
sg114
I00
sg115
V0084B4
p544
sg117
I00
sg118
I00
sg119
Vhttp://abs.twimg.com/images/themes/theme16/bg.gif
p545
sg121
VErinsPlexus
p546
sg123
I1
sg124
VErin Tibbetts Austin
p547
sg126
VDDFFCC
p548
sg128
Vhttp://t.co/84YguYrLWL
p549
sg130
I2361437551
sg131
V9AE4E8
p550
sbsg133
I0
sg134
V<a href="http://myplexusbuilder.com/" rel="nofollow">My Plexus Builder</a>
p551
sg136
(lp552
g3
(g138
g5
Ntp553
Rp554
(dp555
g142
Vhttp://t.co/WHTac0yD6x
p556
sg144
Vhttp://ltl.is/IR3QV
p557
sbasg130
I541657408867958785
sbag3
(g4
g5
Ntp558
Rp559
(dp560
g9
I0
sg10
Nsg11
Nsg12
(lp561
sg14
I00
sg15
Nsg16
Nsg17
(lp562
(dp563
Vexpanded_url
p564
Vhttp://twitter.com/ErinsPlexus/status/541375553149100032/photo/1
p565
sVdisplay_url
p566
Vpic.twitter.com/qy0aqMCVPz
p567
sVurl
p568
Vhttp://t.co/qy0aqMCVPz
p569
sVmedia_url_https
p570
Vhttps://pbs.twimg.com/media/B4NaMnwIAAABNaY.jpg
p571
sVid_str
p572
V541375553090355200
p573
sVsizes
p574
(dp575
Vlarge
p576
(dp577
Vh
p578
I537
sVresize
p579
Vfit
p580
sVw
p581
I1024
ssVsmall
p582
(dp583
Vh
p584
I178
sVresize
p585
Vfit
p586
sVw
p587
I340
ssVmedium
p588
(dp589
Vh
p590
I315
sVresize
p591
Vfit
p592
sVw
p593
I600
ssVthumb
p594
(dp595
Vh
p596
I150
sVresize
p597
Vcrop
p598
sVw
p599
I150
sssVindices
p600
(lp601
I72
aI94
asVtype
p602
Vphoto
p603
sVid
p604
I541375553090355200
sVmedia_url
p605
Vhttp://pbs.twimg.com/media/B4NaMnwIAAABNaY.jpg
p606
sasg63
Nsg64
Nsg65
Nsg66
VSat Dec 06 23:36:04 +0000 2014
p607
sg68
Nsg69
I00
sg70
Nsg71
Nsg72
Nsg73
Nsg74
I00
sg75
Nsg76
(lp608
sg78
Nsg79
V541375553149100032
p609
sg81
Nsg82
VClick here to start creating your success story! http://t.co/hDV9ubevH5 http://t.co/qy0aqMCVPz
p610
sg84
I00
sg85
Ven
p611
sg87
g3
(g88
g5
Ntp612
Rp613
(dp614
g10
VBeaver, Utah
p615
sg93
V333333
p616
sg95
Ven
p617
sg97
Nsg98
I21
sg99
I65
sg66
VTue Feb 25 17:41:23 +0000 2014
p618
sg101
I00
sg102
g103
sg104
Vhttps://pbs.twimg.com/profile_images/471774627157381120/fayhBRIh_normal.jpeg
p619
sg106
I50
sg107
I0
sg108
Nsg109
Nsg110
I00
sg111
Vhttps://pbs.twimg.com/profile_banners/2361437551/1401314452
p620
sg113
I00
sg114
I00
sg115
V0084B4
p621
sg117
I00
sg118
I00
sg119
Vhttp://abs.twimg.com/images/themes/theme16/bg.gif
p622
sg121
VErinsPlexus
p623
sg123
I1
sg124
VErin Tibbetts Austin
p624
sg126
VDDFFCC
p625
sg128
Vhttp://t.co/84YguYrLWL
p626
sg130
I2361437551
sg131
V9AE4E8
p627
sbsg133
I0
sg134
V<a href="http://myplexusbuilder.com/" rel="nofollow">My Plexus Builder</a>
p628
sg136
(lp629
g3
(g138
g5
Ntp630
Rp631
(dp632
g142
Vhttp://t.co/hDV9ubevH5
p633
sg144
Vhttp://ltl.is/GgXVM
p634
sbasg130
I541375553149100032
sbag3
(g4
g5
Ntp635
Rp636
(dp637
g9
I0
sg10
Nsg11
Nsg12
(lp638
sg14
I00
sg15
Nsg16
Nsg17
(lp639
sg63
Nsg64
Nsg65
Nsg66
VFri Dec 05 19:39:07 +0000 2014
p640
sg68
Nsg69
I00
sg70
Nsg71
Nsg72
Nsg73
Nsg74
I00
sg75
Nsg76
(lp641
sg78
Nsg79
V540953533387120641
p642
sg81
Nsg82
VDid you know 8 out of 10 Americans over the age of 25 are overweight? http://t.co/hDV9ubevH5
p643
sg84
I00
sg85
Ven
p644
sg87
g3
(g88
g5
Ntp645
Rp646
(dp647
g10
VBeaver, Utah
p648
sg93
V333333
p649
sg95
Ven
p650
sg97
Nsg98
I21
sg99
I65
sg66
VTue Feb 25 17:41:23 +0000 2014
p651
sg101
I00
sg102
g103
sg104
Vhttps://pbs.twimg.com/profile_images/471774627157381120/fayhBRIh_normal.jpeg
p652
sg106
I50
sg107
I0
sg108
Nsg109
Nsg110
I00
sg111
Vhttps://pbs.twimg.com/profile_banners/2361437551/1401314452
p653
sg113
I00
sg114
I00
sg115
V0084B4
p654
sg117
I00
sg118
I00
sg119
Vhttp://abs.twimg.com/images/themes/theme16/bg.gif
p655
sg121
VErinsPlexus
p656
sg123
I1
sg124
VErin Tibbetts Austin
p657
sg126
VDDFFCC
p658
sg128
Vhttp://t.co/84YguYrLWL
p659
sg130
I2361437551
sg131
V9AE4E8
p660
sbsg133
I0
sg134
V<a href="http://myplexusbuilder.com/" rel="nofollow">My Plexus Builder</a>
p661
sg136
(lp662
g3
(g138
g5
Ntp663
Rp664
(dp665
g142
Vhttp://t.co/hDV9ubevH5
p666
sg144
Vhttp://ltl.is/GgXVM
p667
sbasg130
I540953533387120641
sbag3
(g4
g5
Ntp668
Rp669
(dp670
g9
I0
sg10
Nsg11
Nsg12
(lp671
sg14
I00
sg15
Nsg16
Nsg17
(lp672
(dp673
Vexpanded_url
p674
Vhttp://twitter.com/ErinsPlexus/status/540627618148929536/photo/1
p675
sVdisplay_url
p676
Vpic.twitter.com/1S7eIVYIQx
p677
sVurl
p678
Vhttp://t.co/1S7eIVYIQx
p679
sVmedia_url_https
p680
Vhttps://pbs.twimg.com/media/B4Cx9EeIgAEOW2f.jpg
p681
sVid_str
p682
V540627618014724097
p683
sVsizes
p684
(dp685
Vlarge
p686
(dp687
Vh
p688
I537
sVresize
p689
Vfit
p690
sVw
p691
I1024
ssVsmall
p692
(dp693
Vh
p694
I178
sVresize
p695
Vfit
p696
sVw
p697
I340
ssVmedium
p698
(dp699
Vh
p700
I315
sVresize
p701
Vfit
p702
sVw
p703
I600
ssVthumb
p704
(dp705
Vh
p706
I150
sVresize
p707
Vcrop
p708
sVw
p709
I150
sssVindices
p710
(lp711
I83
aI105
asVtype
p712
Vphoto
p713
sVid
p714
I540627618014724097
sVmedia_url
p715
Vhttp://pbs.twimg.com/media/B4Cx9EeIgAEOW2f.jpg
p716
sasg63
Nsg64
Nsg65
Nsg66
VThu Dec 04 22:04:03 +0000 2014
p717
sg68
Nsg69
I00
sg70
Nsg71
Nsg72
Nsg73
Nsg74
I00
sg75
Nsg76
(lp718
sg78
Nsg79
V540627618148929536
p719
sg81
Nsg82
VWouldn't you rather have your morning meeting on the beach? http://t.co/WHTac0yD6x http://t.co/1S7eIVYIQx
p720
sg84
I00
sg85
Ven
p721
sg87
g3
(g88
g5
Ntp722
Rp723
(dp724
g10
VBeaver, Utah
p725
sg93
V333333
p726
sg95
Ven
p727
sg97
Nsg98
I21
sg99
I65
sg66
VTue Feb 25 17:41:23 +0000 2014
p728
sg101
I00
sg102
g103
sg104
Vhttps://pbs.twimg.com/profile_images/471774627157381120/fayhBRIh_normal.jpeg
p729
sg106
I50
sg107
I0
sg108
Nsg109
Nsg110
I00
sg111
Vhttps://pbs.twimg.com/profile_banners/2361437551/1401314452
p730
sg113
I00
sg114
I00
sg115
V0084B4
p731
sg117
I00
sg118
I00
sg119
Vhttp://abs.twimg.com/images/themes/theme16/bg.gif
p732
sg121
VErinsPlexus
p733
sg123
I1
sg124
VErin Tibbetts Austin
p734
sg126
VDDFFCC
p735
sg128
Vhttp://t.co/84YguYrLWL
p736
sg130
I2361437551
sg131
V9AE4E8
p737
sbsg133
I0
sg134
V<a href="http://myplexusbuilder.com/" rel="nofollow">My Plexus Builder</a>
p738
sg136
(lp739
g3
(g138
g5
Ntp740
Rp741
(dp742
g142
Vhttp://t.co/WHTac0yD6x
p743
sg144
Vhttp://ltl.is/IR3QV
p744
sbasg130
I540627618148929536
sbag3
(g4
g5
Ntp745
Rp746
(dp747
g9
I0
sg10
Nsg11
Nsg12
(lp748
sg14
I00
sg15
Nsg16
Nsg17
(lp749
(dp750
Vexpanded_url
p751
Vhttp://twitter.com/ErinsPlexus/status/540284111081181184/photo/1
p752
sVdisplay_url
p753
Vpic.twitter.com/8DtylfJf80
p754
sVurl
p755
Vhttp://t.co/8DtylfJf80
p756
sVmedia_url_https
p757
Vhttps://pbs.twimg.com/media/B395iU3IcAEVq2D.jpg
p758
sVid_str
p759
V540284110930210817
p760
sVsizes
p761
(dp762
Vlarge
p763
(dp764
Vh
p765
I537
sVresize
p766
Vfit
p767
sVw
p768
I1024
ssVsmall
p769
(dp770
Vh
p771
I178
sVresize
p772
Vfit
p773
sVw
p774
I340
ssVmedium
p775
(dp776
Vh
p777
I315
sVresize
p778
Vfit
p779
sVw
p780
I600
ssVthumb
p781
(dp782
Vh
p783
I150
sVresize
p784
Vcrop
p785
sVw
p786
I150
sssVindices
p787
(lp788
I38
aI60
asVtype
p789
Vphoto
p790
sVid
p791
I540284110930210817
sVmedia_url
p792
Vhttp://pbs.twimg.com/media/B395iU3IcAEVq2D.jpg
p793
sasg63
Nsg64
Nsg65
Nsg66
VWed Dec 03 23:19:04 +0000 2014
p794
sg68
Nsg69
I00
sg70
Nsg71
Nsg72
Nsg73
Nsg74
I00
sg75
Nsg76
(lp795
sg78
Nsg79
V540284111081181184
p796
sg81
Nsg82
VOwn your life. http://t.co/WHTac0yD6x http://t.co/8DtylfJf80
p797
sg84
I00
sg85
Ven
p798
sg87
g3
(g88
g5
Ntp799
Rp800
(dp801
g10
VBeaver, Utah
p802
sg93
V333333
p803
sg95
Ven
p804
sg97
Nsg98
I21
sg99
I65
sg66
VTue Feb 25 17:41:23 +0000 2014
p805
sg101
I00
sg102
g103
sg104
Vhttps://pbs.twimg.com/profile_images/471774627157381120/fayhBRIh_normal.jpeg
p806
sg106
I50
sg107
I0
sg108
Nsg109
Nsg110
I00
sg111
Vhttps://pbs.twimg.com/profile_banners/2361437551/1401314452
p807
sg113
I00
sg114
I00
sg115
V0084B4
p808
sg117
I00
sg118
I00
sg119
Vhttp://abs.twimg.com/images/themes/theme16/bg.gif
p809
sg121
VErinsPlexus
p810
sg123
I1
sg124
VErin Tibbetts Austin
p811
sg126
VDDFFCC
p812
sg128
Vhttp://t.co/84YguYrLWL
p813
sg130
I2361437551
sg131
V9AE4E8
p814
sbsg133
I0
sg134
V<a href="http://myplexusbuilder.com/" rel="nofollow">My Plexus Builder</a>
p815
sg136
(lp816
g3
(g138
g5
Ntp817
Rp818
(dp819
g142
Vhttp://t.co/WHTac0yD6x
p820
sg144
Vhttp://ltl.is/IR3QV
p821
sbasg130
I540284111081181184
sbag3
(g4
g5
Ntp822
Rp823
(dp824
g9
I0
sg10
Nsg11
Nsg12
(lp825
sg14
I00
sg15
Nsg16
Nsg17
(lp826
sg63
Nsg64
Nsg65
Nsg66
VTue Dec 02 15:44:03 +0000 2014
p827
sg68
Nsg69
I00
sg70
Nsg71
Nsg72
Nsg73
Nsg74
I00
sg75
Nsg76
(lp828
sg78
Nsg79
V539807211628036098
p829
sg81
Nsg82
V80% of direct sellers say direct selling meets or exceeds their expectations. http://t.co/X8Jq6yqIZh
p830
sg84
I00
sg85
Ven
p831
sg87
g3
(g88
g5
Ntp832
Rp833
(dp834
g10
VBeaver, Utah
p835
sg93
V333333
p836
sg95
Ven
p837
sg97
Nsg98
I21
sg99
I65
sg66
VTue Feb 25 17:41:23 +0000 2014
p838
sg101
I00
sg102
g103
sg104
Vhttps://pbs.twimg.com/profile_images/471774627157381120/fayhBRIh_normal.jpeg
p839
sg106
I50
sg107
I0
sg108
Nsg109
Nsg110
I00
sg111
Vhttps://pbs.twimg.com/profile_banners/2361437551/1401314452
p840
sg113
I00
sg114
I00
sg115
V0084B4
p841
sg117
I00
sg118
I00
sg119
Vhttp://abs.twimg.com/images/themes/theme16/bg.gif
p842
sg121
VErinsPlexus
p843
sg123
I1
sg124
VErin Tibbetts Austin
p844
sg126
VDDFFCC
p845
sg128
Vhttp://t.co/84YguYrLWL
p846
sg130
I2361437551
sg131
V9AE4E8
p847
sbsg133
I0
sg134
V<a href="http://myplexusbuilder.com/" rel="nofollow">My Plexus Builder</a>
p848
sg136
(lp849
g3
(g138
g5
Ntp850
Rp851
(dp852
g142
Vhttp://t.co/X8Jq6yqIZh
p853
sg144
Vhttp://ltl.is/6vAUs
p854
sbasg130
I539807211628036098
sbag3
(g4
g5
Ntp855
Rp856
(dp857
g9
I0
sg10
Nsg11
Nsg12
(lp858
sg14
I00
sg15
Nsg16
Nsg17
(lp859
(dp860
Vexpanded_url
p861
Vhttp://twitter.com/ErinsPlexus/status/539579462137184257/photo/1
p862
sVdisplay_url
p863
Vpic.twitter.com/Dj3gGEEEAn
p864
sVurl
p865
Vhttp://t.co/Dj3gGEEEAn
p866
sVmedia_url_https
p867
Vhttps://pbs.twimg.com/media/B3z4qXVIAAED1Qh.jpg
p868
sVid_str
p869
V539579462078431233
p870
sVsizes
p871
(dp872
Vlarge
p873
(dp874
Vh
p875
I537
sVresize
p876
Vfit
p877
sVw
p878
I1024
ssVsmall
p879
(dp880
Vh
p881
I178
sVresize
p882
Vfit
p883
sVw
p884
I340
ssVmedium
p885
(dp886
Vh
p887
I315
sVresize
p888
Vfit
p889
sVw
p890
I600
ssVthumb
p891
(dp892
Vh
p893
I150
sVresize
p894
Vcrop
p895
sVw
p896
I150
sssVindices
p897
(lp898
I47
aI69
asVtype
p899
Vphoto
p900
sVid
p901
I539579462078431233
sVmedia_url
p902
Vhttp://pbs.twimg.com/media/B3z4qXVIAAED1Qh.jpg
p903
sasg63
Nsg64
Nsg65
Nsg66
VTue Dec 02 00:39:03 +0000 2014
p904
sg68
Nsg69
I00
sg70
Nsg71
Nsg72
Nsg73
Nsg74
I00
sg75
Nsg76
(lp905
sg78
Nsg79
V539579462137184257
p906
sg81
Nsg82
VChange your luck today! http://t.co/hDV9ubevH5 http://t.co/Dj3gGEEEAn
p907
sg84
I00
sg85
Ven
p908
sg87
g3
(g88
g5
Ntp909
Rp910
(dp911
g10
VBeaver, Utah
p912
sg93
V333333
p913
sg95
Ven
p914
sg97
Nsg98
I21
sg99
I65
sg66
VTue Feb 25 17:41:23 +0000 2014
p915
sg101
I00
sg102
g103
sg104
Vhttps://pbs.twimg.com/profile_images/471774627157381120/fayhBRIh_normal.jpeg
p916
sg106
I50
sg107
I0
sg108
Nsg109
Nsg110
I00
sg111
Vhttps://pbs.twimg.com/profile_banners/2361437551/1401314452
p917
sg113
I00
sg114
I00
sg115
V0084B4
p918
sg117
I00
sg118
I00
sg119
Vhttp://abs.twimg.com/images/themes/theme16/bg.gif
p919
sg121
VErinsPlexus
p920
sg123
I1
sg124
VErin Tibbetts Austin
p921
sg126
VDDFFCC
p922
sg128
Vhttp://t.co/84YguYrLWL
p923
sg130
I2361437551
sg131
V9AE4E8
p924
sbsg133
I0
sg134
V<a href="http://myplexusbuilder.com/" rel="nofollow">My Plexus Builder</a>
p925
sg136
(lp926
g3
(g138
g5
Ntp927
Rp928
(dp929
g142
Vhttp://t.co/hDV9ubevH5
p930
sg144
Vhttp://ltl.is/GgXVM
p931
sbasg130
I539579462137184257
sbag3
(g4
g5
Ntp932
Rp933
(dp934
g9
I0
sg10
Nsg11
Nsg12
(lp935
sg14
I00
sg15
Nsg16
Nsg17
(lp936
(dp937
Vexpanded_url
p938
Vhttp://twitter.com/ErinsPlexus/status/539103069955694592/photo/1
p939
sVdisplay_url
p940
Vpic.twitter.com/e10niP34hU
p941
sVurl
p942
Vhttp://t.co/e10niP34hU
p943
sVmedia_url_https
p944
Vhttps://pbs.twimg.com/media/B3tHYrpIYAAdp3W.jpg
p945
sVid_str
p946
V539103069758578688
p947
sVsizes
p948
(dp949
Vlarge
p950
(dp951
Vh
p952
I537
sVresize
p953
Vfit
p954
sVw
p955
I1024
ssVsmall
p956
(dp957
Vh
p958
I178
sVresize
p959
Vfit
p960
sVw
p961
I340
ssVmedium
p962
(dp963
Vh
p964
I315
sVresize
p965
Vfit
p966
sVw
p967
I600
ssVthumb
p968
(dp969
Vh
p970
I150
sVresize
p971
Vcrop
p972
sVw
p973
I150
sssVindices
p974
(lp975
I50
aI72
asVtype
p976
Vphoto
p977
sVid
p978
I539103069758578688
sVmedia_url
p979
Vhttp://pbs.twimg.com/media/B3tHYrpIYAAdp3W.jpg
p980
sasg63
Nsg64
Nsg65
Nsg66
VSun Nov 30 17:06:02 +0000 2014
p981
sg68
Nsg69
I00
sg70
Nsg71
Nsg72
Nsg73
Nsg74
I00
sg75
Nsg76
(lp982
sg78
Nsg79
V539103069955694592
p983
sg81
Nsg82
VOwn your life. Ask me how. http://t.co/WHTac0yD6x http://t.co/e10niP34hU
p984
sg84
I00
sg85
Ven
p985
sg87
g3
(g88
g5
Ntp986
Rp987
(dp988
g10
VBeaver, Utah
p989
sg93
V333333
p990
sg95
Ven
p991
sg97
Nsg98
I21
sg99
I65
sg66
VTue Feb 25 17:41:23 +0000 2014
p992
sg101
I00
sg102
g103
sg104
Vhttps://pbs.twimg.com/profile_images/471774627157381120/fayhBRIh_normal.jpeg
p993
sg106
I50
sg107
I0
sg108
Nsg109
Nsg110
I00
sg111
Vhttps://pbs.twimg.com/profile_banners/2361437551/1401314452
p994
sg113
I00
sg114
I00
sg115
V0084B4
p995
sg117
I00
sg118
I00
sg119
Vhttp://abs.twimg.com/images/themes/theme16/bg.gif
p996
sg121
VErinsPlexus
p997
sg123
I1
sg124
VErin Tibbetts Austin
p998
sg126
VDDFFCC
p999
sg128
Vhttp://t.co/84YguYrLWL
p1000
sg130
I2361437551
sg131
V9AE4E8
p1001
sbsg133
I0
sg134
V<a href="http://myplexusbuilder.com/" rel="nofollow">My Plexus Builder</a>
p1002
sg136
(lp1003
g3
(g138
g5
Ntp1004
Rp1005
(dp1006
g142
Vhttp://t.co/WHTac0yD6x
p1007
sg144
Vhttp://ltl.is/IR3QV
p1008
sbasg130
I539103069955694592
sbag3
(g4
g5
Ntp1009
Rp1010
(dp1011
g9
I0
sg10
Nsg11
Nsg12
(lp1012
sg14
I00
sg15
Nsg16
Nsg17
(lp1013
(dp1014
Vexpanded_url
p1015
Vhttp://twitter.com/ErinsPlexus/status/538766359896023041/photo/1
p1016
sVdisplay_url
p1017
Vpic.twitter.com/SmqMTPe4pK
p1018
sVurl
p1019
Vhttp://t.co/SmqMTPe4pK
p1020
sVmedia_url_https
p1021
Vhttps://pbs.twimg.com/media/B3oVJlSIQAAlWXF.jpg
p1022
sVid_str
p1023
V538766359795351552
p1024
sVsizes
p1025
(dp1026
Vlarge
p1027
(dp1028
Vh
p1029
I537
sVresize
p1030
Vfit
p1031
sVw
p1032
I1024
ssVsmall
p1033
(dp1034
Vh
p1035
I178
sVresize
p1036
Vfit
p1037
sVw
p1038
I340
ssVmedium
p1039
(dp1040
Vh
p1041
I315
sVresize
p1042
Vfit
p1043
sVw
p1044
I600
ssVthumb
p1045
(dp1046
Vh
p1047
I150
sVresize
p1048
Vcrop
p1049
sVw
p1050
I150
sssVindices
p1051
(lp1052
I38
aI60
asVtype
p1053
Vphoto
p1054
sVid
p1055
I538766359795351552
sVmedia_url
p1056
Vhttp://pbs.twimg.com/media/B3oVJlSIQAAlWXF.jpg
p1057
sasg63
Nsg64
Nsg65
Nsg66
VSat Nov 29 18:48:04 +0000 2014
p1058
sg68
Nsg69
I00
sg70
Nsg71
Nsg72
Nsg73
Nsg74
I00
sg75
Nsg76
(lp1059
sg78
Nsg79
V538766359896023041
p1060
sg81
Nsg82
VOwn your life. http://t.co/WHTac0yD6x http://t.co/SmqMTPe4pK
p1061
sg84
I00
sg85
Ven
p1062
sg87
g3
(g88
g5
Ntp1063
Rp1064
(dp1065
g10
VBeaver, Utah
p1066
sg93
V333333
p1067
sg95
Ven
p1068
sg97
Nsg98
I21
sg99
I65
sg66
VTue Feb 25 17:41:23 +0000 2014
p1069
sg101
I00
sg102
g103
sg104
Vhttps://pbs.twimg.com/profile_images/471774627157381120/fayhBRIh_normal.jpeg
p1070
sg106
I50
sg107
I0
sg108
Nsg109
Nsg110
I00
sg111
Vhttps://pbs.twimg.com/profile_banners/2361437551/1401314452
p1071
sg113
I00
sg114
I00
sg115
V0084B4
p1072
sg117
I00
sg118
I00
sg119
Vhttp://abs.twimg.com/images/themes/theme16/bg.gif
p1073
sg121
VErinsPlexus
p1074
sg123
I1
sg124
VErin Tibbetts Austin
p1075
sg126
VDDFFCC
p1076
sg128
Vhttp://t.co/84YguYrLWL
p1077
sg130
I2361437551
sg131
V9AE4E8
p1078
sbsg133
I0
sg134
V<a href="http://myplexusbuilder.com/" rel="nofollow">My Plexus Builder</a>
p1079
sg136
(lp1080
g3
(g138
g5
Ntp1081
Rp1082
(dp1083
g142
Vhttp://t.co/WHTac0yD6x
p1084
sg144
Vhttp://ltl.is/IR3QV
p1085
sbasg130
I538766359896023041
sbag3
(g4
g5
Ntp1086
Rp1087
(dp1088
g9
I0
sg10
Nsg11
Nsg12
(lp1089
sg14
I00
sg15
Nsg16
Nsg17
(lp1090
(dp1091
Vexpanded_url
p1092
Vhttp://twitter.com/ErinsPlexus/status/538361435471249408/photo/1
p1093
sVdisplay_url
p1094
Vpic.twitter.com/WEnIWcscwv
p1095
sVurl
p1096
Vhttp://t.co/WEnIWcscwv
p1097
sVmedia_url_https
p1098
Vhttps://pbs.twimg.com/media/B3ik34TIEAA3E4u.jpg
p1099
sVid_str
p1100
V538361435383140352
p1101
sVsizes
p1102
(dp1103
Vlarge
p1104
(dp1105
Vh
p1106
I537
sVresize
p1107
Vfit
p1108
sVw
p1109
I1024
ssVsmall
p1110
(dp1111
Vh
p1112
I178
sVresize
p1113
Vfit
p1114
sVw
p1115
I340
ssVmedium
p1116
(dp1117
Vh
p1118
I315
sVresize
p1119
Vfit
p1120
sVw
p1121
I600
ssVthumb
p1122
(dp1123
Vh
p1124
I150
sVresize
p1125
Vcrop
p1126
sVw
p1127
I150
sssVindices
p1128
(lp1129
I70
aI92
asVtype
p1130
Vphoto
p1131
sVid
p1132
I538361435383140352
sVmedia_url
p1133
Vhttp://pbs.twimg.com/media/B3ik34TIEAA3E4u.jpg
p1134
sasg63
Nsg64
Nsg65
Nsg66
VFri Nov 28 15:59:03 +0000 2014
p1135
sg68
Nsg69
I00
sg70
Nsg71
Nsg72
Nsg73
Nsg74
I00
sg75
Nsg76
(lp1136
sg78
Nsg79
V538361435471249408
p1137
sg81
Nsg82
VIntroducing Plexus 96! Protein meal on the go. http://t.co/WHTac0yD6x http://t.co/WEnIWcscwv
p1138
sg84
I00
sg85
Ven
p1139
sg87
g3
(g88
g5
Ntp1140
Rp1141
(dp1142
g10
VBeaver, Utah
p1143
sg93
V333333
p1144
sg95
Ven
p1145
sg97
Nsg98
I21
sg99
I65
sg66
VTue Feb 25 17:41:23 +0000 2014
p1146
sg101
I00
sg102
g103
sg104
Vhttps://pbs.twimg.com/profile_images/471774627157381120/fayhBRIh_normal.jpeg
p1147
sg106
I50
sg107
I0
sg108
Nsg109
Nsg110
I00
sg111
Vhttps://pbs.twimg.com/profile_banners/2361437551/1401314452
p1148
sg113
I00
sg114
I00
sg115
V0084B4
p1149
sg117
I00
sg118
I00
sg119
Vhttp://abs.twimg.com/images/themes/theme16/bg.gif
p1150
sg121
VErinsPlexus
p1151
sg123
I1
sg124
VErin Tibbetts Austin
p1152
sg126
VDDFFCC
p1153
sg128
Vhttp://t.co/84YguYrLWL
p1154
sg130
I2361437551
sg131
V9AE4E8
p1155
sbsg133
I0
sg134
V<a href="http://myplexusbuilder.com/" rel="nofollow">My Plexus Builder</a>
p1156
sg136
(lp1157
g3
(g138
g5
Ntp1158
Rp1159
(dp1160
g142
Vhttp://t.co/WHTac0yD6x
p1161
sg144
Vhttp://ltl.is/IR3QV
p1162
sbasg130
I538361435471249408
sbag3
(g4
g5
Ntp1163
Rp1164
(dp1165
g9
I0
sg10
Nsg11
Nsg12
(lp1166
sg14
I00
sg15
Nsg16
Nsg17
(lp1167
(dp1168
Vexpanded_url
p1169
Vhttp://twitter.com/ErinsPlexus/status/538006849602473984/photo/1
p1170
sVdisplay_url
p1171
Vpic.twitter.com/h3caYPy9tS
p1172
sVurl
p1173
Vhttp://t.co/h3caYPy9tS
p1174
sVmedia_url_https
p1175
Vhttps://pbs.twimg.com/media/B3diYQuIUAAvk4d.jpg
p1176
sVid_str
p1177
V538006849438896128
p1178
sVsizes
p1179
(dp1180
Vlarge
p1181
(dp1182
Vh
p1183
I537
sVresize
p1184
Vfit
p1185
sVw
p1186
I1024
ssVsmall
p1187
(dp1188
Vh
p1189
I178
sVresize
p1190
Vfit
p1191
sVw
p1192
I340
ssVmedium
p1193
(dp1194
Vh
p1195
I315
sVresize
p1196
Vfit
p1197
sVw
p1198
I600
ssVthumb
p1199
(dp1200
Vh
p1201
I150
sVresize
p1202
Vcrop
p1203
sVw
p1204
I150
sssVindices
p1205
(lp1206
I50
aI72
asVtype
p1207
Vphoto
p1208
sVid
p1209
I538006849438896128
sVmedia_url
p1210
Vhttp://pbs.twimg.com/media/B3diYQuIUAAvk4d.jpg
p1211
sasg63
Nsg64
Nsg65
Nsg66
VThu Nov 27 16:30:03 +0000 2014
p1212
sg68
Nsg69
I00
sg70
Nsg71
Nsg72
Nsg73
Nsg74
I00
sg75
Nsg76
(lp1213
sg78
Nsg79
V538006849602473984
p1214
sg81
Nsg82
VOwn your life. Ask me how. http://t.co/WHTac0yD6x http://t.co/h3caYPy9tS
p1215
sg84
I00
sg85
Ven
p1216
sg87
g3
(g88
g5
Ntp1217
Rp1218
(dp1219
g10
VBeaver, Utah
p1220
sg93
V333333
p1221
sg95
Ven
p1222
sg97
Nsg98
I21
sg99
I65
sg66
VTue Feb 25 17:41:23 +0000 2014
p1223
sg101
I00
sg102
g103
sg104
Vhttps://pbs.twimg.com/profile_images/471774627157381120/fayhBRIh_normal.jpeg
p1224
sg106
I50
sg107
I0
sg108
Nsg109
Nsg110
I00
sg111
Vhttps://pbs.twimg.com/profile_banners/2361437551/1401314452
p1225
sg113
I00
sg114
I00
sg115
V0084B4
p1226
sg117
I00
sg118
I00
sg119
Vhttp://abs.twimg.com/images/themes/theme16/bg.gif
p1227
sg121
VErinsPlexus
p1228
sg123
I1
sg124
VErin Tibbetts Austin
p1229
sg126
VDDFFCC
p1230
sg128
Vhttp://t.co/84YguYrLWL
p1231
sg130
I2361437551
sg131
V9AE4E8
p1232
sbsg133
I0
sg134
V<a href="http://myplexusbuilder.com/" rel="nofollow">My Plexus Builder</a>
p1233
sg136
(lp1234
g3
(g138
g5
Ntp1235
Rp1236
(dp1237
g142
Vhttp://t.co/WHTac0yD6x
p1238
sg144
Vhttp://ltl.is/IR3QV
p1239
sbasg130
I538006849602473984
sbag3
(g4
g5
Ntp1240
Rp1241
(dp1242
g9
I0
sg10
Nsg11
Nsg12
(lp1243
sg14
I00
sg15
Nsg16
Nsg17
(lp1244
(dp1245
Vexpanded_url
p1246
Vhttp://twitter.com/ErinsPlexus/status/537786142478049280/photo/1
p1247
sVdisplay_url
p1248
Vpic.twitter.com/DvDzmXZDxk
p1249
sVurl
p1250
Vhttp://t.co/DvDzmXZDxk
p1251
sVmedia_url_https
p1252
Vhttps://pbs.twimg.com/media/B3aZpa_IQAAIhcm.jpg
p1253
sVid_str
p1254
V537786142415142912
p1255
sVsizes
p1256
(dp1257
Vlarge
p1258
(dp1259
Vh
p1260
I537
sVresize
p1261
Vfit
p1262
sVw
p1263
I1024
ssVsmall
p1264
(dp1265
Vh
p1266
I178
sVresize
p1267
Vfit
p1268
sVw
p1269
I340
ssVmedium
p1270
(dp1271
Vh
p1272
I315
sVresize
p1273
Vfit
p1274
sVw
p1275
I600
ssVthumb
p1276
(dp1277
Vh
p1278
I150
sVresize
p1279
Vcrop
p1280
sVw
p1281
I150
sssVindices
p1282
(lp1283
I84
aI106
asVtype
p1284
Vphoto
p1285
sVid
p1286
I537786142415142912
sVmedia_url
p1287
Vhttp://pbs.twimg.com/media/B3aZpa_IQAAIhcm.jpg
p1288
sasg63
Nsg64
Nsg65
Nsg66
VThu Nov 27 01:53:02 +0000 2014
p1289
sg68
Nsg69
I00
sg70
Nsg71
Nsg72
Nsg73
Nsg74
I00
sg75
Nsg76
(lp1290
sg78
Nsg79
V537786142478049280
p1291
sg81
Nsg82
VClick here to learn how to improve your financial situation! http://t.co/hDV9ubevH5 http://t.co/DvDzmXZDxk
p1292
sg84
I00
sg85
Ven
p1293
sg87
g3
(g88
g5
Ntp1294
Rp1295
(dp1296
g10
VBeaver, Utah
p1297
sg93
V333333
p1298
sg95
Ven
p1299
sg97
Nsg98
I21
sg99
I65
sg66
VTue Feb 25 17:41:23 +0000 2014
p1300
sg101
I00
sg102
g103
sg104
Vhttps://pbs.twimg.com/profile_images/471774627157381120/fayhBRIh_normal.jpeg
p1301
sg106
I50
sg107
I0
sg108
Nsg109
Nsg110
I00
sg111
Vhttps://pbs.twimg.com/profile_banners/2361437551/1401314452
p1302
sg113
I00
sg114
I00
sg115
V0084B4
p1303
sg117
I00
sg118
I00
sg119
Vhttp://abs.twimg.com/images/themes/theme16/bg.gif
p1304
sg121
VErinsPlexus
p1305
sg123
I1
sg124
VErin Tibbetts Austin
p1306
sg126
VDDFFCC
p1307
sg128
Vhttp://t.co/84YguYrLWL
p1308
sg130
I2361437551
sg131
V9AE4E8
p1309
sbsg133
I0
sg134
V<a href="http://myplexusbuilder.com/" rel="nofollow">My Plexus Builder</a>
p1310
sg136
(lp1311
g3
(g138
g5
Ntp1312
Rp1313
(dp1314
g142
Vhttp://t.co/hDV9ubevH5
p1315
sg144
Vhttp://ltl.is/GgXVM
p1316
sbasg130
I537786142478049280
sbag3
(g4
g5
Ntp1317
Rp1318
(dp1319
g9
I0
sg10
Nsg11
Nsg12
(lp1320
sg14
I00
sg15
Nsg16
Nsg17
(lp1321
(dp1322
Vexpanded_url
p1323
Vhttp://twitter.com/ErinsPlexus/status/537391819005657088/photo/1
p1324
sVdisplay_url
p1325
Vpic.twitter.com/advsTQwNlW
p1326
sVurl
p1327
Vhttp://t.co/advsTQwNlW
p1328
sVmedia_url_https
p1329
Vhttps://pbs.twimg.com/media/B3UzAxlIUAAjOve.jpg
p1330
sVid_str
p1331
V537391818942730240
p1332
sVsizes
p1333
(dp1334
Vlarge
p1335
(dp1336
Vh
p1337
I537
sVresize
p1338
Vfit
p1339
sVw
p1340
I1024
ssVsmall
p1341
(dp1342
Vh
p1343
I178
sVresize
p1344
Vfit
p1345
sVw
p1346
I340
ssVmedium
p1347
(dp1348
Vh
p1349
I315
sVresize
p1350
Vfit
p1351
sVw
p1352
I600
ssVthumb
p1353
(dp1354
Vh
p1355
I150
sVresize
p1356
Vcrop
p1357
sVw
p1358
I150
sssVindices
p1359
(lp1360
I83
aI105
asVtype
p1361
Vphoto
p1362
sVid
p1363
I537391818942730240
sVmedia_url
p1364
Vhttp://pbs.twimg.com/media/B3UzAxlIUAAjOve.jpg
p1365
sasg63
Nsg64
Nsg65
Nsg66
VTue Nov 25 23:46:08 +0000 2014
p1366
sg68
Nsg69
I00
sg70
Nsg71
Nsg72
Nsg73
Nsg74
I00
sg75
Nsg76
(lp1367
sg78
Nsg79
V537391819005657088
p1368
sg81
Nsg82
VStop waiting and click here to start doing something great! http://t.co/hDV9ubevH5 http://t.co/advsTQwNlW
p1369
sg84
I00
sg85
Ven
p1370
sg87
g3
(g88
g5
Ntp1371
Rp1372
(dp1373
g10
VBeaver, Utah
p1374
sg93
V333333
p1375
sg95
Ven
p1376
sg97
Nsg98
I21
sg99
I65
sg66
VTue Feb 25 17:41:23 +0000 2014
p1377
sg101
I00
sg102
g103
sg104
Vhttps://pbs.twimg.com/profile_images/471774627157381120/fayhBRIh_normal.jpeg
p1378
sg106
I50
sg107
I0
sg108
Nsg109
Nsg110
I00
sg111
Vhttps://pbs.twimg.com/profile_banners/2361437551/1401314452
p1379
sg113
I00
sg114
I00
sg115
V0084B4
p1380
sg117
I00
sg118
I00
sg119
Vhttp://abs.twimg.com/images/themes/theme16/bg.gif
p1381
sg121
VErinsPlexus
p1382
sg123
I1
sg124
VErin Tibbetts Austin
p1383
sg126
VDDFFCC
p1384
sg128
Vhttp://t.co/84YguYrLWL
p1385
sg130
I2361437551
sg131
V9AE4E8
p1386
sbsg133
I0
sg134
V<a href="http://myplexusbuilder.com/" rel="nofollow">My Plexus Builder</a>
p1387
sg136
(lp1388
g3
(g138
g5
Ntp1389
Rp1390
(dp1391
g142
Vhttp://t.co/hDV9ubevH5
p1392
sg144
Vhttp://ltl.is/GgXVM
p1393
sbasg130
I537391819005657088
sbaa.