(lp0
S'nshaikh6677'
p1
a(lp2
ccopy_reg
_reconstructor
p3
(ctwitter
Status
p4
c__builtin__
object
p5
Ntp6
Rp7
(dp8
S'_favorite_count'
p9
I0
sS'_location'
p10
NsS'_withheld_scope'
p11
NsS'hashtags'
p12
(lp13
g3
(ctwitter
Hashtag
p14
g5
Ntp15
Rp16
(dp17
S'text'
p18
Vpeacocks
p19
sbag3
(g14
g5
Ntp20
Rp21
(dp22
g18
VBirds
p23
sbag3
(g14
g5
Ntp24
Rp25
(dp26
g18
VNikon
p27
sbasS'_truncated'
p28
I00
sS'_retweeted_status'
p29
g3
(g4
g5
Ntp30
Rp31
(dp32
g9
I4
sg10
Nsg11
Nsg12
(lp33
g3
(g14
g5
Ntp34
Rp35
(dp36
g18
Vpeacocks
p37
sbag3
(g14
g5
Ntp38
Rp39
(dp40
g18
VBirds
p41
sbag3
(g14
g5
Ntp42
Rp43
(dp44
g18
VNikon
p45
sbasg28
I00
sg29
NsS'_withheld_copyright'
p46
NsS'media'
p47
(lp48
(dp49
Vexpanded_url
p50
Vhttp://twitter.com/PhotoDiva19/status/536990449345761280/photo/1
p51
sVdisplay_url
p52
Vpic.twitter.com/5Y77a2g9wt
p53
sVurl
p54
Vhttp://t.co/5Y77a2g9wt
p55
sVmedia_url_https
p56
Vhttps://pbs.twimg.com/media/B3PF96DCYAA8OcL.jpg
p57
sVid_str
p58
V536990447931908096
p59
sVsizes
p60
(dp61
Vlarge
p62
(dp63
Vh
p64
I1152
sVresize
p65
Vfit
p66
sVw
p67
I1024
ssVsmall
p68
(dp69
Vh
p70
I382
sVresize
p71
Vfit
p72
sVw
p73
I340
ssVmedium
p74
(dp75
Vh
p76
I675
sVresize
p77
Vfit
p78
sVw
p79
I600
ssVthumb
p80
(dp81
Vh
p82
I150
sVresize
p83
Vcrop
p84
sVw
p85
I150
sssVindices
p86
(lp87
I113
aI135
asVtype
p88
Vphoto
p89
sVid
p90
I536990447931908096
sVmedia_url
p91
Vhttp://pbs.twimg.com/media/B3PF96DCYAA8OcL.jpg
p92
sasS'_place'
p93
NsS'_contributors'
p94
NsS'_current_user_retweet'
p95
NsS'_created_at'
p96
VMon Nov 24 21:11:14 +0000 2014
p97
sS'_scopes'
p98
NsS'_possibly_sensitive'
p99
I00
sS'_in_reply_to_screen_name'
p100
NsS'_coordinates'
p101
NsS'_in_reply_to_user_id'
p102
NsS'_geo'
p103
NsS'_favorited'
p104
I00
sS'_withheld_in_countries'
p105
NsS'user_mentions'
p106
(lp107
sS'_now'
p108
NsS'_id_str'
p109
V536990449345761280
p110
sS'_in_reply_to_status_id'
p111
NsS'_text'
p112
VThe collective name for a group of #peacocks is a party. A family of peacocks is    called a bevy. #Birds #Nikon http://t.co/5Y77a2g9wt
p113
sS'_retweeted'
p114
I00
sS'lang'
p115
Ven
p116
sS'_user'
p117
g3
(ctwitter
User
p118
g5
Ntp119
Rp120
(dp121
g10
VThe interweb
p122
sS'_profile_text_color'
p123
V000000
p124
sS'_lang'
p125
Ven
p126
sS'_time_zone'
p127
NsS'_followers_count'
p128
I123
sS'_statuses_count'
p129
I2976
sg96
VSat Aug 09 20:31:29 +0000 2014
p130
sS'_verified'
p131
I00
sS'_description'
p132
VA photographer who feeds people's obsession for bringing beauty into focus http://t.co/Y7GPuFXrdF http://t.co/XFmwhzrtiv
p133
sS'_profile_image_url'
p134
Vhttps://pbs.twimg.com/profile_images/498491006090629122/X7rI7lVI_normal.jpeg
p135
sS'_friends_count'
p136
I152
sS'_favourites_count'
p137
I155
sS'_utc_offset'
p138
NsS'_status'
p139
NsS'_protected'
p140
I00
sS'_profile_banner_url'
p141
Vhttps://pbs.twimg.com/profile_banners/2720124001/1407684642
p142
sS'_notifications'
p143
I00
sS'_profile_background_tile'
p144
I00
sS'_profile_link_color'
p145
V8C00B3
p146
sS'_geo_enabled'
p147
I00
sS'_contributors_enabled'
p148
I00
sS'_profile_background_image_url'
p149
Vhttp://abs.twimg.com/images/themes/theme1/bg.png
p150
sS'_screen_name'
p151
VPhotoDiva19
p152
sS'_listed_count'
p153
I2
sS'_name'
p154
VLeta Taklo Currier
p155
sS'_profile_sidebar_fill_color'
p156
V000000
p157
sS'_url'
p158
Vhttp://t.co/Z0gMHvSlpS
p159
sS'_id'
p160
I2720124001
sS'_profile_background_color'
p161
V000000
p162
sbsS'_retweet_count'
p163
I6
sS'_source'
p164
V<a href="http://twitter.com" rel="nofollow">Twitter Web Client</a>
p165
sS'urls'
p166
(lp167
sg160
I536990449345761280
sbsg46
Nsg47
(lp168
(dp169
Vsource_user_id
p170
I2720124001
sVsource_status_id_str
p171
V536990449345761280
p172
sVexpanded_url
p173
Vhttp://twitter.com/PhotoDiva19/status/536990449345761280/photo/1
p174
sVdisplay_url
p175
Vpic.twitter.com/5Y77a2g9wt
p176
sVurl
p177
Vhttp://t.co/5Y77a2g9wt
p178
sVmedia_url_https
p179
Vhttps://pbs.twimg.com/media/B3PF96DCYAA8OcL.jpg
p180
sVsource_user_id_str
p181
V2720124001
p182
sVsource_status_id
p183
I536990449345761280
sVid_str
p184
V536990447931908096
p185
sVsizes
p186
(dp187
Vlarge
p188
(dp189
Vh
p190
I1152
sVresize
p191
Vfit
p192
sVw
p193
I1024
ssVsmall
p194
(dp195
Vh
p196
I382
sVresize
p197
Vfit
p198
sVw
p199
I340
ssVmedium
p200
(dp201
Vh
p202
I675
sVresize
p203
Vfit
p204
sVw
p205
I600
ssVthumb
p206
(dp207
Vh
p208
I150
sVresize
p209
Vcrop
p210
sVw
p211
I150
sssVindices
p212
(lp213
I139
aI140
asVtype
p214
Vphoto
p215
sVid
p216
I536990447931908096
sVmedia_url
p217
Vhttp://pbs.twimg.com/media/B3PF96DCYAA8OcL.jpg
p218
sasg93
Nsg94
Nsg95
Nsg96
VSun Dec 14 19:01:43 +0000 2014
p219
sg98
Nsg99
I00
sg100
Nsg101
Nsg102
Nsg103
Nsg104
I00
sg105
Nsg106
(lp220
g3
(g118
g5
Ntp221
Rp222
(dp223
g10
Nsg123
Nsg125
Nsg127
Nsg128
Nsg129
Nsg96
Nsg131
Nsg132
Nsg134
Nsg136
Nsg137
Nsg138
Nsg139
Nsg140
Nsg141
Nsg143
Nsg144
Nsg145
Nsg147
Nsg148
Nsg149
Nsg151
VPhotoDiva19
p224
sg153
Nsg154
VLeta Taklo Currier
p225
sg156
Nsg158
Nsg160
I2720124001
sg161
Nsbasg108
Nsg109
V544205610753875968
p226
sg111
Nsg112
VRT @PhotoDiva19: The collective name for a group of #peacocks is a party. A family of peacocks is    called a bevy. #Birds #Nikon http://t.\u2026
p227
sg114
I00
sg115
Ven
p228
sg117
g3
(g118
g5
Ntp229
Rp230
(dp231
g10
VKarachi
p232
sg123
V333333
p233
sg125
Ven
p234
sg127
Nsg128
I2235
sg129
I33444
sg96
VSun Oct 13 10:11:19 +0000 2013
p235
sg131
I00
sg132
V
p236
sg134
Vhttps://pbs.twimg.com/profile_images/424960110956650496/RzeO6zE3_normal.jpeg
p237
sg136
I1999
sg137
I41237
sg138
Nsg139
Nsg140
I00
sg141
Vhttps://pbs.twimg.com/profile_banners/712399965/1385041858
p238
sg143
I00
sg144
I00
sg145
V0084B4
p239
sg147
I01
sg148
I00
sg149
Vhttp://abs.twimg.com/images/themes/theme1/bg.png
p240
sg151
Vnshaikh6677
p241
sg153
I27
sg154
VNasrullah Shaikh
p242
sg156
VDDEEF6
p243
sg158
Nsg160
I712399965
sg161
VC0DEED
p244
sbsg163
I6
sg164
V<a href="http://twitter.com/download/android" rel="nofollow">Twitter for Android</a>
p245
sg166
(lp246
sg160
I544205610753875968
sbag3
(g4
g5
Ntp247
Rp248
(dp249
g9
I0
sg10
Nsg11
Nsg12
(lp250
g3
(g14
g5
Ntp251
Rp252
(dp253
g18
VSiraj4Pakistan
p254
sbasg28
I00
sg29
Nsg46
Nsg47
(lp255
sg93
(dp256
Vfull_name
p257
VKarachi
p258
sVurl
p259
Vhttps://api.twitter.com/1.1/geo/id/01aadce76841e2c5.json
p260
sVcountry
p261
VPakistan
p262
sVplace_type
p263
Vcity
p264
sVbounding_box
p265
(dp266
Vtype
p267
VPolygon
p268
sVcoordinates
p269
(lp270
(lp271
(lp272
F66.95121
aF24.8022385
aa(lp273
F67.1331787
aF24.8022385
aa(lp274
F67.1331787
aF25.0079118
aa(lp275
F66.95121
aF25.0079118
aaassVcontained_within
p276
(lp277
sVcountry_code
p278
VPK
p279
sVattributes
p280
(dp281
sVid
p282
V01aadce76841e2c5
p283
sVname
p284
VKarachi
p285
ssg94
Nsg95
Nsg96
VSun Dec 14 19:00:17 +0000 2014
p286
sg98
Nsg99
Nsg100
Nsg101
(dp287
Vtype
p288
VPoint
p289
sVcoordinates
p290
(lp291
F67.0466805
aF24.9569075
assg102
Nsg103
(dp292
Vtype
p293
VPoint
p294
sVcoordinates
p295
(lp296
F24.9569075
aF67.0466805
assg104
I00
sg105
Nsg106
(lp297
g3
(g118
g5
Ntp298
Rp299
(dp300
g10
Nsg123
Nsg125
Nsg127
Nsg128
Nsg129
Nsg96
Nsg131
Nsg132
Nsg134
Nsg136
Nsg137
Nsg138
Nsg139
Nsg140
Nsg141
Nsg143
Nsg144
Nsg145
Nsg147
Nsg148
Nsg149
Nsg151
Vasad_usama
p301
sg153
Nsg154
VUsama Asad
p302
sg156
Nsg158
Nsg160
I454020747
sg161
Nsbasg108
Nsg109
V544205249905319936
p303
sg111
Nsg112
VRT "@asad_usama: #Siraj4Pakistan \u000a\u062c\u0628 \u0627\u06cc\u06a9 \u0648\u0632\u06cc\u0631 \u0627\u0639\u0644\u06cc \u0688\u0627\u0646\u0633 \u0645\u06cc\u06ba \u0645\u0635\u0631\u0648\u0641 \u062a\u06be\u0627 \u062a\u0628 \u0627\u06cc\u06a9 \u062f\u0631\u0648\u06cc\u0634 \u06a9\u06cc \u062c\u0645\u0627\u0639\u062a \u06a9\u06d2 \u0644\u0648\u06af \u067e\u0634\u0627\u0648\u0631 \u0628\u0627\u0631\u0634 \u0645\u062a\u0627\u062b\u0631\u06cc\u0646 \u06a9\u06d2 \u0633\u0627\u062a\u06be \u062a\u06be\u06d2"
p304
sg114
I00
sg115
Vur
p305
sg117
g3
(g118
g5
Ntp306
Rp307
(dp308
g10
VKarachi
p309
sg123
V333333
p310
sg125
Ven
p311
sg127
Nsg128
I2235
sg129
I33444
sg96
VSun Oct 13 10:11:19 +0000 2013
p312
sg131
I00
sg132
g236
sg134
Vhttps://pbs.twimg.com/profile_images/424960110956650496/RzeO6zE3_normal.jpeg
p313
sg136
I1999
sg137
I41237
sg138
Nsg139
Nsg140
I00
sg141
Vhttps://pbs.twimg.com/profile_banners/712399965/1385041858
p314
sg143
I00
sg144
I00
sg145
V0084B4
p315
sg147
I01
sg148
I00
sg149
Vhttp://abs.twimg.com/images/themes/theme1/bg.png
p316
sg151
Vnshaikh6677
p317
sg153
I27
sg154
VNasrullah Shaikh
p318
sg156
VDDEEF6
p319
sg158
Nsg160
I712399965
sg161
VC0DEED
p320
sbsg163
I0
sg164
V<a href="http://twitter.com/download/android" rel="nofollow">Twitter for Android</a>
p321
sg166
(lp322
sg160
I544205249905319936
sbag3
(g4
g5
Ntp323
Rp324
(dp325
g9
I0
sg10
Nsg11
Nsg12
(lp326
g3
(g14
g5
Ntp327
Rp328
(dp329
g18
VLove
p330
sbag3
(g14
g5
Ntp331
Rp332
(dp333
g18
VPakistan
p334
sbag3
(g14
g5
Ntp335
Rp336
(dp337
g18
VMyCountry
p338
sbag3
(g14
g5
Ntp339
Rp340
(dp341
g18
VMyPakistan
p342
sbag3
(g14
g5
Ntp343
Rp344
(dp345
g18
VIslamiPakistan
p346
sbasg28
I00
sg29
g3
(g4
g5
Ntp347
Rp348
(dp349
g9
I4
sg10
Nsg11
Nsg12
(lp350
g3
(g14
g5
Ntp351
Rp352
(dp353
g18
VLove
p354
sbag3
(g14
g5
Ntp355
Rp356
(dp357
g18
VPakistan
p358
sbag3
(g14
g5
Ntp359
Rp360
(dp361
g18
VMyCountry
p362
sbag3
(g14
g5
Ntp363
Rp364
(dp365
g18
VMyPakistan
p366
sbag3
(g14
g5
Ntp367
Rp368
(dp369
g18
VIslamiPakistan
p370
sbasg28
I00
sg29
Nsg46
Nsg47
(lp371
sg93
Nsg94
Nsg95
Nsg96
VSun Dec 14 18:47:01 +0000 2014
p372
sg98
Nsg99
Nsg100
Nsg101
Nsg102
Nsg103
Nsg104
I00
sg105
Nsg106
(lp373
g3
(g118
g5
Ntp374
Rp375
(dp376
g10
Nsg123
Nsg125
Nsg127
Nsg128
Nsg129
Nsg96
Nsg131
Nsg132
Nsg134
Nsg136
Nsg137
Nsg138
Nsg139
Nsg140
Nsg141
Nsg143
Nsg144
Nsg145
Nsg147
Nsg148
Nsg149
Nsg151
VSirajOfficial
p377
sg153
Nsg154
VSiraj ul Haq
p378
sg156
Nsg158
Nsg160
I549630210
sg161
Nsbag3
(g118
g5
Ntp379
Rp380
(dp381
g10
Nsg123
Nsg125
Nsg127
Nsg128
Nsg129
Nsg96
Nsg131
Nsg132
Nsg134
Nsg136
Nsg137
Nsg138
Nsg139
Nsg140
Nsg141
Nsg143
Nsg144
Nsg145
Nsg147
Nsg148
Nsg149
Nsg151
Vliaqatbalochji
p382
sg153
Nsg154
VLiaqat Baloch
p383
sg156
Nsg158
Nsg160
I456769589
sg161
Nsbag3
(g118
g5
Ntp384
Rp385
(dp386
g10
Nsg123
Nsg125
Nsg127
Nsg128
Nsg129
Nsg96
Nsg131
Nsg132
Nsg134
Nsg136
Nsg137
Nsg138
Nsg139
Nsg140
Nsg141
Nsg143
Nsg144
Nsg145
Nsg147
Nsg148
Nsg149
Nsg151
VShamsAmjadJI
p387
sg153
Nsg154
VShamsuddin Amjad
p388
sg156
Nsg158
Nsg160
I1305542004
sg161
Nsbag3
(g118
g5
Ntp389
Rp390
(dp391
g10
Nsg123
Nsg125
Nsg127
Nsg128
Nsg129
Nsg96
Nsg131
Nsg132
Nsg134
Nsg136
Nsg137
Nsg138
Nsg139
Nsg140
Nsg141
Nsg143
Nsg144
Nsg145
Nsg147
Nsg148
Nsg149
Nsg151
VSaadMaqsood2
p392
sg153
Nsg154
VSaad Maqsood
p393
sg156
Nsg158
Nsg160
I519419812
sg161
Nsbag3
(g118
g5
Ntp394
Rp395
(dp396
g10
Nsg123
Nsg125
Nsg127
Nsg128
Nsg129
Nsg96
Nsg131
Nsg132
Nsg134
Nsg136
Nsg137
Nsg138
Nsg139
Nsg140
Nsg141
Nsg143
Nsg144
Nsg145
Nsg147
Nsg148
Nsg149
Nsg151
Vuabas
p397
sg153
Nsg154
Vumer abbas 
p398
sg156
Nsg158
Nsg160
I123792883
sg161
Nsbag3
(g118
g5
Ntp399
Rp400
(dp401
g10
Nsg123
Nsg125
Nsg127
Nsg128
Nsg129
Nsg96
Nsg131
Nsg132
Nsg134
Nsg136
Nsg137
Nsg138
Nsg139
Nsg140
Nsg141
Nsg143
Nsg144
Nsg145
Nsg147
Nsg148
Nsg149
Nsg151
Vdrmerajs
p402
sg153
Nsg154
Vdr.meraj siddiqui
p403
sg156
Nsg158
Nsg160
I146353906
sg161
Nsbasg108
Nsg109
V544201912736690176
p404
sg111
Nsg112
V#Love You #Pakistan\u000a#MyCountry #MyPakistan #IslamiPakistan \u000a@SirajOfficial @liaqatbalochji @ShamsAmjadJI @SaadMaqsood2 @uabas @drmerajs
p405
sg114
I00
sg115
Vund
p406
sg117
g3
(g118
g5
Ntp407
Rp408
(dp409
g10
g236
sg123
V333333
p410
sg125
Ven
p411
sg127
VIslamabad
p412
sg128
I404
sg129
I6489
sg96
VSat Jun 26 05:46:58 +0000 2010
p413
sg131
I00
sg132
VAn Telecom Engineer by profession, But first it is my responsibility to find, what is the purpose of my Life...?
p414
sg134
Vhttps://pbs.twimg.com/profile_images/542378017729699840/u-Bbsl68_normal.jpeg
p415
sg136
I762
sg137
I3390
sg138
I18000
sg139
Nsg140
I00
sg141
Vhttps://pbs.twimg.com/profile_banners/159736384/1380966661
p416
sg143
I00
sg144
I00
sg145
VCC3366
p417
sg147
I00
sg148
I00
sg149
Vhttp://abs.twimg.com/images/themes/theme17/bg.gif
p418
sg151
Vmeetzahid
p419
sg153
I0
sg154
VRana M Zahid
p420
sg156
VE6F6F9
p421
sg158
Nsg160
I159736384
sg161
VCC3366
p422
sbsg163
I3
sg164
V<a href="http://twitter.com" rel="nofollow">Twitter Web Client</a>
p423
sg166
(lp424
sg160
I544201912736690176
sbsg46
Nsg47
(lp425
sg93
Nsg94
Nsg95
Nsg96
VSun Dec 14 18:57:23 +0000 2014
p426
sg98
Nsg99
Nsg100
Nsg101
Nsg102
Nsg103
Nsg104
I00
sg105
Nsg106
(lp427
g3
(g118
g5
Ntp428
Rp429
(dp430
g10
Nsg123
Nsg125
Nsg127
Nsg128
Nsg129
Nsg96
Nsg131
Nsg132
Nsg134
Nsg136
Nsg137
Nsg138
Nsg139
Nsg140
Nsg141
Nsg143
Nsg144
Nsg145
Nsg147
Nsg148
Nsg149
Nsg151
Vmeetzahid
p431
sg153
Nsg154
VRana M Zahid
p432
sg156
Nsg158
Nsg160
I159736384
sg161
Nsbag3
(g118
g5
Ntp433
Rp434
(dp435
g10
Nsg123
Nsg125
Nsg127
Nsg128
Nsg129
Nsg96
Nsg131
Nsg132
Nsg134
Nsg136
Nsg137
Nsg138
Nsg139
Nsg140
Nsg141
Nsg143
Nsg144
Nsg145
Nsg147
Nsg148
Nsg149
Nsg151
VSirajOfficial
p436
sg153
Nsg154
VSiraj ul Haq
p437
sg156
Nsg158
Nsg160
I549630210
sg161
Nsbag3
(g118
g5
Ntp438
Rp439
(dp440
g10
Nsg123
Nsg125
Nsg127
Nsg128
Nsg129
Nsg96
Nsg131
Nsg132
Nsg134
Nsg136
Nsg137
Nsg138
Nsg139
Nsg140
Nsg141
Nsg143
Nsg144
Nsg145
Nsg147
Nsg148
Nsg149
Nsg151
Vliaqatbalochji
p441
sg153
Nsg154
VLiaqat Baloch
p442
sg156
Nsg158
Nsg160
I456769589
sg161
Nsbag3
(g118
g5
Ntp443
Rp444
(dp445
g10
Nsg123
Nsg125
Nsg127
Nsg128
Nsg129
Nsg96
Nsg131
Nsg132
Nsg134
Nsg136
Nsg137
Nsg138
Nsg139
Nsg140
Nsg141
Nsg143
Nsg144
Nsg145
Nsg147
Nsg148
Nsg149
Nsg151
VShamsAmjadJI
p446
sg153
Nsg154
VShamsuddin Amjad
p447
sg156
Nsg158
Nsg160
I1305542004
sg161
Nsbag3
(g118
g5
Ntp448
Rp449
(dp450
g10
Nsg123
Nsg125
Nsg127
Nsg128
Nsg129
Nsg96
Nsg131
Nsg132
Nsg134
Nsg136
Nsg137
Nsg138
Nsg139
Nsg140
Nsg141
Nsg143
Nsg144
Nsg145
Nsg147
Nsg148
Nsg149
Nsg151
VSaadMaqsood2
p451
sg153
Nsg154
VSaad Maqsood
p452
sg156
Nsg158
Nsg160
I519419812
sg161
Nsbag3
(g118
g5
Ntp453
Rp454
(dp455
g10
Nsg123
Nsg125
Nsg127
Nsg128
Nsg129
Nsg96
Nsg131
Nsg132
Nsg134
Nsg136
Nsg137
Nsg138
Nsg139
Nsg140
Nsg141
Nsg143
Nsg144
Nsg145
Nsg147
Nsg148
Nsg149
Nsg151
Vuabas
p456
sg153
Nsg154
Vumer abbas 
p457
sg156
Nsg158
Nsg160
I123792883
sg161
Nsbag3
(g118
g5
Ntp458
Rp459
(dp460
g10
Nsg123
Nsg125
Nsg127
Nsg128
Nsg129
Nsg96
Nsg131
Nsg132
Nsg134
Nsg136
Nsg137
Nsg138
Nsg139
Nsg140
Nsg141
Nsg143
Nsg144
Nsg145
Nsg147
Nsg148
Nsg149
Nsg151
Vdrmerajs
p461
sg153
Nsg154
Vdr.meraj siddiqui
p462
sg156
Nsg158
Nsg160
I146353906
sg161
Nsbasg108
Nsg109
V544204520167714816
p463
sg111
Nsg112
VRT @meetzahid: #Love You #Pakistan\u000a#MyCountry #MyPakistan #IslamiPakistan \u000a@SirajOfficial @liaqatbalochji @ShamsAmjadJI @SaadMaqsood2 @uaba\u2026
p464
sg114
I00
sg115
Vund
p465
sg117
g3
(g118
g5
Ntp466
Rp467
(dp468
g10
VKarachi
p469
sg123
V333333
p470
sg125
Ven
p471
sg127
Nsg128
I2235
sg129
I33444
sg96
VSun Oct 13 10:11:19 +0000 2013
p472
sg131
I00
sg132
g236
sg134
Vhttps://pbs.twimg.com/profile_images/424960110956650496/RzeO6zE3_normal.jpeg
p473
sg136
I1999
sg137
I41237
sg138
Nsg139
Nsg140
I00
sg141
Vhttps://pbs.twimg.com/profile_banners/712399965/1385041858
p474
sg143
I00
sg144
I00
sg145
V0084B4
p475
sg147
I01
sg148
I00
sg149
Vhttp://abs.twimg.com/images/themes/theme1/bg.png
p476
sg151
Vnshaikh6677
p477
sg153
I27
sg154
VNasrullah Shaikh
p478
sg156
VDDEEF6
p479
sg158
Nsg160
I712399965
sg161
VC0DEED
p480
sbsg163
I3
sg164
V<a href="http://twitter.com/download/android" rel="nofollow">Twitter for Android</a>
p481
sg166
(lp482
sg160
I544204520167714816
sbag3
(g4
g5
Ntp483
Rp484
(dp485
g9
I0
sg10
Nsg11
Nsg12
(lp486
sg28
I00
sg29
g3
(g4
g5
Ntp487
Rp488
(dp489
g9
I25
sg10
Nsg11
Nsg12
(lp490
sg28
I00
sg29
Nsg46
Nsg47
(lp491
(dp492
Vsource_user_id
p493
I253003217
sVsource_status_id_str
p494
V428306667969576960
p495
sVexpanded_url
p496
Vhttp://twitter.com/CutestAnimalsPi/status/428306667969576960/photo/1
p497
sVdisplay_url
p498
Vpic.twitter.com/KjLo2miCkp
p499
sVurl
p500
Vhttp://t.co/KjLo2miCkp
p501
sVmedia_url_https
p502
Vhttps://pbs.twimg.com/media/BfGmpS_CAAAjXNj.jpg
p503
sVsource_user_id_str
p504
V253003217
p505
sVsource_status_id
p506
I428306667969576960
sVid_str
p507
V428306667977965568
p508
sVsizes
p509
(dp510
Vlarge
p511
(dp512
Vh
p513
I640
sVresize
p514
Vfit
p515
sVw
p516
I1024
ssVsmall
p517
(dp518
Vh
p519
I212
sVresize
p520
Vfit
p521
sVw
p522
I340
ssVmedium
p523
(dp524
Vh
p525
I375
sVresize
p526
Vfit
p527
sVw
p528
I600
ssVthumb
p529
(dp530
Vh
p531
I150
sVresize
p532
Vcrop
p533
sVw
p534
I150
sssVindices
p535
(lp536
I0
aI22
asVtype
p537
Vphoto
p538
sVid
p539
I428306667977965568
sVmedia_url
p540
Vhttp://pbs.twimg.com/media/BfGmpS_CAAAjXNj.jpg
p541
sasg93
Nsg94
Nsg95
Nsg96
VSun Dec 14 00:00:03 +0000 2014
p542
sg98
Nsg99
I00
sg100
Nsg101
Nsg102
Nsg103
Nsg104
I00
sg105
Nsg106
(lp543
sg108
Nsg109
V543918302834085890
p544
sg111
Nsg112
Vhttp://t.co/KjLo2miCkp
p545
sg114
I00
sg115
Vund
p546
sg117
g3
(g118
g5
Ntp547
Rp548
(dp549
g10
g236
sg123
V333333
p550
sg125
Ven
p551
sg127
VCentral Time (US & Canada)
p552
sg128
I34425
sg129
I16816
sg96
VWed Feb 16 10:49:50 +0000 2011
p553
sg131
I00
sg132
g236
sg134
Vhttps://pbs.twimg.com/profile_images/428607162948919296/acIWGxG__normal.jpeg
p554
sg136
I24734
sg137
I0
sg138
I-21600
sg139
Nsg140
I00
sg141
Vhttps://pbs.twimg.com/profile_banners/253003190/1391023238
p555
sg143
I00
sg144
I00
sg145
VFF3300
p556
sg147
I00
sg148
I00
sg149
Vhttp://abs.twimg.com/images/themes/theme6/bg.gif
p557
sg151
VCutestAnimalsPh
p558
sg153
I145
sg154
VCutest Animals
p559
sg156
VA0C5C7
p560
sg158
Nsg160
I253003190
sg161
V709397
p561
sbsg163
I21
sg164
V<a href="http://www.kucukbeyin.com/" rel="nofollow">CutePuppyPhoto</a>
p562
sg166
(lp563
sg160
I543918302834085890
sbsg46
Nsg47
(lp564
(dp565
Vsource_user_id
p566
I253003217
sVsource_status_id_str
p567
V428306667969576960
p568
sVexpanded_url
p569
Vhttp://twitter.com/CutestAnimalsPi/status/428306667969576960/photo/1
p570
sVdisplay_url
p571
Vpic.twitter.com/KjLo2miCkp
p572
sVurl
p573
Vhttp://t.co/KjLo2miCkp
p574
sVmedia_url_https
p575
Vhttps://pbs.twimg.com/media/BfGmpS_CAAAjXNj.jpg
p576
sVsource_user_id_str
p577
V253003217
p578
sVsource_status_id
p579
I428306667969576960
sVid_str
p580
V428306667977965568
p581
sVsizes
p582
(dp583
Vlarge
p584
(dp585
Vh
p586
I640
sVresize
p587
Vfit
p588
sVw
p589
I1024
ssVsmall
p590
(dp591
Vh
p592
I212
sVresize
p593
Vfit
p594
sVw
p595
I340
ssVmedium
p596
(dp597
Vh
p598
I375
sVresize
p599
Vfit
p600
sVw
p601
I600
ssVthumb
p602
(dp603
Vh
p604
I150
sVresize
p605
Vcrop
p606
sVw
p607
I150
sssVindices
p608
(lp609
I21
aI43
asVtype
p610
Vphoto
p611
sVid
p612
I428306667977965568
sVmedia_url
p613
Vhttp://pbs.twimg.com/media/BfGmpS_CAAAjXNj.jpg
p614
sasg93
Nsg94
Nsg95
Nsg96
VSun Dec 14 18:49:54 +0000 2014
p615
sg98
Nsg99
I00
sg100
Nsg101
Nsg102
Nsg103
Nsg104
I00
sg105
Nsg106
(lp616
g3
(g118
g5
Ntp617
Rp618
(dp619
g10
Nsg123
Nsg125
Nsg127
Nsg128
Nsg129
Nsg96
Nsg131
Nsg132
Nsg134
Nsg136
Nsg137
Nsg138
Nsg139
Nsg140
Nsg141
Nsg143
Nsg144
Nsg145
Nsg147
Nsg148
Nsg149
Nsg151
VCutestAnimalsPh
p620
sg153
Nsg154
VCutest Animals
p621
sg156
Nsg158
Nsg160
I253003190
sg161
Nsbasg108
Nsg109
V544202638737166337
p622
sg111
Nsg112
VRT @CutestAnimalsPh: http://t.co/KjLo2miCkp
p623
sg114
I00
sg115
Vund
p624
sg117
g3
(g118
g5
Ntp625
Rp626
(dp627
g10
VKarachi
p628
sg123
V333333
p629
sg125
Ven
p630
sg127
Nsg128
I2235
sg129
I33444
sg96
VSun Oct 13 10:11:19 +0000 2013
p631
sg131
I00
sg132
g236
sg134
Vhttps://pbs.twimg.com/profile_images/424960110956650496/RzeO6zE3_normal.jpeg
p632
sg136
I1999
sg137
I41237
sg138
Nsg139
Nsg140
I00
sg141
Vhttps://pbs.twimg.com/profile_banners/712399965/1385041858
p633
sg143
I00
sg144
I00
sg145
V0084B4
p634
sg147
I01
sg148
I00
sg149
Vhttp://abs.twimg.com/images/themes/theme1/bg.png
p635
sg151
Vnshaikh6677
p636
sg153
I27
sg154
VNasrullah Shaikh
p637
sg156
VDDEEF6
p638
sg158
Nsg160
I712399965
sg161
VC0DEED
p639
sbsg163
I21
sg164
V<a href="http://twitter.com/download/android" rel="nofollow">Twitter for Android</a>
p640
sg166
(lp641
sg160
I544202638737166337
sbag3
(g4
g5
Ntp642
Rp643
(dp644
g9
I0
sg10
Nsg11
Nsg12
(lp645
sg28
I00
sg29
g3
(g4
g5
Ntp646
Rp647
(dp648
g9
I31
sg10
Nsg11
Nsg12
(lp649
sg28
I00
sg29
Nsg46
Nsg47
(lp650
(dp651
Vsource_user_id
p652
I253003217
sVsource_status_id_str
p653
V428472545952538624
p654
sVexpanded_url
p655
Vhttp://twitter.com/CutestAnimalsPi/status/428472545952538624/photo/1
p656
sVdisplay_url
p657
Vpic.twitter.com/9XcDMZurIe
p658
sVurl
p659
Vhttp://t.co/9XcDMZurIe
p660
sVmedia_url_https
p661
Vhttps://pbs.twimg.com/media/BfI9gqnCIAAbpDs.jpg
p662
sVsource_user_id_str
p663
V253003217
p664
sVsource_status_id
p665
I428472545952538624
sVid_str
p666
V428472545956732928
p667
sVsizes
p668
(dp669
Vlarge
p670
(dp671
Vh
p672
I640
sVresize
p673
Vfit
p674
sVw
p675
I1024
ssVsmall
p676
(dp677
Vh
p678
I212
sVresize
p679
Vfit
p680
sVw
p681
I340
ssVmedium
p682
(dp683
Vh
p684
I375
sVresize
p685
Vfit
p686
sVw
p687
I600
ssVthumb
p688
(dp689
Vh
p690
I150
sVresize
p691
Vcrop
p692
sVw
p693
I150
sssVindices
p694
(lp695
I0
aI22
asVtype
p696
Vphoto
p697
sVid
p698
I428472545956732928
sVmedia_url
p699
Vhttp://pbs.twimg.com/media/BfI9gqnCIAAbpDs.jpg
p700
sasg93
Nsg94
Nsg95
Nsg96
VSun Dec 14 01:00:03 +0000 2014
p701
sg98
Nsg99
I00
sg100
Nsg101
Nsg102
Nsg103
Nsg104
I00
sg105
Nsg106
(lp702
sg108
Nsg109
V543933401787428866
p703
sg111
Nsg112
Vhttp://t.co/9XcDMZurIe
p704
sg114
I00
sg115
Vund
p705
sg117
g3
(g118
g5
Ntp706
Rp707
(dp708
g10
g236
sg123
V333333
p709
sg125
Ven
p710
sg127
VCentral Time (US & Canada)
p711
sg128
I34425
sg129
I16816
sg96
VWed Feb 16 10:49:50 +0000 2011
p712
sg131
I00
sg132
g236
sg134
Vhttps://pbs.twimg.com/profile_images/428607162948919296/acIWGxG__normal.jpeg
p713
sg136
I24734
sg137
I0
sg138
I-21600
sg139
Nsg140
I00
sg141
Vhttps://pbs.twimg.com/profile_banners/253003190/1391023238
p714
sg143
I00
sg144
I00
sg145
VFF3300
p715
sg147
I00
sg148
I00
sg149
Vhttp://abs.twimg.com/images/themes/theme6/bg.gif
p716
sg151
VCutestAnimalsPh
p717
sg153
I145
sg154
VCutest Animals
p718
sg156
VA0C5C7
p719
sg158
Nsg160
I253003190
sg161
V709397
p720
sbsg163
I21
sg164
V<a href="http://www.kucukbeyin.com/" rel="nofollow">CutePuppyPhoto</a>
p721
sg166
(lp722
sg160
I543933401787428866
sbsg46
Nsg47
(lp723
(dp724
Vsource_user_id
p725
I253003217
sVsource_status_id_str
p726
V428472545952538624
p727
sVexpanded_url
p728
Vhttp://twitter.com/CutestAnimalsPi/status/428472545952538624/photo/1
p729
sVdisplay_url
p730
Vpic.twitter.com/9XcDMZurIe
p731
sVurl
p732
Vhttp://t.co/9XcDMZurIe
p733
sVmedia_url_https
p734
Vhttps://pbs.twimg.com/media/BfI9gqnCIAAbpDs.jpg
p735
sVsource_user_id_str
p736
V253003217
p737
sVsource_status_id
p738
I428472545952538624
sVid_str
p739
V428472545956732928
p740
sVsizes
p741
(dp742
Vlarge
p743
(dp744
Vh
p745
I640
sVresize
p746
Vfit
p747
sVw
p748
I1024
ssVsmall
p749
(dp750
Vh
p751
I212
sVresize
p752
Vfit
p753
sVw
p754
I340
ssVmedium
p755
(dp756
Vh
p757
I375
sVresize
p758
Vfit
p759
sVw
p760
I600
ssVthumb
p761
(dp762
Vh
p763
I150
sVresize
p764
Vcrop
p765
sVw
p766
I150
sssVindices
p767
(lp768
I21
aI43
asVtype
p769
Vphoto
p770
sVid
p771
I428472545956732928
sVmedia_url
p772
Vhttp://pbs.twimg.com/media/BfI9gqnCIAAbpDs.jpg
p773
sasg93
Nsg94
Nsg95
Nsg96
VSun Dec 14 18:49:51 +0000 2014
p774
sg98
Nsg99
I00
sg100
Nsg101
Nsg102
Nsg103
Nsg104
I00
sg105
Nsg106
(lp775
g3
(g118
g5
Ntp776
Rp777
(dp778
g10
Nsg123
Nsg125
Nsg127
Nsg128
Nsg129
Nsg96
Nsg131
Nsg132
Nsg134
Nsg136
Nsg137
Nsg138
Nsg139
Nsg140
Nsg141
Nsg143
Nsg144
Nsg145
Nsg147
Nsg148
Nsg149
Nsg151
VCutestAnimalsPh
p779
sg153
Nsg154
VCutest Animals
p780
sg156
Nsg158
Nsg160
I253003190
sg161
Nsbasg108
Nsg109
V544202623964823554
p781
sg111
Nsg112
VRT @CutestAnimalsPh: http://t.co/9XcDMZurIe
p782
sg114
I00
sg115
Vund
p783
sg117
g3
(g118
g5
Ntp784
Rp785
(dp786
g10
VKarachi
p787
sg123
V333333
p788
sg125
Ven
p789
sg127
Nsg128
I2235
sg129
I33444
sg96
VSun Oct 13 10:11:19 +0000 2013
p790
sg131
I00
sg132
g236
sg134
Vhttps://pbs.twimg.com/profile_images/424960110956650496/RzeO6zE3_normal.jpeg
p791
sg136
I1999
sg137
I41237
sg138
Nsg139
Nsg140
I00
sg141
Vhttps://pbs.twimg.com/profile_banners/712399965/1385041858
p792
sg143
I00
sg144
I00
sg145
V0084B4
p793
sg147
I01
sg148
I00
sg149
Vhttp://abs.twimg.com/images/themes/theme1/bg.png
p794
sg151
Vnshaikh6677
p795
sg153
I27
sg154
VNasrullah Shaikh
p796
sg156
VDDEEF6
p797
sg158
Nsg160
I712399965
sg161
VC0DEED
p798
sbsg163
I21
sg164
V<a href="http://twitter.com/download/android" rel="nofollow">Twitter for Android</a>
p799
sg166
(lp800
sg160
I544202623964823554
sbag3
(g4
g5
Ntp801
Rp802
(dp803
g9
I0
sg10
Nsg11
Nsg12
(lp804
sg28
I00
sg29
g3
(g4
g5
Ntp805
Rp806
(dp807
g9
I47
sg10
Nsg11
Nsg12
(lp808
sg28
I00
sg29
Nsg46
Nsg47
(lp809
(dp810
Vsource_user_id
p811
I253003217
sVsource_status_id_str
p812
V428676585018118145
p813
sVexpanded_url
p814
Vhttp://twitter.com/CutestAnimalsPi/status/428676585018118145/photo/1
p815
sVdisplay_url
p816
Vpic.twitter.com/ZOcGZGyctD
p817
sVurl
p818
Vhttp://t.co/ZOcGZGyctD
p819
sVmedia_url_https
p820
Vhttps://pbs.twimg.com/media/BfL3FSuIcAAXIyJ.jpg
p821
sVsource_user_id_str
p822
V253003217
p823
sVsource_status_id
p824
I428676585018118145
sVid_str
p825
V428676584850354176
p826
sVsizes
p827
(dp828
Vlarge
p829
(dp830
Vh
p831
I433
sVresize
p832
Vfit
p833
sVw
p834
I500
ssVsmall
p835
(dp836
Vh
p837
I294
sVresize
p838
Vfit
p839
sVw
p840
I340
ssVmedium
p841
(dp842
Vh
p843
I433
sVresize
p844
Vfit
p845
sVw
p846
I500
ssVthumb
p847
(dp848
Vh
p849
I150
sVresize
p850
Vcrop
p851
sVw
p852
I150
sssVindices
p853
(lp854
I0
aI22
asVtype
p855
Vphoto
p856
sVid
p857
I428676584850354176
sVmedia_url
p858
Vhttp://pbs.twimg.com/media/BfL3FSuIcAAXIyJ.jpg
p859
sasg93
Nsg94
Nsg95
Nsg96
VSun Dec 14 01:30:03 +0000 2014
p860
sg98
Nsg99
I00
sg100
Nsg101
Nsg102
Nsg103
Nsg104
I00
sg105
Nsg106
(lp861
sg108
Nsg109
V543940952717402112
p862
sg111
Nsg112
Vhttp://t.co/ZOcGZGyctD
p863
sg114
I00
sg115
Vund
p864
sg117
g3
(g118
g5
Ntp865
Rp866
(dp867
g10
g236
sg123
V333333
p868
sg125
Ven
p869
sg127
VCentral Time (US & Canada)
p870
sg128
I34425
sg129
I16816
sg96
VWed Feb 16 10:49:50 +0000 2011
p871
sg131
I00
sg132
g236
sg134
Vhttps://pbs.twimg.com/profile_images/428607162948919296/acIWGxG__normal.jpeg
p872
sg136
I24734
sg137
I0
sg138
I-21600
sg139
Nsg140
I00
sg141
Vhttps://pbs.twimg.com/profile_banners/253003190/1391023238
p873
sg143
I00
sg144
I00
sg145
VFF3300
p874
sg147
I00
sg148
I00
sg149
Vhttp://abs.twimg.com/images/themes/theme6/bg.gif
p875
sg151
VCutestAnimalsPh
p876
sg153
I145
sg154
VCutest Animals
p877
sg156
VA0C5C7
p878
sg158
Nsg160
I253003190
sg161
V709397
p879
sbsg163
I49
sg164
V<a href="http://www.kucukbeyin.com/" rel="nofollow">CutePuppyPhoto</a>
p880
sg166
(lp881
sg160
I543940952717402112
sbsg46
Nsg47
(lp882
(dp883
Vsource_user_id
p884
I253003217
sVsource_status_id_str
p885
V428676585018118145
p886
sVexpanded_url
p887
Vhttp://twitter.com/CutestAnimalsPi/status/428676585018118145/photo/1
p888
sVdisplay_url
p889
Vpic.twitter.com/ZOcGZGyctD
p890
sVurl
p891
Vhttp://t.co/ZOcGZGyctD
p892
sVmedia_url_https
p893
Vhttps://pbs.twimg.com/media/BfL3FSuIcAAXIyJ.jpg
p894
sVsource_user_id_str
p895
V253003217
p896
sVsource_status_id
p897
I428676585018118145
sVid_str
p898
V428676584850354176
p899
sVsizes
p900
(dp901
Vlarge
p902
(dp903
Vh
p904
I433
sVresize
p905
Vfit
p906
sVw
p907
I500
ssVsmall
p908
(dp909
Vh
p910
I294
sVresize
p911
Vfit
p912
sVw
p913
I340
ssVmedium
p914
(dp915
Vh
p916
I433
sVresize
p917
Vfit
p918
sVw
p919
I500
ssVthumb
p920
(dp921
Vh
p922
I150
sVresize
p923
Vcrop
p924
sVw
p925
I150
sssVindices
p926
(lp927
I21
aI43
asVtype
p928
Vphoto
p929
sVid
p930
I428676584850354176
sVmedia_url
p931
Vhttp://pbs.twimg.com/media/BfL3FSuIcAAXIyJ.jpg
p932
sasg93
Nsg94
Nsg95
Nsg96
VSun Dec 14 18:49:48 +0000 2014
p933
sg98
Nsg99
I00
sg100
Nsg101
Nsg102
Nsg103
Nsg104
I00
sg105
Nsg106
(lp934
g3
(g118
g5
Ntp935
Rp936
(dp937
g10
Nsg123
Nsg125
Nsg127
Nsg128
Nsg129
Nsg96
Nsg131
Nsg132
Nsg134
Nsg136
Nsg137
Nsg138
Nsg139
Nsg140
Nsg141
Nsg143
Nsg144
Nsg145
Nsg147
Nsg148
Nsg149
Nsg151
VCutestAnimalsPh
p938
sg153
Nsg154
VCutest Animals
p939
sg156
Nsg158
Nsg160
I253003190
sg161
Nsbasg108
Nsg109
V544202613256769537
p940
sg111
Nsg112
VRT @CutestAnimalsPh: http://t.co/ZOcGZGyctD
p941
sg114
I00
sg115
Vund
p942
sg117
g3
(g118
g5
Ntp943
Rp944
(dp945
g10
VKarachi
p946
sg123
V333333
p947
sg125
Ven
p948
sg127
Nsg128
I2235
sg129
I33444
sg96
VSun Oct 13 10:11:19 +0000 2013
p949
sg131
I00
sg132
g236
sg134
Vhttps://pbs.twimg.com/profile_images/424960110956650496/RzeO6zE3_normal.jpeg
p950
sg136
I1999
sg137
I41237
sg138
Nsg139
Nsg140
I00
sg141
Vhttps://pbs.twimg.com/profile_banners/712399965/1385041858
p951
sg143
I00
sg144
I00
sg145
V0084B4
p952
sg147
I01
sg148
I00
sg149
Vhttp://abs.twimg.com/images/themes/theme1/bg.png
p953
sg151
Vnshaikh6677
p954
sg153
I27
sg154
VNasrullah Shaikh
p955
sg156
VDDEEF6
p956
sg158
Nsg160
I712399965
sg161
VC0DEED
p957
sbsg163
I49
sg164
V<a href="http://twitter.com/download/android" rel="nofollow">Twitter for Android</a>
p958
sg166
(lp959
sg160
I544202613256769537
sbag3
(g4
g5
Ntp960
Rp961
(dp962
g9
I0
sg10
Nsg11
Nsg12
(lp963
sg28
I00
sg29
g3
(g4
g5
Ntp964
Rp965
(dp966
g9
I42
sg10
Nsg11
Nsg12
(lp967
sg28
I00
sg29
Nsg46
Nsg47
(lp968
(dp969
Vsource_user_id
p970
I253003217
sVsource_status_id_str
p971
V428915011268796417
p972
sVexpanded_url
p973
Vhttp://twitter.com/CutestAnimalsPi/status/428915011268796417/photo/1
p974
sVdisplay_url
p975
Vpic.twitter.com/2WdApAdTZ9
p976
sVurl
p977
Vhttp://t.co/2WdApAdTZ9
p978
sVmedia_url_https
p979
Vhttps://pbs.twimg.com/media/BfPP7iYCYAAOhPS.jpg
p980
sVsource_user_id_str
p981
V253003217
p982
sVsource_status_id
p983
I428915011268796417
sVid_str
p984
V428915011277185024
p985
sVsizes
p986
(dp987
Vsmall
p988
(dp989
Vh
p990
I191
sVresize
p991
Vfit
p992
sVw
p993
I340
ssVlarge
p994
(dp995
Vh
p996
I576
sVresize
p997
Vfit
p998
sVw
p999
I1024
ssVmedium
p1000
(dp1001
Vh
p1002
I337
sVresize
p1003
Vfit
p1004
sVw
p1005
I600
ssVthumb
p1006
(dp1007
Vh
p1008
I150
sVresize
p1009
Vcrop
p1010
sVw
p1011
I150
sssVindices
p1012
(lp1013
I0
aI22
asVtype
p1014
Vphoto
p1015
sVid
p1016
I428915011277185024
sVmedia_url
p1017
Vhttp://pbs.twimg.com/media/BfPP7iYCYAAOhPS.jpg
p1018
sasg93
Nsg94
Nsg95
Nsg96
VSun Dec 14 02:00:04 +0000 2014
p1019
sg98
Nsg99
I00
sg100
Nsg101
Nsg102
Nsg103
Nsg104
I00
sg105
Nsg106
(lp1020
sg108
Nsg109
V543948504196870145
p1021
sg111
Nsg112
Vhttp://t.co/2WdApAdTZ9
p1022
sg114
I00
sg115
Vund
p1023
sg117
g3
(g118
g5
Ntp1024
Rp1025
(dp1026
g10
g236
sg123
V333333
p1027
sg125
Ven
p1028
sg127
VCentral Time (US & Canada)
p1029
sg128
I34425
sg129
I16816
sg96
VWed Feb 16 10:49:50 +0000 2011
p1030
sg131
I00
sg132
g236
sg134
Vhttps://pbs.twimg.com/profile_images/428607162948919296/acIWGxG__normal.jpeg
p1031
sg136
I24734
sg137
I0
sg138
I-21600
sg139
Nsg140
I00
sg141
Vhttps://pbs.twimg.com/profile_banners/253003190/1391023238
p1032
sg143
I00
sg144
I00
sg145
VFF3300
p1033
sg147
I00
sg148
I00
sg149
Vhttp://abs.twimg.com/images/themes/theme6/bg.gif
p1034
sg151
VCutestAnimalsPh
p1035
sg153
I145
sg154
VCutest Animals
p1036
sg156
VA0C5C7
p1037
sg158
Nsg160
I253003190
sg161
V709397
p1038
sbsg163
I33
sg164
V<a href="http://www.kucukbeyin.com/" rel="nofollow">CutePuppyPhoto</a>
p1039
sg166
(lp1040
sg160
I543948504196870145
sbsg46
Nsg47
(lp1041
(dp1042
Vsource_user_id
p1043
I253003217
sVsource_status_id_str
p1044
V428915011268796417
p1045
sVexpanded_url
p1046
Vhttp://twitter.com/CutestAnimalsPi/status/428915011268796417/photo/1
p1047
sVdisplay_url
p1048
Vpic.twitter.com/2WdApAdTZ9
p1049
sVurl
p1050
Vhttp://t.co/2WdApAdTZ9
p1051
sVmedia_url_https
p1052
Vhttps://pbs.twimg.com/media/BfPP7iYCYAAOhPS.jpg
p1053
sVsource_user_id_str
p1054
V253003217
p1055
sVsource_status_id
p1056
I428915011268796417
sVid_str
p1057
V428915011277185024
p1058
sVsizes
p1059
(dp1060
Vsmall
p1061
(dp1062
Vh
p1063
I191
sVresize
p1064
Vfit
p1065
sVw
p1066
I340
ssVlarge
p1067
(dp1068
Vh
p1069
I576
sVresize
p1070
Vfit
p1071
sVw
p1072
I1024
ssVmedium
p1073
(dp1074
Vh
p1075
I337
sVresize
p1076
Vfit
p1077
sVw
p1078
I600
ssVthumb
p1079
(dp1080
Vh
p1081
I150
sVresize
p1082
Vcrop
p1083
sVw
p1084
I150
sssVindices
p1085
(lp1086
I21
aI43
asVtype
p1087
Vphoto
p1088
sVid
p1089
I428915011277185024
sVmedia_url
p1090
Vhttp://pbs.twimg.com/media/BfPP7iYCYAAOhPS.jpg
p1091
sasg93
Nsg94
Nsg95
Nsg96
VSun Dec 14 18:49:45 +0000 2014
p1092
sg98
Nsg99
I00
sg100
Nsg101
Nsg102
Nsg103
Nsg104
I00
sg105
Nsg106
(lp1093
g3
(g118
g5
Ntp1094
Rp1095
(dp1096
g10
Nsg123
Nsg125
Nsg127
Nsg128
Nsg129
Nsg96
Nsg131
Nsg132
Nsg134
Nsg136
Nsg137
Nsg138
Nsg139
Nsg140
Nsg141
Nsg143
Nsg144
Nsg145
Nsg147
Nsg148
Nsg149
Nsg151
VCutestAnimalsPh
p1097
sg153
Nsg154
VCutest Animals
p1098
sg156
Nsg158
Nsg160
I253003190
sg161
Nsbasg108
Nsg109
V544202602271887360
p1099
sg111
Nsg112
VRT @CutestAnimalsPh: http://t.co/2WdApAdTZ9
p1100
sg114
I00
sg115
Vund
p1101
sg117
g3
(g118
g5
Ntp1102
Rp1103
(dp1104
g10
VKarachi
p1105
sg123
V333333
p1106
sg125
Ven
p1107
sg127
Nsg128
I2235
sg129
I33444
sg96
VSun Oct 13 10:11:19 +0000 2013
p1108
sg131
I00
sg132
g236
sg134
Vhttps://pbs.twimg.com/profile_images/424960110956650496/RzeO6zE3_normal.jpeg
p1109
sg136
I1999
sg137
I41237
sg138
Nsg139
Nsg140
I00
sg141
Vhttps://pbs.twimg.com/profile_banners/712399965/1385041858
p1110
sg143
I00
sg144
I00
sg145
V0084B4
p1111
sg147
I01
sg148
I00
sg149
Vhttp://abs.twimg.com/images/themes/theme1/bg.png
p1112
sg151
Vnshaikh6677
p1113
sg153
I27
sg154
VNasrullah Shaikh
p1114
sg156
VDDEEF6
p1115
sg158
Nsg160
I712399965
sg161
VC0DEED
p1116
sbsg163
I33
sg164
V<a href="http://twitter.com/download/android" rel="nofollow">Twitter for Android</a>
p1117
sg166
(lp1118
sg160
I544202602271887360
sbag3
(g4
g5
Ntp1119
Rp1120
(dp1121
g9
I0
sg10
Nsg11
Nsg12
(lp1122
sg28
I00
sg29
g3
(g4
g5
Ntp1123
Rp1124
(dp1125
g9
I29
sg10
Nsg11
Nsg12
(lp1126
sg28
I00
sg29
Nsg46
Nsg47
(lp1127
(dp1128
Vsource_user_id
p1129
I253003217
sVsource_status_id_str
p1130
V429139662222143488
p1131
sVexpanded_url
p1132
Vhttp://twitter.com/CutestAnimalsPi/status/429139662222143488/photo/1
p1133
sVdisplay_url
p1134
Vpic.twitter.com/cHBGMZFzIs
p1135
sVurl
p1136
Vhttp://t.co/cHBGMZFzIs
p1137
sVmedia_url_https
p1138
Vhttps://pbs.twimg.com/media/BfScP72IMAAd9t3.jpg
p1139
sVsource_user_id_str
p1140
V253003217
p1141
sVsource_status_id
p1142
I429139662222143488
sVid_str
p1143
V429139662083731456
p1144
sVsizes
p1145
(dp1146
Vlarge
p1147
(dp1148
Vh
p1149
I640
sVresize
p1150
Vfit
p1151
sVw
p1152
I426
ssVsmall
p1153
(dp1154
Vh
p1155
I509
sVresize
p1156
Vfit
p1157
sVw
p1158
I340
ssVmedium
p1159
(dp1160
Vh
p1161
I640
sVresize
p1162
Vfit
p1163
sVw
p1164
I426
ssVthumb
p1165
(dp1166
Vh
p1167
I150
sVresize
p1168
Vcrop
p1169
sVw
p1170
I150
sssVindices
p1171
(lp1172
I0
aI22
asVtype
p1173
Vphoto
p1174
sVid
p1175
I429139662083731456
sVmedia_url
p1176
Vhttp://pbs.twimg.com/media/BfScP72IMAAd9t3.jpg
p1177
sasg93
Nsg94
Nsg95
Nsg96
VSun Dec 14 02:30:03 +0000 2014
p1178
sg98
Nsg99
I00
sg100
Nsg101
Nsg102
Nsg103
Nsg104
I00
sg105
Nsg106
(lp1179
sg108
Nsg109
V543956052148908032
p1180
sg111
Nsg112
Vhttp://t.co/cHBGMZFzIs
p1181
sg114
I00
sg115
Vund
p1182
sg117
g3
(g118
g5
Ntp1183
Rp1184
(dp1185
g10
g236
sg123
V333333
p1186
sg125
Ven
p1187
sg127
VCentral Time (US & Canada)
p1188
sg128
I34425
sg129
I16816
sg96
VWed Feb 16 10:49:50 +0000 2011
p1189
sg131
I00
sg132
g236
sg134
Vhttps://pbs.twimg.com/profile_images/428607162948919296/acIWGxG__normal.jpeg
p1190
sg136
I24734
sg137
I0
sg138
I-21600
sg139
Nsg140
I00
sg141
Vhttps://pbs.twimg.com/profile_banners/253003190/1391023238
p1191
sg143
I00
sg144
I00
sg145
VFF3300
p1192
sg147
I00
sg148
I00
sg149
Vhttp://abs.twimg.com/images/themes/theme6/bg.gif
p1193
sg151
VCutestAnimalsPh
p1194
sg153
I145
sg154
VCutest Animals
p1195
sg156
VA0C5C7
p1196
sg158
Nsg160
I253003190
sg161
V709397
p1197
sbsg163
I20
sg164
V<a href="http://www.kucukbeyin.com/" rel="nofollow">CutePuppyPhoto</a>
p1198
sg166
(lp1199
sg160
I543956052148908032
sbsg46
Nsg47
(lp1200
(dp1201
Vsource_user_id
p1202
I253003217
sVsource_status_id_str
p1203
V429139662222143488
p1204
sVexpanded_url
p1205
Vhttp://twitter.com/CutestAnimalsPi/status/429139662222143488/photo/1
p1206
sVdisplay_url
p1207
Vpic.twitter.com/cHBGMZFzIs
p1208
sVurl
p1209
Vhttp://t.co/cHBGMZFzIs
p1210
sVmedia_url_https
p1211
Vhttps://pbs.twimg.com/media/BfScP72IMAAd9t3.jpg
p1212
sVsource_user_id_str
p1213
V253003217
p1214
sVsource_status_id
p1215
I429139662222143488
sVid_str
p1216
V429139662083731456
p1217
sVsizes
p1218
(dp1219
Vlarge
p1220
(dp1221
Vh
p1222
I640
sVresize
p1223
Vfit
p1224
sVw
p1225
I426
ssVsmall
p1226
(dp1227
Vh
p1228
I509
sVresize
p1229
Vfit
p1230
sVw
p1231
I340
ssVmedium
p1232
(dp1233
Vh
p1234
I640
sVresize
p1235
Vfit
p1236
sVw
p1237
I426
ssVthumb
p1238
(dp1239
Vh
p1240
I150
sVresize
p1241
Vcrop
p1242
sVw
p1243
I150
sssVindices
p1244
(lp1245
I21
aI43
asVtype
p1246
Vphoto
p1247
sVid
p1248
I429139662083731456
sVmedia_url
p1249
Vhttp://pbs.twimg.com/media/BfScP72IMAAd9t3.jpg
p1250
sasg93
Nsg94
Nsg95
Nsg96
VSun Dec 14 18:49:43 +0000 2014
p1251
sg98
Nsg99
I00
sg100
Nsg101
Nsg102
Nsg103
Nsg104
I00
sg105
Nsg106
(lp1252
g3
(g118
g5
Ntp1253
Rp1254
(dp1255
g10
Nsg123
Nsg125
Nsg127
Nsg128
Nsg129
Nsg96
Nsg131
Nsg132
Nsg134
Nsg136
Nsg137
Nsg138
Nsg139
Nsg140
Nsg141
Nsg143
Nsg144
Nsg145
Nsg147
Nsg148
Nsg149
Nsg151
VCutestAnimalsPh
p1256
sg153
Nsg154
VCutest Animals
p1257
sg156
Nsg158
Nsg160
I253003190
sg161
Nsbasg108
Nsg109
V544202591693844480
p1258
sg111
Nsg112
VRT @CutestAnimalsPh: http://t.co/cHBGMZFzIs
p1259
sg114
I00
sg115
Vund
p1260
sg117
g3
(g118
g5
Ntp1261
Rp1262
(dp1263
g10
VKarachi
p1264
sg123
V333333
p1265
sg125
Ven
p1266
sg127
Nsg128
I2235
sg129
I33444
sg96
VSun Oct 13 10:11:19 +0000 2013
p1267
sg131
I00
sg132
g236
sg134
Vhttps://pbs.twimg.com/profile_images/424960110956650496/RzeO6zE3_normal.jpeg
p1268
sg136
I1999
sg137
I41237
sg138
Nsg139
Nsg140
I00
sg141
Vhttps://pbs.twimg.com/profile_banners/712399965/1385041858
p1269
sg143
I00
sg144
I00
sg145
V0084B4
p1270
sg147
I01
sg148
I00
sg149
Vhttp://abs.twimg.com/images/themes/theme1/bg.png
p1271
sg151
Vnshaikh6677
p1272
sg153
I27
sg154
VNasrullah Shaikh
p1273
sg156
VDDEEF6
p1274
sg158
Nsg160
I712399965
sg161
VC0DEED
p1275
sbsg163
I20
sg164
V<a href="http://twitter.com/download/android" rel="nofollow">Twitter for Android</a>
p1276
sg166
(lp1277
sg160
I544202591693844480
sbag3
(g4
g5
Ntp1278
Rp1279
(dp1280
g9
I0
sg10
Nsg11
Nsg12
(lp1281
sg28
I00
sg29
g3
(g4
g5
Ntp1282
Rp1283
(dp1284
g9
I28
sg10
Nsg11
Nsg12
(lp1285
sg28
I00
sg29
Nsg46
Nsg47
(lp1286
(dp1287
Vsource_user_id
p1288
I253003217
sVsource_status_id_str
p1289
V429132077238607872
p1290
sVexpanded_url
p1291
Vhttp://twitter.com/CutestAnimalsPi/status/429132077238607872/photo/1
p1292
sVdisplay_url
p1293
Vpic.twitter.com/lzm1AR46vt
p1294
sVurl
p1295
Vhttp://t.co/lzm1AR46vt
p1296
sVmedia_url_https
p1297
Vhttps://pbs.twimg.com/media/BfSVWbfIIAA09ne.jpg
p1298
sVsource_user_id_str
p1299
V253003217
p1300
sVsource_status_id
p1301
I429132077238607872
sVid_str
p1302
V429132077075013632
p1303
sVsizes
p1304
(dp1305
Vlarge
p1306
(dp1307
Vh
p1308
I640
sVresize
p1309
Vfit
p1310
sVw
p1311
I426
ssVsmall
p1312
(dp1313
Vh
p1314
I510
sVresize
p1315
Vfit
p1316
sVw
p1317
I340
ssVmedium
p1318
(dp1319
Vh
p1320
I640
sVresize
p1321
Vfit
p1322
sVw
p1323
I426
ssVthumb
p1324
(dp1325
Vh
p1326
I150
sVresize
p1327
Vcrop
p1328
sVw
p1329
I150
sssVindices
p1330
(lp1331
I0
aI22
asVtype
p1332
Vphoto
p1333
sVid
p1334
I429132077075013632
sVmedia_url
p1335
Vhttp://pbs.twimg.com/media/BfSVWbfIIAA09ne.jpg
p1336
sasg93
Nsg94
Nsg95
Nsg96
VSun Dec 14 04:00:03 +0000 2014
p1337
sg98
Nsg99
I00
sg100
Nsg101
Nsg102
Nsg103
Nsg104
I00
sg105
Nsg106
(lp1338
sg108
Nsg109
V543978700526460928
p1339
sg111
Nsg112
Vhttp://t.co/lzm1AR46vt
p1340
sg114
I00
sg115
Vund
p1341
sg117
g3
(g118
g5
Ntp1342
Rp1343
(dp1344
g10
g236
sg123
V333333
p1345
sg125
Ven
p1346
sg127
VCentral Time (US & Canada)
p1347
sg128
I34425
sg129
I16816
sg96
VWed Feb 16 10:49:50 +0000 2011
p1348
sg131
I00
sg132
g236
sg134
Vhttps://pbs.twimg.com/profile_images/428607162948919296/acIWGxG__normal.jpeg
p1349
sg136
I24734
sg137
I0
sg138
I-21600
sg139
Nsg140
I00
sg141
Vhttps://pbs.twimg.com/profile_banners/253003190/1391023238
p1350
sg143
I00
sg144
I00
sg145
VFF3300
p1351
sg147
I00
sg148
I00
sg149
Vhttp://abs.twimg.com/images/themes/theme6/bg.gif
p1352
sg151
VCutestAnimalsPh
p1353
sg153
I145
sg154
VCutest Animals
p1354
sg156
VA0C5C7
p1355
sg158
Nsg160
I253003190
sg161
V709397
p1356
sbsg163
I22
sg164
V<a href="http://www.kucukbeyin.com/" rel="nofollow">CutePuppyPhoto</a>
p1357
sg166
(lp1358
sg160
I543978700526460928
sbsg46
Nsg47
(lp1359
(dp1360
Vsource_user_id
p1361
I253003217
sVsource_status_id_str
p1362
V429132077238607872
p1363
sVexpanded_url
p1364
Vhttp://twitter.com/CutestAnimalsPi/status/429132077238607872/photo/1
p1365
sVdisplay_url
p1366
Vpic.twitter.com/lzm1AR46vt
p1367
sVurl
p1368
Vhttp://t.co/lzm1AR46vt
p1369
sVmedia_url_https
p1370
Vhttps://pbs.twimg.com/media/BfSVWbfIIAA09ne.jpg
p1371
sVsource_user_id_str
p1372
V253003217
p1373
sVsource_status_id
p1374
I429132077238607872
sVid_str
p1375
V429132077075013632
p1376
sVsizes
p1377
(dp1378
Vlarge
p1379
(dp1380
Vh
p1381
I640
sVresize
p1382
Vfit
p1383
sVw
p1384
I426
ssVsmall
p1385
(dp1386
Vh
p1387
I510
sVresize
p1388
Vfit
p1389
sVw
p1390
I340
ssVmedium
p1391
(dp1392
Vh
p1393
I640
sVresize
p1394
Vfit
p1395
sVw
p1396
I426
ssVthumb
p1397
(dp1398
Vh
p1399
I150
sVresize
p1400
Vcrop
p1401
sVw
p1402
I150
sssVindices
p1403
(lp1404
I21
aI43
asVtype
p1405
Vphoto
p1406
sVid
p1407
I429132077075013632
sVmedia_url
p1408
Vhttp://pbs.twimg.com/media/BfSVWbfIIAA09ne.jpg
p1409
sasg93
Nsg94
Nsg95
Nsg96
VSun Dec 14 18:49:38 +0000 2014
p1410
sg98
Nsg99
I00
sg100
Nsg101
Nsg102
Nsg103
Nsg104
I00
sg105
Nsg106
(lp1411
g3
(g118
g5
Ntp1412
Rp1413
(dp1414
g10
Nsg123
Nsg125
Nsg127
Nsg128
Nsg129
Nsg96
Nsg131
Nsg132
Nsg134
Nsg136
Nsg137
Nsg138
Nsg139
Nsg140
Nsg141
Nsg143
Nsg144
Nsg145
Nsg147
Nsg148
Nsg149
Nsg151
VCutestAnimalsPh
p1415
sg153
Nsg154
VCutest Animals
p1416
sg156
Nsg158
Nsg160
I253003190
sg161
Nsbasg108
Nsg109
V544202572609761280
p1417
sg111
Nsg112
VRT @CutestAnimalsPh: http://t.co/lzm1AR46vt
p1418
sg114
I00
sg115
Vund
p1419
sg117
g3
(g118
g5
Ntp1420
Rp1421
(dp1422
g10
VKarachi
p1423
sg123
V333333
p1424
sg125
Ven
p1425
sg127
Nsg128
I2235
sg129
I33444
sg96
VSun Oct 13 10:11:19 +0000 2013
p1426
sg131
I00
sg132
g236
sg134
Vhttps://pbs.twimg.com/profile_images/424960110956650496/RzeO6zE3_normal.jpeg
p1427
sg136
I1999
sg137
I41237
sg138
Nsg139
Nsg140
I00
sg141
Vhttps://pbs.twimg.com/profile_banners/712399965/1385041858
p1428
sg143
I00
sg144
I00
sg145
V0084B4
p1429
sg147
I01
sg148
I00
sg149
Vhttp://abs.twimg.com/images/themes/theme1/bg.png
p1430
sg151
Vnshaikh6677
p1431
sg153
I27
sg154
VNasrullah Shaikh
p1432
sg156
VDDEEF6
p1433
sg158
Nsg160
I712399965
sg161
VC0DEED
p1434
sbsg163
I22
sg164
V<a href="http://twitter.com/download/android" rel="nofollow">Twitter for Android</a>
p1435
sg166
(lp1436
sg160
I544202572609761280
sbag3
(g4
g5
Ntp1437
Rp1438
(dp1439
g9
I0
sg10
Nsg11
Nsg12
(lp1440
sg28
I00
sg29
g3
(g4
g5
Ntp1441
Rp1442
(dp1443
g9
I54
sg10
Nsg11
Nsg12
(lp1444
sg28
I00
sg29
Nsg46
Nsg47
(lp1445
(dp1446
Vsource_user_id
p1447
I253003217
sVsource_status_id_str
p1448
V429042114597765120
p1449
sVexpanded_url
p1450
Vhttp://twitter.com/CutestAnimalsPi/status/429042114597765120/photo/1
p1451
sVdisplay_url
p1452
Vpic.twitter.com/istoFyDY6a
p1453
sVurl
p1454
Vhttp://t.co/istoFyDY6a
p1455
sVmedia_url_https
p1456
Vhttps://pbs.twimg.com/media/BfRDh62IMAEsOKz.jpg
p1457
sVsource_user_id_str
p1458
V253003217
p1459
sVsource_status_id
p1460
I429042114597765120
sVid_str
p1461
V429042114518069249
p1462
sVsizes
p1463
(dp1464
Vsmall
p1465
(dp1466
Vh
p1467
I212
sVresize
p1468
Vfit
p1469
sVw
p1470
I340
ssVlarge
p1471
(dp1472
Vh
p1473
I375
sVresize
p1474
Vfit
p1475
sVw
p1476
I600
ssVmedium
p1477
(dp1478
Vh
p1479
I375
sVresize
p1480
Vfit
p1481
sVw
p1482
I600
ssVthumb
p1483
(dp1484
Vh
p1485
I150
sVresize
p1486
Vcrop
p1487
sVw
p1488
I150
sssVindices
p1489
(lp1490
I0
aI22
asVtype
p1491
Vphoto
p1492
sVid
p1493
I429042114518069249
sVmedia_url
p1494
Vhttp://pbs.twimg.com/media/BfRDh62IMAEsOKz.jpg
p1495
sasg93
Nsg94
Nsg95
Nsg96
VSun Dec 14 06:30:03 +0000 2014
p1496
sg98
Nsg99
I00
sg100
Nsg101
Nsg102
Nsg103
Nsg104
I00
sg105
Nsg106
(lp1497
sg108
Nsg109
V544016449417650176
p1498
sg111
Nsg112
Vhttp://t.co/istoFyDY6a
p1499
sg114
I00
sg115
Vund
p1500
sg117
g3
(g118
g5
Ntp1501
Rp1502
(dp1503
g10
g236
sg123
V333333
p1504
sg125
Ven
p1505
sg127
VCentral Time (US & Canada)
p1506
sg128
I34425
sg129
I16816
sg96
VWed Feb 16 10:49:50 +0000 2011
p1507
sg131
I00
sg132
g236
sg134
Vhttps://pbs.twimg.com/profile_images/428607162948919296/acIWGxG__normal.jpeg
p1508
sg136
I24734
sg137
I0
sg138
I-21600
sg139
Nsg140
I00
sg141
Vhttps://pbs.twimg.com/profile_banners/253003190/1391023238
p1509
sg143
I00
sg144
I00
sg145
VFF3300
p1510
sg147
I00
sg148
I00
sg149
Vhttp://abs.twimg.com/images/themes/theme6/bg.gif
p1511
sg151
VCutestAnimalsPh
p1512
sg153
I145
sg154
VCutest Animals
p1513
sg156
VA0C5C7
p1514
sg158
Nsg160
I253003190
sg161
V709397
p1515
sbsg163
I36
sg164
V<a href="http://www.kucukbeyin.com/" rel="nofollow">CutePuppyPhoto</a>
p1516
sg166
(lp1517
sg160
I544016449417650176
sbsg46
Nsg47
(lp1518
(dp1519
Vsource_user_id
p1520
I253003217
sVsource_status_id_str
p1521
V429042114597765120
p1522
sVexpanded_url
p1523
Vhttp://twitter.com/CutestAnimalsPi/status/429042114597765120/photo/1
p1524
sVdisplay_url
p1525
Vpic.twitter.com/istoFyDY6a
p1526
sVurl
p1527
Vhttp://t.co/istoFyDY6a
p1528
sVmedia_url_https
p1529
Vhttps://pbs.twimg.com/media/BfRDh62IMAEsOKz.jpg
p1530
sVsource_user_id_str
p1531
V253003217
p1532
sVsource_status_id
p1533
I429042114597765120
sVid_str
p1534
V429042114518069249
p1535
sVsizes
p1536
(dp1537
Vsmall
p1538
(dp1539
Vh
p1540
I212
sVresize
p1541
Vfit
p1542
sVw
p1543
I340
ssVlarge
p1544
(dp1545
Vh
p1546
I375
sVresize
p1547
Vfit
p1548
sVw
p1549
I600
ssVmedium
p1550
(dp1551
Vh
p1552
I375
sVresize
p1553
Vfit
p1554
sVw
p1555
I600
ssVthumb
p1556
(dp1557
Vh
p1558
I150
sVresize
p1559
Vcrop
p1560
sVw
p1561
I150
sssVindices
p1562
(lp1563
I21
aI43
asVtype
p1564
Vphoto
p1565
sVid
p1566
I429042114518069249
sVmedia_url
p1567
Vhttp://pbs.twimg.com/media/BfRDh62IMAEsOKz.jpg
p1568
sasg93
Nsg94
Nsg95
Nsg96
VSun Dec 14 18:49:32 +0000 2014
p1569
sg98
Nsg99
I00
sg100
Nsg101
Nsg102
Nsg103
Nsg104
I00
sg105
Nsg106
(lp1570
g3
(g118
g5
Ntp1571
Rp1572
(dp1573
g10
Nsg123
Nsg125
Nsg127
Nsg128
Nsg129
Nsg96
Nsg131
Nsg132
Nsg134
Nsg136
Nsg137
Nsg138
Nsg139
Nsg140
Nsg141
Nsg143
Nsg144
Nsg145
Nsg147
Nsg148
Nsg149
Nsg151
VCutestAnimalsPh
p1574
sg153
Nsg154
VCutest Animals
p1575
sg156
Nsg158
Nsg160
I253003190
sg161
Nsbasg108
Nsg109
V544202544897982464
p1576
sg111
Nsg112
VRT @CutestAnimalsPh: http://t.co/istoFyDY6a
p1577
sg114
I00
sg115
Vund
p1578
sg117
g3
(g118
g5
Ntp1579
Rp1580
(dp1581
g10
VKarachi
p1582
sg123
V333333
p1583
sg125
Ven
p1584
sg127
Nsg128
I2235
sg129
I33444
sg96
VSun Oct 13 10:11:19 +0000 2013
p1585
sg131
I00
sg132
g236
sg134
Vhttps://pbs.twimg.com/profile_images/424960110956650496/RzeO6zE3_normal.jpeg
p1586
sg136
I1999
sg137
I41237
sg138
Nsg139
Nsg140
I00
sg141
Vhttps://pbs.twimg.com/profile_banners/712399965/1385041858
p1587
sg143
I00
sg144
I00
sg145
V0084B4
p1588
sg147
I01
sg148
I00
sg149
Vhttp://abs.twimg.com/images/themes/theme1/bg.png
p1589
sg151
Vnshaikh6677
p1590
sg153
I27
sg154
VNasrullah Shaikh
p1591
sg156
VDDEEF6
p1592
sg158
Nsg160
I712399965
sg161
VC0DEED
p1593
sbsg163
I36
sg164
V<a href="http://twitter.com/download/android" rel="nofollow">Twitter for Android</a>
p1594
sg166
(lp1595
sg160
I544202544897982464
sbag3
(g4
g5
Ntp1596
Rp1597
(dp1598
g9
I0
sg10
Nsg11
Nsg12
(lp1599
sg28
I00
sg29
g3
(g4
g5
Ntp1600
Rp1601
(dp1602
g9
I28
sg10
Nsg11
Nsg12
(lp1603
sg28
I00
sg29
Nsg46
Nsg47
(lp1604
(dp1605
Vsource_user_id
p1606
I253003217
sVsource_status_id_str
p1607
V429175812081086464
p1608
sVexpanded_url
p1609
Vhttp://twitter.com/CutestAnimalsPi/status/429175812081086464/photo/1
p1610
sVdisplay_url
p1611
Vpic.twitter.com/jl74XUEhAf
p1612
sVurl
p1613
Vhttp://t.co/jl74XUEhAf
p1614
sVmedia_url_https
p1615
Vhttps://pbs.twimg.com/media/BfS9IIqIIAAqWvF.jpg
p1616
sVsource_user_id_str
p1617
V253003217
p1618
sVsource_status_id
p1619
I429175812081086464
sVid_str
p1620
V429175811967819776
p1621
sVsizes
p1622
(dp1623
Vsmall
p1624
(dp1625
Vh
p1626
I510
sVresize
p1627
Vfit
p1628
sVw
p1629
I340
ssVlarge
p1630
(dp1631
Vh
p1632
I870
sVresize
p1633
Vfit
p1634
sVw
p1635
I580
ssVmedium
p1636
(dp1637
Vh
p1638
I870
sVresize
p1639
Vfit
p1640
sVw
p1641
I580
ssVthumb
p1642
(dp1643
Vh
p1644
I150
sVresize
p1645
Vcrop
p1646
sVw
p1647
I150
sssVindices
p1648
(lp1649
I0
aI22
asVtype
p1650
Vphoto
p1651
sVid
p1652
I429175811967819776
sVmedia_url
p1653
Vhttp://pbs.twimg.com/media/BfS9IIqIIAAqWvF.jpg
p1654
sasg93
Nsg94
Nsg95
Nsg96
VSun Dec 14 07:00:04 +0000 2014
p1655
sg98
Nsg99
I00
sg100
Nsg101
Nsg102
Nsg103
Nsg104
I00
sg105
Nsg106
(lp1656
sg108
Nsg109
V544024001459138560
p1657
sg111
Nsg112
Vhttp://t.co/jl74XUEhAf
p1658
sg114
I00
sg115
Vund
p1659
sg117
g3
(g118
g5
Ntp1660
Rp1661
(dp1662
g10
g236
sg123
V333333
p1663
sg125
Ven
p1664
sg127
VCentral Time (US & Canada)
p1665
sg128
I34425
sg129
I16816
sg96
VWed Feb 16 10:49:50 +0000 2011
p1666
sg131
I00
sg132
g236
sg134
Vhttps://pbs.twimg.com/profile_images/428607162948919296/acIWGxG__normal.jpeg
p1667
sg136
I24734
sg137
I0
sg138
I-21600
sg139
Nsg140
I00
sg141
Vhttps://pbs.twimg.com/profile_banners/253003190/1391023238
p1668
sg143
I00
sg144
I00
sg145
VFF3300
p1669
sg147
I00
sg148
I00
sg149
Vhttp://abs.twimg.com/images/themes/theme6/bg.gif
p1670
sg151
VCutestAnimalsPh
p1671
sg153
I145
sg154
VCutest Animals
p1672
sg156
VA0C5C7
p1673
sg158
Nsg160
I253003190
sg161
V709397
p1674
sbsg163
I16
sg164
V<a href="http://www.kucukbeyin.com/" rel="nofollow">CutePuppyPhoto</a>
p1675
sg166
(lp1676
sg160
I544024001459138560
sbsg46
Nsg47
(lp1677
(dp1678
Vsource_user_id
p1679
I253003217
sVsource_status_id_str
p1680
V429175812081086464
p1681
sVexpanded_url
p1682
Vhttp://twitter.com/CutestAnimalsPi/status/429175812081086464/photo/1
p1683
sVdisplay_url
p1684
Vpic.twitter.com/jl74XUEhAf
p1685
sVurl
p1686
Vhttp://t.co/jl74XUEhAf
p1687
sVmedia_url_https
p1688
Vhttps://pbs.twimg.com/media/BfS9IIqIIAAqWvF.jpg
p1689
sVsource_user_id_str
p1690
V253003217
p1691
sVsource_status_id
p1692
I429175812081086464
sVid_str
p1693
V429175811967819776
p1694
sVsizes
p1695
(dp1696
Vsmall
p1697
(dp1698
Vh
p1699
I510
sVresize
p1700
Vfit
p1701
sVw
p1702
I340
ssVlarge
p1703
(dp1704
Vh
p1705
I870
sVresize
p1706
Vfit
p1707
sVw
p1708
I580
ssVmedium
p1709
(dp1710
Vh
p1711
I870
sVresize
p1712
Vfit
p1713
sVw
p1714
I580
ssVthumb
p1715
(dp1716
Vh
p1717
I150
sVresize
p1718
Vcrop
p1719
sVw
p1720
I150
sssVindices
p1721
(lp1722
I21
aI43
asVtype
p1723
Vphoto
p1724
sVid
p1725
I429175811967819776
sVmedia_url
p1726
Vhttp://pbs.twimg.com/media/BfS9IIqIIAAqWvF.jpg
p1727
sasg93
Nsg94
Nsg95
Nsg96
VSun Dec 14 18:49:28 +0000 2014
p1728
sg98
Nsg99
I00
sg100
Nsg101
Nsg102
Nsg103
Nsg104
I00
sg105
Nsg106
(lp1729
g3
(g118
g5
Ntp1730
Rp1731
(dp1732
g10
Nsg123
Nsg125
Nsg127
Nsg128
Nsg129
Nsg96
Nsg131
Nsg132
Nsg134
Nsg136
Nsg137
Nsg138
Nsg139
Nsg140
Nsg141
Nsg143
Nsg144
Nsg145
Nsg147
Nsg148
Nsg149
Nsg151
VCutestAnimalsPh
p1733
sg153
Nsg154
VCutest Animals
p1734
sg156
Nsg158
Nsg160
I253003190
sg161
Nsbasg108
Nsg109
V544202531090358272
p1735
sg111
Nsg112
VRT @CutestAnimalsPh: http://t.co/jl74XUEhAf
p1736
sg114
I00
sg115
Vund
p1737
sg117
g3
(g118
g5
Ntp1738
Rp1739
(dp1740
g10
VKarachi
p1741
sg123
V333333
p1742
sg125
Ven
p1743
sg127
Nsg128
I2235
sg129
I33444
sg96
VSun Oct 13 10:11:19 +0000 2013
p1744
sg131
I00
sg132
g236
sg134
Vhttps://pbs.twimg.com/profile_images/424960110956650496/RzeO6zE3_normal.jpeg
p1745
sg136
I1999
sg137
I41237
sg138
Nsg139
Nsg140
I00
sg141
Vhttps://pbs.twimg.com/profile_banners/712399965/1385041858
p1746
sg143
I00
sg144
I00
sg145
V0084B4
p1747
sg147
I01
sg148
I00
sg149
Vhttp://abs.twimg.com/images/themes/theme1/bg.png
p1748
sg151
Vnshaikh6677
p1749
sg153
I27
sg154
VNasrullah Shaikh
p1750
sg156
VDDEEF6
p1751
sg158
Nsg160
I712399965
sg161
VC0DEED
p1752
sbsg163
I16
sg164
V<a href="http://twitter.com/download/android" rel="nofollow">Twitter for Android</a>
p1753
sg166
(lp1754
sg160
I544202531090358272
sbag3
(g4
g5
Ntp1755
Rp1756
(dp1757
g9
I0
sg10
Nsg11
Nsg12
(lp1758
sg28
I00
sg29
g3
(g4
g5
Ntp1759
Rp1760
(dp1761
g9
I28
sg10
Nsg11
Nsg12
(lp1762
sg28
I00
sg29
Nsg46
Nsg47
(lp1763
(dp1764
Vsource_user_id
p1765
I253003217
sVsource_status_id_str
p1766
V424342610476429312
p1767
sVexpanded_url
p1768
Vhttp://twitter.com/CutestAnimalsPi/status/424342610476429312/photo/1
p1769
sVdisplay_url
p1770
Vpic.twitter.com/YiNZuUpXEt
p1771
sVurl
p1772
Vhttp://t.co/YiNZuUpXEt
p1773
sVmedia_url_https
p1774
Vhttps://pbs.twimg.com/media/BeORWyDCcAAgxS8.jpg
p1775
sVsource_user_id_str
p1776
V253003217
p1777
sVsource_status_id
p1778
I424342610476429312
sVid_str
p1779
V424342610480623616
p1780
sVsizes
p1781
(dp1782
Vlarge
p1783
(dp1784
Vh
p1785
I374
sVresize
p1786
Vfit
p1787
sVw
p1788
I598
ssVsmall
p1789
(dp1790
Vh
p1791
I212
sVresize
p1792
Vfit
p1793
sVw
p1794
I340
ssVmedium
p1795
(dp1796
Vh
p1797
I374
sVresize
p1798
Vfit
p1799
sVw
p1800
I598
ssVthumb
p1801
(dp1802
Vh
p1803
I150
sVresize
p1804
Vcrop
p1805
sVw
p1806
I150
sssVindices
p1807
(lp1808
I0
aI22
asVtype
p1809
Vphoto
p1810
sVid
p1811
I424342610480623616
sVmedia_url
p1812
Vhttp://pbs.twimg.com/media/BeORWyDCcAAgxS8.jpg
p1813
sasg93
Nsg94
Nsg95
Nsg96
VSun Dec 14 07:30:03 +0000 2014
p1814
sg98
Nsg99
I00
sg100
Nsg101
Nsg102
Nsg103
Nsg104
I00
sg105
Nsg106
(lp1815
sg108
Nsg109
V544031550715596801
p1816
sg111
Nsg112
Vhttp://t.co/YiNZuUpXEt
p1817
sg114
I00
sg115
Vund
p1818
sg117
g3
(g118
g5
Ntp1819
Rp1820
(dp1821
g10
g236
sg123
V333333
p1822
sg125
Ven
p1823
sg127
VCentral Time (US & Canada)
p1824
sg128
I34425
sg129
I16816
sg96
VWed Feb 16 10:49:50 +0000 2011
p1825
sg131
I00
sg132
g236
sg134
Vhttps://pbs.twimg.com/profile_images/428607162948919296/acIWGxG__normal.jpeg
p1826
sg136
I24734
sg137
I0
sg138
I-21600
sg139
Nsg140
I00
sg141
Vhttps://pbs.twimg.com/profile_banners/253003190/1391023238
p1827
sg143
I00
sg144
I00
sg145
VFF3300
p1828
sg147
I00
sg148
I00
sg149
Vhttp://abs.twimg.com/images/themes/theme6/bg.gif
p1829
sg151
VCutestAnimalsPh
p1830
sg153
I145
sg154
VCutest Animals
p1831
sg156
VA0C5C7
p1832
sg158
Nsg160
I253003190
sg161
V709397
p1833
sbsg163
I30
sg164
V<a href="http://www.kucukbeyin.com/" rel="nofollow">CutePuppyPhoto</a>
p1834
sg166
(lp1835
sg160
I544031550715596801
sbsg46
Nsg47
(lp1836
(dp1837
Vsource_user_id
p1838
I253003217
sVsource_status_id_str
p1839
V424342610476429312
p1840
sVexpanded_url
p1841
Vhttp://twitter.com/CutestAnimalsPi/status/424342610476429312/photo/1
p1842
sVdisplay_url
p1843
Vpic.twitter.com/YiNZuUpXEt
p1844
sVurl
p1845
Vhttp://t.co/YiNZuUpXEt
p1846
sVmedia_url_https
p1847
Vhttps://pbs.twimg.com/media/BeORWyDCcAAgxS8.jpg
p1848
sVsource_user_id_str
p1849
V253003217
p1850
sVsource_status_id
p1851
I424342610476429312
sVid_str
p1852
V424342610480623616
p1853
sVsizes
p1854
(dp1855
Vlarge
p1856
(dp1857
Vh
p1858
I374
sVresize
p1859
Vfit
p1860
sVw
p1861
I598
ssVsmall
p1862
(dp1863
Vh
p1864
I212
sVresize
p1865
Vfit
p1866
sVw
p1867
I340
ssVmedium
p1868
(dp1869
Vh
p1870
I374
sVresize
p1871
Vfit
p1872
sVw
p1873
I598
ssVthumb
p1874
(dp1875
Vh
p1876
I150
sVresize
p1877
Vcrop
p1878
sVw
p1879
I150
sssVindices
p1880
(lp1881
I21
aI43
asVtype
p1882
Vphoto
p1883
sVid
p1884
I424342610480623616
sVmedia_url
p1885
Vhttp://pbs.twimg.com/media/BeORWyDCcAAgxS8.jpg
p1886
sasg93
Nsg94
Nsg95
Nsg96
VSun Dec 14 18:49:26 +0000 2014
p1887
sg98
Nsg99
I00
sg100
Nsg101
Nsg102
Nsg103
Nsg104
I00
sg105
Nsg106
(lp1888
g3
(g118
g5
Ntp1889
Rp1890
(dp1891
g10
Nsg123
Nsg125
Nsg127
Nsg128
Nsg129
Nsg96
Nsg131
Nsg132
Nsg134
Nsg136
Nsg137
Nsg138
Nsg139
Nsg140
Nsg141
Nsg143
Nsg144
Nsg145
Nsg147
Nsg148
Nsg149
Nsg151
VCutestAnimalsPh
p1892
sg153
Nsg154
VCutest Animals
p1893
sg156
Nsg158
Nsg160
I253003190
sg161
Nsbasg108
Nsg109
V544202520516513793
p1894
sg111
Nsg112
VRT @CutestAnimalsPh: http://t.co/YiNZuUpXEt
p1895
sg114
I00
sg115
Vund
p1896
sg117
g3
(g118
g5
Ntp1897
Rp1898
(dp1899
g10
VKarachi
p1900
sg123
V333333
p1901
sg125
Ven
p1902
sg127
Nsg128
I2235
sg129
I33444
sg96
VSun Oct 13 10:11:19 +0000 2013
p1903
sg131
I00
sg132
g236
sg134
Vhttps://pbs.twimg.com/profile_images/424960110956650496/RzeO6zE3_normal.jpeg
p1904
sg136
I1999
sg137
I41237
sg138
Nsg139
Nsg140
I00
sg141
Vhttps://pbs.twimg.com/profile_banners/712399965/1385041858
p1905
sg143
I00
sg144
I00
sg145
V0084B4
p1906
sg147
I01
sg148
I00
sg149
Vhttp://abs.twimg.com/images/themes/theme1/bg.png
p1907
sg151
Vnshaikh6677
p1908
sg153
I27
sg154
VNasrullah Shaikh
p1909
sg156
VDDEEF6
p1910
sg158
Nsg160
I712399965
sg161
VC0DEED
p1911
sbsg163
I30
sg164
V<a href="http://twitter.com/download/android" rel="nofollow">Twitter for Android</a>
p1912
sg166
(lp1913
sg160
I544202520516513793
sbag3
(g4
g5
Ntp1914
Rp1915
(dp1916
g9
I0
sg10
Nsg11
Nsg12
(lp1917
sg28
I00
sg29
g3
(g4
g5
Ntp1918
Rp1919
(dp1920
g9
I34
sg10
Nsg11
Nsg12
(lp1921
sg28
I00
sg29
Nsg46
Nsg47
(lp1922
(dp1923
Vsource_user_id
p1924
I253003217
sVsource_status_id_str
p1925
V424342659784646656
p1926
sVexpanded_url
p1927
Vhttp://twitter.com/CutestAnimalsPi/status/424342659784646656/photo/1
p1928
sVdisplay_url
p1929
Vpic.twitter.com/5BLZsfy6N9
p1930
sVurl
p1931
Vhttp://t.co/5BLZsfy6N9
p1932
sVmedia_url_https
p1933
Vhttps://pbs.twimg.com/media/BeORZpvCIAAaWWz.jpg
p1934
sVsource_user_id_str
p1935
V253003217
p1936
sVsource_status_id
p1937
I424342659784646656
sVid_str
p1938
V424342659788840960
p1939
sVsizes
p1940
(dp1941
Vlarge
p1942
(dp1943
Vh
p1944
I885
sVresize
p1945
Vfit
p1946
sVw
p1947
I599
ssVsmall
p1948
(dp1949
Vh
p1950
I502
sVresize
p1951
Vfit
p1952
sVw
p1953
I340
ssVmedium
p1954
(dp1955
Vh
p1956
I885
sVresize
p1957
Vfit
p1958
sVw
p1959
I599
ssVthumb
p1960
(dp1961
Vh
p1962
I150
sVresize
p1963
Vcrop
p1964
sVw
p1965
I150
sssVindices
p1966
(lp1967
I0
aI22
asVtype
p1968
Vphoto
p1969
sVid
p1970
I424342659788840960
sVmedia_url
p1971
Vhttp://pbs.twimg.com/media/BeORZpvCIAAaWWz.jpg
p1972
sasg93
Nsg94
Nsg95
Nsg96
VSun Dec 14 08:00:03 +0000 2014
p1973
sg98
Nsg99
I00
sg100
Nsg101
Nsg102
Nsg103
Nsg104
I00
sg105
Nsg106
(lp1974
sg108
Nsg109
V544039097518419969
p1975
sg111
Nsg112
Vhttp://t.co/5BLZsfy6N9
p1976
sg114
I00
sg115
Vund
p1977
sg117
g3
(g118
g5
Ntp1978
Rp1979
(dp1980
g10
g236
sg123
V333333
p1981
sg125
Ven
p1982
sg127
VCentral Time (US & Canada)
p1983
sg128
I34425
sg129
I16816
sg96
VWed Feb 16 10:49:50 +0000 2011
p1984
sg131
I00
sg132
g236
sg134
Vhttps://pbs.twimg.com/profile_images/428607162948919296/acIWGxG__normal.jpeg
p1985
sg136
I24734
sg137
I0
sg138
I-21600
sg139
Nsg140
I00
sg141
Vhttps://pbs.twimg.com/profile_banners/253003190/1391023238
p1986
sg143
I00
sg144
I00
sg145
VFF3300
p1987
sg147
I00
sg148
I00
sg149
Vhttp://abs.twimg.com/images/themes/theme6/bg.gif
p1988
sg151
VCutestAnimalsPh
p1989
sg153
I145
sg154
VCutest Animals
p1990
sg156
VA0C5C7
p1991
sg158
Nsg160
I253003190
sg161
V709397
p1992
sbsg163
I31
sg164
V<a href="http://www.kucukbeyin.com/" rel="nofollow">CutePuppyPhoto</a>
p1993
sg166
(lp1994
sg160
I544039097518419969
sbsg46
Nsg47
(lp1995
(dp1996
Vsource_user_id
p1997
I253003217
sVsource_status_id_str
p1998
V424342659784646656
p1999
sVexpanded_url
p2000
Vhttp://twitter.com/CutestAnimalsPi/status/424342659784646656/photo/1
p2001
sVdisplay_url
p2002
Vpic.twitter.com/5BLZsfy6N9
p2003
sVurl
p2004
Vhttp://t.co/5BLZsfy6N9
p2005
sVmedia_url_https
p2006
Vhttps://pbs.twimg.com/media/BeORZpvCIAAaWWz.jpg
p2007
sVsource_user_id_str
p2008
V253003217
p2009
sVsource_status_id
p2010
I424342659784646656
sVid_str
p2011
V424342659788840960
p2012
sVsizes
p2013
(dp2014
Vlarge
p2015
(dp2016
Vh
p2017
I885
sVresize
p2018
Vfit
p2019
sVw
p2020
I599
ssVsmall
p2021
(dp2022
Vh
p2023
I502
sVresize
p2024
Vfit
p2025
sVw
p2026
I340
ssVmedium
p2027
(dp2028
Vh
p2029
I885
sVresize
p2030
Vfit
p2031
sVw
p2032
I599
ssVthumb
p2033
(dp2034
Vh
p2035
I150
sVresize
p2036
Vcrop
p2037
sVw
p2038
I150
sssVindices
p2039
(lp2040
I21
aI43
asVtype
p2041
Vphoto
p2042
sVid
p2043
I424342659788840960
sVmedia_url
p2044
Vhttp://pbs.twimg.com/media/BeORZpvCIAAaWWz.jpg
p2045
sasg93
Nsg94
Nsg95
Nsg96
VSun Dec 14 18:49:23 +0000 2014
p2046
sg98
Nsg99
I00
sg100
Nsg101
Nsg102
Nsg103
Nsg104
I00
sg105
Nsg106
(lp2047
g3
(g118
g5
Ntp2048
Rp2049
(dp2050
g10
Nsg123
Nsg125
Nsg127
Nsg128
Nsg129
Nsg96
Nsg131
Nsg132
Nsg134
Nsg136
Nsg137
Nsg138
Nsg139
Nsg140
Nsg141
Nsg143
Nsg144
Nsg145
Nsg147
Nsg148
Nsg149
Nsg151
VCutestAnimalsPh
p2051
sg153
Nsg154
VCutest Animals
p2052
sg156
Nsg158
Nsg160
I253003190
sg161
Nsbasg108
Nsg109
V544202508575318016
p2053
sg111
Nsg112
VRT @CutestAnimalsPh: http://t.co/5BLZsfy6N9
p2054
sg114
I00
sg115
Vund
p2055
sg117
g3
(g118
g5
Ntp2056
Rp2057
(dp2058
g10
VKarachi
p2059
sg123
V333333
p2060
sg125
Ven
p2061
sg127
Nsg128
I2235
sg129
I33444
sg96
VSun Oct 13 10:11:19 +0000 2013
p2062
sg131
I00
sg132
g236
sg134
Vhttps://pbs.twimg.com/profile_images/424960110956650496/RzeO6zE3_normal.jpeg
p2063
sg136
I1999
sg137
I41237
sg138
Nsg139
Nsg140
I00
sg141
Vhttps://pbs.twimg.com/profile_banners/712399965/1385041858
p2064
sg143
I00
sg144
I00
sg145
V0084B4
p2065
sg147
I01
sg148
I00
sg149
Vhttp://abs.twimg.com/images/themes/theme1/bg.png
p2066
sg151
Vnshaikh6677
p2067
sg153
I27
sg154
VNasrullah Shaikh
p2068
sg156
VDDEEF6
p2069
sg158
Nsg160
I712399965
sg161
VC0DEED
p2070
sbsg163
I31
sg164
V<a href="http://twitter.com/download/android" rel="nofollow">Twitter for Android</a>
p2071
sg166
(lp2072
sg160
I544202508575318016
sbag3
(g4
g5
Ntp2073
Rp2074
(dp2075
g9
I0
sg10
Nsg11
Nsg12
(lp2076
sg28
I00
sg29
g3
(g4
g5
Ntp2077
Rp2078
(dp2079
g9
I50
sg10
Nsg11
Nsg12
(lp2080
sg28
I00
sg29
Nsg46
Nsg47
(lp2081
(dp2082
Vsource_user_id
p2083
I253003217
sVsource_status_id_str
p2084
V424342754760462336
p2085
sVexpanded_url
p2086
Vhttp://twitter.com/CutestAnimalsPi/status/424342754760462336/photo/1
p2087
sVdisplay_url
p2088
Vpic.twitter.com/0nLA8svlDV
p2089
sVurl
p2090
Vhttp://t.co/0nLA8svlDV
p2091
sVmedia_url_https
p2092
Vhttps://pbs.twimg.com/media/BeORfLjCEAEIoXd.jpg
p2093
sVsource_user_id_str
p2094
V253003217
p2095
sVsource_status_id
p2096
I424342754760462336
sVid_str
p2097
V424342754764656641
p2098
sVsizes
p2099
(dp2100
Vsmall
p2101
(dp2102
Vh
p2103
I340
sVresize
p2104
Vfit
p2105
sVw
p2106
I340
ssVlarge
p2107
(dp2108
Vh
p2109
I447
sVresize
p2110
Vfit
p2111
sVw
p2112
I446
ssVmedium
p2113
(dp2114
Vh
p2115
I447
sVresize
p2116
Vfit
p2117
sVw
p2118
I446
ssVthumb
p2119
(dp2120
Vh
p2121
I150
sVresize
p2122
Vcrop
p2123
sVw
p2124
I150
sssVindices
p2125
(lp2126
I0
aI22
asVtype
p2127
Vphoto
p2128
sVid
p2129
I424342754764656641
sVmedia_url
p2130
Vhttp://pbs.twimg.com/media/BeORfLjCEAEIoXd.jpg
p2131
sasg93
Nsg94
Nsg95
Nsg96
VSun Dec 14 08:30:03 +0000 2014
p2132
sg98
Nsg99
I00
sg100
Nsg101
Nsg102
Nsg103
Nsg104
I00
sg105
Nsg106
(lp2133
sg108
Nsg109
V544046648490332160
p2134
sg111
Nsg112
Vhttp://t.co/0nLA8svlDV
p2135
sg114
I00
sg115
Vund
p2136
sg117
g3
(g118
g5
Ntp2137
Rp2138
(dp2139
g10
g236
sg123
V333333
p2140
sg125
Ven
p2141
sg127
VCentral Time (US & Canada)
p2142
sg128
I34425
sg129
I16816
sg96
VWed Feb 16 10:49:50 +0000 2011
p2143
sg131
I00
sg132
g236
sg134
Vhttps://pbs.twimg.com/profile_images/428607162948919296/acIWGxG__normal.jpeg
p2144
sg136
I24734
sg137
I0
sg138
I-21600
sg139
Nsg140
I00
sg141
Vhttps://pbs.twimg.com/profile_banners/253003190/1391023238
p2145
sg143
I00
sg144
I00
sg145
VFF3300
p2146
sg147
I00
sg148
I00
sg149
Vhttp://abs.twimg.com/images/themes/theme6/bg.gif
p2147
sg151
VCutestAnimalsPh
p2148
sg153
I145
sg154
VCutest Animals
p2149
sg156
VA0C5C7
p2150
sg158
Nsg160
I253003190
sg161
V709397
p2151
sbsg163
I31
sg164
V<a href="http://www.kucukbeyin.com/" rel="nofollow">CutePuppyPhoto</a>
p2152
sg166
(lp2153
sg160
I544046648490332160
sbsg46
Nsg47
(lp2154
(dp2155
Vsource_user_id
p2156
I253003217
sVsource_status_id_str
p2157
V424342754760462336
p2158
sVexpanded_url
p2159
Vhttp://twitter.com/CutestAnimalsPi/status/424342754760462336/photo/1
p2160
sVdisplay_url
p2161
Vpic.twitter.com/0nLA8svlDV
p2162
sVurl
p2163
Vhttp://t.co/0nLA8svlDV
p2164
sVmedia_url_https
p2165
Vhttps://pbs.twimg.com/media/BeORfLjCEAEIoXd.jpg
p2166
sVsource_user_id_str
p2167
V253003217
p2168
sVsource_status_id
p2169
I424342754760462336
sVid_str
p2170
V424342754764656641
p2171
sVsizes
p2172
(dp2173
Vsmall
p2174
(dp2175
Vh
p2176
I340
sVresize
p2177
Vfit
p2178
sVw
p2179
I340
ssVlarge
p2180
(dp2181
Vh
p2182
I447
sVresize
p2183
Vfit
p2184
sVw
p2185
I446
ssVmedium
p2186
(dp2187
Vh
p2188
I447
sVresize
p2189
Vfit
p2190
sVw
p2191
I446
ssVthumb
p2192
(dp2193
Vh
p2194
I150
sVresize
p2195
Vcrop
p2196
sVw
p2197
I150
sssVindices
p2198
(lp2199
I21
aI43
asVtype
p2200
Vphoto
p2201
sVid
p2202
I424342754764656641
sVmedia_url
p2203
Vhttp://pbs.twimg.com/media/BeORfLjCEAEIoXd.jpg
p2204
sasg93
Nsg94
Nsg95
Nsg96
VSun Dec 14 18:49:20 +0000 2014
p2205
sg98
Nsg99
I00
sg100
Nsg101
Nsg102
Nsg103
Nsg104
I00
sg105
Nsg106
(lp2206
g3
(g118
g5
Ntp2207
Rp2208
(dp2209
g10
Nsg123
Nsg125
Nsg127
Nsg128
Nsg129
Nsg96
Nsg131
Nsg132
Nsg134
Nsg136
Nsg137
Nsg138
Nsg139
Nsg140
Nsg141
Nsg143
Nsg144
Nsg145
Nsg147
Nsg148
Nsg149
Nsg151
VCutestAnimalsPh
p2210
sg153
Nsg154
VCutest Animals
p2211
sg156
Nsg158
Nsg160
I253003190
sg161
Nsbasg108
Nsg109
V544202494780248064
p2212
sg111
Nsg112
VRT @CutestAnimalsPh: http://t.co/0nLA8svlDV
p2213
sg114
I00
sg115
Vund
p2214
sg117
g3
(g118
g5
Ntp2215
Rp2216
(dp2217
g10
VKarachi
p2218
sg123
V333333
p2219
sg125
Ven
p2220
sg127
Nsg128
I2235
sg129
I33444
sg96
VSun Oct 13 10:11:19 +0000 2013
p2221
sg131
I00
sg132
g236
sg134
Vhttps://pbs.twimg.com/profile_images/424960110956650496/RzeO6zE3_normal.jpeg
p2222
sg136
I1999
sg137
I41237
sg138
Nsg139
Nsg140
I00
sg141
Vhttps://pbs.twimg.com/profile_banners/712399965/1385041858
p2223
sg143
I00
sg144
I00
sg145
V0084B4
p2224
sg147
I01
sg148
I00
sg149
Vhttp://abs.twimg.com/images/themes/theme1/bg.png
p2225
sg151
Vnshaikh6677
p2226
sg153
I27
sg154
VNasrullah Shaikh
p2227
sg156
VDDEEF6
p2228
sg158
Nsg160
I712399965
sg161
VC0DEED
p2229
sbsg163
I31
sg164
V<a href="http://twitter.com/download/android" rel="nofollow">Twitter for Android</a>
p2230
sg166
(lp2231
sg160
I544202494780248064
sbag3
(g4
g5
Ntp2232
Rp2233
(dp2234
g9
I0
sg10
Nsg11
Nsg12
(lp2235
sg28
I00
sg29
g3
(g4
g5
Ntp2236
Rp2237
(dp2238
g9
I54
sg10
Nsg11
Nsg12
(lp2239
sg28
I00
sg29
Nsg46
Nsg47
(lp2240
(dp2241
Vsource_user_id
p2242
I253003217
sVsource_status_id_str
p2243
V424343047099252736
p2244
sVexpanded_url
p2245
Vhttp://twitter.com/CutestAnimalsPi/status/424343047099252736/photo/1
p2246
sVdisplay_url
p2247
Vpic.twitter.com/ej94oLWinT
p2248
sVurl
p2249
Vhttp://t.co/ej94oLWinT
p2250
sVmedia_url_https
p2251
Vhttps://pbs.twimg.com/media/BeORwMmCAAAltP2.jpg
p2252
sVsource_user_id_str
p2253
V253003217
p2254
sVsource_status_id
p2255
I424343047099252736
sVid_str
p2256
V424343047103447040
p2257
sVsizes
p2258
(dp2259
Vsmall
p2260
(dp2261
Vh
p2262
I216
sVresize
p2263
Vfit
p2264
sVw
p2265
I340
ssVlarge
p2266
(dp2267
Vh
p2268
I380
sVresize
p2269
Vfit
p2270
sVw
p2271
I596
ssVmedium
p2272
(dp2273
Vh
p2274
I380
sVresize
p2275
Vfit
p2276
sVw
p2277
I596
ssVthumb
p2278
(dp2279
Vh
p2280
I150
sVresize
p2281
Vcrop
p2282
sVw
p2283
I150
sssVindices
p2284
(lp2285
I0
aI22
asVtype
p2286
Vphoto
p2287
sVid
p2288
I424343047103447040
sVmedia_url
p2289
Vhttp://pbs.twimg.com/media/BeORwMmCAAAltP2.jpg
p2290
sasg93
Nsg94
Nsg95
Nsg96
VSun Dec 14 11:00:04 +0000 2014
p2291
sg98
Nsg99
I00
sg100
Nsg101
Nsg102
Nsg103
Nsg104
I00
sg105
Nsg106
(lp2292
sg108
Nsg109
V544084400309157888
p2293
sg111
Nsg112
Vhttp://t.co/ej94oLWinT
p2294
sg114
I00
sg115
Vund
p2295
sg117
g3
(g118
g5
Ntp2296
Rp2297
(dp2298
g10
g236
sg123
V333333
p2299
sg125
Ven
p2300
sg127
VCentral Time (US & Canada)
p2301
sg128
I34425
sg129
I16816
sg96
VWed Feb 16 10:49:50 +0000 2011
p2302
sg131
I00
sg132
g236
sg134
Vhttps://pbs.twimg.com/profile_images/428607162948919296/acIWGxG__normal.jpeg
p2303
sg136
I24734
sg137
I0
sg138
I-21600
sg139
Nsg140
I00
sg141
Vhttps://pbs.twimg.com/profile_banners/253003190/1391023238
p2304
sg143
I00
sg144
I00
sg145
VFF3300
p2305
sg147
I00
sg148
I00
sg149
Vhttp://abs.twimg.com/images/themes/theme6/bg.gif
p2306
sg151
VCutestAnimalsPh
p2307
sg153
I145
sg154
VCutest Animals
p2308
sg156
VA0C5C7
p2309
sg158
Nsg160
I253003190
sg161
V709397
p2310
sbsg163
I26
sg164
V<a href="http://www.kucukbeyin.com/" rel="nofollow">CutePuppyPhoto</a>
p2311
sg166
(lp2312
sg160
I544084400309157888
sbsg46
Nsg47
(lp2313
(dp2314
Vsource_user_id
p2315
I253003217
sVsource_status_id_str
p2316
V424343047099252736
p2317
sVexpanded_url
p2318
Vhttp://twitter.com/CutestAnimalsPi/status/424343047099252736/photo/1
p2319
sVdisplay_url
p2320
Vpic.twitter.com/ej94oLWinT
p2321
sVurl
p2322
Vhttp://t.co/ej94oLWinT
p2323
sVmedia_url_https
p2324
Vhttps://pbs.twimg.com/media/BeORwMmCAAAltP2.jpg
p2325
sVsource_user_id_str
p2326
V253003217
p2327
sVsource_status_id
p2328
I424343047099252736
sVid_str
p2329
V424343047103447040
p2330
sVsizes
p2331
(dp2332
Vsmall
p2333
(dp2334
Vh
p2335
I216
sVresize
p2336
Vfit
p2337
sVw
p2338
I340
ssVlarge
p2339
(dp2340
Vh
p2341
I380
sVresize
p2342
Vfit
p2343
sVw
p2344
I596
ssVmedium
p2345
(dp2346
Vh
p2347
I380
sVresize
p2348
Vfit
p2349
sVw
p2350
I596
ssVthumb
p2351
(dp2352
Vh
p2353
I150
sVresize
p2354
Vcrop
p2355
sVw
p2356
I150
sssVindices
p2357
(lp2358
I21
aI43
asVtype
p2359
Vphoto
p2360
sVid
p2361
I424343047103447040
sVmedia_url
p2362
Vhttp://pbs.twimg.com/media/BeORwMmCAAAltP2.jpg
p2363
sasg93
Nsg94
Nsg95
Nsg96
VSun Dec 14 18:49:13 +0000 2014
p2364
sg98
Nsg99
I00
sg100
Nsg101
Nsg102
Nsg103
Nsg104
I00
sg105
Nsg106
(lp2365
g3
(g118
g5
Ntp2366
Rp2367
(dp2368
g10
Nsg123
Nsg125
Nsg127
Nsg128
Nsg129
Nsg96
Nsg131
Nsg132
Nsg134
Nsg136
Nsg137
Nsg138
Nsg139
Nsg140
Nsg141
Nsg143
Nsg144
Nsg145
Nsg147
Nsg148
Nsg149
Nsg151
VCutestAnimalsPh
p2369
sg153
Nsg154
VCutest Animals
p2370
sg156
Nsg158
Nsg160
I253003190
sg161
Nsbasg108
Nsg109
V544202464656777216
p2371
sg111
Nsg112
VRT @CutestAnimalsPh: http://t.co/ej94oLWinT
p2372
sg114
I00
sg115
Vund
p2373
sg117
g3
(g118
g5
Ntp2374
Rp2375
(dp2376
g10
VKarachi
p2377
sg123
V333333
p2378
sg125
Ven
p2379
sg127
Nsg128
I2235
sg129
I33444
sg96
VSun Oct 13 10:11:19 +0000 2013
p2380
sg131
I00
sg132
g236
sg134
Vhttps://pbs.twimg.com/profile_images/424960110956650496/RzeO6zE3_normal.jpeg
p2381
sg136
I1999
sg137
I41237
sg138
Nsg139
Nsg140
I00
sg141
Vhttps://pbs.twimg.com/profile_banners/712399965/1385041858
p2382
sg143
I00
sg144
I00
sg145
V0084B4
p2383
sg147
I01
sg148
I00
sg149
Vhttp://abs.twimg.com/images/themes/theme1/bg.png
p2384
sg151
Vnshaikh6677
p2385
sg153
I27
sg154
VNasrullah Shaikh
p2386
sg156
VDDEEF6
p2387
sg158
Nsg160
I712399965
sg161
VC0DEED
p2388
sbsg163
I26
sg164
V<a href="http://twitter.com/download/android" rel="nofollow">Twitter for Android</a>
p2389
sg166
(lp2390
sg160
I544202464656777216
sbag3
(g4
g5
Ntp2391
Rp2392
(dp2393
g9
I0
sg10
Nsg11
Nsg12
(lp2394
sg28
I00
sg29
g3
(g4
g5
Ntp2395
Rp2396
(dp2397
g9
I44
sg10
Nsg11
Nsg12
(lp2398
sg28
I00
sg29
Nsg46
Nsg47
(lp2399
(dp2400
Vsource_user_id
p2401
I253003217
sVsource_status_id_str
p2402
V424343097451888641
p2403
sVexpanded_url
p2404
Vhttp://twitter.com/CutestAnimalsPi/status/424343097451888641/photo/1
p2405
sVdisplay_url
p2406
Vpic.twitter.com/wL0ha8mooo
p2407
sVurl
p2408
Vhttp://t.co/wL0ha8mooo
p2409
sVmedia_url_https
p2410
Vhttps://pbs.twimg.com/media/BeORzIRCQAAacel.jpg
p2411
sVsource_user_id_str
p2412
V253003217
p2413
sVsource_status_id
p2414
I424343097451888641
sVid_str
p2415
V424343097481248768
p2416
sVsizes
p2417
(dp2418
Vsmall
p2419
(dp2420
Vh
p2421
I340
sVresize
p2422
Vfit
p2423
sVw
p2424
I340
ssVlarge
p2425
(dp2426
Vh
p2427
I420
sVresize
p2428
Vfit
p2429
sVw
p2430
I420
ssVmedium
p2431
(dp2432
Vh
p2433
I420
sVresize
p2434
Vfit
p2435
sVw
p2436
I420
ssVthumb
p2437
(dp2438
Vh
p2439
I150
sVresize
p2440
Vcrop
p2441
sVw
p2442
I150
sssVindices
p2443
(lp2444
I0
aI22
asVtype
p2445
Vphoto
p2446
sVid
p2447
I424343097481248768
sVmedia_url
p2448
Vhttp://pbs.twimg.com/media/BeORzIRCQAAacel.jpg
p2449
sasg93
Nsg94
Nsg95
Nsg96
VSun Dec 14 11:30:03 +0000 2014
p2450
sg98
Nsg99
I00
sg100
Nsg101
Nsg102
Nsg103
Nsg104
I00
sg105
Nsg106
(lp2451
sg108
Nsg109
V544091948642861057
p2452
sg111
Nsg112
Vhttp://t.co/wL0ha8mooo
p2453
sg114
I00
sg115
Vund
p2454
sg117
g3
(g118
g5
Ntp2455
Rp2456
(dp2457
g10
g236
sg123
V333333
p2458
sg125
Ven
p2459
sg127
VCentral Time (US & Canada)
p2460
sg128
I34425
sg129
I16816
sg96
VWed Feb 16 10:49:50 +0000 2011
p2461
sg131
I00
sg132
g236
sg134
Vhttps://pbs.twimg.com/profile_images/428607162948919296/acIWGxG__normal.jpeg
p2462
sg136
I24734
sg137
I0
sg138
I-21600
sg139
Nsg140
I00
sg141
Vhttps://pbs.twimg.com/profile_banners/253003190/1391023238
p2463
sg143
I00
sg144
I00
sg145
VFF3300
p2464
sg147
I00
sg148
I00
sg149
Vhttp://abs.twimg.com/images/themes/theme6/bg.gif
p2465
sg151
VCutestAnimalsPh
p2466
sg153
I145
sg154
VCutest Animals
p2467
sg156
VA0C5C7
p2468
sg158
Nsg160
I253003190
sg161
V709397
p2469
sbsg163
I38
sg164
V<a href="http://www.kucukbeyin.com/" rel="nofollow">CutePuppyPhoto</a>
p2470
sg166
(lp2471
sg160
I544091948642861057
sbsg46
Nsg47
(lp2472
(dp2473
Vsource_user_id
p2474
I253003217
sVsource_status_id_str
p2475
V424343097451888641
p2476
sVexpanded_url
p2477
Vhttp://twitter.com/CutestAnimalsPi/status/424343097451888641/photo/1
p2478
sVdisplay_url
p2479
Vpic.twitter.com/wL0ha8mooo
p2480
sVurl
p2481
Vhttp://t.co/wL0ha8mooo
p2482
sVmedia_url_https
p2483
Vhttps://pbs.twimg.com/media/BeORzIRCQAAacel.jpg
p2484
sVsource_user_id_str
p2485
V253003217
p2486
sVsource_status_id
p2487
I424343097451888641
sVid_str
p2488
V424343097481248768
p2489
sVsizes
p2490
(dp2491
Vsmall
p2492
(dp2493
Vh
p2494
I340
sVresize
p2495
Vfit
p2496
sVw
p2497
I340
ssVlarge
p2498
(dp2499
Vh
p2500
I420
sVresize
p2501
Vfit
p2502
sVw
p2503
I420
ssVmedium
p2504
(dp2505
Vh
p2506
I420
sVresize
p2507
Vfit
p2508
sVw
p2509
I420
ssVthumb
p2510
(dp2511
Vh
p2512
I150
sVresize
p2513
Vcrop
p2514
sVw
p2515
I150
sssVindices
p2516
(lp2517
I21
aI43
asVtype
p2518
Vphoto
p2519
sVid
p2520
I424343097481248768
sVmedia_url
p2521
Vhttp://pbs.twimg.com/media/BeORzIRCQAAacel.jpg
p2522
sasg93
Nsg94
Nsg95
Nsg96
VSun Dec 14 18:49:08 +0000 2014
p2523
sg98
Nsg99
I00
sg100
Nsg101
Nsg102
Nsg103
Nsg104
I00
sg105
Nsg106
(lp2524
g3
(g118
g5
Ntp2525
Rp2526
(dp2527
g10
Nsg123
Nsg125
Nsg127
Nsg128
Nsg129
Nsg96
Nsg131
Nsg132
Nsg134
Nsg136
Nsg137
Nsg138
Nsg139
Nsg140
Nsg141
Nsg143
Nsg144
Nsg145
Nsg147
Nsg148
Nsg149
Nsg151
VCutestAnimalsPh
p2528
sg153
Nsg154
VCutest Animals
p2529
sg156
Nsg158
Nsg160
I253003190
sg161
Nsbasg108
Nsg109
V544202444981297152
p2530
sg111
Nsg112
VRT @CutestAnimalsPh: http://t.co/wL0ha8mooo
p2531
sg114
I00
sg115
Vund
p2532
sg117
g3
(g118
g5
Ntp2533
Rp2534
(dp2535
g10
VKarachi
p2536
sg123
V333333
p2537
sg125
Ven
p2538
sg127
Nsg128
I2235
sg129
I33444
sg96
VSun Oct 13 10:11:19 +0000 2013
p2539
sg131
I00
sg132
g236
sg134
Vhttps://pbs.twimg.com/profile_images/424960110956650496/RzeO6zE3_normal.jpeg
p2540
sg136
I1999
sg137
I41237
sg138
Nsg139
Nsg140
I00
sg141
Vhttps://pbs.twimg.com/profile_banners/712399965/1385041858
p2541
sg143
I00
sg144
I00
sg145
V0084B4
p2542
sg147
I01
sg148
I00
sg149
Vhttp://abs.twimg.com/images/themes/theme1/bg.png
p2543
sg151
Vnshaikh6677
p2544
sg153
I27
sg154
VNasrullah Shaikh
p2545
sg156
VDDEEF6
p2546
sg158
Nsg160
I712399965
sg161
VC0DEED
p2547
sbsg163
I38
sg164
V<a href="http://twitter.com/download/android" rel="nofollow">Twitter for Android</a>
p2548
sg166
(lp2549
sg160
I544202444981297152
sbag3
(g4
g5
Ntp2550
Rp2551
(dp2552
g9
I0
sg10
Nsg11
Nsg12
(lp2553
sg28
I00
sg29
g3
(g4
g5
Ntp2554
Rp2555
(dp2556
g9
I42
sg10
Nsg11
Nsg12
(lp2557
sg28
I00
sg29
Nsg46
Nsg47
(lp2558
(dp2559
Vsource_user_id
p2560
I253003217
sVsource_status_id_str
p2561
V424343152074313728
p2562
sVexpanded_url
p2563
Vhttp://twitter.com/CutestAnimalsPi/status/424343152074313728/photo/1
p2564
sVdisplay_url
p2565
Vpic.twitter.com/ylUttRolC2
p2566
sVurl
p2567
Vhttp://t.co/ylUttRolC2
p2568
sVmedia_url_https
p2569
Vhttps://pbs.twimg.com/media/BeOR2TqCUAAgv-7.jpg
p2570
sVsource_user_id_str
p2571
V253003217
p2572
sVsource_status_id
p2573
I424343152074313728
sVid_str
p2574
V424343152078508032
p2575
sVsizes
p2576
(dp2577
Vsmall
p2578
(dp2579
Vh
p2580
I318
sVresize
p2581
Vfit
p2582
sVw
p2583
I340
ssVlarge
p2584
(dp2585
Vh
p2586
I319
sVresize
p2587
Vfit
p2588
sVw
p2589
I341
ssVmedium
p2590
(dp2591
Vh
p2592
I319
sVresize
p2593
Vfit
p2594
sVw
p2595
I341
ssVthumb
p2596
(dp2597
Vh
p2598
I150
sVresize
p2599
Vcrop
p2600
sVw
p2601
I150
sssVindices
p2602
(lp2603
I0
aI22
asVtype
p2604
Vphoto
p2605
sVid
p2606
I424343152078508032
sVmedia_url
p2607
Vhttp://pbs.twimg.com/media/BeOR2TqCUAAgv-7.jpg
p2608
sasg93
Nsg94
Nsg95
Nsg96
VSun Dec 14 12:00:03 +0000 2014
p2609
sg98
Nsg99
I00
sg100
Nsg101
Nsg102
Nsg103
Nsg104
I00
sg105
Nsg106
(lp2610
sg108
Nsg109
V544099495663767552
p2611
sg111
Nsg112
Vhttp://t.co/ylUttRolC2
p2612
sg114
I00
sg115
Vund
p2613
sg117
g3
(g118
g5
Ntp2614
Rp2615
(dp2616
g10
g236
sg123
V333333
p2617
sg125
Ven
p2618
sg127
VCentral Time (US & Canada)
p2619
sg128
I34425
sg129
I16816
sg96
VWed Feb 16 10:49:50 +0000 2011
p2620
sg131
I00
sg132
g236
sg134
Vhttps://pbs.twimg.com/profile_images/428607162948919296/acIWGxG__normal.jpeg
p2621
sg136
I24734
sg137
I0
sg138
I-21600
sg139
Nsg140
I00
sg141
Vhttps://pbs.twimg.com/profile_banners/253003190/1391023238
p2622
sg143
I00
sg144
I00
sg145
VFF3300
p2623
sg147
I00
sg148
I00
sg149
Vhttp://abs.twimg.com/images/themes/theme6/bg.gif
p2624
sg151
VCutestAnimalsPh
p2625
sg153
I145
sg154
VCutest Animals
p2626
sg156
VA0C5C7
p2627
sg158
Nsg160
I253003190
sg161
V709397
p2628
sbsg163
I24
sg164
V<a href="http://www.kucukbeyin.com/" rel="nofollow">CutePuppyPhoto</a>
p2629
sg166
(lp2630
sg160
I544099495663767552
sbsg46
Nsg47
(lp2631
(dp2632
Vsource_user_id
p2633
I253003217
sVsource_status_id_str
p2634
V424343152074313728
p2635
sVexpanded_url
p2636
Vhttp://twitter.com/CutestAnimalsPi/status/424343152074313728/photo/1
p2637
sVdisplay_url
p2638
Vpic.twitter.com/ylUttRolC2
p2639
sVurl
p2640
Vhttp://t.co/ylUttRolC2
p2641
sVmedia_url_https
p2642
Vhttps://pbs.twimg.com/media/BeOR2TqCUAAgv-7.jpg
p2643
sVsource_user_id_str
p2644
V253003217
p2645
sVsource_status_id
p2646
I424343152074313728
sVid_str
p2647
V424343152078508032
p2648
sVsizes
p2649
(dp2650
Vsmall
p2651
(dp2652
Vh
p2653
I318
sVresize
p2654
Vfit
p2655
sVw
p2656
I340
ssVlarge
p2657
(dp2658
Vh
p2659
I319
sVresize
p2660
Vfit
p2661
sVw
p2662
I341
ssVmedium
p2663
(dp2664
Vh
p2665
I319
sVresize
p2666
Vfit
p2667
sVw
p2668
I341
ssVthumb
p2669
(dp2670
Vh
p2671
I150
sVresize
p2672
Vcrop
p2673
sVw
p2674
I150
sssVindices
p2675
(lp2676
I21
aI43
asVtype
p2677
Vphoto
p2678
sVid
p2679
I424343152078508032
sVmedia_url
p2680
Vhttp://pbs.twimg.com/media/BeOR2TqCUAAgv-7.jpg
p2681
sasg93
Nsg94
Nsg95
Nsg96
VSun Dec 14 18:49:05 +0000 2014
p2682
sg98
Nsg99
I00
sg100
Nsg101
Nsg102
Nsg103
Nsg104
I00
sg105
Nsg106
(lp2683
g3
(g118
g5
Ntp2684
Rp2685
(dp2686
g10
Nsg123
Nsg125
Nsg127
Nsg128
Nsg129
Nsg96
Nsg131
Nsg132
Nsg134
Nsg136
Nsg137
Nsg138
Nsg139
Nsg140
Nsg141
Nsg143
Nsg144
Nsg145
Nsg147
Nsg148
Nsg149
Nsg151
VCutestAnimalsPh
p2687
sg153
Nsg154
VCutest Animals
p2688
sg156
Nsg158
Nsg160
I253003190
sg161
Nsbasg108
Nsg109
V544202433916698624
p2689
sg111
Nsg112
VRT @CutestAnimalsPh: http://t.co/ylUttRolC2
p2690
sg114
I00
sg115
Vund
p2691
sg117
g3
(g118
g5
Ntp2692
Rp2693
(dp2694
g10
VKarachi
p2695
sg123
V333333
p2696
sg125
Ven
p2697
sg127
Nsg128
I2235
sg129
I33444
sg96
VSun Oct 13 10:11:19 +0000 2013
p2698
sg131
I00
sg132
g236
sg134
Vhttps://pbs.twimg.com/profile_images/424960110956650496/RzeO6zE3_normal.jpeg
p2699
sg136
I1999
sg137
I41237
sg138
Nsg139
Nsg140
I00
sg141
Vhttps://pbs.twimg.com/profile_banners/712399965/1385041858
p2700
sg143
I00
sg144
I00
sg145
V0084B4
p2701
sg147
I01
sg148
I00
sg149
Vhttp://abs.twimg.com/images/themes/theme1/bg.png
p2702
sg151
Vnshaikh6677
p2703
sg153
I27
sg154
VNasrullah Shaikh
p2704
sg156
VDDEEF6
p2705
sg158
Nsg160
I712399965
sg161
VC0DEED
p2706
sbsg163
I24
sg164
V<a href="http://twitter.com/download/android" rel="nofollow">Twitter for Android</a>
p2707
sg166
(lp2708
sg160
I544202433916698624
sbag3
(g4
g5
Ntp2709
Rp2710
(dp2711
g9
I0
sg10
Nsg11
Nsg12
(lp2712
sg28
I00
sg29
g3
(g4
g5
Ntp2713
Rp2714
(dp2715
g9
I30
sg10
Nsg11
Nsg12
(lp2716
sg28
I00
sg29
Nsg46
Nsg47
(lp2717
(dp2718
Vsource_user_id
p2719
I253003217
sVsource_status_id_str
p2720
V424343250397184001
p2721
sVexpanded_url
p2722
Vhttp://twitter.com/CutestAnimalsPi/status/424343250397184001/photo/1
p2723
sVdisplay_url
p2724
Vpic.twitter.com/oZemdyBKEi
p2725
sVurl
p2726
Vhttp://t.co/oZemdyBKEi
p2727
sVmedia_url_https
p2728
Vhttps://pbs.twimg.com/media/BeOR8B8CQAAZHPt.jpg
p2729
sVsource_user_id_str
p2730
V253003217
p2731
sVsource_status_id
p2732
I424343250397184001
sVid_str
p2733
V424343250401378304
p2734
sVsizes
p2735
(dp2736
Vsmall
p2737
(dp2738
Vh
p2739
I255
sVresize
p2740
Vfit
p2741
sVw
p2742
I340
ssVlarge
p2743
(dp2744
Vh
p2745
I350
sVresize
p2746
Vfit
p2747
sVw
p2748
I466
ssVmedium
p2749
(dp2750
Vh
p2751
I350
sVresize
p2752
Vfit
p2753
sVw
p2754
I466
ssVthumb
p2755
(dp2756
Vh
p2757
I150
sVresize
p2758
Vcrop
p2759
sVw
p2760
I150
sssVindices
p2761
(lp2762
I0
aI22
asVtype
p2763
Vphoto
p2764
sVid
p2765
I424343250401378304
sVmedia_url
p2766
Vhttp://pbs.twimg.com/media/BeOR8B8CQAAZHPt.jpg
p2767
sasg93
Nsg94
Nsg95
Nsg96
VSun Dec 14 13:00:03 +0000 2014
p2768
sg98
Nsg99
I00
sg100
Nsg101
Nsg102
Nsg103
Nsg104
I00
sg105
Nsg106
(lp2769
sg108
Nsg109
V544114595233689601
p2770
sg111
Nsg112
Vhttp://t.co/oZemdyBKEi
p2771
sg114
I00
sg115
Vund
p2772
sg117
g3
(g118
g5
Ntp2773
Rp2774
(dp2775
g10
g236
sg123
V333333
p2776
sg125
Ven
p2777
sg127
VCentral Time (US & Canada)
p2778
sg128
I34425
sg129
I16816
sg96
VWed Feb 16 10:49:50 +0000 2011
p2779
sg131
I00
sg132
g236
sg134
Vhttps://pbs.twimg.com/profile_images/428607162948919296/acIWGxG__normal.jpeg
p2780
sg136
I24734
sg137
I0
sg138
I-21600
sg139
Nsg140
I00
sg141
Vhttps://pbs.twimg.com/profile_banners/253003190/1391023238
p2781
sg143
I00
sg144
I00
sg145
VFF3300
p2782
sg147
I00
sg148
I00
sg149
Vhttp://abs.twimg.com/images/themes/theme6/bg.gif
p2783
sg151
VCutestAnimalsPh
p2784
sg153
I145
sg154
VCutest Animals
p2785
sg156
VA0C5C7
p2786
sg158
Nsg160
I253003190
sg161
V709397
p2787
sbsg163
I20
sg164
V<a href="http://www.kucukbeyin.com/" rel="nofollow">CutePuppyPhoto</a>
p2788
sg166
(lp2789
sg160
I544114595233689601
sbsg46
Nsg47
(lp2790
(dp2791
Vsource_user_id
p2792
I253003217
sVsource_status_id_str
p2793
V424343250397184001
p2794
sVexpanded_url
p2795
Vhttp://twitter.com/CutestAnimalsPi/status/424343250397184001/photo/1
p2796
sVdisplay_url
p2797
Vpic.twitter.com/oZemdyBKEi
p2798
sVurl
p2799
Vhttp://t.co/oZemdyBKEi
p2800
sVmedia_url_https
p2801
Vhttps://pbs.twimg.com/media/BeOR8B8CQAAZHPt.jpg
p2802
sVsource_user_id_str
p2803
V253003217
p2804
sVsource_status_id
p2805
I424343250397184001
sVid_str
p2806
V424343250401378304
p2807
sVsizes
p2808
(dp2809
Vsmall
p2810
(dp2811
Vh
p2812
I255
sVresize
p2813
Vfit
p2814
sVw
p2815
I340
ssVlarge
p2816
(dp2817
Vh
p2818
I350
sVresize
p2819
Vfit
p2820
sVw
p2821
I466
ssVmedium
p2822
(dp2823
Vh
p2824
I350
sVresize
p2825
Vfit
p2826
sVw
p2827
I466
ssVthumb
p2828
(dp2829
Vh
p2830
I150
sVresize
p2831
Vcrop
p2832
sVw
p2833
I150
sssVindices
p2834
(lp2835
I21
aI43
asVtype
p2836
Vphoto
p2837
sVid
p2838
I424343250401378304
sVmedia_url
p2839
Vhttp://pbs.twimg.com/media/BeOR8B8CQAAZHPt.jpg
p2840
sasg93
Nsg94
Nsg95
Nsg96
VSun Dec 14 18:49:02 +0000 2014
p2841
sg98
Nsg99
I00
sg100
Nsg101
Nsg102
Nsg103
Nsg104
I00
sg105
Nsg106
(lp2842
g3
(g118
g5
Ntp2843
Rp2844
(dp2845
g10
Nsg123
Nsg125
Nsg127
Nsg128
Nsg129
Nsg96
Nsg131
Nsg132
Nsg134
Nsg136
Nsg137
Nsg138
Nsg139
Nsg140
Nsg141
Nsg143
Nsg144
Nsg145
Nsg147
Nsg148
Nsg149
Nsg151
VCutestAnimalsPh
p2846
sg153
Nsg154
VCutest Animals
p2847
sg156
Nsg158
Nsg160
I253003190
sg161
Nsbasg108
Nsg109
V544202419052498945
p2848
sg111
Nsg112
VRT @CutestAnimalsPh: http://t.co/oZemdyBKEi
p2849
sg114
I00
sg115
Vund
p2850
sg117
g3
(g118
g5
Ntp2851
Rp2852
(dp2853
g10
VKarachi
p2854
sg123
V333333
p2855
sg125
Ven
p2856
sg127
Nsg128
I2235
sg129
I33444
sg96
VSun Oct 13 10:11:19 +0000 2013
p2857
sg131
I00
sg132
g236
sg134
Vhttps://pbs.twimg.com/profile_images/424960110956650496/RzeO6zE3_normal.jpeg
p2858
sg136
I1999
sg137
I41237
sg138
Nsg139
Nsg140
I00
sg141
Vhttps://pbs.twimg.com/profile_banners/712399965/1385041858
p2859
sg143
I00
sg144
I00
sg145
V0084B4
p2860
sg147
I01
sg148
I00
sg149
Vhttp://abs.twimg.com/images/themes/theme1/bg.png
p2861
sg151
Vnshaikh6677
p2862
sg153
I27
sg154
VNasrullah Shaikh
p2863
sg156
VDDEEF6
p2864
sg158
Nsg160
I712399965
sg161
VC0DEED
p2865
sbsg163
I20
sg164
V<a href="http://twitter.com/download/android" rel="nofollow">Twitter for Android</a>
p2866
sg166
(lp2867
sg160
I544202419052498945
sbag3
(g4
g5
Ntp2868
Rp2869
(dp2870
g9
I0
sg10
Nsg11
Nsg12
(lp2871
sg28
I00
sg29
g3
(g4
g5
Ntp2872
Rp2873
(dp2874
g9
I38
sg10
Nsg11
Nsg12
(lp2875
sg28
I00
sg29
Nsg46
Nsg47
(lp2876
(dp2877
Vsource_user_id
p2878
I253003217
sVsource_status_id_str
p2879
V424343296907825152
p2880
sVexpanded_url
p2881
Vhttp://twitter.com/CutestAnimalsPi/status/424343296907825152/photo/1
p2882
sVdisplay_url
p2883
Vpic.twitter.com/kFb3u3BpPT
p2884
sVurl
p2885
Vhttp://t.co/kFb3u3BpPT
p2886
sVmedia_url_https
p2887
Vhttps://pbs.twimg.com/media/BeOR-vNCUAAu0a3.jpg
p2888
sVsource_user_id_str
p2889
V253003217
p2890
sVsource_status_id
p2891
I424343296907825152
sVid_str
p2892
V424343296912019456
p2893
sVsizes
p2894
(dp2895
Vlarge
p2896
(dp2897
Vh
p2898
I371
sVresize
p2899
Vfit
p2900
sVw
p2901
I661
ssVsmall
p2902
(dp2903
Vh
p2904
I190
sVresize
p2905
Vfit
p2906
sVw
p2907
I340
ssVmedium
p2908
(dp2909
Vh
p2910
I336
sVresize
p2911
Vfit
p2912
sVw
p2913
I600
ssVthumb
p2914
(dp2915
Vh
p2916
I150
sVresize
p2917
Vcrop
p2918
sVw
p2919
I150
sssVindices
p2920
(lp2921
I0
aI22
asVtype
p2922
Vphoto
p2923
sVid
p2924
I424343296912019456
sVmedia_url
p2925
Vhttp://pbs.twimg.com/media/BeOR-vNCUAAu0a3.jpg
p2926
sasg93
Nsg94
Nsg95
Nsg96
VSun Dec 14 13:30:03 +0000 2014
p2927
sg98
Nsg99
I00
sg100
Nsg101
Nsg102
Nsg103
Nsg104
I00
sg105
Nsg106
(lp2928
sg108
Nsg109
V544122147002523648
p2929
sg111
Nsg112
Vhttp://t.co/kFb3u3BpPT
p2930
sg114
I00
sg115
Vund
p2931
sg117
g3
(g118
g5
Ntp2932
Rp2933
(dp2934
g10
g236
sg123
V333333
p2935
sg125
Ven
p2936
sg127
VCentral Time (US & Canada)
p2937
sg128
I34425
sg129
I16816
sg96
VWed Feb 16 10:49:50 +0000 2011
p2938
sg131
I00
sg132
g236
sg134
Vhttps://pbs.twimg.com/profile_images/428607162948919296/acIWGxG__normal.jpeg
p2939
sg136
I24734
sg137
I0
sg138
I-21600
sg139
Nsg140
I00
sg141
Vhttps://pbs.twimg.com/profile_banners/253003190/1391023238
p2940
sg143
I00
sg144
I00
sg145
VFF3300
p2941
sg147
I00
sg148
I00
sg149
Vhttp://abs.twimg.com/images/themes/theme6/bg.gif
p2942
sg151
VCutestAnimalsPh
p2943
sg153
I145
sg154
VCutest Animals
p2944
sg156
VA0C5C7
p2945
sg158
Nsg160
I253003190
sg161
V709397
p2946
sbsg163
I34
sg164
V<a href="http://www.kucukbeyin.com/" rel="nofollow">CutePuppyPhoto</a>
p2947
sg166
(lp2948
sg160
I544122147002523648
sbsg46
Nsg47
(lp2949
(dp2950
Vsource_user_id
p2951
I253003217
sVsource_status_id_str
p2952
V424343296907825152
p2953
sVexpanded_url
p2954
Vhttp://twitter.com/CutestAnimalsPi/status/424343296907825152/photo/1
p2955
sVdisplay_url
p2956
Vpic.twitter.com/kFb3u3BpPT
p2957
sVurl
p2958
Vhttp://t.co/kFb3u3BpPT
p2959
sVmedia_url_https
p2960
Vhttps://pbs.twimg.com/media/BeOR-vNCUAAu0a3.jpg
p2961
sVsource_user_id_str
p2962
V253003217
p2963
sVsource_status_id
p2964
I424343296907825152
sVid_str
p2965
V424343296912019456
p2966
sVsizes
p2967
(dp2968
Vlarge
p2969
(dp2970
Vh
p2971
I371
sVresize
p2972
Vfit
p2973
sVw
p2974
I661
ssVsmall
p2975
(dp2976
Vh
p2977
I190
sVresize
p2978
Vfit
p2979
sVw
p2980
I340
ssVmedium
p2981
(dp2982
Vh
p2983
I336
sVresize
p2984
Vfit
p2985
sVw
p2986
I600
ssVthumb
p2987
(dp2988
Vh
p2989
I150
sVresize
p2990
Vcrop
p2991
sVw
p2992
I150
sssVindices
p2993
(lp2994
I21
aI43
asVtype
p2995
Vphoto
p2996
sVid
p2997
I424343296912019456
sVmedia_url
p2998
Vhttp://pbs.twimg.com/media/BeOR-vNCUAAu0a3.jpg
p2999
sasg93
Nsg94
Nsg95
Nsg96
VSun Dec 14 18:48:57 +0000 2014
p3000
sg98
Nsg99
I00
sg100
Nsg101
Nsg102
Nsg103
Nsg104
I00
sg105
Nsg106
(lp3001
g3
(g118
g5
Ntp3002
Rp3003
(dp3004
g10
Nsg123
Nsg125
Nsg127
Nsg128
Nsg129
Nsg96
Nsg131
Nsg132
Nsg134
Nsg136
Nsg137
Nsg138
Nsg139
Nsg140
Nsg141
Nsg143
Nsg144
Nsg145
Nsg147
Nsg148
Nsg149
Nsg151
VCutestAnimalsPh
p3005
sg153
Nsg154
VCutest Animals
p3006
sg156
Nsg158
Nsg160
I253003190
sg161
Nsbasg108
Nsg109
V544202401385689089
p3007
sg111
Nsg112
VRT @CutestAnimalsPh: http://t.co/kFb3u3BpPT
p3008
sg114
I00
sg115
Vund
p3009
sg117
g3
(g118
g5
Ntp3010
Rp3011
(dp3012
g10
VKarachi
p3013
sg123
V333333
p3014
sg125
Ven
p3015
sg127
Nsg128
I2235
sg129
I33444
sg96
VSun Oct 13 10:11:19 +0000 2013
p3016
sg131
I00
sg132
g236
sg134
Vhttps://pbs.twimg.com/profile_images/424960110956650496/RzeO6zE3_normal.jpeg
p3017
sg136
I1999
sg137
I41237
sg138
Nsg139
Nsg140
I00
sg141
Vhttps://pbs.twimg.com/profile_banners/712399965/1385041858
p3018
sg143
I00
sg144
I00
sg145
V0084B4
p3019
sg147
I01
sg148
I00
sg149
Vhttp://abs.twimg.com/images/themes/theme1/bg.png
p3020
sg151
Vnshaikh6677
p3021
sg153
I27
sg154
VNasrullah Shaikh
p3022
sg156
VDDEEF6
p3023
sg158
Nsg160
I712399965
sg161
VC0DEED
p3024
sbsg163
I34
sg164
V<a href="http://twitter.com/download/android" rel="nofollow">Twitter for Android</a>
p3025
sg166
(lp3026
sg160
I544202401385689089
sbag3
(g4
g5
Ntp3027
Rp3028
(dp3029
g9
I0
sg10
Nsg11
Nsg12
(lp3030
sg28
I00
sg29
g3
(g4
g5
Ntp3031
Rp3032
(dp3033
g9
I37
sg10
Nsg11
Nsg12
(lp3034
sg28
I00
sg29
Nsg46
Nsg47
(lp3035
(dp3036
Vsource_user_id
p3037
I253003217
sVsource_status_id_str
p3038
V424671923688071168
p3039
sVexpanded_url
p3040
Vhttp://twitter.com/CutestAnimalsPi/status/424671923688071168/photo/1
p3041
sVdisplay_url
p3042
Vpic.twitter.com/b8kjbegeMv
p3043
sVurl
p3044
Vhttp://t.co/b8kjbegeMv
p3045
sVmedia_url_https
p3046
Vhttps://pbs.twimg.com/media/BeS83U1CUAEBMqn.jpg
p3047
sVsource_user_id_str
p3048
V253003217
p3049
sVsource_status_id
p3050
I424671923688071168
sVid_str
p3051
V424671923549655041
p3052
sVsizes
p3053
(dp3054
Vsmall
p3055
(dp3056
Vh
p3057
I453
sVresize
p3058
Vfit
p3059
sVw
p3060
I340
ssVlarge
p3061
(dp3062
Vh
p3063
I667
sVresize
p3064
Vfit
p3065
sVw
p3066
I500
ssVmedium
p3067
(dp3068
Vh
p3069
I667
sVresize
p3070
Vfit
p3071
sVw
p3072
I500
ssVthumb
p3073
(dp3074
Vh
p3075
I150
sVresize
p3076
Vcrop
p3077
sVw
p3078
I150
sssVindices
p3079
(lp3080
I0
aI22
asVtype
p3081
Vphoto
p3082
sVid
p3083
I424671923549655041
sVmedia_url
p3084
Vhttp://pbs.twimg.com/media/BeS83U1CUAEBMqn.jpg
p3085
sasg93
Nsg94
Nsg95
Nsg96
VSun Dec 14 14:30:03 +0000 2014
p3086
sg98
Nsg99
I00
sg100
Nsg101
Nsg102
Nsg103
Nsg104
I00
sg105
Nsg106
(lp3087
sg108
Nsg109
V544137245268402177
p3088
sg111
Nsg112
Vhttp://t.co/b8kjbegeMv
p3089
sg114
I00
sg115
Vund
p3090
sg117
g3
(g118
g5
Ntp3091
Rp3092
(dp3093
g10
g236
sg123
V333333
p3094
sg125
Ven
p3095
sg127
VCentral Time (US & Canada)
p3096
sg128
I34425
sg129
I16816
sg96
VWed Feb 16 10:49:50 +0000 2011
p3097
sg131
I00
sg132
g236
sg134
Vhttps://pbs.twimg.com/profile_images/428607162948919296/acIWGxG__normal.jpeg
p3098
sg136
I24734
sg137
I0
sg138
I-21600
sg139
Nsg140
I00
sg141
Vhttps://pbs.twimg.com/profile_banners/253003190/1391023238
p3099
sg143
I00
sg144
I00
sg145
VFF3300
p3100
sg147
I00
sg148
I00
sg149
Vhttp://abs.twimg.com/images/themes/theme6/bg.gif
p3101
sg151
VCutestAnimalsPh
p3102
sg153
I145
sg154
VCutest Animals
p3103
sg156
VA0C5C7
p3104
sg158
Nsg160
I253003190
sg161
V709397
p3105
sbsg163
I31
sg164
V<a href="http://www.kucukbeyin.com/" rel="nofollow">CutePuppyPhoto</a>
p3106
sg166
(lp3107
sg160
I544137245268402177
sbsg46
Nsg47
(lp3108
(dp3109
Vsource_user_id
p3110
I253003217
sVsource_status_id_str
p3111
V424671923688071168
p3112
sVexpanded_url
p3113
Vhttp://twitter.com/CutestAnimalsPi/status/424671923688071168/photo/1
p3114
sVdisplay_url
p3115
Vpic.twitter.com/b8kjbegeMv
p3116
sVurl
p3117
Vhttp://t.co/b8kjbegeMv
p3118
sVmedia_url_https
p3119
Vhttps://pbs.twimg.com/media/BeS83U1CUAEBMqn.jpg
p3120
sVsource_user_id_str
p3121
V253003217
p3122
sVsource_status_id
p3123
I424671923688071168
sVid_str
p3124
V424671923549655041
p3125
sVsizes
p3126
(dp3127
Vsmall
p3128
(dp3129
Vh
p3130
I453
sVresize
p3131
Vfit
p3132
sVw
p3133
I340
ssVlarge
p3134
(dp3135
Vh
p3136
I667
sVresize
p3137
Vfit
p3138
sVw
p3139
I500
ssVmedium
p3140
(dp3141
Vh
p3142
I667
sVresize
p3143
Vfit
p3144
sVw
p3145
I500
ssVthumb
p3146
(dp3147
Vh
p3148
I150
sVresize
p3149
Vcrop
p3150
sVw
p3151
I150
sssVindices
p3152
(lp3153
I21
aI43
asVtype
p3154
Vphoto
p3155
sVid
p3156
I424671923549655041
sVmedia_url
p3157
Vhttp://pbs.twimg.com/media/BeS83U1CUAEBMqn.jpg
p3158
sasg93
Nsg94
Nsg95
Nsg96
VSun Dec 14 18:48:54 +0000 2014
p3159
sg98
Nsg99
I00
sg100
Nsg101
Nsg102
Nsg103
Nsg104
I00
sg105
Nsg106
(lp3160
g3
(g118
g5
Ntp3161
Rp3162
(dp3163
g10
Nsg123
Nsg125
Nsg127
Nsg128
Nsg129
Nsg96
Nsg131
Nsg132
Nsg134
Nsg136
Nsg137
Nsg138
Nsg139
Nsg140
Nsg141
Nsg143
Nsg144
Nsg145
Nsg147
Nsg148
Nsg149
Nsg151
VCutestAnimalsPh
p3164
sg153
Nsg154
VCutest Animals
p3165
sg156
Nsg158
Nsg160
I253003190
sg161
Nsbasg108
Nsg109
V544202386206519296
p3166
sg111
Nsg112
VRT @CutestAnimalsPh: http://t.co/b8kjbegeMv
p3167
sg114
I00
sg115
Vund
p3168
sg117
g3
(g118
g5
Ntp3169
Rp3170
(dp3171
g10
VKarachi
p3172
sg123
V333333
p3173
sg125
Ven
p3174
sg127
Nsg128
I2235
sg129
I33444
sg96
VSun Oct 13 10:11:19 +0000 2013
p3175
sg131
I00
sg132
g236
sg134
Vhttps://pbs.twimg.com/profile_images/424960110956650496/RzeO6zE3_normal.jpeg
p3176
sg136
I1999
sg137
I41237
sg138
Nsg139
Nsg140
I00
sg141
Vhttps://pbs.twimg.com/profile_banners/712399965/1385041858
p3177
sg143
I00
sg144
I00
sg145
V0084B4
p3178
sg147
I01
sg148
I00
sg149
Vhttp://abs.twimg.com/images/themes/theme1/bg.png
p3179
sg151
Vnshaikh6677
p3180
sg153
I27
sg154
VNasrullah Shaikh
p3181
sg156
VDDEEF6
p3182
sg158
Nsg160
I712399965
sg161
VC0DEED
p3183
sbsg163
I31
sg164
V<a href="http://twitter.com/download/android" rel="nofollow">Twitter for Android</a>
p3184
sg166
(lp3185
sg160
I544202386206519296
sbaa.