(lp0
S'cheapcigar'
p1
a(lp2
ccopy_reg
_reconstructor
p3
(ctwitter
Status
p4
c__builtin__
object
p5
Ntp6
Rp7
(dp8
S'_favorite_count'
p9
I0
sS'_location'
p10
NsS'_withheld_scope'
p11
NsS'hashtags'
p12
(lp13
sS'_truncated'
p14
I00
sS'_retweeted_status'
p15
NsS'_withheld_copyright'
p16
NsS'media'
p17
(lp18
sS'_place'
p19
NsS'_contributors'
p20
NsS'_current_user_retweet'
p21
NsS'_created_at'
p22
VSat Dec 13 15:22:05 +0000 2014
p23
sS'_scopes'
p24
NsS'_possibly_sensitive'
p25
I01
sS'_in_reply_to_screen_name'
p26
NsS'_coordinates'
p27
NsS'_in_reply_to_user_id'
p28
NsS'_geo'
p29
NsS'_favorited'
p30
I00
sS'_withheld_in_countries'
p31
NsS'user_mentions'
p32
(lp33
sS'_now'
p34
NsS'_id_str'
p35
V543787952984162304
p36
sS'_in_reply_to_status_id'
p37
NsS'_text'
p38
V"FBI - FBI Seeking Information About Serial Bank Robber" http://t.co/HSXfr6y6hi
p39
sS'_retweeted'
p40
I00
sS'lang'
p41
Ven
p42
sS'_user'
p43
g3
(ctwitter
User
p44
g5
Ntp45
Rp46
(dp47
g10
V \ufe3b\u2566\u2564\u2500\u2500   \ufe3b\u2566\u2564\u2500\u2500   \ufe3b\u2566\u2564\u2500\u2500   \ufe3b\u2566\u2564\u2500\u2500
p48
sS'_profile_text_color'
p49
V333333
p50
sS'_lang'
p51
Ven-gb
p52
sS'_time_zone'
p53
VLondon
p54
sS'_followers_count'
p55
I4552
sS'_statuses_count'
p56
I25702
sg22
VSat Mar 09 23:39:32 +0000 2013
p57
sS'_verified'
p58
I00
sS'_description'
p59
VPatriot, Army Veteran from 40 yrs ago, love my rescued dogs, rifles, pistols, and freedom. God Bless all US Armed Forces, Active,Vets,& Deceased. #NRA #PJNET
p60
sS'_profile_image_url'
p61
Vhttps://pbs.twimg.com/profile_images/542439961106997251/Qt0kA7_R_normal.jpeg
p62
sS'_friends_count'
p63
I4549
sS'_favourites_count'
p64
I8473
sS'_utc_offset'
p65
I0
sS'_status'
p66
NsS'_protected'
p67
I00
sS'_profile_banner_url'
p68
Vhttps://pbs.twimg.com/profile_banners/1255621518/1418165233
p69
sS'_notifications'
p70
I00
sS'_profile_background_tile'
p71
I00
sS'_profile_link_color'
p72
VBD1C1C
p73
sS'_geo_enabled'
p74
I00
sS'_contributors_enabled'
p75
I00
sS'_profile_background_image_url'
p76
Vhttp://abs.twimg.com/images/themes/theme1/bg.png
p77
sS'_screen_name'
p78
Vcheapcigar
p79
sS'_listed_count'
p80
I85
sS'_name'
p81
VSublimin_Al
p82
sS'_profile_sidebar_fill_color'
p83
VDDEEF6
p84
sS'_url'
p85
Vhttp://t.co/mFeQgMWOgQ
p86
sS'_id'
p87
I1255621518
sS'_profile_background_color'
p88
VC0DEED
p89
sbsS'_retweet_count'
p90
I0
sS'_source'
p91
V<a href="https://dev.twitter.com/docs/tfw" rel="nofollow">Twitter for Websites</a>
p92
sS'urls'
p93
(lp94
g3
(ctwitter
Url
p95
g5
Ntp96
Rp97
(dp98
S'url'
p99
Vhttp://t.co/HSXfr6y6hi
p100
sS'expanded_url'
p101
Vhttp://www.fbi.gov/chicago/press-releases/2014/fbi-seeking-information-about-serial-bank-robber
p102
sbasg87
I543787952984162304
sbag3
(g4
g5
Ntp103
Rp104
(dp105
g9
I0
sg10
Nsg11
Nsg12
(lp106
sg14
I00
sg15
g3
(g4
g5
Ntp107
Rp108
(dp109
g9
I0
sg10
Nsg11
Nsg12
(lp110
sg14
I00
sg15
Nsg16
Nsg17
(lp111
(dp112
Vexpanded_url
p113
Vhttp://twitter.com/DogoodII/status/543486964171673600/photo/1
p114
sVdisplay_url
p115
Vpic.twitter.com/4BaNZSnYkF
p116
sVurl
p117
Vhttp://t.co/4BaNZSnYkF
p118
sVmedia_url_https
p119
Vhttps://pbs.twimg.com/media/B4racvjCAAEoIE_.png
p120
sVid_str
p121
V543486892386156545
p122
sVsizes
p123
(dp124
Vlarge
p125
(dp126
Vh
p127
I576
sVresize
p128
Vfit
p129
sVw
p130
I1024
ssVsmall
p131
(dp132
Vh
p133
I191
sVresize
p134
Vfit
p135
sVw
p136
I340
ssVmedium
p137
(dp138
Vh
p139
I337
sVresize
p140
Vfit
p141
sVw
p142
I600
ssVthumb
p143
(dp144
Vh
p145
I150
sVresize
p146
Vcrop
p147
sVw
p148
I150
sssVindices
p149
(lp150
I118
aI140
asVtype
p151
Vphoto
p152
sVid
p153
I543486892386156545
sVmedia_url
p154
Vhttp://pbs.twimg.com/media/B4racvjCAAEoIE_.png
p155
sasg19
Nsg20
Nsg21
Nsg22
VFri Dec 12 19:26:04 +0000 2014
p156
sg24
Nsg25
I00
sg26
VDogoodII
p157
sg27
Nsg28
I2227207840
sg29
Nsg30
I00
sg31
Nsg32
(lp158
g3
(g44
g5
Ntp159
Rp160
(dp161
g10
Nsg49
Nsg51
Nsg53
Nsg55
Nsg56
Nsg22
Nsg58
Nsg59
Nsg61
Nsg63
Nsg64
Nsg65
Nsg66
Nsg67
Nsg68
Nsg70
Nsg71
Nsg72
Nsg74
Nsg75
Nsg76
Nsg78
Vcheapcigar
p162
sg80
Nsg81
VSublimin_Al
p163
sg83
Nsg85
Nsg87
I1255621518
sg88
Nsbasg34
Nsg35
V543486964171673600
p164
sg37
I543451533975646208
sg38
V@cheapcigar TYFRT.... Think we have to take on Public Enemy #1. \u000a http://t.co/39B9iVsL9F Need 50,000,000 Likes to win http://t.co/4BaNZSnYkF
p165
sg40
I00
sg41
Ven
p166
sg43
g3
(g44
g5
Ntp167
Rp168
(dp169
g10
VFreedom, USA
p170
sg49
V333333
p171
sg51
Ven
p172
sg53
Nsg55
I1353
sg56
I9794
sg22
VSun Dec 15 15:05:02 +0000 2013
p173
sg58
I00
sg59
VIn the spirit of Benjamin Franklin, who used the name Silence Dogood, to get his thoughts published in his local newspaper Letter to the Editor.
p174
sg61
Vhttps://pbs.twimg.com/profile_images/459473197113417728/nwvBxG8D_normal.jpeg
p175
sg63
I1981
sg64
I273
sg65
Nsg66
Nsg67
I00
sg68
Nsg70
I00
sg71
I00
sg72
V0084B4
p176
sg74
I00
sg75
I00
sg76
Vhttp://abs.twimg.com/images/themes/theme1/bg.png
p177
sg78
VDogoodII
p178
sg80
I14
sg81
VSilence Dogood II
p179
sg83
VDDEEF6
p180
sg85
Nsg87
I2227207840
sg88
VC0DEED
p181
sbsg90
I1
sg91
V<a href="http://twitter.com" rel="nofollow">Twitter Web Client</a>
p182
sg93
(lp183
g3
(g95
g5
Ntp184
Rp185
(dp186
g99
Vhttp://t.co/39B9iVsL9F
p187
sg101
Vhttp://youtu.be/kDBcGvH1C2c
p188
sbasg87
I543486964171673600
sbsg16
Nsg17
(lp189
(dp190
Vsource_user_id
p191
I2227207840
sVsource_status_id_str
p192
V543486964171673600
p193
sVexpanded_url
p194
Vhttp://twitter.com/DogoodII/status/543486964171673600/photo/1
p195
sVdisplay_url
p196
Vpic.twitter.com/4BaNZSnYkF
p197
sVurl
p198
Vhttp://t.co/4BaNZSnYkF
p199
sVmedia_url_https
p200
Vhttps://pbs.twimg.com/media/B4racvjCAAEoIE_.png
p201
sVsource_user_id_str
p202
V2227207840
p203
sVsource_status_id
p204
I543486964171673600
sVid_str
p205
V543486892386156545
p206
sVsizes
p207
(dp208
Vlarge
p209
(dp210
Vh
p211
I576
sVresize
p212
Vfit
p213
sVw
p214
I1024
ssVsmall
p215
(dp216
Vh
p217
I191
sVresize
p218
Vfit
p219
sVw
p220
I340
ssVmedium
p221
(dp222
Vh
p223
I337
sVresize
p224
Vfit
p225
sVw
p226
I600
ssVthumb
p227
(dp228
Vh
p229
I150
sVresize
p230
Vcrop
p231
sVw
p232
I150
sssVindices
p233
(lp234
I139
aI140
asVtype
p235
Vphoto
p236
sVid
p237
I543486892386156545
sVmedia_url
p238
Vhttp://pbs.twimg.com/media/B4racvjCAAEoIE_.png
p239
sasg19
Nsg20
Nsg21
Nsg22
VSat Dec 13 09:41:21 +0000 2014
p240
sg24
Nsg25
I01
sg26
Nsg27
Nsg28
Nsg29
Nsg30
I00
sg31
Nsg32
(lp241
g3
(g44
g5
Ntp242
Rp243
(dp244
g10
Nsg49
Nsg51
Nsg53
Nsg55
Nsg56
Nsg22
Nsg58
Nsg59
Nsg61
Nsg63
Nsg64
Nsg65
Nsg66
Nsg67
Nsg68
Nsg70
Nsg71
Nsg72
Nsg74
Nsg75
Nsg76
Nsg78
VDogoodII
p245
sg80
Nsg81
VSilence Dogood II
p246
sg83
Nsg85
Nsg87
I2227207840
sg88
Nsbag3
(g44
g5
Ntp247
Rp248
(dp249
g10
Nsg49
Nsg51
Nsg53
Nsg55
Nsg56
Nsg22
Nsg58
Nsg59
Nsg61
Nsg63
Nsg64
Nsg65
Nsg66
Nsg67
Nsg68
Nsg70
Nsg71
Nsg72
Nsg74
Nsg75
Nsg76
Nsg78
Vcheapcigar
p250
sg80
Nsg81
VSublimin_Al
p251
sg83
Nsg85
Nsg87
I1255621518
sg88
Nsbasg34
Nsg35
V543702203434029057
p252
sg37
Nsg38
VRT @DogoodII: @cheapcigar TYFRT.... Think we have to take on Public Enemy #1. \u000a http://t.co/39B9iVsL9F Need 50,000,000 Likes to win http://\u2026
p253
sg40
I00
sg41
Ven
p254
sg43
g3
(g44
g5
Ntp255
Rp256
(dp257
g10
V \ufe3b\u2566\u2564\u2500\u2500   \ufe3b\u2566\u2564\u2500\u2500   \ufe3b\u2566\u2564\u2500\u2500   \ufe3b\u2566\u2564\u2500\u2500
p258
sg49
V333333
p259
sg51
Ven-gb
p260
sg53
VLondon
p261
sg55
I4552
sg56
I25702
sg22
VSat Mar 09 23:39:32 +0000 2013
p262
sg58
I00
sg59
VPatriot, Army Veteran from 40 yrs ago, love my rescued dogs, rifles, pistols, and freedom. God Bless all US Armed Forces, Active,Vets,& Deceased. #NRA #PJNET
p263
sg61
Vhttps://pbs.twimg.com/profile_images/542439961106997251/Qt0kA7_R_normal.jpeg
p264
sg63
I4549
sg64
I8473
sg65
I0
sg66
Nsg67
I00
sg68
Vhttps://pbs.twimg.com/profile_banners/1255621518/1418165233
p265
sg70
I00
sg71
I00
sg72
VBD1C1C
p266
sg74
I00
sg75
I00
sg76
Vhttp://abs.twimg.com/images/themes/theme1/bg.png
p267
sg78
Vcheapcigar
p268
sg80
I85
sg81
VSublimin_Al
p269
sg83
VDDEEF6
p270
sg85
Vhttp://t.co/mFeQgMWOgQ
p271
sg87
I1255621518
sg88
VC0DEED
p272
sbsg90
I1
sg91
V<a href="http://twitter.com/download/iphone" rel="nofollow">Twitter for iPhone</a>
p273
sg93
(lp274
g3
(g95
g5
Ntp275
Rp276
(dp277
g99
Vhttp://t.co/39B9iVsL9F
p278
sg101
Vhttp://youtu.be/kDBcGvH1C2c
p279
sbasg87
I543702203434029057
sbag3
(g4
g5
Ntp280
Rp281
(dp282
g9
I0
sg10
Nsg11
Nsg12
(lp283
sg14
I00
sg15
g3
(g4
g5
Ntp284
Rp285
(dp286
g9
I0
sg10
Nsg11
Nsg12
(lp287
sg14
I00
sg15
Nsg16
Nsg17
(lp288
sg19
Nsg20
Nsg21
Nsg22
VFri Dec 12 23:56:50 +0000 2014
p289
sg24
Nsg25
Nsg26
Vgatman7
p290
sg27
Nsg28
I36681617
sg29
Nsg30
I00
sg31
Nsg32
(lp291
g3
(g44
g5
Ntp292
Rp293
(dp294
g10
Nsg49
Nsg51
Nsg53
Nsg55
Nsg56
Nsg22
Nsg58
Nsg59
Nsg61
Nsg63
Nsg64
Nsg65
Nsg66
Nsg67
Nsg68
Nsg70
Nsg71
Nsg72
Nsg74
Nsg75
Nsg76
Nsg78
Vgatman7
p295
sg80
Nsg81
VGeorge Thompson
p296
sg83
Nsg85
Nsg87
I36681617
sg88
Nsbag3
(g44
g5
Ntp297
Rp298
(dp299
g10
Nsg49
Nsg51
Nsg53
Nsg55
Nsg56
Nsg22
Nsg58
Nsg59
Nsg61
Nsg63
Nsg64
Nsg65
Nsg66
Nsg67
Nsg68
Nsg70
Nsg71
Nsg72
Nsg74
Nsg75
Nsg76
Nsg78
Vcheapcigar
p300
sg80
Nsg81
VSublimin_Al
p301
sg83
Nsg85
Nsg87
I1255621518
sg88
Nsbag3
(g44
g5
Ntp302
Rp303
(dp304
g10
Nsg49
Nsg51
Nsg53
Nsg55
Nsg56
Nsg22
Nsg58
Nsg59
Nsg61
Nsg63
Nsg64
Nsg65
Nsg66
Nsg67
Nsg68
Nsg70
Nsg71
Nsg72
Nsg74
Nsg75
Nsg76
Nsg78
Vjrstws
p305
sg80
Nsg81
VJR Benghazismidgen
p306
sg83
Nsg85
Nsg87
I228901203
sg88
Nsbag3
(g44
g5
Ntp307
Rp308
(dp309
g10
Nsg49
Nsg51
Nsg53
Nsg55
Nsg56
Nsg22
Nsg58
Nsg59
Nsg61
Nsg63
Nsg64
Nsg65
Nsg66
Nsg67
Nsg68
Nsg70
Nsg71
Nsg72
Nsg74
Nsg75
Nsg76
Nsg78
VAndrewArlink
p310
sg80
Nsg81
VAndrew Arlink
p311
sg83
Nsg85
Nsg87
I2494237140
sg88
Nsbag3
(g44
g5
Ntp312
Rp313
(dp314
g10
Nsg49
Nsg51
Nsg53
Nsg55
Nsg56
Nsg22
Nsg58
Nsg59
Nsg61
Nsg63
Nsg64
Nsg65
Nsg66
Nsg67
Nsg68
Nsg70
Nsg71
Nsg72
Nsg74
Nsg75
Nsg76
Nsg78
Vlemonchronicle
p315
sg80
Nsg81
VElizabeth
p316
sg83
Nsg85
Nsg87
I194619305
sg88
Nsbag3
(g44
g5
Ntp317
Rp318
(dp319
g10
Nsg49
Nsg51
Nsg53
Nsg55
Nsg56
Nsg22
Nsg58
Nsg59
Nsg61
Nsg63
Nsg64
Nsg65
Nsg66
Nsg67
Nsg68
Nsg70
Nsg71
Nsg72
Nsg74
Nsg75
Nsg76
Nsg78
Vmlong42947
p320
sg80
Nsg81
VMarilyn Long
p321
sg83
Nsg85
Nsg87
I538481859
sg88
Nsbag3
(g44
g5
Ntp322
Rp323
(dp324
g10
Nsg49
Nsg51
Nsg53
Nsg55
Nsg56
Nsg22
Nsg58
Nsg59
Nsg61
Nsg63
Nsg64
Nsg65
Nsg66
Nsg67
Nsg68
Nsg70
Nsg71
Nsg72
Nsg74
Nsg75
Nsg76
Nsg78
VJOHNNDIBELLO
p325
sg80
Nsg81
VJOHN N DIBELLO
p326
sg83
Nsg85
Nsg87
I525857535
sg88
Nsbag3
(g44
g5
Ntp327
Rp328
(dp329
g10
Nsg49
Nsg51
Nsg53
Nsg55
Nsg56
Nsg22
Nsg58
Nsg59
Nsg61
Nsg63
Nsg64
Nsg65
Nsg66
Nsg67
Nsg68
Nsg70
Nsg71
Nsg72
Nsg74
Nsg75
Nsg76
Nsg78
Vjudith5519
p330
sg80
Nsg81
VJude505
p331
sg83
Nsg85
Nsg87
I2440969560
sg88
Nsbag3
(g44
g5
Ntp332
Rp333
(dp334
g10
Nsg49
Nsg51
Nsg53
Nsg55
Nsg56
Nsg22
Nsg58
Nsg59
Nsg61
Nsg63
Nsg64
Nsg65
Nsg66
Nsg67
Nsg68
Nsg70
Nsg71
Nsg72
Nsg74
Nsg75
Nsg76
Nsg78
Vwarpfactorbanjo
p335
sg80
Nsg81
VJ Loveless
p336
sg83
Nsg85
Nsg87
I162078051
sg88
Nsbasg34
Nsg35
V543555106202198017
p337
sg37
I543554742149218304
sg38
V@gatman7 @cheapcigar @jrstws @AndrewArlink @lemonchronicle @mlong42947 @JOHNNDIBELLO @judith5519 @warpfactorbanjo Welcome, gotaGOback2clinic
p338
sg40
I00
sg41
Ven
p339
sg43
g3
(g44
g5
Ntp340
Rp341
(dp342
g10
VAddison, TX USA
p343
sg49
V000000
p344
sg51
Ven
p345
sg53
VCentral Time (US & Canada)
p346
sg55
I357
sg56
I1549
sg22
VFri Sep 21 14:54:30 +0000 2012
p347
sg58
I00
sg59
VAuthor on Spirituality, Commentator on the stupid, mean and senseless cruelties humanity is still doing to each other...
p348
sg61
Vhttps://pbs.twimg.com/profile_images/512995538174623744/HO9rxsiN_normal.jpeg
p349
sg63
I785
sg64
I2106
sg65
I-21600
sg66
Nsg67
I00
sg68
Vhttps://pbs.twimg.com/profile_banners/837969043/1412790806
p350
sg70
I00
sg71
I00
sg72
VFA743E
p351
sg74
I00
sg75
I00
sg76
Vhttp://abs.twimg.com/images/themes/theme1/bg.png
p352
sg78
Vlawrenleann1962
p353
sg80
I5
sg81
VLeann Rehm Lawrence
p354
sg83
V000000
p355
sg85
Vhttp://t.co/53V6MCa6yp
p356
sg87
I837969043
sg88
V000000
p357
sbsg90
I1
sg91
V<a href="http://twitter.com" rel="nofollow">Twitter Web Client</a>
p358
sg93
(lp359
sg87
I543555106202198017
sbsg16
Nsg17
(lp360
sg19
Nsg20
Nsg21
Nsg22
VSat Dec 13 09:40:06 +0000 2014
p361
sg24
Nsg25
Nsg26
Nsg27
Nsg28
Nsg29
Nsg30
I00
sg31
Nsg32
(lp362
g3
(g44
g5
Ntp363
Rp364
(dp365
g10
Nsg49
Nsg51
Nsg53
Nsg55
Nsg56
Nsg22
Nsg58
Nsg59
Nsg61
Nsg63
Nsg64
Nsg65
Nsg66
Nsg67
Nsg68
Nsg70
Nsg71
Nsg72
Nsg74
Nsg75
Nsg76
Nsg78
Vlawrenleann1962
p366
sg80
Nsg81
VLeann Rehm Lawrence
p367
sg83
Nsg85
Nsg87
I837969043
sg88
Nsbag3
(g44
g5
Ntp368
Rp369
(dp370
g10
Nsg49
Nsg51
Nsg53
Nsg55
Nsg56
Nsg22
Nsg58
Nsg59
Nsg61
Nsg63
Nsg64
Nsg65
Nsg66
Nsg67
Nsg68
Nsg70
Nsg71
Nsg72
Nsg74
Nsg75
Nsg76
Nsg78
Vgatman7
p371
sg80
Nsg81
VGeorge Thompson
p372
sg83
Nsg85
Nsg87
I36681617
sg88
Nsbag3
(g44
g5
Ntp373
Rp374
(dp375
g10
Nsg49
Nsg51
Nsg53
Nsg55
Nsg56
Nsg22
Nsg58
Nsg59
Nsg61
Nsg63
Nsg64
Nsg65
Nsg66
Nsg67
Nsg68
Nsg70
Nsg71
Nsg72
Nsg74
Nsg75
Nsg76
Nsg78
Vcheapcigar
p376
sg80
Nsg81
VSublimin_Al
p377
sg83
Nsg85
Nsg87
I1255621518
sg88
Nsbag3
(g44
g5
Ntp378
Rp379
(dp380
g10
Nsg49
Nsg51
Nsg53
Nsg55
Nsg56
Nsg22
Nsg58
Nsg59
Nsg61
Nsg63
Nsg64
Nsg65
Nsg66
Nsg67
Nsg68
Nsg70
Nsg71
Nsg72
Nsg74
Nsg75
Nsg76
Nsg78
Vjrstws
p381
sg80
Nsg81
VJR Benghazismidgen
p382
sg83
Nsg85
Nsg87
I228901203
sg88
Nsbag3
(g44
g5
Ntp383
Rp384
(dp385
g10
Nsg49
Nsg51
Nsg53
Nsg55
Nsg56
Nsg22
Nsg58
Nsg59
Nsg61
Nsg63
Nsg64
Nsg65
Nsg66
Nsg67
Nsg68
Nsg70
Nsg71
Nsg72
Nsg74
Nsg75
Nsg76
Nsg78
VAndrewArlink
p386
sg80
Nsg81
VAndrew Arlink
p387
sg83
Nsg85
Nsg87
I2494237140
sg88
Nsbag3
(g44
g5
Ntp388
Rp389
(dp390
g10
Nsg49
Nsg51
Nsg53
Nsg55
Nsg56
Nsg22
Nsg58
Nsg59
Nsg61
Nsg63
Nsg64
Nsg65
Nsg66
Nsg67
Nsg68
Nsg70
Nsg71
Nsg72
Nsg74
Nsg75
Nsg76
Nsg78
Vlemonchronicle
p391
sg80
Nsg81
VElizabeth
p392
sg83
Nsg85
Nsg87
I194619305
sg88
Nsbag3
(g44
g5
Ntp393
Rp394
(dp395
g10
Nsg49
Nsg51
Nsg53
Nsg55
Nsg56
Nsg22
Nsg58
Nsg59
Nsg61
Nsg63
Nsg64
Nsg65
Nsg66
Nsg67
Nsg68
Nsg70
Nsg71
Nsg72
Nsg74
Nsg75
Nsg76
Nsg78
Vmlong42947
p396
sg80
Nsg81
VMarilyn Long
p397
sg83
Nsg85
Nsg87
I538481859
sg88
Nsbag3
(g44
g5
Ntp398
Rp399
(dp400
g10
Nsg49
Nsg51
Nsg53
Nsg55
Nsg56
Nsg22
Nsg58
Nsg59
Nsg61
Nsg63
Nsg64
Nsg65
Nsg66
Nsg67
Nsg68
Nsg70
Nsg71
Nsg72
Nsg74
Nsg75
Nsg76
Nsg78
VJOHNNDIBELLO
p401
sg80
Nsg81
VJOHN N DIBELLO
p402
sg83
Nsg85
Nsg87
I525857535
sg88
Nsbag3
(g44
g5
Ntp403
Rp404
(dp405
g10
Nsg49
Nsg51
Nsg53
Nsg55
Nsg56
Nsg22
Nsg58
Nsg59
Nsg61
Nsg63
Nsg64
Nsg65
Nsg66
Nsg67
Nsg68
Nsg70
Nsg71
Nsg72
Nsg74
Nsg75
Nsg76
Nsg78
Vjudith5519
p406
sg80
Nsg81
VJude505
p407
sg83
Nsg85
Nsg87
I2440969560
sg88
Nsbag3
(g44
g5
Ntp408
Rp409
(dp410
g10
Nsg49
Nsg51
Nsg53
Nsg55
Nsg56
Nsg22
Nsg58
Nsg59
Nsg61
Nsg63
Nsg64
Nsg65
Nsg66
Nsg67
Nsg68
Nsg70
Nsg71
Nsg72
Nsg74
Nsg75
Nsg76
Nsg78
Vwarpfactorbanjo
p411
sg80
Nsg81
VJ Loveless
p412
sg83
Nsg85
Nsg87
I162078051
sg88
Nsbasg34
Nsg35
V543701887716163585
p413
sg37
Nsg38
VRT @lawrenleann1962: @gatman7 @cheapcigar @jrstws @AndrewArlink @lemonchronicle @mlong42947 @JOHNNDIBELLO @judith5519 @warpfactorbanjo Welc\u2026
p414
sg40
I00
sg41
Ven
p415
sg43
g3
(g44
g5
Ntp416
Rp417
(dp418
g10
V \ufe3b\u2566\u2564\u2500\u2500   \ufe3b\u2566\u2564\u2500\u2500   \ufe3b\u2566\u2564\u2500\u2500   \ufe3b\u2566\u2564\u2500\u2500
p419
sg49
V333333
p420
sg51
Ven-gb
p421
sg53
VLondon
p422
sg55
I4552
sg56
I25702
sg22
VSat Mar 09 23:39:32 +0000 2013
p423
sg58
I00
sg59
VPatriot, Army Veteran from 40 yrs ago, love my rescued dogs, rifles, pistols, and freedom. God Bless all US Armed Forces, Active,Vets,& Deceased. #NRA #PJNET
p424
sg61
Vhttps://pbs.twimg.com/profile_images/542439961106997251/Qt0kA7_R_normal.jpeg
p425
sg63
I4549
sg64
I8473
sg65
I0
sg66
Nsg67
I00
sg68
Vhttps://pbs.twimg.com/profile_banners/1255621518/1418165233
p426
sg70
I00
sg71
I00
sg72
VBD1C1C
p427
sg74
I00
sg75
I00
sg76
Vhttp://abs.twimg.com/images/themes/theme1/bg.png
p428
sg78
Vcheapcigar
p429
sg80
I85
sg81
VSublimin_Al
p430
sg83
VDDEEF6
p431
sg85
Vhttp://t.co/mFeQgMWOgQ
p432
sg87
I1255621518
sg88
VC0DEED
p433
sbsg90
I1
sg91
V<a href="http://twitter.com/download/iphone" rel="nofollow">Twitter for iPhone</a>
p434
sg93
(lp435
sg87
I543701887716163585
sbag3
(g4
g5
Ntp436
Rp437
(dp438
g9
I0
sg10
Nsg11
Nsg12
(lp439
sg14
I00
sg15
g3
(g4
g5
Ntp440
Rp441
(dp442
g9
I2
sg10
Nsg11
Nsg12
(lp443
sg14
I00
sg15
Nsg16
Nsg17
(lp444
sg19
Nsg20
Nsg21
Nsg22
VFri Dec 12 23:55:49 +0000 2014
p445
sg24
Nsg25
Nsg26
Vgatman7
p446
sg27
Nsg28
I36681617
sg29
Nsg30
I00
sg31
Nsg32
(lp447
g3
(g44
g5
Ntp448
Rp449
(dp450
g10
Nsg49
Nsg51
Nsg53
Nsg55
Nsg56
Nsg22
Nsg58
Nsg59
Nsg61
Nsg63
Nsg64
Nsg65
Nsg66
Nsg67
Nsg68
Nsg70
Nsg71
Nsg72
Nsg74
Nsg75
Nsg76
Nsg78
Vgatman7
p451
sg80
Nsg81
VGeorge Thompson
p452
sg83
Nsg85
Nsg87
I36681617
sg88
Nsbag3
(g44
g5
Ntp453
Rp454
(dp455
g10
Nsg49
Nsg51
Nsg53
Nsg55
Nsg56
Nsg22
Nsg58
Nsg59
Nsg61
Nsg63
Nsg64
Nsg65
Nsg66
Nsg67
Nsg68
Nsg70
Nsg71
Nsg72
Nsg74
Nsg75
Nsg76
Nsg78
VGenesSmile
p456
sg80
Nsg81
VKrissy Chase
p457
sg83
Nsg85
Nsg87
I74827928
sg88
Nsbag3
(g44
g5
Ntp458
Rp459
(dp460
g10
Nsg49
Nsg51
Nsg53
Nsg55
Nsg56
Nsg22
Nsg58
Nsg59
Nsg61
Nsg63
Nsg64
Nsg65
Nsg66
Nsg67
Nsg68
Nsg70
Nsg71
Nsg72
Nsg74
Nsg75
Nsg76
Nsg78
VGreen_Star1
p461
sg80
Nsg81
VRalph E McCrum
p462
sg83
Nsg85
Nsg87
I53590352
sg88
Nsbag3
(g44
g5
Ntp463
Rp464
(dp465
g10
Nsg49
Nsg51
Nsg53
Nsg55
Nsg56
Nsg22
Nsg58
Nsg59
Nsg61
Nsg63
Nsg64
Nsg65
Nsg66
Nsg67
Nsg68
Nsg70
Nsg71
Nsg72
Nsg74
Nsg75
Nsg76
Nsg78
VShaunTrades
p466
sg80
Nsg81
VMoney Talks
p467
sg83
Nsg85
Nsg87
I213315220
sg88
Nsbag3
(g44
g5
Ntp468
Rp469
(dp470
g10
Nsg49
Nsg51
Nsg53
Nsg55
Nsg56
Nsg22
Nsg58
Nsg59
Nsg61
Nsg63
Nsg64
Nsg65
Nsg66
Nsg67
Nsg68
Nsg70
Nsg71
Nsg72
Nsg74
Nsg75
Nsg76
Nsg78
Vcheapcigar
p471
sg80
Nsg81
VSublimin_Al
p472
sg83
Nsg85
Nsg87
I1255621518
sg88
Nsbag3
(g44
g5
Ntp473
Rp474
(dp475
g10
Nsg49
Nsg51
Nsg53
Nsg55
Nsg56
Nsg22
Nsg58
Nsg59
Nsg61
Nsg63
Nsg64
Nsg65
Nsg66
Nsg67
Nsg68
Nsg70
Nsg71
Nsg72
Nsg74
Nsg75
Nsg76
Nsg78
VWANAGL
p476
sg80
Nsg81
VWANAGL #OiP 
p477
sg83
Nsg85
Nsg87
I719756991
sg88
Nsbag3
(g44
g5
Ntp478
Rp479
(dp480
g10
Nsg49
Nsg51
Nsg53
Nsg55
Nsg56
Nsg22
Nsg58
Nsg59
Nsg61
Nsg63
Nsg64
Nsg65
Nsg66
Nsg67
Nsg68
Nsg70
Nsg71
Nsg72
Nsg74
Nsg75
Nsg76
Nsg78
Vtexasflutegal
p481
sg80
Nsg81
VJeannette Burleigh
p482
sg83
Nsg85
Nsg87
I156791542
sg88
Nsbag3
(g44
g5
Ntp483
Rp484
(dp485
g10
Nsg49
Nsg51
Nsg53
Nsg55
Nsg56
Nsg22
Nsg58
Nsg59
Nsg61
Nsg63
Nsg64
Nsg65
Nsg66
Nsg67
Nsg68
Nsg70
Nsg71
Nsg72
Nsg74
Nsg75
Nsg76
Nsg78
VSuperman6869
p486
sg80
Nsg81
VSuperman
p487
sg83
Nsg85
Nsg87
I137820750
sg88
Nsbag3
(g44
g5
Ntp488
Rp489
(dp490
g10
Nsg49
Nsg51
Nsg53
Nsg55
Nsg56
Nsg22
Nsg58
Nsg59
Nsg61
Nsg63
Nsg64
Nsg65
Nsg66
Nsg67
Nsg68
Nsg70
Nsg71
Nsg72
Nsg74
Nsg75
Nsg76
Nsg78
VQueen_V1216
p491
sg80
Nsg81
VVickie Barnachea
p492
sg83
Nsg85
Nsg87
I265645992
sg88
Nsbag3
(g44
g5
Ntp493
Rp494
(dp495
g10
Nsg49
Nsg51
Nsg53
Nsg55
Nsg56
Nsg22
Nsg58
Nsg59
Nsg61
Nsg63
Nsg64
Nsg65
Nsg66
Nsg67
Nsg68
Nsg70
Nsg71
Nsg72
Nsg74
Nsg75
Nsg76
Nsg78
VTrickerKeeTs
p496
sg80
Nsg81
VTricker KeeTs
p497
sg83
Nsg85
Nsg87
I2738347879
sg88
Nsbag3
(g44
g5
Ntp498
Rp499
(dp500
g10
Nsg49
Nsg51
Nsg53
Nsg55
Nsg56
Nsg22
Nsg58
Nsg59
Nsg61
Nsg63
Nsg64
Nsg65
Nsg66
Nsg67
Nsg68
Nsg70
Nsg71
Nsg72
Nsg74
Nsg75
Nsg76
Nsg78
VDaggy1
p501
sg80
Nsg81
VDagwood Bumstead
p502
sg83
Nsg85
Nsg87
I24305174
sg88
Nsbasg34
Nsg35
V543554847643930624
p503
sg37
I543451334599782400
sg38
V@gatman7 TYGeorge @GenesSmile @Green_Star1 @ShaunTrades @cheapcigar @WANAGL @texasflutegal @Superman6869 @Queen_V1216 @TrickerKeeTs @Daggy1
p504
sg40
I00
sg41
Ven
p505
sg43
g3
(g44
g5
Ntp506
Rp507
(dp508
g10
VIdaho
p509
sg49
V333333
p510
sg51
Ven
p511
sg53
VPacific Time (US & Canada)
p512
sg55
I8302
sg56
I172371
sg22
VTue Nov 15 03:41:02 +0000 2011
p513
sg58
I00
sg59
VConservative 'Love GOD, Family & USA., Guns, Military, Law Enforcement & EMS. #CCOT #Palin #Newt #RushBabe #NASCAR #RedEye #BreitbartArmy #WAR #MolonLabe
p514
sg61
Vhttps://pbs.twimg.com/profile_images/1642687199/Gargoyle_normal.jpg
p515
sg63
I7935
sg64
I75523
sg65
I-28800
sg66
Nsg67
I00
sg68
Vhttps://pbs.twimg.com/profile_banners/412776430/1366442921
p516
sg70
I00
sg71
I00
sg72
V0084B4
p517
sg74
I00
sg75
I00
sg76
Vhttp://abs.twimg.com/images/themes/theme1/bg.png
p518
sg78
Vyrwol7
p519
sg80
I188
sg81
VColleen White 
p520
sg83
VDDEEF6
p521
sg85
Nsg87
I412776430
sg88
VC0DEED
p522
sbsg90
I1
sg91
V<a href="http://twitter.com/#!/download/ipad" rel="nofollow">Twitter for iPad</a>
p523
sg93
(lp524
sg87
I543554847643930624
sbsg16
Nsg17
(lp525
sg19
Nsg20
Nsg21
Nsg22
VSat Dec 13 09:39:35 +0000 2014
p526
sg24
Nsg25
Nsg26
Nsg27
Nsg28
Nsg29
Nsg30
I00
sg31
Nsg32
(lp527
g3
(g44
g5
Ntp528
Rp529
(dp530
g10
Nsg49
Nsg51
Nsg53
Nsg55
Nsg56
Nsg22
Nsg58
Nsg59
Nsg61
Nsg63
Nsg64
Nsg65
Nsg66
Nsg67
Nsg68
Nsg70
Nsg71
Nsg72
Nsg74
Nsg75
Nsg76
Nsg78
Vyrwol7
p531
sg80
Nsg81
VColleen White 
p532
sg83
Nsg85
Nsg87
I412776430
sg88
Nsbag3
(g44
g5
Ntp533
Rp534
(dp535
g10
Nsg49
Nsg51
Nsg53
Nsg55
Nsg56
Nsg22
Nsg58
Nsg59
Nsg61
Nsg63
Nsg64
Nsg65
Nsg66
Nsg67
Nsg68
Nsg70
Nsg71
Nsg72
Nsg74
Nsg75
Nsg76
Nsg78
Vgatman7
p536
sg80
Nsg81
VGeorge Thompson
p537
sg83
Nsg85
Nsg87
I36681617
sg88
Nsbag3
(g44
g5
Ntp538
Rp539
(dp540
g10
Nsg49
Nsg51
Nsg53
Nsg55
Nsg56
Nsg22
Nsg58
Nsg59
Nsg61
Nsg63
Nsg64
Nsg65
Nsg66
Nsg67
Nsg68
Nsg70
Nsg71
Nsg72
Nsg74
Nsg75
Nsg76
Nsg78
VGenesSmile
p541
sg80
Nsg81
VKrissy Chase
p542
sg83
Nsg85
Nsg87
I74827928
sg88
Nsbag3
(g44
g5
Ntp543
Rp544
(dp545
g10
Nsg49
Nsg51
Nsg53
Nsg55
Nsg56
Nsg22
Nsg58
Nsg59
Nsg61
Nsg63
Nsg64
Nsg65
Nsg66
Nsg67
Nsg68
Nsg70
Nsg71
Nsg72
Nsg74
Nsg75
Nsg76
Nsg78
VGreen_Star1
p546
sg80
Nsg81
VRalph E McCrum
p547
sg83
Nsg85
Nsg87
I53590352
sg88
Nsbag3
(g44
g5
Ntp548
Rp549
(dp550
g10
Nsg49
Nsg51
Nsg53
Nsg55
Nsg56
Nsg22
Nsg58
Nsg59
Nsg61
Nsg63
Nsg64
Nsg65
Nsg66
Nsg67
Nsg68
Nsg70
Nsg71
Nsg72
Nsg74
Nsg75
Nsg76
Nsg78
VShaunTrades
p551
sg80
Nsg81
VMoney Talks
p552
sg83
Nsg85
Nsg87
I213315220
sg88
Nsbag3
(g44
g5
Ntp553
Rp554
(dp555
g10
Nsg49
Nsg51
Nsg53
Nsg55
Nsg56
Nsg22
Nsg58
Nsg59
Nsg61
Nsg63
Nsg64
Nsg65
Nsg66
Nsg67
Nsg68
Nsg70
Nsg71
Nsg72
Nsg74
Nsg75
Nsg76
Nsg78
Vcheapcigar
p556
sg80
Nsg81
VSublimin_Al
p557
sg83
Nsg85
Nsg87
I1255621518
sg88
Nsbag3
(g44
g5
Ntp558
Rp559
(dp560
g10
Nsg49
Nsg51
Nsg53
Nsg55
Nsg56
Nsg22
Nsg58
Nsg59
Nsg61
Nsg63
Nsg64
Nsg65
Nsg66
Nsg67
Nsg68
Nsg70
Nsg71
Nsg72
Nsg74
Nsg75
Nsg76
Nsg78
VWANAGL
p561
sg80
Nsg81
VWANAGL #OiP 
p562
sg83
Nsg85
Nsg87
I719756991
sg88
Nsbag3
(g44
g5
Ntp563
Rp564
(dp565
g10
Nsg49
Nsg51
Nsg53
Nsg55
Nsg56
Nsg22
Nsg58
Nsg59
Nsg61
Nsg63
Nsg64
Nsg65
Nsg66
Nsg67
Nsg68
Nsg70
Nsg71
Nsg72
Nsg74
Nsg75
Nsg76
Nsg78
Vtexasflutegal
p566
sg80
Nsg81
VJeannette Burleigh
p567
sg83
Nsg85
Nsg87
I156791542
sg88
Nsbag3
(g44
g5
Ntp568
Rp569
(dp570
g10
Nsg49
Nsg51
Nsg53
Nsg55
Nsg56
Nsg22
Nsg58
Nsg59
Nsg61
Nsg63
Nsg64
Nsg65
Nsg66
Nsg67
Nsg68
Nsg70
Nsg71
Nsg72
Nsg74
Nsg75
Nsg76
Nsg78
VSuperman6869
p571
sg80
Nsg81
VSuperman
p572
sg83
Nsg85
Nsg87
I137820750
sg88
Nsbag3
(g44
g5
Ntp573
Rp574
(dp575
g10
Nsg49
Nsg51
Nsg53
Nsg55
Nsg56
Nsg22
Nsg58
Nsg59
Nsg61
Nsg63
Nsg64
Nsg65
Nsg66
Nsg67
Nsg68
Nsg70
Nsg71
Nsg72
Nsg74
Nsg75
Nsg76
Nsg78
VQueen_V1216
p576
sg80
Nsg81
VVickie Barnachea
p577
sg83
Nsg85
Nsg87
I265645992
sg88
Nsbag3
(g44
g5
Ntp578
Rp579
(dp580
g10
Nsg49
Nsg51
Nsg53
Nsg55
Nsg56
Nsg22
Nsg58
Nsg59
Nsg61
Nsg63
Nsg64
Nsg65
Nsg66
Nsg67
Nsg68
Nsg70
Nsg71
Nsg72
Nsg74
Nsg75
Nsg76
Nsg78
VTrickerKeeTs
p581
sg80
Nsg81
VTricker KeeTs
p582
sg83
Nsg85
Nsg87
I2738347879
sg88
Nsbag3
(g44
g5
Ntp583
Rp584
(dp585
g10
Nsg49
Nsg51
Nsg53
Nsg55
Nsg56
Nsg22
Nsg58
Nsg59
Nsg61
Nsg63
Nsg64
Nsg65
Nsg66
Nsg67
Nsg68
Nsg70
Nsg71
Nsg72
Nsg74
Nsg75
Nsg76
Nsg78
VDaggy1
p586
sg80
Nsg81
VDagwood Bumstead
p587
sg83
Nsg85
Nsg87
I24305174
sg88
Nsbasg34
Nsg35
V543701757118140416
p588
sg37
Nsg38
VRT @yrwol7: @gatman7 TYGeorge @GenesSmile @Green_Star1 @ShaunTrades @cheapcigar @WANAGL @texasflutegal @Superman6869 @Queen_V1216 @TrickerK\u2026
p589
sg40
I00
sg41
Ven
p590
sg43
g3
(g44
g5
Ntp591
Rp592
(dp593
g10
V \ufe3b\u2566\u2564\u2500\u2500   \ufe3b\u2566\u2564\u2500\u2500   \ufe3b\u2566\u2564\u2500\u2500   \ufe3b\u2566\u2564\u2500\u2500
p594
sg49
V333333
p595
sg51
Ven-gb
p596
sg53
VLondon
p597
sg55
I4552
sg56
I25702
sg22
VSat Mar 09 23:39:32 +0000 2013
p598
sg58
I00
sg59
VPatriot, Army Veteran from 40 yrs ago, love my rescued dogs, rifles, pistols, and freedom. God Bless all US Armed Forces, Active,Vets,& Deceased. #NRA #PJNET
p599
sg61
Vhttps://pbs.twimg.com/profile_images/542439961106997251/Qt0kA7_R_normal.jpeg
p600
sg63
I4549
sg64
I8473
sg65
I0
sg66
Nsg67
I00
sg68
Vhttps://pbs.twimg.com/profile_banners/1255621518/1418165233
p601
sg70
I00
sg71
I00
sg72
VBD1C1C
p602
sg74
I00
sg75
I00
sg76
Vhttp://abs.twimg.com/images/themes/theme1/bg.png
p603
sg78
Vcheapcigar
p604
sg80
I85
sg81
VSublimin_Al
p605
sg83
VDDEEF6
p606
sg85
Vhttp://t.co/mFeQgMWOgQ
p607
sg87
I1255621518
sg88
VC0DEED
p608
sbsg90
I1
sg91
V<a href="http://twitter.com/download/iphone" rel="nofollow">Twitter for iPhone</a>
p609
sg93
(lp610
sg87
I543701757118140416
sbag3
(g4
g5
Ntp611
Rp612
(dp613
g9
I0
sg10
Nsg11
Nsg12
(lp614
g3
(ctwitter
Hashtag
p615
g5
Ntp616
Rp617
(dp618
S'text'
p619
Vff
p620
sbasg14
I00
sg15
g3
(g4
g5
Ntp621
Rp622
(dp623
g9
I3
sg10
Nsg11
Nsg12
(lp624
g3
(g615
g5
Ntp625
Rp626
(dp627
g619
Vff
p628
sbasg14
I00
sg15
Nsg16
Nsg17
(lp629
sg19
Nsg20
Nsg21
Nsg22
VFri Dec 12 17:57:22 +0000 2014
p630
sg24
Nsg25
Nsg26
Vgatman7
p631
sg27
Nsg28
I36681617
sg29
Nsg30
I00
sg31
Nsg32
(lp632
g3
(g44
g5
Ntp633
Rp634
(dp635
g10
Nsg49
Nsg51
Nsg53
Nsg55
Nsg56
Nsg22
Nsg58
Nsg59
Nsg61
Nsg63
Nsg64
Nsg65
Nsg66
Nsg67
Nsg68
Nsg70
Nsg71
Nsg72
Nsg74
Nsg75
Nsg76
Nsg78
Vgatman7
p636
sg80
Nsg81
VGeorge Thompson
p637
sg83
Nsg85
Nsg87
I36681617
sg88
Nsbag3
(g44
g5
Ntp638
Rp639
(dp640
g10
Nsg49
Nsg51
Nsg53
Nsg55
Nsg56
Nsg22
Nsg58
Nsg59
Nsg61
Nsg63
Nsg64
Nsg65
Nsg66
Nsg67
Nsg68
Nsg70
Nsg71
Nsg72
Nsg74
Nsg75
Nsg76
Nsg78
VGenesSmile
p641
sg80
Nsg81
VKrissy Chase
p642
sg83
Nsg85
Nsg87
I74827928
sg88
Nsbag3
(g44
g5
Ntp643
Rp644
(dp645
g10
Nsg49
Nsg51
Nsg53
Nsg55
Nsg56
Nsg22
Nsg58
Nsg59
Nsg61
Nsg63
Nsg64
Nsg65
Nsg66
Nsg67
Nsg68
Nsg70
Nsg71
Nsg72
Nsg74
Nsg75
Nsg76
Nsg78
VGreen_Star1
p646
sg80
Nsg81
VRalph E McCrum
p647
sg83
Nsg85
Nsg87
I53590352
sg88
Nsbag3
(g44
g5
Ntp648
Rp649
(dp650
g10
Nsg49
Nsg51
Nsg53
Nsg55
Nsg56
Nsg22
Nsg58
Nsg59
Nsg61
Nsg63
Nsg64
Nsg65
Nsg66
Nsg67
Nsg68
Nsg70
Nsg71
Nsg72
Nsg74
Nsg75
Nsg76
Nsg78
VShaunTrades
p651
sg80
Nsg81
VMoney Talks
p652
sg83
Nsg85
Nsg87
I213315220
sg88
Nsbag3
(g44
g5
Ntp653
Rp654
(dp655
g10
Nsg49
Nsg51
Nsg53
Nsg55
Nsg56
Nsg22
Nsg58
Nsg59
Nsg61
Nsg63
Nsg64
Nsg65
Nsg66
Nsg67
Nsg68
Nsg70
Nsg71
Nsg72
Nsg74
Nsg75
Nsg76
Nsg78
Vcheapcigar
p656
sg80
Nsg81
VSublimin_Al
p657
sg83
Nsg85
Nsg87
I1255621518
sg88
Nsbag3
(g44
g5
Ntp658
Rp659
(dp660
g10
Nsg49
Nsg51
Nsg53
Nsg55
Nsg56
Nsg22
Nsg58
Nsg59
Nsg61
Nsg63
Nsg64
Nsg65
Nsg66
Nsg67
Nsg68
Nsg70
Nsg71
Nsg72
Nsg74
Nsg75
Nsg76
Nsg78
VWANAGL
p661
sg80
Nsg81
VWANAGL #OiP 
p662
sg83
Nsg85
Nsg87
I719756991
sg88
Nsbag3
(g44
g5
Ntp663
Rp664
(dp665
g10
Nsg49
Nsg51
Nsg53
Nsg55
Nsg56
Nsg22
Nsg58
Nsg59
Nsg61
Nsg63
Nsg64
Nsg65
Nsg66
Nsg67
Nsg68
Nsg70
Nsg71
Nsg72
Nsg74
Nsg75
Nsg76
Nsg78
VSuperman6869
p666
sg80
Nsg81
VSuperman
p667
sg83
Nsg85
Nsg87
I137820750
sg88
Nsbag3
(g44
g5
Ntp668
Rp669
(dp670
g10
Nsg49
Nsg51
Nsg53
Nsg55
Nsg56
Nsg22
Nsg58
Nsg59
Nsg61
Nsg63
Nsg64
Nsg65
Nsg66
Nsg67
Nsg68
Nsg70
Nsg71
Nsg72
Nsg74
Nsg75
Nsg76
Nsg78
VQueen_V1216
p671
sg80
Nsg81
VVickie Barnachea
p672
sg83
Nsg85
Nsg87
I265645992
sg88
Nsbag3
(g44
g5
Ntp673
Rp674
(dp675
g10
Nsg49
Nsg51
Nsg53
Nsg55
Nsg56
Nsg22
Nsg58
Nsg59
Nsg61
Nsg63
Nsg64
Nsg65
Nsg66
Nsg67
Nsg68
Nsg70
Nsg71
Nsg72
Nsg74
Nsg75
Nsg76
Nsg78
VTrickerKeeTs
p676
sg80
Nsg81
VTricker KeeTs
p677
sg83
Nsg85
Nsg87
I2738347879
sg88
Nsbag3
(g44
g5
Ntp678
Rp679
(dp680
g10
Nsg49
Nsg51
Nsg53
Nsg55
Nsg56
Nsg22
Nsg58
Nsg59
Nsg61
Nsg63
Nsg64
Nsg65
Nsg66
Nsg67
Nsg68
Nsg70
Nsg71
Nsg72
Nsg74
Nsg75
Nsg76
Nsg78
Vyrwol7
p681
sg80
Nsg81
VColleen White 
p682
sg83
Nsg85
Nsg87
I412776430
sg88
Nsbag3
(g44
g5
Ntp683
Rp684
(dp685
g10
Nsg49
Nsg51
Nsg53
Nsg55
Nsg56
Nsg22
Nsg58
Nsg59
Nsg61
Nsg63
Nsg64
Nsg65
Nsg66
Nsg67
Nsg68
Nsg70
Nsg71
Nsg72
Nsg74
Nsg75
Nsg76
Nsg78
VDaggy1
p686
sg80
Nsg81
VDagwood Bumstead
p687
sg83
Nsg85
Nsg87
I24305174
sg88
Nsbasg34
Nsg35
V543464642215813121
p688
sg37
I543451334599782400
sg38
V@gatman7 TY4 the #ff! @GenesSmile @Green_Star1 @ShaunTrades @cheapcigar @WANAGL @Superman6869 @Queen_V1216 @TrickerKeeTs @yrwol7 @Daggy1
p689
sg40
I00
sg41
Ven
p690
sg43
g3
(g44
g5
Ntp691
Rp692
(dp693
g10
VSan Marcos,Texas 
p694
sg49
V08080A
p695
sg51
Ven
p696
sg53
VHawaii
p697
sg55
I6517
sg56
I86404
sg22
VThu Jun 17 23:29:49 +0000 2010
p698
sg58
I00
sg59
VI am a person who believes that you are never too old to dream new dreams or start new adventures.
p699
sg61
Vhttps://pbs.twimg.com/profile_images/378800000122231557/ffdceb48670d7c65848b2cc6332fb70a_normal.jpeg
p700
sg63
I6519
sg64
I1590
sg65
I-36000
sg66
Nsg67
I00
sg68
Vhttps://pbs.twimg.com/profile_banners/156791542/1364787552
p701
sg70
I00
sg71
I01
sg72
V0A0102
p702
sg74
I01
sg75
I00
sg76
Vhttp://pbs.twimg.com/profile_background_images/113477541/heart3.bmp
p703
sg78
Vtexasflutegal
p704
sg80
I313
sg81
VJeannette Burleigh
p705
sg83
V7A6A53
p706
sg85
Vhttp://t.co/TUOs8Hwadj
p707
sg87
I156791542
sg88
VD9CEB2
p708
sbsg90
I1
sg91
V<a href="http://twitter.com/download/iphone" rel="nofollow">Twitter for iPhone</a>
p709
sg93
(lp710
sg87
I543464642215813121
sbsg16
Nsg17
(lp711
sg19
Nsg20
Nsg21
Nsg22
VSat Dec 13 09:38:57 +0000 2014
p712
sg24
Nsg25
Nsg26
Nsg27
Nsg28
Nsg29
Nsg30
I00
sg31
Nsg32
(lp713
g3
(g44
g5
Ntp714
Rp715
(dp716
g10
Nsg49
Nsg51
Nsg53
Nsg55
Nsg56
Nsg22
Nsg58
Nsg59
Nsg61
Nsg63
Nsg64
Nsg65
Nsg66
Nsg67
Nsg68
Nsg70
Nsg71
Nsg72
Nsg74
Nsg75
Nsg76
Nsg78
Vtexasflutegal
p717
sg80
Nsg81
VJeannette Burleigh
p718
sg83
Nsg85
Nsg87
I156791542
sg88
Nsbag3
(g44
g5
Ntp719
Rp720
(dp721
g10
Nsg49
Nsg51
Nsg53
Nsg55
Nsg56
Nsg22
Nsg58
Nsg59
Nsg61
Nsg63
Nsg64
Nsg65
Nsg66
Nsg67
Nsg68
Nsg70
Nsg71
Nsg72
Nsg74
Nsg75
Nsg76
Nsg78
Vgatman7
p722
sg80
Nsg81
VGeorge Thompson
p723
sg83
Nsg85
Nsg87
I36681617
sg88
Nsbag3
(g44
g5
Ntp724
Rp725
(dp726
g10
Nsg49
Nsg51
Nsg53
Nsg55
Nsg56
Nsg22
Nsg58
Nsg59
Nsg61
Nsg63
Nsg64
Nsg65
Nsg66
Nsg67
Nsg68
Nsg70
Nsg71
Nsg72
Nsg74
Nsg75
Nsg76
Nsg78
VGenesSmile
p727
sg80
Nsg81
VKrissy Chase
p728
sg83
Nsg85
Nsg87
I74827928
sg88
Nsbag3
(g44
g5
Ntp729
Rp730
(dp731
g10
Nsg49
Nsg51
Nsg53
Nsg55
Nsg56
Nsg22
Nsg58
Nsg59
Nsg61
Nsg63
Nsg64
Nsg65
Nsg66
Nsg67
Nsg68
Nsg70
Nsg71
Nsg72
Nsg74
Nsg75
Nsg76
Nsg78
VGreen_Star1
p732
sg80
Nsg81
VRalph E McCrum
p733
sg83
Nsg85
Nsg87
I53590352
sg88
Nsbag3
(g44
g5
Ntp734
Rp735
(dp736
g10
Nsg49
Nsg51
Nsg53
Nsg55
Nsg56
Nsg22
Nsg58
Nsg59
Nsg61
Nsg63
Nsg64
Nsg65
Nsg66
Nsg67
Nsg68
Nsg70
Nsg71
Nsg72
Nsg74
Nsg75
Nsg76
Nsg78
VShaunTrades
p737
sg80
Nsg81
VMoney Talks
p738
sg83
Nsg85
Nsg87
I213315220
sg88
Nsbag3
(g44
g5
Ntp739
Rp740
(dp741
g10
Nsg49
Nsg51
Nsg53
Nsg55
Nsg56
Nsg22
Nsg58
Nsg59
Nsg61
Nsg63
Nsg64
Nsg65
Nsg66
Nsg67
Nsg68
Nsg70
Nsg71
Nsg72
Nsg74
Nsg75
Nsg76
Nsg78
Vcheapcigar
p742
sg80
Nsg81
VSublimin_Al
p743
sg83
Nsg85
Nsg87
I1255621518
sg88
Nsbag3
(g44
g5
Ntp744
Rp745
(dp746
g10
Nsg49
Nsg51
Nsg53
Nsg55
Nsg56
Nsg22
Nsg58
Nsg59
Nsg61
Nsg63
Nsg64
Nsg65
Nsg66
Nsg67
Nsg68
Nsg70
Nsg71
Nsg72
Nsg74
Nsg75
Nsg76
Nsg78
VWANAGL
p747
sg80
Nsg81
VWANAGL #OiP 
p748
sg83
Nsg85
Nsg87
I719756991
sg88
Nsbag3
(g44
g5
Ntp749
Rp750
(dp751
g10
Nsg49
Nsg51
Nsg53
Nsg55
Nsg56
Nsg22
Nsg58
Nsg59
Nsg61
Nsg63
Nsg64
Nsg65
Nsg66
Nsg67
Nsg68
Nsg70
Nsg71
Nsg72
Nsg74
Nsg75
Nsg76
Nsg78
VSuperman6869
p752
sg80
Nsg81
VSuperman
p753
sg83
Nsg85
Nsg87
I137820750
sg88
Nsbag3
(g44
g5
Ntp754
Rp755
(dp756
g10
Nsg49
Nsg51
Nsg53
Nsg55
Nsg56
Nsg22
Nsg58
Nsg59
Nsg61
Nsg63
Nsg64
Nsg65
Nsg66
Nsg67
Nsg68
Nsg70
Nsg71
Nsg72
Nsg74
Nsg75
Nsg76
Nsg78
VQueen_V1216
p757
sg80
Nsg81
VVickie Barnachea
p758
sg83
Nsg85
Nsg87
I265645992
sg88
Nsbag3
(g44
g5
Ntp759
Rp760
(dp761
g10
Nsg49
Nsg51
Nsg53
Nsg55
Nsg56
Nsg22
Nsg58
Nsg59
Nsg61
Nsg63
Nsg64
Nsg65
Nsg66
Nsg67
Nsg68
Nsg70
Nsg71
Nsg72
Nsg74
Nsg75
Nsg76
Nsg78
VTrickerKeeTs
p762
sg80
Nsg81
VTricker KeeTs
p763
sg83
Nsg85
Nsg87
I2738347879
sg88
Nsbag3
(g44
g5
Ntp764
Rp765
(dp766
g10
Nsg49
Nsg51
Nsg53
Nsg55
Nsg56
Nsg22
Nsg58
Nsg59
Nsg61
Nsg63
Nsg64
Nsg65
Nsg66
Nsg67
Nsg68
Nsg70
Nsg71
Nsg72
Nsg74
Nsg75
Nsg76
Nsg78
Vyrwol7
p767
sg80
Nsg81
VColleen White 
p768
sg83
Nsg85
Nsg87
I412776430
sg88
Nsbag3
(g44
g5
Ntp769
Rp770
(dp771
g10
Nsg49
Nsg51
Nsg53
Nsg55
Nsg56
Nsg22
Nsg58
Nsg59
Nsg61
Nsg63
Nsg64
Nsg65
Nsg66
Nsg67
Nsg68
Nsg70
Nsg71
Nsg72
Nsg74
Nsg75
Nsg76
Nsg78
VDaggy1
p772
sg80
Nsg81
VDagwood Bumstead
p773
sg83
Nsg85
Nsg87
I24305174
sg88
Nsbasg34
Nsg35
V543701601719160834
p774
sg37
Nsg38
VRT @texasflutegal: @gatman7 TY4 the #ff! @GenesSmile @Green_Star1 @ShaunTrades @cheapcigar @WANAGL @Superman6869 @Queen_V1216 @TrickerKeeTs\u2026
p775
sg40
I00
sg41
Ven
p776
sg43
g3
(g44
g5
Ntp777
Rp778
(dp779
g10
V \ufe3b\u2566\u2564\u2500\u2500   \ufe3b\u2566\u2564\u2500\u2500   \ufe3b\u2566\u2564\u2500\u2500   \ufe3b\u2566\u2564\u2500\u2500
p780
sg49
V333333
p781
sg51
Ven-gb
p782
sg53
VLondon
p783
sg55
I4552
sg56
I25702
sg22
VSat Mar 09 23:39:32 +0000 2013
p784
sg58
I00
sg59
VPatriot, Army Veteran from 40 yrs ago, love my rescued dogs, rifles, pistols, and freedom. God Bless all US Armed Forces, Active,Vets,& Deceased. #NRA #PJNET
p785
sg61
Vhttps://pbs.twimg.com/profile_images/542439961106997251/Qt0kA7_R_normal.jpeg
p786
sg63
I4549
sg64
I8473
sg65
I0
sg66
Nsg67
I00
sg68
Vhttps://pbs.twimg.com/profile_banners/1255621518/1418165233
p787
sg70
I00
sg71
I00
sg72
VBD1C1C
p788
sg74
I00
sg75
I00
sg76
Vhttp://abs.twimg.com/images/themes/theme1/bg.png
p789
sg78
Vcheapcigar
p790
sg80
I85
sg81
VSublimin_Al
p791
sg83
VDDEEF6
p792
sg85
Vhttp://t.co/mFeQgMWOgQ
p793
sg87
I1255621518
sg88
VC0DEED
p794
sbsg90
I1
sg91
V<a href="http://twitter.com/download/iphone" rel="nofollow">Twitter for iPhone</a>
p795
sg93
(lp796
sg87
I543701601719160834
sbag3
(g4
g5
Ntp797
Rp798
(dp799
g9
I0
sg10
Nsg11
Nsg12
(lp800
g3
(g615
g5
Ntp801
Rp802
(dp803
g619
VFF
p804
sbasg14
I00
sg15
g3
(g4
g5
Ntp805
Rp806
(dp807
g9
I3
sg10
Nsg11
Nsg12
(lp808
g3
(g615
g5
Ntp809
Rp810
(dp811
g619
VFF
p812
sbasg14
I00
sg15
Nsg16
Nsg17
(lp813
sg19
Nsg20
Nsg21
Nsg22
VFri Dec 12 20:00:38 +0000 2014
p814
sg24
Nsg25
Nsg26
Vgatman7
p815
sg27
Nsg28
I36681617
sg29
Nsg30
I00
sg31
Nsg32
(lp816
g3
(g44
g5
Ntp817
Rp818
(dp819
g10
Nsg49
Nsg51
Nsg53
Nsg55
Nsg56
Nsg22
Nsg58
Nsg59
Nsg61
Nsg63
Nsg64
Nsg65
Nsg66
Nsg67
Nsg68
Nsg70
Nsg71
Nsg72
Nsg74
Nsg75
Nsg76
Nsg78
Vgatman7
p820
sg80
Nsg81
VGeorge Thompson
p821
sg83
Nsg85
Nsg87
I36681617
sg88
Nsbag3
(g44
g5
Ntp822
Rp823
(dp824
g10
Nsg49
Nsg51
Nsg53
Nsg55
Nsg56
Nsg22
Nsg58
Nsg59
Nsg61
Nsg63
Nsg64
Nsg65
Nsg66
Nsg67
Nsg68
Nsg70
Nsg71
Nsg72
Nsg74
Nsg75
Nsg76
Nsg78
VGenesSmile
p825
sg80
Nsg81
VKrissy Chase
p826
sg83
Nsg85
Nsg87
I74827928
sg88
Nsbag3
(g44
g5
Ntp827
Rp828
(dp829
g10
Nsg49
Nsg51
Nsg53
Nsg55
Nsg56
Nsg22
Nsg58
Nsg59
Nsg61
Nsg63
Nsg64
Nsg65
Nsg66
Nsg67
Nsg68
Nsg70
Nsg71
Nsg72
Nsg74
Nsg75
Nsg76
Nsg78
VGreen_Star1
p830
sg80
Nsg81
VRalph E McCrum
p831
sg83
Nsg85
Nsg87
I53590352
sg88
Nsbag3
(g44
g5
Ntp832
Rp833
(dp834
g10
Nsg49
Nsg51
Nsg53
Nsg55
Nsg56
Nsg22
Nsg58
Nsg59
Nsg61
Nsg63
Nsg64
Nsg65
Nsg66
Nsg67
Nsg68
Nsg70
Nsg71
Nsg72
Nsg74
Nsg75
Nsg76
Nsg78
VShaunTrades
p835
sg80
Nsg81
VMoney Talks
p836
sg83
Nsg85
Nsg87
I213315220
sg88
Nsbag3
(g44
g5
Ntp837
Rp838
(dp839
g10
Nsg49
Nsg51
Nsg53
Nsg55
Nsg56
Nsg22
Nsg58
Nsg59
Nsg61
Nsg63
Nsg64
Nsg65
Nsg66
Nsg67
Nsg68
Nsg70
Nsg71
Nsg72
Nsg74
Nsg75
Nsg76
Nsg78
Vcheapcigar
p840
sg80
Nsg81
VSublimin_Al
p841
sg83
Nsg85
Nsg87
I1255621518
sg88
Nsbag3
(g44
g5
Ntp842
Rp843
(dp844
g10
Nsg49
Nsg51
Nsg53
Nsg55
Nsg56
Nsg22
Nsg58
Nsg59
Nsg61
Nsg63
Nsg64
Nsg65
Nsg66
Nsg67
Nsg68
Nsg70
Nsg71
Nsg72
Nsg74
Nsg75
Nsg76
Nsg78
Vtexasflutegal
p845
sg80
Nsg81
VJeannette Burleigh
p846
sg83
Nsg85
Nsg87
I156791542
sg88
Nsbag3
(g44
g5
Ntp847
Rp848
(dp849
g10
Nsg49
Nsg51
Nsg53
Nsg55
Nsg56
Nsg22
Nsg58
Nsg59
Nsg61
Nsg63
Nsg64
Nsg65
Nsg66
Nsg67
Nsg68
Nsg70
Nsg71
Nsg72
Nsg74
Nsg75
Nsg76
Nsg78
VSuperman6869
p850
sg80
Nsg81
VSuperman
p851
sg83
Nsg85
Nsg87
I137820750
sg88
Nsbag3
(g44
g5
Ntp852
Rp853
(dp854
g10
Nsg49
Nsg51
Nsg53
Nsg55
Nsg56
Nsg22
Nsg58
Nsg59
Nsg61
Nsg63
Nsg64
Nsg65
Nsg66
Nsg67
Nsg68
Nsg70
Nsg71
Nsg72
Nsg74
Nsg75
Nsg76
Nsg78
VQueen_V1216
p855
sg80
Nsg81
VVickie Barnachea
p856
sg83
Nsg85
Nsg87
I265645992
sg88
Nsbag3
(g44
g5
Ntp857
Rp858
(dp859
g10
Nsg49
Nsg51
Nsg53
Nsg55
Nsg56
Nsg22
Nsg58
Nsg59
Nsg61
Nsg63
Nsg64
Nsg65
Nsg66
Nsg67
Nsg68
Nsg70
Nsg71
Nsg72
Nsg74
Nsg75
Nsg76
Nsg78
VTrickerKeeTs
p860
sg80
Nsg81
VTricker KeeTs
p861
sg83
Nsg85
Nsg87
I2738347879
sg88
Nsbag3
(g44
g5
Ntp862
Rp863
(dp864
g10
Nsg49
Nsg51
Nsg53
Nsg55
Nsg56
Nsg22
Nsg58
Nsg59
Nsg61
Nsg63
Nsg64
Nsg65
Nsg66
Nsg67
Nsg68
Nsg70
Nsg71
Nsg72
Nsg74
Nsg75
Nsg76
Nsg78
Vyrwol7
p865
sg80
Nsg81
VColleen White 
p866
sg83
Nsg85
Nsg87
I412776430
sg88
Nsbag3
(g44
g5
Ntp867
Rp868
(dp869
g10
Nsg49
Nsg51
Nsg53
Nsg55
Nsg56
Nsg22
Nsg58
Nsg59
Nsg61
Nsg63
Nsg64
Nsg65
Nsg66
Nsg67
Nsg68
Nsg70
Nsg71
Nsg72
Nsg74
Nsg75
Nsg76
Nsg78
VDaggy1
p870
sg80
Nsg81
VDagwood Bumstead
p871
sg83
Nsg85
Nsg87
I24305174
sg88
Nsbasg34
Nsg35
V543495664488165376
p872
sg37
I543451334599782400
sg38
V#FF All! @gatman7 @GenesSmile @Green_Star1 @ShaunTrades @cheapcigar @texasflutegal @Superman6869 @Queen_V1216 @TrickerKeeTs @yrwol7 @Daggy1
p873
sg40
I00
sg41
Vund
p874
sg43
g3
(g44
g5
Ntp875
Rp876
(dp877
g10
V
p878
sg49
V333333
p879
sg51
Ven
p880
sg53
Nsg55
I1713
sg56
I11096
sg22
VThu Oct 17 21:49:00 +0000 2013
p881
sg58
I00
sg59
VBusiness Owner  #Conservative  #Christian  #PJNet  #UPPUSA  #CCOT  #Patriot   #RedStateRising  #2ndAmmendment  #NRA  #TeaParty  #ObamaMustBeStopped  #OiP
p882
sg61
Vhttps://pbs.twimg.com/profile_images/539840189896462338/WuEZESSI_normal.png
p883
sg63
I1933
sg64
I10181
sg65
Nsg66
Nsg67
I00
sg68
Vhttps://pbs.twimg.com/profile_banners/719756991/1399995507
p884
sg70
I00
sg71
I00
sg72
V0084B4
p885
sg74
I00
sg75
I00
sg76
Vhttp://abs.twimg.com/images/themes/theme1/bg.png
p886
sg78
VWANAGL
p887
sg80
I21
sg81
VWANAGL #OiP 
p888
sg83
VDDEEF6
p889
sg85
Nsg87
I719756991
sg88
VC0DEED
p890
sbsg90
I5
sg91
V<a href="https://twitter.com/download/android" rel="nofollow">Twitter for Android Tablets</a>
p891
sg93
(lp892
sg87
I543495664488165376
sbsg16
Nsg17
(lp893
sg19
Nsg20
Nsg21
Nsg22
VSat Dec 13 09:38:54 +0000 2014
p894
sg24
Nsg25
Nsg26
Nsg27
Nsg28
Nsg29
Nsg30
I00
sg31
Nsg32
(lp895
g3
(g44
g5
Ntp896
Rp897
(dp898
g10
Nsg49
Nsg51
Nsg53
Nsg55
Nsg56
Nsg22
Nsg58
Nsg59
Nsg61
Nsg63
Nsg64
Nsg65
Nsg66
Nsg67
Nsg68
Nsg70
Nsg71
Nsg72
Nsg74
Nsg75
Nsg76
Nsg78
VWANAGL
p899
sg80
Nsg81
VWANAGL #OiP 
p900
sg83
Nsg85
Nsg87
I719756991
sg88
Nsbag3
(g44
g5
Ntp901
Rp902
(dp903
g10
Nsg49
Nsg51
Nsg53
Nsg55
Nsg56
Nsg22
Nsg58
Nsg59
Nsg61
Nsg63
Nsg64
Nsg65
Nsg66
Nsg67
Nsg68
Nsg70
Nsg71
Nsg72
Nsg74
Nsg75
Nsg76
Nsg78
Vgatman7
p904
sg80
Nsg81
VGeorge Thompson
p905
sg83
Nsg85
Nsg87
I36681617
sg88
Nsbag3
(g44
g5
Ntp906
Rp907
(dp908
g10
Nsg49
Nsg51
Nsg53
Nsg55
Nsg56
Nsg22
Nsg58
Nsg59
Nsg61
Nsg63
Nsg64
Nsg65
Nsg66
Nsg67
Nsg68
Nsg70
Nsg71
Nsg72
Nsg74
Nsg75
Nsg76
Nsg78
VGenesSmile
p909
sg80
Nsg81
VKrissy Chase
p910
sg83
Nsg85
Nsg87
I74827928
sg88
Nsbag3
(g44
g5
Ntp911
Rp912
(dp913
g10
Nsg49
Nsg51
Nsg53
Nsg55
Nsg56
Nsg22
Nsg58
Nsg59
Nsg61
Nsg63
Nsg64
Nsg65
Nsg66
Nsg67
Nsg68
Nsg70
Nsg71
Nsg72
Nsg74
Nsg75
Nsg76
Nsg78
VGreen_Star1
p914
sg80
Nsg81
VRalph E McCrum
p915
sg83
Nsg85
Nsg87
I53590352
sg88
Nsbag3
(g44
g5
Ntp916
Rp917
(dp918
g10
Nsg49
Nsg51
Nsg53
Nsg55
Nsg56
Nsg22
Nsg58
Nsg59
Nsg61
Nsg63
Nsg64
Nsg65
Nsg66
Nsg67
Nsg68
Nsg70
Nsg71
Nsg72
Nsg74
Nsg75
Nsg76
Nsg78
VShaunTrades
p919
sg80
Nsg81
VMoney Talks
p920
sg83
Nsg85
Nsg87
I213315220
sg88
Nsbag3
(g44
g5
Ntp921
Rp922
(dp923
g10
Nsg49
Nsg51
Nsg53
Nsg55
Nsg56
Nsg22
Nsg58
Nsg59
Nsg61
Nsg63
Nsg64
Nsg65
Nsg66
Nsg67
Nsg68
Nsg70
Nsg71
Nsg72
Nsg74
Nsg75
Nsg76
Nsg78
Vcheapcigar
p924
sg80
Nsg81
VSublimin_Al
p925
sg83
Nsg85
Nsg87
I1255621518
sg88
Nsbag3
(g44
g5
Ntp926
Rp927
(dp928
g10
Nsg49
Nsg51
Nsg53
Nsg55
Nsg56
Nsg22
Nsg58
Nsg59
Nsg61
Nsg63
Nsg64
Nsg65
Nsg66
Nsg67
Nsg68
Nsg70
Nsg71
Nsg72
Nsg74
Nsg75
Nsg76
Nsg78
Vtexasflutegal
p929
sg80
Nsg81
VJeannette Burleigh
p930
sg83
Nsg85
Nsg87
I156791542
sg88
Nsbag3
(g44
g5
Ntp931
Rp932
(dp933
g10
Nsg49
Nsg51
Nsg53
Nsg55
Nsg56
Nsg22
Nsg58
Nsg59
Nsg61
Nsg63
Nsg64
Nsg65
Nsg66
Nsg67
Nsg68
Nsg70
Nsg71
Nsg72
Nsg74
Nsg75
Nsg76
Nsg78
VSuperman6869
p934
sg80
Nsg81
VSuperman
p935
sg83
Nsg85
Nsg87
I137820750
sg88
Nsbag3
(g44
g5
Ntp936
Rp937
(dp938
g10
Nsg49
Nsg51
Nsg53
Nsg55
Nsg56
Nsg22
Nsg58
Nsg59
Nsg61
Nsg63
Nsg64
Nsg65
Nsg66
Nsg67
Nsg68
Nsg70
Nsg71
Nsg72
Nsg74
Nsg75
Nsg76
Nsg78
VQueen_V1216
p939
sg80
Nsg81
VVickie Barnachea
p940
sg83
Nsg85
Nsg87
I265645992
sg88
Nsbag3
(g44
g5
Ntp941
Rp942
(dp943
g10
Nsg49
Nsg51
Nsg53
Nsg55
Nsg56
Nsg22
Nsg58
Nsg59
Nsg61
Nsg63
Nsg64
Nsg65
Nsg66
Nsg67
Nsg68
Nsg70
Nsg71
Nsg72
Nsg74
Nsg75
Nsg76
Nsg78
VTrickerKeeTs
p944
sg80
Nsg81
VTricker KeeTs
p945
sg83
Nsg85
Nsg87
I2738347879
sg88
Nsbag3
(g44
g5
Ntp946
Rp947
(dp948
g10
Nsg49
Nsg51
Nsg53
Nsg55
Nsg56
Nsg22
Nsg58
Nsg59
Nsg61
Nsg63
Nsg64
Nsg65
Nsg66
Nsg67
Nsg68
Nsg70
Nsg71
Nsg72
Nsg74
Nsg75
Nsg76
Nsg78
Vyrwol7
p949
sg80
Nsg81
VColleen White 
p950
sg83
Nsg85
Nsg87
I412776430
sg88
Nsbag3
(g44
g5
Ntp951
Rp952
(dp953
g10
Nsg49
Nsg51
Nsg53
Nsg55
Nsg56
Nsg22
Nsg58
Nsg59
Nsg61
Nsg63
Nsg64
Nsg65
Nsg66
Nsg67
Nsg68
Nsg70
Nsg71
Nsg72
Nsg74
Nsg75
Nsg76
Nsg78
VDaggy1
p954
sg80
Nsg81
VDagwood Bumstead
p955
sg83
Nsg85
Nsg87
I24305174
sg88
Nsbasg34
Nsg35
V543701586976190464
p956
sg37
Nsg38
VRT @WANAGL: #FF All! @gatman7 @GenesSmile @Green_Star1 @ShaunTrades @cheapcigar @texasflutegal @Superman6869 @Queen_V1216 @TrickerKeeTs @yr\u2026
p957
sg40
I00
sg41
Vund
p958
sg43
g3
(g44
g5
Ntp959
Rp960
(dp961
g10
V \ufe3b\u2566\u2564\u2500\u2500   \ufe3b\u2566\u2564\u2500\u2500   \ufe3b\u2566\u2564\u2500\u2500   \ufe3b\u2566\u2564\u2500\u2500
p962
sg49
V333333
p963
sg51
Ven-gb
p964
sg53
VLondon
p965
sg55
I4552
sg56
I25702
sg22
VSat Mar 09 23:39:32 +0000 2013
p966
sg58
I00
sg59
VPatriot, Army Veteran from 40 yrs ago, love my rescued dogs, rifles, pistols, and freedom. God Bless all US Armed Forces, Active,Vets,& Deceased. #NRA #PJNET
p967
sg61
Vhttps://pbs.twimg.com/profile_images/542439961106997251/Qt0kA7_R_normal.jpeg
p968
sg63
I4549
sg64
I8473
sg65
I0
sg66
Nsg67
I00
sg68
Vhttps://pbs.twimg.com/profile_banners/1255621518/1418165233
p969
sg70
I00
sg71
I00
sg72
VBD1C1C
p970
sg74
I00
sg75
I00
sg76
Vhttp://abs.twimg.com/images/themes/theme1/bg.png
p971
sg78
Vcheapcigar
p972
sg80
I85
sg81
VSublimin_Al
p973
sg83
VDDEEF6
p974
sg85
Vhttp://t.co/mFeQgMWOgQ
p975
sg87
I1255621518
sg88
VC0DEED
p976
sbsg90
I5
sg91
V<a href="http://twitter.com/download/iphone" rel="nofollow">Twitter for iPhone</a>
p977
sg93
(lp978
sg87
I543701586976190464
sbag3
(g4
g5
Ntp979
Rp980
(dp981
g9
I0
sg10
Nsg11
Nsg12
(lp982
sg14
I00
sg15
g3
(g4
g5
Ntp983
Rp984
(dp985
g9
I4
sg10
Nsg11
Nsg12
(lp986
sg14
I00
sg15
Nsg16
Nsg17
(lp987
sg19
Nsg20
Nsg21
Nsg22
VFri Dec 12 20:13:01 +0000 2014
p988
sg24
Nsg25
Nsg26
VWANAGL
p989
sg27
Nsg28
I719756991
sg29
Nsg30
I00
sg31
Nsg32
(lp990
g3
(g44
g5
Ntp991
Rp992
(dp993
g10
Nsg49
Nsg51
Nsg53
Nsg55
Nsg56
Nsg22
Nsg58
Nsg59
Nsg61
Nsg63
Nsg64
Nsg65
Nsg66
Nsg67
Nsg68
Nsg70
Nsg71
Nsg72
Nsg74
Nsg75
Nsg76
Nsg78
VWANAGL
p994
sg80
Nsg81
VWANAGL #OiP 
p995
sg83
Nsg85
Nsg87
I719756991
sg88
Nsbag3
(g44
g5
Ntp996
Rp997
(dp998
g10
Nsg49
Nsg51
Nsg53
Nsg55
Nsg56
Nsg22
Nsg58
Nsg59
Nsg61
Nsg63
Nsg64
Nsg65
Nsg66
Nsg67
Nsg68
Nsg70
Nsg71
Nsg72
Nsg74
Nsg75
Nsg76
Nsg78
Vgatman7
p999
sg80
Nsg81
VGeorge Thompson
p1000
sg83
Nsg85
Nsg87
I36681617
sg88
Nsbag3
(g44
g5
Ntp1001
Rp1002
(dp1003
g10
Nsg49
Nsg51
Nsg53
Nsg55
Nsg56
Nsg22
Nsg58
Nsg59
Nsg61
Nsg63
Nsg64
Nsg65
Nsg66
Nsg67
Nsg68
Nsg70
Nsg71
Nsg72
Nsg74
Nsg75
Nsg76
Nsg78
VGenesSmile
p1004
sg80
Nsg81
VKrissy Chase
p1005
sg83
Nsg85
Nsg87
I74827928
sg88
Nsbag3
(g44
g5
Ntp1006
Rp1007
(dp1008
g10
Nsg49
Nsg51
Nsg53
Nsg55
Nsg56
Nsg22
Nsg58
Nsg59
Nsg61
Nsg63
Nsg64
Nsg65
Nsg66
Nsg67
Nsg68
Nsg70
Nsg71
Nsg72
Nsg74
Nsg75
Nsg76
Nsg78
VGreen_Star1
p1009
sg80
Nsg81
VRalph E McCrum
p1010
sg83
Nsg85
Nsg87
I53590352
sg88
Nsbag3
(g44
g5
Ntp1011
Rp1012
(dp1013
g10
Nsg49
Nsg51
Nsg53
Nsg55
Nsg56
Nsg22
Nsg58
Nsg59
Nsg61
Nsg63
Nsg64
Nsg65
Nsg66
Nsg67
Nsg68
Nsg70
Nsg71
Nsg72
Nsg74
Nsg75
Nsg76
Nsg78
VShaunTrades
p1014
sg80
Nsg81
VMoney Talks
p1015
sg83
Nsg85
Nsg87
I213315220
sg88
Nsbag3
(g44
g5
Ntp1016
Rp1017
(dp1018
g10
Nsg49
Nsg51
Nsg53
Nsg55
Nsg56
Nsg22
Nsg58
Nsg59
Nsg61
Nsg63
Nsg64
Nsg65
Nsg66
Nsg67
Nsg68
Nsg70
Nsg71
Nsg72
Nsg74
Nsg75
Nsg76
Nsg78
Vcheapcigar
p1019
sg80
Nsg81
VSublimin_Al
p1020
sg83
Nsg85
Nsg87
I1255621518
sg88
Nsbag3
(g44
g5
Ntp1021
Rp1022
(dp1023
g10
Nsg49
Nsg51
Nsg53
Nsg55
Nsg56
Nsg22
Nsg58
Nsg59
Nsg61
Nsg63
Nsg64
Nsg65
Nsg66
Nsg67
Nsg68
Nsg70
Nsg71
Nsg72
Nsg74
Nsg75
Nsg76
Nsg78
Vtexasflutegal
p1024
sg80
Nsg81
VJeannette Burleigh
p1025
sg83
Nsg85
Nsg87
I156791542
sg88
Nsbag3
(g44
g5
Ntp1026
Rp1027
(dp1028
g10
Nsg49
Nsg51
Nsg53
Nsg55
Nsg56
Nsg22
Nsg58
Nsg59
Nsg61
Nsg63
Nsg64
Nsg65
Nsg66
Nsg67
Nsg68
Nsg70
Nsg71
Nsg72
Nsg74
Nsg75
Nsg76
Nsg78
VSuperman6869
p1029
sg80
Nsg81
VSuperman
p1030
sg83
Nsg85
Nsg87
I137820750
sg88
Nsbag3
(g44
g5
Ntp1031
Rp1032
(dp1033
g10
Nsg49
Nsg51
Nsg53
Nsg55
Nsg56
Nsg22
Nsg58
Nsg59
Nsg61
Nsg63
Nsg64
Nsg65
Nsg66
Nsg67
Nsg68
Nsg70
Nsg71
Nsg72
Nsg74
Nsg75
Nsg76
Nsg78
VTrickerKeeTs
p1034
sg80
Nsg81
VTricker KeeTs
p1035
sg83
Nsg85
Nsg87
I2738347879
sg88
Nsbag3
(g44
g5
Ntp1036
Rp1037
(dp1038
g10
Nsg49
Nsg51
Nsg53
Nsg55
Nsg56
Nsg22
Nsg58
Nsg59
Nsg61
Nsg63
Nsg64
Nsg65
Nsg66
Nsg67
Nsg68
Nsg70
Nsg71
Nsg72
Nsg74
Nsg75
Nsg76
Nsg78
Vyrwol7
p1039
sg80
Nsg81
VColleen White 
p1040
sg83
Nsg85
Nsg87
I412776430
sg88
Nsbag3
(g44
g5
Ntp1041
Rp1042
(dp1043
g10
Nsg49
Nsg51
Nsg53
Nsg55
Nsg56
Nsg22
Nsg58
Nsg59
Nsg61
Nsg63
Nsg64
Nsg65
Nsg66
Nsg67
Nsg68
Nsg70
Nsg71
Nsg72
Nsg74
Nsg75
Nsg76
Nsg78
VDaggy1
p1044
sg80
Nsg81
VDagwood Bumstead
p1045
sg83
Nsg85
Nsg87
I24305174
sg88
Nsbasg34
Nsg35
V543498778599510016
p1046
sg37
I543495664488165376
sg38
V@WANAGL @gatman7 @GenesSmile @Green_Star1 @ShaunTrades @cheapcigar @texasflutegal @Superman6869 @TrickerKeeTs @yrwol7 @Daggy1 T4DM WANAGL GD
p1047
sg40
I00
sg41
Vin
p1048
sg43
g3
(g44
g5
Ntp1049
Rp1050
(dp1051
g10
V #ORPUW
p1052
sg49
V333333
p1053
sg51
Ven
p1054
sg53
VEastern Time (US & Canada)
p1055
sg55
I2184
sg56
I82023
sg22
VSun Mar 13 22:54:01 +0000 2011
p1056
sg58
I00
sg59
VChairman 2012; Pres 2006-'12 UERMAFUSA; MEDCHI Alliance Pres '99-'00;PGMSA-Pres 92-'93 SMAA VP 2006; MARVADC;Mentor,adviser; PMAMWDC; Phi Theta Kappa Alpha
p1057
sg61
Vhttps://pbs.twimg.com/profile_images/378800000432361104/4983fd06c98bd8b12dfd17f3f2231f7b_normal.jpeg
p1058
sg63
I1738
sg64
I8827
sg65
I-18000
sg66
Nsg67
I00
sg68
Vhttps://pbs.twimg.com/profile_banners/265645992/1353291774
p1059
sg70
I00
sg71
I00
sg72
V0084B4
p1060
sg74
I01
sg75
I00
sg76
Vhttp://abs.twimg.com/images/themes/theme1/bg.png
p1061
sg78
VQueen_V1216
p1062
sg80
I47
sg81
VVickie Barnachea
p1063
sg83
VDDEEF6
p1064
sg85
Vhttps://t.co/8MSpEozK5H
p1065
sg87
I265645992
sg88
VC0DEED
p1066
sbsg90
I2
sg91
V<a href="http://twitter.com/download/iphone" rel="nofollow">Twitter for iPhone</a>
p1067
sg93
(lp1068
sg87
I543498778599510016
sbsg16
Nsg17
(lp1069
sg19
Nsg20
Nsg21
Nsg22
VSat Dec 13 09:38:50 +0000 2014
p1070
sg24
Nsg25
Nsg26
Nsg27
Nsg28
Nsg29
Nsg30
I00
sg31
Nsg32
(lp1071
g3
(g44
g5
Ntp1072
Rp1073
(dp1074
g10
Nsg49
Nsg51
Nsg53
Nsg55
Nsg56
Nsg22
Nsg58
Nsg59
Nsg61
Nsg63
Nsg64
Nsg65
Nsg66
Nsg67
Nsg68
Nsg70
Nsg71
Nsg72
Nsg74
Nsg75
Nsg76
Nsg78
VQueen_V1216
p1075
sg80
Nsg81
VVickie Barnachea
p1076
sg83
Nsg85
Nsg87
I265645992
sg88
Nsbag3
(g44
g5
Ntp1077
Rp1078
(dp1079
g10
Nsg49
Nsg51
Nsg53
Nsg55
Nsg56
Nsg22
Nsg58
Nsg59
Nsg61
Nsg63
Nsg64
Nsg65
Nsg66
Nsg67
Nsg68
Nsg70
Nsg71
Nsg72
Nsg74
Nsg75
Nsg76
Nsg78
VWANAGL
p1080
sg80
Nsg81
VWANAGL #OiP 
p1081
sg83
Nsg85
Nsg87
I719756991
sg88
Nsbag3
(g44
g5
Ntp1082
Rp1083
(dp1084
g10
Nsg49
Nsg51
Nsg53
Nsg55
Nsg56
Nsg22
Nsg58
Nsg59
Nsg61
Nsg63
Nsg64
Nsg65
Nsg66
Nsg67
Nsg68
Nsg70
Nsg71
Nsg72
Nsg74
Nsg75
Nsg76
Nsg78
Vgatman7
p1085
sg80
Nsg81
VGeorge Thompson
p1086
sg83
Nsg85
Nsg87
I36681617
sg88
Nsbag3
(g44
g5
Ntp1087
Rp1088
(dp1089
g10
Nsg49
Nsg51
Nsg53
Nsg55
Nsg56
Nsg22
Nsg58
Nsg59
Nsg61
Nsg63
Nsg64
Nsg65
Nsg66
Nsg67
Nsg68
Nsg70
Nsg71
Nsg72
Nsg74
Nsg75
Nsg76
Nsg78
VGenesSmile
p1090
sg80
Nsg81
VKrissy Chase
p1091
sg83
Nsg85
Nsg87
I74827928
sg88
Nsbag3
(g44
g5
Ntp1092
Rp1093
(dp1094
g10
Nsg49
Nsg51
Nsg53
Nsg55
Nsg56
Nsg22
Nsg58
Nsg59
Nsg61
Nsg63
Nsg64
Nsg65
Nsg66
Nsg67
Nsg68
Nsg70
Nsg71
Nsg72
Nsg74
Nsg75
Nsg76
Nsg78
VGreen_Star1
p1095
sg80
Nsg81
VRalph E McCrum
p1096
sg83
Nsg85
Nsg87
I53590352
sg88
Nsbag3
(g44
g5
Ntp1097
Rp1098
(dp1099
g10
Nsg49
Nsg51
Nsg53
Nsg55
Nsg56
Nsg22
Nsg58
Nsg59
Nsg61
Nsg63
Nsg64
Nsg65
Nsg66
Nsg67
Nsg68
Nsg70
Nsg71
Nsg72
Nsg74
Nsg75
Nsg76
Nsg78
VShaunTrades
p1100
sg80
Nsg81
VMoney Talks
p1101
sg83
Nsg85
Nsg87
I213315220
sg88
Nsbag3
(g44
g5
Ntp1102
Rp1103
(dp1104
g10
Nsg49
Nsg51
Nsg53
Nsg55
Nsg56
Nsg22
Nsg58
Nsg59
Nsg61
Nsg63
Nsg64
Nsg65
Nsg66
Nsg67
Nsg68
Nsg70
Nsg71
Nsg72
Nsg74
Nsg75
Nsg76
Nsg78
Vcheapcigar
p1105
sg80
Nsg81
VSublimin_Al
p1106
sg83
Nsg85
Nsg87
I1255621518
sg88
Nsbag3
(g44
g5
Ntp1107
Rp1108
(dp1109
g10
Nsg49
Nsg51
Nsg53
Nsg55
Nsg56
Nsg22
Nsg58
Nsg59
Nsg61
Nsg63
Nsg64
Nsg65
Nsg66
Nsg67
Nsg68
Nsg70
Nsg71
Nsg72
Nsg74
Nsg75
Nsg76
Nsg78
Vtexasflutegal
p1110
sg80
Nsg81
VJeannette Burleigh
p1111
sg83
Nsg85
Nsg87
I156791542
sg88
Nsbag3
(g44
g5
Ntp1112
Rp1113
(dp1114
g10
Nsg49
Nsg51
Nsg53
Nsg55
Nsg56
Nsg22
Nsg58
Nsg59
Nsg61
Nsg63
Nsg64
Nsg65
Nsg66
Nsg67
Nsg68
Nsg70
Nsg71
Nsg72
Nsg74
Nsg75
Nsg76
Nsg78
VSuperman6869
p1115
sg80
Nsg81
VSuperman
p1116
sg83
Nsg85
Nsg87
I137820750
sg88
Nsbag3
(g44
g5
Ntp1117
Rp1118
(dp1119
g10
Nsg49
Nsg51
Nsg53
Nsg55
Nsg56
Nsg22
Nsg58
Nsg59
Nsg61
Nsg63
Nsg64
Nsg65
Nsg66
Nsg67
Nsg68
Nsg70
Nsg71
Nsg72
Nsg74
Nsg75
Nsg76
Nsg78
VTrickerKeeTs
p1120
sg80
Nsg81
VTricker KeeTs
p1121
sg83
Nsg85
Nsg87
I2738347879
sg88
Nsbag3
(g44
g5
Ntp1122
Rp1123
(dp1124
g10
Nsg49
Nsg51
Nsg53
Nsg55
Nsg56
Nsg22
Nsg58
Nsg59
Nsg61
Nsg63
Nsg64
Nsg65
Nsg66
Nsg67
Nsg68
Nsg70
Nsg71
Nsg72
Nsg74
Nsg75
Nsg76
Nsg78
Vyrwol7
p1125
sg80
Nsg81
VColleen White 
p1126
sg83
Nsg85
Nsg87
I412776430
sg88
Nsbag3
(g44
g5
Ntp1127
Rp1128
(dp1129
g10
Nsg49
Nsg51
Nsg53
Nsg55
Nsg56
Nsg22
Nsg58
Nsg59
Nsg61
Nsg63
Nsg64
Nsg65
Nsg66
Nsg67
Nsg68
Nsg70
Nsg71
Nsg72
Nsg74
Nsg75
Nsg76
Nsg78
VDaggy1
p1130
sg80
Nsg81
VDagwood Bumstead
p1131
sg83
Nsg85
Nsg87
I24305174
sg88
Nsbasg34
Nsg35
V543701572300337152
p1132
sg37
Nsg38
VRT @Queen_V1216: @WANAGL @gatman7 @GenesSmile @Green_Star1 @ShaunTrades @cheapcigar @texasflutegal @Superman6869 @TrickerKeeTs @yrwol7 @Dag\u2026
p1133
sg40
I00
sg41
Vin
p1134
sg43
g3
(g44
g5
Ntp1135
Rp1136
(dp1137
g10
V \ufe3b\u2566\u2564\u2500\u2500   \ufe3b\u2566\u2564\u2500\u2500   \ufe3b\u2566\u2564\u2500\u2500   \ufe3b\u2566\u2564\u2500\u2500
p1138
sg49
V333333
p1139
sg51
Ven-gb
p1140
sg53
VLondon
p1141
sg55
I4552
sg56
I25702
sg22
VSat Mar 09 23:39:32 +0000 2013
p1142
sg58
I00
sg59
VPatriot, Army Veteran from 40 yrs ago, love my rescued dogs, rifles, pistols, and freedom. God Bless all US Armed Forces, Active,Vets,& Deceased. #NRA #PJNET
p1143
sg61
Vhttps://pbs.twimg.com/profile_images/542439961106997251/Qt0kA7_R_normal.jpeg
p1144
sg63
I4549
sg64
I8473
sg65
I0
sg66
Nsg67
I00
sg68
Vhttps://pbs.twimg.com/profile_banners/1255621518/1418165233
p1145
sg70
I00
sg71
I00
sg72
VBD1C1C
p1146
sg74
I00
sg75
I00
sg76
Vhttp://abs.twimg.com/images/themes/theme1/bg.png
p1147
sg78
Vcheapcigar
p1148
sg80
I85
sg81
VSublimin_Al
p1149
sg83
VDDEEF6
p1150
sg85
Vhttp://t.co/mFeQgMWOgQ
p1151
sg87
I1255621518
sg88
VC0DEED
p1152
sbsg90
I2
sg91
V<a href="http://twitter.com/download/iphone" rel="nofollow">Twitter for iPhone</a>
p1153
sg93
(lp1154
sg87
I543701572300337152
sbag3
(g4
g5
Ntp1155
Rp1156
(dp1157
g9
I0
sg10
Nsg11
Nsg12
(lp1158
sg14
I00
sg15
g3
(g4
g5
Ntp1159
Rp1160
(dp1161
g9
I2
sg10
Nsg11
Nsg12
(lp1162
sg14
I00
sg15
Nsg16
Nsg17
(lp1163
sg19
Nsg20
Nsg21
Nsg22
VFri Dec 12 20:17:13 +0000 2014
p1164
sg24
Nsg25
Nsg26
VQueen_V1216
p1165
sg27
Nsg28
I265645992
sg29
Nsg30
I00
sg31
Nsg32
(lp1166
g3
(g44
g5
Ntp1167
Rp1168
(dp1169
g10
Nsg49
Nsg51
Nsg53
Nsg55
Nsg56
Nsg22
Nsg58
Nsg59
Nsg61
Nsg63
Nsg64
Nsg65
Nsg66
Nsg67
Nsg68
Nsg70
Nsg71
Nsg72
Nsg74
Nsg75
Nsg76
Nsg78
VQueen_V1216
p1170
sg80
Nsg81
VVickie Barnachea
p1171
sg83
Nsg85
Nsg87
I265645992
sg88
Nsbag3
(g44
g5
Ntp1172
Rp1173
(dp1174
g10
Nsg49
Nsg51
Nsg53
Nsg55
Nsg56
Nsg22
Nsg58
Nsg59
Nsg61
Nsg63
Nsg64
Nsg65
Nsg66
Nsg67
Nsg68
Nsg70
Nsg71
Nsg72
Nsg74
Nsg75
Nsg76
Nsg78
Vgatman7
p1175
sg80
Nsg81
VGeorge Thompson
p1176
sg83
Nsg85
Nsg87
I36681617
sg88
Nsbag3
(g44
g5
Ntp1177
Rp1178
(dp1179
g10
Nsg49
Nsg51
Nsg53
Nsg55
Nsg56
Nsg22
Nsg58
Nsg59
Nsg61
Nsg63
Nsg64
Nsg65
Nsg66
Nsg67
Nsg68
Nsg70
Nsg71
Nsg72
Nsg74
Nsg75
Nsg76
Nsg78
VGenesSmile
p1180
sg80
Nsg81
VKrissy Chase
p1181
sg83
Nsg85
Nsg87
I74827928
sg88
Nsbag3
(g44
g5
Ntp1182
Rp1183
(dp1184
g10
Nsg49
Nsg51
Nsg53
Nsg55
Nsg56
Nsg22
Nsg58
Nsg59
Nsg61
Nsg63
Nsg64
Nsg65
Nsg66
Nsg67
Nsg68
Nsg70
Nsg71
Nsg72
Nsg74
Nsg75
Nsg76
Nsg78
VGreen_Star1
p1185
sg80
Nsg81
VRalph E McCrum
p1186
sg83
Nsg85
Nsg87
I53590352
sg88
Nsbag3
(g44
g5
Ntp1187
Rp1188
(dp1189
g10
Nsg49
Nsg51
Nsg53
Nsg55
Nsg56
Nsg22
Nsg58
Nsg59
Nsg61
Nsg63
Nsg64
Nsg65
Nsg66
Nsg67
Nsg68
Nsg70
Nsg71
Nsg72
Nsg74
Nsg75
Nsg76
Nsg78
VShaunTrades
p1190
sg80
Nsg81
VMoney Talks
p1191
sg83
Nsg85
Nsg87
I213315220
sg88
Nsbag3
(g44
g5
Ntp1192
Rp1193
(dp1194
g10
Nsg49
Nsg51
Nsg53
Nsg55
Nsg56
Nsg22
Nsg58
Nsg59
Nsg61
Nsg63
Nsg64
Nsg65
Nsg66
Nsg67
Nsg68
Nsg70
Nsg71
Nsg72
Nsg74
Nsg75
Nsg76
Nsg78
Vcheapcigar
p1195
sg80
Nsg81
VSublimin_Al
p1196
sg83
Nsg85
Nsg87
I1255621518
sg88
Nsbag3
(g44
g5
Ntp1197
Rp1198
(dp1199
g10
Nsg49
Nsg51
Nsg53
Nsg55
Nsg56
Nsg22
Nsg58
Nsg59
Nsg61
Nsg63
Nsg64
Nsg65
Nsg66
Nsg67
Nsg68
Nsg70
Nsg71
Nsg72
Nsg74
Nsg75
Nsg76
Nsg78
Vtexasflutegal
p1200
sg80
Nsg81
VJeannette Burleigh
p1201
sg83
Nsg85
Nsg87
I156791542
sg88
Nsbag3
(g44
g5
Ntp1202
Rp1203
(dp1204
g10
Nsg49
Nsg51
Nsg53
Nsg55
Nsg56
Nsg22
Nsg58
Nsg59
Nsg61
Nsg63
Nsg64
Nsg65
Nsg66
Nsg67
Nsg68
Nsg70
Nsg71
Nsg72
Nsg74
Nsg75
Nsg76
Nsg78
VSuperman6869
p1205
sg80
Nsg81
VSuperman
p1206
sg83
Nsg85
Nsg87
I137820750
sg88
Nsbag3
(g44
g5
Ntp1207
Rp1208
(dp1209
g10
Nsg49
Nsg51
Nsg53
Nsg55
Nsg56
Nsg22
Nsg58
Nsg59
Nsg61
Nsg63
Nsg64
Nsg65
Nsg66
Nsg67
Nsg68
Nsg70
Nsg71
Nsg72
Nsg74
Nsg75
Nsg76
Nsg78
VTrickerKeeTs
p1210
sg80
Nsg81
VTricker KeeTs
p1211
sg83
Nsg85
Nsg87
I2738347879
sg88
Nsbag3
(g44
g5
Ntp1212
Rp1213
(dp1214
g10
Nsg49
Nsg51
Nsg53
Nsg55
Nsg56
Nsg22
Nsg58
Nsg59
Nsg61
Nsg63
Nsg64
Nsg65
Nsg66
Nsg67
Nsg68
Nsg70
Nsg71
Nsg72
Nsg74
Nsg75
Nsg76
Nsg78
Vyrwol7
p1215
sg80
Nsg81
VColleen White 
p1216
sg83
Nsg85
Nsg87
I412776430
sg88
Nsbag3
(g44
g5
Ntp1217
Rp1218
(dp1219
g10
Nsg49
Nsg51
Nsg53
Nsg55
Nsg56
Nsg22
Nsg58
Nsg59
Nsg61
Nsg63
Nsg64
Nsg65
Nsg66
Nsg67
Nsg68
Nsg70
Nsg71
Nsg72
Nsg74
Nsg75
Nsg76
Nsg78
VDaggy1
p1220
sg80
Nsg81
VDagwood Bumstead
p1221
sg83
Nsg85
Nsg87
I24305174
sg88
Nsbasg34
Nsg35
V543499838508527617
p1222
sg37
I543498778599510016
sg38
VGD ALL\U0001f64b@Queen_V1216 @gatman7 @GenesSmile @Green_Star1 @ShaunTrades @cheapcigar @texasflutegal @Superman6869 @TrickerKeeTs @yrwol7 @Daggy1
p1223
sg40
I00
sg41
Vht
p1224
sg43
g3
(g44
g5
Ntp1225
Rp1226
(dp1227
g10
g878
sg49
V333333
p1228
sg51
Ven
p1229
sg53
Nsg55
I1713
sg56
I11096
sg22
VThu Oct 17 21:49:00 +0000 2013
p1230
sg58
I00
sg59
VBusiness Owner  #Conservative  #Christian  #PJNet  #UPPUSA  #CCOT  #Patriot   #RedStateRising  #2ndAmmendment  #NRA  #TeaParty  #ObamaMustBeStopped  #OiP
p1231
sg61
Vhttps://pbs.twimg.com/profile_images/539840189896462338/WuEZESSI_normal.png
p1232
sg63
I1933
sg64
I10181
sg65
Nsg66
Nsg67
I00
sg68
Vhttps://pbs.twimg.com/profile_banners/719756991/1399995507
p1233
sg70
I00
sg71
I00
sg72
V0084B4
p1234
sg74
I00
sg75
I00
sg76
Vhttp://abs.twimg.com/images/themes/theme1/bg.png
p1235
sg78
VWANAGL
p1236
sg80
I21
sg81
VWANAGL #OiP 
p1237
sg83
VDDEEF6
p1238
sg85
Nsg87
I719756991
sg88
VC0DEED
p1239
sbsg90
I1
sg91
V<a href="https://twitter.com/download/android" rel="nofollow">Twitter for Android Tablets</a>
p1240
sg93
(lp1241
sg87
I543499838508527617
sbsg16
Nsg17
(lp1242
sg19
Nsg20
Nsg21
Nsg22
VSat Dec 13 09:38:47 +0000 2014
p1243
sg24
Nsg25
Nsg26
Nsg27
Nsg28
Nsg29
Nsg30
I00
sg31
Nsg32
(lp1244
g3
(g44
g5
Ntp1245
Rp1246
(dp1247
g10
Nsg49
Nsg51
Nsg53
Nsg55
Nsg56
Nsg22
Nsg58
Nsg59
Nsg61
Nsg63
Nsg64
Nsg65
Nsg66
Nsg67
Nsg68
Nsg70
Nsg71
Nsg72
Nsg74
Nsg75
Nsg76
Nsg78
VWANAGL
p1248
sg80
Nsg81
VWANAGL #OiP 
p1249
sg83
Nsg85
Nsg87
I719756991
sg88
Nsbag3
(g44
g5
Ntp1250
Rp1251
(dp1252
g10
Nsg49
Nsg51
Nsg53
Nsg55
Nsg56
Nsg22
Nsg58
Nsg59
Nsg61
Nsg63
Nsg64
Nsg65
Nsg66
Nsg67
Nsg68
Nsg70
Nsg71
Nsg72
Nsg74
Nsg75
Nsg76
Nsg78
VQueen_V1216
p1253
sg80
Nsg81
VVickie Barnachea
p1254
sg83
Nsg85
Nsg87
I265645992
sg88
Nsbag3
(g44
g5
Ntp1255
Rp1256
(dp1257
g10
Nsg49
Nsg51
Nsg53
Nsg55
Nsg56
Nsg22
Nsg58
Nsg59
Nsg61
Nsg63
Nsg64
Nsg65
Nsg66
Nsg67
Nsg68
Nsg70
Nsg71
Nsg72
Nsg74
Nsg75
Nsg76
Nsg78
Vgatman7
p1258
sg80
Nsg81
VGeorge Thompson
p1259
sg83
Nsg85
Nsg87
I36681617
sg88
Nsbag3
(g44
g5
Ntp1260
Rp1261
(dp1262
g10
Nsg49
Nsg51
Nsg53
Nsg55
Nsg56
Nsg22
Nsg58
Nsg59
Nsg61
Nsg63
Nsg64
Nsg65
Nsg66
Nsg67
Nsg68
Nsg70
Nsg71
Nsg72
Nsg74
Nsg75
Nsg76
Nsg78
VGenesSmile
p1263
sg80
Nsg81
VKrissy Chase
p1264
sg83
Nsg85
Nsg87
I74827928
sg88
Nsbag3
(g44
g5
Ntp1265
Rp1266
(dp1267
g10
Nsg49
Nsg51
Nsg53
Nsg55
Nsg56
Nsg22
Nsg58
Nsg59
Nsg61
Nsg63
Nsg64
Nsg65
Nsg66
Nsg67
Nsg68
Nsg70
Nsg71
Nsg72
Nsg74
Nsg75
Nsg76
Nsg78
VGreen_Star1
p1268
sg80
Nsg81
VRalph E McCrum
p1269
sg83
Nsg85
Nsg87
I53590352
sg88
Nsbag3
(g44
g5
Ntp1270
Rp1271
(dp1272
g10
Nsg49
Nsg51
Nsg53
Nsg55
Nsg56
Nsg22
Nsg58
Nsg59
Nsg61
Nsg63
Nsg64
Nsg65
Nsg66
Nsg67
Nsg68
Nsg70
Nsg71
Nsg72
Nsg74
Nsg75
Nsg76
Nsg78
VShaunTrades
p1273
sg80
Nsg81
VMoney Talks
p1274
sg83
Nsg85
Nsg87
I213315220
sg88
Nsbag3
(g44
g5
Ntp1275
Rp1276
(dp1277
g10
Nsg49
Nsg51
Nsg53
Nsg55
Nsg56
Nsg22
Nsg58
Nsg59
Nsg61
Nsg63
Nsg64
Nsg65
Nsg66
Nsg67
Nsg68
Nsg70
Nsg71
Nsg72
Nsg74
Nsg75
Nsg76
Nsg78
Vcheapcigar
p1278
sg80
Nsg81
VSublimin_Al
p1279
sg83
Nsg85
Nsg87
I1255621518
sg88
Nsbag3
(g44
g5
Ntp1280
Rp1281
(dp1282
g10
Nsg49
Nsg51
Nsg53
Nsg55
Nsg56
Nsg22
Nsg58
Nsg59
Nsg61
Nsg63
Nsg64
Nsg65
Nsg66
Nsg67
Nsg68
Nsg70
Nsg71
Nsg72
Nsg74
Nsg75
Nsg76
Nsg78
Vtexasflutegal
p1283
sg80
Nsg81
VJeannette Burleigh
p1284
sg83
Nsg85
Nsg87
I156791542
sg88
Nsbag3
(g44
g5
Ntp1285
Rp1286
(dp1287
g10
Nsg49
Nsg51
Nsg53
Nsg55
Nsg56
Nsg22
Nsg58
Nsg59
Nsg61
Nsg63
Nsg64
Nsg65
Nsg66
Nsg67
Nsg68
Nsg70
Nsg71
Nsg72
Nsg74
Nsg75
Nsg76
Nsg78
VSuperman6869
p1288
sg80
Nsg81
VSuperman
p1289
sg83
Nsg85
Nsg87
I137820750
sg88
Nsbag3
(g44
g5
Ntp1290
Rp1291
(dp1292
g10
Nsg49
Nsg51
Nsg53
Nsg55
Nsg56
Nsg22
Nsg58
Nsg59
Nsg61
Nsg63
Nsg64
Nsg65
Nsg66
Nsg67
Nsg68
Nsg70
Nsg71
Nsg72
Nsg74
Nsg75
Nsg76
Nsg78
VTrickerKeeTs
p1293
sg80
Nsg81
VTricker KeeTs
p1294
sg83
Nsg85
Nsg87
I2738347879
sg88
Nsbag3
(g44
g5
Ntp1295
Rp1296
(dp1297
g10
Nsg49
Nsg51
Nsg53
Nsg55
Nsg56
Nsg22
Nsg58
Nsg59
Nsg61
Nsg63
Nsg64
Nsg65
Nsg66
Nsg67
Nsg68
Nsg70
Nsg71
Nsg72
Nsg74
Nsg75
Nsg76
Nsg78
Vyrwol7
p1298
sg80
Nsg81
VColleen White 
p1299
sg83
Nsg85
Nsg87
I412776430
sg88
Nsbag3
(g44
g5
Ntp1300
Rp1301
(dp1302
g10
Nsg49
Nsg51
Nsg53
Nsg55
Nsg56
Nsg22
Nsg58
Nsg59
Nsg61
Nsg63
Nsg64
Nsg65
Nsg66
Nsg67
Nsg68
Nsg70
Nsg71
Nsg72
Nsg74
Nsg75
Nsg76
Nsg78
VDaggy1
p1303
sg80
Nsg81
VDagwood Bumstead
p1304
sg83
Nsg85
Nsg87
I24305174
sg88
Nsbasg34
Nsg35
V543701559444779008
p1305
sg37
Nsg38
VRT @WANAGL: GD ALL\U0001f64b@Queen_V1216 @gatman7 @GenesSmile @Green_Star1 @ShaunTrades @cheapcigar @texasflutegal @Superman6869 @TrickerKeeTs @yrwo\u2026
p1306
sg40
I00
sg41
Vht
p1307
sg43
g3
(g44
g5
Ntp1308
Rp1309
(dp1310
g10
V \ufe3b\u2566\u2564\u2500\u2500   \ufe3b\u2566\u2564\u2500\u2500   \ufe3b\u2566\u2564\u2500\u2500   \ufe3b\u2566\u2564\u2500\u2500
p1311
sg49
V333333
p1312
sg51
Ven-gb
p1313
sg53
VLondon
p1314
sg55
I4552
sg56
I25702
sg22
VSat Mar 09 23:39:32 +0000 2013
p1315
sg58
I00
sg59
VPatriot, Army Veteran from 40 yrs ago, love my rescued dogs, rifles, pistols, and freedom. God Bless all US Armed Forces, Active,Vets,& Deceased. #NRA #PJNET
p1316
sg61
Vhttps://pbs.twimg.com/profile_images/542439961106997251/Qt0kA7_R_normal.jpeg
p1317
sg63
I4549
sg64
I8473
sg65
I0
sg66
Nsg67
I00
sg68
Vhttps://pbs.twimg.com/profile_banners/1255621518/1418165233
p1318
sg70
I00
sg71
I00
sg72
VBD1C1C
p1319
sg74
I00
sg75
I00
sg76
Vhttp://abs.twimg.com/images/themes/theme1/bg.png
p1320
sg78
Vcheapcigar
p1321
sg80
I85
sg81
VSublimin_Al
p1322
sg83
VDDEEF6
p1323
sg85
Vhttp://t.co/mFeQgMWOgQ
p1324
sg87
I1255621518
sg88
VC0DEED
p1325
sbsg90
I1
sg91
V<a href="http://twitter.com/download/iphone" rel="nofollow">Twitter for iPhone</a>
p1326
sg93
(lp1327
sg87
I543701559444779008
sbag3
(g4
g5
Ntp1328
Rp1329
(dp1330
g9
I0
sg10
Nsg11
Nsg12
(lp1331
g3
(g615
g5
Ntp1332
Rp1333
(dp1334
g619
VFF
p1335
sbasg14
I00
sg15
g3
(g4
g5
Ntp1336
Rp1337
(dp1338
g9
I4
sg10
Nsg11
Nsg12
(lp1339
g3
(g615
g5
Ntp1340
Rp1341
(dp1342
g619
VFF
p1343
sbasg14
I00
sg15
Nsg16
Nsg17
(lp1344
sg19
Nsg20
Nsg21
Nsg22
VFri Dec 12 22:18:41 +0000 2014
p1345
sg24
Nsg25
Nsg26
VWANAGL
p1346
sg27
Nsg28
I719756991
sg29
Nsg30
I00
sg31
Nsg32
(lp1347
g3
(g44
g5
Ntp1348
Rp1349
(dp1350
g10
Nsg49
Nsg51
Nsg53
Nsg55
Nsg56
Nsg22
Nsg58
Nsg59
Nsg61
Nsg63
Nsg64
Nsg65
Nsg66
Nsg67
Nsg68
Nsg70
Nsg71
Nsg72
Nsg74
Nsg75
Nsg76
Nsg78
VWANAGL
p1351
sg80
Nsg81
VWANAGL #OiP 
p1352
sg83
Nsg85
Nsg87
I719756991
sg88
Nsbag3
(g44
g5
Ntp1353
Rp1354
(dp1355
g10
Nsg49
Nsg51
Nsg53
Nsg55
Nsg56
Nsg22
Nsg58
Nsg59
Nsg61
Nsg63
Nsg64
Nsg65
Nsg66
Nsg67
Nsg68
Nsg70
Nsg71
Nsg72
Nsg74
Nsg75
Nsg76
Nsg78
Vgatman7
p1356
sg80
Nsg81
VGeorge Thompson
p1357
sg83
Nsg85
Nsg87
I36681617
sg88
Nsbag3
(g44
g5
Ntp1358
Rp1359
(dp1360
g10
Nsg49
Nsg51
Nsg53
Nsg55
Nsg56
Nsg22
Nsg58
Nsg59
Nsg61
Nsg63
Nsg64
Nsg65
Nsg66
Nsg67
Nsg68
Nsg70
Nsg71
Nsg72
Nsg74
Nsg75
Nsg76
Nsg78
VGenesSmile
p1361
sg80
Nsg81
VKrissy Chase
p1362
sg83
Nsg85
Nsg87
I74827928
sg88
Nsbag3
(g44
g5
Ntp1363
Rp1364
(dp1365
g10
Nsg49
Nsg51
Nsg53
Nsg55
Nsg56
Nsg22
Nsg58
Nsg59
Nsg61
Nsg63
Nsg64
Nsg65
Nsg66
Nsg67
Nsg68
Nsg70
Nsg71
Nsg72
Nsg74
Nsg75
Nsg76
Nsg78
VGreen_Star1
p1366
sg80
Nsg81
VRalph E McCrum
p1367
sg83
Nsg85
Nsg87
I53590352
sg88
Nsbag3
(g44
g5
Ntp1368
Rp1369
(dp1370
g10
Nsg49
Nsg51
Nsg53
Nsg55
Nsg56
Nsg22
Nsg58
Nsg59
Nsg61
Nsg63
Nsg64
Nsg65
Nsg66
Nsg67
Nsg68
Nsg70
Nsg71
Nsg72
Nsg74
Nsg75
Nsg76
Nsg78
VShaunTrades
p1371
sg80
Nsg81
VMoney Talks
p1372
sg83
Nsg85
Nsg87
I213315220
sg88
Nsbag3
(g44
g5
Ntp1373
Rp1374
(dp1375
g10
Nsg49
Nsg51
Nsg53
Nsg55
Nsg56
Nsg22
Nsg58
Nsg59
Nsg61
Nsg63
Nsg64
Nsg65
Nsg66
Nsg67
Nsg68
Nsg70
Nsg71
Nsg72
Nsg74
Nsg75
Nsg76
Nsg78
Vcheapcigar
p1376
sg80
Nsg81
VSublimin_Al
p1377
sg83
Nsg85
Nsg87
I1255621518
sg88
Nsbag3
(g44
g5
Ntp1378
Rp1379
(dp1380
g10
Nsg49
Nsg51
Nsg53
Nsg55
Nsg56
Nsg22
Nsg58
Nsg59
Nsg61
Nsg63
Nsg64
Nsg65
Nsg66
Nsg67
Nsg68
Nsg70
Nsg71
Nsg72
Nsg74
Nsg75
Nsg76
Nsg78
VSuperman6869
p1381
sg80
Nsg81
VSuperman
p1382
sg83
Nsg85
Nsg87
I137820750
sg88
Nsbag3
(g44
g5
Ntp1383
Rp1384
(dp1385
g10
Nsg49
Nsg51
Nsg53
Nsg55
Nsg56
Nsg22
Nsg58
Nsg59
Nsg61
Nsg63
Nsg64
Nsg65
Nsg66
Nsg67
Nsg68
Nsg70
Nsg71
Nsg72
Nsg74
Nsg75
Nsg76
Nsg78
VQueen_V1216
p1386
sg80
Nsg81
VVickie Barnachea
p1387
sg83
Nsg85
Nsg87
I265645992
sg88
Nsbag3
(g44
g5
Ntp1388
Rp1389
(dp1390
g10
Nsg49
Nsg51
Nsg53
Nsg55
Nsg56
Nsg22
Nsg58
Nsg59
Nsg61
Nsg63
Nsg64
Nsg65
Nsg66
Nsg67
Nsg68
Nsg70
Nsg71
Nsg72
Nsg74
Nsg75
Nsg76
Nsg78
VTrickerKeeTs
p1391
sg80
Nsg81
VTricker KeeTs
p1392
sg83
Nsg85
Nsg87
I2738347879
sg88
Nsbag3
(g44
g5
Ntp1393
Rp1394
(dp1395
g10
Nsg49
Nsg51
Nsg53
Nsg55
Nsg56
Nsg22
Nsg58
Nsg59
Nsg61
Nsg63
Nsg64
Nsg65
Nsg66
Nsg67
Nsg68
Nsg70
Nsg71
Nsg72
Nsg74
Nsg75
Nsg76
Nsg78
Vyrwol7
p1396
sg80
Nsg81
VColleen White 
p1397
sg83
Nsg85
Nsg87
I412776430
sg88
Nsbag3
(g44
g5
Ntp1398
Rp1399
(dp1400
g10
Nsg49
Nsg51
Nsg53
Nsg55
Nsg56
Nsg22
Nsg58
Nsg59
Nsg61
Nsg63
Nsg64
Nsg65
Nsg66
Nsg67
Nsg68
Nsg70
Nsg71
Nsg72
Nsg74
Nsg75
Nsg76
Nsg78
VDaggy1
p1401
sg80
Nsg81
VDagwood Bumstead
p1402
sg83
Nsg85
Nsg87
I24305174
sg88
Nsbasg34
Nsg35
V543530404322369536
p1403
sg37
I543495664488165376
sg38
V@WANAGL TY4 the #FF!  @gatman7 @GenesSmile @Green_Star1 @ShaunTrades @cheapcigar @Superman6869 @Queen_V1216 @TrickerKeeTs @yrwol7 @Daggy1
p1404
sg40
I00
sg41
Ven
p1405
sg43
g3
(g44
g5
Ntp1406
Rp1407
(dp1408
g10
VSan Marcos,Texas 
p1409
sg49
V08080A
p1410
sg51
Ven
p1411
sg53
VHawaii
p1412
sg55
I6517
sg56
I86404
sg22
VThu Jun 17 23:29:49 +0000 2010
p1413
sg58
I00
sg59
VI am a person who believes that you are never too old to dream new dreams or start new adventures.
p1414
sg61
Vhttps://pbs.twimg.com/profile_images/378800000122231557/ffdceb48670d7c65848b2cc6332fb70a_normal.jpeg
p1415
sg63
I6519
sg64
I1590
sg65
I-36000
sg66
Nsg67
I00
sg68
Vhttps://pbs.twimg.com/profile_banners/156791542/1364787552
p1416
sg70
I00
sg71
I01
sg72
V0A0102
p1417
sg74
I01
sg75
I00
sg76
Vhttp://pbs.twimg.com/profile_background_images/113477541/heart3.bmp
p1418
sg78
Vtexasflutegal
p1419
sg80
I313
sg81
VJeannette Burleigh
p1420
sg83
V7A6A53
p1421
sg85
Vhttp://t.co/TUOs8Hwadj
p1422
sg87
I156791542
sg88
VD9CEB2
p1423
sbsg90
I1
sg91
V<a href="http://twitter.com/download/iphone" rel="nofollow">Twitter for iPhone</a>
p1424
sg93
(lp1425
sg87
I543530404322369536
sbsg16
Nsg17
(lp1426
sg19
Nsg20
Nsg21
Nsg22
VSat Dec 13 09:38:43 +0000 2014
p1427
sg24
Nsg25
Nsg26
Nsg27
Nsg28
Nsg29
Nsg30
I00
sg31
Nsg32
(lp1428
g3
(g44
g5
Ntp1429
Rp1430
(dp1431
g10
Nsg49
Nsg51
Nsg53
Nsg55
Nsg56
Nsg22
Nsg58
Nsg59
Nsg61
Nsg63
Nsg64
Nsg65
Nsg66
Nsg67
Nsg68
Nsg70
Nsg71
Nsg72
Nsg74
Nsg75
Nsg76
Nsg78
Vtexasflutegal
p1432
sg80
Nsg81
VJeannette Burleigh
p1433
sg83
Nsg85
Nsg87
I156791542
sg88
Nsbag3
(g44
g5
Ntp1434
Rp1435
(dp1436
g10
Nsg49
Nsg51
Nsg53
Nsg55
Nsg56
Nsg22
Nsg58
Nsg59
Nsg61
Nsg63
Nsg64
Nsg65
Nsg66
Nsg67
Nsg68
Nsg70
Nsg71
Nsg72
Nsg74
Nsg75
Nsg76
Nsg78
VWANAGL
p1437
sg80
Nsg81
VWANAGL #OiP 
p1438
sg83
Nsg85
Nsg87
I719756991
sg88
Nsbag3
(g44
g5
Ntp1439
Rp1440
(dp1441
g10
Nsg49
Nsg51
Nsg53
Nsg55
Nsg56
Nsg22
Nsg58
Nsg59
Nsg61
Nsg63
Nsg64
Nsg65
Nsg66
Nsg67
Nsg68
Nsg70
Nsg71
Nsg72
Nsg74
Nsg75
Nsg76
Nsg78
Vgatman7
p1442
sg80
Nsg81
VGeorge Thompson
p1443
sg83
Nsg85
Nsg87
I36681617
sg88
Nsbag3
(g44
g5
Ntp1444
Rp1445
(dp1446
g10
Nsg49
Nsg51
Nsg53
Nsg55
Nsg56
Nsg22
Nsg58
Nsg59
Nsg61
Nsg63
Nsg64
Nsg65
Nsg66
Nsg67
Nsg68
Nsg70
Nsg71
Nsg72
Nsg74
Nsg75
Nsg76
Nsg78
VGenesSmile
p1447
sg80
Nsg81
VKrissy Chase
p1448
sg83
Nsg85
Nsg87
I74827928
sg88
Nsbag3
(g44
g5
Ntp1449
Rp1450
(dp1451
g10
Nsg49
Nsg51
Nsg53
Nsg55
Nsg56
Nsg22
Nsg58
Nsg59
Nsg61
Nsg63
Nsg64
Nsg65
Nsg66
Nsg67
Nsg68
Nsg70
Nsg71
Nsg72
Nsg74
Nsg75
Nsg76
Nsg78
VGreen_Star1
p1452
sg80
Nsg81
VRalph E McCrum
p1453
sg83
Nsg85
Nsg87
I53590352
sg88
Nsbag3
(g44
g5
Ntp1454
Rp1455
(dp1456
g10
Nsg49
Nsg51
Nsg53
Nsg55
Nsg56
Nsg22
Nsg58
Nsg59
Nsg61
Nsg63
Nsg64
Nsg65
Nsg66
Nsg67
Nsg68
Nsg70
Nsg71
Nsg72
Nsg74
Nsg75
Nsg76
Nsg78
VShaunTrades
p1457
sg80
Nsg81
VMoney Talks
p1458
sg83
Nsg85
Nsg87
I213315220
sg88
Nsbag3
(g44
g5
Ntp1459
Rp1460
(dp1461
g10
Nsg49
Nsg51
Nsg53
Nsg55
Nsg56
Nsg22
Nsg58
Nsg59
Nsg61
Nsg63
Nsg64
Nsg65
Nsg66
Nsg67
Nsg68
Nsg70
Nsg71
Nsg72
Nsg74
Nsg75
Nsg76
Nsg78
Vcheapcigar
p1462
sg80
Nsg81
VSublimin_Al
p1463
sg83
Nsg85
Nsg87
I1255621518
sg88
Nsbag3
(g44
g5
Ntp1464
Rp1465
(dp1466
g10
Nsg49
Nsg51
Nsg53
Nsg55
Nsg56
Nsg22
Nsg58
Nsg59
Nsg61
Nsg63
Nsg64
Nsg65
Nsg66
Nsg67
Nsg68
Nsg70
Nsg71
Nsg72
Nsg74
Nsg75
Nsg76
Nsg78
VSuperman6869
p1467
sg80
Nsg81
VSuperman
p1468
sg83
Nsg85
Nsg87
I137820750
sg88
Nsbag3
(g44
g5
Ntp1469
Rp1470
(dp1471
g10
Nsg49
Nsg51
Nsg53
Nsg55
Nsg56
Nsg22
Nsg58
Nsg59
Nsg61
Nsg63
Nsg64
Nsg65
Nsg66
Nsg67
Nsg68
Nsg70
Nsg71
Nsg72
Nsg74
Nsg75
Nsg76
Nsg78
VQueen_V1216
p1472
sg80
Nsg81
VVickie Barnachea
p1473
sg83
Nsg85
Nsg87
I265645992
sg88
Nsbag3
(g44
g5
Ntp1474
Rp1475
(dp1476
g10
Nsg49
Nsg51
Nsg53
Nsg55
Nsg56
Nsg22
Nsg58
Nsg59
Nsg61
Nsg63
Nsg64
Nsg65
Nsg66
Nsg67
Nsg68
Nsg70
Nsg71
Nsg72
Nsg74
Nsg75
Nsg76
Nsg78
VTrickerKeeTs
p1477
sg80
Nsg81
VTricker KeeTs
p1478
sg83
Nsg85
Nsg87
I2738347879
sg88
Nsbag3
(g44
g5
Ntp1479
Rp1480
(dp1481
g10
Nsg49
Nsg51
Nsg53
Nsg55
Nsg56
Nsg22
Nsg58
Nsg59
Nsg61
Nsg63
Nsg64
Nsg65
Nsg66
Nsg67
Nsg68
Nsg70
Nsg71
Nsg72
Nsg74
Nsg75
Nsg76
Nsg78
Vyrwol7
p1482
sg80
Nsg81
VColleen White 
p1483
sg83
Nsg85
Nsg87
I412776430
sg88
Nsbag3
(g44
g5
Ntp1484
Rp1485
(dp1486
g10
Nsg49
Nsg51
Nsg53
Nsg55
Nsg56
Nsg22
Nsg58
Nsg59
Nsg61
Nsg63
Nsg64
Nsg65
Nsg66
Nsg67
Nsg68
Nsg70
Nsg71
Nsg72
Nsg74
Nsg75
Nsg76
Nsg78
VDaggy1
p1487
sg80
Nsg81
VDagwood Bumstead
p1488
sg83
Nsg85
Nsg87
I24305174
sg88
Nsbasg34
Nsg35
V543701542260736000
p1489
sg37
Nsg38
VRT @texasflutegal: @WANAGL TY4 the #FF!  @gatman7 @GenesSmile @Green_Star1 @ShaunTrades @cheapcigar @Superman6869 @Queen_V1216 @TrickerKeeT\u2026
p1490
sg40
I00
sg41
Ven
p1491
sg43
g3
(g44
g5
Ntp1492
Rp1493
(dp1494
g10
V \ufe3b\u2566\u2564\u2500\u2500   \ufe3b\u2566\u2564\u2500\u2500   \ufe3b\u2566\u2564\u2500\u2500   \ufe3b\u2566\u2564\u2500\u2500
p1495
sg49
V333333
p1496
sg51
Ven-gb
p1497
sg53
VLondon
p1498
sg55
I4552
sg56
I25702
sg22
VSat Mar 09 23:39:32 +0000 2013
p1499
sg58
I00
sg59
VPatriot, Army Veteran from 40 yrs ago, love my rescued dogs, rifles, pistols, and freedom. God Bless all US Armed Forces, Active,Vets,& Deceased. #NRA #PJNET
p1500
sg61
Vhttps://pbs.twimg.com/profile_images/542439961106997251/Qt0kA7_R_normal.jpeg
p1501
sg63
I4549
sg64
I8473
sg65
I0
sg66
Nsg67
I00
sg68
Vhttps://pbs.twimg.com/profile_banners/1255621518/1418165233
p1502
sg70
I00
sg71
I00
sg72
VBD1C1C
p1503
sg74
I00
sg75
I00
sg76
Vhttp://abs.twimg.com/images/themes/theme1/bg.png
p1504
sg78
Vcheapcigar
p1505
sg80
I85
sg81
VSublimin_Al
p1506
sg83
VDDEEF6
p1507
sg85
Vhttp://t.co/mFeQgMWOgQ
p1508
sg87
I1255621518
sg88
VC0DEED
p1509
sbsg90
I1
sg91
V<a href="http://twitter.com/download/iphone" rel="nofollow">Twitter for iPhone</a>
p1510
sg93
(lp1511
sg87
I543701542260736000
sbag3
(g4
g5
Ntp1512
Rp1513
(dp1514
g9
I0
sg10
Nsg11
Nsg12
(lp1515
g3
(g615
g5
Ntp1516
Rp1517
(dp1518
g619
VFF
p1519
sbasg14
I00
sg15
g3
(g4
g5
Ntp1520
Rp1521
(dp1522
g9
I2
sg10
Nsg11
Nsg12
(lp1523
g3
(g615
g5
Ntp1524
Rp1525
(dp1526
g619
VFF
p1527
sbasg14
I00
sg15
Nsg16
Nsg17
(lp1528
sg19
Nsg20
Nsg21
Nsg22
VFri Dec 12 23:21:29 +0000 2014
p1529
sg24
Nsg25
Nsg26
Nsg27
Nsg28
Nsg29
Nsg30
I00
sg31
Nsg32
(lp1530
g3
(g44
g5
Ntp1531
Rp1532
(dp1533
g10
Nsg49
Nsg51
Nsg53
Nsg55
Nsg56
Nsg22
Nsg58
Nsg59
Nsg61
Nsg63
Nsg64
Nsg65
Nsg66
Nsg67
Nsg68
Nsg70
Nsg71
Nsg72
Nsg74
Nsg75
Nsg76
Nsg78
Vgatman7
p1534
sg80
Nsg81
VGeorge Thompson
p1535
sg83
Nsg85
Nsg87
I36681617
sg88
Nsbag3
(g44
g5
Ntp1536
Rp1537
(dp1538
g10
Nsg49
Nsg51
Nsg53
Nsg55
Nsg56
Nsg22
Nsg58
Nsg59
Nsg61
Nsg63
Nsg64
Nsg65
Nsg66
Nsg67
Nsg68
Nsg70
Nsg71
Nsg72
Nsg74
Nsg75
Nsg76
Nsg78
VGenesSmile
p1539
sg80
Nsg81
VKrissy Chase
p1540
sg83
Nsg85
Nsg87
I74827928
sg88
Nsbag3
(g44
g5
Ntp1541
Rp1542
(dp1543
g10
Nsg49
Nsg51
Nsg53
Nsg55
Nsg56
Nsg22
Nsg58
Nsg59
Nsg61
Nsg63
Nsg64
Nsg65
Nsg66
Nsg67
Nsg68
Nsg70
Nsg71
Nsg72
Nsg74
Nsg75
Nsg76
Nsg78
VGreen_Star1
p1544
sg80
Nsg81
VRalph E McCrum
p1545
sg83
Nsg85
Nsg87
I53590352
sg88
Nsbag3
(g44
g5
Ntp1546
Rp1547
(dp1548
g10
Nsg49
Nsg51
Nsg53
Nsg55
Nsg56
Nsg22
Nsg58
Nsg59
Nsg61
Nsg63
Nsg64
Nsg65
Nsg66
Nsg67
Nsg68
Nsg70
Nsg71
Nsg72
Nsg74
Nsg75
Nsg76
Nsg78
VShaunTrades
p1549
sg80
Nsg81
VMoney Talks
p1550
sg83
Nsg85
Nsg87
I213315220
sg88
Nsbag3
(g44
g5
Ntp1551
Rp1552
(dp1553
g10
Nsg49
Nsg51
Nsg53
Nsg55
Nsg56
Nsg22
Nsg58
Nsg59
Nsg61
Nsg63
Nsg64
Nsg65
Nsg66
Nsg67
Nsg68
Nsg70
Nsg71
Nsg72
Nsg74
Nsg75
Nsg76
Nsg78
Vcheapcigar
p1554
sg80
Nsg81
VSublimin_Al
p1555
sg83
Nsg85
Nsg87
I1255621518
sg88
Nsbag3
(g44
g5
Ntp1556
Rp1557
(dp1558
g10
Nsg49
Nsg51
Nsg53
Nsg55
Nsg56
Nsg22
Nsg58
Nsg59
Nsg61
Nsg63
Nsg64
Nsg65
Nsg66
Nsg67
Nsg68
Nsg70
Nsg71
Nsg72
Nsg74
Nsg75
Nsg76
Nsg78
VSuperman6869
p1559
sg80
Nsg81
VSuperman
p1560
sg83
Nsg85
Nsg87
I137820750
sg88
Nsbag3
(g44
g5
Ntp1561
Rp1562
(dp1563
g10
Nsg49
Nsg51
Nsg53
Nsg55
Nsg56
Nsg22
Nsg58
Nsg59
Nsg61
Nsg63
Nsg64
Nsg65
Nsg66
Nsg67
Nsg68
Nsg70
Nsg71
Nsg72
Nsg74
Nsg75
Nsg76
Nsg78
VQueen_V1216
p1564
sg80
Nsg81
VVickie Barnachea
p1565
sg83
Nsg85
Nsg87
I265645992
sg88
Nsbag3
(g44
g5
Ntp1566
Rp1567
(dp1568
g10
Nsg49
Nsg51
Nsg53
Nsg55
Nsg56
Nsg22
Nsg58
Nsg59
Nsg61
Nsg63
Nsg64
Nsg65
Nsg66
Nsg67
Nsg68
Nsg70
Nsg71
Nsg72
Nsg74
Nsg75
Nsg76
Nsg78
VTrickerKeeTs
p1569
sg80
Nsg81
VTricker KeeTs
p1570
sg83
Nsg85
Nsg87
I2738347879
sg88
Nsbag3
(g44
g5
Ntp1571
Rp1572
(dp1573
g10
Nsg49
Nsg51
Nsg53
Nsg55
Nsg56
Nsg22
Nsg58
Nsg59
Nsg61
Nsg63
Nsg64
Nsg65
Nsg66
Nsg67
Nsg68
Nsg70
Nsg71
Nsg72
Nsg74
Nsg75
Nsg76
Nsg78
Vyrwol7
p1574
sg80
Nsg81
VColleen White 
p1575
sg83
Nsg85
Nsg87
I412776430
sg88
Nsbag3
(g44
g5
Ntp1576
Rp1577
(dp1578
g10
Nsg49
Nsg51
Nsg53
Nsg55
Nsg56
Nsg22
Nsg58
Nsg59
Nsg61
Nsg63
Nsg64
Nsg65
Nsg66
Nsg67
Nsg68
Nsg70
Nsg71
Nsg72
Nsg74
Nsg75
Nsg76
Nsg78
VDaggy1
p1579
sg80
Nsg81
VDagwood Bumstead
p1580
sg83
Nsg85
Nsg87
I24305174
sg88
Nsbasg34
Nsg35
V543546208967749632
p1581
sg37
Nsg38
VYW #FF!@texasflutegal @gatman7 @GenesSmile @Green_Star1 @ShaunTrades @cheapcigar @Superman6869 @Queen_V1216 @TrickerKeeTs @yrwol7 @Daggy1
p1582
sg40
I00
sg41
Vund
p1583
sg43
g3
(g44
g5
Ntp1584
Rp1585
(dp1586
g10
g878
sg49
V333333
p1587
sg51
Ven
p1588
sg53
Nsg55
I1713
sg56
I11096
sg22
VThu Oct 17 21:49:00 +0000 2013
p1589
sg58
I00
sg59
VBusiness Owner  #Conservative  #Christian  #PJNet  #UPPUSA  #CCOT  #Patriot   #RedStateRising  #2ndAmmendment  #NRA  #TeaParty  #ObamaMustBeStopped  #OiP
p1590
sg61
Vhttps://pbs.twimg.com/profile_images/539840189896462338/WuEZESSI_normal.png
p1591
sg63
I1933
sg64
I10181
sg65
Nsg66
Nsg67
I00
sg68
Vhttps://pbs.twimg.com/profile_banners/719756991/1399995507
p1592
sg70
I00
sg71
I00
sg72
V0084B4
p1593
sg74
I00
sg75
I00
sg76
Vhttp://abs.twimg.com/images/themes/theme1/bg.png
p1594
sg78
VWANAGL
p1595
sg80
I21
sg81
VWANAGL #OiP 
p1596
sg83
VDDEEF6
p1597
sg85
Nsg87
I719756991
sg88
VC0DEED
p1598
sbsg90
I1
sg91
V<a href="https://twitter.com/download/android" rel="nofollow">Twitter for Android Tablets</a>
p1599
sg93
(lp1600
sg87
I543546208967749632
sbsg16
Nsg17
(lp1601
sg19
Nsg20
Nsg21
Nsg22
VSat Dec 13 09:38:40 +0000 2014
p1602
sg24
Nsg25
Nsg26
Nsg27
Nsg28
Nsg29
Nsg30
I00
sg31
Nsg32
(lp1603
g3
(g44
g5
Ntp1604
Rp1605
(dp1606
g10
Nsg49
Nsg51
Nsg53
Nsg55
Nsg56
Nsg22
Nsg58
Nsg59
Nsg61
Nsg63
Nsg64
Nsg65
Nsg66
Nsg67
Nsg68
Nsg70
Nsg71
Nsg72
Nsg74
Nsg75
Nsg76
Nsg78
VWANAGL
p1607
sg80
Nsg81
VWANAGL #OiP 
p1608
sg83
Nsg85
Nsg87
I719756991
sg88
Nsbag3
(g44
g5
Ntp1609
Rp1610
(dp1611
g10
Nsg49
Nsg51
Nsg53
Nsg55
Nsg56
Nsg22
Nsg58
Nsg59
Nsg61
Nsg63
Nsg64
Nsg65
Nsg66
Nsg67
Nsg68
Nsg70
Nsg71
Nsg72
Nsg74
Nsg75
Nsg76
Nsg78
Vgatman7
p1612
sg80
Nsg81
VGeorge Thompson
p1613
sg83
Nsg85
Nsg87
I36681617
sg88
Nsbag3
(g44
g5
Ntp1614
Rp1615
(dp1616
g10
Nsg49
Nsg51
Nsg53
Nsg55
Nsg56
Nsg22
Nsg58
Nsg59
Nsg61
Nsg63
Nsg64
Nsg65
Nsg66
Nsg67
Nsg68
Nsg70
Nsg71
Nsg72
Nsg74
Nsg75
Nsg76
Nsg78
VGenesSmile
p1617
sg80
Nsg81
VKrissy Chase
p1618
sg83
Nsg85
Nsg87
I74827928
sg88
Nsbag3
(g44
g5
Ntp1619
Rp1620
(dp1621
g10
Nsg49
Nsg51
Nsg53
Nsg55
Nsg56
Nsg22
Nsg58
Nsg59
Nsg61
Nsg63
Nsg64
Nsg65
Nsg66
Nsg67
Nsg68
Nsg70
Nsg71
Nsg72
Nsg74
Nsg75
Nsg76
Nsg78
VGreen_Star1
p1622
sg80
Nsg81
VRalph E McCrum
p1623
sg83
Nsg85
Nsg87
I53590352
sg88
Nsbag3
(g44
g5
Ntp1624
Rp1625
(dp1626
g10
Nsg49
Nsg51
Nsg53
Nsg55
Nsg56
Nsg22
Nsg58
Nsg59
Nsg61
Nsg63
Nsg64
Nsg65
Nsg66
Nsg67
Nsg68
Nsg70
Nsg71
Nsg72
Nsg74
Nsg75
Nsg76
Nsg78
VShaunTrades
p1627
sg80
Nsg81
VMoney Talks
p1628
sg83
Nsg85
Nsg87
I213315220
sg88
Nsbag3
(g44
g5
Ntp1629
Rp1630
(dp1631
g10
Nsg49
Nsg51
Nsg53
Nsg55
Nsg56
Nsg22
Nsg58
Nsg59
Nsg61
Nsg63
Nsg64
Nsg65
Nsg66
Nsg67
Nsg68
Nsg70
Nsg71
Nsg72
Nsg74
Nsg75
Nsg76
Nsg78
Vcheapcigar
p1632
sg80
Nsg81
VSublimin_Al
p1633
sg83
Nsg85
Nsg87
I1255621518
sg88
Nsbag3
(g44
g5
Ntp1634
Rp1635
(dp1636
g10
Nsg49
Nsg51
Nsg53
Nsg55
Nsg56
Nsg22
Nsg58
Nsg59
Nsg61
Nsg63
Nsg64
Nsg65
Nsg66
Nsg67
Nsg68
Nsg70
Nsg71
Nsg72
Nsg74
Nsg75
Nsg76
Nsg78
VSuperman6869
p1637
sg80
Nsg81
VSuperman
p1638
sg83
Nsg85
Nsg87
I137820750
sg88
Nsbag3
(g44
g5
Ntp1639
Rp1640
(dp1641
g10
Nsg49
Nsg51
Nsg53
Nsg55
Nsg56
Nsg22
Nsg58
Nsg59
Nsg61
Nsg63
Nsg64
Nsg65
Nsg66
Nsg67
Nsg68
Nsg70
Nsg71
Nsg72
Nsg74
Nsg75
Nsg76
Nsg78
VQueen_V1216
p1642
sg80
Nsg81
VVickie Barnachea
p1643
sg83
Nsg85
Nsg87
I265645992
sg88
Nsbag3
(g44
g5
Ntp1644
Rp1645
(dp1646
g10
Nsg49
Nsg51
Nsg53
Nsg55
Nsg56
Nsg22
Nsg58
Nsg59
Nsg61
Nsg63
Nsg64
Nsg65
Nsg66
Nsg67
Nsg68
Nsg70
Nsg71
Nsg72
Nsg74
Nsg75
Nsg76
Nsg78
VTrickerKeeTs
p1647
sg80
Nsg81
VTricker KeeTs
p1648
sg83
Nsg85
Nsg87
I2738347879
sg88
Nsbag3
(g44
g5
Ntp1649
Rp1650
(dp1651
g10
Nsg49
Nsg51
Nsg53
Nsg55
Nsg56
Nsg22
Nsg58
Nsg59
Nsg61
Nsg63
Nsg64
Nsg65
Nsg66
Nsg67
Nsg68
Nsg70
Nsg71
Nsg72
Nsg74
Nsg75
Nsg76
Nsg78
Vyrwol7
p1652
sg80
Nsg81
VColleen White 
p1653
sg83
Nsg85
Nsg87
I412776430
sg88
Nsbag3
(g44
g5
Ntp1654
Rp1655
(dp1656
g10
Nsg49
Nsg51
Nsg53
Nsg55
Nsg56
Nsg22
Nsg58
Nsg59
Nsg61
Nsg63
Nsg64
Nsg65
Nsg66
Nsg67
Nsg68
Nsg70
Nsg71
Nsg72
Nsg74
Nsg75
Nsg76
Nsg78
VDaggy1
p1657
sg80
Nsg81
VDagwood Bumstead
p1658
sg83
Nsg85
Nsg87
I24305174
sg88
Nsbasg34
Nsg35
V543701529832980481
p1659
sg37
Nsg38
VRT @WANAGL: YW #FF!@texasflutegal @gatman7 @GenesSmile @Green_Star1 @ShaunTrades @cheapcigar @Superman6869 @Queen_V1216 @TrickerKeeTs @yrwo\u2026
p1660
sg40
I00
sg41
Vund
p1661
sg43
g3
(g44
g5
Ntp1662
Rp1663
(dp1664
g10
V \ufe3b\u2566\u2564\u2500\u2500   \ufe3b\u2566\u2564\u2500\u2500   \ufe3b\u2566\u2564\u2500\u2500   \ufe3b\u2566\u2564\u2500\u2500
p1665
sg49
V333333
p1666
sg51
Ven-gb
p1667
sg53
VLondon
p1668
sg55
I4552
sg56
I25702
sg22
VSat Mar 09 23:39:32 +0000 2013
p1669
sg58
I00
sg59
VPatriot, Army Veteran from 40 yrs ago, love my rescued dogs, rifles, pistols, and freedom. God Bless all US Armed Forces, Active,Vets,& Deceased. #NRA #PJNET
p1670
sg61
Vhttps://pbs.twimg.com/profile_images/542439961106997251/Qt0kA7_R_normal.jpeg
p1671
sg63
I4549
sg64
I8473
sg65
I0
sg66
Nsg67
I00
sg68
Vhttps://pbs.twimg.com/profile_banners/1255621518/1418165233
p1672
sg70
I00
sg71
I00
sg72
VBD1C1C
p1673
sg74
I00
sg75
I00
sg76
Vhttp://abs.twimg.com/images/themes/theme1/bg.png
p1674
sg78
Vcheapcigar
p1675
sg80
I85
sg81
VSublimin_Al
p1676
sg83
VDDEEF6
p1677
sg85
Vhttp://t.co/mFeQgMWOgQ
p1678
sg87
I1255621518
sg88
VC0DEED
p1679
sbsg90
I1
sg91
V<a href="http://twitter.com/download/iphone" rel="nofollow">Twitter for iPhone</a>
p1680
sg93
(lp1681
sg87
I543701529832980481
sbag3
(g4
g5
Ntp1682
Rp1683
(dp1684
g9
I0
sg10
Nsg11
Nsg12
(lp1685
sg14
I00
sg15
g3
(g4
g5
Ntp1686
Rp1687
(dp1688
g9
I1
sg10
Nsg11
Nsg12
(lp1689
sg14
I00
sg15
Nsg16
Nsg17
(lp1690
sg19
Nsg20
Nsg21
Nsg22
VFri Dec 12 23:55:23 +0000 2014
p1691
sg24
Nsg25
Nsg26
Nsg27
Nsg28
Nsg29
Nsg30
I00
sg31
Nsg32
(lp1692
g3
(g44
g5
Ntp1693
Rp1694
(dp1695
g10
Nsg49
Nsg51
Nsg53
Nsg55
Nsg56
Nsg22
Nsg58
Nsg59
Nsg61
Nsg63
Nsg64
Nsg65
Nsg66
Nsg67
Nsg68
Nsg70
Nsg71
Nsg72
Nsg74
Nsg75
Nsg76
Nsg78
Vcheapcigar
p1696
sg80
Nsg81
VSublimin_Al
p1697
sg83
Nsg85
Nsg87
I1255621518
sg88
Nsbag3
(g44
g5
Ntp1698
Rp1699
(dp1700
g10
Nsg49
Nsg51
Nsg53
Nsg55
Nsg56
Nsg22
Nsg58
Nsg59
Nsg61
Nsg63
Nsg64
Nsg65
Nsg66
Nsg67
Nsg68
Nsg70
Nsg71
Nsg72
Nsg74
Nsg75
Nsg76
Nsg78
Vjrstws
p1701
sg80
Nsg81
VJR Benghazismidgen
p1702
sg83
Nsg85
Nsg87
I228901203
sg88
Nsbag3
(g44
g5
Ntp1703
Rp1704
(dp1705
g10
Nsg49
Nsg51
Nsg53
Nsg55
Nsg56
Nsg22
Nsg58
Nsg59
Nsg61
Nsg63
Nsg64
Nsg65
Nsg66
Nsg67
Nsg68
Nsg70
Nsg71
Nsg72
Nsg74
Nsg75
Nsg76
Nsg78
VAndrewArlink
p1706
sg80
Nsg81
VAndrew Arlink
p1707
sg83
Nsg85
Nsg87
I2494237140
sg88
Nsbag3
(g44
g5
Ntp1708
Rp1709
(dp1710
g10
Nsg49
Nsg51
Nsg53
Nsg55
Nsg56
Nsg22
Nsg58
Nsg59
Nsg61
Nsg63
Nsg64
Nsg65
Nsg66
Nsg67
Nsg68
Nsg70
Nsg71
Nsg72
Nsg74
Nsg75
Nsg76
Nsg78
Vlemonchronicle
p1711
sg80
Nsg81
VElizabeth
p1712
sg83
Nsg85
Nsg87
I194619305
sg88
Nsbag3
(g44
g5
Ntp1713
Rp1714
(dp1715
g10
Nsg49
Nsg51
Nsg53
Nsg55
Nsg56
Nsg22
Nsg58
Nsg59
Nsg61
Nsg63
Nsg64
Nsg65
Nsg66
Nsg67
Nsg68
Nsg70
Nsg71
Nsg72
Nsg74
Nsg75
Nsg76
Nsg78
Vmlong42947
p1716
sg80
Nsg81
VMarilyn Long
p1717
sg83
Nsg85
Nsg87
I538481859
sg88
Nsbag3
(g44
g5
Ntp1718
Rp1719
(dp1720
g10
Nsg49
Nsg51
Nsg53
Nsg55
Nsg56
Nsg22
Nsg58
Nsg59
Nsg61
Nsg63
Nsg64
Nsg65
Nsg66
Nsg67
Nsg68
Nsg70
Nsg71
Nsg72
Nsg74
Nsg75
Nsg76
Nsg78
VJOHNNDIBELLO
p1721
sg80
Nsg81
VJOHN N DIBELLO
p1722
sg83
Nsg85
Nsg87
I525857535
sg88
Nsbag3
(g44
g5
Ntp1723
Rp1724
(dp1725
g10
Nsg49
Nsg51
Nsg53
Nsg55
Nsg56
Nsg22
Nsg58
Nsg59
Nsg61
Nsg63
Nsg64
Nsg65
Nsg66
Nsg67
Nsg68
Nsg70
Nsg71
Nsg72
Nsg74
Nsg75
Nsg76
Nsg78
Vjudith5519
p1726
sg80
Nsg81
VJude505
p1727
sg83
Nsg85
Nsg87
I2440969560
sg88
Nsbag3
(g44
g5
Ntp1728
Rp1729
(dp1730
g10
Nsg49
Nsg51
Nsg53
Nsg55
Nsg56
Nsg22
Nsg58
Nsg59
Nsg61
Nsg63
Nsg64
Nsg65
Nsg66
Nsg67
Nsg68
Nsg70
Nsg71
Nsg72
Nsg74
Nsg75
Nsg76
Nsg78
Vlawrenleann1962
p1731
sg80
Nsg81
VLeann Rehm Lawrence
p1732
sg83
Nsg85
Nsg87
I837969043
sg88
Nsbag3
(g44
g5
Ntp1733
Rp1734
(dp1735
g10
Nsg49
Nsg51
Nsg53
Nsg55
Nsg56
Nsg22
Nsg58
Nsg59
Nsg61
Nsg63
Nsg64
Nsg65
Nsg66
Nsg67
Nsg68
Nsg70
Nsg71
Nsg72
Nsg74
Nsg75
Nsg76
Nsg78
Vwarpfactorbanjo
p1736
sg80
Nsg81
VJ Loveless
p1737
sg83
Nsg85
Nsg87
I162078051
sg88
Nsbasg34
Nsg35
V543554742149218304
p1738
sg37
Nsg38
V.@cheapcigar @jrstws @AndrewArlink @lemonchronicle @mlong42947 @JOHNNDIBELLO @judith5519 @lawrenleann1962 @warpfactorbanjo Thx 4 RTs &amp; FAVs
p1739
sg40
I00
sg41
Ven
p1740
sg43
g3
(g44
g5
Ntp1741
Rp1742
(dp1743
g10
VNew York: Behind enemy lines
p1744
sg49
V895429
p1745
sg51
Ven
p1746
sg53
VQuito
p1747
sg55
I7887
sg56
I40147
sg22
VThu Apr 30 14:59:16 +0000 2009
p1748
sg58
I00
sg59
VFree Markets, Libertarian, Constitution, Science, Politics, TEA Party.  The Republic is threatened; No one may stand idle.
p1749
sg61
Vhttps://pbs.twimg.com/profile_images/1522440980/9c1f68d8-f920-4c08-ad95-7addf28b5833_normal.png
p1750
sg63
I8299
sg64
I317
sg65
I-18000
sg66
Nsg67
I00
sg68
Vhttps://pbs.twimg.com/profile_banners/36681617/1394949487
p1751
sg70
I00
sg71
I00
sg72
V39BD91
p1752
sg74
I00
sg75
I00
sg76
Vhttp://pbs.twimg.com/profile_background_images/263722096/x4767c8d7a44c41d8d6b5571c8513098.jpg
p1753
sg78
Vgatman7
p1754
sg80
I144
sg81
VGeorge Thompson
p1755
sg83
VD9F7B2
p1756
sg85
Nsg87
I36681617
sg88
VE2ED4C
p1757
sbsg90
I3
sg91
V<a href="http://twitter.com" rel="nofollow">Twitter Web Client</a>
p1758
sg93
(lp1759
sg87
I543554742149218304
sbsg16
Nsg17
(lp1760
sg19
Nsg20
Nsg21
Nsg22
VSat Dec 13 09:38:20 +0000 2014
p1761
sg24
Nsg25
Nsg26
Nsg27
Nsg28
Nsg29
Nsg30
I00
sg31
Nsg32
(lp1762
g3
(g44
g5
Ntp1763
Rp1764
(dp1765
g10
Nsg49
Nsg51
Nsg53
Nsg55
Nsg56
Nsg22
Nsg58
Nsg59
Nsg61
Nsg63
Nsg64
Nsg65
Nsg66
Nsg67
Nsg68
Nsg70
Nsg71
Nsg72
Nsg74
Nsg75
Nsg76
Nsg78
Vgatman7
p1766
sg80
Nsg81
VGeorge Thompson
p1767
sg83
Nsg85
Nsg87
I36681617
sg88
Nsbag3
(g44
g5
Ntp1768
Rp1769
(dp1770
g10
Nsg49
Nsg51
Nsg53
Nsg55
Nsg56
Nsg22
Nsg58
Nsg59
Nsg61
Nsg63
Nsg64
Nsg65
Nsg66
Nsg67
Nsg68
Nsg70
Nsg71
Nsg72
Nsg74
Nsg75
Nsg76
Nsg78
Vcheapcigar
p1771
sg80
Nsg81
VSublimin_Al
p1772
sg83
Nsg85
Nsg87
I1255621518
sg88
Nsbag3
(g44
g5
Ntp1773
Rp1774
(dp1775
g10
Nsg49
Nsg51
Nsg53
Nsg55
Nsg56
Nsg22
Nsg58
Nsg59
Nsg61
Nsg63
Nsg64
Nsg65
Nsg66
Nsg67
Nsg68
Nsg70
Nsg71
Nsg72
Nsg74
Nsg75
Nsg76
Nsg78
Vjrstws
p1776
sg80
Nsg81
VJR Benghazismidgen
p1777
sg83
Nsg85
Nsg87
I228901203
sg88
Nsbag3
(g44
g5
Ntp1778
Rp1779
(dp1780
g10
Nsg49
Nsg51
Nsg53
Nsg55
Nsg56
Nsg22
Nsg58
Nsg59
Nsg61
Nsg63
Nsg64
Nsg65
Nsg66
Nsg67
Nsg68
Nsg70
Nsg71
Nsg72
Nsg74
Nsg75
Nsg76
Nsg78
VAndrewArlink
p1781
sg80
Nsg81
VAndrew Arlink
p1782
sg83
Nsg85
Nsg87
I2494237140
sg88
Nsbag3
(g44
g5
Ntp1783
Rp1784
(dp1785
g10
Nsg49
Nsg51
Nsg53
Nsg55
Nsg56
Nsg22
Nsg58
Nsg59
Nsg61
Nsg63
Nsg64
Nsg65
Nsg66
Nsg67
Nsg68
Nsg70
Nsg71
Nsg72
Nsg74
Nsg75
Nsg76
Nsg78
Vlemonchronicle
p1786
sg80
Nsg81
VElizabeth
p1787
sg83
Nsg85
Nsg87
I194619305
sg88
Nsbag3
(g44
g5
Ntp1788
Rp1789
(dp1790
g10
Nsg49
Nsg51
Nsg53
Nsg55
Nsg56
Nsg22
Nsg58
Nsg59
Nsg61
Nsg63
Nsg64
Nsg65
Nsg66
Nsg67
Nsg68
Nsg70
Nsg71
Nsg72
Nsg74
Nsg75
Nsg76
Nsg78
Vmlong42947
p1791
sg80
Nsg81
VMarilyn Long
p1792
sg83
Nsg85
Nsg87
I538481859
sg88
Nsbag3
(g44
g5
Ntp1793
Rp1794
(dp1795
g10
Nsg49
Nsg51
Nsg53
Nsg55
Nsg56
Nsg22
Nsg58
Nsg59
Nsg61
Nsg63
Nsg64
Nsg65
Nsg66
Nsg67
Nsg68
Nsg70
Nsg71
Nsg72
Nsg74
Nsg75
Nsg76
Nsg78
VJOHNNDIBELLO
p1796
sg80
Nsg81
VJOHN N DIBELLO
p1797
sg83
Nsg85
Nsg87
I525857535
sg88
Nsbag3
(g44
g5
Ntp1798
Rp1799
(dp1800
g10
Nsg49
Nsg51
Nsg53
Nsg55
Nsg56
Nsg22
Nsg58
Nsg59
Nsg61
Nsg63
Nsg64
Nsg65
Nsg66
Nsg67
Nsg68
Nsg70
Nsg71
Nsg72
Nsg74
Nsg75
Nsg76
Nsg78
Vjudith5519
p1801
sg80
Nsg81
VJude505
p1802
sg83
Nsg85
Nsg87
I2440969560
sg88
Nsbag3
(g44
g5
Ntp1803
Rp1804
(dp1805
g10
Nsg49
Nsg51
Nsg53
Nsg55
Nsg56
Nsg22
Nsg58
Nsg59
Nsg61
Nsg63
Nsg64
Nsg65
Nsg66
Nsg67
Nsg68
Nsg70
Nsg71
Nsg72
Nsg74
Nsg75
Nsg76
Nsg78
Vlawrenleann1962
p1806
sg80
Nsg81
VLeann Rehm Lawrence
p1807
sg83
Nsg85
Nsg87
I837969043
sg88
Nsbag3
(g44
g5
Ntp1808
Rp1809
(dp1810
g10
Nsg49
Nsg51
Nsg53
Nsg55
Nsg56
Nsg22
Nsg58
Nsg59
Nsg61
Nsg63
Nsg64
Nsg65
Nsg66
Nsg67
Nsg68
Nsg70
Nsg71
Nsg72
Nsg74
Nsg75
Nsg76
Nsg78
Vwarpfactorbanjo
p1811
sg80
Nsg81
VJ Loveless
p1812
sg83
Nsg85
Nsg87
I162078051
sg88
Nsbasg34
Nsg35
V543701442817966080
p1813
sg37
Nsg38
VRT @gatman7: .@cheapcigar @jrstws @AndrewArlink @lemonchronicle @mlong42947 @JOHNNDIBELLO @judith5519 @lawrenleann1962 @warpfactorbanjo Thx\u2026
p1814
sg40
I00
sg41
Ven
p1815
sg43
g3
(g44
g5
Ntp1816
Rp1817
(dp1818
g10
V \ufe3b\u2566\u2564\u2500\u2500   \ufe3b\u2566\u2564\u2500\u2500   \ufe3b\u2566\u2564\u2500\u2500   \ufe3b\u2566\u2564\u2500\u2500
p1819
sg49
V333333
p1820
sg51
Ven-gb
p1821
sg53
VLondon
p1822
sg55
I4552
sg56
I25702
sg22
VSat Mar 09 23:39:32 +0000 2013
p1823
sg58
I00
sg59
VPatriot, Army Veteran from 40 yrs ago, love my rescued dogs, rifles, pistols, and freedom. God Bless all US Armed Forces, Active,Vets,& Deceased. #NRA #PJNET
p1824
sg61
Vhttps://pbs.twimg.com/profile_images/542439961106997251/Qt0kA7_R_normal.jpeg
p1825
sg63
I4549
sg64
I8473
sg65
I0
sg66
Nsg67
I00
sg68
Vhttps://pbs.twimg.com/profile_banners/1255621518/1418165233
p1826
sg70
I00
sg71
I00
sg72
VBD1C1C
p1827
sg74
I00
sg75
I00
sg76
Vhttp://abs.twimg.com/images/themes/theme1/bg.png
p1828
sg78
Vcheapcigar
p1829
sg80
I85
sg81
VSublimin_Al
p1830
sg83
VDDEEF6
p1831
sg85
Vhttp://t.co/mFeQgMWOgQ
p1832
sg87
I1255621518
sg88
VC0DEED
p1833
sbsg90
I3
sg91
V<a href="http://twitter.com/download/iphone" rel="nofollow">Twitter for iPhone</a>
p1834
sg93
(lp1835
sg87
I543701442817966080
sbag3
(g4
g5
Ntp1836
Rp1837
(dp1838
g9
I0
sg10
Nsg11
Nsg12
(lp1839
sg14
I00
sg15
g3
(g4
g5
Ntp1840
Rp1841
(dp1842
g9
I1
sg10
Nsg11
Nsg12
(lp1843
sg14
I00
sg15
Nsg16
Nsg17
(lp1844
sg19
Nsg20
Nsg21
Nsg22
VSat Dec 13 00:00:29 +0000 2014
p1845
sg24
Nsg25
Nsg26
Vgatman7
p1846
sg27
Nsg28
I36681617
sg29
Nsg30
I00
sg31
Nsg32
(lp1847
g3
(g44
g5
Ntp1848
Rp1849
(dp1850
g10
Nsg49
Nsg51
Nsg53
Nsg55
Nsg56
Nsg22
Nsg58
Nsg59
Nsg61
Nsg63
Nsg64
Nsg65
Nsg66
Nsg67
Nsg68
Nsg70
Nsg71
Nsg72
Nsg74
Nsg75
Nsg76
Nsg78
Vgatman7
p1851
sg80
Nsg81
VGeorge Thompson
p1852
sg83
Nsg85
Nsg87
I36681617
sg88
Nsbag3
(g44
g5
Ntp1853
Rp1854
(dp1855
g10
Nsg49
Nsg51
Nsg53
Nsg55
Nsg56
Nsg22
Nsg58
Nsg59
Nsg61
Nsg63
Nsg64
Nsg65
Nsg66
Nsg67
Nsg68
Nsg70
Nsg71
Nsg72
Nsg74
Nsg75
Nsg76
Nsg78
Vcheapcigar
p1856
sg80
Nsg81
VSublimin_Al
p1857
sg83
Nsg85
Nsg87
I1255621518
sg88
Nsbag3
(g44
g5
Ntp1858
Rp1859
(dp1860
g10
Nsg49
Nsg51
Nsg53
Nsg55
Nsg56
Nsg22
Nsg58
Nsg59
Nsg61
Nsg63
Nsg64
Nsg65
Nsg66
Nsg67
Nsg68
Nsg70
Nsg71
Nsg72
Nsg74
Nsg75
Nsg76
Nsg78
Vjrstws
p1861
sg80
Nsg81
VJR Benghazismidgen
p1862
sg83
Nsg85
Nsg87
I228901203
sg88
Nsbag3
(g44
g5
Ntp1863
Rp1864
(dp1865
g10
Nsg49
Nsg51
Nsg53
Nsg55
Nsg56
Nsg22
Nsg58
Nsg59
Nsg61
Nsg63
Nsg64
Nsg65
Nsg66
Nsg67
Nsg68
Nsg70
Nsg71
Nsg72
Nsg74
Nsg75
Nsg76
Nsg78
VAndrewArlink
p1866
sg80
Nsg81
VAndrew Arlink
p1867
sg83
Nsg85
Nsg87
I2494237140
sg88
Nsbag3
(g44
g5
Ntp1868
Rp1869
(dp1870
g10
Nsg49
Nsg51
Nsg53
Nsg55
Nsg56
Nsg22
Nsg58
Nsg59
Nsg61
Nsg63
Nsg64
Nsg65
Nsg66
Nsg67
Nsg68
Nsg70
Nsg71
Nsg72
Nsg74
Nsg75
Nsg76
Nsg78
Vmlong42947
p1871
sg80
Nsg81
VMarilyn Long
p1872
sg83
Nsg85
Nsg87
I538481859
sg88
Nsbag3
(g44
g5
Ntp1873
Rp1874
(dp1875
g10
Nsg49
Nsg51
Nsg53
Nsg55
Nsg56
Nsg22
Nsg58
Nsg59
Nsg61
Nsg63
Nsg64
Nsg65
Nsg66
Nsg67
Nsg68
Nsg70
Nsg71
Nsg72
Nsg74
Nsg75
Nsg76
Nsg78
VJOHNNDIBELLO
p1876
sg80
Nsg81
VJOHN N DIBELLO
p1877
sg83
Nsg85
Nsg87
I525857535
sg88
Nsbag3
(g44
g5
Ntp1878
Rp1879
(dp1880
g10
Nsg49
Nsg51
Nsg53
Nsg55
Nsg56
Nsg22
Nsg58
Nsg59
Nsg61
Nsg63
Nsg64
Nsg65
Nsg66
Nsg67
Nsg68
Nsg70
Nsg71
Nsg72
Nsg74
Nsg75
Nsg76
Nsg78
Vjudith5519
p1881
sg80
Nsg81
VJude505
p1882
sg83
Nsg85
Nsg87
I2440969560
sg88
Nsbag3
(g44
g5
Ntp1883
Rp1884
(dp1885
g10
Nsg49
Nsg51
Nsg53
Nsg55
Nsg56
Nsg22
Nsg58
Nsg59
Nsg61
Nsg63
Nsg64
Nsg65
Nsg66
Nsg67
Nsg68
Nsg70
Nsg71
Nsg72
Nsg74
Nsg75
Nsg76
Nsg78
Vlawrenleann1962
p1886
sg80
Nsg81
VLeann Rehm Lawrence
p1887
sg83
Nsg85
Nsg87
I837969043
sg88
Nsbag3
(g44
g5
Ntp1888
Rp1889
(dp1890
g10
Nsg49
Nsg51
Nsg53
Nsg55
Nsg56
Nsg22
Nsg58
Nsg59
Nsg61
Nsg63
Nsg64
Nsg65
Nsg66
Nsg67
Nsg68
Nsg70
Nsg71
Nsg72
Nsg74
Nsg75
Nsg76
Nsg78
Vwarpfactorbanjo
p1891
sg80
Nsg81
VJ Loveless
p1892
sg83
Nsg85
Nsg87
I162078051
sg88
Nsbasg34
Nsg35
V543556025149038592
p1893
sg37
I543554742149218304
sg38
V@gatman7 @cheapcigar @jrstws @AndrewArlink @mlong42947 @JOHNNDIBELLO @judith5519 @lawrenleann1962 @warpfactorbanjo you are welcome!
p1894
sg40
I00
sg41
Ven
p1895
sg43
g3
(g44
g5
Ntp1896
Rp1897
(dp1898
g10
VNew Jersey
p1899
sg49
V333333
p1900
sg51
Ven
p1901
sg53
VEastern Time (US & Canada)
p1902
sg55
I2303
sg56
I95453
sg22
VFri Sep 24 15:48:07 +0000 2010
p1903
sg58
I00
sg59
Vart, science, nature, news.\u000aConservative in views, do not belong to any party. This months highlight until January is Paris
p1904
sg61
Vhttps://pbs.twimg.com/profile_images/534421826672144386/1gw4aZ0h_normal.jpeg
p1905
sg63
I2202
sg64
I3977
sg65
I-18000
sg66
Nsg67
I00
sg68
Vhttps://pbs.twimg.com/profile_banners/194619305/1417283241
p1906
sg70
I00
sg71
I00
sg72
V3B94D9
p1907
sg74
I00
sg75
I00
sg76
Vhttp://abs.twimg.com/images/themes/theme19/bg.gif
p1908
sg78
Vlemonchronicle
p1909
sg80
I62
sg81
VElizabeth
p1910
sg83
VF6FFD1
p1911
sg85
Vhttp://t.co/zzPgWQdSUR
p1912
sg87
I194619305
sg88
VFFF04D
p1913
sbsg90
I1
sg91
V<a href="http://twitter.com" rel="nofollow">Twitter Web Client</a>
p1914
sg93
(lp1915
sg87
I543556025149038592
sbsg16
Nsg17
(lp1916
sg19
Nsg20
Nsg21
Nsg22
VSat Dec 13 09:38:16 +0000 2014
p1917
sg24
Nsg25
Nsg26
Nsg27
Nsg28
Nsg29
Nsg30
I00
sg31
Nsg32
(lp1918
g3
(g44
g5
Ntp1919
Rp1920
(dp1921
g10
Nsg49
Nsg51
Nsg53
Nsg55
Nsg56
Nsg22
Nsg58
Nsg59
Nsg61
Nsg63
Nsg64
Nsg65
Nsg66
Nsg67
Nsg68
Nsg70
Nsg71
Nsg72
Nsg74
Nsg75
Nsg76
Nsg78
Vlemonchronicle
p1922
sg80
Nsg81
VElizabeth
p1923
sg83
Nsg85
Nsg87
I194619305
sg88
Nsbag3
(g44
g5
Ntp1924
Rp1925
(dp1926
g10
Nsg49
Nsg51
Nsg53
Nsg55
Nsg56
Nsg22
Nsg58
Nsg59
Nsg61
Nsg63
Nsg64
Nsg65
Nsg66
Nsg67
Nsg68
Nsg70
Nsg71
Nsg72
Nsg74
Nsg75
Nsg76
Nsg78
Vgatman7
p1927
sg80
Nsg81
VGeorge Thompson
p1928
sg83
Nsg85
Nsg87
I36681617
sg88
Nsbag3
(g44
g5
Ntp1929
Rp1930
(dp1931
g10
Nsg49
Nsg51
Nsg53
Nsg55
Nsg56
Nsg22
Nsg58
Nsg59
Nsg61
Nsg63
Nsg64
Nsg65
Nsg66
Nsg67
Nsg68
Nsg70
Nsg71
Nsg72
Nsg74
Nsg75
Nsg76
Nsg78
Vcheapcigar
p1932
sg80
Nsg81
VSublimin_Al
p1933
sg83
Nsg85
Nsg87
I1255621518
sg88
Nsbag3
(g44
g5
Ntp1934
Rp1935
(dp1936
g10
Nsg49
Nsg51
Nsg53
Nsg55
Nsg56
Nsg22
Nsg58
Nsg59
Nsg61
Nsg63
Nsg64
Nsg65
Nsg66
Nsg67
Nsg68
Nsg70
Nsg71
Nsg72
Nsg74
Nsg75
Nsg76
Nsg78
Vjrstws
p1937
sg80
Nsg81
VJR Benghazismidgen
p1938
sg83
Nsg85
Nsg87
I228901203
sg88
Nsbag3
(g44
g5
Ntp1939
Rp1940
(dp1941
g10
Nsg49
Nsg51
Nsg53
Nsg55
Nsg56
Nsg22
Nsg58
Nsg59
Nsg61
Nsg63
Nsg64
Nsg65
Nsg66
Nsg67
Nsg68
Nsg70
Nsg71
Nsg72
Nsg74
Nsg75
Nsg76
Nsg78
VAndrewArlink
p1942
sg80
Nsg81
VAndrew Arlink
p1943
sg83
Nsg85
Nsg87
I2494237140
sg88
Nsbag3
(g44
g5
Ntp1944
Rp1945
(dp1946
g10
Nsg49
Nsg51
Nsg53
Nsg55
Nsg56
Nsg22
Nsg58
Nsg59
Nsg61
Nsg63
Nsg64
Nsg65
Nsg66
Nsg67
Nsg68
Nsg70
Nsg71
Nsg72
Nsg74
Nsg75
Nsg76
Nsg78
Vmlong42947
p1947
sg80
Nsg81
VMarilyn Long
p1948
sg83
Nsg85
Nsg87
I538481859
sg88
Nsbag3
(g44
g5
Ntp1949
Rp1950
(dp1951
g10
Nsg49
Nsg51
Nsg53
Nsg55
Nsg56
Nsg22
Nsg58
Nsg59
Nsg61
Nsg63
Nsg64
Nsg65
Nsg66
Nsg67
Nsg68
Nsg70
Nsg71
Nsg72
Nsg74
Nsg75
Nsg76
Nsg78
VJOHNNDIBELLO
p1952
sg80
Nsg81
VJOHN N DIBELLO
p1953
sg83
Nsg85
Nsg87
I525857535
sg88
Nsbag3
(g44
g5
Ntp1954
Rp1955
(dp1956
g10
Nsg49
Nsg51
Nsg53
Nsg55
Nsg56
Nsg22
Nsg58
Nsg59
Nsg61
Nsg63
Nsg64
Nsg65
Nsg66
Nsg67
Nsg68
Nsg70
Nsg71
Nsg72
Nsg74
Nsg75
Nsg76
Nsg78
Vjudith5519
p1957
sg80
Nsg81
VJude505
p1958
sg83
Nsg85
Nsg87
I2440969560
sg88
Nsbag3
(g44
g5
Ntp1959
Rp1960
(dp1961
g10
Nsg49
Nsg51
Nsg53
Nsg55
Nsg56
Nsg22
Nsg58
Nsg59
Nsg61
Nsg63
Nsg64
Nsg65
Nsg66
Nsg67
Nsg68
Nsg70
Nsg71
Nsg72
Nsg74
Nsg75
Nsg76
Nsg78
Vlawrenleann1962
p1962
sg80
Nsg81
VLeann Rehm Lawrence
p1963
sg83
Nsg85
Nsg87
I837969043
sg88
Nsbag3
(g44
g5
Ntp1964
Rp1965
(dp1966
g10
Nsg49
Nsg51
Nsg53
Nsg55
Nsg56
Nsg22
Nsg58
Nsg59
Nsg61
Nsg63
Nsg64
Nsg65
Nsg66
Nsg67
Nsg68
Nsg70
Nsg71
Nsg72
Nsg74
Nsg75
Nsg76
Nsg78
Vwarpfactorbanjo
p1967
sg80
Nsg81
VJ Loveless
p1968
sg83
Nsg85
Nsg87
I162078051
sg88
Nsbasg34
Nsg35
V543701426372108288
p1969
sg37
Nsg38
VRT @lemonchronicle: @gatman7 @cheapcigar @jrstws @AndrewArlink @mlong42947 @JOHNNDIBELLO @judith5519 @lawrenleann1962 @warpfactorbanjo you \u2026
p1970
sg40
I00
sg41
Ven
p1971
sg43
g3
(g44
g5
Ntp1972
Rp1973
(dp1974
g10
V \ufe3b\u2566\u2564\u2500\u2500   \ufe3b\u2566\u2564\u2500\u2500   \ufe3b\u2566\u2564\u2500\u2500   \ufe3b\u2566\u2564\u2500\u2500
p1975
sg49
V333333
p1976
sg51
Ven-gb
p1977
sg53
VLondon
p1978
sg55
I4552
sg56
I25702
sg22
VSat Mar 09 23:39:32 +0000 2013
p1979
sg58
I00
sg59
VPatriot, Army Veteran from 40 yrs ago, love my rescued dogs, rifles, pistols, and freedom. God Bless all US Armed Forces, Active,Vets,& Deceased. #NRA #PJNET
p1980
sg61
Vhttps://pbs.twimg.com/profile_images/542439961106997251/Qt0kA7_R_normal.jpeg
p1981
sg63
I4549
sg64
I8473
sg65
I0
sg66
Nsg67
I00
sg68
Vhttps://pbs.twimg.com/profile_banners/1255621518/1418165233
p1982
sg70
I00
sg71
I00
sg72
VBD1C1C
p1983
sg74
I00
sg75
I00
sg76
Vhttp://abs.twimg.com/images/themes/theme1/bg.png
p1984
sg78
Vcheapcigar
p1985
sg80
I85
sg81
VSublimin_Al
p1986
sg83
VDDEEF6
p1987
sg85
Vhttp://t.co/mFeQgMWOgQ
p1988
sg87
I1255621518
sg88
VC0DEED
p1989
sbsg90
I1
sg91
V<a href="http://twitter.com/download/iphone" rel="nofollow">Twitter for iPhone</a>
p1990
sg93
(lp1991
sg87
I543701426372108288
sbag3
(g4
g5
Ntp1992
Rp1993
(dp1994
g9
I0
sg10
Nsg11
Nsg12
(lp1995
sg14
I00
sg15
g3
(g4
g5
Ntp1996
Rp1997
(dp1998
g9
I4
sg10
Nsg11
Nsg12
(lp1999
sg14
I00
sg15
Nsg16
Nsg17
(lp2000
sg19
Nsg20
Nsg21
Nsg22
VSat Dec 13 04:50:16 +0000 2014
p2001
sg24
Nsg25
Nsg26
Nsg27
Nsg28
Nsg29
Nsg30
I00
sg31
Nsg32
(lp2002
g3
(g44
g5
Ntp2003
Rp2004
(dp2005
g10
Nsg49
Nsg51
Nsg53
Nsg55
Nsg56
Nsg22
Nsg58
Nsg59
Nsg61
Nsg63
Nsg64
Nsg65
Nsg66
Nsg67
Nsg68
Nsg70
Nsg71
Nsg72
Nsg74
Nsg75
Nsg76
Nsg78
VCIA
p2006
sg80
Nsg81
VCIA
p2007
sg83
Nsg85
Nsg87
I2359926157
sg88
Nsbasg34
Nsg35
V543628949784625152
p2008
sg37
Nsg38
VOh hi @CIA now is a great time to release some records of Obama's past, say let's start with his birthplace! &amp; thank u all for your service!
p2009
sg40
I00
sg41
Ven
p2010
sg43
g3
(g44
g5
Ntp2011
Rp2012
(dp2013
g10
VThe US of fucking A!
p2014
sg49
V333333
p2015
sg51
Ven
p2016
sg53
Nsg55
I1231
sg56
I5894
sg22
VFri Aug 15 02:51:21 +0000 2014
p2017
sg58
I00
sg59
VLifestyle Coach for progressive Donkeys and general Oracle.
p2018
sg61
Vhttps://pbs.twimg.com/profile_images/500113904098226176/uRm2_gy1_normal.jpeg
p2019
sg63
I1982
sg64
I2754
sg65
Nsg66
Nsg67
I00
sg68
Vhttps://pbs.twimg.com/profile_banners/2733469417/1408071496
p2020
sg70
I00
sg71
I01
sg72
V009999
p2021
sg74
I00
sg75
I00
sg76
Vhttp://abs.twimg.com/images/themes/theme14/bg.gif
p2022
sg78
Vanyclinic
p2023
sg80
I5
sg81
VThe Counselor\u2122
p2024
sg83
VEFEFEF
p2025
sg85
Nsg87
I2733469417
sg88
V131516
p2026
sbsg90
I1
sg91
V<a href="http://twitter.com/download/iphone" rel="nofollow">Twitter for iPhone</a>
p2027
sg93
(lp2028
sg87
I543628949784625152
sbsg16
Nsg17
(lp2029
sg19
Nsg20
Nsg21
Nsg22
VSat Dec 13 09:37:15 +0000 2014
p2030
sg24
Nsg25
Nsg26
Nsg27
Nsg28
Nsg29
Nsg30
I00
sg31
Nsg32
(lp2031
g3
(g44
g5
Ntp2032
Rp2033
(dp2034
g10
Nsg49
Nsg51
Nsg53
Nsg55
Nsg56
Nsg22
Nsg58
Nsg59
Nsg61
Nsg63
Nsg64
Nsg65
Nsg66
Nsg67
Nsg68
Nsg70
Nsg71
Nsg72
Nsg74
Nsg75
Nsg76
Nsg78
Vanyclinic
p2035
sg80
Nsg81
VThe Counselor\u2122
p2036
sg83
Nsg85
Nsg87
I2733469417
sg88
Nsbag3
(g44
g5
Ntp2037
Rp2038
(dp2039
g10
Nsg49
Nsg51
Nsg53
Nsg55
Nsg56
Nsg22
Nsg58
Nsg59
Nsg61
Nsg63
Nsg64
Nsg65
Nsg66
Nsg67
Nsg68
Nsg70
Nsg71
Nsg72
Nsg74
Nsg75
Nsg76
Nsg78
VCIA
p2040
sg80
Nsg81
VCIA
p2041
sg83
Nsg85
Nsg87
I2359926157
sg88
Nsbasg34
Nsg35
V543701173057093632
p2042
sg37
Nsg38
VRT @anyclinic: Oh hi @CIA now is a great time to release some records of Obama's past, say let's start with his birthplace! &amp; thank u all f\u2026
p2043
sg40
I00
sg41
Ven
p2044
sg43
g3
(g44
g5
Ntp2045
Rp2046
(dp2047
g10
V \ufe3b\u2566\u2564\u2500\u2500   \ufe3b\u2566\u2564\u2500\u2500   \ufe3b\u2566\u2564\u2500\u2500   \ufe3b\u2566\u2564\u2500\u2500
p2048
sg49
V333333
p2049
sg51
Ven-gb
p2050
sg53
VLondon
p2051
sg55
I4552
sg56
I25702
sg22
VSat Mar 09 23:39:32 +0000 2013
p2052
sg58
I00
sg59
VPatriot, Army Veteran from 40 yrs ago, love my rescued dogs, rifles, pistols, and freedom. God Bless all US Armed Forces, Active,Vets,& Deceased. #NRA #PJNET
p2053
sg61
Vhttps://pbs.twimg.com/profile_images/542439961106997251/Qt0kA7_R_normal.jpeg
p2054
sg63
I4549
sg64
I8473
sg65
I0
sg66
Nsg67
I00
sg68
Vhttps://pbs.twimg.com/profile_banners/1255621518/1418165233
p2055
sg70
I00
sg71
I00
sg72
VBD1C1C
p2056
sg74
I00
sg75
I00
sg76
Vhttp://abs.twimg.com/images/themes/theme1/bg.png
p2057
sg78
Vcheapcigar
p2058
sg80
I85
sg81
VSublimin_Al
p2059
sg83
VDDEEF6
p2060
sg85
Vhttp://t.co/mFeQgMWOgQ
p2061
sg87
I1255621518
sg88
VC0DEED
p2062
sbsg90
I1
sg91
V<a href="http://twitter.com/download/iphone" rel="nofollow">Twitter for iPhone</a>
p2063
sg93
(lp2064
sg87
I543701173057093632
sbag3
(g4
g5
Ntp2065
Rp2066
(dp2067
g9
I0
sg10
Nsg11
Nsg12
(lp2068
g3
(g615
g5
Ntp2069
Rp2070
(dp2071
g619
VDemlogic
p2072
sbasg14
I00
sg15
g3
(g4
g5
Ntp2073
Rp2074
(dp2075
g9
I360
sg10
Nsg11
Nsg12
(lp2076
g3
(g615
g5
Ntp2077
Rp2078
(dp2079
g619
VDemlogic
p2080
sbasg14
I00
sg15
Nsg16
Nsg17
(lp2081
(dp2082
Vexpanded_url
p2083
Vhttp://twitter.com/MDColangelo/status/542472805435330562/photo/1
p2084
sVdisplay_url
p2085
Vpic.twitter.com/ltJ7sWpJ3N
p2086
sVurl
p2087
Vhttp://t.co/ltJ7sWpJ3N
p2088
sVmedia_url_https
p2089
Vhttps://pbs.twimg.com/media/B4dAIo5CMAAFeCN.jpg
p2090
sVid_str
p2091
V542472797281202176
p2092
sVsizes
p2093
(dp2094
Vsmall
p2095
(dp2096
Vh
p2097
I332
sVresize
p2098
Vfit
p2099
sVw
p2100
I340
ssVlarge
p2101
(dp2102
Vh
p2103
I479
sVresize
p2104
Vfit
p2105
sVw
p2106
I490
ssVmedium
p2107
(dp2108
Vh
p2109
I479
sVresize
p2110
Vfit
p2111
sVw
p2112
I490
ssVthumb
p2113
(dp2114
Vh
p2115
I150
sVresize
p2116
Vcrop
p2117
sVw
p2118
I150
sssVindices
p2119
(lp2120
I126
aI148
asVtype
p2121
Vphoto
p2122
sVid
p2123
I542472797281202176
sVmedia_url
p2124
Vhttp://pbs.twimg.com/media/B4dAIo5CMAAFeCN.jpg
p2125
sasg19
Nsg20
Nsg21
Nsg22
VWed Dec 10 00:16:10 +0000 2014
p2126
sg24
Nsg25
I00
sg26
Nsg27
Nsg28
Nsg29
Nsg30
I00
sg31
Nsg32
(lp2127
sg34
Nsg35
V542472805435330562
p2128
sg37
Nsg38
VWhat's worse..burned alive &amp;jumping to your death..or having water poured on your face &amp; sleep deprivation? #Demlogic http://t.co/ltJ7sWpJ3N
p2129
sg40
I00
sg41
Ven
p2130
sg43
g3
(g44
g5
Ntp2131
Rp2132
(dp2133
g10
VFredericksburg, Va
p2134
sg49
V333333
p2135
sg51
Ven
p2136
sg53
Nsg55
I1834
sg56
I2738
sg22
VFri Nov 01 01:22:44 +0000 2013
p2137
sg58
I00
sg59
VExec. Vice President of Johnson Realty Advisors |Community Service | Commercial Real Estate | Outdoors | Conservative | Good Wine | Good Food | Good Friends
p2138
sg61
Vhttps://pbs.twimg.com/profile_images/500974515053395968/dcQPfU5H_normal.jpeg
p2139
sg63
I2007
sg64
I4728
sg65
Nsg66
Nsg67
I00
sg68
Vhttps://pbs.twimg.com/profile_banners/2162637748/1406942907
p2140
sg70
I00
sg71
I00
sg72
V0084B4
p2141
sg74
I01
sg75
I00
sg76
Vhttp://abs.twimg.com/images/themes/theme1/bg.png
p2142
sg78
VMDColangelo
p2143
sg80
I15
sg81
VMichael D. Colangelo
p2144
sg83
VDDEEF6
p2145
sg85
Nsg87
I2162637748
sg88
VC0DEED
p2146
sbsg90
I604
sg91
V<a href="http://twitter.com/download/iphone" rel="nofollow">Twitter for iPhone</a>
p2147
sg93
(lp2148
sg87
I542472805435330562
sbsg16
Nsg17
(lp2149
(dp2150
Vsource_user_id
p2151
I2162637748
sVsource_status_id_str
p2152
V542472805435330562
p2153
sVexpanded_url
p2154
Vhttp://twitter.com/MDColangelo/status/542472805435330562/photo/1
p2155
sVdisplay_url
p2156
Vpic.twitter.com/ltJ7sWpJ3N
p2157
sVurl
p2158
Vhttp://t.co/ltJ7sWpJ3N
p2159
sVmedia_url_https
p2160
Vhttps://pbs.twimg.com/media/B4dAIo5CMAAFeCN.jpg
p2161
sVsource_user_id_str
p2162
V2162637748
p2163
sVsource_status_id
p2164
I542472805435330562
sVid_str
p2165
V542472797281202176
p2166
sVsizes
p2167
(dp2168
Vsmall
p2169
(dp2170
Vh
p2171
I332
sVresize
p2172
Vfit
p2173
sVw
p2174
I340
ssVlarge
p2175
(dp2176
Vh
p2177
I479
sVresize
p2178
Vfit
p2179
sVw
p2180
I490
ssVmedium
p2181
(dp2182
Vh
p2183
I479
sVresize
p2184
Vfit
p2185
sVw
p2186
I490
ssVthumb
p2187
(dp2188
Vh
p2189
I150
sVresize
p2190
Vcrop
p2191
sVw
p2192
I150
sssVindices
p2193
(lp2194
I147
aI148
asVtype
p2195
Vphoto
p2196
sVid
p2197
I542472797281202176
sVmedia_url
p2198
Vhttp://pbs.twimg.com/media/B4dAIo5CMAAFeCN.jpg
p2199
sasg19
Nsg20
Nsg21
Nsg22
VSat Dec 13 09:36:54 +0000 2014
p2200
sg24
Nsg25
I01
sg26
Nsg27
Nsg28
Nsg29
Nsg30
I00
sg31
Nsg32
(lp2201
g3
(g44
g5
Ntp2202
Rp2203
(dp2204
g10
Nsg49
Nsg51
Nsg53
Nsg55
Nsg56
Nsg22
Nsg58
Nsg59
Nsg61
Nsg63
Nsg64
Nsg65
Nsg66
Nsg67
Nsg68
Nsg70
Nsg71
Nsg72
Nsg74
Nsg75
Nsg76
Nsg78
VMDColangelo
p2205
sg80
Nsg81
VMichael D. Colangelo
p2206
sg83
Nsg85
Nsg87
I2162637748
sg88
Nsbasg34
Nsg35
V543701083731005440
p2207
sg37
Nsg38
VRT @MDColangelo: What's worse..burned alive &amp;jumping to your death..or having water poured on your face &amp; sleep deprivation? #Demlogic http\u2026
p2208
sg40
I00
sg41
Ven
p2209
sg43
g3
(g44
g5
Ntp2210
Rp2211
(dp2212
g10
V \ufe3b\u2566\u2564\u2500\u2500   \ufe3b\u2566\u2564\u2500\u2500   \ufe3b\u2566\u2564\u2500\u2500   \ufe3b\u2566\u2564\u2500\u2500
p2213
sg49
V333333
p2214
sg51
Ven-gb
p2215
sg53
VLondon
p2216
sg55
I4552
sg56
I25702
sg22
VSat Mar 09 23:39:32 +0000 2013
p2217
sg58
I00
sg59
VPatriot, Army Veteran from 40 yrs ago, love my rescued dogs, rifles, pistols, and freedom. God Bless all US Armed Forces, Active,Vets,& Deceased. #NRA #PJNET
p2218
sg61
Vhttps://pbs.twimg.com/profile_images/542439961106997251/Qt0kA7_R_normal.jpeg
p2219
sg63
I4549
sg64
I8473
sg65
I0
sg66
Nsg67
I00
sg68
Vhttps://pbs.twimg.com/profile_banners/1255621518/1418165233
p2220
sg70
I00
sg71
I00
sg72
VBD1C1C
p2221
sg74
I00
sg75
I00
sg76
Vhttp://abs.twimg.com/images/themes/theme1/bg.png
p2222
sg78
Vcheapcigar
p2223
sg80
I85
sg81
VSublimin_Al
p2224
sg83
VDDEEF6
p2225
sg85
Vhttp://t.co/mFeQgMWOgQ
p2226
sg87
I1255621518
sg88
VC0DEED
p2227
sbsg90
I604
sg91
V<a href="http://twitter.com/download/iphone" rel="nofollow">Twitter for iPhone</a>
p2228
sg93
(lp2229
sg87
I543701083731005440
sbag3
(g4
g5
Ntp2230
Rp2231
(dp2232
g9
I0
sg10
Nsg11
Nsg12
(lp2233
sg14
I00
sg15
Nsg16
Nsg17
(lp2234
sg19
Nsg20
Nsg21
Nsg22
VFri Dec 12 17:28:58 +0000 2014
p2235
sg24
Nsg25
Nsg26
Nsg27
Nsg28
Nsg29
Nsg30
I00
sg31
Nsg32
(lp2236
sg34
Nsg35
V543457494165913600
p2237
sg37
Nsg38
VIt seems as though blacks no longer seek equality.  They want to be the black crackas now, and dummy dem lib whites are helping them.
p2238
sg40
I00
sg41
Ven
p2239
sg43
g3
(g44
g5
Ntp2240
Rp2241
(dp2242
g10
V \ufe3b\u2566\u2564\u2500\u2500   \ufe3b\u2566\u2564\u2500\u2500   \ufe3b\u2566\u2564\u2500\u2500   \ufe3b\u2566\u2564\u2500\u2500
p2243
sg49
V333333
p2244
sg51
Ven-gb
p2245
sg53
VLondon
p2246
sg55
I4552
sg56
I25702
sg22
VSat Mar 09 23:39:32 +0000 2013
p2247
sg58
I00
sg59
VPatriot, Army Veteran from 40 yrs ago, love my rescued dogs, rifles, pistols, and freedom. God Bless all US Armed Forces, Active,Vets,& Deceased. #NRA #PJNET
p2248
sg61
Vhttps://pbs.twimg.com/profile_images/542439961106997251/Qt0kA7_R_normal.jpeg
p2249
sg63
I4549
sg64
I8473
sg65
I0
sg66
Nsg67
I00
sg68
Vhttps://pbs.twimg.com/profile_banners/1255621518/1418165233
p2250
sg70
I00
sg71
I00
sg72
VBD1C1C
p2251
sg74
I00
sg75
I00
sg76
Vhttp://abs.twimg.com/images/themes/theme1/bg.png
p2252
sg78
Vcheapcigar
p2253
sg80
I85
sg81
VSublimin_Al
p2254
sg83
VDDEEF6
p2255
sg85
Vhttp://t.co/mFeQgMWOgQ
p2256
sg87
I1255621518
sg88
VC0DEED
p2257
sbsg90
I0
sg91
V<a href="http://twitter.com" rel="nofollow">Twitter Web Client</a>
p2258
sg93
(lp2259
sg87
I543457494165913600
sbag3
(g4
g5
Ntp2260
Rp2261
(dp2262
g9
I0
sg10
Nsg11
Nsg12
(lp2263
sg14
I00
sg15
g3
(g4
g5
Ntp2264
Rp2265
(dp2266
g9
I3
sg10
Nsg11
Nsg12
(lp2267
sg14
I00
sg15
Nsg16
Nsg17
(lp2268
(dp2269
Vexpanded_url
p2270
Vhttp://twitter.com/DogoodII/status/543451533975646208/photo/1
p2271
sVdisplay_url
p2272
Vpic.twitter.com/i0VBZ7L8E2
p2273
sVurl
p2274
Vhttp://t.co/i0VBZ7L8E2
p2275
sVmedia_url_https
p2276
Vhttps://pbs.twimg.com/media/B4q6RrZCAAES_7_.png
p2277
sVid_str
p2278
V543451517919821825
p2279
sVsizes
p2280
(dp2281
Vlarge
p2282
(dp2283
Vh
p2284
I576
sVresize
p2285
Vfit
p2286
sVw
p2287
I1024
ssVsmall
p2288
(dp2289
Vh
p2290
I191
sVresize
p2291
Vfit
p2292
sVw
p2293
I340
ssVmedium
p2294
(dp2295
Vh
p2296
I337
sVresize
p2297
Vfit
p2298
sVw
p2299
I600
ssVthumb
p2300
(dp2301
Vh
p2302
I150
sVresize
p2303
Vcrop
p2304
sVw
p2305
I150
sssVindices
p2306
(lp2307
I88
aI110
asVtype
p2308
Vphoto
p2309
sVid
p2310
I543451517919821825
sVmedia_url
p2311
Vhttp://pbs.twimg.com/media/B4q6RrZCAAES_7_.png
p2312
sasg19
Nsg20
Nsg21
Nsg22
VFri Dec 12 17:05:17 +0000 2014
p2313
sg24
Nsg25
I00
sg26
Nsg27
Nsg28
Nsg29
Nsg30
I00
sg31
Nsg32
(lp2314
sg34
Nsg35
V543451533975646208
p2315
sg37
Nsg38
VFresh new leaders needed now. How can we help break the poverty cycle? No more BS talk, http://t.co/i0VBZ7L8E2
p2316
sg40
I00
sg41
Ven
p2317
sg43
g3
(g44
g5
Ntp2318
Rp2319
(dp2320
g10
VFreedom, USA
p2321
sg49
V333333
p2322
sg51
Ven
p2323
sg53
Nsg55
I1353
sg56
I9794
sg22
VSun Dec 15 15:05:02 +0000 2013
p2324
sg58
I00
sg59
VIn the spirit of Benjamin Franklin, who used the name Silence Dogood, to get his thoughts published in his local newspaper Letter to the Editor.
p2325
sg61
Vhttps://pbs.twimg.com/profile_images/459473197113417728/nwvBxG8D_normal.jpeg
p2326
sg63
I1981
sg64
I273
sg65
Nsg66
Nsg67
I00
sg68
Nsg70
I00
sg71
I00
sg72
V0084B4
p2327
sg74
I00
sg75
I00
sg76
Vhttp://abs.twimg.com/images/themes/theme1/bg.png
p2328
sg78
VDogoodII
p2329
sg80
I14
sg81
VSilence Dogood II
p2330
sg83
VDDEEF6
p2331
sg85
Nsg87
I2227207840
sg88
VC0DEED
p2332
sbsg90
I5
sg91
V<a href="http://twitter.com" rel="nofollow">Twitter Web Client</a>
p2333
sg93
(lp2334
sg87
I543451533975646208
sbsg16
Nsg17
(lp2335
(dp2336
Vsource_user_id
p2337
I2227207840
sVsource_status_id_str
p2338
V543451533975646208
p2339
sVexpanded_url
p2340
Vhttp://twitter.com/DogoodII/status/543451533975646208/photo/1
p2341
sVdisplay_url
p2342
Vpic.twitter.com/i0VBZ7L8E2
p2343
sVurl
p2344
Vhttp://t.co/i0VBZ7L8E2
p2345
sVmedia_url_https
p2346
Vhttps://pbs.twimg.com/media/B4q6RrZCAAES_7_.png
p2347
sVsource_user_id_str
p2348
V2227207840
p2349
sVsource_status_id
p2350
I543451533975646208
sVid_str
p2351
V543451517919821825
p2352
sVsizes
p2353
(dp2354
Vlarge
p2355
(dp2356
Vh
p2357
I576
sVresize
p2358
Vfit
p2359
sVw
p2360
I1024
ssVsmall
p2361
(dp2362
Vh
p2363
I191
sVresize
p2364
Vfit
p2365
sVw
p2366
I340
ssVmedium
p2367
(dp2368
Vh
p2369
I337
sVresize
p2370
Vfit
p2371
sVw
p2372
I600
ssVthumb
p2373
(dp2374
Vh
p2375
I150
sVresize
p2376
Vcrop
p2377
sVw
p2378
I150
sssVindices
p2379
(lp2380
I102
aI124
asVtype
p2381
Vphoto
p2382
sVid
p2383
I543451517919821825
sVmedia_url
p2384
Vhttp://pbs.twimg.com/media/B4q6RrZCAAES_7_.png
p2385
sasg19
Nsg20
Nsg21
Nsg22
VFri Dec 12 17:24:40 +0000 2014
p2386
sg24
Nsg25
I01
sg26
Nsg27
Nsg28
Nsg29
Nsg30
I00
sg31
Nsg32
(lp2387
g3
(g44
g5
Ntp2388
Rp2389
(dp2390
g10
Nsg49
Nsg51
Nsg53
Nsg55
Nsg56
Nsg22
Nsg58
Nsg59
Nsg61
Nsg63
Nsg64
Nsg65
Nsg66
Nsg67
Nsg68
Nsg70
Nsg71
Nsg72
Nsg74
Nsg75
Nsg76
Nsg78
VDogoodII
p2391
sg80
Nsg81
VSilence Dogood II
p2392
sg83
Nsg85
Nsg87
I2227207840
sg88
Nsbasg34
Nsg35
V543456414266826752
p2393
sg37
Nsg38
VRT @DogoodII: Fresh new leaders needed now. How can we help break the poverty cycle? No more BS talk, http://t.co/i0VBZ7L8E2
p2394
sg40
I00
sg41
Ven
p2395
sg43
g3
(g44
g5
Ntp2396
Rp2397
(dp2398
g10
V \ufe3b\u2566\u2564\u2500\u2500   \ufe3b\u2566\u2564\u2500\u2500   \ufe3b\u2566\u2564\u2500\u2500   \ufe3b\u2566\u2564\u2500\u2500
p2399
sg49
V333333
p2400
sg51
Ven-gb
p2401
sg53
VLondon
p2402
sg55
I4552
sg56
I25702
sg22
VSat Mar 09 23:39:32 +0000 2013
p2403
sg58
I00
sg59
VPatriot, Army Veteran from 40 yrs ago, love my rescued dogs, rifles, pistols, and freedom. God Bless all US Armed Forces, Active,Vets,& Deceased. #NRA #PJNET
p2404
sg61
Vhttps://pbs.twimg.com/profile_images/542439961106997251/Qt0kA7_R_normal.jpeg
p2405
sg63
I4549
sg64
I8473
sg65
I0
sg66
Nsg67
I00
sg68
Vhttps://pbs.twimg.com/profile_banners/1255621518/1418165233
p2406
sg70
I00
sg71
I00
sg72
VBD1C1C
p2407
sg74
I00
sg75
I00
sg76
Vhttp://abs.twimg.com/images/themes/theme1/bg.png
p2408
sg78
Vcheapcigar
p2409
sg80
I85
sg81
VSublimin_Al
p2410
sg83
VDDEEF6
p2411
sg85
Vhttp://t.co/mFeQgMWOgQ
p2412
sg87
I1255621518
sg88
VC0DEED
p2413
sbsg90
I5
sg91
V<a href="http://twitter.com" rel="nofollow">Twitter Web Client</a>
p2414
sg93
(lp2415
sg87
I543456414266826752
sbag3
(g4
g5
Ntp2416
Rp2417
(dp2418
g9
I0
sg10
Nsg11
Nsg12
(lp2419
sg14
I00
sg15
Nsg16
Nsg17
(lp2420
sg19
Nsg20
Nsg21
Nsg22
VFri Dec 12 17:22:59 +0000 2014
p2421
sg24
Nsg25
Nsg26
Vmarthamaccallum
p2422
sg27
Nsg28
I46681100
sg29
Nsg30
I00
sg31
Nsg32
(lp2423
g3
(g44
g5
Ntp2424
Rp2425
(dp2426
g10
Nsg49
Nsg51
Nsg53
Nsg55
Nsg56
Nsg22
Nsg58
Nsg59
Nsg61
Nsg63
Nsg64
Nsg65
Nsg66
Nsg67
Nsg68
Nsg70
Nsg71
Nsg72
Nsg74
Nsg75
Nsg76
Nsg78
Vmarthamaccallum
p2427
sg80
Nsg81
Vmartha maccallum
p2428
sg83
Nsg85
Nsg87
I46681100
sg88
Nsbag3
(g44
g5
Ntp2429
Rp2430
(dp2431
g10
Nsg49
Nsg51
Nsg53
Nsg55
Nsg56
Nsg22
Nsg58
Nsg59
Nsg61
Nsg63
Nsg64
Nsg65
Nsg66
Nsg67
Nsg68
Nsg70
Nsg71
Nsg72
Nsg74
Nsg75
Nsg76
Nsg78
VOmegaMan58
p2432
sg80
Nsg81
VRobert Neville
p2433
sg83
Nsg85
Nsg87
I1206885618
sg88
Nsbasg34
Nsg35
V543455989241237504
p2434
sg37
I543387532357271552
sg38
V@marthamaccallum @OmegaMan58  $40 million isn't as much as it used to be.  It only purchases 3 dozen luxury yachts for the Senators.
p2435
sg40
I00
sg41
Ven
p2436
sg43
g3
(g44
g5
Ntp2437
Rp2438
(dp2439
g10
V \ufe3b\u2566\u2564\u2500\u2500   \ufe3b\u2566\u2564\u2500\u2500   \ufe3b\u2566\u2564\u2500\u2500   \ufe3b\u2566\u2564\u2500\u2500
p2440
sg49
V333333
p2441
sg51
Ven-gb
p2442
sg53
VLondon
p2443
sg55
I4552
sg56
I25702
sg22
VSat Mar 09 23:39:32 +0000 2013
p2444
sg58
I00
sg59
VPatriot, Army Veteran from 40 yrs ago, love my rescued dogs, rifles, pistols, and freedom. God Bless all US Armed Forces, Active,Vets,& Deceased. #NRA #PJNET
p2445
sg61
Vhttps://pbs.twimg.com/profile_images/542439961106997251/Qt0kA7_R_normal.jpeg
p2446
sg63
I4549
sg64
I8473
sg65
I0
sg66
Nsg67
I00
sg68
Vhttps://pbs.twimg.com/profile_banners/1255621518/1418165233
p2447
sg70
I00
sg71
I00
sg72
VBD1C1C
p2448
sg74
I00
sg75
I00
sg76
Vhttp://abs.twimg.com/images/themes/theme1/bg.png
p2449
sg78
Vcheapcigar
p2450
sg80
I85
sg81
VSublimin_Al
p2451
sg83
VDDEEF6
p2452
sg85
Vhttp://t.co/mFeQgMWOgQ
p2453
sg87
I1255621518
sg88
VC0DEED
p2454
sbsg90
I0
sg91
V<a href="http://twitter.com" rel="nofollow">Twitter Web Client</a>
p2455
sg93
(lp2456
sg87
I543455989241237504
sbag3
(g4
g5
Ntp2457
Rp2458
(dp2459
g9
I0
sg10
Nsg11
Nsg12
(lp2460
sg14
I00
sg15
g3
(g4
g5
Ntp2461
Rp2462
(dp2463
g9
I209
sg10
Nsg11
Nsg12
(lp2464
sg14
I00
sg15
Nsg16
Nsg17
(lp2465
sg19
Nsg20
Nsg21
Nsg22
VFri Dec 12 12:50:58 +0000 2014
p2466
sg24
Nsg25
Nsg26
Nsg27
Nsg28
Nsg29
Nsg30
I00
sg31
Nsg32
(lp2467
sg34
Nsg35
V543387532357271552
p2468
sg37
Nsg38
VWhy did it cost $40 million to produce "Torture Report" - compiled by Dem senate staff. Don't they get paid a salary?
p2469
sg40
I00
sg41
Ven
p2470
sg43
g3
(g44
g5
Ntp2471
Rp2472
(dp2473
g10
VNew York NY
p2474
sg49
V333333
p2475
sg51
Ven
p2476
sg53
VCentral Time (US & Canada)
p2477
sg55
I160141
sg56
I2920
sg22
VFri Jun 12 15:56:49 +0000 2009
p2478
sg58
I01
sg59
V@AmericaNewsroom Anchor,  @FoxNews,  Jersey girl and St. Lawrence University grad. Love Dan, my 3 beautiful kids, politics, sports and theater.
p2479
sg61
Vhttps://pbs.twimg.com/profile_images/414889836424986624/OZ0wGNDK_normal.jpeg
p2480
sg63
I236
sg64
I8
sg65
I-21600
sg66
Nsg67
I00
sg68
Vhttps://pbs.twimg.com/profile_banners/46681100/1409066202
p2481
sg70
I00
sg71
I00
sg72
V0084B4
p2482
sg74
I01
sg75
I00
sg76
Vhttp://pbs.twimg.com/profile_background_images/439075807919484928/m6Y_Ssbd.png
p2483
sg78
Vmarthamaccallum
p2484
sg80
I2089
sg81
Vmartha maccallum
p2485
sg83
VDDEEF6
p2486
sg85
Nsg87
I46681100
sg88
VC0DEED
p2487
sbsg90
I322
sg91
V<a href="http://twitter.com" rel="nofollow">Twitter Web Client</a>
p2488
sg93
(lp2489
sg87
I543387532357271552
sbsg16
Nsg17
(lp2490
sg19
Nsg20
Nsg21
Nsg22
VFri Dec 12 17:20:55 +0000 2014
p2491
sg24
Nsg25
Nsg26
Nsg27
Nsg28
Nsg29
Nsg30
I00
sg31
Nsg32
(lp2492
g3
(g44
g5
Ntp2493
Rp2494
(dp2495
g10
Nsg49
Nsg51
Nsg53
Nsg55
Nsg56
Nsg22
Nsg58
Nsg59
Nsg61
Nsg63
Nsg64
Nsg65
Nsg66
Nsg67
Nsg68
Nsg70
Nsg71
Nsg72
Nsg74
Nsg75
Nsg76
Nsg78
Vmarthamaccallum
p2496
sg80
Nsg81
Vmartha maccallum
p2497
sg83
Nsg85
Nsg87
I46681100
sg88
Nsbasg34
Nsg35
V543455471341146112
p2498
sg37
Nsg38
VRT @marthamaccallum: Why did it cost $40 million to produce "Torture Report" - compiled by Dem senate staff. Don't they get paid a salary?
p2499
sg40
I00
sg41
Ven
p2500
sg43
g3
(g44
g5
Ntp2501
Rp2502
(dp2503
g10
V \ufe3b\u2566\u2564\u2500\u2500   \ufe3b\u2566\u2564\u2500\u2500   \ufe3b\u2566\u2564\u2500\u2500   \ufe3b\u2566\u2564\u2500\u2500
p2504
sg49
V333333
p2505
sg51
Ven-gb
p2506
sg53
VLondon
p2507
sg55
I4552
sg56
I25702
sg22
VSat Mar 09 23:39:32 +0000 2013
p2508
sg58
I00
sg59
VPatriot, Army Veteran from 40 yrs ago, love my rescued dogs, rifles, pistols, and freedom. God Bless all US Armed Forces, Active,Vets,& Deceased. #NRA #PJNET
p2509
sg61
Vhttps://pbs.twimg.com/profile_images/542439961106997251/Qt0kA7_R_normal.jpeg
p2510
sg63
I4549
sg64
I8473
sg65
I0
sg66
Nsg67
I00
sg68
Vhttps://pbs.twimg.com/profile_banners/1255621518/1418165233
p2511
sg70
I00
sg71
I00
sg72
VBD1C1C
p2512
sg74
I00
sg75
I00
sg76
Vhttp://abs.twimg.com/images/themes/theme1/bg.png
p2513
sg78
Vcheapcigar
p2514
sg80
I85
sg81
VSublimin_Al
p2515
sg83
VDDEEF6
p2516
sg85
Vhttp://t.co/mFeQgMWOgQ
p2517
sg87
I1255621518
sg88
VC0DEED
p2518
sbsg90
I322
sg91
V<a href="http://twitter.com" rel="nofollow">Twitter Web Client</a>
p2519
sg93
(lp2520
sg87
I543455471341146112
sbag3
(g4
g5
Ntp2521
Rp2522
(dp2523
g9
I0
sg10
Nsg11
Nsg12
(lp2524
sg14
I00
sg15
g3
(g4
g5
Ntp2525
Rp2526
(dp2527
g9
I0
sg10
Nsg11
Nsg12
(lp2528
sg14
I00
sg15
Nsg16
Nsg17
(lp2529
sg19
Nsg20
Nsg21
Nsg22
VFri Dec 12 17:17:39 +0000 2014
p2530
sg24
Nsg25
I00
sg26
Nsg27
Nsg28
Nsg29
Nsg30
I00
sg31
Nsg32
(lp2531
sg34
Nsg35
V543454649022676992
p2532
sg37
Nsg38
VBibi Netanyahu Utterly Destroyed Obama With THESE Six Words via Conservative Tribune - For the ... http://t.co/mTuZNrC4WG
p2533
sg40
I00
sg41
Ven
p2534
sg43
g3
(g44
g5
Ntp2535
Rp2536
(dp2537
g10
V New Jersey
p2538
sg49
V000000
p2539
sg51
Ven
p2540
sg53
Nsg55
I2552
sg56
I30736
sg22
VMon Feb 28 20:01:35 +0000 2011
p2541
sg58
I00
sg59
VOATHKEEPER \u000a\u039c\u039f\u039b\u03a9\u039d \u039b\u0391\u0392\u0395
p2542
sg61
Vhttps://pbs.twimg.com/profile_images/453018873298964480/Op-Py2_X_normal.jpeg
p2543
sg63
I2453
sg64
I4668
sg65
Nsg66
Nsg67
I00
sg68
Vhttps://pbs.twimg.com/profile_banners/258921256/1409238680
p2544
sg70
I00
sg71
I00
sg72
V0084B4
p2545
sg74
I01
sg75
I00
sg76
Vhttp://abs.twimg.com/images/themes/theme1/bg.png
p2546
sg78
VLuigiDario1o
p2547
sg80
I40
sg81
VLuigi
p2548
sg83
V000000
p2549
sg85
Vhttp://t.co/jroOinPTWV
p2550
sg87
I258921256
sg88
V000000
p2551
sbsg90
I3
sg91
V<a href="http://linkis.com" rel="nofollow">Linkis.com</a>
p2552
sg93
(lp2553
g3
(g95
g5
Ntp2554
Rp2555
(dp2556
g99
Vhttp://t.co/mTuZNrC4WG
p2557
sg101
Vhttp://ln.is/tinyurl.com/YT8Vw
p2558
sbasg87
I543454649022676992
sbsg16
Nsg17
(lp2559
sg19
Nsg20
Nsg21
Nsg22
VFri Dec 12 17:19:42 +0000 2014
p2560
sg24
Nsg25
I01
sg26
Nsg27
Nsg28
Nsg29
Nsg30
I00
sg31
Nsg32
(lp2561
g3
(g44
g5
Ntp2562
Rp2563
(dp2564
g10
Nsg49
Nsg51
Nsg53
Nsg55
Nsg56
Nsg22
Nsg58
Nsg59
Nsg61
Nsg63
Nsg64
Nsg65
Nsg66
Nsg67
Nsg68
Nsg70
Nsg71
Nsg72
Nsg74
Nsg75
Nsg76
Nsg78
VLuigiDario1o
p2565
sg80
Nsg81
VLuigi
p2566
sg83
Nsg85
Nsg87
I258921256
sg88
Nsbasg34
Nsg35
V543455163827355649
p2567
sg37
Nsg38
VRT @LuigiDario1o: Bibi Netanyahu Utterly Destroyed Obama With THESE Six Words via Conservative Tribune - For the ... http://t.co/mTuZNrC4WG
p2568
sg40
I00
sg41
Ven
p2569
sg43
g3
(g44
g5
Ntp2570
Rp2571
(dp2572
g10
V \ufe3b\u2566\u2564\u2500\u2500   \ufe3b\u2566\u2564\u2500\u2500   \ufe3b\u2566\u2564\u2500\u2500   \ufe3b\u2566\u2564\u2500\u2500
p2573
sg49
V333333
p2574
sg51
Ven-gb
p2575
sg53
VLondon
p2576
sg55
I4552
sg56
I25702
sg22
VSat Mar 09 23:39:32 +0000 2013
p2577
sg58
I00
sg59
VPatriot, Army Veteran from 40 yrs ago, love my rescued dogs, rifles, pistols, and freedom. God Bless all US Armed Forces, Active,Vets,& Deceased. #NRA #PJNET
p2578
sg61
Vhttps://pbs.twimg.com/profile_images/542439961106997251/Qt0kA7_R_normal.jpeg
p2579
sg63
I4549
sg64
I8473
sg65
I0
sg66
Nsg67
I00
sg68
Vhttps://pbs.twimg.com/profile_banners/1255621518/1418165233
p2580
sg70
I00
sg71
I00
sg72
VBD1C1C
p2581
sg74
I00
sg75
I00
sg76
Vhttp://abs.twimg.com/images/themes/theme1/bg.png
p2582
sg78
Vcheapcigar
p2583
sg80
I85
sg81
VSublimin_Al
p2584
sg83
VDDEEF6
p2585
sg85
Vhttp://t.co/mFeQgMWOgQ
p2586
sg87
I1255621518
sg88
VC0DEED
p2587
sbsg90
I3
sg91
V<a href="http://twitter.com" rel="nofollow">Twitter Web Client</a>
p2588
sg93
(lp2589
g3
(g95
g5
Ntp2590
Rp2591
(dp2592
g99
Vhttp://t.co/mTuZNrC4WG
p2593
sg101
Vhttp://ln.is/tinyurl.com/YT8Vw
p2594
sbasg87
I543455163827355649
sbag3
(g4
g5
Ntp2595
Rp2596
(dp2597
g9
I0
sg10
Nsg11
Nsg12
(lp2598
g3
(g615
g5
Ntp2599
Rp2600
(dp2601
g619
Vff
p2602
sbasg14
I00
sg15
g3
(g4
g5
Ntp2603
Rp2604
(dp2605
g9
I4
sg10
Nsg11
Nsg12
(lp2606
g3
(g615
g5
Ntp2607
Rp2608
(dp2609
g619
Vff
p2610
sbasg14
I00
sg15
Nsg16
Nsg17
(lp2611
sg19
Nsg20
Nsg21
Nsg22
VFri Dec 12 17:04:29 +0000 2014
p2612
sg24
Nsg25
Nsg26
Nsg27
Nsg28
Nsg29
Nsg30
I00
sg31
Nsg32
(lp2613
g3
(g44
g5
Ntp2614
Rp2615
(dp2616
g10
Nsg49
Nsg51
Nsg53
Nsg55
Nsg56
Nsg22
Nsg58
Nsg59
Nsg61
Nsg63
Nsg64
Nsg65
Nsg66
Nsg67
Nsg68
Nsg70
Nsg71
Nsg72
Nsg74
Nsg75
Nsg76
Nsg78
VGenesSmile
p2617
sg80
Nsg81
VKrissy Chase
p2618
sg83
Nsg85
Nsg87
I74827928
sg88
Nsbag3
(g44
g5
Ntp2619
Rp2620
(dp2621
g10
Nsg49
Nsg51
Nsg53
Nsg55
Nsg56
Nsg22
Nsg58
Nsg59
Nsg61
Nsg63
Nsg64
Nsg65
Nsg66
Nsg67
Nsg68
Nsg70
Nsg71
Nsg72
Nsg74
Nsg75
Nsg76
Nsg78
VGreen_Star1
p2622
sg80
Nsg81
VRalph E McCrum
p2623
sg83
Nsg85
Nsg87
I53590352
sg88
Nsbag3
(g44
g5
Ntp2624
Rp2625
(dp2626
g10
Nsg49
Nsg51
Nsg53
Nsg55
Nsg56
Nsg22
Nsg58
Nsg59
Nsg61
Nsg63
Nsg64
Nsg65
Nsg66
Nsg67
Nsg68
Nsg70
Nsg71
Nsg72
Nsg74
Nsg75
Nsg76
Nsg78
VShaunTrades
p2627
sg80
Nsg81
VMoney Talks
p2628
sg83
Nsg85
Nsg87
I213315220
sg88
Nsbag3
(g44
g5
Ntp2629
Rp2630
(dp2631
g10
Nsg49
Nsg51
Nsg53
Nsg55
Nsg56
Nsg22
Nsg58
Nsg59
Nsg61
Nsg63
Nsg64
Nsg65
Nsg66
Nsg67
Nsg68
Nsg70
Nsg71
Nsg72
Nsg74
Nsg75
Nsg76
Nsg78
Vcheapcigar
p2632
sg80
Nsg81
VSublimin_Al
p2633
sg83
Nsg85
Nsg87
I1255621518
sg88
Nsbag3
(g44
g5
Ntp2634
Rp2635
(dp2636
g10
Nsg49
Nsg51
Nsg53
Nsg55
Nsg56
Nsg22
Nsg58
Nsg59
Nsg61
Nsg63
Nsg64
Nsg65
Nsg66
Nsg67
Nsg68
Nsg70
Nsg71
Nsg72
Nsg74
Nsg75
Nsg76
Nsg78
VWANAGL
p2637
sg80
Nsg81
VWANAGL #OiP 
p2638
sg83
Nsg85
Nsg87
I719756991
sg88
Nsbag3
(g44
g5
Ntp2639
Rp2640
(dp2641
g10
Nsg49
Nsg51
Nsg53
Nsg55
Nsg56
Nsg22
Nsg58
Nsg59
Nsg61
Nsg63
Nsg64
Nsg65
Nsg66
Nsg67
Nsg68
Nsg70
Nsg71
Nsg72
Nsg74
Nsg75
Nsg76
Nsg78
Vtexasflutegal
p2642
sg80
Nsg81
VJeannette Burleigh
p2643
sg83
Nsg85
Nsg87
I156791542
sg88
Nsbag3
(g44
g5
Ntp2644
Rp2645
(dp2646
g10
Nsg49
Nsg51
Nsg53
Nsg55
Nsg56
Nsg22
Nsg58
Nsg59
Nsg61
Nsg63
Nsg64
Nsg65
Nsg66
Nsg67
Nsg68
Nsg70
Nsg71
Nsg72
Nsg74
Nsg75
Nsg76
Nsg78
VSuperman6869
p2647
sg80
Nsg81
VSuperman
p2648
sg83
Nsg85
Nsg87
I137820750
sg88
Nsbag3
(g44
g5
Ntp2649
Rp2650
(dp2651
g10
Nsg49
Nsg51
Nsg53
Nsg55
Nsg56
Nsg22
Nsg58
Nsg59
Nsg61
Nsg63
Nsg64
Nsg65
Nsg66
Nsg67
Nsg68
Nsg70
Nsg71
Nsg72
Nsg74
Nsg75
Nsg76
Nsg78
VQueen_V1216
p2652
sg80
Nsg81
VVickie Barnachea
p2653
sg83
Nsg85
Nsg87
I265645992
sg88
Nsbag3
(g44
g5
Ntp2654
Rp2655
(dp2656
g10
Nsg49
Nsg51
Nsg53
Nsg55
Nsg56
Nsg22
Nsg58
Nsg59
Nsg61
Nsg63
Nsg64
Nsg65
Nsg66
Nsg67
Nsg68
Nsg70
Nsg71
Nsg72
Nsg74
Nsg75
Nsg76
Nsg78
VTrickerKeeTs
p2657
sg80
Nsg81
VTricker KeeTs
p2658
sg83
Nsg85
Nsg87
I2738347879
sg88
Nsbag3
(g44
g5
Ntp2659
Rp2660
(dp2661
g10
Nsg49
Nsg51
Nsg53
Nsg55
Nsg56
Nsg22
Nsg58
Nsg59
Nsg61
Nsg63
Nsg64
Nsg65
Nsg66
Nsg67
Nsg68
Nsg70
Nsg71
Nsg72
Nsg74
Nsg75
Nsg76
Nsg78
Vyrwol7
p2662
sg80
Nsg81
VColleen White 
p2663
sg83
Nsg85
Nsg87
I412776430
sg88
Nsbag3
(g44
g5
Ntp2664
Rp2665
(dp2666
g10
Nsg49
Nsg51
Nsg53
Nsg55
Nsg56
Nsg22
Nsg58
Nsg59
Nsg61
Nsg63
Nsg64
Nsg65
Nsg66
Nsg67
Nsg68
Nsg70
Nsg71
Nsg72
Nsg74
Nsg75
Nsg76
Nsg78
VDaggy1
p2667
sg80
Nsg81
VDagwood Bumstead
p2668
sg83
Nsg85
Nsg87
I24305174
sg88
Nsbasg34
Nsg35
V543451334599782400
p2669
sg37
Nsg38
V#ff @GenesSmile @Green_Star1 @ShaunTrades @cheapcigar @WANAGL @texasflutegal @Superman6869 @Queen_V1216 @TrickerKeeTs @yrwol7 @Daggy1
p2670
sg40
I00
sg41
Vund
p2671
sg43
g3
(g44
g5
Ntp2672
Rp2673
(dp2674
g10
VNew York: Behind enemy lines
p2675
sg49
V895429
p2676
sg51
Ven
p2677
sg53
VQuito
p2678
sg55
I7887
sg56
I40147
sg22
VThu Apr 30 14:59:16 +0000 2009
p2679
sg58
I00
sg59
VFree Markets, Libertarian, Constitution, Science, Politics, TEA Party.  The Republic is threatened; No one may stand idle.
p2680
sg61
Vhttps://pbs.twimg.com/profile_images/1522440980/9c1f68d8-f920-4c08-ad95-7addf28b5833_normal.png
p2681
sg63
I8299
sg64
I317
sg65
I-18000
sg66
Nsg67
I00
sg68
Vhttps://pbs.twimg.com/profile_banners/36681617/1394949487
p2682
sg70
I00
sg71
I00
sg72
V39BD91
p2683
sg74
I00
sg75
I00
sg76
Vhttp://pbs.twimg.com/profile_background_images/263722096/x4767c8d7a44c41d8d6b5571c8513098.jpg
p2684
sg78
Vgatman7
p2685
sg80
I144
sg81
VGeorge Thompson
p2686
sg83
VD9F7B2
p2687
sg85
Nsg87
I36681617
sg88
VE2ED4C
p2688
sbsg90
I4
sg91
V<a href="https://market.android.com/details?id=com.msi.followhelper" rel="nofollow">Android Follow Friday Assistant</a>
p2689
sg93
(lp2690
sg87
I543451334599782400
sbsg16
Nsg17
(lp2691
sg19
Nsg20
Nsg21
Nsg22
VFri Dec 12 17:13:23 +0000 2014
p2692
sg24
Nsg25
Nsg26
Nsg27
Nsg28
Nsg29
Nsg30
I00
sg31
Nsg32
(lp2693
g3
(g44
g5
Ntp2694
Rp2695
(dp2696
g10
Nsg49
Nsg51
Nsg53
Nsg55
Nsg56
Nsg22
Nsg58
Nsg59
Nsg61
Nsg63
Nsg64
Nsg65
Nsg66
Nsg67
Nsg68
Nsg70
Nsg71
Nsg72
Nsg74
Nsg75
Nsg76
Nsg78
Vgatman7
p2697
sg80
Nsg81
VGeorge Thompson
p2698
sg83
Nsg85
Nsg87
I36681617
sg88
Nsbag3
(g44
g5
Ntp2699
Rp2700
(dp2701
g10
Nsg49
Nsg51
Nsg53
Nsg55
Nsg56
Nsg22
Nsg58
Nsg59
Nsg61
Nsg63
Nsg64
Nsg65
Nsg66
Nsg67
Nsg68
Nsg70
Nsg71
Nsg72
Nsg74
Nsg75
Nsg76
Nsg78
VGenesSmile
p2702
sg80
Nsg81
VKrissy Chase
p2703
sg83
Nsg85
Nsg87
I74827928
sg88
Nsbag3
(g44
g5
Ntp2704
Rp2705
(dp2706
g10
Nsg49
Nsg51
Nsg53
Nsg55
Nsg56
Nsg22
Nsg58
Nsg59
Nsg61
Nsg63
Nsg64
Nsg65
Nsg66
Nsg67
Nsg68
Nsg70
Nsg71
Nsg72
Nsg74
Nsg75
Nsg76
Nsg78
VGreen_Star1
p2707
sg80
Nsg81
VRalph E McCrum
p2708
sg83
Nsg85
Nsg87
I53590352
sg88
Nsbag3
(g44
g5
Ntp2709
Rp2710
(dp2711
g10
Nsg49
Nsg51
Nsg53
Nsg55
Nsg56
Nsg22
Nsg58
Nsg59
Nsg61
Nsg63
Nsg64
Nsg65
Nsg66
Nsg67
Nsg68
Nsg70
Nsg71
Nsg72
Nsg74
Nsg75
Nsg76
Nsg78
VShaunTrades
p2712
sg80
Nsg81
VMoney Talks
p2713
sg83
Nsg85
Nsg87
I213315220
sg88
Nsbag3
(g44
g5
Ntp2714
Rp2715
(dp2716
g10
Nsg49
Nsg51
Nsg53
Nsg55
Nsg56
Nsg22
Nsg58
Nsg59
Nsg61
Nsg63
Nsg64
Nsg65
Nsg66
Nsg67
Nsg68
Nsg70
Nsg71
Nsg72
Nsg74
Nsg75
Nsg76
Nsg78
Vcheapcigar
p2717
sg80
Nsg81
VSublimin_Al
p2718
sg83
Nsg85
Nsg87
I1255621518
sg88
Nsbag3
(g44
g5
Ntp2719
Rp2720
(dp2721
g10
Nsg49
Nsg51
Nsg53
Nsg55
Nsg56
Nsg22
Nsg58
Nsg59
Nsg61
Nsg63
Nsg64
Nsg65
Nsg66
Nsg67
Nsg68
Nsg70
Nsg71
Nsg72
Nsg74
Nsg75
Nsg76
Nsg78
VWANAGL
p2722
sg80
Nsg81
VWANAGL #OiP 
p2723
sg83
Nsg85
Nsg87
I719756991
sg88
Nsbag3
(g44
g5
Ntp2724
Rp2725
(dp2726
g10
Nsg49
Nsg51
Nsg53
Nsg55
Nsg56
Nsg22
Nsg58
Nsg59
Nsg61
Nsg63
Nsg64
Nsg65
Nsg66
Nsg67
Nsg68
Nsg70
Nsg71
Nsg72
Nsg74
Nsg75
Nsg76
Nsg78
Vtexasflutegal
p2727
sg80
Nsg81
VJeannette Burleigh
p2728
sg83
Nsg85
Nsg87
I156791542
sg88
Nsbag3
(g44
g5
Ntp2729
Rp2730
(dp2731
g10
Nsg49
Nsg51
Nsg53
Nsg55
Nsg56
Nsg22
Nsg58
Nsg59
Nsg61
Nsg63
Nsg64
Nsg65
Nsg66
Nsg67
Nsg68
Nsg70
Nsg71
Nsg72
Nsg74
Nsg75
Nsg76
Nsg78
VSuperman6869
p2732
sg80
Nsg81
VSuperman
p2733
sg83
Nsg85
Nsg87
I137820750
sg88
Nsbag3
(g44
g5
Ntp2734
Rp2735
(dp2736
g10
Nsg49
Nsg51
Nsg53
Nsg55
Nsg56
Nsg22
Nsg58
Nsg59
Nsg61
Nsg63
Nsg64
Nsg65
Nsg66
Nsg67
Nsg68
Nsg70
Nsg71
Nsg72
Nsg74
Nsg75
Nsg76
Nsg78
VQueen_V1216
p2737
sg80
Nsg81
VVickie Barnachea
p2738
sg83
Nsg85
Nsg87
I265645992
sg88
Nsbag3
(g44
g5
Ntp2739
Rp2740
(dp2741
g10
Nsg49
Nsg51
Nsg53
Nsg55
Nsg56
Nsg22
Nsg58
Nsg59
Nsg61
Nsg63
Nsg64
Nsg65
Nsg66
Nsg67
Nsg68
Nsg70
Nsg71
Nsg72
Nsg74
Nsg75
Nsg76
Nsg78
VTrickerKeeTs
p2742
sg80
Nsg81
VTricker KeeTs
p2743
sg83
Nsg85
Nsg87
I2738347879
sg88
Nsbag3
(g44
g5
Ntp2744
Rp2745
(dp2746
g10
Nsg49
Nsg51
Nsg53
Nsg55
Nsg56
Nsg22
Nsg58
Nsg59
Nsg61
Nsg63
Nsg64
Nsg65
Nsg66
Nsg67
Nsg68
Nsg70
Nsg71
Nsg72
Nsg74
Nsg75
Nsg76
Nsg78
Vyrwol7
p2747
sg80
Nsg81
VColleen White 
p2748
sg83
Nsg85
Nsg87
I412776430
sg88
Nsbag3
(g44
g5
Ntp2749
Rp2750
(dp2751
g10
Nsg49
Nsg51
Nsg53
Nsg55
Nsg56
Nsg22
Nsg58
Nsg59
Nsg61
Nsg63
Nsg64
Nsg65
Nsg66
Nsg67
Nsg68
Nsg70
Nsg71
Nsg72
Nsg74
Nsg75
Nsg76
Nsg78
VDaggy1
p2752
sg80
Nsg81
VDagwood Bumstead
p2753
sg83
Nsg85
Nsg87
I24305174
sg88
Nsbasg34
Nsg35
V543453572957237248
p2754
sg37
Nsg38
VRT @gatman7: #ff @GenesSmile @Green_Star1 @ShaunTrades @cheapcigar @WANAGL @texasflutegal @Superman6869 @Queen_V1216 @TrickerKeeTs @yrwol7 \u2026
p2755
sg40
I00
sg41
Vund
p2756
sg43
g3
(g44
g5
Ntp2757
Rp2758
(dp2759
g10
V \ufe3b\u2566\u2564\u2500\u2500   \ufe3b\u2566\u2564\u2500\u2500   \ufe3b\u2566\u2564\u2500\u2500   \ufe3b\u2566\u2564\u2500\u2500
p2760
sg49
V333333
p2761
sg51
Ven-gb
p2762
sg53
VLondon
p2763
sg55
I4552
sg56
I25702
sg22
VSat Mar 09 23:39:32 +0000 2013
p2764
sg58
I00
sg59
VPatriot, Army Veteran from 40 yrs ago, love my rescued dogs, rifles, pistols, and freedom. God Bless all US Armed Forces, Active,Vets,& Deceased. #NRA #PJNET
p2765
sg61
Vhttps://pbs.twimg.com/profile_images/542439961106997251/Qt0kA7_R_normal.jpeg
p2766
sg63
I4549
sg64
I8473
sg65
I0
sg66
Nsg67
I00
sg68
Vhttps://pbs.twimg.com/profile_banners/1255621518/1418165233
p2767
sg70
I00
sg71
I00
sg72
VBD1C1C
p2768
sg74
I00
sg75
I00
sg76
Vhttp://abs.twimg.com/images/themes/theme1/bg.png
p2769
sg78
Vcheapcigar
p2770
sg80
I85
sg81
VSublimin_Al
p2771
sg83
VDDEEF6
p2772
sg85
Vhttp://t.co/mFeQgMWOgQ
p2773
sg87
I1255621518
sg88
VC0DEED
p2774
sbsg90
I4
sg91
V<a href="http://twitter.com" rel="nofollow">Twitter Web Client</a>
p2775
sg93
(lp2776
sg87
I543453572957237248
sbaa.