(lp0
S'BBC4service'
p1
a(lp2
ccopy_reg
_reconstructor
p3
(ctwitter
Status
p4
c__builtin__
object
p5
Ntp6
Rp7
(dp8
S'_favorite_count'
p9
I0
sS'_location'
p10
NsS'_withheld_scope'
p11
NsS'hashtags'
p12
(lp13
g3
(ctwitter
Hashtag
p14
g5
Ntp15
Rp16
(dp17
S'text'
p18
VSquirting
p19
sbag3
(g14
g5
Ntp20
Rp21
(dp22
g18
VEjaculation
p23
sbag3
(g14
g5
Ntp24
Rp25
(dp26
g18
VPussy
p27
sbasS'_truncated'
p28
I00
sS'_retweeted_status'
p29
g3
(g4
g5
Ntp30
Rp31
(dp32
g9
I58
sg10
Nsg11
Nsg12
(lp33
g3
(g14
g5
Ntp34
Rp35
(dp36
g18
VSquirting
p37
sbag3
(g14
g5
Ntp38
Rp39
(dp40
g18
VEjaculation
p41
sbag3
(g14
g5
Ntp42
Rp43
(dp44
g18
VPussy
p45
sbasg28
I00
sg29
NsS'_withheld_copyright'
p46
NsS'media'
p47
(lp48
sS'_place'
p49
NsS'_contributors'
p50
NsS'_current_user_retweet'
p51
NsS'_created_at'
p52
VSat Dec 13 03:00:13 +0000 2014
p53
sS'_scopes'
p54
NsS'_possibly_sensitive'
p55
I00
sS'_in_reply_to_screen_name'
p56
NsS'_coordinates'
p57
NsS'_in_reply_to_user_id'
p58
NsS'_geo'
p59
NsS'_favorited'
p60
I00
sS'_withheld_in_countries'
p61
NsS'user_mentions'
p62
(lp63
sS'_now'
p64
NsS'_id_str'
p65
V543601253591564288
p66
sS'_in_reply_to_status_id'
p67
NsS'_text'
p68
VRETWEET THIS GIF\u000aClick Here For More SQUIRTING VIDEOS http://t.co/axsU4iwGFZ\u000a#Squirting #Ejaculation #Pussy http://t.co/nNV73EQCFB
p69
sS'_retweeted'
p70
I00
sS'lang'
p71
Ven
p72
sS'_user'
p73
g3
(ctwitter
User
p74
g5
Ntp75
Rp76
(dp77
g10
V
p78
sS'_profile_text_color'
p79
V000000
p80
sS'_lang'
p81
Ven
p82
sS'_time_zone'
p83
VLondon
p84
sS'_followers_count'
p85
I14175
sS'_statuses_count'
p86
I2099
sg52
VTue Sep 30 22:11:31 +0000 2014
p87
sS'_verified'
p88
I00
sS'_description'
p89
VThe Top Squirting Website!
p90
sS'_profile_image_url'
p91
Vhttps://pbs.twimg.com/profile_images/517075419753754624/WdA3Ykl6_normal.png
p92
sS'_friends_count'
p93
I1852
sS'_favourites_count'
p94
I638
sS'_utc_offset'
p95
I0
sS'_status'
p96
NsS'_protected'
p97
I00
sS'_profile_banner_url'
p98
Vhttps://pbs.twimg.com/profile_banners/2796572404/1412115384
p99
sS'_notifications'
p100
I00
sS'_profile_background_tile'
p101
I00
sS'_profile_link_color'
p102
VF5ABB5
p103
sS'_geo_enabled'
p104
I00
sS'_contributors_enabled'
p105
I00
sS'_profile_background_image_url'
p106
Vhttp://abs.twimg.com/images/themes/theme1/bg.png
p107
sS'_screen_name'
p108
VTopSquirt
p109
sS'_listed_count'
p110
I63
sS'_name'
p111
VTopSquirt
p112
sS'_profile_sidebar_fill_color'
p113
V000000
p114
sS'_url'
p115
Vhttp://t.co/pW5HA3FfMH
p116
sS'_id'
p117
I2796572404
sS'_profile_background_color'
p118
V000000
p119
sbsS'_retweet_count'
p120
I36
sS'_source'
p121
V<a href="http://bufferapp.com" rel="nofollow">Buffer</a>
p122
sS'urls'
p123
(lp124
g3
(ctwitter
Url
p125
g5
Ntp126
Rp127
(dp128
S'url'
p129
Vhttp://t.co/axsU4iwGFZ
p130
sS'expanded_url'
p131
Vhttp://buff.ly/1Cm3eU8
p132
sbag3
(g125
g5
Ntp133
Rp134
(dp135
g129
Vhttp://t.co/nNV73EQCFB
p136
sg131
Vhttp://twitter.com/TopSquirt/status/543601253591564288/photo/1
p137
sbasg117
I543601253591564288
sbsg46
Nsg47
(lp138
sg49
Nsg50
Nsg51
Nsg52
VSat Dec 13 04:46:32 +0000 2014
p139
sg54
Nsg55
I00
sg56
Nsg57
Nsg58
Nsg59
Nsg60
I00
sg61
Nsg62
(lp140
g3
(g74
g5
Ntp141
Rp142
(dp143
g10
Nsg79
Nsg81
Nsg83
Nsg85
Nsg86
Nsg52
Nsg88
Nsg89
Nsg91
Nsg93
Nsg94
Nsg95
Nsg96
Nsg97
Nsg98
Nsg100
Nsg101
Nsg102
Nsg104
Nsg105
Nsg106
Nsg108
VTopSquirt
p144
sg110
Nsg111
VTopSquirt
p145
sg113
Nsg115
Nsg117
I2796572404
sg118
Nsbasg64
Nsg65
V543628011342667776
p146
sg67
Nsg68
VRT @TopSquirt: RETWEET THIS GIF\u000aClick Here For More SQUIRTING VIDEOS http://t.co/axsU4iwGFZ\u000a#Squirting #Ejaculation #Pussy http://t.co/nNV7\u2026
p147
sg70
I00
sg71
Ven
p148
sg73
g3
(g74
g5
Ntp149
Rp150
(dp151
g10
VLondon Dagenham ENGLAND
p152
sg79
V333333
p153
sg81
Ven
p154
sg83
Nsg85
I546
sg86
I5172
sg52
VFri Jan 24 21:09:18 +0000 2014
p155
sg88
I00
sg89
V6,4 Blk Male for real Cuck couples BBw mature fems Only \u000alondon and home counties please!!! All else blocked..Kik:thedjwr
p156
sg91
Vhttps://pbs.twimg.com/profile_images/532651467287855106/EdS37RRW_normal.jpeg
p157
sg93
I586
sg94
I6409
sg95
Nsg96
Nsg97
I00
sg98
Vhttps://pbs.twimg.com/profile_banners/2302216678/1413400226
p158
sg100
I00
sg101
I00
sg102
V0084B4
p159
sg104
I00
sg105
I00
sg106
Vhttp://abs.twimg.com/images/themes/theme1/bg.png
p160
sg108
VBBC4service
p161
sg110
I4
sg111
VLondonBlakguy
p162
sg113
VDDEEF6
p163
sg115
Nsg117
I2302216678
sg118
VC0DEED
p164
sbsg120
I36
sg121
V<a href="http://twitter.com/download/iphone" rel="nofollow">Twitter for iPhone</a>
p165
sg123
(lp166
g3
(g125
g5
Ntp167
Rp168
(dp169
g129
Vhttp://t.co/axsU4iwGFZ
p170
sg131
Vhttp://buff.ly/1Cm3eU8
p171
sbag3
(g125
g5
Ntp172
Rp173
(dp174
g129
Vhttp://t.co/nNV73EQCFB
p175
sg131
Vhttp://twitter.com/TopSquirt/status/543601253591564288/photo/1
p176
sbasg117
I543628011342667776
sbag3
(g4
g5
Ntp177
Rp178
(dp179
g9
I0
sg10
Nsg11
Nsg12
(lp180
g3
(g14
g5
Ntp181
Rp182
(dp183
g18
Vfap
p184
sbag3
(g14
g5
Ntp185
Rp186
(dp187
g18
Vxxx
p188
sbag3
(g14
g5
Ntp189
Rp190
(dp191
g18
Vmilking
p192
sbag3
(g14
g5
Ntp193
Rp194
(dp195
g18
Vdick
p196
sbag3
(g14
g5
Ntp197
Rp198
(dp199
g18
Vmasturbation
p200
sbag3
(g14
g5
Ntp201
Rp202
(dp203
g18
Vhandjob
p204
sbasg28
I00
sg29
g3
(g4
g5
Ntp205
Rp206
(dp207
g9
I4
sg10
Nsg11
Nsg12
(lp208
g3
(g14
g5
Ntp209
Rp210
(dp211
g18
Vfap
p212
sbag3
(g14
g5
Ntp213
Rp214
(dp215
g18
Vxxx
p216
sbag3
(g14
g5
Ntp217
Rp218
(dp219
g18
Vmilking
p220
sbag3
(g14
g5
Ntp221
Rp222
(dp223
g18
Vdick
p224
sbag3
(g14
g5
Ntp225
Rp226
(dp227
g18
Vmasturbation
p228
sbag3
(g14
g5
Ntp229
Rp230
(dp231
g18
Vhandjob
p232
sbasg28
I00
sg29
Nsg46
Nsg47
(lp233
sg49
Nsg50
Nsg51
Nsg52
VThu Dec 11 19:49:44 +0000 2014
p234
sg54
Nsg55
I01
sg56
Nsg57
Nsg58
Nsg59
Nsg60
I00
sg61
Nsg62
(lp235
sg64
Nsg65
V543130532096532481
p236
sg67
Nsg68
VHandjob Porn Tube: http://t.co/vjTbDQgBM5 #fap #xxx #milking #dick #masturbation #handjob http://t.co/Opl9yA5hhS
p237
sg70
I00
sg71
Ven
p238
sg73
g3
(g74
g5
Ntp239
Rp240
(dp241
g10
g78
sg79
V333333
p242
sg81
Vde
p243
sg83
VCentral Time (US & Canada)
p244
sg85
I1061
sg86
I1347
sg52
VMon Mar 31 06:56:41 +0000 2014
p245
sg88
I00
sg89
V#Handjob #Porn #Pictures and #Videos. #Horny #Girls #milking #cock.
p246
sg91
Vhttps://pbs.twimg.com/profile_images/450528792335749120/Xj16QcMT_normal.jpeg
p247
sg93
I16
sg94
I0
sg95
I-21600
sg96
Nsg97
I00
sg98
Vhttps://pbs.twimg.com/profile_banners/2420137933/1396249421
p248
sg100
I00
sg101
I00
sg102
V0084B4
p249
sg104
I00
sg105
I00
sg106
Vhttp://abs.twimg.com/images/themes/theme1/bg.png
p250
sg108
VBestHandjobXXX
p251
sg110
I7
sg111
VBest Handjob XXX
p252
sg113
VDDEEF6
p253
sg115
Vhttp://t.co/fPZVmnHcJz
p254
sg117
I2420137933
sg118
VC0DEED
p255
sbsg120
I5
sg121
V<a href="http://ifttt.com" rel="nofollow">IFTTT</a>
p256
sg123
(lp257
g3
(g125
g5
Ntp258
Rp259
(dp260
g129
Vhttp://t.co/vjTbDQgBM5
p261
sg131
Vhttp://www.pimpporn.org
p262
sbag3
(g125
g5
Ntp263
Rp264
(dp265
g129
Vhttp://t.co/Opl9yA5hhS
p266
sg131
Vhttp://twitter.com/BestHandjobXXX/status/543130532096532481/photo/1
p267
sbasg117
I543130532096532481
sbsg46
Nsg47
(lp268
sg49
Nsg50
Nsg51
Nsg52
VThu Dec 11 21:58:59 +0000 2014
p269
sg54
Nsg55
I00
sg56
Nsg57
Nsg58
Nsg59
Nsg60
I00
sg61
Nsg62
(lp270
g3
(g74
g5
Ntp271
Rp272
(dp273
g10
Nsg79
Nsg81
Nsg83
Nsg85
Nsg86
Nsg52
Nsg88
Nsg89
Nsg91
Nsg93
Nsg94
Nsg95
Nsg96
Nsg97
Nsg98
Nsg100
Nsg101
Nsg102
Nsg104
Nsg105
Nsg106
Nsg108
VBestHandjobXXX
p274
sg110
Nsg111
VBest Handjob XXX
p275
sg113
Nsg115
Nsg117
I2420137933
sg118
Nsbasg64
Nsg65
V543163058408128512
p276
sg67
Nsg68
VRT @BestHandjobXXX: Handjob Porn Tube: http://t.co/vjTbDQgBM5 #fap #xxx #milking #dick #masturbation #handjob http://t.co/Opl9yA5hhS
p277
sg70
I00
sg71
Ven
p278
sg73
g3
(g74
g5
Ntp279
Rp280
(dp281
g10
VLondon Dagenham ENGLAND
p282
sg79
V333333
p283
sg81
Ven
p284
sg83
Nsg85
I546
sg86
I5172
sg52
VFri Jan 24 21:09:18 +0000 2014
p285
sg88
I00
sg89
V6,4 Blk Male for real Cuck couples BBw mature fems Only \u000alondon and home counties please!!! All else blocked..Kik:thedjwr
p286
sg91
Vhttps://pbs.twimg.com/profile_images/532651467287855106/EdS37RRW_normal.jpeg
p287
sg93
I586
sg94
I6409
sg95
Nsg96
Nsg97
I00
sg98
Vhttps://pbs.twimg.com/profile_banners/2302216678/1413400226
p288
sg100
I00
sg101
I00
sg102
V0084B4
p289
sg104
I00
sg105
I00
sg106
Vhttp://abs.twimg.com/images/themes/theme1/bg.png
p290
sg108
VBBC4service
p291
sg110
I4
sg111
VLondonBlakguy
p292
sg113
VDDEEF6
p293
sg115
Nsg117
I2302216678
sg118
VC0DEED
p294
sbsg120
I5
sg121
V<a href="http://twitter.com/download/iphone" rel="nofollow">Twitter for iPhone</a>
p295
sg123
(lp296
g3
(g125
g5
Ntp297
Rp298
(dp299
g129
Vhttp://t.co/vjTbDQgBM5
p300
sg131
Vhttp://www.pimpporn.org
p301
sbag3
(g125
g5
Ntp302
Rp303
(dp304
g129
Vhttp://t.co/Opl9yA5hhS
p305
sg131
Vhttp://twitter.com/BestHandjobXXX/status/543130532096532481/photo/1
p306
sbasg117
I543163058408128512
sbag3
(g4
g5
Ntp307
Rp308
(dp309
g9
I0
sg10
Nsg11
Nsg12
(lp310
g3
(g14
g5
Ntp311
Rp312
(dp313
g18
VWatch
p314
sbag3
(g14
g5
Ntp315
Rp316
(dp317
g18
VGranny
p318
sbag3
(g14
g5
Ntp319
Rp320
(dp321
g18
VPorn
p322
sbag3
(g14
g5
Ntp323
Rp324
(dp325
g18
Vfree
p326
sbag3
(g14
g5
Ntp327
Rp328
(dp329
g18
Vhardcore
p330
sbag3
(g14
g5
Ntp331
Rp332
(dp333
g18
Vold
p334
sbag3
(g14
g5
Ntp335
Rp336
(dp337
g18
Vgrey
p338
sbag3
(g14
g5
Ntp339
Rp340
(dp341
g18
Vmature
p342
sbag3
(g14
g5
Ntp343
Rp344
(dp345
g18
Vvideos
p346
sbasg28
I00
sg29
g3
(g4
g5
Ntp347
Rp348
(dp349
g9
I11
sg10
Nsg11
Nsg12
(lp350
g3
(g14
g5
Ntp351
Rp352
(dp353
g18
VWatch
p354
sbag3
(g14
g5
Ntp355
Rp356
(dp357
g18
VGranny
p358
sbag3
(g14
g5
Ntp359
Rp360
(dp361
g18
VPorn
p362
sbag3
(g14
g5
Ntp363
Rp364
(dp365
g18
Vfree
p366
sbag3
(g14
g5
Ntp367
Rp368
(dp369
g18
Vhardcore
p370
sbag3
(g14
g5
Ntp371
Rp372
(dp373
g18
Vold
p374
sbag3
(g14
g5
Ntp375
Rp376
(dp377
g18
Vgrey
p378
sbag3
(g14
g5
Ntp379
Rp380
(dp381
g18
Vmature
p382
sbag3
(g14
g5
Ntp383
Rp384
(dp385
g18
Vvideos
p386
sbasg28
I00
sg29
Nsg46
Nsg47
(lp387
(dp388
Vexpanded_url
p389
Vhttp://twitter.com/WetGrannySluts/status/543134838703013889/photo/1
p390
sVdisplay_url
p391
Vpic.twitter.com/UlMbdUzG3B
p392
sVurl
p393
Vhttp://t.co/UlMbdUzG3B
p394
sVmedia_url_https
p395
Vhttps://pbs.twimg.com/media/B4maQhJIgAIjMVS.jpg
p396
sVid_str
p397
V543134838640115714
p398
sVsizes
p399
(dp400
Vsmall
p401
(dp402
Vh
p403
I255
sVresize
p404
Vfit
p405
sVw
p406
I340
ssVlarge
p407
(dp408
Vh
p409
I375
sVresize
p410
Vfit
p411
sVw
p412
I500
ssVmedium
p413
(dp414
Vh
p415
I375
sVresize
p416
Vfit
p417
sVw
p418
I500
ssVthumb
p419
(dp420
Vh
p421
I150
sVresize
p422
Vcrop
p423
sVw
p424
I150
sssVindices
p425
(lp426
I89
aI111
asVtype
p427
Vphoto
p428
sVid
p429
I543134838640115714
sVmedia_url
p430
Vhttp://pbs.twimg.com/media/B4maQhJIgAIjMVS.jpg
p431
sasg49
Nsg50
Nsg51
Nsg52
VThu Dec 11 20:06:51 +0000 2014
p432
sg54
Nsg55
I01
sg56
Nsg57
Nsg58
Nsg59
Nsg60
I00
sg61
Nsg62
(lp433
sg64
Nsg65
V543134838703013889
p434
sg67
Nsg68
V#Watch #Granny #Porn: http://t.co/YXhplofHrN #free #hardcore #old #grey #mature #videos. http://t.co/UlMbdUzG3B
p435
sg70
I00
sg71
Vund
p436
sg73
g3
(g74
g5
Ntp437
Rp438
(dp439
g10
g78
sg79
V333333
p440
sg81
Vde
p441
sg83
VCentral Time (US & Canada)
p442
sg85
I7678
sg86
I7674
sg52
VThu Mar 27 16:31:33 +0000 2014
p443
sg88
I00
sg89
VWet and Horny Granny Porn Pics and Movies.
p444
sg91
Vhttps://pbs.twimg.com/profile_images/530124242214342656/BNLmZLPj_normal.jpeg
p445
sg93
I20
sg94
I59
sg95
I-21600
sg96
Nsg97
I00
sg98
Nsg100
I00
sg101
I00
sg102
V0084B4
p446
sg104
I00
sg105
I00
sg106
Vhttp://abs.twimg.com/images/themes/theme1/bg.png
p447
sg108
VWetGrannySluts
p448
sg110
I62
sg111
VWet Granny Sluts
p449
sg113
VDDEEF6
p450
sg115
Vhttp://t.co/fPZVmnHcJz
p451
sg117
I2414617718
sg118
VC0DEED
p452
sbsg120
I5
sg121
V<a href="http://ifttt.com" rel="nofollow">IFTTT</a>
p453
sg123
(lp454
g3
(g125
g5
Ntp455
Rp456
(dp457
g129
Vhttp://t.co/YXhplofHrN
p458
sg131
Vhttp://pimpporn.org
p459
sbasg117
I543134838703013889
sbsg46
Nsg47
(lp460
(dp461
Vsource_user_id
p462
I2414617718
sVsource_status_id_str
p463
V543134838703013889
p464
sVexpanded_url
p465
Vhttp://twitter.com/WetGrannySluts/status/543134838703013889/photo/1
p466
sVdisplay_url
p467
Vpic.twitter.com/UlMbdUzG3B
p468
sVurl
p469
Vhttp://t.co/UlMbdUzG3B
p470
sVmedia_url_https
p471
Vhttps://pbs.twimg.com/media/B4maQhJIgAIjMVS.jpg
p472
sVsource_user_id_str
p473
V2414617718
p474
sVsource_status_id
p475
I543134838703013889
sVid_str
p476
V543134838640115714
p477
sVsizes
p478
(dp479
Vsmall
p480
(dp481
Vh
p482
I255
sVresize
p483
Vfit
p484
sVw
p485
I340
ssVlarge
p486
(dp487
Vh
p488
I375
sVresize
p489
Vfit
p490
sVw
p491
I500
ssVmedium
p492
(dp493
Vh
p494
I375
sVresize
p495
Vfit
p496
sVw
p497
I500
ssVthumb
p498
(dp499
Vh
p500
I150
sVresize
p501
Vcrop
p502
sVw
p503
I150
sssVindices
p504
(lp505
I109
aI131
asVtype
p506
Vphoto
p507
sVid
p508
I543134838640115714
sVmedia_url
p509
Vhttp://pbs.twimg.com/media/B4maQhJIgAIjMVS.jpg
p510
sasg49
Nsg50
Nsg51
Nsg52
VThu Dec 11 21:58:11 +0000 2014
p511
sg54
Nsg55
I00
sg56
Nsg57
Nsg58
Nsg59
Nsg60
I00
sg61
Nsg62
(lp512
g3
(g74
g5
Ntp513
Rp514
(dp515
g10
Nsg79
Nsg81
Nsg83
Nsg85
Nsg86
Nsg52
Nsg88
Nsg89
Nsg91
Nsg93
Nsg94
Nsg95
Nsg96
Nsg97
Nsg98
Nsg100
Nsg101
Nsg102
Nsg104
Nsg105
Nsg106
Nsg108
VWetGrannySluts
p516
sg110
Nsg111
VWet Granny Sluts
p517
sg113
Nsg115
Nsg117
I2414617718
sg118
Nsbasg64
Nsg65
V543162857144483841
p518
sg67
Nsg68
VRT @WetGrannySluts: #Watch #Granny #Porn: http://t.co/YXhplofHrN #free #hardcore #old #grey #mature #videos. http://t.co/UlMbdUzG3B
p519
sg70
I00
sg71
Vund
p520
sg73
g3
(g74
g5
Ntp521
Rp522
(dp523
g10
VLondon Dagenham ENGLAND
p524
sg79
V333333
p525
sg81
Ven
p526
sg83
Nsg85
I546
sg86
I5172
sg52
VFri Jan 24 21:09:18 +0000 2014
p527
sg88
I00
sg89
V6,4 Blk Male for real Cuck couples BBw mature fems Only \u000alondon and home counties please!!! All else blocked..Kik:thedjwr
p528
sg91
Vhttps://pbs.twimg.com/profile_images/532651467287855106/EdS37RRW_normal.jpeg
p529
sg93
I586
sg94
I6409
sg95
Nsg96
Nsg97
I00
sg98
Vhttps://pbs.twimg.com/profile_banners/2302216678/1413400226
p530
sg100
I00
sg101
I00
sg102
V0084B4
p531
sg104
I00
sg105
I00
sg106
Vhttp://abs.twimg.com/images/themes/theme1/bg.png
p532
sg108
VBBC4service
p533
sg110
I4
sg111
VLondonBlakguy
p534
sg113
VDDEEF6
p535
sg115
Nsg117
I2302216678
sg118
VC0DEED
p536
sbsg120
I5
sg121
V<a href="http://twitter.com/download/iphone" rel="nofollow">Twitter for iPhone</a>
p537
sg123
(lp538
g3
(g125
g5
Ntp539
Rp540
(dp541
g129
Vhttp://t.co/YXhplofHrN
p542
sg131
Vhttp://pimpporn.org
p543
sbasg117
I543162857144483841
sbag3
(g4
g5
Ntp544
Rp545
(dp546
g9
I0
sg10
Nsg11
Nsg12
(lp547
g3
(g14
g5
Ntp548
Rp549
(dp550
g18
Vdateagranny
p551
sbag3
(g14
g5
Ntp552
Rp553
(dp554
g18
Vsexygranny
p555
sbasg28
I00
sg29
g3
(g4
g5
Ntp556
Rp557
(dp558
g9
I37
sg10
Nsg11
Nsg12
(lp559
g3
(g14
g5
Ntp560
Rp561
(dp562
g18
Vdateagranny
p563
sbag3
(g14
g5
Ntp564
Rp565
(dp566
g18
Vsexygranny
p567
sbasg28
I00
sg29
Nsg46
Nsg47
(lp568
(dp569
Vsource_user_id
p570
I2558997936
sVsource_status_id_str
p571
V537144199876202496
p572
sVexpanded_url
p573
Vhttp://twitter.com/Horny_Angela/status/537144199876202496/photo/1
p574
sVdisplay_url
p575
Vpic.twitter.com/nFbJZN3qlv
p576
sVurl
p577
Vhttp://t.co/nFbJZN3qlv
p578
sVmedia_url_https
p579
Vhttps://pbs.twimg.com/media/B3RRzXRCYAAbE24.jpg
p580
sVsource_user_id_str
p581
V2558997936
p582
sVsource_status_id
p583
I537144199876202496
sVid_str
p584
V537144198424584192
p585
sVsizes
p586
(dp587
Vlarge
p588
(dp589
Vh
p590
I749
sVresize
p591
Vfit
p592
sVw
p593
I500
ssVsmall
p594
(dp595
Vh
p596
I509
sVresize
p597
Vfit
p598
sVw
p599
I340
ssVmedium
p600
(dp601
Vh
p602
I749
sVresize
p603
Vfit
p604
sVw
p605
I500
ssVthumb
p606
(dp607
Vh
p608
I150
sVresize
p609
Vcrop
p610
sVw
p611
I150
sssVindices
p612
(lp613
I62
aI84
asVtype
p614
Vphoto
p615
sVid
p616
I537144198424584192
sVmedia_url
p617
Vhttp://pbs.twimg.com/media/B3RRzXRCYAAbE24.jpg
p618
sasg49
Nsg50
Nsg51
Nsg52
VThu Dec 11 21:05:18 +0000 2014
p619
sg54
Nsg55
I01
sg56
Nsg57
Nsg58
Nsg59
Nsg60
I00
sg61
Nsg62
(lp620
sg64
Nsg65
V543149550266224640
p621
sg67
Nsg68
VRETWEET if you'd like to be a toyboy #dateagranny #sexygranny http://t.co/nFbJZN3qlv
p622
sg70
I00
sg71
Ven
p623
sg73
g3
(g74
g5
Ntp624
Rp625
(dp626
g10
VUK
p627
sg79
V333333
p628
sg81
Ven
p629
sg83
VLondon
p630
sg85
I26803
sg86
I5999
sg52
VTue Jun 10 13:15:20 +0000 2014
p631
sg88
I00
sg89
VOlder grannies is where the real actions at. Check out http://t.co/K1jSM7amDc today!
p632
sg91
Vhttps://pbs.twimg.com/profile_images/537138573321838592/TH409zlk_normal.png
p633
sg93
I6529
sg94
I185
sg95
I0
sg96
Nsg97
I00
sg98
Vhttps://pbs.twimg.com/profile_banners/2558997936/1416898646
p634
sg100
I00
sg101
I00
sg102
V0084B4
p635
sg104
I00
sg105
I00
sg106
Vhttp://abs.twimg.com/images/themes/theme1/bg.png
p636
sg108
VHorny_Angela
p637
sg110
I15
sg111
VAngela
p638
sg113
VDDEEF6
p639
sg115
Vhttp://t.co/K1jSM7amDc
p640
sg117
I2558997936
sg118
VC0DEED
p641
sbsg120
I15
sg121
V<a href="http://www.hootsuite.com" rel="nofollow">Hootsuite</a>
p642
sg123
(lp643
sg117
I543149550266224640
sbsg46
Nsg47
(lp644
(dp645
Vsource_user_id
p646
I2558997936
sVsource_status_id_str
p647
V537144199876202496
p648
sVexpanded_url
p649
Vhttp://twitter.com/Horny_Angela/status/537144199876202496/photo/1
p650
sVdisplay_url
p651
Vpic.twitter.com/nFbJZN3qlv
p652
sVurl
p653
Vhttp://t.co/nFbJZN3qlv
p654
sVmedia_url_https
p655
Vhttps://pbs.twimg.com/media/B3RRzXRCYAAbE24.jpg
p656
sVsource_user_id_str
p657
V2558997936
p658
sVsource_status_id
p659
I537144199876202496
sVid_str
p660
V537144198424584192
p661
sVsizes
p662
(dp663
Vlarge
p664
(dp665
Vh
p666
I749
sVresize
p667
Vfit
p668
sVw
p669
I500
ssVsmall
p670
(dp671
Vh
p672
I509
sVresize
p673
Vfit
p674
sVw
p675
I340
ssVmedium
p676
(dp677
Vh
p678
I749
sVresize
p679
Vfit
p680
sVw
p681
I500
ssVthumb
p682
(dp683
Vh
p684
I150
sVresize
p685
Vcrop
p686
sVw
p687
I150
sssVindices
p688
(lp689
I80
aI102
asVtype
p690
Vphoto
p691
sVid
p692
I537144198424584192
sVmedia_url
p693
Vhttp://pbs.twimg.com/media/B3RRzXRCYAAbE24.jpg
p694
sasg49
Nsg50
Nsg51
Nsg52
VThu Dec 11 21:22:11 +0000 2014
p695
sg54
Nsg55
I00
sg56
Nsg57
Nsg58
Nsg59
Nsg60
I00
sg61
Nsg62
(lp696
g3
(g74
g5
Ntp697
Rp698
(dp699
g10
Nsg79
Nsg81
Nsg83
Nsg85
Nsg86
Nsg52
Nsg88
Nsg89
Nsg91
Nsg93
Nsg94
Nsg95
Nsg96
Nsg97
Nsg98
Nsg100
Nsg101
Nsg102
Nsg104
Nsg105
Nsg106
Nsg108
VHorny_Angela
p700
sg110
Nsg111
VAngela
p701
sg113
Nsg115
Nsg117
I2558997936
sg118
Nsbasg64
Nsg65
V543153796747362305
p702
sg67
Nsg68
VRT @Horny_Angela: RETWEET if you'd like to be a toyboy #dateagranny #sexygranny http://t.co/nFbJZN3qlv
p703
sg70
I00
sg71
Ven
p704
sg73
g3
(g74
g5
Ntp705
Rp706
(dp707
g10
VLondon Dagenham ENGLAND
p708
sg79
V333333
p709
sg81
Ven
p710
sg83
Nsg85
I546
sg86
I5172
sg52
VFri Jan 24 21:09:18 +0000 2014
p711
sg88
I00
sg89
V6,4 Blk Male for real Cuck couples BBw mature fems Only \u000alondon and home counties please!!! All else blocked..Kik:thedjwr
p712
sg91
Vhttps://pbs.twimg.com/profile_images/532651467287855106/EdS37RRW_normal.jpeg
p713
sg93
I586
sg94
I6409
sg95
Nsg96
Nsg97
I00
sg98
Vhttps://pbs.twimg.com/profile_banners/2302216678/1413400226
p714
sg100
I00
sg101
I00
sg102
V0084B4
p715
sg104
I00
sg105
I00
sg106
Vhttp://abs.twimg.com/images/themes/theme1/bg.png
p716
sg108
VBBC4service
p717
sg110
I4
sg111
VLondonBlakguy
p718
sg113
VDDEEF6
p719
sg115
Nsg117
I2302216678
sg118
VC0DEED
p720
sbsg120
I15
sg121
V<a href="http://twitter.com/download/iphone" rel="nofollow">Twitter for iPhone</a>
p721
sg123
(lp722
sg117
I543153796747362305
sbag3
(g4
g5
Ntp723
Rp724
(dp725
g9
I0
sg10
Nsg11
Nsg12
(lp726
sg28
I00
sg29
g3
(g4
g5
Ntp727
Rp728
(dp729
g9
I40
sg10
Nsg11
Nsg12
(lp730
sg28
I00
sg29
Nsg46
Nsg47
(lp731
(dp732
Vexpanded_url
p733
Vhttp://twitter.com/75_east/status/543124147338219521/photo/1
p734
sVdisplay_url
p735
Vpic.twitter.com/B9cEv7Pqg0
p736
sVurl
p737
Vhttp://t.co/B9cEv7Pqg0
p738
sVmedia_url_https
p739
Vhttps://pbs.twimg.com/media/B4mQeq-IYAAdD2x.jpg
p740
sVid_str
p741
V543124086680215552
p742
sVsizes
p743
(dp744
Vsmall
p745
(dp746
Vh
p747
I511
sVresize
p748
Vfit
p749
sVw
p750
I340
ssVlarge
p751
(dp752
Vh
p753
I960
sVresize
p754
Vfit
p755
sVw
p756
I638
ssVmedium
p757
(dp758
Vh
p759
I902
sVresize
p760
Vfit
p761
sVw
p762
I600
ssVthumb
p763
(dp764
Vh
p765
I150
sVresize
p766
Vcrop
p767
sVw
p768
I150
sssVindices
p769
(lp770
I0
aI22
asVtype
p771
Vphoto
p772
sVid
p773
I543124086680215552
sVmedia_url
p774
Vhttp://pbs.twimg.com/media/B4mQeq-IYAAdD2x.jpg
p775
sasg49
Nsg50
Nsg51
Nsg52
VThu Dec 11 19:24:22 +0000 2014
p776
sg54
Nsg55
I00
sg56
Nsg57
Nsg58
Nsg59
Nsg60
I00
sg61
Nsg62
(lp777
sg64
Nsg65
V543124147338219521
p778
sg67
Nsg68
Vhttp://t.co/B9cEv7Pqg0
p779
sg70
I00
sg71
Vund
p780
sg73
g3
(g74
g5
Ntp781
Rp782
(dp783
g10
V18+only
p784
sg79
V333333
p785
sg81
Ven
p786
sg83
Nsg85
I3256
sg86
I3684
sg52
VFri May 23 01:11:30 +0000 2014
p787
sg88
I00
sg89
g78
sg91
Vhttps://pbs.twimg.com/profile_images/469655037577527297/XbEZ3x8__normal.jpeg
p788
sg93
I406
sg94
I790
sg95
Nsg96
Nsg97
I00
sg98
Vhttps://pbs.twimg.com/profile_banners/2559653433/1400807674
p789
sg100
I00
sg101
I00
sg102
V0084B4
p790
sg104
I01
sg105
I00
sg106
Vhttp://abs.twimg.com/images/themes/theme1/bg.png
p791
sg108
V75_east
p792
sg110
I22
sg111
Vi would wood u
p793
sg113
VDDEEF6
p794
sg115
Nsg117
I2559653433
sg118
VC0DEED
p795
sbsg120
I17
sg121
V<a href="http://twitter.com/download/android" rel="nofollow">Twitter for Android</a>
p796
sg123
(lp797
sg117
I543124147338219521
sbsg46
Nsg47
(lp798
(dp799
Vsource_user_id
p800
I2559653433
sVsource_status_id_str
p801
V543124147338219521
p802
sVexpanded_url
p803
Vhttp://twitter.com/75_east/status/543124147338219521/photo/1
p804
sVdisplay_url
p805
Vpic.twitter.com/B9cEv7Pqg0
p806
sVurl
p807
Vhttp://t.co/B9cEv7Pqg0
p808
sVmedia_url_https
p809
Vhttps://pbs.twimg.com/media/B4mQeq-IYAAdD2x.jpg
p810
sVsource_user_id_str
p811
V2559653433
p812
sVsource_status_id
p813
I543124147338219521
sVid_str
p814
V543124086680215552
p815
sVsizes
p816
(dp817
Vsmall
p818
(dp819
Vh
p820
I511
sVresize
p821
Vfit
p822
sVw
p823
I340
ssVlarge
p824
(dp825
Vh
p826
I960
sVresize
p827
Vfit
p828
sVw
p829
I638
ssVmedium
p830
(dp831
Vh
p832
I902
sVresize
p833
Vfit
p834
sVw
p835
I600
ssVthumb
p836
(dp837
Vh
p838
I150
sVresize
p839
Vcrop
p840
sVw
p841
I150
sssVindices
p842
(lp843
I13
aI35
asVtype
p844
Vphoto
p845
sVid
p846
I543124086680215552
sVmedia_url
p847
Vhttp://pbs.twimg.com/media/B4mQeq-IYAAdD2x.jpg
p848
sasg49
Nsg50
Nsg51
Nsg52
VThu Dec 11 21:21:53 +0000 2014
p849
sg54
Nsg55
I00
sg56
Nsg57
Nsg58
Nsg59
Nsg60
I00
sg61
Nsg62
(lp850
g3
(g74
g5
Ntp851
Rp852
(dp853
g10
Nsg79
Nsg81
Nsg83
Nsg85
Nsg86
Nsg52
Nsg88
Nsg89
Nsg91
Nsg93
Nsg94
Nsg95
Nsg96
Nsg97
Nsg98
Nsg100
Nsg101
Nsg102
Nsg104
Nsg105
Nsg106
Nsg108
V75_east
p854
sg110
Nsg111
Vi would wood u
p855
sg113
Nsg115
Nsg117
I2559653433
sg118
Nsbasg64
Nsg65
V543153724685025280
p856
sg67
Nsg68
VRT @75_east: http://t.co/B9cEv7Pqg0
p857
sg70
I00
sg71
Vund
p858
sg73
g3
(g74
g5
Ntp859
Rp860
(dp861
g10
VLondon Dagenham ENGLAND
p862
sg79
V333333
p863
sg81
Ven
p864
sg83
Nsg85
I546
sg86
I5172
sg52
VFri Jan 24 21:09:18 +0000 2014
p865
sg88
I00
sg89
V6,4 Blk Male for real Cuck couples BBw mature fems Only \u000alondon and home counties please!!! All else blocked..Kik:thedjwr
p866
sg91
Vhttps://pbs.twimg.com/profile_images/532651467287855106/EdS37RRW_normal.jpeg
p867
sg93
I586
sg94
I6409
sg95
Nsg96
Nsg97
I00
sg98
Vhttps://pbs.twimg.com/profile_banners/2302216678/1413400226
p868
sg100
I00
sg101
I00
sg102
V0084B4
p869
sg104
I00
sg105
I00
sg106
Vhttp://abs.twimg.com/images/themes/theme1/bg.png
p870
sg108
VBBC4service
p871
sg110
I4
sg111
VLondonBlakguy
p872
sg113
VDDEEF6
p873
sg115
Nsg117
I2302216678
sg118
VC0DEED
p874
sbsg120
I17
sg121
V<a href="http://twitter.com/download/iphone" rel="nofollow">Twitter for iPhone</a>
p875
sg123
(lp876
sg117
I543153724685025280
sbag3
(g4
g5
Ntp877
Rp878
(dp879
g9
I0
sg10
Nsg11
Nsg12
(lp880
sg28
I00
sg29
g3
(g4
g5
Ntp881
Rp882
(dp883
g9
I8
sg10
Nsg11
Nsg12
(lp884
sg28
I00
sg29
Nsg46
Nsg47
(lp885
(dp886
Vsource_user_id
p887
I2148688753
sVsource_status_id_str
p888
V456750869673807872
p889
sVexpanded_url
p890
Vhttp://twitter.com/lover_bw/status/456750869673807872/photo/1
p891
sVdisplay_url
p892
Vpic.twitter.com/MWnyIKy18Z
p893
sVurl
p894
Vhttp://t.co/MWnyIKy18Z
p895
sVmedia_url_https
p896
Vhttps://pbs.twimg.com/media/Bla0fvoCEAAzJCP.jpg
p897
sVsource_user_id_str
p898
V2148688753
p899
sVsource_status_id
p900
I456750869673807872
sVid_str
p901
V456750869678002176
p902
sVsizes
p903
(dp904
Vlarge
p905
(dp906
Vh
p907
I750
sVresize
p908
Vfit
p909
sVw
p910
I498
ssVsmall
p911
(dp912
Vh
p913
I512
sVresize
p914
Vfit
p915
sVw
p916
I340
ssVmedium
p917
(dp918
Vh
p919
I750
sVresize
p920
Vfit
p921
sVw
p922
I498
ssVthumb
p923
(dp924
Vh
p925
I150
sVresize
p926
Vcrop
p927
sVw
p928
I150
sssVindices
p929
(lp930
I17
aI39
asVtype
p931
Vphoto
p932
sVid
p933
I456750869678002176
sVmedia_url
p934
Vhttp://pbs.twimg.com/media/Bla0fvoCEAAzJCP.jpg
p935
sasg49
Nsg50
Nsg51
Nsg52
VThu Dec 11 20:50:39 +0000 2014
p936
sg54
Nsg55
I01
sg56
Nsg57
Nsg58
Nsg59
Nsg60
I00
sg61
Nsg62
(lp937
g3
(g74
g5
Ntp938
Rp939
(dp940
g10
Nsg79
Nsg81
Nsg83
Nsg85
Nsg86
Nsg52
Nsg88
Nsg89
Nsg91
Nsg93
Nsg94
Nsg95
Nsg96
Nsg97
Nsg98
Nsg100
Nsg101
Nsg102
Nsg104
Nsg105
Nsg106
Nsg108
Vgiantbbwboobs
p941
sg110
Nsg111
Vbbwlover
p942
sg113
Nsg115
Nsg117
I2212371929
sg118
Nsbasg64
Nsg65
V543145862424039424
p943
sg67
Nsg68
V\u201c@giantbbwboobs: http://t.co/MWnyIKy18Z\u201d
p944
sg70
I00
sg71
Vund
p945
sg73
g3
(g74
g5
Ntp946
Rp947
(dp948
g10
g78
sg79
V333333
p949
sg81
Ven
p950
sg83
VTokyo
p951
sg85
I27529
sg86
I139611
sg52
VTue Jul 17 08:25:23 +0000 2012
p952
sg88
I00
sg89
VI love plump women!
p953
sg91
Vhttps://pbs.twimg.com/profile_images/2405322870/d_043cb_normal.jpg
p954
sg93
I13939
sg94
I3981
sg95
I32400
sg96
Nsg97
I00
sg98
Vhttps://pbs.twimg.com/profile_banners/700652822/1400741493
p955
sg100
I00
sg101
I01
sg102
V0084B4
p956
sg104
I00
sg105
I00
sg106
Vhttp://pbs.twimg.com/profile_background_images/606447279/2jd5gv81to59w60gam5g.jpeg
p957
sg108
Vsexyssbbwlove
p958
sg110
I222
sg111
VSteve Johnson
p959
sg113
VDDEEF6
p960
sg115
Nsg117
I700652822
sg118
VC0DEED
p961
sbsg120
I4
sg121
V<a href="http://tapbots.com/tweetbot" rel="nofollow">Tweetbot for i\u039fS</a>
p962
sg123
(lp963
sg117
I543145862424039424
sbsg46
Nsg47
(lp964
(dp965
Vsource_user_id
p966
I2148688753
sVsource_status_id_str
p967
V456750869673807872
p968
sVexpanded_url
p969
Vhttp://twitter.com/lover_bw/status/456750869673807872/photo/1
p970
sVdisplay_url
p971
Vpic.twitter.com/MWnyIKy18Z
p972
sVurl
p973
Vhttp://t.co/MWnyIKy18Z
p974
sVmedia_url_https
p975
Vhttps://pbs.twimg.com/media/Bla0fvoCEAAzJCP.jpg
p976
sVsource_user_id_str
p977
V2148688753
p978
sVsource_status_id
p979
I456750869673807872
sVid_str
p980
V456750869678002176
p981
sVsizes
p982
(dp983
Vlarge
p984
(dp985
Vh
p986
I750
sVresize
p987
Vfit
p988
sVw
p989
I498
ssVsmall
p990
(dp991
Vh
p992
I512
sVresize
p993
Vfit
p994
sVw
p995
I340
ssVmedium
p996
(dp997
Vh
p998
I750
sVresize
p999
Vfit
p1000
sVw
p1001
I498
ssVthumb
p1002
(dp1003
Vh
p1004
I150
sVresize
p1005
Vcrop
p1006
sVw
p1007
I150
sssVindices
p1008
(lp1009
I36
aI58
asVtype
p1010
Vphoto
p1011
sVid
p1012
I456750869678002176
sVmedia_url
p1013
Vhttp://pbs.twimg.com/media/Bla0fvoCEAAzJCP.jpg
p1014
sasg49
Nsg50
Nsg51
Nsg52
VThu Dec 11 21:21:22 +0000 2014
p1015
sg54
Nsg55
I00
sg56
Nsg57
Nsg58
Nsg59
Nsg60
I00
sg61
Nsg62
(lp1016
g3
(g74
g5
Ntp1017
Rp1018
(dp1019
g10
Nsg79
Nsg81
Nsg83
Nsg85
Nsg86
Nsg52
Nsg88
Nsg89
Nsg91
Nsg93
Nsg94
Nsg95
Nsg96
Nsg97
Nsg98
Nsg100
Nsg101
Nsg102
Nsg104
Nsg105
Nsg106
Nsg108
Vsexyssbbwlove
p1020
sg110
Nsg111
VSteve Johnson
p1021
sg113
Nsg115
Nsg117
I700652822
sg118
Nsbag3
(g74
g5
Ntp1022
Rp1023
(dp1024
g10
Nsg79
Nsg81
Nsg83
Nsg85
Nsg86
Nsg52
Nsg88
Nsg89
Nsg91
Nsg93
Nsg94
Nsg95
Nsg96
Nsg97
Nsg98
Nsg100
Nsg101
Nsg102
Nsg104
Nsg105
Nsg106
Nsg108
Vgiantbbwboobs
p1025
sg110
Nsg111
Vbbwlover
p1026
sg113
Nsg115
Nsg117
I2212371929
sg118
Nsbasg64
Nsg65
V543153592069545986
p1027
sg67
Nsg68
VRT @sexyssbbwlove: \u201c@giantbbwboobs: http://t.co/MWnyIKy18Z\u201d
p1028
sg70
I00
sg71
Vund
p1029
sg73
g3
(g74
g5
Ntp1030
Rp1031
(dp1032
g10
VLondon Dagenham ENGLAND
p1033
sg79
V333333
p1034
sg81
Ven
p1035
sg83
Nsg85
I546
sg86
I5172
sg52
VFri Jan 24 21:09:18 +0000 2014
p1036
sg88
I00
sg89
V6,4 Blk Male for real Cuck couples BBw mature fems Only \u000alondon and home counties please!!! All else blocked..Kik:thedjwr
p1037
sg91
Vhttps://pbs.twimg.com/profile_images/532651467287855106/EdS37RRW_normal.jpeg
p1038
sg93
I586
sg94
I6409
sg95
Nsg96
Nsg97
I00
sg98
Vhttps://pbs.twimg.com/profile_banners/2302216678/1413400226
p1039
sg100
I00
sg101
I00
sg102
V0084B4
p1040
sg104
I00
sg105
I00
sg106
Vhttp://abs.twimg.com/images/themes/theme1/bg.png
p1041
sg108
VBBC4service
p1042
sg110
I4
sg111
VLondonBlakguy
p1043
sg113
VDDEEF6
p1044
sg115
Nsg117
I2302216678
sg118
VC0DEED
p1045
sbsg120
I4
sg121
V<a href="http://twitter.com/download/iphone" rel="nofollow">Twitter for iPhone</a>
p1046
sg123
(lp1047
sg117
I543153592069545986
sbag3
(g4
g5
Ntp1048
Rp1049
(dp1050
g9
I0
sg10
Nsg11
Nsg12
(lp1051
g3
(g14
g5
Ntp1052
Rp1053
(dp1054
g18
VWatch
p1055
sbag3
(g14
g5
Ntp1056
Rp1057
(dp1058
g18
VGranny
p1059
sbag3
(g14
g5
Ntp1060
Rp1061
(dp1062
g18
VPorn
p1063
sbag3
(g14
g5
Ntp1064
Rp1065
(dp1066
g18
Vfree
p1067
sbag3
(g14
g5
Ntp1068
Rp1069
(dp1070
g18
Vhardcore
p1071
sbag3
(g14
g5
Ntp1072
Rp1073
(dp1074
g18
Vold
p1075
sbag3
(g14
g5
Ntp1076
Rp1077
(dp1078
g18
Vgrey
p1079
sbag3
(g14
g5
Ntp1080
Rp1081
(dp1082
g18
Vmature
p1083
sbag3
(g14
g5
Ntp1084
Rp1085
(dp1086
g18
Vvideos
p1087
sbasg28
I00
sg29
g3
(g4
g5
Ntp1088
Rp1089
(dp1090
g9
I10
sg10
Nsg11
Nsg12
(lp1091
g3
(g14
g5
Ntp1092
Rp1093
(dp1094
g18
VWatch
p1095
sbag3
(g14
g5
Ntp1096
Rp1097
(dp1098
g18
VGranny
p1099
sbag3
(g14
g5
Ntp1100
Rp1101
(dp1102
g18
VPorn
p1103
sbag3
(g14
g5
Ntp1104
Rp1105
(dp1106
g18
Vfree
p1107
sbag3
(g14
g5
Ntp1108
Rp1109
(dp1110
g18
Vhardcore
p1111
sbag3
(g14
g5
Ntp1112
Rp1113
(dp1114
g18
Vold
p1115
sbag3
(g14
g5
Ntp1116
Rp1117
(dp1118
g18
Vgrey
p1119
sbag3
(g14
g5
Ntp1120
Rp1121
(dp1122
g18
Vmature
p1123
sbag3
(g14
g5
Ntp1124
Rp1125
(dp1126
g18
Vvideos
p1127
sbasg28
I00
sg29
Nsg46
Nsg47
(lp1128
(dp1129
Vexpanded_url
p1130
Vhttp://twitter.com/WetGrannySluts/status/543153119111434240/photo/1
p1131
sVdisplay_url
p1132
Vpic.twitter.com/6pFVbZ6NWc
p1133
sVurl
p1134
Vhttp://t.co/6pFVbZ6NWc
p1135
sVmedia_url_https
p1136
Vhttps://pbs.twimg.com/media/B4mq4k8IcAAUCd0.jpg
p1137
sVid_str
p1138
V543153119040139264
p1139
sVsizes
p1140
(dp1141
Vsmall
p1142
(dp1143
Vh
p1144
I453
sVresize
p1145
Vfit
p1146
sVw
p1147
I340
ssVlarge
p1148
(dp1149
Vh
p1150
I667
sVresize
p1151
Vfit
p1152
sVw
p1153
I500
ssVmedium
p1154
(dp1155
Vh
p1156
I667
sVresize
p1157
Vfit
p1158
sVw
p1159
I500
ssVthumb
p1160
(dp1161
Vh
p1162
I150
sVresize
p1163
Vcrop
p1164
sVw
p1165
I150
sssVindices
p1166
(lp1167
I89
aI111
asVtype
p1168
Vphoto
p1169
sVid
p1170
I543153119040139264
sVmedia_url
p1171
Vhttp://pbs.twimg.com/media/B4mq4k8IcAAUCd0.jpg
p1172
sasg49
Nsg50
Nsg51
Nsg52
VThu Dec 11 21:19:29 +0000 2014
p1173
sg54
Nsg55
I01
sg56
Nsg57
Nsg58
Nsg59
Nsg60
I00
sg61
Nsg62
(lp1174
sg64
Nsg65
V543153119111434240
p1175
sg67
Nsg68
V#Watch #Granny #Porn: http://t.co/YXhplofHrN #free #hardcore #old #grey #mature #videos. http://t.co/6pFVbZ6NWc
p1176
sg70
I00
sg71
Vund
p1177
sg73
g3
(g74
g5
Ntp1178
Rp1179
(dp1180
g10
g78
sg79
V333333
p1181
sg81
Vde
p1182
sg83
VCentral Time (US & Canada)
p1183
sg85
I7678
sg86
I7674
sg52
VThu Mar 27 16:31:33 +0000 2014
p1184
sg88
I00
sg89
VWet and Horny Granny Porn Pics and Movies.
p1185
sg91
Vhttps://pbs.twimg.com/profile_images/530124242214342656/BNLmZLPj_normal.jpeg
p1186
sg93
I20
sg94
I59
sg95
I-21600
sg96
Nsg97
I00
sg98
Nsg100
I00
sg101
I00
sg102
V0084B4
p1187
sg104
I00
sg105
I00
sg106
Vhttp://abs.twimg.com/images/themes/theme1/bg.png
p1188
sg108
VWetGrannySluts
p1189
sg110
I62
sg111
VWet Granny Sluts
p1190
sg113
VDDEEF6
p1191
sg115
Vhttp://t.co/fPZVmnHcJz
p1192
sg117
I2414617718
sg118
VC0DEED
p1193
sbsg120
I5
sg121
V<a href="http://ifttt.com" rel="nofollow">IFTTT</a>
p1194
sg123
(lp1195
g3
(g125
g5
Ntp1196
Rp1197
(dp1198
g129
Vhttp://t.co/YXhplofHrN
p1199
sg131
Vhttp://pimpporn.org
p1200
sbasg117
I543153119111434240
sbsg46
Nsg47
(lp1201
(dp1202
Vsource_user_id
p1203
I2414617718
sVsource_status_id_str
p1204
V543153119111434240
p1205
sVexpanded_url
p1206
Vhttp://twitter.com/WetGrannySluts/status/543153119111434240/photo/1
p1207
sVdisplay_url
p1208
Vpic.twitter.com/6pFVbZ6NWc
p1209
sVurl
p1210
Vhttp://t.co/6pFVbZ6NWc
p1211
sVmedia_url_https
p1212
Vhttps://pbs.twimg.com/media/B4mq4k8IcAAUCd0.jpg
p1213
sVsource_user_id_str
p1214
V2414617718
p1215
sVsource_status_id
p1216
I543153119111434240
sVid_str
p1217
V543153119040139264
p1218
sVsizes
p1219
(dp1220
Vsmall
p1221
(dp1222
Vh
p1223
I453
sVresize
p1224
Vfit
p1225
sVw
p1226
I340
ssVlarge
p1227
(dp1228
Vh
p1229
I667
sVresize
p1230
Vfit
p1231
sVw
p1232
I500
ssVmedium
p1233
(dp1234
Vh
p1235
I667
sVresize
p1236
Vfit
p1237
sVw
p1238
I500
ssVthumb
p1239
(dp1240
Vh
p1241
I150
sVresize
p1242
Vcrop
p1243
sVw
p1244
I150
sssVindices
p1245
(lp1246
I109
aI131
asVtype
p1247
Vphoto
p1248
sVid
p1249
I543153119040139264
sVmedia_url
p1250
Vhttp://pbs.twimg.com/media/B4mq4k8IcAAUCd0.jpg
p1251
sasg49
Nsg50
Nsg51
Nsg52
VThu Dec 11 21:20:37 +0000 2014
p1252
sg54
Nsg55
I00
sg56
Nsg57
Nsg58
Nsg59
Nsg60
I00
sg61
Nsg62
(lp1253
g3
(g74
g5
Ntp1254
Rp1255
(dp1256
g10
Nsg79
Nsg81
Nsg83
Nsg85
Nsg86
Nsg52
Nsg88
Nsg89
Nsg91
Nsg93
Nsg94
Nsg95
Nsg96
Nsg97
Nsg98
Nsg100
Nsg101
Nsg102
Nsg104
Nsg105
Nsg106
Nsg108
VWetGrannySluts
p1257
sg110
Nsg111
VWet Granny Sluts
p1258
sg113
Nsg115
Nsg117
I2414617718
sg118
Nsbasg64
Nsg65
V543153403179048960
p1259
sg67
Nsg68
VRT @WetGrannySluts: #Watch #Granny #Porn: http://t.co/YXhplofHrN #free #hardcore #old #grey #mature #videos. http://t.co/6pFVbZ6NWc
p1260
sg70
I00
sg71
Vund
p1261
sg73
g3
(g74
g5
Ntp1262
Rp1263
(dp1264
g10
VLondon Dagenham ENGLAND
p1265
sg79
V333333
p1266
sg81
Ven
p1267
sg83
Nsg85
I546
sg86
I5172
sg52
VFri Jan 24 21:09:18 +0000 2014
p1268
sg88
I00
sg89
V6,4 Blk Male for real Cuck couples BBw mature fems Only \u000alondon and home counties please!!! All else blocked..Kik:thedjwr
p1269
sg91
Vhttps://pbs.twimg.com/profile_images/532651467287855106/EdS37RRW_normal.jpeg
p1270
sg93
I586
sg94
I6409
sg95
Nsg96
Nsg97
I00
sg98
Vhttps://pbs.twimg.com/profile_banners/2302216678/1413400226
p1271
sg100
I00
sg101
I00
sg102
V0084B4
p1272
sg104
I00
sg105
I00
sg106
Vhttp://abs.twimg.com/images/themes/theme1/bg.png
p1273
sg108
VBBC4service
p1274
sg110
I4
sg111
VLondonBlakguy
p1275
sg113
VDDEEF6
p1276
sg115
Nsg117
I2302216678
sg118
VC0DEED
p1277
sbsg120
I5
sg121
V<a href="http://twitter.com/download/iphone" rel="nofollow">Twitter for iPhone</a>
p1278
sg123
(lp1279
g3
(g125
g5
Ntp1280
Rp1281
(dp1282
g129
Vhttp://t.co/YXhplofHrN
p1283
sg131
Vhttp://pimpporn.org
p1284
sbasg117
I543153403179048960
sbag3
(g4
g5
Ntp1285
Rp1286
(dp1287
g9
I0
sg10
Nsg11
Nsg12
(lp1288
g3
(g14
g5
Ntp1289
Rp1290
(dp1291
g18
VSquirting
p1292
sbag3
(g14
g5
Ntp1293
Rp1294
(dp1295
g18
VEjaculation
p1296
sbag3
(g14
g5
Ntp1297
Rp1298
(dp1299
g18
VPussy
p1300
sbasg28
I00
sg29
g3
(g4
g5
Ntp1301
Rp1302
(dp1303
g9
I3
sg10
Nsg11
Nsg12
(lp1304
g3
(g14
g5
Ntp1305
Rp1306
(dp1307
g18
VSquirting
p1308
sbag3
(g14
g5
Ntp1309
Rp1310
(dp1311
g18
VEjaculation
p1312
sbag3
(g14
g5
Ntp1313
Rp1314
(dp1315
g18
VPussy
p1316
sbasg28
I00
sg29
Nsg46
Nsg47
(lp1317
sg49
Nsg50
Nsg51
Nsg52
VMon Dec 08 10:32:39 +0000 2014
p1318
sg54
Nsg55
I00
sg56
Nsg57
Nsg58
Nsg59
Nsg60
I00
sg61
Nsg62
(lp1319
g3
(g74
g5
Ntp1320
Rp1321
(dp1322
g10
Nsg79
Nsg81
Nsg83
Nsg85
Nsg86
Nsg52
Nsg88
Nsg89
Nsg91
Nsg93
Nsg94
Nsg95
Nsg96
Nsg97
Nsg98
Nsg100
Nsg101
Nsg102
Nsg104
Nsg105
Nsg106
Nsg108
VSquirtingLadies
p1323
sg110
Nsg111
VSquirtingLadies
p1324
sg113
Nsg115
Nsg117
I2876745063
sg118
Nsbasg64
Nsg65
V541903175616196608
p1325
sg67
Nsg68
V"@SquirtingLadies: THE SQUIRTING TUBE SITE #1\u000aClick Here http://t.co/g5OMe3lldD\u000a#Squirting #Ejaculation #Pussy http://t.co/UgssVQQTUA"
p1326
sg70
I00
sg71
Ven
p1327
sg73
g3
(g74
g5
Ntp1328
Rp1329
(dp1330
g10
Vmed
p1331
sg79
V333333
p1332
sg81
Vid
p1333
sg83
Nsg85
I181
sg86
I150
sg52
VFri Aug 22 12:38:17 +0000 2014
p1334
sg88
I00
sg89
g78
sg91
Vhttps://pbs.twimg.com/profile_images/542322418706960385/Jd1dJdyH_normal.jpeg
p1335
sg93
I90
sg94
I19
sg95
Nsg96
Nsg97
I00
sg98
Vhttps://pbs.twimg.com/profile_banners/2754861973/1409213842
p1336
sg100
I00
sg101
I00
sg102
V0084B4
p1337
sg104
I01
sg105
I00
sg106
Vhttp://abs.twimg.com/images/themes/theme1/bg.png
p1338
sg108
Vsukijahgog
p1339
sg110
I2
sg111
V ijah
p1340
sg113
VDDEEF6
p1341
sg115
Nsg117
I2754861973
sg118
VC0DEED
p1342
sbsg120
I3
sg121
V<a href="http://twitter.com/download/android" rel="nofollow">Twitter for Android</a>
p1343
sg123
(lp1344
g3
(g125
g5
Ntp1345
Rp1346
(dp1347
g129
Vhttp://t.co/g5OMe3lldD
p1348
sg131
Vhttp://buff.ly/1FdPc55
p1349
sbag3
(g125
g5
Ntp1350
Rp1351
(dp1352
g129
Vhttp://t.co/UgssVQQTUA
p1353
sg131
Vhttp://twitter.com/SquirtingLadies/status/537093363993182209/photo/1
p1354
sbasg117
I541903175616196608
sbsg46
Nsg47
(lp1355
sg49
Nsg50
Nsg51
Nsg52
VThu Dec 11 12:25:39 +0000 2014
p1356
sg54
Nsg55
I00
sg56
Nsg57
Nsg58
Nsg59
Nsg60
I00
sg61
Nsg62
(lp1357
g3
(g74
g5
Ntp1358
Rp1359
(dp1360
g10
Nsg79
Nsg81
Nsg83
Nsg85
Nsg86
Nsg52
Nsg88
Nsg89
Nsg91
Nsg93
Nsg94
Nsg95
Nsg96
Nsg97
Nsg98
Nsg100
Nsg101
Nsg102
Nsg104
Nsg105
Nsg106
Nsg108
Vsukijahgog
p1361
sg110
Nsg111
V ijah
p1362
sg113
Nsg115
Nsg117
I2754861973
sg118
Nsbag3
(g74
g5
Ntp1363
Rp1364
(dp1365
g10
Nsg79
Nsg81
Nsg83
Nsg85
Nsg86
Nsg52
Nsg88
Nsg89
Nsg91
Nsg93
Nsg94
Nsg95
Nsg96
Nsg97
Nsg98
Nsg100
Nsg101
Nsg102
Nsg104
Nsg105
Nsg106
Nsg108
VSquirtingLadies
p1366
sg110
Nsg111
VSquirtingLadies
p1367
sg113
Nsg115
Nsg117
I2876745063
sg118
Nsbasg64
Nsg65
V543018773742383105
p1368
sg67
Nsg68
VRT @sukijahgog: "@SquirtingLadies: THE SQUIRTING TUBE SITE #1\u000aClick Here http://t.co/g5OMe3lldD\u000a#Squirting #Ejaculation #Pussy http://t.co/\u2026
p1369
sg70
I00
sg71
Ven
p1370
sg73
g3
(g74
g5
Ntp1371
Rp1372
(dp1373
g10
VLondon Dagenham ENGLAND
p1374
sg79
V333333
p1375
sg81
Ven
p1376
sg83
Nsg85
I546
sg86
I5172
sg52
VFri Jan 24 21:09:18 +0000 2014
p1377
sg88
I00
sg89
V6,4 Blk Male for real Cuck couples BBw mature fems Only \u000alondon and home counties please!!! All else blocked..Kik:thedjwr
p1378
sg91
Vhttps://pbs.twimg.com/profile_images/532651467287855106/EdS37RRW_normal.jpeg
p1379
sg93
I586
sg94
I6409
sg95
Nsg96
Nsg97
I00
sg98
Vhttps://pbs.twimg.com/profile_banners/2302216678/1413400226
p1380
sg100
I00
sg101
I00
sg102
V0084B4
p1381
sg104
I00
sg105
I00
sg106
Vhttp://abs.twimg.com/images/themes/theme1/bg.png
p1382
sg108
VBBC4service
p1383
sg110
I4
sg111
VLondonBlakguy
p1384
sg113
VDDEEF6
p1385
sg115
Nsg117
I2302216678
sg118
VC0DEED
p1386
sbsg120
I3
sg121
V<a href="http://twitter.com/download/iphone" rel="nofollow">Twitter for iPhone</a>
p1387
sg123
(lp1388
g3
(g125
g5
Ntp1389
Rp1390
(dp1391
g129
Vhttp://t.co/g5OMe3lldD
p1392
sg131
Vhttp://buff.ly/1FdPc55
p1393
sbag3
(g125
g5
Ntp1394
Rp1395
(dp1396
g129
Vhttp://t.co/UgssVQQTUA
p1397
sg131
Vhttp://twitter.com/SquirtingLadies/status/537093363993182209/photo/1
p1398
sbasg117
I543018773742383105
sbag3
(g4
g5
Ntp1399
Rp1400
(dp1401
g9
I0
sg10
Nsg11
Nsg12
(lp1402
sg28
I00
sg29
g3
(g4
g5
Ntp1403
Rp1404
(dp1405
g9
I7
sg10
Nsg11
Nsg12
(lp1406
sg28
I00
sg29
Nsg46
Nsg47
(lp1407
(dp1408
Vsource_user_id
p1409
I1487754553
sVsource_status_id_str
p1410
V525127041176567808
p1411
sVexpanded_url
p1412
Vhttp://twitter.com/taboolesswhore/status/525127041176567808/photo/1
p1413
sVdisplay_url
p1414
Vpic.twitter.com/fAdjj0wSKr
p1415
sVurl
p1416
Vhttp://t.co/fAdjj0wSKr
p1417
sVmedia_url_https
p1418
Vhttps://pbs.twimg.com/media/B0mgPnDIUAAqOAx.jpg
p1419
sVsource_user_id_str
p1420
V1487754553
p1421
sVsource_status_id
p1422
I525127041176567808
sVid_str
p1423
V525127021605965824
p1424
sVsizes
p1425
(dp1426
Vsmall
p1427
(dp1428
Vh
p1429
I250
sVresize
p1430
Vfit
p1431
sVw
p1432
I340
ssVlarge
p1433
(dp1434
Vh
p1435
I663
sVresize
p1436
Vfit
p1437
sVw
p1438
I900
ssVmedium
p1439
(dp1440
Vh
p1441
I442
sVresize
p1442
Vfit
p1443
sVw
p1444
I600
ssVthumb
p1445
(dp1446
Vh
p1447
I150
sVresize
p1448
Vcrop
p1449
sVw
p1450
I150
sssVindices
p1451
(lp1452
I66
aI88
asVtype
p1453
Vphoto
p1454
sVid
p1455
I525127021605965824
sVmedia_url
p1456
Vhttp://pbs.twimg.com/media/B0mgPnDIUAAqOAx.jpg
p1457
sasg49
Nsg50
Nsg51
Nsg52
VMon Oct 27 04:15:25 +0000 2014
p1458
sg54
Nsg55
I00
sg56
Vtaboolesswhore
p1459
sg57
Nsg58
I1487754553
sg59
Nsg60
I00
sg61
Nsg62
(lp1460
g3
(g74
g5
Ntp1461
Rp1462
(dp1463
g10
Nsg79
Nsg81
Nsg83
Nsg85
Nsg86
Nsg52
Nsg88
Nsg89
Nsg91
Nsg93
Nsg94
Nsg95
Nsg96
Nsg97
Nsg98
Nsg100
Nsg101
Nsg102
Nsg104
Nsg105
Nsg106
Nsg108
Vtaboolesswhore
p1464
sg110
Nsg111
VTabooless Whore
p1465
sg113
Nsg115
Nsg117
I1487754553
sg118
Nsbag3
(g74
g5
Ntp1466
Rp1467
(dp1468
g10
Nsg79
Nsg81
Nsg83
Nsg85
Nsg86
Nsg52
Nsg88
Nsg89
Nsg91
Nsg93
Nsg94
Nsg95
Nsg96
Nsg97
Nsg98
Nsg100
Nsg101
Nsg102
Nsg104
Nsg105
Nsg106
Nsg108
VPauleLundquist
p1469
sg110
Nsg111
VPaule Lundquist
p1470
sg113
Nsg115
Nsg117
I2412444464
sg118
Nsbasg64
Nsg65
V526587950042066944
p1471
sg67
I525127041176567808
sg68
V\u201c@taboolesswhore: @FickMatratze @PauleLundquist so zum Beispiel \U0001f61c http://t.co/fAdjj0wSKr\u201d
p1472
sg70
I00
sg71
Vde
p1473
sg73
g3
(g74
g5
Ntp1474
Rp1475
(dp1476
g10
g78
sg79
V333333
p1477
sg81
Vzh-Hans
p1478
sg83
Nsg85
I400
sg86
I457
sg52
VWed Jan 01 22:51:22 +0000 2014
p1479
sg88
I00
sg89
g78
sg91
Vhttps://pbs.twimg.com/profile_images/512812818773442560/c7v0Y4oE_normal.jpeg
p1480
sg93
I114
sg94
I7
sg95
Nsg96
Nsg97
I00
sg98
Vhttps://pbs.twimg.com/profile_banners/2272181448/1411099082
p1481
sg100
I00
sg101
I00
sg102
V0084B4
p1482
sg104
I00
sg105
I00
sg106
Vhttp://abs.twimg.com/images/themes/theme1/bg.png
p1483
sg108
Vanycall1390
p1484
sg110
I6
sg111
V\u5ad1\u5626
p1485
sg113
VDDEEF6
p1486
sg115
Nsg117
I2272181448
sg118
VC0DEED
p1487
sbsg120
I4
sg121
V<a href="http://twitter.com/download/iphone" rel="nofollow">Twitter for iPhone</a>
p1488
sg123
(lp1489
sg117
I526587950042066944
sbsg46
Nsg47
(lp1490
(dp1491
Vsource_user_id
p1492
I1487754553
sVsource_status_id_str
p1493
V525127041176567808
p1494
sVexpanded_url
p1495
Vhttp://twitter.com/taboolesswhore/status/525127041176567808/photo/1
p1496
sVdisplay_url
p1497
Vpic.twitter.com/fAdjj0wSKr
p1498
sVurl
p1499
Vhttp://t.co/fAdjj0wSKr
p1500
sVmedia_url_https
p1501
Vhttps://pbs.twimg.com/media/B0mgPnDIUAAqOAx.jpg
p1502
sVsource_user_id_str
p1503
V1487754553
p1504
sVsource_status_id
p1505
I525127041176567808
sVid_str
p1506
V525127021605965824
p1507
sVsizes
p1508
(dp1509
Vsmall
p1510
(dp1511
Vh
p1512
I250
sVresize
p1513
Vfit
p1514
sVw
p1515
I340
ssVlarge
p1516
(dp1517
Vh
p1518
I663
sVresize
p1519
Vfit
p1520
sVw
p1521
I900
ssVmedium
p1522
(dp1523
Vh
p1524
I442
sVresize
p1525
Vfit
p1526
sVw
p1527
I600
ssVthumb
p1528
(dp1529
Vh
p1530
I150
sVresize
p1531
Vcrop
p1532
sVw
p1533
I150
sssVindices
p1534
(lp1535
I83
aI105
asVtype
p1536
Vphoto
p1537
sVid
p1538
I525127021605965824
sVmedia_url
p1539
Vhttp://pbs.twimg.com/media/B0mgPnDIUAAqOAx.jpg
p1540
sasg49
Nsg50
Nsg51
Nsg52
VThu Dec 11 12:24:54 +0000 2014
p1541
sg54
Nsg55
I00
sg56
Nsg57
Nsg58
Nsg59
Nsg60
I00
sg61
Nsg62
(lp1542
g3
(g74
g5
Ntp1543
Rp1544
(dp1545
g10
Nsg79
Nsg81
Nsg83
Nsg85
Nsg86
Nsg52
Nsg88
Nsg89
Nsg91
Nsg93
Nsg94
Nsg95
Nsg96
Nsg97
Nsg98
Nsg100
Nsg101
Nsg102
Nsg104
Nsg105
Nsg106
Nsg108
Vanycall1390
p1546
sg110
Nsg111
V\u5ad1\u5626
p1547
sg113
Nsg115
Nsg117
I2272181448
sg118
Nsbag3
(g74
g5
Ntp1548
Rp1549
(dp1550
g10
Nsg79
Nsg81
Nsg83
Nsg85
Nsg86
Nsg52
Nsg88
Nsg89
Nsg91
Nsg93
Nsg94
Nsg95
Nsg96
Nsg97
Nsg98
Nsg100
Nsg101
Nsg102
Nsg104
Nsg105
Nsg106
Nsg108
Vtaboolesswhore
p1551
sg110
Nsg111
VTabooless Whore
p1552
sg113
Nsg115
Nsg117
I1487754553
sg118
Nsbag3
(g74
g5
Ntp1553
Rp1554
(dp1555
g10
Nsg79
Nsg81
Nsg83
Nsg85
Nsg86
Nsg52
Nsg88
Nsg89
Nsg91
Nsg93
Nsg94
Nsg95
Nsg96
Nsg97
Nsg98
Nsg100
Nsg101
Nsg102
Nsg104
Nsg105
Nsg106
Nsg108
VPauleLundquist
p1556
sg110
Nsg111
VPaule Lundquist
p1557
sg113
Nsg115
Nsg117
I2412444464
sg118
Nsbasg64
Nsg65
V543018587863400448
p1558
sg67
Nsg68
VRT @anycall1390: \u201c@taboolesswhore: @FickMatratze @PauleLundquist so zum Beispiel \U0001f61c http://t.co/fAdjj0wSKr\u201d
p1559
sg70
I00
sg71
Vde
p1560
sg73
g3
(g74
g5
Ntp1561
Rp1562
(dp1563
g10
VLondon Dagenham ENGLAND
p1564
sg79
V333333
p1565
sg81
Ven
p1566
sg83
Nsg85
I546
sg86
I5172
sg52
VFri Jan 24 21:09:18 +0000 2014
p1567
sg88
I00
sg89
V6,4 Blk Male for real Cuck couples BBw mature fems Only \u000alondon and home counties please!!! All else blocked..Kik:thedjwr
p1568
sg91
Vhttps://pbs.twimg.com/profile_images/532651467287855106/EdS37RRW_normal.jpeg
p1569
sg93
I586
sg94
I6409
sg95
Nsg96
Nsg97
I00
sg98
Vhttps://pbs.twimg.com/profile_banners/2302216678/1413400226
p1570
sg100
I00
sg101
I00
sg102
V0084B4
p1571
sg104
I00
sg105
I00
sg106
Vhttp://abs.twimg.com/images/themes/theme1/bg.png
p1572
sg108
VBBC4service
p1573
sg110
I4
sg111
VLondonBlakguy
p1574
sg113
VDDEEF6
p1575
sg115
Nsg117
I2302216678
sg118
VC0DEED
p1576
sbsg120
I4
sg121
V<a href="http://twitter.com/download/iphone" rel="nofollow">Twitter for iPhone</a>
p1577
sg123
(lp1578
sg117
I543018587863400448
sbag3
(g4
g5
Ntp1579
Rp1580
(dp1581
g9
I0
sg10
Nsg11
Nsg12
(lp1582
sg28
I00
sg29
g3
(g4
g5
Ntp1583
Rp1584
(dp1585
g9
I33
sg10
Nsg11
Nsg12
(lp1586
sg28
I00
sg29
Nsg46
Nsg47
(lp1587
(dp1588
Vexpanded_url
p1589
Vhttp://twitter.com/EveryThing_BBW/status/543004506741825536/photo/1
p1590
sVdisplay_url
p1591
Vpic.twitter.com/86bviOmrmr
p1592
sVurl
p1593
Vhttp://t.co/86bviOmrmr
p1594
sVmedia_url_https
p1595
Vhttps://pbs.twimg.com/media/B4kjt4iIcAAJjTC.jpg
p1596
sVid_str
p1597
V543004501251485696
p1598
sVsizes
p1599
(dp1600
Vsmall
p1601
(dp1602
Vh
p1603
I226
sVresize
p1604
Vfit
p1605
sVw
p1606
I340
ssVlarge
p1607
(dp1608
Vh
p1609
I532
sVresize
p1610
Vfit
p1611
sVw
p1612
I800
ssVmedium
p1613
(dp1614
Vh
p1615
I399
sVresize
p1616
Vfit
p1617
sVw
p1618
I600
ssVthumb
p1619
(dp1620
Vh
p1621
I150
sVresize
p1622
Vcrop
p1623
sVw
p1624
I150
sssVindices
p1625
(lp1626
I17
aI39
asVtype
p1627
Vphoto
p1628
sVid
p1629
I543004501251485696
sVmedia_url
p1630
Vhttp://pbs.twimg.com/media/B4kjt4iIcAAJjTC.jpg
p1631
sasg49
Nsg50
Nsg51
Nsg52
VThu Dec 11 11:28:57 +0000 2014
p1632
sg54
Nsg55
I00
sg56
Nsg57
Nsg58
Nsg59
Nsg60
I00
sg61
Nsg62
(lp1633
sg64
Nsg65
V543004506741825536
p1634
sg67
Nsg68
VRose Valentina \U0001f64c http://t.co/86bviOmrmr
p1635
sg70
I00
sg71
Vlt
p1636
sg73
g3
(g74
g5
Ntp1637
Rp1638
(dp1639
g10
g78
sg79
V333333
p1640
sg81
Ven
p1641
sg83
Nsg85
I16263
sg86
I9452
sg52
VSat Apr 05 12:38:07 +0000 2014
p1642
sg88
I00
sg89
VEverything BBW \u000aAvi is the Incredible @LMounds | Header is the beautiful @MissMarieAurora
p1643
sg91
Vhttps://pbs.twimg.com/profile_images/525367854582226946/0Rm-hD8m_normal.jpeg
p1644
sg93
I419
sg94
I27032
sg95
Nsg96
Nsg97
I00
sg98
Vhttps://pbs.twimg.com/profile_banners/2428840508/1413130520
p1645
sg100
I00
sg101
I00
sg102
V0084B4
p1646
sg104
I00
sg105
I00
sg106
Vhttp://abs.twimg.com/images/themes/theme1/bg.png
p1647
sg108
VEveryThing_BBW
p1648
sg110
I59
sg111
VEveryThing_BBW
p1649
sg113
VDDEEF6
p1650
sg115
Nsg117
I2428840508
sg118
VC0DEED
p1651
sbsg120
I9
sg121
V<a href="http://twitter.com/download/iphone" rel="nofollow">Twitter for iPhone</a>
p1652
sg123
(lp1653
sg117
I543004506741825536
sbsg46
Nsg47
(lp1654
(dp1655
Vsource_user_id
p1656
I2428840508
sVsource_status_id_str
p1657
V543004506741825536
p1658
sVexpanded_url
p1659
Vhttp://twitter.com/EveryThing_BBW/status/543004506741825536/photo/1
p1660
sVdisplay_url
p1661
Vpic.twitter.com/86bviOmrmr
p1662
sVurl
p1663
Vhttp://t.co/86bviOmrmr
p1664
sVmedia_url_https
p1665
Vhttps://pbs.twimg.com/media/B4kjt4iIcAAJjTC.jpg
p1666
sVsource_user_id_str
p1667
V2428840508
p1668
sVsource_status_id
p1669
I543004506741825536
sVid_str
p1670
V543004501251485696
p1671
sVsizes
p1672
(dp1673
Vsmall
p1674
(dp1675
Vh
p1676
I226
sVresize
p1677
Vfit
p1678
sVw
p1679
I340
ssVlarge
p1680
(dp1681
Vh
p1682
I532
sVresize
p1683
Vfit
p1684
sVw
p1685
I800
ssVmedium
p1686
(dp1687
Vh
p1688
I399
sVresize
p1689
Vfit
p1690
sVw
p1691
I600
ssVthumb
p1692
(dp1693
Vh
p1694
I150
sVresize
p1695
Vcrop
p1696
sVw
p1697
I150
sssVindices
p1698
(lp1699
I37
aI59
asVtype
p1700
Vphoto
p1701
sVid
p1702
I543004501251485696
sVmedia_url
p1703
Vhttp://pbs.twimg.com/media/B4kjt4iIcAAJjTC.jpg
p1704
sasg49
Nsg50
Nsg51
Nsg52
VThu Dec 11 12:21:48 +0000 2014
p1705
sg54
Nsg55
I00
sg56
Nsg57
Nsg58
Nsg59
Nsg60
I00
sg61
Nsg62
(lp1706
g3
(g74
g5
Ntp1707
Rp1708
(dp1709
g10
Nsg79
Nsg81
Nsg83
Nsg85
Nsg86
Nsg52
Nsg88
Nsg89
Nsg91
Nsg93
Nsg94
Nsg95
Nsg96
Nsg97
Nsg98
Nsg100
Nsg101
Nsg102
Nsg104
Nsg105
Nsg106
Nsg108
VEveryThing_BBW
p1710
sg110
Nsg111
VEveryThing_BBW
p1711
sg113
Nsg115
Nsg117
I2428840508
sg118
Nsbasg64
Nsg65
V543017805906722816
p1712
sg67
Nsg68
VRT @EveryThing_BBW: Rose Valentina \U0001f64c http://t.co/86bviOmrmr
p1713
sg70
I00
sg71
Vlt
p1714
sg73
g3
(g74
g5
Ntp1715
Rp1716
(dp1717
g10
VLondon Dagenham ENGLAND
p1718
sg79
V333333
p1719
sg81
Ven
p1720
sg83
Nsg85
I546
sg86
I5172
sg52
VFri Jan 24 21:09:18 +0000 2014
p1721
sg88
I00
sg89
V6,4 Blk Male for real Cuck couples BBw mature fems Only \u000alondon and home counties please!!! All else blocked..Kik:thedjwr
p1722
sg91
Vhttps://pbs.twimg.com/profile_images/532651467287855106/EdS37RRW_normal.jpeg
p1723
sg93
I586
sg94
I6409
sg95
Nsg96
Nsg97
I00
sg98
Vhttps://pbs.twimg.com/profile_banners/2302216678/1413400226
p1724
sg100
I00
sg101
I00
sg102
V0084B4
p1725
sg104
I00
sg105
I00
sg106
Vhttp://abs.twimg.com/images/themes/theme1/bg.png
p1726
sg108
VBBC4service
p1727
sg110
I4
sg111
VLondonBlakguy
p1728
sg113
VDDEEF6
p1729
sg115
Nsg117
I2302216678
sg118
VC0DEED
p1730
sbsg120
I9
sg121
V<a href="http://twitter.com/download/iphone" rel="nofollow">Twitter for iPhone</a>
p1731
sg123
(lp1732
sg117
I543017805906722816
sbag3
(g4
g5
Ntp1733
Rp1734
(dp1735
g9
I0
sg10
Nsg11
Nsg12
(lp1736
g3
(g14
g5
Ntp1737
Rp1738
(dp1739
g18
VSquirting
p1740
sbag3
(g14
g5
Ntp1741
Rp1742
(dp1743
g18
VEjaculation
p1744
sbag3
(g14
g5
Ntp1745
Rp1746
(dp1747
g18
VPussy
p1748
sbasg28
I00
sg29
g3
(g4
g5
Ntp1749
Rp1750
(dp1751
g9
I47
sg10
Nsg11
Nsg12
(lp1752
g3
(g14
g5
Ntp1753
Rp1754
(dp1755
g18
VSquirting
p1756
sbag3
(g14
g5
Ntp1757
Rp1758
(dp1759
g18
VEjaculation
p1760
sbag3
(g14
g5
Ntp1761
Rp1762
(dp1763
g18
VPussy
p1764
sbasg28
I00
sg29
Nsg46
Nsg47
(lp1765
sg49
Nsg50
Nsg51
Nsg52
VThu Dec 11 12:00:32 +0000 2014
p1766
sg54
Nsg55
I00
sg56
Nsg57
Nsg58
Nsg59
Nsg60
I00
sg61
Nsg62
(lp1767
sg64
Nsg65
V543012456118124544
p1768
sg67
Nsg68
VTHE BEST SQUIRTING TUBE SITE\u000aClick Here http://t.co/aQkGy2EyHv\u000a#Squirting #Ejaculation #Pussy http://t.co/IwW3zfIJDz
p1769
sg70
I00
sg71
Ven
p1770
sg73
g3
(g74
g5
Ntp1771
Rp1772
(dp1773
g10
g78
sg79
V000000
p1774
sg81
Ven
p1775
sg83
VLondon
p1776
sg85
I14175
sg86
I2099
sg52
VTue Sep 30 22:11:31 +0000 2014
p1777
sg88
I00
sg89
VThe Top Squirting Website!
p1778
sg91
Vhttps://pbs.twimg.com/profile_images/517075419753754624/WdA3Ykl6_normal.png
p1779
sg93
I1852
sg94
I638
sg95
I0
sg96
Nsg97
I00
sg98
Vhttps://pbs.twimg.com/profile_banners/2796572404/1412115384
p1780
sg100
I00
sg101
I00
sg102
VF5ABB5
p1781
sg104
I00
sg105
I00
sg106
Vhttp://abs.twimg.com/images/themes/theme1/bg.png
p1782
sg108
VTopSquirt
p1783
sg110
I63
sg111
VTopSquirt
p1784
sg113
V000000
p1785
sg115
Vhttp://t.co/pW5HA3FfMH
p1786
sg117
I2796572404
sg118
V000000
p1787
sbsg120
I34
sg121
V<a href="http://bufferapp.com" rel="nofollow">Buffer</a>
p1788
sg123
(lp1789
g3
(g125
g5
Ntp1790
Rp1791
(dp1792
g129
Vhttp://t.co/aQkGy2EyHv
p1793
sg131
Vhttp://buff.ly/15ZW75A
p1794
sbag3
(g125
g5
Ntp1795
Rp1796
(dp1797
g129
Vhttp://t.co/IwW3zfIJDz
p1798
sg131
Vhttp://twitter.com/TopSquirt/status/543012456118124544/photo/1
p1799
sbasg117
I543012456118124544
sbsg46
Nsg47
(lp1800
sg49
Nsg50
Nsg51
Nsg52
VThu Dec 11 12:21:06 +0000 2014
p1801
sg54
Nsg55
I00
sg56
Nsg57
Nsg58
Nsg59
Nsg60
I00
sg61
Nsg62
(lp1802
g3
(g74
g5
Ntp1803
Rp1804
(dp1805
g10
Nsg79
Nsg81
Nsg83
Nsg85
Nsg86
Nsg52
Nsg88
Nsg89
Nsg91
Nsg93
Nsg94
Nsg95
Nsg96
Nsg97
Nsg98
Nsg100
Nsg101
Nsg102
Nsg104
Nsg105
Nsg106
Nsg108
VTopSquirt
p1806
sg110
Nsg111
VTopSquirt
p1807
sg113
Nsg115
Nsg117
I2796572404
sg118
Nsbasg64
Nsg65
V543017628848377857
p1808
sg67
Nsg68
VRT @TopSquirt: THE BEST SQUIRTING TUBE SITE\u000aClick Here http://t.co/aQkGy2EyHv\u000a#Squirting #Ejaculation #Pussy http://t.co/IwW3zfIJDz
p1809
sg70
I00
sg71
Ven
p1810
sg73
g3
(g74
g5
Ntp1811
Rp1812
(dp1813
g10
VLondon Dagenham ENGLAND
p1814
sg79
V333333
p1815
sg81
Ven
p1816
sg83
Nsg85
I546
sg86
I5172
sg52
VFri Jan 24 21:09:18 +0000 2014
p1817
sg88
I00
sg89
V6,4 Blk Male for real Cuck couples BBw mature fems Only \u000alondon and home counties please!!! All else blocked..Kik:thedjwr
p1818
sg91
Vhttps://pbs.twimg.com/profile_images/532651467287855106/EdS37RRW_normal.jpeg
p1819
sg93
I586
sg94
I6409
sg95
Nsg96
Nsg97
I00
sg98
Vhttps://pbs.twimg.com/profile_banners/2302216678/1413400226
p1820
sg100
I00
sg101
I00
sg102
V0084B4
p1821
sg104
I00
sg105
I00
sg106
Vhttp://abs.twimg.com/images/themes/theme1/bg.png
p1822
sg108
VBBC4service
p1823
sg110
I4
sg111
VLondonBlakguy
p1824
sg113
VDDEEF6
p1825
sg115
Nsg117
I2302216678
sg118
VC0DEED
p1826
sbsg120
I34
sg121
V<a href="http://twitter.com/download/iphone" rel="nofollow">Twitter for iPhone</a>
p1827
sg123
(lp1828
g3
(g125
g5
Ntp1829
Rp1830
(dp1831
g129
Vhttp://t.co/aQkGy2EyHv
p1832
sg131
Vhttp://buff.ly/15ZW75A
p1833
sbag3
(g125
g5
Ntp1834
Rp1835
(dp1836
g129
Vhttp://t.co/IwW3zfIJDz
p1837
sg131
Vhttp://twitter.com/TopSquirt/status/543012456118124544/photo/1
p1838
sbasg117
I543017628848377857
sbag3
(g4
g5
Ntp1839
Rp1840
(dp1841
g9
I0
sg10
Nsg11
Nsg12
(lp1842
g3
(g14
g5
Ntp1843
Rp1844
(dp1845
g18
VSquirting
p1846
sbag3
(g14
g5
Ntp1847
Rp1848
(dp1849
g18
VEjaculation
p1850
sbag3
(g14
g5
Ntp1851
Rp1852
(dp1853
g18
VPussy
p1854
sbasg28
I00
sg29
g3
(g4
g5
Ntp1855
Rp1856
(dp1857
g9
I50
sg10
Nsg11
Nsg12
(lp1858
g3
(g14
g5
Ntp1859
Rp1860
(dp1861
g18
VSquirting
p1862
sbag3
(g14
g5
Ntp1863
Rp1864
(dp1865
g18
VEjaculation
p1866
sbag3
(g14
g5
Ntp1867
Rp1868
(dp1869
g18
VPussy
p1870
sbasg28
I00
sg29
Nsg46
Nsg47
(lp1871
sg49
Nsg50
Nsg51
Nsg52
VWed Dec 10 16:30:30 +0000 2014
p1872
sg54
Nsg55
I00
sg56
Nsg57
Nsg58
Nsg59
Nsg60
I00
sg61
Nsg62
(lp1873
sg64
Nsg65
V542718005202157569
p1874
sg67
Nsg68
VTopsquirt : 100% Squirting Videos\u000aClick Here http://t.co/tTrZi61kBT\u000a#Squirting #Ejaculation #Pussy http://t.co/ceDAgniPuV
p1875
sg70
I00
sg71
Ven
p1876
sg73
g3
(g74
g5
Ntp1877
Rp1878
(dp1879
g10
g78
sg79
V000000
p1880
sg81
Ven
p1881
sg83
VLondon
p1882
sg85
I14175
sg86
I2099
sg52
VTue Sep 30 22:11:31 +0000 2014
p1883
sg88
I00
sg89
VThe Top Squirting Website!
p1884
sg91
Vhttps://pbs.twimg.com/profile_images/517075419753754624/WdA3Ykl6_normal.png
p1885
sg93
I1852
sg94
I638
sg95
I0
sg96
Nsg97
I00
sg98
Vhttps://pbs.twimg.com/profile_banners/2796572404/1412115384
p1886
sg100
I00
sg101
I00
sg102
VF5ABB5
p1887
sg104
I00
sg105
I00
sg106
Vhttp://abs.twimg.com/images/themes/theme1/bg.png
p1888
sg108
VTopSquirt
p1889
sg110
I63
sg111
VTopSquirt
p1890
sg113
V000000
p1891
sg115
Vhttp://t.co/pW5HA3FfMH
p1892
sg117
I2796572404
sg118
V000000
p1893
sbsg120
I34
sg121
V<a href="http://bufferapp.com" rel="nofollow">Buffer</a>
p1894
sg123
(lp1895
g3
(g125
g5
Ntp1896
Rp1897
(dp1898
g129
Vhttp://t.co/tTrZi61kBT
p1899
sg131
Vhttp://buff.ly/1AU7NjX
p1900
sbag3
(g125
g5
Ntp1901
Rp1902
(dp1903
g129
Vhttp://t.co/ceDAgniPuV
p1904
sg131
Vhttp://twitter.com/TopSquirt/status/542718005202157569/photo/1
p1905
sbasg117
I542718005202157569
sbsg46
Nsg47
(lp1906
sg49
Nsg50
Nsg51
Nsg52
VWed Dec 10 19:06:31 +0000 2014
p1907
sg54
Nsg55
I00
sg56
Nsg57
Nsg58
Nsg59
Nsg60
I00
sg61
Nsg62
(lp1908
g3
(g74
g5
Ntp1909
Rp1910
(dp1911
g10
Nsg79
Nsg81
Nsg83
Nsg85
Nsg86
Nsg52
Nsg88
Nsg89
Nsg91
Nsg93
Nsg94
Nsg95
Nsg96
Nsg97
Nsg98
Nsg100
Nsg101
Nsg102
Nsg104
Nsg105
Nsg106
Nsg108
VTopSquirt
p1912
sg110
Nsg111
VTopSquirt
p1913
sg113
Nsg115
Nsg117
I2796572404
sg118
Nsbasg64
Nsg65
V542757270950797312
p1914
sg67
Nsg68
VRT @TopSquirt: Topsquirt : 100% Squirting Videos\u000aClick Here http://t.co/tTrZi61kBT\u000a#Squirting #Ejaculation #Pussy http://t.co/ceDAgniPuV
p1915
sg70
I00
sg71
Ven
p1916
sg73
g3
(g74
g5
Ntp1917
Rp1918
(dp1919
g10
VLondon Dagenham ENGLAND
p1920
sg79
V333333
p1921
sg81
Ven
p1922
sg83
Nsg85
I546
sg86
I5172
sg52
VFri Jan 24 21:09:18 +0000 2014
p1923
sg88
I00
sg89
V6,4 Blk Male for real Cuck couples BBw mature fems Only \u000alondon and home counties please!!! All else blocked..Kik:thedjwr
p1924
sg91
Vhttps://pbs.twimg.com/profile_images/532651467287855106/EdS37RRW_normal.jpeg
p1925
sg93
I586
sg94
I6409
sg95
Nsg96
Nsg97
I00
sg98
Vhttps://pbs.twimg.com/profile_banners/2302216678/1413400226
p1926
sg100
I00
sg101
I00
sg102
V0084B4
p1927
sg104
I00
sg105
I00
sg106
Vhttp://abs.twimg.com/images/themes/theme1/bg.png
p1928
sg108
VBBC4service
p1929
sg110
I4
sg111
VLondonBlakguy
p1930
sg113
VDDEEF6
p1931
sg115
Nsg117
I2302216678
sg118
VC0DEED
p1932
sbsg120
I34
sg121
V<a href="http://twitter.com/download/iphone" rel="nofollow">Twitter for iPhone</a>
p1933
sg123
(lp1934
g3
(g125
g5
Ntp1935
Rp1936
(dp1937
g129
Vhttp://t.co/tTrZi61kBT
p1938
sg131
Vhttp://buff.ly/1AU7NjX
p1939
sbag3
(g125
g5
Ntp1940
Rp1941
(dp1942
g129
Vhttp://t.co/ceDAgniPuV
p1943
sg131
Vhttp://twitter.com/TopSquirt/status/542718005202157569/photo/1
p1944
sbasg117
I542757270950797312
sbag3
(g4
g5
Ntp1945
Rp1946
(dp1947
g9
I0
sg10
Nsg11
Nsg12
(lp1948
g3
(g14
g5
Ntp1949
Rp1950
(dp1951
g18
VWatch
p1952
sbag3
(g14
g5
Ntp1953
Rp1954
(dp1955
g18
VGranny
p1956
sbag3
(g14
g5
Ntp1957
Rp1958
(dp1959
g18
VPorn
p1960
sbag3
(g14
g5
Ntp1961
Rp1962
(dp1963
g18
Vfree
p1964
sbag3
(g14
g5
Ntp1965
Rp1966
(dp1967
g18
Vhardcore
p1968
sbag3
(g14
g5
Ntp1969
Rp1970
(dp1971
g18
Vold
p1972
sbag3
(g14
g5
Ntp1973
Rp1974
(dp1975
g18
Vgrey
p1976
sbag3
(g14
g5
Ntp1977
Rp1978
(dp1979
g18
Vmature
p1980
sbag3
(g14
g5
Ntp1981
Rp1982
(dp1983
g18
Vvideos
p1984
sbasg28
I00
sg29
g3
(g4
g5
Ntp1985
Rp1986
(dp1987
g9
I13
sg10
Nsg11
Nsg12
(lp1988
g3
(g14
g5
Ntp1989
Rp1990
(dp1991
g18
VWatch
p1992
sbag3
(g14
g5
Ntp1993
Rp1994
(dp1995
g18
VGranny
p1996
sbag3
(g14
g5
Ntp1997
Rp1998
(dp1999
g18
VPorn
p2000
sbag3
(g14
g5
Ntp2001
Rp2002
(dp2003
g18
Vfree
p2004
sbag3
(g14
g5
Ntp2005
Rp2006
(dp2007
g18
Vhardcore
p2008
sbag3
(g14
g5
Ntp2009
Rp2010
(dp2011
g18
Vold
p2012
sbag3
(g14
g5
Ntp2013
Rp2014
(dp2015
g18
Vgrey
p2016
sbag3
(g14
g5
Ntp2017
Rp2018
(dp2019
g18
Vmature
p2020
sbag3
(g14
g5
Ntp2021
Rp2022
(dp2023
g18
Vvideos
p2024
sbasg28
I00
sg29
Nsg46
Nsg47
(lp2025
(dp2026
Vexpanded_url
p2027
Vhttp://twitter.com/WetGrannySluts/status/542722897878716416/photo/1
p2028
sVdisplay_url
p2029
Vpic.twitter.com/ARQaTjRXkM
p2030
sVurl
p2031
Vhttp://t.co/ARQaTjRXkM
p2032
sVmedia_url_https
p2033
Vhttps://pbs.twimg.com/media/B4gjmZ2IAAAKMOt.jpg
p2034
sVid_str
p2035
V542722897778049024
p2036
sVsizes
p2037
(dp2038
Vlarge
p2039
(dp2040
Vh
p2041
I1280
sVresize
p2042
Vfit
p2043
sVw
p2044
I786
ssVsmall
p2045
(dp2046
Vh
p2047
I553
sVresize
p2048
Vfit
p2049
sVw
p2050
I340
ssVmedium
p2051
(dp2052
Vh
p2053
I977
sVresize
p2054
Vfit
p2055
sVw
p2056
I600
ssVthumb
p2057
(dp2058
Vh
p2059
I150
sVresize
p2060
Vcrop
p2061
sVw
p2062
I150
sssVindices
p2063
(lp2064
I89
aI111
asVtype
p2065
Vphoto
p2066
sVid
p2067
I542722897778049024
sVmedia_url
p2068
Vhttp://pbs.twimg.com/media/B4gjmZ2IAAAKMOt.jpg
p2069
sasg49
Nsg50
Nsg51
Nsg52
VWed Dec 10 16:49:56 +0000 2014
p2070
sg54
Nsg55
I01
sg56
Nsg57
Nsg58
Nsg59
Nsg60
I00
sg61
Nsg62
(lp2071
sg64
Nsg65
V542722897878716416
p2072
sg67
Nsg68
V#Watch #Granny #Porn: http://t.co/YXhplofHrN #free #hardcore #old #grey #mature #videos. http://t.co/ARQaTjRXkM
p2073
sg70
I00
sg71
Vund
p2074
sg73
g3
(g74
g5
Ntp2075
Rp2076
(dp2077
g10
g78
sg79
V333333
p2078
sg81
Vde
p2079
sg83
VCentral Time (US & Canada)
p2080
sg85
I7678
sg86
I7674
sg52
VThu Mar 27 16:31:33 +0000 2014
p2081
sg88
I00
sg89
VWet and Horny Granny Porn Pics and Movies.
p2082
sg91
Vhttps://pbs.twimg.com/profile_images/530124242214342656/BNLmZLPj_normal.jpeg
p2083
sg93
I20
sg94
I59
sg95
I-21600
sg96
Nsg97
I00
sg98
Nsg100
I00
sg101
I00
sg102
V0084B4
p2084
sg104
I00
sg105
I00
sg106
Vhttp://abs.twimg.com/images/themes/theme1/bg.png
p2085
sg108
VWetGrannySluts
p2086
sg110
I62
sg111
VWet Granny Sluts
p2087
sg113
VDDEEF6
p2088
sg115
Vhttp://t.co/fPZVmnHcJz
p2089
sg117
I2414617718
sg118
VC0DEED
p2090
sbsg120
I8
sg121
V<a href="http://ifttt.com" rel="nofollow">IFTTT</a>
p2091
sg123
(lp2092
g3
(g125
g5
Ntp2093
Rp2094
(dp2095
g129
Vhttp://t.co/YXhplofHrN
p2096
sg131
Vhttp://pimpporn.org
p2097
sbasg117
I542722897878716416
sbsg46
Nsg47
(lp2098
(dp2099
Vsource_user_id
p2100
I2414617718
sVsource_status_id_str
p2101
V542722897878716416
p2102
sVexpanded_url
p2103
Vhttp://twitter.com/WetGrannySluts/status/542722897878716416/photo/1
p2104
sVdisplay_url
p2105
Vpic.twitter.com/ARQaTjRXkM
p2106
sVurl
p2107
Vhttp://t.co/ARQaTjRXkM
p2108
sVmedia_url_https
p2109
Vhttps://pbs.twimg.com/media/B4gjmZ2IAAAKMOt.jpg
p2110
sVsource_user_id_str
p2111
V2414617718
p2112
sVsource_status_id
p2113
I542722897878716416
sVid_str
p2114
V542722897778049024
p2115
sVsizes
p2116
(dp2117
Vlarge
p2118
(dp2119
Vh
p2120
I1280
sVresize
p2121
Vfit
p2122
sVw
p2123
I786
ssVsmall
p2124
(dp2125
Vh
p2126
I553
sVresize
p2127
Vfit
p2128
sVw
p2129
I340
ssVmedium
p2130
(dp2131
Vh
p2132
I977
sVresize
p2133
Vfit
p2134
sVw
p2135
I600
ssVthumb
p2136
(dp2137
Vh
p2138
I150
sVresize
p2139
Vcrop
p2140
sVw
p2141
I150
sssVindices
p2142
(lp2143
I109
aI131
asVtype
p2144
Vphoto
p2145
sVid
p2146
I542722897778049024
sVmedia_url
p2147
Vhttp://pbs.twimg.com/media/B4gjmZ2IAAAKMOt.jpg
p2148
sasg49
Nsg50
Nsg51
Nsg52
VWed Dec 10 19:06:06 +0000 2014
p2149
sg54
Nsg55
I00
sg56
Nsg57
Nsg58
Nsg59
Nsg60
I00
sg61
Nsg62
(lp2150
g3
(g74
g5
Ntp2151
Rp2152
(dp2153
g10
Nsg79
Nsg81
Nsg83
Nsg85
Nsg86
Nsg52
Nsg88
Nsg89
Nsg91
Nsg93
Nsg94
Nsg95
Nsg96
Nsg97
Nsg98
Nsg100
Nsg101
Nsg102
Nsg104
Nsg105
Nsg106
Nsg108
VWetGrannySluts
p2154
sg110
Nsg111
VWet Granny Sluts
p2155
sg113
Nsg115
Nsg117
I2414617718
sg118
Nsbasg64
Nsg65
V542757162339287043
p2156
sg67
Nsg68
VRT @WetGrannySluts: #Watch #Granny #Porn: http://t.co/YXhplofHrN #free #hardcore #old #grey #mature #videos. http://t.co/ARQaTjRXkM
p2157
sg70
I00
sg71
Vund
p2158
sg73
g3
(g74
g5
Ntp2159
Rp2160
(dp2161
g10
VLondon Dagenham ENGLAND
p2162
sg79
V333333
p2163
sg81
Ven
p2164
sg83
Nsg85
I546
sg86
I5172
sg52
VFri Jan 24 21:09:18 +0000 2014
p2165
sg88
I00
sg89
V6,4 Blk Male for real Cuck couples BBw mature fems Only \u000alondon and home counties please!!! All else blocked..Kik:thedjwr
p2166
sg91
Vhttps://pbs.twimg.com/profile_images/532651467287855106/EdS37RRW_normal.jpeg
p2167
sg93
I586
sg94
I6409
sg95
Nsg96
Nsg97
I00
sg98
Vhttps://pbs.twimg.com/profile_banners/2302216678/1413400226
p2168
sg100
I00
sg101
I00
sg102
V0084B4
p2169
sg104
I00
sg105
I00
sg106
Vhttp://abs.twimg.com/images/themes/theme1/bg.png
p2170
sg108
VBBC4service
p2171
sg110
I4
sg111
VLondonBlakguy
p2172
sg113
VDDEEF6
p2173
sg115
Nsg117
I2302216678
sg118
VC0DEED
p2174
sbsg120
I8
sg121
V<a href="http://twitter.com/download/iphone" rel="nofollow">Twitter for iPhone</a>
p2175
sg123
(lp2176
g3
(g125
g5
Ntp2177
Rp2178
(dp2179
g129
Vhttp://t.co/YXhplofHrN
p2180
sg131
Vhttp://pimpporn.org
p2181
sbasg117
I542757162339287043
sbag3
(g4
g5
Ntp2182
Rp2183
(dp2184
g9
I0
sg10
Nsg11
Nsg12
(lp2185
g3
(g14
g5
Ntp2186
Rp2187
(dp2188
g18
VSquirting
p2189
sbag3
(g14
g5
Ntp2190
Rp2191
(dp2192
g18
VEjaculation
p2193
sbag3
(g14
g5
Ntp2194
Rp2195
(dp2196
g18
VPussy
p2197
sbasg28
I00
sg29
g3
(g4
g5
Ntp2198
Rp2199
(dp2200
g9
I54
sg10
Nsg11
Nsg12
(lp2201
g3
(g14
g5
Ntp2202
Rp2203
(dp2204
g18
VSquirting
p2205
sbag3
(g14
g5
Ntp2206
Rp2207
(dp2208
g18
VEjaculation
p2209
sbag3
(g14
g5
Ntp2210
Rp2211
(dp2212
g18
VPussy
p2213
sbasg28
I00
sg29
Nsg46
Nsg47
(lp2214
sg49
Nsg50
Nsg51
Nsg52
VWed Dec 10 18:00:41 +0000 2014
p2215
sg54
Nsg55
I00
sg56
Nsg57
Nsg58
Nsg59
Nsg60
I00
sg61
Nsg62
(lp2216
sg64
Nsg65
V542740699587047424
p2217
sg67
Nsg68
VTHE BEST SQUIRTING TUBE SITE\u000aClick Here http://t.co/ujKMYK6TB1\u000a#Squirting #Ejaculation #Pussy http://t.co/eG1zQPREeE
p2218
sg70
I00
sg71
Ven
p2219
sg73
g3
(g74
g5
Ntp2220
Rp2221
(dp2222
g10
g78
sg79
V000000
p2223
sg81
Ven
p2224
sg83
VLondon
p2225
sg85
I14175
sg86
I2099
sg52
VTue Sep 30 22:11:31 +0000 2014
p2226
sg88
I00
sg89
VThe Top Squirting Website!
p2227
sg91
Vhttps://pbs.twimg.com/profile_images/517075419753754624/WdA3Ykl6_normal.png
p2228
sg93
I1852
sg94
I638
sg95
I0
sg96
Nsg97
I00
sg98
Vhttps://pbs.twimg.com/profile_banners/2796572404/1412115384
p2229
sg100
I00
sg101
I00
sg102
VF5ABB5
p2230
sg104
I00
sg105
I00
sg106
Vhttp://abs.twimg.com/images/themes/theme1/bg.png
p2231
sg108
VTopSquirt
p2232
sg110
I63
sg111
VTopSquirt
p2233
sg113
V000000
p2234
sg115
Vhttp://t.co/pW5HA3FfMH
p2235
sg117
I2796572404
sg118
V000000
p2236
sbsg120
I35
sg121
V<a href="http://bufferapp.com" rel="nofollow">Buffer</a>
p2237
sg123
(lp2238
g3
(g125
g5
Ntp2239
Rp2240
(dp2241
g129
Vhttp://t.co/ujKMYK6TB1
p2242
sg131
Vhttp://buff.ly/1uaerOs
p2243
sbag3
(g125
g5
Ntp2244
Rp2245
(dp2246
g129
Vhttp://t.co/eG1zQPREeE
p2247
sg131
Vhttp://twitter.com/TopSquirt/status/542740699587047424/photo/1
p2248
sbasg117
I542740699587047424
sbsg46
Nsg47
(lp2249
sg49
Nsg50
Nsg51
Nsg52
VWed Dec 10 19:03:28 +0000 2014
p2250
sg54
Nsg55
I00
sg56
Nsg57
Nsg58
Nsg59
Nsg60
I00
sg61
Nsg62
(lp2251
g3
(g74
g5
Ntp2252
Rp2253
(dp2254
g10
Nsg79
Nsg81
Nsg83
Nsg85
Nsg86
Nsg52
Nsg88
Nsg89
Nsg91
Nsg93
Nsg94
Nsg95
Nsg96
Nsg97
Nsg98
Nsg100
Nsg101
Nsg102
Nsg104
Nsg105
Nsg106
Nsg108
VTopSquirt
p2255
sg110
Nsg111
VTopSquirt
p2256
sg113
Nsg115
Nsg117
I2796572404
sg118
Nsbasg64
Nsg65
V542756499840565248
p2257
sg67
Nsg68
VRT @TopSquirt: THE BEST SQUIRTING TUBE SITE\u000aClick Here http://t.co/ujKMYK6TB1\u000a#Squirting #Ejaculation #Pussy http://t.co/eG1zQPREeE
p2258
sg70
I00
sg71
Ven
p2259
sg73
g3
(g74
g5
Ntp2260
Rp2261
(dp2262
g10
VLondon Dagenham ENGLAND
p2263
sg79
V333333
p2264
sg81
Ven
p2265
sg83
Nsg85
I546
sg86
I5172
sg52
VFri Jan 24 21:09:18 +0000 2014
p2266
sg88
I00
sg89
V6,4 Blk Male for real Cuck couples BBw mature fems Only \u000alondon and home counties please!!! All else blocked..Kik:thedjwr
p2267
sg91
Vhttps://pbs.twimg.com/profile_images/532651467287855106/EdS37RRW_normal.jpeg
p2268
sg93
I586
sg94
I6409
sg95
Nsg96
Nsg97
I00
sg98
Vhttps://pbs.twimg.com/profile_banners/2302216678/1413400226
p2269
sg100
I00
sg101
I00
sg102
V0084B4
p2270
sg104
I00
sg105
I00
sg106
Vhttp://abs.twimg.com/images/themes/theme1/bg.png
p2271
sg108
VBBC4service
p2272
sg110
I4
sg111
VLondonBlakguy
p2273
sg113
VDDEEF6
p2274
sg115
Nsg117
I2302216678
sg118
VC0DEED
p2275
sbsg120
I35
sg121
V<a href="http://twitter.com/download/iphone" rel="nofollow">Twitter for iPhone</a>
p2276
sg123
(lp2277
g3
(g125
g5
Ntp2278
Rp2279
(dp2280
g129
Vhttp://t.co/ujKMYK6TB1
p2281
sg131
Vhttp://buff.ly/1uaerOs
p2282
sbag3
(g125
g5
Ntp2283
Rp2284
(dp2285
g129
Vhttp://t.co/eG1zQPREeE
p2286
sg131
Vhttp://twitter.com/TopSquirt/status/542740699587047424/photo/1
p2287
sbasg117
I542756499840565248
sbag3
(g4
g5
Ntp2288
Rp2289
(dp2290
g9
I0
sg10
Nsg11
Nsg12
(lp2291
g3
(g14
g5
Ntp2292
Rp2293
(dp2294
g18
VHandjob
p2295
sbag3
(g14
g5
Ntp2296
Rp2297
(dp2298
g18
VPorn
p2299
sbag3
(g14
g5
Ntp2300
Rp2301
(dp2302
g18
VVideos
p2303
sbag3
(g14
g5
Ntp2304
Rp2305
(dp2306
g18
Vfap
p2307
sbag3
(g14
g5
Ntp2308
Rp2309
(dp2310
g18
Vxxx
p2311
sbag3
(g14
g5
Ntp2312
Rp2313
(dp2314
g18
Vmilking
p2315
sbag3
(g14
g5
Ntp2316
Rp2317
(dp2318
g18
Vdick
p2319
sbasg28
I00
sg29
g3
(g4
g5
Ntp2320
Rp2321
(dp2322
g9
I2
sg10
Nsg11
Nsg12
(lp2323
g3
(g14
g5
Ntp2324
Rp2325
(dp2326
g18
VHandjob
p2327
sbag3
(g14
g5
Ntp2328
Rp2329
(dp2330
g18
VPorn
p2331
sbag3
(g14
g5
Ntp2332
Rp2333
(dp2334
g18
VVideos
p2335
sbag3
(g14
g5
Ntp2336
Rp2337
(dp2338
g18
Vfap
p2339
sbag3
(g14
g5
Ntp2340
Rp2341
(dp2342
g18
Vxxx
p2343
sbag3
(g14
g5
Ntp2344
Rp2345
(dp2346
g18
Vmilking
p2347
sbag3
(g14
g5
Ntp2348
Rp2349
(dp2350
g18
Vdick
p2351
sbasg28
I00
sg29
Nsg46
Nsg47
(lp2352
sg49
Nsg50
Nsg51
Nsg52
VWed Dec 10 18:25:28 +0000 2014
p2353
sg54
Nsg55
I01
sg56
Nsg57
Nsg58
Nsg59
Nsg60
I00
sg61
Nsg62
(lp2354
sg64
Nsg65
V542746937800531968
p2355
sg67
Nsg68
V#Handjob #Porn #Videos: http://t.co/Fo3VGreimW #fap #xxx #milking #dick December 10, 2014 at 05:02PM http://t.co/7BPrySas0S
p2356
sg70
I00
sg71
Ven
p2357
sg73
g3
(g74
g5
Ntp2358
Rp2359
(dp2360
g10
g78
sg79
V333333
p2361
sg81
Vde
p2362
sg83
VCentral Time (US & Canada)
p2363
sg85
I1061
sg86
I1347
sg52
VMon Mar 31 06:56:41 +0000 2014
p2364
sg88
I00
sg89
V#Handjob #Porn #Pictures and #Videos. #Horny #Girls #milking #cock.
p2365
sg91
Vhttps://pbs.twimg.com/profile_images/450528792335749120/Xj16QcMT_normal.jpeg
p2366
sg93
I16
sg94
I0
sg95
I-21600
sg96
Nsg97
I00
sg98
Vhttps://pbs.twimg.com/profile_banners/2420137933/1396249421
p2367
sg100
I00
sg101
I00
sg102
V0084B4
p2368
sg104
I00
sg105
I00
sg106
Vhttp://abs.twimg.com/images/themes/theme1/bg.png
p2369
sg108
VBestHandjobXXX
p2370
sg110
I7
sg111
VBest Handjob XXX
p2371
sg113
VDDEEF6
p2372
sg115
Vhttp://t.co/fPZVmnHcJz
p2373
sg117
I2420137933
sg118
VC0DEED
p2374
sbsg120
I3
sg121
V<a href="http://ifttt.com" rel="nofollow">IFTTT</a>
p2375
sg123
(lp2376
g3
(g125
g5
Ntp2377
Rp2378
(dp2379
g129
Vhttp://t.co/Fo3VGreimW
p2380
sg131
Vhttp://pimpporn.org
p2381
sbag3
(g125
g5
Ntp2382
Rp2383
(dp2384
g129
Vhttp://t.co/7BPrySas0S
p2385
sg131
Vhttp://twitter.com/BestHandjobXXX/status/542746937800531968/photo/1
p2386
sbasg117
I542746937800531968
sbsg46
Nsg47
(lp2387
sg49
Nsg50
Nsg51
Nsg52
VWed Dec 10 19:01:48 +0000 2014
p2388
sg54
Nsg55
I00
sg56
Nsg57
Nsg58
Nsg59
Nsg60
I00
sg61
Nsg62
(lp2389
g3
(g74
g5
Ntp2390
Rp2391
(dp2392
g10
Nsg79
Nsg81
Nsg83
Nsg85
Nsg86
Nsg52
Nsg88
Nsg89
Nsg91
Nsg93
Nsg94
Nsg95
Nsg96
Nsg97
Nsg98
Nsg100
Nsg101
Nsg102
Nsg104
Nsg105
Nsg106
Nsg108
VBestHandjobXXX
p2393
sg110
Nsg111
VBest Handjob XXX
p2394
sg113
Nsg115
Nsg117
I2420137933
sg118
Nsbasg64
Nsg65
V542756082851278848
p2395
sg67
Nsg68
VRT @BestHandjobXXX: #Handjob #Porn #Videos: http://t.co/Fo3VGreimW #fap #xxx #milking #dick December 10, 2014 at 05:02PM http://t.co/7BPryS\u2026
p2396
sg70
I00
sg71
Ven
p2397
sg73
g3
(g74
g5
Ntp2398
Rp2399
(dp2400
g10
VLondon Dagenham ENGLAND
p2401
sg79
V333333
p2402
sg81
Ven
p2403
sg83
Nsg85
I546
sg86
I5172
sg52
VFri Jan 24 21:09:18 +0000 2014
p2404
sg88
I00
sg89
V6,4 Blk Male for real Cuck couples BBw mature fems Only \u000alondon and home counties please!!! All else blocked..Kik:thedjwr
p2405
sg91
Vhttps://pbs.twimg.com/profile_images/532651467287855106/EdS37RRW_normal.jpeg
p2406
sg93
I586
sg94
I6409
sg95
Nsg96
Nsg97
I00
sg98
Vhttps://pbs.twimg.com/profile_banners/2302216678/1413400226
p2407
sg100
I00
sg101
I00
sg102
V0084B4
p2408
sg104
I00
sg105
I00
sg106
Vhttp://abs.twimg.com/images/themes/theme1/bg.png
p2409
sg108
VBBC4service
p2410
sg110
I4
sg111
VLondonBlakguy
p2411
sg113
VDDEEF6
p2412
sg115
Nsg117
I2302216678
sg118
VC0DEED
p2413
sbsg120
I3
sg121
V<a href="http://twitter.com/download/iphone" rel="nofollow">Twitter for iPhone</a>
p2414
sg123
(lp2415
g3
(g125
g5
Ntp2416
Rp2417
(dp2418
g129
Vhttp://t.co/Fo3VGreimW
p2419
sg131
Vhttp://pimpporn.org
p2420
sbag3
(g125
g5
Ntp2421
Rp2422
(dp2423
g129
Vhttp://t.co/7BPrySas0S
p2424
sg131
Vhttp://twitter.com/BestHandjobXXX/status/542746937800531968/photo/1
p2425
sbasg117
I542756082851278848
sbag3
(g4
g5
Ntp2426
Rp2427
(dp2428
g9
I0
sg10
Nsg11
Nsg12
(lp2429
g3
(g14
g5
Ntp2430
Rp2431
(dp2432
g18
VHandjob
p2433
sbag3
(g14
g5
Ntp2434
Rp2435
(dp2436
g18
VPorn
p2437
sbag3
(g14
g5
Ntp2438
Rp2439
(dp2440
g18
VVideos
p2441
sbag3
(g14
g5
Ntp2442
Rp2443
(dp2444
g18
Vfap
p2445
sbag3
(g14
g5
Ntp2446
Rp2447
(dp2448
g18
Vxxx
p2449
sbag3
(g14
g5
Ntp2450
Rp2451
(dp2452
g18
Vmilking
p2453
sbag3
(g14
g5
Ntp2454
Rp2455
(dp2456
g18
Vdick
p2457
sbasg28
I00
sg29
g3
(g4
g5
Ntp2458
Rp2459
(dp2460
g9
I3
sg10
Nsg11
Nsg12
(lp2461
g3
(g14
g5
Ntp2462
Rp2463
(dp2464
g18
VHandjob
p2465
sbag3
(g14
g5
Ntp2466
Rp2467
(dp2468
g18
VPorn
p2469
sbag3
(g14
g5
Ntp2470
Rp2471
(dp2472
g18
VVideos
p2473
sbag3
(g14
g5
Ntp2474
Rp2475
(dp2476
g18
Vfap
p2477
sbag3
(g14
g5
Ntp2478
Rp2479
(dp2480
g18
Vxxx
p2481
sbag3
(g14
g5
Ntp2482
Rp2483
(dp2484
g18
Vmilking
p2485
sbag3
(g14
g5
Ntp2486
Rp2487
(dp2488
g18
Vdick
p2489
sbasg28
I00
sg29
Nsg46
Nsg47
(lp2490
sg49
Nsg50
Nsg51
Nsg52
VWed Dec 10 18:25:31 +0000 2014
p2491
sg54
Nsg55
I01
sg56
Nsg57
Nsg58
Nsg59
Nsg60
I00
sg61
Nsg62
(lp2492
sg64
Nsg65
V542746951398461440
p2493
sg67
Nsg68
V#Handjob #Porn #Videos: http://t.co/Fo3VGreimW #fap #xxx #milking #dick December 10, 2014 at 05:08PM http://t.co/IqTjex8WJj
p2494
sg70
I00
sg71
Ven
p2495
sg73
g3
(g74
g5
Ntp2496
Rp2497
(dp2498
g10
g78
sg79
V333333
p2499
sg81
Vde
p2500
sg83
VCentral Time (US & Canada)
p2501
sg85
I1061
sg86
I1347
sg52
VMon Mar 31 06:56:41 +0000 2014
p2502
sg88
I00
sg89
V#Handjob #Porn #Pictures and #Videos. #Horny #Girls #milking #cock.
p2503
sg91
Vhttps://pbs.twimg.com/profile_images/450528792335749120/Xj16QcMT_normal.jpeg
p2504
sg93
I16
sg94
I0
sg95
I-21600
sg96
Nsg97
I00
sg98
Vhttps://pbs.twimg.com/profile_banners/2420137933/1396249421
p2505
sg100
I00
sg101
I00
sg102
V0084B4
p2506
sg104
I00
sg105
I00
sg106
Vhttp://abs.twimg.com/images/themes/theme1/bg.png
p2507
sg108
VBestHandjobXXX
p2508
sg110
I7
sg111
VBest Handjob XXX
p2509
sg113
VDDEEF6
p2510
sg115
Vhttp://t.co/fPZVmnHcJz
p2511
sg117
I2420137933
sg118
VC0DEED
p2512
sbsg120
I4
sg121
V<a href="http://ifttt.com" rel="nofollow">IFTTT</a>
p2513
sg123
(lp2514
g3
(g125
g5
Ntp2515
Rp2516
(dp2517
g129
Vhttp://t.co/Fo3VGreimW
p2518
sg131
Vhttp://pimpporn.org
p2519
sbag3
(g125
g5
Ntp2520
Rp2521
(dp2522
g129
Vhttp://t.co/IqTjex8WJj
p2523
sg131
Vhttp://twitter.com/BestHandjobXXX/status/542746951398461440/photo/1
p2524
sbasg117
I542746951398461440
sbsg46
Nsg47
(lp2525
sg49
Nsg50
Nsg51
Nsg52
VWed Dec 10 19:01:29 +0000 2014
p2526
sg54
Nsg55
I00
sg56
Nsg57
Nsg58
Nsg59
Nsg60
I00
sg61
Nsg62
(lp2527
g3
(g74
g5
Ntp2528
Rp2529
(dp2530
g10
Nsg79
Nsg81
Nsg83
Nsg85
Nsg86
Nsg52
Nsg88
Nsg89
Nsg91
Nsg93
Nsg94
Nsg95
Nsg96
Nsg97
Nsg98
Nsg100
Nsg101
Nsg102
Nsg104
Nsg105
Nsg106
Nsg108
VBestHandjobXXX
p2531
sg110
Nsg111
VBest Handjob XXX
p2532
sg113
Nsg115
Nsg117
I2420137933
sg118
Nsbasg64
Nsg65
V542756000806473729
p2533
sg67
Nsg68
VRT @BestHandjobXXX: #Handjob #Porn #Videos: http://t.co/Fo3VGreimW #fap #xxx #milking #dick December 10, 2014 at 05:08PM http://t.co/IqTjex\u2026
p2534
sg70
I00
sg71
Ven
p2535
sg73
g3
(g74
g5
Ntp2536
Rp2537
(dp2538
g10
VLondon Dagenham ENGLAND
p2539
sg79
V333333
p2540
sg81
Ven
p2541
sg83
Nsg85
I546
sg86
I5172
sg52
VFri Jan 24 21:09:18 +0000 2014
p2542
sg88
I00
sg89
V6,4 Blk Male for real Cuck couples BBw mature fems Only \u000alondon and home counties please!!! All else blocked..Kik:thedjwr
p2543
sg91
Vhttps://pbs.twimg.com/profile_images/532651467287855106/EdS37RRW_normal.jpeg
p2544
sg93
I586
sg94
I6409
sg95
Nsg96
Nsg97
I00
sg98
Vhttps://pbs.twimg.com/profile_banners/2302216678/1413400226
p2545
sg100
I00
sg101
I00
sg102
V0084B4
p2546
sg104
I00
sg105
I00
sg106
Vhttp://abs.twimg.com/images/themes/theme1/bg.png
p2547
sg108
VBBC4service
p2548
sg110
I4
sg111
VLondonBlakguy
p2549
sg113
VDDEEF6
p2550
sg115
Nsg117
I2302216678
sg118
VC0DEED
p2551
sbsg120
I4
sg121
V<a href="http://twitter.com/download/iphone" rel="nofollow">Twitter for iPhone</a>
p2552
sg123
(lp2553
g3
(g125
g5
Ntp2554
Rp2555
(dp2556
g129
Vhttp://t.co/Fo3VGreimW
p2557
sg131
Vhttp://pimpporn.org
p2558
sbag3
(g125
g5
Ntp2559
Rp2560
(dp2561
g129
Vhttp://t.co/IqTjex8WJj
p2562
sg131
Vhttp://twitter.com/BestHandjobXXX/status/542746951398461440/photo/1
p2563
sbasg117
I542756000806473729
sbag3
(g4
g5
Ntp2564
Rp2565
(dp2566
g9
I0
sg10
Nsg11
Nsg12
(lp2567
g3
(g14
g5
Ntp2568
Rp2569
(dp2570
g18
VVideo
p2571
sbag3
(g14
g5
Ntp2572
Rp2573
(dp2574
g18
VBBW
p2575
sbasg28
I00
sg29
g3
(g4
g5
Ntp2576
Rp2577
(dp2578
g9
I46
sg10
Nsg11
Nsg12
(lp2579
g3
(g14
g5
Ntp2580
Rp2581
(dp2582
g18
VVideo
p2583
sbag3
(g14
g5
Ntp2584
Rp2585
(dp2586
g18
VBBW
p2587
sbasg28
I00
sg29
Nsg46
Nsg47
(lp2588
(dp2589
Vexpanded_url
p2590
Vhttp://twitter.com/ilikebbwdaily/status/542739350950526977/photo/1
p2591
sVdisplay_url
p2592
Vpic.twitter.com/KFa9mTsAGD
p2593
sVurl
p2594
Vhttp://t.co/KFa9mTsAGD
p2595
sVmedia_url_https
p2596
Vhttps://pbs.twimg.com/media/B4gyj8SIYAADvzg.jpg
p2597
sVid_str
p2598
V542739348157128704
p2599
sVsizes
p2600
(dp2601
Vsmall
p2602
(dp2603
Vh
p2604
I505
sVresize
p2605
Vfit
p2606
sVw
p2607
I340
ssVlarge
p2608
(dp2609
Vh
p2610
I695
sVresize
p2611
Vfit
p2612
sVw
p2613
I467
ssVmedium
p2614
(dp2615
Vh
p2616
I695
sVresize
p2617
Vfit
p2618
sVw
p2619
I467
ssVthumb
p2620
(dp2621
Vh
p2622
I150
sVresize
p2623
Vcrop
p2624
sVw
p2625
I150
sssVindices
p2626
(lp2627
I119
aI141
asVtype
p2628
Vphoto
p2629
sVid
p2630
I542739348157128704
sVmedia_url
p2631
Vhttp://pbs.twimg.com/media/B4gyj8SIYAADvzg.jpg
p2632
sasg49
Nsg50
Nsg51
Nsg52
VWed Dec 10 17:55:19 +0000 2014
p2633
sg54
Nsg55
I00
sg56
Nsg57
Nsg58
Nsg59
Nsg60
I00
sg61
Nsg62
(lp2634
sg64
Nsg65
V542739350950526977
p2635
sg67
Nsg68
VRT Watch #Video of BBW Bunny De La Cruz takes a Black Penis deep in her Pussy here--&gt; http://t.co/NbWyOPz8gN \u000a\u000a#BBW http://t.co/KFa9mTsAGD
p2636
sg70
I00
sg71
Ven
p2637
sg73
g3
(g74
g5
Ntp2638
Rp2639
(dp2640
g10
g78
sg79
V333333
p2641
sg81
Vfr
p2642
sg83
VAthens
p2643
sg85
I36851
sg86
I14507
sg52
VWed Jul 24 03:56:00 +0000 2013
p2644
sg88
I00
sg89
VHey, For Networking Write to infos@loveitdaily.com
p2645
sg91
Vhttps://pbs.twimg.com/profile_images/494171408860078080/8ZCg07Vn_normal.jpeg
p2646
sg93
I175
sg94
I91
sg95
I7200
sg96
Nsg97
I00
sg98
Nsg100
I00
sg101
I00
sg102
V0084B4
p2647
sg104
I00
sg105
I00
sg106
Vhttp://pbs.twimg.com/profile_background_images/378800000031779093/872357993f6e03a9036ae92802efbb0b.jpeg
p2648
sg108
Vilikebbwdaily
p2649
sg110
I145
sg111
VBBW GIRLS  
p2650
sg113
VDDEEF6
p2651
sg115
Nsg117
I1616786359
sg118
V000000
p2652
sbsg120
I15
sg121
V<a href="http://twitter.com" rel="nofollow">Twitter Web Client</a>
p2653
sg123
(lp2654
g3
(g125
g5
Ntp2655
Rp2656
(dp2657
g129
Vhttp://t.co/NbWyOPz8gN
p2658
sg131
Vhttp://loveitdaily.com/bbw-bunny-de-la-cruz-takes-a-black-penis-deep-in-her-pussy-full-video/
p2659
sbasg117
I542739350950526977
sbsg46
Nsg47
(lp2660
(dp2661
Vsource_user_id
p2662
I1616786359
sVsource_status_id_str
p2663
V542739350950526977
p2664
sVexpanded_url
p2665
Vhttp://twitter.com/ilikebbwdaily/status/542739350950526977/photo/1
p2666
sVdisplay_url
p2667
Vpic.twitter.com/KFa9mTsAGD
p2668
sVurl
p2669
Vhttp://t.co/KFa9mTsAGD
p2670
sVmedia_url_https
p2671
Vhttps://pbs.twimg.com/media/B4gyj8SIYAADvzg.jpg
p2672
sVsource_user_id_str
p2673
V1616786359
p2674
sVsource_status_id
p2675
I542739350950526977
sVid_str
p2676
V542739348157128704
p2677
sVsizes
p2678
(dp2679
Vsmall
p2680
(dp2681
Vh
p2682
I505
sVresize
p2683
Vfit
p2684
sVw
p2685
I340
ssVlarge
p2686
(dp2687
Vh
p2688
I695
sVresize
p2689
Vfit
p2690
sVw
p2691
I467
ssVmedium
p2692
(dp2693
Vh
p2694
I695
sVresize
p2695
Vfit
p2696
sVw
p2697
I467
ssVthumb
p2698
(dp2699
Vh
p2700
I150
sVresize
p2701
Vcrop
p2702
sVw
p2703
I150
sssVindices
p2704
(lp2705
I142
aI143
asVtype
p2706
Vphoto
p2707
sVid
p2708
I542739348157128704
sVmedia_url
p2709
Vhttp://pbs.twimg.com/media/B4gyj8SIYAADvzg.jpg
p2710
sasg49
Nsg50
Nsg51
Nsg52
VWed Dec 10 19:01:16 +0000 2014
p2711
sg54
Nsg55
I00
sg56
Nsg57
Nsg58
Nsg59
Nsg60
I00
sg61
Nsg62
(lp2712
g3
(g74
g5
Ntp2713
Rp2714
(dp2715
g10
Nsg79
Nsg81
Nsg83
Nsg85
Nsg86
Nsg52
Nsg88
Nsg89
Nsg91
Nsg93
Nsg94
Nsg95
Nsg96
Nsg97
Nsg98
Nsg100
Nsg101
Nsg102
Nsg104
Nsg105
Nsg106
Nsg108
Vilikebbwdaily
p2716
sg110
Nsg111
VBBW GIRLS  
p2717
sg113
Nsg115
Nsg117
I1616786359
sg118
Nsbasg64
Nsg65
V542755949434634242
p2718
sg67
Nsg68
VRT @ilikebbwdaily: RT Watch #Video of BBW Bunny De La Cruz takes a Black Penis deep in her Pussy here--&gt; http://t.co/NbWyOPz8gN \u000a\u000a#BBW http\u2026
p2719
sg70
I00
sg71
Ven
p2720
sg73
g3
(g74
g5
Ntp2721
Rp2722
(dp2723
g10
VLondon Dagenham ENGLAND
p2724
sg79
V333333
p2725
sg81
Ven
p2726
sg83
Nsg85
I546
sg86
I5172
sg52
VFri Jan 24 21:09:18 +0000 2014
p2727
sg88
I00
sg89
V6,4 Blk Male for real Cuck couples BBw mature fems Only \u000alondon and home counties please!!! All else blocked..Kik:thedjwr
p2728
sg91
Vhttps://pbs.twimg.com/profile_images/532651467287855106/EdS37RRW_normal.jpeg
p2729
sg93
I586
sg94
I6409
sg95
Nsg96
Nsg97
I00
sg98
Vhttps://pbs.twimg.com/profile_banners/2302216678/1413400226
p2730
sg100
I00
sg101
I00
sg102
V0084B4
p2731
sg104
I00
sg105
I00
sg106
Vhttp://abs.twimg.com/images/themes/theme1/bg.png
p2732
sg108
VBBC4service
p2733
sg110
I4
sg111
VLondonBlakguy
p2734
sg113
VDDEEF6
p2735
sg115
Nsg117
I2302216678
sg118
VC0DEED
p2736
sbsg120
I15
sg121
V<a href="http://twitter.com/download/iphone" rel="nofollow">Twitter for iPhone</a>
p2737
sg123
(lp2738
g3
(g125
g5
Ntp2739
Rp2740
(dp2741
g129
Vhttp://t.co/NbWyOPz8gN
p2742
sg131
Vhttp://loveitdaily.com/bbw-bunny-de-la-cruz-takes-a-black-penis-deep-in-her-pussy-full-video/
p2743
sbasg117
I542755949434634242
sbag3
(g4
g5
Ntp2744
Rp2745
(dp2746
g9
I0
sg10
Nsg11
Nsg12
(lp2747
g3
(g14
g5
Ntp2748
Rp2749
(dp2750
g18
Vpissing
p2751
sbag3
(g14
g5
Ntp2752
Rp2753
(dp2754
g18
Vpisswhore
p2755
sbag3
(g14
g5
Ntp2756
Rp2757
(dp2758
g18
Vpiss
p2759
sbag3
(g14
g5
Ntp2760
Rp2761
(dp2762
g18
Vpeeing
p2763
sbag3
(g14
g5
Ntp2764
Rp2765
(dp2766
g18
Vpee
p2767
sbag3
(g14
g5
Ntp2768
Rp2769
(dp2770
g18
Vurine
p2771
sbag3
(g14
g5
Ntp2772
Rp2773
(dp2774
g18
Vwatersports
p2775
sbag3
(g14
g5
Ntp2776
Rp2777
(dp2778
g18
Vamateur
p2779
sbasg28
I00
sg29
g3
(g4
g5
Ntp2780
Rp2781
(dp2782
g9
I43
sg10
Nsg11
Nsg12
(lp2783
g3
(g14
g5
Ntp2784
Rp2785
(dp2786
g18
Vpissing
p2787
sbag3
(g14
g5
Ntp2788
Rp2789
(dp2790
g18
Vpisswhore
p2791
sbag3
(g14
g5
Ntp2792
Rp2793
(dp2794
g18
Vpiss
p2795
sbag3
(g14
g5
Ntp2796
Rp2797
(dp2798
g18
Vpeeing
p2799
sbag3
(g14
g5
Ntp2800
Rp2801
(dp2802
g18
Vpee
p2803
sbag3
(g14
g5
Ntp2804
Rp2805
(dp2806
g18
Vurine
p2807
sbag3
(g14
g5
Ntp2808
Rp2809
(dp2810
g18
Vwatersports
p2811
sbag3
(g14
g5
Ntp2812
Rp2813
(dp2814
g18
Vamateur
p2815
sbasg28
I00
sg29
Nsg46
Nsg47
(lp2816
sg49
Nsg50
Nsg51
Nsg52
VSun Nov 02 14:44:00 +0000 2014
p2817
sg54
Nsg55
I01
sg56
Nsg57
Nsg58
Nsg59
Nsg60
I00
sg61
Nsg62
(lp2818
sg64
Nsg65
V528920464132165632
p2819
sg67
Nsg68
V#pissing #pisswhore #piss #peeing #pee #urine #watersports #amateur - http://t.co/lPNxuafOfg - http://t.co/ANKjgESFXY
p2820
sg70
I00
sg71
Vund
p2821
sg73
g3
(g74
g5
Ntp2822
Rp2823
(dp2824
g10
g78
sg79
V333333
p2825
sg81
Ven
p2826
sg83
VAthens
p2827
sg85
I4632
sg86
I5029
sg52
VMon Apr 14 19:11:21 +0000 2014
p2828
sg88
I00
sg89
VI am a true pisswhore. NSFW
p2829
sg91
Vhttps://pbs.twimg.com/profile_images/455785598066753537/_6lxL1cE_normal.jpeg
p2830
sg93
I10
sg94
I0
sg95
I7200
sg96
Nsg97
I00
sg98
Vhttps://pbs.twimg.com/profile_banners/2444361438/1397502782
p2831
sg100
I00
sg101
I00
sg102
V0084B4
p2832
sg104
I00
sg105
I00
sg106
Vhttp://abs.twimg.com/images/themes/theme1/bg.png
p2833
sg108
VPublicPeeingNo1
p2834
sg110
I39
sg111
VPublic Peeing
p2835
sg113
VDDEEF6
p2836
sg115
Vhttp://t.co/KoaG3DHqmh
p2837
sg117
I2444361438
sg118
VC0DEED
p2838
sbsg120
I26
sg121
V<a href="http://ifttt.com" rel="nofollow">IFTTT</a>
p2839
sg123
(lp2840
g3
(g125
g5
Ntp2841
Rp2842
(dp2843
g129
Vhttp://t.co/lPNxuafOfg
p2844
sg131
Vhttp://goo.gl/6DKRll
p2845
sbag3
(g125
g5
Ntp2846
Rp2847
(dp2848
g129
Vhttp://t.co/ANKjgESFXY
p2849
sg131
Vhttp://twitter.com/PublicPeeingNo1/status/528920464132165632/photo/1
p2850
sbasg117
I528920464132165632
sbsg46
Nsg47
(lp2851
sg49
Nsg50
Nsg51
Nsg52
VWed Dec 10 15:07:31 +0000 2014
p2852
sg54
Nsg55
I00
sg56
Nsg57
Nsg58
Nsg59
Nsg60
I00
sg61
Nsg62
(lp2853
g3
(g74
g5
Ntp2854
Rp2855
(dp2856
g10
Nsg79
Nsg81
Nsg83
Nsg85
Nsg86
Nsg52
Nsg88
Nsg89
Nsg91
Nsg93
Nsg94
Nsg95
Nsg96
Nsg97
Nsg98
Nsg100
Nsg101
Nsg102
Nsg104
Nsg105
Nsg106
Nsg108
VPublicPeeingNo1
p2857
sg110
Nsg111
VPublic Peeing
p2858
sg113
Nsg115
Nsg117
I2444361438
sg118
Nsbasg64
Nsg65
V542697123289243648
p2859
sg67
Nsg68
VRT @PublicPeeingNo1: #pissing #pisswhore #piss #peeing #pee #urine #watersports #amateur - http://t.co/lPNxuafOfg - http://t.co/ANKjgESFXY
p2860
sg70
I00
sg71
Vund
p2861
sg73
g3
(g74
g5
Ntp2862
Rp2863
(dp2864
g10
VLondon Dagenham ENGLAND
p2865
sg79
V333333
p2866
sg81
Ven
p2867
sg83
Nsg85
I546
sg86
I5172
sg52
VFri Jan 24 21:09:18 +0000 2014
p2868
sg88
I00
sg89
V6,4 Blk Male for real Cuck couples BBw mature fems Only \u000alondon and home counties please!!! All else blocked..Kik:thedjwr
p2869
sg91
Vhttps://pbs.twimg.com/profile_images/532651467287855106/EdS37RRW_normal.jpeg
p2870
sg93
I586
sg94
I6409
sg95
Nsg96
Nsg97
I00
sg98
Vhttps://pbs.twimg.com/profile_banners/2302216678/1413400226
p2871
sg100
I00
sg101
I00
sg102
V0084B4
p2872
sg104
I00
sg105
I00
sg106
Vhttp://abs.twimg.com/images/themes/theme1/bg.png
p2873
sg108
VBBC4service
p2874
sg110
I4
sg111
VLondonBlakguy
p2875
sg113
VDDEEF6
p2876
sg115
Nsg117
I2302216678
sg118
VC0DEED
p2877
sbsg120
I26
sg121
V<a href="http://twitter.com/download/iphone" rel="nofollow">Twitter for iPhone</a>
p2878
sg123
(lp2879
g3
(g125
g5
Ntp2880
Rp2881
(dp2882
g129
Vhttp://t.co/lPNxuafOfg
p2883
sg131
Vhttp://goo.gl/6DKRll
p2884
sbag3
(g125
g5
Ntp2885
Rp2886
(dp2887
g129
Vhttp://t.co/ANKjgESFXY
p2888
sg131
Vhttp://twitter.com/PublicPeeingNo1/status/528920464132165632/photo/1
p2889
sbasg117
I542697123289243648
sbag3
(g4
g5
Ntp2890
Rp2891
(dp2892
g9
I0
sg10
Nsg11
Nsg12
(lp2893
sg28
I00
sg29
g3
(g4
g5
Ntp2894
Rp2895
(dp2896
g9
I10
sg10
Nsg11
Nsg12
(lp2897
sg28
I00
sg29
Nsg46
Nsg47
(lp2898
(dp2899
Vsource_user_id
p2900
I1443419342
sVsource_status_id_str
p2901
V537520798844846080
p2902
sVexpanded_url
p2903
Vhttp://twitter.com/Giannismougos/status/537520798844846080/photo/1
p2904
sVdisplay_url
p2905
Vpic.twitter.com/tueFHzfsNX
p2906
sVurl
p2907
Vhttp://t.co/tueFHzfsNX
p2908
sVmedia_url_https
p2909
Vhttps://pbs.twimg.com/media/B3WoUTVIAAAI_xH.jpg
p2910
sVsource_user_id_str
p2911
V1443419342
p2912
sVsource_status_id
p2913
I537520798844846080
sVid_str
p2914
V537520797280370688
p2915
sVsizes
p2916
(dp2917
Vlarge
p2918
(dp2919
Vh
p2920
I769
sVresize
p2921
Vfit
p2922
sVw
p2923
I1024
ssVsmall
p2924
(dp2925
Vh
p2926
I255
sVresize
p2927
Vfit
p2928
sVw
p2929
I340
ssVmedium
p2930
(dp2931
Vh
p2932
I450
sVresize
p2933
Vfit
p2934
sVw
p2935
I600
ssVthumb
p2936
(dp2937
Vh
p2938
I150
sVresize
p2939
Vcrop
p2940
sVw
p2941
I150
sssVindices
p2942
(lp2943
I17
aI39
asVtype
p2944
Vphoto
p2945
sVid
p2946
I537520797280370688
sVmedia_url
p2947
Vhttp://pbs.twimg.com/media/B3WoUTVIAAAI_xH.jpg
p2948
sasg49
Nsg50
Nsg51
Nsg52
VWed Nov 26 08:29:28 +0000 2014
p2949
sg54
Nsg55
I01
sg56
Nsg57
Nsg58
Nsg59
Nsg60
I00
sg61
Nsg62
(lp2950
g3
(g74
g5
Ntp2951
Rp2952
(dp2953
g10
Nsg79
Nsg81
Nsg83
Nsg85
Nsg86
Nsg52
Nsg88
Nsg89
Nsg91
Nsg93
Nsg94
Nsg95
Nsg96
Nsg97
Nsg98
Nsg100
Nsg101
Nsg102
Nsg104
Nsg105
Nsg106
Nsg108
VGiannismougos
p2954
sg110
Nsg111
VGiannis mougos
p2955
sg113
Nsg115
Nsg117
I1443419342
sg118
Nsbasg64
Nsg65
V537523521040420864
p2956
sg67
Nsg68
V"@Giannismougos: http://t.co/tueFHzfsNX"\u000aPerfect
p2957
sg70
I00
sg71
Ven
p2958
sg73
g3
(g74
g5
Ntp2959
Rp2960
(dp2961
g10
VFrance
p2962
sg79
V3C3940
p2963
sg81
Vfr
p2964
sg83
VLjubljana
p2965
sg85
I348
sg86
I1456
sg52
VWed Oct 29 10:22:46 +0000 2014
p2966
sg88
I00
sg89
Vme and hubby like #saggy #boobs. mine are great. we'll publish pics of me. be careful if you want to see them. kisses
p2967
sg91
Vhttps://pbs.twimg.com/profile_images/535444978827534336/MstfaQKD_normal.jpeg
p2968
sg93
I259
sg94
I151
sg95
I3600
sg96
Nsg97
I00
sg98
Vhttps://pbs.twimg.com/profile_banners/2849581133/1414578699
p2969
sg100
I00
sg101
I00
sg102
V0099B9
p2970
sg104
I00
sg105
I00
sg106
Vhttp://abs.twimg.com/images/themes/theme4/bg.gif
p2971
sg108
Vlovesaggyboobs
p2972
sg110
I4
sg111
Vlovesaggyboobs
p2973
sg113
V95E8EC
p2974
sg115
Vhttp://t.co/ypJZJ2MYWp
p2975
sg117
I2849581133
sg118
V0099B9
p2976
sbsg120
I7
sg121
V<a href="http://twitter.com/download/android" rel="nofollow">Twitter for Android</a>
p2977
sg123
(lp2978
sg117
I537523521040420864
sbsg46
Nsg47
(lp2979
(dp2980
Vsource_user_id
p2981
I1443419342
sVsource_status_id_str
p2982
V537520798844846080
p2983
sVexpanded_url
p2984
Vhttp://twitter.com/Giannismougos/status/537520798844846080/photo/1
p2985
sVdisplay_url
p2986
Vpic.twitter.com/tueFHzfsNX
p2987
sVurl
p2988
Vhttp://t.co/tueFHzfsNX
p2989
sVmedia_url_https
p2990
Vhttps://pbs.twimg.com/media/B3WoUTVIAAAI_xH.jpg
p2991
sVsource_user_id_str
p2992
V1443419342
p2993
sVsource_status_id
p2994
I537520798844846080
sVid_str
p2995
V537520797280370688
p2996
sVsizes
p2997
(dp2998
Vlarge
p2999
(dp3000
Vh
p3001
I769
sVresize
p3002
Vfit
p3003
sVw
p3004
I1024
ssVsmall
p3005
(dp3006
Vh
p3007
I255
sVresize
p3008
Vfit
p3009
sVw
p3010
I340
ssVmedium
p3011
(dp3012
Vh
p3013
I450
sVresize
p3014
Vfit
p3015
sVw
p3016
I600
ssVthumb
p3017
(dp3018
Vh
p3019
I150
sVresize
p3020
Vcrop
p3021
sVw
p3022
I150
sssVindices
p3023
(lp3024
I37
aI59
asVtype
p3025
Vphoto
p3026
sVid
p3027
I537520797280370688
sVmedia_url
p3028
Vhttp://pbs.twimg.com/media/B3WoUTVIAAAI_xH.jpg
p3029
sasg49
Nsg50
Nsg51
Nsg52
VWed Dec 10 15:07:13 +0000 2014
p3030
sg54
Nsg55
I00
sg56
Nsg57
Nsg58
Nsg59
Nsg60
I00
sg61
Nsg62
(lp3031
g3
(g74
g5
Ntp3032
Rp3033
(dp3034
g10
Nsg79
Nsg81
Nsg83
Nsg85
Nsg86
Nsg52
Nsg88
Nsg89
Nsg91
Nsg93
Nsg94
Nsg95
Nsg96
Nsg97
Nsg98
Nsg100
Nsg101
Nsg102
Nsg104
Nsg105
Nsg106
Nsg108
Vlovesaggyboobs
p3035
sg110
Nsg111
Vlovesaggyboobs
p3036
sg113
Nsg115
Nsg117
I2849581133
sg118
Nsbag3
(g74
g5
Ntp3037
Rp3038
(dp3039
g10
Nsg79
Nsg81
Nsg83
Nsg85
Nsg86
Nsg52
Nsg88
Nsg89
Nsg91
Nsg93
Nsg94
Nsg95
Nsg96
Nsg97
Nsg98
Nsg100
Nsg101
Nsg102
Nsg104
Nsg105
Nsg106
Nsg108
VGiannismougos
p3040
sg110
Nsg111
VGiannis mougos
p3041
sg113
Nsg115
Nsg117
I1443419342
sg118
Nsbasg64
Nsg65
V542697047015833600
p3042
sg67
Nsg68
VRT @lovesaggyboobs: "@Giannismougos: http://t.co/tueFHzfsNX"\u000aPerfect
p3043
sg70
I00
sg71
Ven
p3044
sg73
g3
(g74
g5
Ntp3045
Rp3046
(dp3047
g10
VLondon Dagenham ENGLAND
p3048
sg79
V333333
p3049
sg81
Ven
p3050
sg83
Nsg85
I546
sg86
I5172
sg52
VFri Jan 24 21:09:18 +0000 2014
p3051
sg88
I00
sg89
V6,4 Blk Male for real Cuck couples BBw mature fems Only \u000alondon and home counties please!!! All else blocked..Kik:thedjwr
p3052
sg91
Vhttps://pbs.twimg.com/profile_images/532651467287855106/EdS37RRW_normal.jpeg
p3053
sg93
I586
sg94
I6409
sg95
Nsg96
Nsg97
I00
sg98
Vhttps://pbs.twimg.com/profile_banners/2302216678/1413400226
p3054
sg100
I00
sg101
I00
sg102
V0084B4
p3055
sg104
I00
sg105
I00
sg106
Vhttp://abs.twimg.com/images/themes/theme1/bg.png
p3056
sg108
VBBC4service
p3057
sg110
I4
sg111
VLondonBlakguy
p3058
sg113
VDDEEF6
p3059
sg115
Nsg117
I2302216678
sg118
VC0DEED
p3060
sbsg120
I7
sg121
V<a href="http://twitter.com/download/iphone" rel="nofollow">Twitter for iPhone</a>
p3061
sg123
(lp3062
sg117
I542697047015833600
sbaa.