(lp0
S'vunodecitatu'
p1
a(lp2
ccopy_reg
_reconstructor
p3
(ctwitter.status
Status
p4
c__builtin__
object
p5
Ntp6
Rp7
(dp8
S'_favorite_count'
p9
I0
sS'_location'
p10
NsS'_withheld_scope'
p11
NsS'hashtags'
p12
(lp13
sS'_truncated'
p14
I00
sS'_retweeted_status'
p15
NsS'_withheld_copyright'
p16
NsS'media'
p17
(lp18
(dp19
Vsource_user_id
p20
I165503952
sVsource_status_id_str
p21
V541614930089082880
p22
sVexpanded_url
p23
Vhttp://twitter.com/JimmieDurani88/status/541614930089082880/photo/1
p24
sVdisplay_url
p25
Vpic.twitter.com/pdeyLF55MQ
p26
sVurl
p27
Vhttp://t.co/pdeyLF55MQ
p28
sVmedia_url_https
p29
Vhttps://pbs.twimg.com/media/B4Qz575CMAEPOks.png
p30
sVsource_user_id_str
p31
V165503952
p32
sVsource_status_id
p33
I541614930089082880
sVid_str
p34
V541614925613772801
p35
sVsizes
p36
(dp37
Vsmall
p38
(dp39
Vh
p40
I272
sVresize
p41
Vfit
p42
sVw
p43
I340
ssVlarge
p44
(dp45
Vh
p46
I555
sVresize
p47
Vfit
p48
sVw
p49
I693
ssVmedium
p50
(dp51
Vh
p52
I480
sVresize
p53
Vfit
p54
sVw
p55
I600
ssVthumb
p56
(dp57
Vh
p58
I150
sVresize
p59
Vcrop
p60
sVw
p61
I150
sssVindices
p62
(lp63
I42
aI64
asVtype
p64
Vphoto
p65
sVid
p66
I541614925613772801
sVmedia_url
p67
Vhttp://pbs.twimg.com/media/B4Qz575CMAEPOks.png
p68
sasS'_place'
p69
NsS'_contributors'
p70
NsS'_current_user_retweet'
p71
NsS'_created_at'
p72
VThu Dec 11 16:53:02 +0000 2014
p73
sS'_scopes'
p74
NsS'_possibly_sensitive'
p75
I00
sS'_in_reply_to_screen_name'
p76
NsS'_coordinates'
p77
NsS'_in_reply_to_user_id'
p78
NsS'_geo'
p79
NsS'_favorited'
p80
I00
sS'_withheld_in_countries'
p81
NsS'user_mentions'
p82
(lp83
sS'_now'
p84
NsS'_id_str'
p85
NsS'_in_reply_to_status_id'
p86
NsS'_text'
p87
Vfast and safe.. http://t.co/O549lLTiJp .. http://t.co/pdeyLF55MQ
p88
sS'_retweeted'
p89
I00
sS'lang'
p90
Ven
p91
sS'_user'
p92
g3
(ctwitter.user
User
p93
g5
Ntp94
Rp95
(dp96
g10
VUnited States
p97
sS'_profile_text_color'
p98
V333333
p99
sS'_lang'
p100
Ven
p101
sS'_time_zone'
p102
NsS'_followers_count'
p103
I888
sS'_statuses_count'
p104
I1244
sg72
VTue Jun 18 17:59:16 +0000 2013
p105
sS'_verified'
p106
I00
sS'_description'
p107
VIncrease your Brand & popularity on Twitter | get easy 10,000 Twitter followers for $39 at :  http://t.co/oUQo6U4mWP #ID
p108
sS'_profile_image_url'
p109
Vhttps://pbs.twimg.com/profile_images/525256379720691712/lw1p8yJL_normal.jpeg
p110
sS'_friends_count'
p111
I1470
sS'_favourites_count'
p112
I0
sS'_utc_offset'
p113
NsS'_status'
p114
NsS'_protected'
p115
I00
sS'_profile_banner_url'
p116
Vhttps://pbs.twimg.com/profile_banners/1528443751/1415117527
p117
sS'_notifications'
p118
I00
sS'_profile_background_tile'
p119
I01
sS'_profile_link_color'
p120
V0084B4
p121
sS'_geo_enabled'
p122
I00
sS'_contributors_enabled'
p123
I00
sS'_profile_background_image_url'
p124
Vhttp://pbs.twimg.com/profile_background_images/525260719441195009/2tz19IUx.jpeg
p125
sS'_screen_name'
p126
Vvunodecitatu
p127
sS'_listed_count'
p128
I2
sS'_name'
p129
VIetepere Casini
p130
sS'_profile_sidebar_fill_color'
p131
VDDEEF6
p132
sS'_url'
p133
NsS'_id'
p134
I1528443751
sS'_profile_background_color'
p135
VC0DEED
p136
sbsS'_retweet_count'
p137
I0
sS'_source'
p138
V<a href="https://about.twitter.com/products/tweetdeck" rel="nofollow">TweetDeck</a>
p139
sS'urls'
p140
(lp141
g3
(ctwitter.url
Url
p142
g5
Ntp143
Rp144
(dp145
S'url'
p146
Vhttp://t.co/O549lLTiJp
p147
sS'expanded_url'
p148
Vhttp://goo.gl/CLYyaA
p149
sbasg134
I543086062738747393
sbag3
(g4
g5
Ntp150
Rp151
(dp152
g9
I0
sg10
Nsg11
Nsg12
(lp153
sg14
I00
sg15
Nsg16
Nsg17
(lp154
(dp155
Vsource_user_id
p156
I165503952
sVsource_status_id_str
p157
V541610987489472512
p158
sVexpanded_url
p159
Vhttp://twitter.com/JimmieDurani88/status/541610987489472512/photo/1
p160
sVdisplay_url
p161
Vpic.twitter.com/vKVVAkzA2a
p162
sVurl
p163
Vhttp://t.co/vKVVAkzA2a
p164
sVmedia_url_https
p165
Vhttps://pbs.twimg.com/media/B4QwUgkCAAELeBO.png
p166
sVsource_user_id_str
p167
V165503952
p168
sVsource_status_id
p169
I541610987489472512
sVid_str
p170
V541610984087879681
p171
sVsizes
p172
(dp173
Vsmall
p174
(dp175
Vh
p176
I272
sVresize
p177
Vfit
p178
sVw
p179
I340
ssVlarge
p180
(dp181
Vh
p182
I555
sVresize
p183
Vfit
p184
sVw
p185
I693
ssVmedium
p186
(dp187
Vh
p188
I480
sVresize
p189
Vfit
p190
sVw
p191
I600
ssVthumb
p192
(dp193
Vh
p194
I150
sVresize
p195
Vcrop
p196
sVw
p197
I150
sssVindices
p198
(lp199
I43
aI65
asVtype
p200
Vphoto
p201
sVid
p202
I541610984087879681
sVmedia_url
p203
Vhttp://pbs.twimg.com/media/B4QwUgkCAAELeBO.png
p204
sasg69
Nsg70
Nsg71
Nsg72
VThu Dec 11 13:59:02 +0000 2014
p205
sg74
Nsg75
I00
sg76
Nsg77
Nsg78
Nsg79
Nsg80
I00
sg81
Nsg82
(lp206
sg84
Nsg85
Nsg86
Nsg87
Vdon't miss it... http://t.co/OzAxTE1Wk7 .. http://t.co/vKVVAkzA2a
p207
sg89
I00
sg90
Ven
p208
sg92
g3
(g93
g5
Ntp209
Rp210
(dp211
g10
VUnited States
p212
sg98
V333333
p213
sg100
Ven
p214
sg102
Nsg103
I888
sg104
I1244
sg72
VTue Jun 18 17:59:16 +0000 2013
p215
sg106
I00
sg107
VIncrease your Brand & popularity on Twitter | get easy 10,000 Twitter followers for $39 at :  http://t.co/oUQo6U4mWP #ID
p216
sg109
Vhttps://pbs.twimg.com/profile_images/525256379720691712/lw1p8yJL_normal.jpeg
p217
sg111
I1470
sg112
I0
sg113
Nsg114
Nsg115
I00
sg116
Vhttps://pbs.twimg.com/profile_banners/1528443751/1415117527
p218
sg118
I00
sg119
I01
sg120
V0084B4
p219
sg122
I00
sg123
I00
sg124
Vhttp://pbs.twimg.com/profile_background_images/525260719441195009/2tz19IUx.jpeg
p220
sg126
Vvunodecitatu
p221
sg128
I2
sg129
VIetepere Casini
p222
sg131
VDDEEF6
p223
sg133
Nsg134
I1528443751
sg135
VC0DEED
p224
sbsg137
I0
sg138
V<a href="https://about.twitter.com/products/tweetdeck" rel="nofollow">TweetDeck</a>
p225
sg140
(lp226
g3
(g142
g5
Ntp227
Rp228
(dp229
g146
Vhttp://t.co/OzAxTE1Wk7
p230
sg148
Vhttp://ow.ly/FBZcz
p231
sbasg134
I543042276478316545
sbag3
(g4
g5
Ntp232
Rp233
(dp234
g9
I0
sg10
Nsg11
Nsg12
(lp235
sg14
I00
sg15
Nsg16
Nsg17
(lp236
sg69
Nsg70
Nsg71
Nsg72
VThu Dec 11 13:58:02 +0000 2014
p237
sg74
Nsg75
I00
sg76
Nsg77
Nsg78
Nsg79
Nsg80
I00
sg81
Nsg82
(lp238
sg84
Nsg85
Nsg86
Nsg87
VWant to get Thousands of Twitter followers Today? This is limited offer, click here http://t.co/MqFkSlGhES
p239
sg89
I00
sg90
Ven
p240
sg92
g3
(g93
g5
Ntp241
Rp242
(dp243
g10
VUnited States
p244
sg98
V333333
p245
sg100
Ven
p246
sg102
Nsg103
I888
sg104
I1244
sg72
VTue Jun 18 17:59:16 +0000 2013
p247
sg106
I00
sg107
VIncrease your Brand & popularity on Twitter | get easy 10,000 Twitter followers for $39 at :  http://t.co/oUQo6U4mWP #ID
p248
sg109
Vhttps://pbs.twimg.com/profile_images/525256379720691712/lw1p8yJL_normal.jpeg
p249
sg111
I1470
sg112
I0
sg113
Nsg114
Nsg115
I00
sg116
Vhttps://pbs.twimg.com/profile_banners/1528443751/1415117527
p250
sg118
I00
sg119
I01
sg120
V0084B4
p251
sg122
I00
sg123
I00
sg124
Vhttp://pbs.twimg.com/profile_background_images/525260719441195009/2tz19IUx.jpeg
p252
sg126
Vvunodecitatu
p253
sg128
I2
sg129
VIetepere Casini
p254
sg131
VDDEEF6
p255
sg133
Nsg134
I1528443751
sg135
VC0DEED
p256
sbsg137
I0
sg138
V<a href="https://about.twitter.com/products/tweetdeck" rel="nofollow">TweetDeck</a>
p257
sg140
(lp258
g3
(g142
g5
Ntp259
Rp260
(dp261
g146
Vhttp://t.co/MqFkSlGhES
p262
sg148
Vhttp://goo.gl/2t43G7
p263
sbasg134
I543042022492229632
sbag3
(g4
g5
Ntp264
Rp265
(dp266
g9
I0
sg10
Nsg11
Nsg12
(lp267
sg14
I00
sg15
Nsg16
Nsg17
(lp268
(dp269
Vsource_user_id
p270
I165503952
sVsource_status_id_str
p271
V541610932967723008
p272
sVexpanded_url
p273
Vhttp://twitter.com/JimmieDurani88/status/541610932967723008/photo/1
p274
sVdisplay_url
p275
Vpic.twitter.com/n5VPsdOcRB
p276
sVurl
p277
Vhttp://t.co/n5VPsdOcRB
p278
sVmedia_url_https
p279
Vhttps://pbs.twimg.com/media/B4QwRaTCEAAm_WW.png
p280
sVsource_user_id_str
p281
V165503952
p282
sVsource_status_id
p283
I541610932967723008
sVid_str
p284
V541610930866360320
p285
sVsizes
p286
(dp287
Vsmall
p288
(dp289
Vh
p290
I272
sVresize
p291
Vfit
p292
sVw
p293
I340
ssVlarge
p294
(dp295
Vh
p296
I555
sVresize
p297
Vfit
p298
sVw
p299
I693
ssVmedium
p300
(dp301
Vh
p302
I480
sVresize
p303
Vfit
p304
sVw
p305
I600
ssVthumb
p306
(dp307
Vh
p308
I150
sVresize
p309
Vcrop
p310
sVw
p311
I150
sssVindices
p312
(lp313
I40
aI62
asVtype
p314
Vphoto
p315
sVid
p316
I541610930866360320
sVmedia_url
p317
Vhttp://pbs.twimg.com/media/B4QwRaTCEAAm_WW.png
p318
sasg69
Nsg70
Nsg71
Nsg72
VThu Dec 11 13:57:15 +0000 2014
p319
sg74
Nsg75
I00
sg76
Nsg77
Nsg78
Nsg79
Nsg80
I00
sg81
Nsg82
(lp320
sg84
Nsg85
Nsg86
Nsg87
Vbest.. Best\u2026 http://t.co/Bi2LwTSMuK \u2026\u2026. http://t.co/n5VPsdOcRB
p321
sg89
I00
sg90
Ven
p322
sg92
g3
(g93
g5
Ntp323
Rp324
(dp325
g10
VUnited States
p326
sg98
V333333
p327
sg100
Ven
p328
sg102
Nsg103
I888
sg104
I1244
sg72
VTue Jun 18 17:59:16 +0000 2013
p329
sg106
I00
sg107
VIncrease your Brand & popularity on Twitter | get easy 10,000 Twitter followers for $39 at :  http://t.co/oUQo6U4mWP #ID
p330
sg109
Vhttps://pbs.twimg.com/profile_images/525256379720691712/lw1p8yJL_normal.jpeg
p331
sg111
I1470
sg112
I0
sg113
Nsg114
Nsg115
I00
sg116
Vhttps://pbs.twimg.com/profile_banners/1528443751/1415117527
p332
sg118
I00
sg119
I01
sg120
V0084B4
p333
sg122
I00
sg123
I00
sg124
Vhttp://pbs.twimg.com/profile_background_images/525260719441195009/2tz19IUx.jpeg
p334
sg126
Vvunodecitatu
p335
sg128
I2
sg129
VIetepere Casini
p336
sg131
VDDEEF6
p337
sg133
Nsg134
I1528443751
sg135
VC0DEED
p338
sbsg137
I0
sg138
V<a href="https://about.twitter.com/products/tweetdeck" rel="nofollow">TweetDeck</a>
p339
sg140
(lp340
g3
(g142
g5
Ntp341
Rp342
(dp343
g146
Vhttp://t.co/Bi2LwTSMuK
p344
sg148
Vhttp://ow.ly/FBZ4Y
p345
sbasg134
I543041825670316032
sbag3
(g4
g5
Ntp346
Rp347
(dp348
g9
I0
sg10
Nsg11
Nsg12
(lp349
sg14
I00
sg15
Nsg16
Nsg17
(lp350
sg69
Nsg70
Nsg71
Nsg72
VThu Dec 11 13:56:02 +0000 2014
p351
sg74
Nsg75
I00
sg76
Nsg77
Nsg78
Nsg79
Nsg80
I00
sg81
Nsg82
(lp352
sg84
Nsg85
Nsg86
Nsg87
VGet REAL 'LIKES' on your Facebook Fans Account, only $29 / 1000 Fanpage Likes, at http://t.co/yyXFiJRmxr
p353
sg89
I00
sg90
Ven
p354
sg92
g3
(g93
g5
Ntp355
Rp356
(dp357
g10
VUnited States
p358
sg98
V333333
p359
sg100
Ven
p360
sg102
Nsg103
I888
sg104
I1244
sg72
VTue Jun 18 17:59:16 +0000 2013
p361
sg106
I00
sg107
VIncrease your Brand & popularity on Twitter | get easy 10,000 Twitter followers for $39 at :  http://t.co/oUQo6U4mWP #ID
p362
sg109
Vhttps://pbs.twimg.com/profile_images/525256379720691712/lw1p8yJL_normal.jpeg
p363
sg111
I1470
sg112
I0
sg113
Nsg114
Nsg115
I00
sg116
Vhttps://pbs.twimg.com/profile_banners/1528443751/1415117527
p364
sg118
I00
sg119
I01
sg120
V0084B4
p365
sg122
I00
sg123
I00
sg124
Vhttp://pbs.twimg.com/profile_background_images/525260719441195009/2tz19IUx.jpeg
p366
sg126
Vvunodecitatu
p367
sg128
I2
sg129
VIetepere Casini
p368
sg131
VDDEEF6
p369
sg133
Nsg134
I1528443751
sg135
VC0DEED
p370
sbsg137
I0
sg138
V<a href="https://about.twitter.com/products/tweetdeck" rel="nofollow">TweetDeck</a>
p371
sg140
(lp372
g3
(g142
g5
Ntp373
Rp374
(dp375
g146
Vhttp://t.co/yyXFiJRmxr
p376
sg148
Vhttp://goo.gl/e21QSI
p377
sbasg134
I543041521340006400
sbag3
(g4
g5
Ntp378
Rp379
(dp380
g9
I0
sg10
Nsg11
Nsg12
(lp381
sg14
I00
sg15
Nsg16
Nsg17
(lp382
(dp383
Vsource_user_id
p384
I165503952
sVsource_status_id_str
p385
V541614001709281281
p386
sVexpanded_url
p387
Vhttp://twitter.com/JimmieDurani88/status/541614001709281281/photo/1
p388
sVdisplay_url
p389
Vpic.twitter.com/GUBeQJtaTl
p390
sVurl
p391
Vhttp://t.co/GUBeQJtaTl
p392
sVmedia_url_https
p393
Vhttps://pbs.twimg.com/media/B4QzD_6CUAAXBdx.png
p394
sVsource_user_id_str
p395
V165503952
p396
sVsource_status_id
p397
I541614001709281281
sVid_str
p398
V541613998978781184
p399
sVsizes
p400
(dp401
Vsmall
p402
(dp403
Vh
p404
I272
sVresize
p405
Vfit
p406
sVw
p407
I340
ssVlarge
p408
(dp409
Vh
p410
I555
sVresize
p411
Vfit
p412
sVw
p413
I693
ssVmedium
p414
(dp415
Vh
p416
I480
sVresize
p417
Vfit
p418
sVw
p419
I600
ssVthumb
p420
(dp421
Vh
p422
I150
sVresize
p423
Vcrop
p424
sVw
p425
I150
sssVindices
p426
(lp427
I35
aI57
asVtype
p428
Vphoto
p429
sVid
p430
I541613998978781184
sVmedia_url
p431
Vhttp://pbs.twimg.com/media/B4QzD_6CUAAXBdx.png
p432
sasg69
Nsg70
Nsg71
Nsg72
VThu Dec 11 13:55:12 +0000 2014
p433
sg74
Nsg75
I00
sg76
Nsg77
Nsg78
Nsg79
Nsg80
I00
sg81
Nsg82
(lp434
sg84
Nsg85
Nsg86
Nsg87
Voffer... http://t.co/CQ6Ma1nufn \u2026\u2026 http://t.co/GUBeQJtaTl
p435
sg89
I00
sg90
Ven
p436
sg92
g3
(g93
g5
Ntp437
Rp438
(dp439
g10
VUnited States
p440
sg98
V333333
p441
sg100
Ven
p442
sg102
Nsg103
I888
sg104
I1244
sg72
VTue Jun 18 17:59:16 +0000 2013
p443
sg106
I00
sg107
VIncrease your Brand & popularity on Twitter | get easy 10,000 Twitter followers for $39 at :  http://t.co/oUQo6U4mWP #ID
p444
sg109
Vhttps://pbs.twimg.com/profile_images/525256379720691712/lw1p8yJL_normal.jpeg
p445
sg111
I1470
sg112
I0
sg113
Nsg114
Nsg115
I00
sg116
Vhttps://pbs.twimg.com/profile_banners/1528443751/1415117527
p446
sg118
I00
sg119
I01
sg120
V0084B4
p447
sg122
I00
sg123
I00
sg124
Vhttp://pbs.twimg.com/profile_background_images/525260719441195009/2tz19IUx.jpeg
p448
sg126
Vvunodecitatu
p449
sg128
I2
sg129
VIetepere Casini
p450
sg131
VDDEEF6
p451
sg133
Nsg134
I1528443751
sg135
VC0DEED
p452
sbsg137
I0
sg138
V<a href="https://about.twitter.com/products/tweetdeck" rel="nofollow">TweetDeck</a>
p453
sg140
(lp454
g3
(g142
g5
Ntp455
Rp456
(dp457
g146
Vhttp://t.co/CQ6Ma1nufn
p458
sg148
Vhttp://ow.ly/FBZ0c
p459
sbasg134
I543041312170061825
sbag3
(g4
g5
Ntp460
Rp461
(dp462
g9
I0
sg10
Nsg11
Nsg12
(lp463
g3
(ctwitter.hashtag
Hashtag
p464
g5
Ntp465
Rp466
(dp467
S'text'
p468
VNews
p469
sbasg14
I00
sg15
Nsg16
Nsg17
(lp470
sg69
Nsg70
Nsg71
Nsg72
VThu Dec 11 13:54:15 +0000 2014
p471
sg74
Nsg75
I00
sg76
Nsg77
Nsg78
Nsg79
Nsg80
I00
sg81
Nsg82
(lp472
sg84
Nsg85
Nsg86
Nsg87
V#News Buy Twitter Followers to increase your popularity and confident. From $29/5k followers http://t.co/zhXk6zk67S
p473
sg89
I00
sg90
Ven
p474
sg92
g3
(g93
g5
Ntp475
Rp476
(dp477
g10
VUnited States
p478
sg98
V333333
p479
sg100
Ven
p480
sg102
Nsg103
I888
sg104
I1244
sg72
VTue Jun 18 17:59:16 +0000 2013
p481
sg106
I00
sg107
VIncrease your Brand & popularity on Twitter | get easy 10,000 Twitter followers for $39 at :  http://t.co/oUQo6U4mWP #ID
p482
sg109
Vhttps://pbs.twimg.com/profile_images/525256379720691712/lw1p8yJL_normal.jpeg
p483
sg111
I1470
sg112
I0
sg113
Nsg114
Nsg115
I00
sg116
Vhttps://pbs.twimg.com/profile_banners/1528443751/1415117527
p484
sg118
I00
sg119
I01
sg120
V0084B4
p485
sg122
I00
sg123
I00
sg124
Vhttp://pbs.twimg.com/profile_background_images/525260719441195009/2tz19IUx.jpeg
p486
sg126
Vvunodecitatu
p487
sg128
I2
sg129
VIetepere Casini
p488
sg131
VDDEEF6
p489
sg133
Nsg134
I1528443751
sg135
VC0DEED
p490
sbsg137
I0
sg138
V<a href="https://about.twitter.com/products/tweetdeck" rel="nofollow">TweetDeck</a>
p491
sg140
(lp492
g3
(g142
g5
Ntp493
Rp494
(dp495
g146
Vhttp://t.co/zhXk6zk67S
p496
sg148
Vhttp://goo.gl/sJMKHI
p497
sbasg134
I543041073132486656
sbag3
(g4
g5
Ntp498
Rp499
(dp500
g9
I0
sg10
Nsg11
Nsg12
(lp501
sg14
I00
sg15
Nsg16
Nsg17
(lp502
(dp503
Vsource_user_id
p504
I165503952
sVsource_status_id_str
p505
V541609805371035649
p506
sVexpanded_url
p507
Vhttp://twitter.com/JimmieDurani88/status/541609805371035649/photo/1
p508
sVdisplay_url
p509
Vpic.twitter.com/JBME6s9M9Q
p510
sVurl
p511
Vhttp://t.co/JBME6s9M9Q
p512
sVmedia_url_https
p513
Vhttps://pbs.twimg.com/media/B4QvPsVCAAAkRdL.png
p514
sVsource_user_id_str
p515
V165503952
p516
sVsource_status_id
p517
I541609805371035649
sVid_str
p518
V541609801835216896
p519
sVsizes
p520
(dp521
Vsmall
p522
(dp523
Vh
p524
I272
sVresize
p525
Vfit
p526
sVw
p527
I340
ssVlarge
p528
(dp529
Vh
p530
I555
sVresize
p531
Vfit
p532
sVw
p533
I693
ssVmedium
p534
(dp535
Vh
p536
I480
sVresize
p537
Vfit
p538
sVw
p539
I600
ssVthumb
p540
(dp541
Vh
p542
I150
sVresize
p543
Vcrop
p544
sVw
p545
I150
sssVindices
p546
(lp547
I44
aI66
asVtype
p548
Vphoto
p549
sVid
p550
I541609801835216896
sVmedia_url
p551
Vhttp://pbs.twimg.com/media/B4QvPsVCAAAkRdL.png
p552
sasg69
Nsg70
Nsg71
Nsg72
VThu Dec 11 13:53:07 +0000 2014
p553
sg74
Nsg75
I00
sg76
Nsg77
Nsg78
Nsg79
Nsg80
I00
sg81
Nsg82
(lp554
sg84
Nsg85
Nsg86
Nsg87
Vdon't be late... http://t.co/fZqxZkPnao \u2026.. http://t.co/JBME6s9M9Q
p555
sg89
I00
sg90
Ven
p556
sg92
g3
(g93
g5
Ntp557
Rp558
(dp559
g10
VUnited States
p560
sg98
V333333
p561
sg100
Ven
p562
sg102
Nsg103
I888
sg104
I1244
sg72
VTue Jun 18 17:59:16 +0000 2013
p563
sg106
I00
sg107
VIncrease your Brand & popularity on Twitter | get easy 10,000 Twitter followers for $39 at :  http://t.co/oUQo6U4mWP #ID
p564
sg109
Vhttps://pbs.twimg.com/profile_images/525256379720691712/lw1p8yJL_normal.jpeg
p565
sg111
I1470
sg112
I0
sg113
Nsg114
Nsg115
I00
sg116
Vhttps://pbs.twimg.com/profile_banners/1528443751/1415117527
p566
sg118
I00
sg119
I01
sg120
V0084B4
p567
sg122
I00
sg123
I00
sg124
Vhttp://pbs.twimg.com/profile_background_images/525260719441195009/2tz19IUx.jpeg
p568
sg126
Vvunodecitatu
p569
sg128
I2
sg129
VIetepere Casini
p570
sg131
VDDEEF6
p571
sg133
Nsg134
I1528443751
sg135
VC0DEED
p572
sbsg137
I0
sg138
V<a href="https://about.twitter.com/products/tweetdeck" rel="nofollow">TweetDeck</a>
p573
sg140
(lp574
g3
(g142
g5
Ntp575
Rp576
(dp577
g146
Vhttp://t.co/fZqxZkPnao
p578
sg148
Vhttp://ow.ly/FBYUd
p579
sbasg134
I543040787374542849
sbag3
(g4
g5
Ntp580
Rp581
(dp582
g9
I0
sg10
Nsg11
Nsg12
(lp583
sg14
I00
sg15
Nsg16
Nsg17
(lp584
sg69
Nsg70
Nsg71
Nsg72
VThu Dec 11 13:52:11 +0000 2014
p585
sg74
Nsg75
I00
sg76
Nsg77
Nsg78
Nsg79
Nsg80
I00
sg81
Nsg82
(lp586
sg84
Nsg85
Nsg86
Nsg87
VGood DEAL!! get best 5000+++ Twitter followers only 29$$, try it NOW http://t.co/iwggCrGCWX
p587
sg89
I00
sg90
Ven
p588
sg92
g3
(g93
g5
Ntp589
Rp590
(dp591
g10
VUnited States
p592
sg98
V333333
p593
sg100
Ven
p594
sg102
Nsg103
I888
sg104
I1244
sg72
VTue Jun 18 17:59:16 +0000 2013
p595
sg106
I00
sg107
VIncrease your Brand & popularity on Twitter | get easy 10,000 Twitter followers for $39 at :  http://t.co/oUQo6U4mWP #ID
p596
sg109
Vhttps://pbs.twimg.com/profile_images/525256379720691712/lw1p8yJL_normal.jpeg
p597
sg111
I1470
sg112
I0
sg113
Nsg114
Nsg115
I00
sg116
Vhttps://pbs.twimg.com/profile_banners/1528443751/1415117527
p598
sg118
I00
sg119
I01
sg120
V0084B4
p599
sg122
I00
sg123
I00
sg124
Vhttp://pbs.twimg.com/profile_background_images/525260719441195009/2tz19IUx.jpeg
p600
sg126
Vvunodecitatu
p601
sg128
I2
sg129
VIetepere Casini
p602
sg131
VDDEEF6
p603
sg133
Nsg134
I1528443751
sg135
VC0DEED
p604
sbsg137
I0
sg138
V<a href="https://about.twitter.com/products/tweetdeck" rel="nofollow">TweetDeck</a>
p605
sg140
(lp606
g3
(g142
g5
Ntp607
Rp608
(dp609
g146
Vhttp://t.co/iwggCrGCWX
p610
sg148
Vhttp://goo.gl/xWSuKO
p611
sbasg134
I543040552908775425
sbag3
(g4
g5
Ntp612
Rp613
(dp614
g9
I0
sg10
Nsg11
Nsg12
(lp615
sg14
I00
sg15
Nsg16
Nsg17
(lp616
(dp617
Vsource_user_id
p618
I165503952
sVsource_status_id_str
p619
V541614297000837120
p620
sVexpanded_url
p621
Vhttp://twitter.com/JimmieDurani88/status/541614297000837120/photo/1
p622
sVdisplay_url
p623
Vpic.twitter.com/8aFZv0zKIV
p624
sVurl
p625
Vhttp://t.co/8aFZv0zKIV
p626
sVmedia_url_https
p627
Vhttps://pbs.twimg.com/media/B4QzVMECYAAKmX3.png
p628
sVsource_user_id_str
p629
V165503952
p630
sVsource_status_id
p631
I541614297000837120
sVid_str
p632
V541614294299729920
p633
sVsizes
p634
(dp635
Vsmall
p636
(dp637
Vh
p638
I272
sVresize
p639
Vfit
p640
sVw
p641
I340
ssVlarge
p642
(dp643
Vh
p644
I555
sVresize
p645
Vfit
p646
sVw
p647
I693
ssVmedium
p648
(dp649
Vh
p650
I480
sVresize
p651
Vfit
p652
sVw
p653
I600
ssVthumb
p654
(dp655
Vh
p656
I150
sVresize
p657
Vcrop
p658
sVw
p659
I150
sssVindices
p660
(lp661
I39
aI61
asVtype
p662
Vphoto
p663
sVid
p664
I541614294299729920
sVmedia_url
p665
Vhttp://pbs.twimg.com/media/B4QzVMECYAAKmX3.png
p666
sasg69
Nsg70
Nsg71
Nsg72
VThu Dec 11 13:51:12 +0000 2014
p667
sg74
Nsg75
I00
sg76
Nsg77
Nsg78
Nsg79
Nsg80
I00
sg81
Nsg82
(lp668
sg84
Nsg85
Nsg86
Nsg87
VCheap cheap\u2026 http://t.co/ZTkaP583fw \u2026. http://t.co/8aFZv0zKIV
p669
sg89
I00
sg90
Ven
p670
sg92
g3
(g93
g5
Ntp671
Rp672
(dp673
g10
VUnited States
p674
sg98
V333333
p675
sg100
Ven
p676
sg102
Nsg103
I888
sg104
I1244
sg72
VTue Jun 18 17:59:16 +0000 2013
p677
sg106
I00
sg107
VIncrease your Brand & popularity on Twitter | get easy 10,000 Twitter followers for $39 at :  http://t.co/oUQo6U4mWP #ID
p678
sg109
Vhttps://pbs.twimg.com/profile_images/525256379720691712/lw1p8yJL_normal.jpeg
p679
sg111
I1470
sg112
I0
sg113
Nsg114
Nsg115
I00
sg116
Vhttps://pbs.twimg.com/profile_banners/1528443751/1415117527
p680
sg118
I00
sg119
I01
sg120
V0084B4
p681
sg122
I00
sg123
I00
sg124
Vhttp://pbs.twimg.com/profile_background_images/525260719441195009/2tz19IUx.jpeg
p682
sg126
Vvunodecitatu
p683
sg128
I2
sg129
VIetepere Casini
p684
sg131
VDDEEF6
p685
sg133
Nsg134
I1528443751
sg135
VC0DEED
p686
sbsg137
I0
sg138
V<a href="https://about.twitter.com/products/tweetdeck" rel="nofollow">TweetDeck</a>
p687
sg140
(lp688
g3
(g142
g5
Ntp689
Rp690
(dp691
g146
Vhttp://t.co/ZTkaP583fw
p692
sg148
Vhttp://ow.ly/FBYEN
p693
sbasg134
I543040306413707264
sbag3
(g4
g5
Ntp694
Rp695
(dp696
g9
I0
sg10
Nsg11
Nsg12
(lp697
g3
(g464
g5
Ntp698
Rp699
(dp700
g468
VNews
p701
sbasg14
I00
sg15
Nsg16
Nsg17
(lp702
sg69
Nsg70
Nsg71
Nsg72
VThu Dec 11 13:50:08 +0000 2014
p703
sg74
Nsg75
I00
sg76
Nsg77
Nsg78
Nsg79
Nsg80
I00
sg81
Nsg82
(lp704
sg84
Nsg85
Nsg86
Nsg87
V#News Just click this link you will know how to get 500 - 1000 twitter followers/Day, here http://t.co/IMweswcRas
p705
sg89
I00
sg90
Ven
p706
sg92
g3
(g93
g5
Ntp707
Rp708
(dp709
g10
VUnited States
p710
sg98
V333333
p711
sg100
Ven
p712
sg102
Nsg103
I888
sg104
I1244
sg72
VTue Jun 18 17:59:16 +0000 2013
p713
sg106
I00
sg107
VIncrease your Brand & popularity on Twitter | get easy 10,000 Twitter followers for $39 at :  http://t.co/oUQo6U4mWP #ID
p714
sg109
Vhttps://pbs.twimg.com/profile_images/525256379720691712/lw1p8yJL_normal.jpeg
p715
sg111
I1470
sg112
I0
sg113
Nsg114
Nsg115
I00
sg116
Vhttps://pbs.twimg.com/profile_banners/1528443751/1415117527
p716
sg118
I00
sg119
I01
sg120
V0084B4
p717
sg122
I00
sg123
I00
sg124
Vhttp://pbs.twimg.com/profile_background_images/525260719441195009/2tz19IUx.jpeg
p718
sg126
Vvunodecitatu
p719
sg128
I2
sg129
VIetepere Casini
p720
sg131
VDDEEF6
p721
sg133
Nsg134
I1528443751
sg135
VC0DEED
p722
sbsg137
I0
sg138
V<a href="https://about.twitter.com/products/tweetdeck" rel="nofollow">TweetDeck</a>
p723
sg140
(lp724
g3
(g142
g5
Ntp725
Rp726
(dp727
g146
Vhttp://t.co/IMweswcRas
p728
sg148
Vhttp://goo.gl/DmLcvC
p729
sbasg134
I543040037177143298
sbag3
(g4
g5
Ntp730
Rp731
(dp732
g9
I0
sg10
Nsg11
Nsg12
(lp733
sg14
I00
sg15
Nsg16
Nsg17
(lp734
(dp735
Vsource_user_id
p736
I165503952
sVsource_status_id_str
p737
V541614092281073664
p738
sVexpanded_url
p739
Vhttp://twitter.com/JimmieDurani88/status/541614092281073664/photo/1
p740
sVdisplay_url
p741
Vpic.twitter.com/qx8GRnYDSX
p742
sVurl
p743
Vhttp://t.co/qx8GRnYDSX
p744
sVmedia_url_https
p745
Vhttps://pbs.twimg.com/media/B4QzJQACYAEBEew.png
p746
sVsource_user_id_str
p747
V165503952
p748
sVsource_status_id
p749
I541614092281073664
sVid_str
p750
V541614089198264321
p751
sVsizes
p752
(dp753
Vsmall
p754
(dp755
Vh
p756
I272
sVresize
p757
Vfit
p758
sVw
p759
I340
ssVlarge
p760
(dp761
Vh
p762
I555
sVresize
p763
Vfit
p764
sVw
p765
I693
ssVmedium
p766
(dp767
Vh
p768
I480
sVresize
p769
Vfit
p770
sVw
p771
I600
ssVthumb
p772
(dp773
Vh
p774
I150
sVresize
p775
Vcrop
p776
sVw
p777
I150
sssVindices
p778
(lp779
I42
aI64
asVtype
p780
Vphoto
p781
sVid
p782
I541614089198264321
sVmedia_url
p783
Vhttp://pbs.twimg.com/media/B4QzJQACYAEBEew.png
p784
sasg69
Nsg70
Nsg71
Nsg72
VThu Dec 11 13:49:07 +0000 2014
p785
sg74
Nsg75
I00
sg76
Nsg77
Nsg78
Nsg79
Nsg80
I00
sg81
Nsg82
(lp786
sg84
Nsg85
Nsg86
Nsg87
VBest Deal !!!.. http://t.co/Z50HVaoBRF .. http://t.co/qx8GRnYDSX
p787
sg89
I00
sg90
Ven
p788
sg92
g3
(g93
g5
Ntp789
Rp790
(dp791
g10
VUnited States
p792
sg98
V333333
p793
sg100
Ven
p794
sg102
Nsg103
I888
sg104
I1244
sg72
VTue Jun 18 17:59:16 +0000 2013
p795
sg106
I00
sg107
VIncrease your Brand & popularity on Twitter | get easy 10,000 Twitter followers for $39 at :  http://t.co/oUQo6U4mWP #ID
p796
sg109
Vhttps://pbs.twimg.com/profile_images/525256379720691712/lw1p8yJL_normal.jpeg
p797
sg111
I1470
sg112
I0
sg113
Nsg114
Nsg115
I00
sg116
Vhttps://pbs.twimg.com/profile_banners/1528443751/1415117527
p798
sg118
I00
sg119
I01
sg120
V0084B4
p799
sg122
I00
sg123
I00
sg124
Vhttp://pbs.twimg.com/profile_background_images/525260719441195009/2tz19IUx.jpeg
p800
sg126
Vvunodecitatu
p801
sg128
I2
sg129
VIetepere Casini
p802
sg131
VDDEEF6
p803
sg133
Nsg134
I1528443751
sg135
VC0DEED
p804
sbsg137
I0
sg138
V<a href="https://about.twitter.com/products/tweetdeck" rel="nofollow">TweetDeck</a>
p805
sg140
(lp806
g3
(g142
g5
Ntp807
Rp808
(dp809
g146
Vhttp://t.co/Z50HVaoBRF
p810
sg148
Vhttp://ow.ly/FBYyM
p811
sbasg134
I543039781131673600
sbag3
(g4
g5
Ntp812
Rp813
(dp814
g9
I0
sg10
Nsg11
Nsg12
(lp815
sg14
I00
sg15
Nsg16
Nsg17
(lp816
sg69
Nsg70
Nsg71
Nsg72
VThu Dec 11 13:48:07 +0000 2014
p817
sg74
Nsg75
I00
sg76
Nsg77
Nsg78
Nsg79
Nsg80
I00
sg81
Nsg82
(lp818
sg84
Nsg85
Nsg86
Nsg87
VGAIN More Twitter Followers Using this website, Simple, Easy &amp; Cheap! here http://t.co/sAW4zttg9E
p819
sg89
I00
sg90
Ven
p820
sg92
g3
(g93
g5
Ntp821
Rp822
(dp823
g10
VUnited States
p824
sg98
V333333
p825
sg100
Ven
p826
sg102
Nsg103
I888
sg104
I1244
sg72
VTue Jun 18 17:59:16 +0000 2013
p827
sg106
I00
sg107
VIncrease your Brand & popularity on Twitter | get easy 10,000 Twitter followers for $39 at :  http://t.co/oUQo6U4mWP #ID
p828
sg109
Vhttps://pbs.twimg.com/profile_images/525256379720691712/lw1p8yJL_normal.jpeg
p829
sg111
I1470
sg112
I0
sg113
Nsg114
Nsg115
I00
sg116
Vhttps://pbs.twimg.com/profile_banners/1528443751/1415117527
p830
sg118
I00
sg119
I01
sg120
V0084B4
p831
sg122
I00
sg123
I00
sg124
Vhttp://pbs.twimg.com/profile_background_images/525260719441195009/2tz19IUx.jpeg
p832
sg126
Vvunodecitatu
p833
sg128
I2
sg129
VIetepere Casini
p834
sg131
VDDEEF6
p835
sg133
Nsg134
I1528443751
sg135
VC0DEED
p836
sbsg137
I0
sg138
V<a href="https://about.twitter.com/products/tweetdeck" rel="nofollow">TweetDeck</a>
p837
sg140
(lp838
g3
(g142
g5
Ntp839
Rp840
(dp841
g146
Vhttp://t.co/sAW4zttg9E
p842
sg148
Vhttp://goo.gl/HqkH4m
p843
sbasg134
I543039527661481986
sbag3
(g4
g5
Ntp844
Rp845
(dp846
g9
I0
sg10
Nsg11
Nsg12
(lp847
sg14
I00
sg15
Nsg16
Nsg17
(lp848
(dp849
Vsource_user_id
p850
I165503952
sVsource_status_id_str
p851
V541614172077711360
p852
sVexpanded_url
p853
Vhttp://twitter.com/JimmieDurani88/status/541614172077711360/photo/1
p854
sVdisplay_url
p855
Vpic.twitter.com/yAvrwiBjJw
p856
sVurl
p857
Vhttp://t.co/yAvrwiBjJw
p858
sVmedia_url_https
p859
Vhttps://pbs.twimg.com/media/B4QzN65CIAMTWQi.png
p860
sVsource_user_id_str
p861
V165503952
p862
sVsource_status_id
p863
I541614172077711360
sVid_str
p864
V541614169431089155
p865
sVsizes
p866
(dp867
Vsmall
p868
(dp869
Vh
p870
I272
sVresize
p871
Vfit
p872
sVw
p873
I340
ssVlarge
p874
(dp875
Vh
p876
I555
sVresize
p877
Vfit
p878
sVw
p879
I693
ssVmedium
p880
(dp881
Vh
p882
I480
sVresize
p883
Vfit
p884
sVw
p885
I600
ssVthumb
p886
(dp887
Vh
p888
I150
sVresize
p889
Vcrop
p890
sVw
p891
I150
sssVindices
p892
(lp893
I45
aI67
asVtype
p894
Vphoto
p895
sVid
p896
I541614169431089155
sVmedia_url
p897
Vhttp://pbs.twimg.com/media/B4QzN65CIAMTWQi.png
p898
sasg69
Nsg70
Nsg71
Nsg72
VThu Dec 11 13:47:08 +0000 2014
p899
sg74
Nsg75
I00
sg76
Nsg77
Nsg78
Nsg79
Nsg80
I00
sg81
Nsg82
(lp900
sg84
Nsg85
Nsg86
Nsg87
Vget popular now!!.. http://t.co/C4E81TpaP2 \u2026 http://t.co/yAvrwiBjJw
p901
sg89
I00
sg90
Ven
p902
sg92
g3
(g93
g5
Ntp903
Rp904
(dp905
g10
VUnited States
p906
sg98
V333333
p907
sg100
Ven
p908
sg102
Nsg103
I888
sg104
I1244
sg72
VTue Jun 18 17:59:16 +0000 2013
p909
sg106
I00
sg107
VIncrease your Brand & popularity on Twitter | get easy 10,000 Twitter followers for $39 at :  http://t.co/oUQo6U4mWP #ID
p910
sg109
Vhttps://pbs.twimg.com/profile_images/525256379720691712/lw1p8yJL_normal.jpeg
p911
sg111
I1470
sg112
I0
sg113
Nsg114
Nsg115
I00
sg116
Vhttps://pbs.twimg.com/profile_banners/1528443751/1415117527
p912
sg118
I00
sg119
I01
sg120
V0084B4
p913
sg122
I00
sg123
I00
sg124
Vhttp://pbs.twimg.com/profile_background_images/525260719441195009/2tz19IUx.jpeg
p914
sg126
Vvunodecitatu
p915
sg128
I2
sg129
VIetepere Casini
p916
sg131
VDDEEF6
p917
sg133
Nsg134
I1528443751
sg135
VC0DEED
p918
sbsg137
I0
sg138
V<a href="https://about.twitter.com/products/tweetdeck" rel="nofollow">TweetDeck</a>
p919
sg140
(lp920
g3
(g142
g5
Ntp921
Rp922
(dp923
g146
Vhttp://t.co/C4E81TpaP2
p924
sg148
Vhttp://ow.ly/FBYpb
p925
sbasg134
I543039283280347136
sbag3
(g4
g5
Ntp926
Rp927
(dp928
g9
I0
sg10
Nsg11
Nsg12
(lp929
sg14
I00
sg15
Nsg16
Nsg17
(lp930
sg69
Nsg70
Nsg71
Nsg72
VThu Dec 11 13:46:09 +0000 2014
p931
sg74
Nsg75
I00
sg76
Nsg77
Nsg78
Nsg79
Nsg80
I00
sg81
Nsg82
(lp932
sg84
Nsg85
Nsg86
Nsg87
VThis website can help you to increase your popularity, brand &amp; Sales on Twitter, see here http://t.co/fXRiQQuaBa
p933
sg89
I00
sg90
Ven
p934
sg92
g3
(g93
g5
Ntp935
Rp936
(dp937
g10
VUnited States
p938
sg98
V333333
p939
sg100
Ven
p940
sg102
Nsg103
I888
sg104
I1244
sg72
VTue Jun 18 17:59:16 +0000 2013
p941
sg106
I00
sg107
VIncrease your Brand & popularity on Twitter | get easy 10,000 Twitter followers for $39 at :  http://t.co/oUQo6U4mWP #ID
p942
sg109
Vhttps://pbs.twimg.com/profile_images/525256379720691712/lw1p8yJL_normal.jpeg
p943
sg111
I1470
sg112
I0
sg113
Nsg114
Nsg115
I00
sg116
Vhttps://pbs.twimg.com/profile_banners/1528443751/1415117527
p944
sg118
I00
sg119
I01
sg120
V0084B4
p945
sg122
I00
sg123
I00
sg124
Vhttp://pbs.twimg.com/profile_background_images/525260719441195009/2tz19IUx.jpeg
p946
sg126
Vvunodecitatu
p947
sg128
I2
sg129
VIetepere Casini
p948
sg131
VDDEEF6
p949
sg133
Nsg134
I1528443751
sg135
VC0DEED
p950
sbsg137
I0
sg138
V<a href="https://about.twitter.com/products/tweetdeck" rel="nofollow">TweetDeck</a>
p951
sg140
(lp952
g3
(g142
g5
Ntp953
Rp954
(dp955
g146
Vhttp://t.co/fXRiQQuaBa
p956
sg148
Vhttp://goo.gl/t9wdRw
p957
sbasg134
I543039035799646208
sbag3
(g4
g5
Ntp958
Rp959
(dp960
g9
I0
sg10
Nsg11
Nsg12
(lp961
sg14
I00
sg15
Nsg16
Nsg17
(lp962
(dp963
Vsource_user_id
p964
I165503952
sVsource_status_id_str
p965
V541607156848394240
p966
sVexpanded_url
p967
Vhttp://twitter.com/JimmieDurani88/status/541607156848394240/photo/1
p968
sVdisplay_url
p969
Vpic.twitter.com/Yza28pv9BC
p970
sVurl
p971
Vhttp://t.co/Yza28pv9BC
p972
sVmedia_url_https
p973
Vhttps://pbs.twimg.com/media/B4Qs1nmCIAUv9OE.png
p974
sVsource_user_id_str
p975
V165503952
p976
sVsource_status_id
p977
I541607156848394240
sVid_str
p978
V541607154864496645
p979
sVsizes
p980
(dp981
Vsmall
p982
(dp983
Vh
p984
I272
sVresize
p985
Vfit
p986
sVw
p987
I340
ssVlarge
p988
(dp989
Vh
p990
I555
sVresize
p991
Vfit
p992
sVw
p993
I693
ssVmedium
p994
(dp995
Vh
p996
I480
sVresize
p997
Vfit
p998
sVw
p999
I600
ssVthumb
p1000
(dp1001
Vh
p1002
I150
sVresize
p1003
Vcrop
p1004
sVw
p1005
I150
sssVindices
p1006
(lp1007
I38
aI60
asVtype
p1008
Vphoto
p1009
sVid
p1010
I541607154864496645
sVmedia_url
p1011
Vhttp://pbs.twimg.com/media/B4Qs1nmCIAUv9OE.png
p1012
sasg69
Nsg70
Nsg71
Nsg72
VThu Dec 11 13:45:01 +0000 2014
p1013
sg74
Nsg75
I00
sg76
Nsg77
Nsg78
Nsg79
Nsg80
I00
sg81
Nsg82
(lp1014
sg84
Nsg85
Nsg86
Nsg87
VHi tweeps\u2026. http://t.co/b4qF9kjMe6 \u2026\u2026 http://t.co/Yza28pv9BC
p1015
sg89
I00
sg90
Ven
p1016
sg92
g3
(g93
g5
Ntp1017
Rp1018
(dp1019
g10
VUnited States
p1020
sg98
V333333
p1021
sg100
Ven
p1022
sg102
Nsg103
I888
sg104
I1244
sg72
VTue Jun 18 17:59:16 +0000 2013
p1023
sg106
I00
sg107
VIncrease your Brand & popularity on Twitter | get easy 10,000 Twitter followers for $39 at :  http://t.co/oUQo6U4mWP #ID
p1024
sg109
Vhttps://pbs.twimg.com/profile_images/525256379720691712/lw1p8yJL_normal.jpeg
p1025
sg111
I1470
sg112
I0
sg113
Nsg114
Nsg115
I00
sg116
Vhttps://pbs.twimg.com/profile_banners/1528443751/1415117527
p1026
sg118
I00
sg119
I01
sg120
V0084B4
p1027
sg122
I00
sg123
I00
sg124
Vhttp://pbs.twimg.com/profile_background_images/525260719441195009/2tz19IUx.jpeg
p1028
sg126
Vvunodecitatu
p1029
sg128
I2
sg129
VIetepere Casini
p1030
sg131
VDDEEF6
p1031
sg133
Nsg134
I1528443751
sg135
VC0DEED
p1032
sbsg137
I0
sg138
V<a href="https://about.twitter.com/products/tweetdeck" rel="nofollow">TweetDeck</a>
p1033
sg140
(lp1034
g3
(g142
g5
Ntp1035
Rp1036
(dp1037
g146
Vhttp://t.co/b4qF9kjMe6
p1038
sg148
Vhttp://ow.ly/FBYf4
p1039
sbasg134
I543038750628913156
sbag3
(g4
g5
Ntp1040
Rp1041
(dp1042
g9
I0
sg10
Nsg11
Nsg12
(lp1043
sg14
I00
sg15
Nsg16
Nsg17
(lp1044
sg69
Nsg70
Nsg71
Nsg72
VThu Dec 11 13:44:04 +0000 2014
p1045
sg74
Nsg75
I00
sg76
Nsg77
Nsg78
Nsg79
Nsg80
I00
sg81
Nsg82
(lp1046
sg84
Nsg85
Nsg86
Nsg87
VTwitter Consultants - We offer All social media services, buy 10k Twitter Followers now only $39 at http://t.co/5nqyYyJK0a
p1047
sg89
I00
sg90
Ven
p1048
sg92
g3
(g93
g5
Ntp1049
Rp1050
(dp1051
g10
VUnited States
p1052
sg98
V333333
p1053
sg100
Ven
p1054
sg102
Nsg103
I888
sg104
I1244
sg72
VTue Jun 18 17:59:16 +0000 2013
p1055
sg106
I00
sg107
VIncrease your Brand & popularity on Twitter | get easy 10,000 Twitter followers for $39 at :  http://t.co/oUQo6U4mWP #ID
p1056
sg109
Vhttps://pbs.twimg.com/profile_images/525256379720691712/lw1p8yJL_normal.jpeg
p1057
sg111
I1470
sg112
I0
sg113
Nsg114
Nsg115
I00
sg116
Vhttps://pbs.twimg.com/profile_banners/1528443751/1415117527
p1058
sg118
I00
sg119
I01
sg120
V0084B4
p1059
sg122
I00
sg123
I00
sg124
Vhttp://pbs.twimg.com/profile_background_images/525260719441195009/2tz19IUx.jpeg
p1060
sg126
Vvunodecitatu
p1061
sg128
I2
sg129
VIetepere Casini
p1062
sg131
VDDEEF6
p1063
sg133
Nsg134
I1528443751
sg135
VC0DEED
p1064
sbsg137
I0
sg138
V<a href="https://about.twitter.com/products/tweetdeck" rel="nofollow">TweetDeck</a>
p1065
sg140
(lp1066
g3
(g142
g5
Ntp1067
Rp1068
(dp1069
g146
Vhttp://t.co/5nqyYyJK0a
p1070
sg148
Vhttp://goo.gl/WUL3pW
p1071
sbasg134
I543038510496620544
sbag3
(g4
g5
Ntp1072
Rp1073
(dp1074
g9
I0
sg10
Nsg11
Nsg12
(lp1075
sg14
I00
sg15
Nsg16
Nsg17
(lp1076
(dp1077
Vsource_user_id
p1078
I165503952
sVsource_status_id_str
p1079
V541615179457249281
p1080
sVexpanded_url
p1081
Vhttp://twitter.com/JimmieDurani88/status/541615179457249281/photo/1
p1082
sVdisplay_url
p1083
Vpic.twitter.com/R8g85Wfll5
p1084
sVurl
p1085
Vhttp://t.co/R8g85Wfll5
p1086
sVmedia_url_https
p1087
Vhttps://pbs.twimg.com/media/B4Q0ISOCYAEtRVE.png
p1088
sVsource_user_id_str
p1089
V165503952
p1090
sVsource_status_id
p1091
I541615179457249281
sVid_str
p1092
V541615172125614081
p1093
sVsizes
p1094
(dp1095
Vsmall
p1096
(dp1097
Vh
p1098
I272
sVresize
p1099
Vfit
p1100
sVw
p1101
I340
ssVlarge
p1102
(dp1103
Vh
p1104
I555
sVresize
p1105
Vfit
p1106
sVw
p1107
I693
ssVmedium
p1108
(dp1109
Vh
p1110
I480
sVresize
p1111
Vfit
p1112
sVw
p1113
I600
ssVthumb
p1114
(dp1115
Vh
p1116
I150
sVresize
p1117
Vcrop
p1118
sVw
p1119
I150
sssVindices
p1120
(lp1121
I34
aI56
asVtype
p1122
Vphoto
p1123
sVid
p1124
I541615172125614081
sVmedia_url
p1125
Vhttp://pbs.twimg.com/media/B4Q0ISOCYAEtRVE.png
p1126
sasg69
Nsg70
Nsg71
Nsg72
VThu Dec 11 13:43:10 +0000 2014
p1127
sg74
Nsg75
I00
sg76
Nsg77
Nsg78
Nsg79
Nsg80
I00
sg81
Nsg82
(lp1128
sg84
Nsg85
Nsg86
Nsg87
VThanks.. http://t.co/WjN19rtzRv . http://t.co/R8g85Wfll5
p1129
sg89
I00
sg90
Ven
p1130
sg92
g3
(g93
g5
Ntp1131
Rp1132
(dp1133
g10
VUnited States
p1134
sg98
V333333
p1135
sg100
Ven
p1136
sg102
Nsg103
I888
sg104
I1244
sg72
VTue Jun 18 17:59:16 +0000 2013
p1137
sg106
I00
sg107
VIncrease your Brand & popularity on Twitter | get easy 10,000 Twitter followers for $39 at :  http://t.co/oUQo6U4mWP #ID
p1138
sg109
Vhttps://pbs.twimg.com/profile_images/525256379720691712/lw1p8yJL_normal.jpeg
p1139
sg111
I1470
sg112
I0
sg113
Nsg114
Nsg115
I00
sg116
Vhttps://pbs.twimg.com/profile_banners/1528443751/1415117527
p1140
sg118
I00
sg119
I01
sg120
V0084B4
p1141
sg122
I00
sg123
I00
sg124
Vhttp://pbs.twimg.com/profile_background_images/525260719441195009/2tz19IUx.jpeg
p1142
sg126
Vvunodecitatu
p1143
sg128
I2
sg129
VIetepere Casini
p1144
sg131
VDDEEF6
p1145
sg133
Nsg134
I1528443751
sg135
VC0DEED
p1146
sbsg137
I0
sg138
V<a href="https://about.twitter.com/products/tweetdeck" rel="nofollow">TweetDeck</a>
p1147
sg140
(lp1148
g3
(g142
g5
Ntp1149
Rp1150
(dp1151
g146
Vhttp://t.co/WjN19rtzRv
p1152
sg148
Vhttp://ow.ly/FBXRv
p1153
sbasg134
I543038284067139586
sbag3
(g4
g5
Ntp1154
Rp1155
(dp1156
g9
I0
sg10
Nsg11
Nsg12
(lp1157
sg14
I00
sg15
Nsg16
Nsg17
(lp1158
sg69
Nsg70
Nsg71
Nsg72
VThu Dec 11 13:42:14 +0000 2014
p1159
sg74
Nsg75
I00
sg76
Nsg77
Nsg78
Nsg79
Nsg80
I00
sg81
Nsg82
(lp1160
sg84
Nsg85
Nsg86
Nsg87
VMore than 1000 Customers happy using our services, Buy 5000 Twitter followers Today, Only $29! at http://t.co/iOoZunyBHM
p1161
sg89
I00
sg90
Ven
p1162
sg92
g3
(g93
g5
Ntp1163
Rp1164
(dp1165
g10
VUnited States
p1166
sg98
V333333
p1167
sg100
Ven
p1168
sg102
Nsg103
I888
sg104
I1244
sg72
VTue Jun 18 17:59:16 +0000 2013
p1169
sg106
I00
sg107
VIncrease your Brand & popularity on Twitter | get easy 10,000 Twitter followers for $39 at :  http://t.co/oUQo6U4mWP #ID
p1170
sg109
Vhttps://pbs.twimg.com/profile_images/525256379720691712/lw1p8yJL_normal.jpeg
p1171
sg111
I1470
sg112
I0
sg113
Nsg114
Nsg115
I00
sg116
Vhttps://pbs.twimg.com/profile_banners/1528443751/1415117527
p1172
sg118
I00
sg119
I01
sg120
V0084B4
p1173
sg122
I00
sg123
I00
sg124
Vhttp://pbs.twimg.com/profile_background_images/525260719441195009/2tz19IUx.jpeg
p1174
sg126
Vvunodecitatu
p1175
sg128
I2
sg129
VIetepere Casini
p1176
sg131
VDDEEF6
p1177
sg133
Nsg134
I1528443751
sg135
VC0DEED
p1178
sbsg137
I0
sg138
V<a href="https://about.twitter.com/products/tweetdeck" rel="nofollow">TweetDeck</a>
p1179
sg140
(lp1180
g3
(g142
g5
Ntp1181
Rp1182
(dp1183
g146
Vhttp://t.co/iOoZunyBHM
p1184
sg148
Vhttp://goo.gl/JCgj3I
p1185
sbasg134
I543038048686977024
sbag3
(g4
g5
Ntp1186
Rp1187
(dp1188
g9
I0
sg10
Nsg11
Nsg12
(lp1189
sg14
I00
sg15
Nsg16
Nsg17
(lp1190
(dp1191
Vsource_user_id
p1192
I165503952
sVsource_status_id_str
p1193
V541614930089082880
p1194
sVexpanded_url
p1195
Vhttp://twitter.com/JimmieDurani88/status/541614930089082880/photo/1
p1196
sVdisplay_url
p1197
Vpic.twitter.com/pdeyLF55MQ
p1198
sVurl
p1199
Vhttp://t.co/pdeyLF55MQ
p1200
sVmedia_url_https
p1201
Vhttps://pbs.twimg.com/media/B4Qz575CMAEPOks.png
p1202
sVsource_user_id_str
p1203
V165503952
p1204
sVsource_status_id
p1205
I541614930089082880
sVid_str
p1206
V541614925613772801
p1207
sVsizes
p1208
(dp1209
Vsmall
p1210
(dp1211
Vh
p1212
I272
sVresize
p1213
Vfit
p1214
sVw
p1215
I340
ssVlarge
p1216
(dp1217
Vh
p1218
I555
sVresize
p1219
Vfit
p1220
sVw
p1221
I693
ssVmedium
p1222
(dp1223
Vh
p1224
I480
sVresize
p1225
Vfit
p1226
sVw
p1227
I600
ssVthumb
p1228
(dp1229
Vh
p1230
I150
sVresize
p1231
Vcrop
p1232
sVw
p1233
I150
sssVindices
p1234
(lp1235
I39
aI61
asVtype
p1236
Vphoto
p1237
sVid
p1238
I541614925613772801
sVmedia_url
p1239
Vhttp://pbs.twimg.com/media/B4Qz575CMAEPOks.png
p1240
sasg69
Nsg70
Nsg71
Nsg72
VThu Dec 11 13:41:14 +0000 2014
p1241
sg74
Nsg75
I00
sg76
Nsg77
Nsg78
Nsg79
Nsg80
I00
sg81
Nsg82
(lp1242
sg84
Nsg85
Nsg86
Nsg87
VCheap offer\u2026 http://t.co/qrI9YIYcWa \u2026. http://t.co/pdeyLF55MQ
p1243
sg89
I00
sg90
Ven
p1244
sg92
g3
(g93
g5
Ntp1245
Rp1246
(dp1247
g10
VUnited States
p1248
sg98
V333333
p1249
sg100
Ven
p1250
sg102
Nsg103
I888
sg104
I1244
sg72
VTue Jun 18 17:59:16 +0000 2013
p1251
sg106
I00
sg107
VIncrease your Brand & popularity on Twitter | get easy 10,000 Twitter followers for $39 at :  http://t.co/oUQo6U4mWP #ID
p1252
sg109
Vhttps://pbs.twimg.com/profile_images/525256379720691712/lw1p8yJL_normal.jpeg
p1253
sg111
I1470
sg112
I0
sg113
Nsg114
Nsg115
I00
sg116
Vhttps://pbs.twimg.com/profile_banners/1528443751/1415117527
p1254
sg118
I00
sg119
I01
sg120
V0084B4
p1255
sg122
I00
sg123
I00
sg124
Vhttp://pbs.twimg.com/profile_background_images/525260719441195009/2tz19IUx.jpeg
p1256
sg126
Vvunodecitatu
p1257
sg128
I2
sg129
VIetepere Casini
p1258
sg131
VDDEEF6
p1259
sg133
Nsg134
I1528443751
sg135
VC0DEED
p1260
sbsg137
I0
sg138
V<a href="https://about.twitter.com/products/tweetdeck" rel="nofollow">TweetDeck</a>
p1261
sg140
(lp1262
g3
(g142
g5
Ntp1263
Rp1264
(dp1265
g146
Vhttp://t.co/qrI9YIYcWa
p1266
sg148
Vhttp://ow.ly/FBXH6
p1267
sbasg134
I543037795963375616
sbaa.