(lp0
S'DebandCynthia'
p1
a(lp2
ccopy_reg
_reconstructor
p3
(ctwitter
Status
p4
c__builtin__
object
p5
Ntp6
Rp7
(dp8
S'_favorite_count'
p9
I0
sS'_location'
p10
NsS'_withheld_scope'
p11
NsS'hashtags'
p12
(lp13
sS'_truncated'
p14
I00
sS'_retweeted_status'
p15
NsS'_withheld_copyright'
p16
NsS'media'
p17
(lp18
sS'_place'
p19
NsS'_contributors'
p20
NsS'_current_user_retweet'
p21
NsS'_created_at'
p22
VSun Dec 14 16:06:04 +0000 2014
p23
sS'_scopes'
p24
NsS'_possibly_sensitive'
p25
I00
sS'_in_reply_to_screen_name'
p26
NsS'_coordinates'
p27
NsS'_in_reply_to_user_id'
p28
NsS'_geo'
p29
NsS'_favorited'
p30
I00
sS'_withheld_in_countries'
p31
NsS'user_mentions'
p32
(lp33
sS'_now'
p34
NsS'_id_str'
p35
V544161410507632642
p36
sS'_in_reply_to_status_id'
p37
NsS'_text'
p38
VFor an amazing opportunity just waiting for you click the link. http://t.co/Zq6InWuH2m
p39
sS'_retweeted'
p40
I00
sS'lang'
p41
Ven
p42
sS'_user'
p43
g3
(ctwitter
User
p44
g5
Ntp45
Rp46
(dp47
g10
VWisconsin & Ohio
p48
sS'_profile_text_color'
p49
V333333
p50
sS'_lang'
p51
Ven
p52
sS'_time_zone'
p53
VCentral Time (US & Canada)
p54
sS'_followers_count'
p55
I6379
sS'_statuses_count'
p56
I464
sg22
VSun Nov 11 03:45:12 +0000 2012
p57
sS'_verified'
p58
I00
sS'_description'
p59
VSafe & Effective Products that NATURALLY balances blood sugar, cholesterol, BP. Complete line to help with WEIGHTLOSS & feel your best! ID # 197300
p60
sS'_profile_image_url'
p61
Vhttps://pbs.twimg.com/profile_images/2915937410/1cb0fb7a208cc9c4df58c22b02c68fbf_normal.jpeg
p62
sS'_friends_count'
p63
I143
sS'_favourites_count'
p64
I81
sS'_utc_offset'
p65
I-21600
sS'_status'
p66
NsS'_protected'
p67
I00
sS'_profile_banner_url'
p68
NsS'_notifications'
p69
I00
sS'_profile_background_tile'
p70
I00
sS'_profile_link_color'
p71
V0084B4
p72
sS'_geo_enabled'
p73
I00
sS'_contributors_enabled'
p74
I00
sS'_profile_background_image_url'
p75
Vhttp://abs.twimg.com/images/themes/theme1/bg.png
p76
sS'_screen_name'
p77
VDebandCynthia
p78
sS'_listed_count'
p79
I1
sS'_name'
p80
VDeb & Cynthia
p81
sS'_profile_sidebar_fill_color'
p82
VDDEEF6
p83
sS'_url'
p84
Vhttp://t.co/urwWiGPGCe
p85
sS'_id'
p86
I940495663
sS'_profile_background_color'
p87
VC0DEED
p88
sbsS'_retweet_count'
p89
I0
sS'_source'
p90
V<a href="http://myplexusbuilder.com/" rel="nofollow">My Plexus Builder</a>
p91
sS'urls'
p92
(lp93
g3
(ctwitter
Url
p94
g5
Ntp95
Rp96
(dp97
S'url'
p98
Vhttp://t.co/Zq6InWuH2m
p99
sS'expanded_url'
p100
Vhttp://ltl.is/3BkpZ
p101
sbasg86
I544161410507632642
sbag3
(g4
g5
Ntp102
Rp103
(dp104
g9
I0
sg10
Nsg11
Nsg12
(lp105
sg14
I00
sg15
Nsg16
Nsg17
(lp106
(dp107
Vexpanded_url
p108
Vhttp://twitter.com/DebandCynthia/status/543917051480657920/photo/1
p109
sVdisplay_url
p110
Vpic.twitter.com/nwf9muPv0q
p111
sVurl
p112
Vhttp://t.co/nwf9muPv0q
p113
sVmedia_url_https
p114
Vhttps://pbs.twimg.com/media/B4xhrSsIMAE-jwf.jpg
p115
sVid_str
p116
V543917051384180737
p117
sVsizes
p118
(dp119
Vlarge
p120
(dp121
Vh
p122
I537
sVresize
p123
Vfit
p124
sVw
p125
I1024
ssVsmall
p126
(dp127
Vh
p128
I178
sVresize
p129
Vfit
p130
sVw
p131
I340
ssVmedium
p132
(dp133
Vh
p134
I315
sVresize
p135
Vfit
p136
sVw
p137
I600
ssVthumb
p138
(dp139
Vh
p140
I150
sVresize
p141
Vcrop
p142
sVw
p143
I150
sssVindices
p144
(lp145
I37
aI59
asVtype
p146
Vphoto
p147
sVid
p148
I543917051384180737
sVmedia_url
p149
Vhttp://pbs.twimg.com/media/B4xhrSsIMAE-jwf.jpg
p150
sasg19
Nsg20
Nsg21
Nsg22
VSat Dec 13 23:55:05 +0000 2014
p151
sg24
Nsg25
I00
sg26
Nsg27
Nsg28
Nsg29
Nsg30
I00
sg31
Nsg32
(lp152
sg34
Nsg35
V543917051480657920
p153
sg37
Nsg38
VSo inspiring! http://t.co/09S8n2OYI6 http://t.co/nwf9muPv0q
p154
sg40
I00
sg41
Ven
p155
sg43
g3
(g44
g5
Ntp156
Rp157
(dp158
g10
VWisconsin & Ohio
p159
sg49
V333333
p160
sg51
Ven
p161
sg53
VCentral Time (US & Canada)
p162
sg55
I6379
sg56
I464
sg22
VSun Nov 11 03:45:12 +0000 2012
p163
sg58
I00
sg59
VSafe & Effective Products that NATURALLY balances blood sugar, cholesterol, BP. Complete line to help with WEIGHTLOSS & feel your best! ID # 197300
p164
sg61
Vhttps://pbs.twimg.com/profile_images/2915937410/1cb0fb7a208cc9c4df58c22b02c68fbf_normal.jpeg
p165
sg63
I143
sg64
I81
sg65
I-21600
sg66
Nsg67
I00
sg68
Nsg69
I00
sg70
I00
sg71
V0084B4
p166
sg73
I00
sg74
I00
sg75
Vhttp://abs.twimg.com/images/themes/theme1/bg.png
p167
sg77
VDebandCynthia
p168
sg79
I1
sg80
VDeb & Cynthia
p169
sg82
VDDEEF6
p170
sg84
Vhttp://t.co/urwWiGPGCe
p171
sg86
I940495663
sg87
VC0DEED
p172
sbsg89
I0
sg90
V<a href="http://myplexusbuilder.com/" rel="nofollow">My Plexus Builder</a>
p173
sg92
(lp174
g3
(g94
g5
Ntp175
Rp176
(dp177
g98
Vhttp://t.co/09S8n2OYI6
p178
sg100
Vhttp://ltl.is/6sEhi
p179
sbasg86
I543917051480657920
sbag3
(g4
g5
Ntp180
Rp181
(dp182
g9
I0
sg10
Nsg11
Nsg12
(lp183
sg14
I00
sg15
Nsg16
Nsg17
(lp184
(dp185
Vexpanded_url
p186
Vhttp://twitter.com/DebandCynthia/status/543835263186010112/photo/1
p187
sVdisplay_url
p188
Vpic.twitter.com/IwRhPXNX6x
p189
sVurl
p190
Vhttp://t.co/IwRhPXNX6x
p191
sVmedia_url_https
p192
Vhttps://pbs.twimg.com/media/B4wXSlrIgAAtHlR.jpg
p193
sVid_str
p194
V543835263123095552
p195
sVsizes
p196
(dp197
Vlarge
p198
(dp199
Vh
p200
I537
sVresize
p201
Vfit
p202
sVw
p203
I1024
ssVsmall
p204
(dp205
Vh
p206
I178
sVresize
p207
Vfit
p208
sVw
p209
I340
ssVmedium
p210
(dp211
Vh
p212
I315
sVresize
p213
Vfit
p214
sVw
p215
I600
ssVthumb
p216
(dp217
Vh
p218
I150
sVresize
p219
Vcrop
p220
sVw
p221
I150
sssVindices
p222
(lp223
I72
aI94
asVtype
p224
Vphoto
p225
sVid
p226
I543835263123095552
sVmedia_url
p227
Vhttp://pbs.twimg.com/media/B4wXSlrIgAAtHlR.jpg
p228
sasg19
Nsg20
Nsg21
Nsg22
VSat Dec 13 18:30:05 +0000 2014
p229
sg24
Nsg25
I00
sg26
Nsg27
Nsg28
Nsg29
Nsg30
I00
sg31
Nsg32
(lp230
sg34
Nsg35
V543835263186010112
p231
sg37
Nsg38
VClick here to start creating your success story! http://t.co/09S8n2OYI6 http://t.co/IwRhPXNX6x
p232
sg40
I00
sg41
Ven
p233
sg43
g3
(g44
g5
Ntp234
Rp235
(dp236
g10
VWisconsin & Ohio
p237
sg49
V333333
p238
sg51
Ven
p239
sg53
VCentral Time (US & Canada)
p240
sg55
I6379
sg56
I464
sg22
VSun Nov 11 03:45:12 +0000 2012
p241
sg58
I00
sg59
VSafe & Effective Products that NATURALLY balances blood sugar, cholesterol, BP. Complete line to help with WEIGHTLOSS & feel your best! ID # 197300
p242
sg61
Vhttps://pbs.twimg.com/profile_images/2915937410/1cb0fb7a208cc9c4df58c22b02c68fbf_normal.jpeg
p243
sg63
I143
sg64
I81
sg65
I-21600
sg66
Nsg67
I00
sg68
Nsg69
I00
sg70
I00
sg71
V0084B4
p244
sg73
I00
sg74
I00
sg75
Vhttp://abs.twimg.com/images/themes/theme1/bg.png
p245
sg77
VDebandCynthia
p246
sg79
I1
sg80
VDeb & Cynthia
p247
sg82
VDDEEF6
p248
sg84
Vhttp://t.co/urwWiGPGCe
p249
sg86
I940495663
sg87
VC0DEED
p250
sbsg89
I0
sg90
V<a href="http://myplexusbuilder.com/" rel="nofollow">My Plexus Builder</a>
p251
sg92
(lp252
g3
(g94
g5
Ntp253
Rp254
(dp255
g98
Vhttp://t.co/09S8n2OYI6
p256
sg100
Vhttp://ltl.is/6sEhi
p257
sbasg86
I543835263186010112
sbag3
(g4
g5
Ntp258
Rp259
(dp260
g9
I0
sg10
Nsg11
Nsg12
(lp261
sg14
I00
sg15
Nsg16
Nsg17
(lp262
(dp263
Vexpanded_url
p264
Vhttp://twitter.com/DebandCynthia/status/543538303585505280/photo/1
p265
sVdisplay_url
p266
Vpic.twitter.com/Ojh5aokjla
p267
sVurl
p268
Vhttp://t.co/Ojh5aokjla
p269
sVmedia_url_https
p270
Vhttps://pbs.twimg.com/media/B4sJNRAIIAASrrL.jpg
p271
sVid_str
p272
V543538303535161344
p273
sVsizes
p274
(dp275
Vlarge
p276
(dp277
Vh
p278
I537
sVresize
p279
Vfit
p280
sVw
p281
I1024
ssVsmall
p282
(dp283
Vh
p284
I178
sVresize
p285
Vfit
p286
sVw
p287
I340
ssVmedium
p288
(dp289
Vh
p290
I315
sVresize
p291
Vfit
p292
sVw
p293
I600
ssVthumb
p294
(dp295
Vh
p296
I150
sVresize
p297
Vcrop
p298
sVw
p299
I150
sssVindices
p300
(lp301
I84
aI106
asVtype
p302
Vphoto
p303
sVid
p304
I543538303535161344
sVmedia_url
p305
Vhttp://pbs.twimg.com/media/B4sJNRAIIAASrrL.jpg
p306
sasg19
Nsg20
Nsg21
Nsg22
VFri Dec 12 22:50:04 +0000 2014
p307
sg24
Nsg25
I00
sg26
Nsg27
Nsg28
Nsg29
Nsg30
I00
sg31
Nsg32
(lp308
sg34
Nsg35
V543538303585505280
p309
sg37
Nsg38
VClick here to learn how to improve your financial situation! http://t.co/09S8n2OYI6 http://t.co/Ojh5aokjla
p310
sg40
I00
sg41
Ven
p311
sg43
g3
(g44
g5
Ntp312
Rp313
(dp314
g10
VWisconsin & Ohio
p315
sg49
V333333
p316
sg51
Ven
p317
sg53
VCentral Time (US & Canada)
p318
sg55
I6379
sg56
I464
sg22
VSun Nov 11 03:45:12 +0000 2012
p319
sg58
I00
sg59
VSafe & Effective Products that NATURALLY balances blood sugar, cholesterol, BP. Complete line to help with WEIGHTLOSS & feel your best! ID # 197300
p320
sg61
Vhttps://pbs.twimg.com/profile_images/2915937410/1cb0fb7a208cc9c4df58c22b02c68fbf_normal.jpeg
p321
sg63
I143
sg64
I81
sg65
I-21600
sg66
Nsg67
I00
sg68
Nsg69
I00
sg70
I00
sg71
V0084B4
p322
sg73
I00
sg74
I00
sg75
Vhttp://abs.twimg.com/images/themes/theme1/bg.png
p323
sg77
VDebandCynthia
p324
sg79
I1
sg80
VDeb & Cynthia
p325
sg82
VDDEEF6
p326
sg84
Vhttp://t.co/urwWiGPGCe
p327
sg86
I940495663
sg87
VC0DEED
p328
sbsg89
I0
sg90
V<a href="http://myplexusbuilder.com/" rel="nofollow">My Plexus Builder</a>
p329
sg92
(lp330
g3
(g94
g5
Ntp331
Rp332
(dp333
g98
Vhttp://t.co/09S8n2OYI6
p334
sg100
Vhttp://ltl.is/6sEhi
p335
sbasg86
I543538303585505280
sbag3
(g4
g5
Ntp336
Rp337
(dp338
g9
I0
sg10
Nsg11
Nsg12
(lp339
g3
(ctwitter
Hashtag
p340
g5
Ntp341
Rp342
(dp343
S'text'
p344
VCEO
p345
sbag3
(g340
g5
Ntp346
Rp347
(dp348
g344
Vleadership
p349
sbasg14
I00
sg15
g3
(g4
g5
Ntp350
Rp351
(dp352
g9
I2
sg10
Nsg11
Nsg12
(lp353
g3
(g340
g5
Ntp354
Rp355
(dp356
g344
VCEO
p357
sbag3
(g340
g5
Ntp358
Rp359
(dp360
g344
Vleadership
p361
sbasg14
I00
sg15
Nsg16
Nsg17
(lp362
(dp363
Vexpanded_url
p364
Vhttp://twitter.com/MSFT4Work/status/543510608151588864/photo/1
p365
sVdisplay_url
p366
Vpic.twitter.com/u32KhUqeUO
p367
sVurl
p368
Vhttp://t.co/u32KhUqeUO
p369
sVmedia_url_https
p370
Vhttps://pbs.twimg.com/media/B4rwBLEIYAAd4ve.jpg
p371
sVid_str
p372
V543510607992217600
p373
sVsizes
p374
(dp375
Vlarge
p376
(dp377
Vh
p378
I381
sVresize
p379
Vfit
p380
sVw
p381
I826
ssVsmall
p382
(dp383
Vh
p384
I156
sVresize
p385
Vfit
p386
sVw
p387
I340
ssVmedium
p388
(dp389
Vh
p390
I276
sVresize
p391
Vfit
p392
sVw
p393
I600
ssVthumb
p394
(dp395
Vh
p396
I150
sVresize
p397
Vcrop
p398
sVw
p399
I150
sssVindices
p400
(lp401
I92
aI114
asVtype
p402
Vphoto
p403
sVid
p404
I543510607992217600
sVmedia_url
p405
Vhttp://pbs.twimg.com/media/B4rwBLEIYAAd4ve.jpg
p406
sasg19
Nsg20
Nsg21
Nsg22
VFri Dec 12 21:00:01 +0000 2014
p407
sg24
Nsg25
I00
sg26
Nsg27
Nsg28
Nsg29
Nsg30
I00
sg31
Nsg32
(lp408
g3
(g44
g5
Ntp409
Rp410
(dp411
g10
Nsg49
Nsg51
Nsg53
Nsg55
Nsg56
Nsg22
Nsg58
Nsg59
Nsg61
Nsg63
Nsg64
Nsg65
Nsg66
Nsg67
Nsg68
Nsg69
Nsg70
Nsg71
Nsg73
Nsg74
Nsg75
Nsg77
VInc
p412
sg79
Nsg80
VInc. 
p413
sg82
Nsg84
Nsg86
I16896485
sg87
Nsbasg34
Nsg35
V543510608151588864
p414
sg37
Nsg38
VWhat traits set apart a truly exceptional #CEO: http://t.co/8ScbXvTkhW via @inc #leadership http://t.co/u32KhUqeUO
p415
sg40
I00
sg41
Ven
p416
sg43
g3
(g44
g5
Ntp417
Rp418
(dp419
g10
VRedmond, Washington
p420
sg49
V333333
p421
sg51
Ven
p422
sg53
VPacific Time (US & Canada)
p423
sg55
I120182
sg56
I10436
sg22
VFri Jan 30 23:31:38 +0000 2009
p424
sg58
I01
sg59
VHelping business owners and professionals get the most out of technology to improve their businesses.
p425
sg61
Vhttps://pbs.twimg.com/profile_images/426436798466641920/oA1qaXCh_normal.png
p426
sg63
I5791
sg64
I369
sg65
I-28800
sg66
Nsg67
I00
sg68
Vhttps://pbs.twimg.com/profile_banners/19795404/1396927832
p427
sg69
I00
sg70
I00
sg71
V0084B4
p428
sg73
I00
sg74
I00
sg75
Vhttp://pbs.twimg.com/profile_background_images/448569057042657280/5jhuAPtu.png
p429
sg77
VMSFT4Work
p430
sg79
I1275
sg80
VMicrosoft for Work
p431
sg82
VDDEEF6
p432
sg84
Vhttp://t.co/UXpAnhqe8Z
p433
sg86
I19795404
sg87
V10254D
p434
sbsg89
I7
sg90
V<a href="http://msft.it/SMBBusinessHub" rel="nofollow">Microsoft SMB</a>
p435
sg92
(lp436
g3
(g94
g5
Ntp437
Rp438
(dp439
g98
Vhttp://t.co/8ScbXvTkhW
p440
sg100
Vhttp://4work.ms/YvLLwd
p441
sbasg86
I543510608151588864
sbsg16
Nsg17
(lp442
(dp443
Vsource_user_id
p444
I19795404
sVsource_status_id_str
p445
V543510608151588864
p446
sVexpanded_url
p447
Vhttp://twitter.com/MSFT4Work/status/543510608151588864/photo/1
p448
sVdisplay_url
p449
Vpic.twitter.com/u32KhUqeUO
p450
sVurl
p451
Vhttp://t.co/u32KhUqeUO
p452
sVmedia_url_https
p453
Vhttps://pbs.twimg.com/media/B4rwBLEIYAAd4ve.jpg
p454
sVsource_user_id_str
p455
V19795404
p456
sVsource_status_id
p457
I543510608151588864
sVid_str
p458
V543510607992217600
p459
sVsizes
p460
(dp461
Vlarge
p462
(dp463
Vh
p464
I381
sVresize
p465
Vfit
p466
sVw
p467
I826
ssVsmall
p468
(dp469
Vh
p470
I156
sVresize
p471
Vfit
p472
sVw
p473
I340
ssVmedium
p474
(dp475
Vh
p476
I276
sVresize
p477
Vfit
p478
sVw
p479
I600
ssVthumb
p480
(dp481
Vh
p482
I150
sVresize
p483
Vcrop
p484
sVw
p485
I150
sssVindices
p486
(lp487
I107
aI129
asVtype
p488
Vphoto
p489
sVid
p490
I543510607992217600
sVmedia_url
p491
Vhttp://pbs.twimg.com/media/B4rwBLEIYAAd4ve.jpg
p492
sasg19
Nsg20
Nsg21
Nsg22
VFri Dec 12 21:30:00 +0000 2014
p493
sg24
Nsg25
I00
sg26
Nsg27
Nsg28
Nsg29
Nsg30
I00
sg31
Nsg32
(lp494
g3
(g44
g5
Ntp495
Rp496
(dp497
g10
Nsg49
Nsg51
Nsg53
Nsg55
Nsg56
Nsg22
Nsg58
Nsg59
Nsg61
Nsg63
Nsg64
Nsg65
Nsg66
Nsg67
Nsg68
Nsg69
Nsg70
Nsg71
Nsg73
Nsg74
Nsg75
Nsg77
VMSFT4Work
p498
sg79
Nsg80
VMicrosoft for Work
p499
sg82
Nsg84
Nsg86
I19795404
sg87
Nsbag3
(g44
g5
Ntp500
Rp501
(dp502
g10
Nsg49
Nsg51
Nsg53
Nsg55
Nsg56
Nsg22
Nsg58
Nsg59
Nsg61
Nsg63
Nsg64
Nsg65
Nsg66
Nsg67
Nsg68
Nsg69
Nsg70
Nsg71
Nsg73
Nsg74
Nsg75
Nsg77
VInc
p503
sg79
Nsg80
VInc. 
p504
sg82
Nsg84
Nsg86
I16896485
sg87
Nsbasg34
Nsg35
V543518152307785734
p505
sg37
Nsg38
VRT @MSFT4Work: What traits set apart a truly exceptional #CEO: http://t.co/8ScbXvTkhW via @inc #leadership http://t.co/u32KhUqeUO
p506
sg40
I00
sg41
Ven
p507
sg43
g3
(g44
g5
Ntp508
Rp509
(dp510
g10
VWisconsin & Ohio
p511
sg49
V333333
p512
sg51
Ven
p513
sg53
VCentral Time (US & Canada)
p514
sg55
I6379
sg56
I464
sg22
VSun Nov 11 03:45:12 +0000 2012
p515
sg58
I00
sg59
VSafe & Effective Products that NATURALLY balances blood sugar, cholesterol, BP. Complete line to help with WEIGHTLOSS & feel your best! ID # 197300
p516
sg61
Vhttps://pbs.twimg.com/profile_images/2915937410/1cb0fb7a208cc9c4df58c22b02c68fbf_normal.jpeg
p517
sg63
I143
sg64
I81
sg65
I-21600
sg66
Nsg67
I00
sg68
Nsg69
I00
sg70
I00
sg71
V0084B4
p518
sg73
I00
sg74
I00
sg75
Vhttp://abs.twimg.com/images/themes/theme1/bg.png
p519
sg77
VDebandCynthia
p520
sg79
I1
sg80
VDeb & Cynthia
p521
sg82
VDDEEF6
p522
sg84
Vhttp://t.co/urwWiGPGCe
p523
sg86
I940495663
sg87
VC0DEED
p524
sbsg89
I7
sg90
V<a href="http://twitter.com/download/iphone" rel="nofollow">Twitter for iPhone</a>
p525
sg92
(lp526
g3
(g94
g5
Ntp527
Rp528
(dp529
g98
Vhttp://t.co/8ScbXvTkhW
p530
sg100
Vhttp://4work.ms/YvLLwd
p531
sbasg86
I543518152307785734
sbag3
(g4
g5
Ntp532
Rp533
(dp534
g9
I2
sg10
Nsg11
Nsg12
(lp535
g3
(g340
g5
Ntp536
Rp537
(dp538
g344
Voppchat
p539
sbasg14
I00
sg15
Nsg16
Nsg17
(lp540
sg19
Nsg20
Nsg21
Nsg22
VFri Dec 12 17:23:14 +0000 2014
p541
sg24
Nsg25
Nsg26
Nsg27
Nsg28
Nsg29
Nsg30
I00
sg31
Nsg32
(lp542
sg34
Nsg35
V543456054525575168
p543
sg37
Nsg38
V#oppchat
p544
sg40
I00
sg41
Vund
p545
sg43
g3
(g44
g5
Ntp546
Rp547
(dp548
g10
VWisconsin & Ohio
p549
sg49
V333333
p550
sg51
Ven
p551
sg53
VCentral Time (US & Canada)
p552
sg55
I6379
sg56
I464
sg22
VSun Nov 11 03:45:12 +0000 2012
p553
sg58
I00
sg59
VSafe & Effective Products that NATURALLY balances blood sugar, cholesterol, BP. Complete line to help with WEIGHTLOSS & feel your best! ID # 197300
p554
sg61
Vhttps://pbs.twimg.com/profile_images/2915937410/1cb0fb7a208cc9c4df58c22b02c68fbf_normal.jpeg
p555
sg63
I143
sg64
I81
sg65
I-21600
sg66
Nsg67
I00
sg68
Nsg69
I00
sg70
I00
sg71
V0084B4
p556
sg73
I00
sg74
I00
sg75
Vhttp://abs.twimg.com/images/themes/theme1/bg.png
p557
sg77
VDebandCynthia
p558
sg79
I1
sg80
VDeb & Cynthia
p559
sg82
VDDEEF6
p560
sg84
Vhttp://t.co/urwWiGPGCe
p561
sg86
I940495663
sg87
VC0DEED
p562
sbsg89
I0
sg90
V<a href="http://twitter.com/download/iphone" rel="nofollow">Twitter for iPhone</a>
p563
sg92
(lp564
sg86
I543456054525575168
sbag3
(g4
g5
Ntp565
Rp566
(dp567
g9
I0
sg10
Nsg11
Nsg12
(lp568
g3
(g340
g5
Ntp569
Rp570
(dp571
g344
VOppChat
p572
sbasg14
I00
sg15
g3
(g4
g5
Ntp573
Rp574
(dp575
g9
I1
sg10
Nsg11
Nsg12
(lp576
g3
(g340
g5
Ntp577
Rp578
(dp579
g344
VOppChat
p580
sbasg14
I00
sg15
Nsg16
Nsg17
(lp581
(dp582
Vexpanded_url
p583
Vhttp://twitter.com/PlexusWorldwide/status/543410510839156737/photo/1
p584
sVdisplay_url
p585
Vpic.twitter.com/zDJDJHAbwt
p586
sVurl
p587
Vhttp://t.co/zDJDJHAbwt
p588
sVmedia_url_https
p589
Vhttps://pbs.twimg.com/media/B4qU-tqCUAI5hzV.jpg
p590
sVid_str
p591
V543410510180274178
p592
sVsizes
p593
(dp594
Vlarge
p595
(dp596
Vh
p597
I410
sVresize
p598
Vfit
p599
sVw
p600
I552
ssVsmall
p601
(dp602
Vh
p603
I252
sVresize
p604
Vfit
p605
sVw
p606
I340
ssVmedium
p607
(dp608
Vh
p609
I410
sVresize
p610
Vfit
p611
sVw
p612
I552
ssVthumb
p613
(dp614
Vh
p615
I150
sVresize
p616
Vcrop
p617
sVw
p618
I150
sssVindices
p619
(lp620
I18
aI40
asVtype
p621
Vphoto
p622
sVid
p623
I543410510180274178
sVmedia_url
p624
Vhttp://pbs.twimg.com/media/B4qU-tqCUAI5hzV.jpg
p625
sasg19
(dp626
Vfull_name
p627
VScottsdale, AZ
p628
sVurl
p629
Vhttps://api.twitter.com/1.1/geo/id/0a0de7bd49ef942d.json
p630
sVcountry
p631
VUnited States
p632
sVplace_type
p633
Vcity
p634
sVbounding_box
p635
(dp636
Vtype
p637
VPolygon
p638
sVcoordinates
p639
(lp640
(lp641
(lp642
F-111.960775
aF33.4358637
aa(lp643
F-111.756022
aF33.4358637
aa(lp644
F-111.756022
aF33.842816
aa(lp645
F-111.960775
aF33.842816
aaassVcontained_within
p646
(lp647
sVcountry_code
p648
VUS
p649
sVattributes
p650
(dp651
sVid
p652
V0a0de7bd49ef942d
p653
sVname
p654
VScottsdale
p655
ssg20
Nsg21
Nsg22
VFri Dec 12 14:22:16 +0000 2014
p656
sg24
Nsg25
I00
sg26
Nsg27
Nsg28
Nsg29
Nsg30
I00
sg31
Nsg32
(lp657
sg34
Nsg35
V543410510839156737
p658
sg37
Nsg38
VIts #OppChat day! http://t.co/zDJDJHAbwt
p659
sg40
I00
sg41
Ven
p660
sg43
g3
(g44
g5
Ntp661
Rp662
(dp663
g10
VScottsdale, AZ
p664
sg49
V333333
p665
sg51
Ven
p666
sg53
VPacific Time (US & Canada)
p667
sg55
I5591
sg56
I2460
sg22
VThu Jul 09 16:11:08 +0000 2009
p668
sg58
I00
sg59
V#PlexusFreedom | Life-changing products | Unique, rewarding business opp | #OppChat | #PinkFriday | #SmallBizSat | #CyberMonday
p669
sg61
Vhttps://pbs.twimg.com/profile_images/529313308927459329/1trRBbvI_normal.png
p670
sg63
I955
sg64
I5190
sg65
I-28800
sg66
Nsg67
I00
sg68
Vhttps://pbs.twimg.com/profile_banners/55278521/1417538820
p671
sg69
I00
sg70
I00
sg71
VCC3366
p672
sg73
I01
sg74
I00
sg75
Vhttp://pbs.twimg.com/profile_background_images/484444373522735104/iVBWXxcD.jpeg
p673
sg77
VPlexusWorldwide
p674
sg79
I21
sg80
VPlexus Worldwide Inc
p675
sg82
VE6F6F9
p676
sg84
Vhttp://t.co/8KEX8auakp
p677
sg86
I55278521
sg87
VDBE9ED
p678
sbsg89
I1
sg90
V<a href="http://twitter.com" rel="nofollow">Twitter Web Client</a>
p679
sg92
(lp680
sg86
I543410510839156737
sbsg16
Nsg17
(lp681
(dp682
Vsource_user_id
p683
I55278521
sVsource_status_id_str
p684
V543410510839156737
p685
sVexpanded_url
p686
Vhttp://twitter.com/PlexusWorldwide/status/543410510839156737/photo/1
p687
sVdisplay_url
p688
Vpic.twitter.com/zDJDJHAbwt
p689
sVurl
p690
Vhttp://t.co/zDJDJHAbwt
p691
sVmedia_url_https
p692
Vhttps://pbs.twimg.com/media/B4qU-tqCUAI5hzV.jpg
p693
sVsource_user_id_str
p694
V55278521
p695
sVsource_status_id
p696
I543410510839156737
sVid_str
p697
V543410510180274178
p698
sVsizes
p699
(dp700
Vlarge
p701
(dp702
Vh
p703
I410
sVresize
p704
Vfit
p705
sVw
p706
I552
ssVsmall
p707
(dp708
Vh
p709
I252
sVresize
p710
Vfit
p711
sVw
p712
I340
ssVmedium
p713
(dp714
Vh
p715
I410
sVresize
p716
Vfit
p717
sVw
p718
I552
ssVthumb
p719
(dp720
Vh
p721
I150
sVresize
p722
Vcrop
p723
sVw
p724
I150
sssVindices
p725
(lp726
I39
aI61
asVtype
p727
Vphoto
p728
sVid
p729
I543410510180274178
sVmedia_url
p730
Vhttp://pbs.twimg.com/media/B4qU-tqCUAI5hzV.jpg
p731
sasg19
Nsg20
Nsg21
Nsg22
VFri Dec 12 17:23:01 +0000 2014
p732
sg24
Nsg25
I00
sg26
Nsg27
Nsg28
Nsg29
Nsg30
I00
sg31
Nsg32
(lp733
g3
(g44
g5
Ntp734
Rp735
(dp736
g10
Nsg49
Nsg51
Nsg53
Nsg55
Nsg56
Nsg22
Nsg58
Nsg59
Nsg61
Nsg63
Nsg64
Nsg65
Nsg66
Nsg67
Nsg68
Nsg69
Nsg70
Nsg71
Nsg73
Nsg74
Nsg75
Nsg77
VPlexusWorldwide
p737
sg79
Nsg80
VPlexus Worldwide Inc
p738
sg82
Nsg84
Nsg86
I55278521
sg87
Nsbasg34
Nsg35
V543455997030064129
p739
sg37
Nsg38
VRT @PlexusWorldwide: Its #OppChat day! http://t.co/zDJDJHAbwt
p740
sg40
I00
sg41
Ven
p741
sg43
g3
(g44
g5
Ntp742
Rp743
(dp744
g10
VWisconsin & Ohio
p745
sg49
V333333
p746
sg51
Ven
p747
sg53
VCentral Time (US & Canada)
p748
sg55
I6379
sg56
I464
sg22
VSun Nov 11 03:45:12 +0000 2012
p749
sg58
I00
sg59
VSafe & Effective Products that NATURALLY balances blood sugar, cholesterol, BP. Complete line to help with WEIGHTLOSS & feel your best! ID # 197300
p750
sg61
Vhttps://pbs.twimg.com/profile_images/2915937410/1cb0fb7a208cc9c4df58c22b02c68fbf_normal.jpeg
p751
sg63
I143
sg64
I81
sg65
I-21600
sg66
Nsg67
I00
sg68
Nsg69
I00
sg70
I00
sg71
V0084B4
p752
sg73
I00
sg74
I00
sg75
Vhttp://abs.twimg.com/images/themes/theme1/bg.png
p753
sg77
VDebandCynthia
p754
sg79
I1
sg80
VDeb & Cynthia
p755
sg82
VDDEEF6
p756
sg84
Vhttp://t.co/urwWiGPGCe
p757
sg86
I940495663
sg87
VC0DEED
p758
sbsg89
I1
sg90
V<a href="http://twitter.com/download/iphone" rel="nofollow">Twitter for iPhone</a>
p759
sg92
(lp760
sg86
I543455997030064129
sbag3
(g4
g5
Ntp761
Rp762
(dp763
g9
I0
sg10
Nsg11
Nsg12
(lp764
sg14
I00
sg15
Nsg16
Nsg17
(lp765
(dp766
Vexpanded_url
p767
Vhttp://twitter.com/DebandCynthia/status/543440658040913921/photo/1
p768
sVdisplay_url
p769
Vpic.twitter.com/CjP8czkzgN
p770
sVurl
p771
Vhttp://t.co/CjP8czkzgN
p772
sVmedia_url_https
p773
Vhttps://pbs.twimg.com/media/B4qwZjAIIAA-bKn.jpg
p774
sVid_str
p775
V543440657990557696
p776
sVsizes
p777
(dp778
Vlarge
p779
(dp780
Vh
p781
I537
sVresize
p782
Vfit
p783
sVw
p784
I1024
ssVsmall
p785
(dp786
Vh
p787
I178
sVresize
p788
Vfit
p789
sVw
p790
I340
ssVmedium
p791
(dp792
Vh
p793
I315
sVresize
p794
Vfit
p795
sVw
p796
I600
ssVthumb
p797
(dp798
Vh
p799
I150
sVresize
p800
Vcrop
p801
sVw
p802
I150
sssVindices
p803
(lp804
I78
aI100
asVtype
p805
Vphoto
p806
sVid
p807
I543440657990557696
sVmedia_url
p808
Vhttp://pbs.twimg.com/media/B4qwZjAIIAA-bKn.jpg
p809
sasg19
Nsg20
Nsg21
Nsg22
VFri Dec 12 16:22:04 +0000 2014
p810
sg24
Nsg25
I00
sg26
Nsg27
Nsg28
Nsg29
Nsg30
I00
sg31
Nsg32
(lp811
sg34
Nsg35
V543440658040913921
p812
sg37
Nsg38
VClick here to learn how to make your retirement great! http://t.co/09S8n2OYI6 http://t.co/CjP8czkzgN
p813
sg40
I00
sg41
Ven
p814
sg43
g3
(g44
g5
Ntp815
Rp816
(dp817
g10
VWisconsin & Ohio
p818
sg49
V333333
p819
sg51
Ven
p820
sg53
VCentral Time (US & Canada)
p821
sg55
I6379
sg56
I464
sg22
VSun Nov 11 03:45:12 +0000 2012
p822
sg58
I00
sg59
VSafe & Effective Products that NATURALLY balances blood sugar, cholesterol, BP. Complete line to help with WEIGHTLOSS & feel your best! ID # 197300
p823
sg61
Vhttps://pbs.twimg.com/profile_images/2915937410/1cb0fb7a208cc9c4df58c22b02c68fbf_normal.jpeg
p824
sg63
I143
sg64
I81
sg65
I-21600
sg66
Nsg67
I00
sg68
Nsg69
I00
sg70
I00
sg71
V0084B4
p825
sg73
I00
sg74
I00
sg75
Vhttp://abs.twimg.com/images/themes/theme1/bg.png
p826
sg77
VDebandCynthia
p827
sg79
I1
sg80
VDeb & Cynthia
p828
sg82
VDDEEF6
p829
sg84
Vhttp://t.co/urwWiGPGCe
p830
sg86
I940495663
sg87
VC0DEED
p831
sbsg89
I0
sg90
V<a href="http://myplexusbuilder.com/" rel="nofollow">My Plexus Builder</a>
p832
sg92
(lp833
g3
(g94
g5
Ntp834
Rp835
(dp836
g98
Vhttp://t.co/09S8n2OYI6
p837
sg100
Vhttp://ltl.is/6sEhi
p838
sbasg86
I543440658040913921
sbag3
(g4
g5
Ntp839
Rp840
(dp841
g9
I0
sg10
Nsg11
Nsg12
(lp842
sg14
I00
sg15
Nsg16
Nsg17
(lp843
(dp844
Vexpanded_url
p845
Vhttp://twitter.com/DebandCynthia/status/543188750462111744/photo/1
p846
sVdisplay_url
p847
Vpic.twitter.com/H6wYeyvlmc
p848
sVurl
p849
Vhttp://t.co/H6wYeyvlmc
p850
sVmedia_url_https
p851
Vhttps://pbs.twimg.com/media/B4nLSl9IgAEg-lk.jpg
p852
sVid_str
p853
V543188750361460737
p854
sVsizes
p855
(dp856
Vlarge
p857
(dp858
Vh
p859
I537
sVresize
p860
Vfit
p861
sVw
p862
I1024
ssVsmall
p863
(dp864
Vh
p865
I178
sVresize
p866
Vfit
p867
sVw
p868
I340
ssVmedium
p869
(dp870
Vh
p871
I315
sVresize
p872
Vfit
p873
sVw
p874
I600
ssVthumb
p875
(dp876
Vh
p877
I150
sVresize
p878
Vcrop
p879
sVw
p880
I150
sssVindices
p881
(lp882
I83
aI105
asVtype
p883
Vphoto
p884
sVid
p885
I543188750361460737
sVmedia_url
p886
Vhttp://pbs.twimg.com/media/B4nLSl9IgAEg-lk.jpg
p887
sasg19
Nsg20
Nsg21
Nsg22
VThu Dec 11 23:41:04 +0000 2014
p888
sg24
Nsg25
I00
sg26
Nsg27
Nsg28
Nsg29
Nsg30
I00
sg31
Nsg32
(lp889
sg34
Nsg35
V543188750462111744
p890
sg37
Nsg38
VStop waiting and click here to start doing something great! http://t.co/09S8n2OYI6 http://t.co/H6wYeyvlmc
p891
sg40
I00
sg41
Ven
p892
sg43
g3
(g44
g5
Ntp893
Rp894
(dp895
g10
VWisconsin & Ohio
p896
sg49
V333333
p897
sg51
Ven
p898
sg53
VCentral Time (US & Canada)
p899
sg55
I6379
sg56
I464
sg22
VSun Nov 11 03:45:12 +0000 2012
p900
sg58
I00
sg59
VSafe & Effective Products that NATURALLY balances blood sugar, cholesterol, BP. Complete line to help with WEIGHTLOSS & feel your best! ID # 197300
p901
sg61
Vhttps://pbs.twimg.com/profile_images/2915937410/1cb0fb7a208cc9c4df58c22b02c68fbf_normal.jpeg
p902
sg63
I143
sg64
I81
sg65
I-21600
sg66
Nsg67
I00
sg68
Nsg69
I00
sg70
I00
sg71
V0084B4
p903
sg73
I00
sg74
I00
sg75
Vhttp://abs.twimg.com/images/themes/theme1/bg.png
p904
sg77
VDebandCynthia
p905
sg79
I1
sg80
VDeb & Cynthia
p906
sg82
VDDEEF6
p907
sg84
Vhttp://t.co/urwWiGPGCe
p908
sg86
I940495663
sg87
VC0DEED
p909
sbsg89
I0
sg90
V<a href="http://myplexusbuilder.com/" rel="nofollow">My Plexus Builder</a>
p910
sg92
(lp911
g3
(g94
g5
Ntp912
Rp913
(dp914
g98
Vhttp://t.co/09S8n2OYI6
p915
sg100
Vhttp://ltl.is/6sEhi
p916
sbasg86
I543188750462111744
sbag3
(g4
g5
Ntp917
Rp918
(dp919
g9
I0
sg10
Nsg11
Nsg12
(lp920
sg14
I00
sg15
Nsg16
Nsg17
(lp921
(dp922
Vexpanded_url
p923
Vhttp://twitter.com/DebandCynthia/status/543114007025319936/photo/1
p924
sVdisplay_url
p925
Vpic.twitter.com/qybl8eHbKw
p926
sVurl
p927
Vhttp://t.co/qybl8eHbKw
p928
sVmedia_url_https
p929
Vhttps://pbs.twimg.com/media/B4mHT9JIUAAzpG2.jpg
p930
sVid_str
p931
V543114006974976000
p932
sVsizes
p933
(dp934
Vlarge
p935
(dp936
Vh
p937
I537
sVresize
p938
Vfit
p939
sVw
p940
I1024
ssVsmall
p941
(dp942
Vh
p943
I178
sVresize
p944
Vfit
p945
sVw
p946
I340
ssVmedium
p947
(dp948
Vh
p949
I315
sVresize
p950
Vfit
p951
sVw
p952
I600
ssVthumb
p953
(dp954
Vh
p955
I150
sVresize
p956
Vcrop
p957
sVw
p958
I150
sssVindices
p959
(lp960
I83
aI105
asVtype
p961
Vphoto
p962
sVid
p963
I543114006974976000
sVmedia_url
p964
Vhttp://pbs.twimg.com/media/B4mHT9JIUAAzpG2.jpg
p965
sasg19
Nsg20
Nsg21
Nsg22
VThu Dec 11 18:44:04 +0000 2014
p966
sg24
Nsg25
I00
sg26
Nsg27
Nsg28
Nsg29
Nsg30
I00
sg31
Nsg32
(lp967
sg34
Nsg35
V543114007025319936
p968
sg37
Nsg38
VStop waiting and click here to start doing something great! http://t.co/09S8n2OYI6 http://t.co/qybl8eHbKw
p969
sg40
I00
sg41
Ven
p970
sg43
g3
(g44
g5
Ntp971
Rp972
(dp973
g10
VWisconsin & Ohio
p974
sg49
V333333
p975
sg51
Ven
p976
sg53
VCentral Time (US & Canada)
p977
sg55
I6379
sg56
I464
sg22
VSun Nov 11 03:45:12 +0000 2012
p978
sg58
I00
sg59
VSafe & Effective Products that NATURALLY balances blood sugar, cholesterol, BP. Complete line to help with WEIGHTLOSS & feel your best! ID # 197300
p979
sg61
Vhttps://pbs.twimg.com/profile_images/2915937410/1cb0fb7a208cc9c4df58c22b02c68fbf_normal.jpeg
p980
sg63
I143
sg64
I81
sg65
I-21600
sg66
Nsg67
I00
sg68
Nsg69
I00
sg70
I00
sg71
V0084B4
p981
sg73
I00
sg74
I00
sg75
Vhttp://abs.twimg.com/images/themes/theme1/bg.png
p982
sg77
VDebandCynthia
p983
sg79
I1
sg80
VDeb & Cynthia
p984
sg82
VDDEEF6
p985
sg84
Vhttp://t.co/urwWiGPGCe
p986
sg86
I940495663
sg87
VC0DEED
p987
sbsg89
I0
sg90
V<a href="http://myplexusbuilder.com/" rel="nofollow">My Plexus Builder</a>
p988
sg92
(lp989
g3
(g94
g5
Ntp990
Rp991
(dp992
g98
Vhttp://t.co/09S8n2OYI6
p993
sg100
Vhttp://ltl.is/6sEhi
p994
sbasg86
I543114007025319936
sbag3
(g4
g5
Ntp995
Rp996
(dp997
g9
I0
sg10
Nsg11
Nsg12
(lp998
sg14
I00
sg15
Nsg16
Nsg17
(lp999
sg19
Nsg20
Nsg21
Nsg22
VWed Dec 10 23:56:05 +0000 2014
p1000
sg24
Nsg25
I00
sg26
Nsg27
Nsg28
Nsg29
Nsg30
I00
sg31
Nsg32
(lp1001
sg34
Nsg35
V542830138833272832
p1002
sg37
Nsg38
VPlexus Slim is helping people across the country shed pounds and keep them off. Such an easy way to lose weight. http://t.co/84RY9eyc1H
p1003
sg40
I00
sg41
Ven
p1004
sg43
g3
(g44
g5
Ntp1005
Rp1006
(dp1007
g10
VWisconsin & Ohio
p1008
sg49
V333333
p1009
sg51
Ven
p1010
sg53
VCentral Time (US & Canada)
p1011
sg55
I6379
sg56
I464
sg22
VSun Nov 11 03:45:12 +0000 2012
p1012
sg58
I00
sg59
VSafe & Effective Products that NATURALLY balances blood sugar, cholesterol, BP. Complete line to help with WEIGHTLOSS & feel your best! ID # 197300
p1013
sg61
Vhttps://pbs.twimg.com/profile_images/2915937410/1cb0fb7a208cc9c4df58c22b02c68fbf_normal.jpeg
p1014
sg63
I143
sg64
I81
sg65
I-21600
sg66
Nsg67
I00
sg68
Nsg69
I00
sg70
I00
sg71
V0084B4
p1015
sg73
I00
sg74
I00
sg75
Vhttp://abs.twimg.com/images/themes/theme1/bg.png
p1016
sg77
VDebandCynthia
p1017
sg79
I1
sg80
VDeb & Cynthia
p1018
sg82
VDDEEF6
p1019
sg84
Vhttp://t.co/urwWiGPGCe
p1020
sg86
I940495663
sg87
VC0DEED
p1021
sbsg89
I0
sg90
V<a href="http://myplexusbuilder.com/" rel="nofollow">My Plexus Builder</a>
p1022
sg92
(lp1023
g3
(g94
g5
Ntp1024
Rp1025
(dp1026
g98
Vhttp://t.co/84RY9eyc1H
p1027
sg100
Vhttp://ltl.is/s4IMG
p1028
sbasg86
I542830138833272832
sbag3
(g4
g5
Ntp1029
Rp1030
(dp1031
g9
I0
sg10
Nsg11
Nsg12
(lp1032
sg14
I00
sg15
g3
(g4
g5
Ntp1033
Rp1034
(dp1035
g9
I462
sg10
Nsg11
Nsg12
(lp1036
sg14
I00
sg15
Nsg16
Nsg17
(lp1037
(dp1038
Vsource_user_id
p1039
I22650211
sVsource_status_id_str
p1040
V542668108025303041
p1041
sVexpanded_url
p1042
Vhttp://twitter.com/GMA/status/542668108025303041/photo/1
p1043
sVdisplay_url
p1044
Vpic.twitter.com/ujdMHOho9M
p1045
sVurl
p1046
Vhttp://t.co/ujdMHOho9M
p1047
sVmedia_url_https
p1048
Vhttps://pbs.twimg.com/media/B4fxvP9CUAEkQi3.jpg
p1049
sVsource_user_id_str
p1050
V22650211
p1051
sVsource_status_id
p1052
I542668108025303041
sVid_str
p1053
V542668074160115713
p1054
sVsizes
p1055
(dp1056
Vlarge
p1057
(dp1058
Vh
p1059
I397
sVresize
p1060
Vfit
p1061
sVw
p1062
I599
ssVsmall
p1063
(dp1064
Vh
p1065
I225
sVresize
p1066
Vfit
p1067
sVw
p1068
I340
ssVmedium
p1069
(dp1070
Vh
p1071
I397
sVresize
p1072
Vfit
p1073
sVw
p1074
I599
ssVthumb
p1075
(dp1076
Vh
p1077
I150
sVresize
p1078
Vcrop
p1079
sVw
p1080
I150
sssVindices
p1081
(lp1082
I77
aI99
asVtype
p1083
Vphoto
p1084
sVid
p1085
I542668074160115713
sVmedia_url
p1086
Vhttp://pbs.twimg.com/media/B4fxvP9CUAEkQi3.jpg
p1087
sasg19
Nsg20
Nsg21
Nsg22
VWed Dec 10 20:16:02 +0000 2014
p1088
sg24
Nsg25
I00
sg26
Nsg27
Nsg28
Nsg29
Nsg30
I00
sg31
Nsg32
(lp1089
sg34
Nsg35
V542774764545142784
p1090
sg37
Nsg38
V"The Ebola Fighters" named TIME's Person of the Year: http://t.co/aINUpiD0vD http://t.co/ujdMHOho9M
p1091
sg40
I00
sg41
Ven
p1092
sg43
g3
(g44
g5
Ntp1093
Rp1094
(dp1095
g10
VNew York, NY
p1096
sg49
V333333
p1097
sg51
Ven
p1098
sg53
VEastern Time (US & Canada)
p1099
sg55
I3771991
sg56
I99460
sg22
VSat Apr 04 12:40:32 +0000 2009
p1100
sg58
I01
sg59
VSee the whole picture with @ABC News. Tweets from the Social Desk: @Springer & @MicahGrimes
p1101
sg61
Vhttps://pbs.twimg.com/profile_images/528328276414971904/6UHQeTXS_normal.png
p1102
sg63
I860
sg64
I560
sg65
I-18000
sg66
Nsg67
I00
sg68
Vhttps://pbs.twimg.com/profile_banners/28785486/1416512734
p1103
sg69
I00
sg70
I00
sg71
V336699
p1104
sg73
I00
sg74
I00
sg75
Vhttp://pbs.twimg.com/profile_background_images/441965491024719872/pAv-lzCZ.jpeg
p1105
sg77
VABC
p1106
sg79
I36855
sg80
VABC News
p1107
sg82
VDDEEF6
p1108
sg84
Vhttp://t.co/v7GWW7yYST
p1109
sg86
I28785486
sg87
V6E8EB5
p1110
sbsg89
I454
sg90
V<a href="https://about.twitter.com/products/tweetdeck" rel="nofollow">TweetDeck</a>
p1111
sg92
(lp1112
g3
(g94
g5
Ntp1113
Rp1114
(dp1115
g98
Vhttp://t.co/aINUpiD0vD
p1116
sg100
Vhttp://abcn.ws/1yQspuy
p1117
sbasg86
I542774764545142784
sbsg16
Nsg17
(lp1118
(dp1119
Vsource_user_id
p1120
I22650211
sVsource_status_id_str
p1121
V542668108025303041
p1122
sVexpanded_url
p1123
Vhttp://twitter.com/GMA/status/542668108025303041/photo/1
p1124
sVdisplay_url
p1125
Vpic.twitter.com/ujdMHOho9M
p1126
sVurl
p1127
Vhttp://t.co/ujdMHOho9M
p1128
sVmedia_url_https
p1129
Vhttps://pbs.twimg.com/media/B4fxvP9CUAEkQi3.jpg
p1130
sVsource_user_id_str
p1131
V22650211
p1132
sVsource_status_id
p1133
I542668108025303041
sVid_str
p1134
V542668074160115713
p1135
sVsizes
p1136
(dp1137
Vlarge
p1138
(dp1139
Vh
p1140
I397
sVresize
p1141
Vfit
p1142
sVw
p1143
I599
ssVsmall
p1144
(dp1145
Vh
p1146
I225
sVresize
p1147
Vfit
p1148
sVw
p1149
I340
ssVmedium
p1150
(dp1151
Vh
p1152
I397
sVresize
p1153
Vfit
p1154
sVw
p1155
I599
ssVthumb
p1156
(dp1157
Vh
p1158
I150
sVresize
p1159
Vcrop
p1160
sVw
p1161
I150
sssVindices
p1162
(lp1163
I86
aI108
asVtype
p1164
Vphoto
p1165
sVid
p1166
I542668074160115713
sVmedia_url
p1167
Vhttp://pbs.twimg.com/media/B4fxvP9CUAEkQi3.jpg
p1168
sasg19
Nsg20
Nsg21
Nsg22
VWed Dec 10 21:46:19 +0000 2014
p1169
sg24
Nsg25
I00
sg26
Nsg27
Nsg28
Nsg29
Nsg30
I00
sg31
Nsg32
(lp1170
g3
(g44
g5
Ntp1171
Rp1172
(dp1173
g10
Nsg49
Nsg51
Nsg53
Nsg55
Nsg56
Nsg22
Nsg58
Nsg59
Nsg61
Nsg63
Nsg64
Nsg65
Nsg66
Nsg67
Nsg68
Nsg69
Nsg70
Nsg71
Nsg73
Nsg74
Nsg75
Nsg77
VABC
p1174
sg79
Nsg80
VABC News
p1175
sg82
Nsg84
Nsg86
I28785486
sg87
Nsbasg34
Nsg35
V542797482967957504
p1176
sg37
Nsg38
VRT @ABC: "The Ebola Fighters" named TIME's Person of the Year: http://t.co/aINUpiD0vD http://t.co/ujdMHOho9M
p1177
sg40
I00
sg41
Ven
p1178
sg43
g3
(g44
g5
Ntp1179
Rp1180
(dp1181
g10
VWisconsin & Ohio
p1182
sg49
V333333
p1183
sg51
Ven
p1184
sg53
VCentral Time (US & Canada)
p1185
sg55
I6379
sg56
I464
sg22
VSun Nov 11 03:45:12 +0000 2012
p1186
sg58
I00
sg59
VSafe & Effective Products that NATURALLY balances blood sugar, cholesterol, BP. Complete line to help with WEIGHTLOSS & feel your best! ID # 197300
p1187
sg61
Vhttps://pbs.twimg.com/profile_images/2915937410/1cb0fb7a208cc9c4df58c22b02c68fbf_normal.jpeg
p1188
sg63
I143
sg64
I81
sg65
I-21600
sg66
Nsg67
I00
sg68
Nsg69
I00
sg70
I00
sg71
V0084B4
p1189
sg73
I00
sg74
I00
sg75
Vhttp://abs.twimg.com/images/themes/theme1/bg.png
p1190
sg77
VDebandCynthia
p1191
sg79
I1
sg80
VDeb & Cynthia
p1192
sg82
VDDEEF6
p1193
sg84
Vhttp://t.co/urwWiGPGCe
p1194
sg86
I940495663
sg87
VC0DEED
p1195
sbsg89
I454
sg90
V<a href="http://twitter.com/download/iphone" rel="nofollow">Twitter for iPhone</a>
p1196
sg92
(lp1197
g3
(g94
g5
Ntp1198
Rp1199
(dp1200
g98
Vhttp://t.co/aINUpiD0vD
p1201
sg100
Vhttp://abcn.ws/1yQspuy
p1202
sbasg86
I542797482967957504
sbag3
(g4
g5
Ntp1203
Rp1204
(dp1205
g9
I0
sg10
Nsg11
Nsg12
(lp1206
g3
(g340
g5
Ntp1207
Rp1208
(dp1209
g344
Vplexus
p1210
sbasg14
I00
sg15
Nsg16
Nsg17
(lp1211
sg19
Nsg20
Nsg21
Nsg22
VWed Dec 10 21:45:39 +0000 2014
p1212
sg24
Nsg25
Nsg26
Nsg27
Nsg28
Nsg29
Nsg30
I00
sg31
Nsg32
(lp1213
sg34
Nsg35
V542797316194050048
p1214
sg37
Nsg38
VYum ! I love my 96 ! Chocolate today :) #plexus
p1215
sg40
I00
sg41
Ven
p1216
sg43
g3
(g44
g5
Ntp1217
Rp1218
(dp1219
g10
VWisconsin & Ohio
p1220
sg49
V333333
p1221
sg51
Ven
p1222
sg53
VCentral Time (US & Canada)
p1223
sg55
I6379
sg56
I464
sg22
VSun Nov 11 03:45:12 +0000 2012
p1224
sg58
I00
sg59
VSafe & Effective Products that NATURALLY balances blood sugar, cholesterol, BP. Complete line to help with WEIGHTLOSS & feel your best! ID # 197300
p1225
sg61
Vhttps://pbs.twimg.com/profile_images/2915937410/1cb0fb7a208cc9c4df58c22b02c68fbf_normal.jpeg
p1226
sg63
I143
sg64
I81
sg65
I-21600
sg66
Nsg67
I00
sg68
Nsg69
I00
sg70
I00
sg71
V0084B4
p1227
sg73
I00
sg74
I00
sg75
Vhttp://abs.twimg.com/images/themes/theme1/bg.png
p1228
sg77
VDebandCynthia
p1229
sg79
I1
sg80
VDeb & Cynthia
p1230
sg82
VDDEEF6
p1231
sg84
Vhttp://t.co/urwWiGPGCe
p1232
sg86
I940495663
sg87
VC0DEED
p1233
sbsg89
I0
sg90
V<a href="http://twitter.com/download/iphone" rel="nofollow">Twitter for iPhone</a>
p1234
sg92
(lp1235
sg86
I542797316194050048
sbag3
(g4
g5
Ntp1236
Rp1237
(dp1238
g9
I0
sg10
Nsg11
Nsg12
(lp1239
sg14
I00
sg15
Nsg16
Nsg17
(lp1240
(dp1241
Vexpanded_url
p1242
Vhttp://twitter.com/DebandCynthia/status/542739045278048256/photo/1
p1243
sVdisplay_url
p1244
Vpic.twitter.com/8Ayb4naAPe
p1245
sVurl
p1246
Vhttp://t.co/8Ayb4naAPe
p1247
sVmedia_url_https
p1248
Vhttps://pbs.twimg.com/media/B4gyRycIYAES_Nk.jpg
p1249
sVid_str
p1250
V542739036277071873
p1251
sVsizes
p1252
(dp1253
Vsmall
p1254
(dp1255
Vh
p1256
I276
sVresize
p1257
Vfit
p1258
sVw
p1259
I340
ssVlarge
p1260
(dp1261
Vh
p1262
I780
sVresize
p1263
Vfit
p1264
sVw
p1265
I960
ssVmedium
p1266
(dp1267
Vh
p1268
I487
sVresize
p1269
Vfit
p1270
sVw
p1271
I600
ssVthumb
p1272
(dp1273
Vh
p1274
I150
sVresize
p1275
Vcrop
p1276
sVw
p1277
I150
sssVindices
p1278
(lp1279
I55
aI77
asVtype
p1280
Vphoto
p1281
sVid
p1282
I542739036277071873
sVmedia_url
p1283
Vhttp://pbs.twimg.com/media/B4gyRycIYAES_Nk.jpg
p1284
sasg19
Nsg20
Nsg21
Nsg22
VWed Dec 10 17:54:06 +0000 2014
p1285
sg24
Nsg25
I00
sg26
Nsg27
Nsg28
Nsg29
Nsg30
I00
sg31
Nsg32
(lp1286
sg34
Nsg35
V542739045278048256
p1287
sg37
Nsg38
VDo you know anyone who suffers from this ? We can help http://t.co/8Ayb4naAPe
p1288
sg40
I00
sg41
Ven
p1289
sg43
g3
(g44
g5
Ntp1290
Rp1291
(dp1292
g10
VWisconsin & Ohio
p1293
sg49
V333333
p1294
sg51
Ven
p1295
sg53
VCentral Time (US & Canada)
p1296
sg55
I6379
sg56
I464
sg22
VSun Nov 11 03:45:12 +0000 2012
p1297
sg58
I00
sg59
VSafe & Effective Products that NATURALLY balances blood sugar, cholesterol, BP. Complete line to help with WEIGHTLOSS & feel your best! ID # 197300
p1298
sg61
Vhttps://pbs.twimg.com/profile_images/2915937410/1cb0fb7a208cc9c4df58c22b02c68fbf_normal.jpeg
p1299
sg63
I143
sg64
I81
sg65
I-21600
sg66
Nsg67
I00
sg68
Nsg69
I00
sg70
I00
sg71
V0084B4
p1300
sg73
I00
sg74
I00
sg75
Vhttp://abs.twimg.com/images/themes/theme1/bg.png
p1301
sg77
VDebandCynthia
p1302
sg79
I1
sg80
VDeb & Cynthia
p1303
sg82
VDDEEF6
p1304
sg84
Vhttp://t.co/urwWiGPGCe
p1305
sg86
I940495663
sg87
VC0DEED
p1306
sbsg89
I0
sg90
V<a href="http://twitter.com/download/iphone" rel="nofollow">Twitter for iPhone</a>
p1307
sg92
(lp1308
sg86
I542739045278048256
sbag3
(g4
g5
Ntp1309
Rp1310
(dp1311
g9
I0
sg10
Nsg11
Nsg12
(lp1312
sg14
I00
sg15
Nsg16
Nsg17
(lp1313
(dp1314
Vexpanded_url
p1315
Vhttp://twitter.com/DebandCynthia/status/542715127167221760/photo/1
p1316
sVdisplay_url
p1317
Vpic.twitter.com/lUP31Ddg7A
p1318
sVurl
p1319
Vhttp://t.co/lUP31Ddg7A
p1320
sVmedia_url_https
p1321
Vhttps://pbs.twimg.com/media/B4gciF1IIAA-Sd5.jpg
p1322
sVid_str
p1323
V542715127104282624
p1324
sVsizes
p1325
(dp1326
Vlarge
p1327
(dp1328
Vh
p1329
I537
sVresize
p1330
Vfit
p1331
sVw
p1332
I1024
ssVsmall
p1333
(dp1334
Vh
p1335
I178
sVresize
p1336
Vfit
p1337
sVw
p1338
I340
ssVmedium
p1339
(dp1340
Vh
p1341
I315
sVresize
p1342
Vfit
p1343
sVw
p1344
I600
ssVthumb
p1345
(dp1346
Vh
p1347
I150
sVresize
p1348
Vcrop
p1349
sVw
p1350
I150
sssVindices
p1351
(lp1352
I84
aI106
asVtype
p1353
Vphoto
p1354
sVid
p1355
I542715127104282624
sVmedia_url
p1356
Vhttp://pbs.twimg.com/media/B4gciF1IIAA-Sd5.jpg
p1357
sasg19
Nsg20
Nsg21
Nsg22
VWed Dec 10 16:19:04 +0000 2014
p1358
sg24
Nsg25
I00
sg26
Nsg27
Nsg28
Nsg29
Nsg30
I00
sg31
Nsg32
(lp1359
sg34
Nsg35
V542715127167221760
p1360
sg37
Nsg38
VClick here to learn how to improve your financial situation! http://t.co/09S8n2OYI6 http://t.co/lUP31Ddg7A
p1361
sg40
I00
sg41
Ven
p1362
sg43
g3
(g44
g5
Ntp1363
Rp1364
(dp1365
g10
VWisconsin & Ohio
p1366
sg49
V333333
p1367
sg51
Ven
p1368
sg53
VCentral Time (US & Canada)
p1369
sg55
I6379
sg56
I464
sg22
VSun Nov 11 03:45:12 +0000 2012
p1370
sg58
I00
sg59
VSafe & Effective Products that NATURALLY balances blood sugar, cholesterol, BP. Complete line to help with WEIGHTLOSS & feel your best! ID # 197300
p1371
sg61
Vhttps://pbs.twimg.com/profile_images/2915937410/1cb0fb7a208cc9c4df58c22b02c68fbf_normal.jpeg
p1372
sg63
I143
sg64
I81
sg65
I-21600
sg66
Nsg67
I00
sg68
Nsg69
I00
sg70
I00
sg71
V0084B4
p1373
sg73
I00
sg74
I00
sg75
Vhttp://abs.twimg.com/images/themes/theme1/bg.png
p1374
sg77
VDebandCynthia
p1375
sg79
I1
sg80
VDeb & Cynthia
p1376
sg82
VDDEEF6
p1377
sg84
Vhttp://t.co/urwWiGPGCe
p1378
sg86
I940495663
sg87
VC0DEED
p1379
sbsg89
I0
sg90
V<a href="http://myplexusbuilder.com/" rel="nofollow">My Plexus Builder</a>
p1380
sg92
(lp1381
g3
(g94
g5
Ntp1382
Rp1383
(dp1384
g98
Vhttp://t.co/09S8n2OYI6
p1385
sg100
Vhttp://ltl.is/6sEhi
p1386
sbasg86
I542715127167221760
sbag3
(g4
g5
Ntp1387
Rp1388
(dp1389
g9
I0
sg10
Nsg11
Nsg12
(lp1390
sg14
I00
sg15
Nsg16
Nsg17
(lp1391
(dp1392
Vexpanded_url
p1393
Vhttp://twitter.com/DebandCynthia/status/542478832981520384/photo/1
p1394
sVdisplay_url
p1395
Vpic.twitter.com/tW7QPKdsuh
p1396
sVurl
p1397
Vhttp://t.co/tW7QPKdsuh
p1398
sVmedia_url_https
p1399
Vhttps://pbs.twimg.com/media/B4dFn9cIgAEwn4w.jpg
p1400
sVid_str
p1401
V542478832931209217
p1402
sVsizes
p1403
(dp1404
Vlarge
p1405
(dp1406
Vh
p1407
I537
sVresize
p1408
Vfit
p1409
sVw
p1410
I1024
ssVsmall
p1411
(dp1412
Vh
p1413
I178
sVresize
p1414
Vfit
p1415
sVw
p1416
I340
ssVmedium
p1417
(dp1418
Vh
p1419
I315
sVresize
p1420
Vfit
p1421
sVw
p1422
I600
ssVthumb
p1423
(dp1424
Vh
p1425
I150
sVresize
p1426
Vcrop
p1427
sVw
p1428
I150
sssVindices
p1429
(lp1430
I81
aI103
asVtype
p1431
Vphoto
p1432
sVid
p1433
I542478832931209217
sVmedia_url
p1434
Vhttp://pbs.twimg.com/media/B4dFn9cIgAEwn4w.jpg
p1435
sasg19
Nsg20
Nsg21
Nsg22
VWed Dec 10 00:40:07 +0000 2014
p1436
sg24
Nsg25
I00
sg26
Nsg27
Nsg28
Nsg29
Nsg30
I00
sg31
Nsg32
(lp1437
sg34
Nsg35
V542478832981520384
p1438
sg37
Nsg38
VClick here to learn more about how to become independent! http://t.co/09S8n2OYI6 http://t.co/tW7QPKdsuh
p1439
sg40
I00
sg41
Ven
p1440
sg43
g3
(g44
g5
Ntp1441
Rp1442
(dp1443
g10
VWisconsin & Ohio
p1444
sg49
V333333
p1445
sg51
Ven
p1446
sg53
VCentral Time (US & Canada)
p1447
sg55
I6379
sg56
I464
sg22
VSun Nov 11 03:45:12 +0000 2012
p1448
sg58
I00
sg59
VSafe & Effective Products that NATURALLY balances blood sugar, cholesterol, BP. Complete line to help with WEIGHTLOSS & feel your best! ID # 197300
p1449
sg61
Vhttps://pbs.twimg.com/profile_images/2915937410/1cb0fb7a208cc9c4df58c22b02c68fbf_normal.jpeg
p1450
sg63
I143
sg64
I81
sg65
I-21600
sg66
Nsg67
I00
sg68
Nsg69
I00
sg70
I00
sg71
V0084B4
p1451
sg73
I00
sg74
I00
sg75
Vhttp://abs.twimg.com/images/themes/theme1/bg.png
p1452
sg77
VDebandCynthia
p1453
sg79
I1
sg80
VDeb & Cynthia
p1454
sg82
VDDEEF6
p1455
sg84
Vhttp://t.co/urwWiGPGCe
p1456
sg86
I940495663
sg87
VC0DEED
p1457
sbsg89
I0
sg90
V<a href="http://myplexusbuilder.com/" rel="nofollow">My Plexus Builder</a>
p1458
sg92
(lp1459
g3
(g94
g5
Ntp1460
Rp1461
(dp1462
g98
Vhttp://t.co/09S8n2OYI6
p1463
sg100
Vhttp://ltl.is/6sEhi
p1464
sbasg86
I542478832981520384
sbag3
(g4
g5
Ntp1465
Rp1466
(dp1467
g9
I0
sg10
Nsg11
Nsg12
(lp1468
sg14
I00
sg15
Nsg16
Nsg17
(lp1469
(dp1470
Vexpanded_url
p1471
Vhttp://twitter.com/DebandCynthia/status/542407865122570240/photo/1
p1472
sVdisplay_url
p1473
Vpic.twitter.com/rPBhOuYj1N
p1474
sVurl
p1475
Vhttp://t.co/rPBhOuYj1N
p1476
sVmedia_url_https
p1477
Vhttps://pbs.twimg.com/media/B4cFFFZCQAASkbB.jpg
p1478
sVid_str
p1479
V542407865026101248
p1480
sVsizes
p1481
(dp1482
Vlarge
p1483
(dp1484
Vh
p1485
I537
sVresize
p1486
Vfit
p1487
sVw
p1488
I1024
ssVsmall
p1489
(dp1490
Vh
p1491
I178
sVresize
p1492
Vfit
p1493
sVw
p1494
I340
ssVmedium
p1495
(dp1496
Vh
p1497
I315
sVresize
p1498
Vfit
p1499
sVw
p1500
I600
ssVthumb
p1501
(dp1502
Vh
p1503
I150
sVresize
p1504
Vcrop
p1505
sVw
p1506
I150
sssVindices
p1507
(lp1508
I84
aI106
asVtype
p1509
Vphoto
p1510
sVid
p1511
I542407865026101248
sVmedia_url
p1512
Vhttp://pbs.twimg.com/media/B4cFFFZCQAASkbB.jpg
p1513
sasg19
Nsg20
Nsg21
Nsg22
VTue Dec 09 19:58:07 +0000 2014
p1514
sg24
Nsg25
I00
sg26
Nsg27
Nsg28
Nsg29
Nsg30
I00
sg31
Nsg32
(lp1515
sg34
Nsg35
V542407865122570240
p1516
sg37
Nsg38
VClick here to learn how to improve your financial situation! http://t.co/IQTNLrxjsU http://t.co/rPBhOuYj1N
p1517
sg40
I00
sg41
Ven
p1518
sg43
g3
(g44
g5
Ntp1519
Rp1520
(dp1521
g10
VWisconsin & Ohio
p1522
sg49
V333333
p1523
sg51
Ven
p1524
sg53
VCentral Time (US & Canada)
p1525
sg55
I6379
sg56
I464
sg22
VSun Nov 11 03:45:12 +0000 2012
p1526
sg58
I00
sg59
VSafe & Effective Products that NATURALLY balances blood sugar, cholesterol, BP. Complete line to help with WEIGHTLOSS & feel your best! ID # 197300
p1527
sg61
Vhttps://pbs.twimg.com/profile_images/2915937410/1cb0fb7a208cc9c4df58c22b02c68fbf_normal.jpeg
p1528
sg63
I143
sg64
I81
sg65
I-21600
sg66
Nsg67
I00
sg68
Nsg69
I00
sg70
I00
sg71
V0084B4
p1529
sg73
I00
sg74
I00
sg75
Vhttp://abs.twimg.com/images/themes/theme1/bg.png
p1530
sg77
VDebandCynthia
p1531
sg79
I1
sg80
VDeb & Cynthia
p1532
sg82
VDDEEF6
p1533
sg84
Vhttp://t.co/urwWiGPGCe
p1534
sg86
I940495663
sg87
VC0DEED
p1535
sbsg89
I0
sg90
V<a href="http://myplexusbuilder.com/" rel="nofollow">My Plexus Builder</a>
p1536
sg92
(lp1537
g3
(g94
g5
Ntp1538
Rp1539
(dp1540
g98
Vhttp://t.co/IQTNLrxjsU
p1541
sg100
Vhttp://ltl.is/6sEhi
p1542
sbasg86
I542407865122570240
sbag3
(g4
g5
Ntp1543
Rp1544
(dp1545
g9
I0
sg10
Nsg11
Nsg12
(lp1546
sg14
I00
sg15
Nsg16
Nsg17
(lp1547
sg19
Nsg20
Nsg21
Nsg22
VTue Dec 09 01:41:03 +0000 2014
p1548
sg24
Nsg25
I00
sg26
Nsg27
Nsg28
Nsg29
Nsg30
I00
sg31
Nsg32
(lp1549
sg34
Nsg35
V542131780749656064
p1550
sg37
Nsg38
VFor an amazing opportunity just waiting for you click the link. http://t.co/Zq6InWuH2m
p1551
sg40
I00
sg41
Ven
p1552
sg43
g3
(g44
g5
Ntp1553
Rp1554
(dp1555
g10
VWisconsin & Ohio
p1556
sg49
V333333
p1557
sg51
Ven
p1558
sg53
VCentral Time (US & Canada)
p1559
sg55
I6379
sg56
I464
sg22
VSun Nov 11 03:45:12 +0000 2012
p1560
sg58
I00
sg59
VSafe & Effective Products that NATURALLY balances blood sugar, cholesterol, BP. Complete line to help with WEIGHTLOSS & feel your best! ID # 197300
p1561
sg61
Vhttps://pbs.twimg.com/profile_images/2915937410/1cb0fb7a208cc9c4df58c22b02c68fbf_normal.jpeg
p1562
sg63
I143
sg64
I81
sg65
I-21600
sg66
Nsg67
I00
sg68
Nsg69
I00
sg70
I00
sg71
V0084B4
p1563
sg73
I00
sg74
I00
sg75
Vhttp://abs.twimg.com/images/themes/theme1/bg.png
p1564
sg77
VDebandCynthia
p1565
sg79
I1
sg80
VDeb & Cynthia
p1566
sg82
VDDEEF6
p1567
sg84
Vhttp://t.co/urwWiGPGCe
p1568
sg86
I940495663
sg87
VC0DEED
p1569
sbsg89
I0
sg90
V<a href="http://myplexusbuilder.com/" rel="nofollow">My Plexus Builder</a>
p1570
sg92
(lp1571
g3
(g94
g5
Ntp1572
Rp1573
(dp1574
g98
Vhttp://t.co/Zq6InWuH2m
p1575
sg100
Vhttp://ltl.is/3BkpZ
p1576
sbasg86
I542131780749656064
sbag3
(g4
g5
Ntp1577
Rp1578
(dp1579
g9
I0
sg10
Nsg11
Nsg12
(lp1580
sg14
I00
sg15
Nsg16
Nsg17
(lp1581
(dp1582
Vexpanded_url
p1583
Vhttp://twitter.com/DebandCynthia/status/541959902563172352/photo/1
p1584
sVdisplay_url
p1585
Vpic.twitter.com/tvZRBahIac
p1586
sVurl
p1587
Vhttp://t.co/tvZRBahIac
p1588
sVmedia_url_https
p1589
Vhttps://pbs.twimg.com/media/B4VtqO1IYAERWAr.jpg
p1590
sVid_str
p1591
V541959902470889473
p1592
sVsizes
p1593
(dp1594
Vlarge
p1595
(dp1596
Vh
p1597
I537
sVresize
p1598
Vfit
p1599
sVw
p1600
I1024
ssVsmall
p1601
(dp1602
Vh
p1603
I178
sVresize
p1604
Vfit
p1605
sVw
p1606
I340
ssVmedium
p1607
(dp1608
Vh
p1609
I315
sVresize
p1610
Vfit
p1611
sVw
p1612
I600
ssVthumb
p1613
(dp1614
Vh
p1615
I150
sVresize
p1616
Vcrop
p1617
sVw
p1618
I150
sssVindices
p1619
(lp1620
I47
aI69
asVtype
p1621
Vphoto
p1622
sVid
p1623
I541959902470889473
sVmedia_url
p1624
Vhttp://pbs.twimg.com/media/B4VtqO1IYAERWAr.jpg
p1625
sasg19
Nsg20
Nsg21
Nsg22
VMon Dec 08 14:18:04 +0000 2014
p1626
sg24
Nsg25
I00
sg26
Nsg27
Nsg28
Nsg29
Nsg30
I00
sg31
Nsg32
(lp1627
sg34
Nsg35
V541959902563172352
p1628
sg37
Nsg38
VChange your luck today! http://t.co/09S8n2OYI6 http://t.co/tvZRBahIac
p1629
sg40
I00
sg41
Ven
p1630
sg43
g3
(g44
g5
Ntp1631
Rp1632
(dp1633
g10
VWisconsin & Ohio
p1634
sg49
V333333
p1635
sg51
Ven
p1636
sg53
VCentral Time (US & Canada)
p1637
sg55
I6379
sg56
I464
sg22
VSun Nov 11 03:45:12 +0000 2012
p1638
sg58
I00
sg59
VSafe & Effective Products that NATURALLY balances blood sugar, cholesterol, BP. Complete line to help with WEIGHTLOSS & feel your best! ID # 197300
p1639
sg61
Vhttps://pbs.twimg.com/profile_images/2915937410/1cb0fb7a208cc9c4df58c22b02c68fbf_normal.jpeg
p1640
sg63
I143
sg64
I81
sg65
I-21600
sg66
Nsg67
I00
sg68
Nsg69
I00
sg70
I00
sg71
V0084B4
p1641
sg73
I00
sg74
I00
sg75
Vhttp://abs.twimg.com/images/themes/theme1/bg.png
p1642
sg77
VDebandCynthia
p1643
sg79
I1
sg80
VDeb & Cynthia
p1644
sg82
VDDEEF6
p1645
sg84
Vhttp://t.co/urwWiGPGCe
p1646
sg86
I940495663
sg87
VC0DEED
p1647
sbsg89
I0
sg90
V<a href="http://myplexusbuilder.com/" rel="nofollow">My Plexus Builder</a>
p1648
sg92
(lp1649
g3
(g94
g5
Ntp1650
Rp1651
(dp1652
g98
Vhttp://t.co/09S8n2OYI6
p1653
sg100
Vhttp://ltl.is/6sEhi
p1654
sbasg86
I541959902563172352
sbag3
(g4
g5
Ntp1655
Rp1656
(dp1657
g9
I0
sg10
Nsg11
Nsg12
(lp1658
sg14
I00
sg15
Nsg16
Nsg17
(lp1659
(dp1660
Vexpanded_url
p1661
Vhttp://twitter.com/DebandCynthia/status/541763105660100609/photo/1
p1662
sVdisplay_url
p1663
Vpic.twitter.com/ovZ5zyzyGt
p1664
sVurl
p1665
Vhttp://t.co/ovZ5zyzyGt
p1666
sVmedia_url_https
p1667
Vhttps://pbs.twimg.com/media/B4S6rJAIMAAmwnv.jpg
p1668
sVid_str
p1669
V541763105504899072
p1670
sVsizes
p1671
(dp1672
Vlarge
p1673
(dp1674
Vh
p1675
I537
sVresize
p1676
Vfit
p1677
sVw
p1678
I1024
ssVsmall
p1679
(dp1680
Vh
p1681
I178
sVresize
p1682
Vfit
p1683
sVw
p1684
I340
ssVmedium
p1685
(dp1686
Vh
p1687
I315
sVresize
p1688
Vfit
p1689
sVw
p1690
I600
ssVthumb
p1691
(dp1692
Vh
p1693
I150
sVresize
p1694
Vcrop
p1695
sVw
p1696
I150
sssVindices
p1697
(lp1698
I40
aI62
asVtype
p1699
Vphoto
p1700
sVid
p1701
I541763105504899072
sVmedia_url
p1702
Vhttp://pbs.twimg.com/media/B4S6rJAIMAAmwnv.jpg
p1703
sasg19
Nsg20
Nsg21
Nsg22
VMon Dec 08 01:16:04 +0000 2014
p1704
sg24
Nsg25
I00
sg26
Nsg27
Nsg28
Nsg29
Nsg30
I00
sg31
Nsg32
(lp1705
sg34
Nsg35
V541763105660100609
p1706
sg37
Nsg38
VThis is so true! http://t.co/09S8n2OYI6 http://t.co/ovZ5zyzyGt
p1707
sg40
I00
sg41
Ven
p1708
sg43
g3
(g44
g5
Ntp1709
Rp1710
(dp1711
g10
VWisconsin & Ohio
p1712
sg49
V333333
p1713
sg51
Ven
p1714
sg53
VCentral Time (US & Canada)
p1715
sg55
I6379
sg56
I464
sg22
VSun Nov 11 03:45:12 +0000 2012
p1716
sg58
I00
sg59
VSafe & Effective Products that NATURALLY balances blood sugar, cholesterol, BP. Complete line to help with WEIGHTLOSS & feel your best! ID # 197300
p1717
sg61
Vhttps://pbs.twimg.com/profile_images/2915937410/1cb0fb7a208cc9c4df58c22b02c68fbf_normal.jpeg
p1718
sg63
I143
sg64
I81
sg65
I-21600
sg66
Nsg67
I00
sg68
Nsg69
I00
sg70
I00
sg71
V0084B4
p1719
sg73
I00
sg74
I00
sg75
Vhttp://abs.twimg.com/images/themes/theme1/bg.png
p1720
sg77
VDebandCynthia
p1721
sg79
I1
sg80
VDeb & Cynthia
p1722
sg82
VDDEEF6
p1723
sg84
Vhttp://t.co/urwWiGPGCe
p1724
sg86
I940495663
sg87
VC0DEED
p1725
sbsg89
I0
sg90
V<a href="http://myplexusbuilder.com/" rel="nofollow">My Plexus Builder</a>
p1726
sg92
(lp1727
g3
(g94
g5
Ntp1728
Rp1729
(dp1730
g98
Vhttp://t.co/09S8n2OYI6
p1731
sg100
Vhttp://ltl.is/6sEhi
p1732
sbasg86
I541763105660100609
sbaa.