(lp0
S'siona_same'
p1
a(lp2
ccopy_reg
_reconstructor
p3
(ctwitter.status
Status
p4
c__builtin__
object
p5
Ntp6
Rp7
(dp8
S'_favorite_count'
p9
I0
sS'_location'
p10
NsS'_withheld_scope'
p11
NsS'hashtags'
p12
(lp13
sS'_truncated'
p14
I00
sS'_retweeted_status'
p15
g3
(g4
g5
Ntp16
Rp17
(dp18
g9
I94
sg10
Nsg11
Nsg12
(lp19
sg14
I00
sg15
NsS'_withheld_copyright'
p20
NsS'media'
p21
(lp22
(dp23
Vexpanded_url
p24
Vhttp://twitter.com/xfeelgoodxx/status/540610661362196480/photo/1
p25
sVdisplay_url
p26
Vpic.twitter.com/32869D9zRN
p27
sVurl
p28
Vhttp://t.co/32869D9zRN
p29
sVmedia_url_https
p30
Vhttps://pbs.twimg.com/media/B4CiiBuIYAAJ8h4.jpg
p31
sVid_str
p32
V540610660745633792
p33
sVsizes
p34
(dp35
Vlarge
p36
(dp37
Vh
p38
I295
sVresize
p39
Vfit
p40
sVw
p41
I590
ssVsmall
p42
(dp43
Vh
p44
I170
sVresize
p45
Vfit
p46
sVw
p47
I340
ssVmedium
p48
(dp49
Vh
p50
I295
sVresize
p51
Vfit
p52
sVw
p53
I590
ssVthumb
p54
(dp55
Vh
p56
I150
sVresize
p57
Vcrop
p58
sVw
p59
I150
sssVindices
p60
(lp61
I71
aI93
asVtype
p62
Vphoto
p63
sVid
p64
I540610660745633792
sVmedia_url
p65
Vhttp://pbs.twimg.com/media/B4CiiBuIYAAJ8h4.jpg
p66
sasS'_place'
p67
NsS'_contributors'
p68
NsS'_current_user_retweet'
p69
NsS'_created_at'
p70
VThu Dec 04 20:56:40 +0000 2014
p71
sS'_scopes'
p72
NsS'_possibly_sensitive'
p73
I00
sS'_in_reply_to_screen_name'
p74
NsS'_coordinates'
p75
NsS'_in_reply_to_user_id'
p76
NsS'_geo'
p77
NsS'_favorited'
p78
I00
sS'_withheld_in_countries'
p79
NsS'user_mentions'
p80
(lp81
sS'_now'
p82
NsS'_id_str'
p83
NsS'_in_reply_to_status_id'
p84
NsS'_text'
p85
VGet beautiful hair like this in just two weeks.\u000ahttp://t.co/y1jqrDXQMJ http://t.co/32869D9zRN
p86
sS'_retweeted'
p87
I00
sS'lang'
p88
Ven
p89
sS'_user'
p90
g3
(ctwitter.user
User
p91
g5
Ntp92
Rp93
(dp94
g10
V
p95
sS'_profile_text_color'
p96
V333333
p97
sS'_lang'
p98
Ven
p99
sS'_time_zone'
p100
VEastern Time (US & Canada)
p101
sS'_followers_count'
p102
I29385
sS'_statuses_count'
p103
I522
sg70
VWed Mar 20 21:26:25 +0000 2013
p104
sS'_verified'
p105
I00
sS'_description'
p106
VI'm here to make your day brighter. I post #funny and #true tweets that you will #love. Follow to Feel Good! For business kik: xfeelgood
p107
sS'_profile_image_url'
p108
Vhttps://pbs.twimg.com/profile_images/424347988484296704/Wz9K6BYo_normal.jpeg
p109
sS'_friends_count'
p110
I22129
sS'_favourites_count'
p111
I13
sS'_utc_offset'
p112
I-18000
sS'_status'
p113
NsS'_protected'
p114
I00
sS'_profile_banner_url'
p115
Vhttps://pbs.twimg.com/profile_banners/1284319952/1390006823
p116
sS'_notifications'
p117
I00
sS'_profile_background_tile'
p118
I00
sS'_profile_link_color'
p119
V0084B4
p120
sS'_geo_enabled'
p121
I00
sS'_contributors_enabled'
p122
I00
sS'_profile_background_image_url'
p123
Vhttp://abs.twimg.com/images/themes/theme15/bg.png
p124
sS'_screen_name'
p125
Vxfeelgoodxx
p126
sS'_listed_count'
p127
I53
sS'_name'
p128
VFeel Good Posts
p129
sS'_profile_sidebar_fill_color'
p130
VC0DFEC
p131
sS'_url'
p132
NsS'_id'
p133
I1284319952
sS'_profile_background_color'
p134
V022330
p135
sbsS'_retweet_count'
p136
I113
sS'_source'
p137
V<a href="http://twitter.com/download/iphone" rel="nofollow">Twitter for iPhone</a>
p138
sS'urls'
p139
(lp140
g3
(ctwitter.url
Url
p141
g5
Ntp142
Rp143
(dp144
S'url'
p145
Vhttp://t.co/y1jqrDXQMJ
p146
sS'expanded_url'
p147
Vhttp://bit.ly/1yX3NzW
p148
sbasg133
I540610661362196480
sbsg20
Nsg21
(lp149
(dp150
Vsource_user_id
p151
I1284319952
sVsource_status_id_str
p152
V540610661362196480
p153
sVexpanded_url
p154
Vhttp://twitter.com/xfeelgoodxx/status/540610661362196480/photo/1
p155
sVdisplay_url
p156
Vpic.twitter.com/32869D9zRN
p157
sVurl
p158
Vhttp://t.co/32869D9zRN
p159
sVmedia_url_https
p160
Vhttps://pbs.twimg.com/media/B4CiiBuIYAAJ8h4.jpg
p161
sVsource_user_id_str
p162
V1284319952
p163
sVsource_status_id
p164
I540610661362196480
sVid_str
p165
V540610660745633792
p166
sVsizes
p167
(dp168
Vlarge
p169
(dp170
Vh
p171
I295
sVresize
p172
Vfit
p173
sVw
p174
I590
ssVsmall
p175
(dp176
Vh
p177
I170
sVresize
p178
Vfit
p179
sVw
p180
I340
ssVmedium
p181
(dp182
Vh
p183
I295
sVresize
p184
Vfit
p185
sVw
p186
I590
ssVthumb
p187
(dp188
Vh
p189
I150
sVresize
p190
Vcrop
p191
sVw
p192
I150
sssVindices
p193
(lp194
I88
aI110
asVtype
p195
Vphoto
p196
sVid
p197
I540610660745633792
sVmedia_url
p198
Vhttp://pbs.twimg.com/media/B4CiiBuIYAAJ8h4.jpg
p199
sasg67
Nsg68
Nsg69
Nsg70
VSun Dec 14 18:04:39 +0000 2014
p200
sg72
Nsg73
I00
sg74
Nsg75
Nsg76
Nsg77
Nsg78
I00
sg79
Nsg80
(lp201
g3
(g91
g5
Ntp202
Rp203
(dp204
g10
Nsg96
Nsg98
Nsg100
Nsg102
Nsg103
Nsg70
Nsg105
Nsg106
Nsg108
Nsg110
Nsg111
Nsg112
Nsg113
Nsg114
Nsg115
Nsg117
Nsg118
Nsg119
Nsg121
Nsg122
Nsg123
Nsg125
Vxfeelgoodxx
p205
sg127
Nsg128
VFeel Good Posts
p206
sg130
Nsg132
Nsg133
I1284319952
sg134
Nsbasg82
Nsg83
Nsg84
Nsg85
VRT @xfeelgoodxx: Get beautiful hair like this in just two weeks.\u000ahttp://t.co/y1jqrDXQMJ http://t.co/32869D9zRN
p207
sg87
I00
sg88
Ven
p208
sg90
g3
(g91
g5
Ntp209
Rp210
(dp211
g10
VUNITED STATES 
p212
sg96
V333333
p213
sg98
Ven-gb
p214
sg100
VNew Delhi
p215
sg102
I59165
sg103
I645
sg70
VWed Sep 03 06:04:21 +0000 2014
p216
sg105
I00
sg106
VWe share some amazing,shocking and unbelievable hidden secrets that U wont get anywhere else. Come join us to enhance ur knowledge about some serious things);
p217
sg108
Vhttps://pbs.twimg.com/profile_images/543461514112294913/EUDfqNDS_normal.jpeg
p218
sg110
I52107
sg111
I3
sg112
I19800
sg113
Nsg114
I00
sg115
Vhttps://pbs.twimg.com/profile_banners/2760125603/1418406209
p219
sg117
I00
sg118
I00
sg119
V0084B4
p220
sg121
I00
sg122
I00
sg123
Vhttp://abs.twimg.com/images/themes/theme1/bg.png
p221
sg125
Vsiona_same
p222
sg127
I102
sg128
VDid you Know?
p223
sg130
VDDEEF6
p224
sg132
Nsg133
I2760125603
sg134
VC0DEED
p225
sbsg136
I113
sg137
V<a href="http://twitter.com/download/android" rel="nofollow">Twitter for Android</a>
p226
sg139
(lp227
g3
(g141
g5
Ntp228
Rp229
(dp230
g145
Vhttp://t.co/y1jqrDXQMJ
p231
sg147
Vhttp://bit.ly/1yX3NzW
p232
sbasg133
I544191251835150336
sbag3
(g4
g5
Ntp233
Rp234
(dp235
g9
I0
sg10
Nsg11
Nsg12
(lp236
sg14
I00
sg15
g3
(g4
g5
Ntp237
Rp238
(dp239
g9
I15
sg10
Nsg11
Nsg12
(lp240
sg14
I00
sg15
Nsg20
Nsg21
(lp241
sg67
Nsg68
Nsg69
Nsg70
VWed Dec 10 14:09:25 +0000 2014
p242
sg72
Nsg73
I00
sg74
Nsg75
Nsg76
Nsg77
Nsg78
I00
sg79
Nsg80
(lp243
sg82
Nsg83
Nsg84
Nsg85
VCheck out the Taco Bell secret menu! \u000a(I like the guacamole Tacos)\u000ahttp://t.co/P4sbkE1Ljc
p244
sg87
I00
sg88
Ven
p245
sg90
g3
(g91
g5
Ntp246
Rp247
(dp248
g10
g95
sg96
V333333
p249
sg98
Ven
p250
sg100
VEastern Time (US & Canada)
p251
sg102
I29385
sg103
I522
sg70
VWed Mar 20 21:26:25 +0000 2013
p252
sg105
I00
sg106
VI'm here to make your day brighter. I post #funny and #true tweets that you will #love. Follow to Feel Good! For business kik: xfeelgood
p253
sg108
Vhttps://pbs.twimg.com/profile_images/424347988484296704/Wz9K6BYo_normal.jpeg
p254
sg110
I22129
sg111
I13
sg112
I-18000
sg113
Nsg114
I00
sg115
Vhttps://pbs.twimg.com/profile_banners/1284319952/1390006823
p255
sg117
I00
sg118
I00
sg119
V0084B4
p256
sg121
I00
sg122
I00
sg123
Vhttp://abs.twimg.com/images/themes/theme15/bg.png
p257
sg125
Vxfeelgoodxx
p258
sg127
I53
sg128
VFeel Good Posts
p259
sg130
VC0DFEC
p260
sg132
Nsg133
I1284319952
sg134
V022330
p261
sbsg136
I70
sg137
V<a href="http://twitter.com/download/iphone" rel="nofollow">Twitter for iPhone</a>
p262
sg139
(lp263
g3
(g141
g5
Ntp264
Rp265
(dp266
g145
Vhttp://t.co/P4sbkE1Ljc
p267
sg147
Vhttp://bit.ly/1Gd0l6E
p268
sbasg133
I542682502511738880
sbsg20
Nsg21
(lp269
sg67
Nsg68
Nsg69
Nsg70
VSun Dec 14 18:04:39 +0000 2014
p270
sg72
Nsg73
I00
sg74
Nsg75
Nsg76
Nsg77
Nsg78
I00
sg79
Nsg80
(lp271
g3
(g91
g5
Ntp272
Rp273
(dp274
g10
Nsg96
Nsg98
Nsg100
Nsg102
Nsg103
Nsg70
Nsg105
Nsg106
Nsg108
Nsg110
Nsg111
Nsg112
Nsg113
Nsg114
Nsg115
Nsg117
Nsg118
Nsg119
Nsg121
Nsg122
Nsg123
Nsg125
Vxfeelgoodxx
p275
sg127
Nsg128
VFeel Good Posts
p276
sg130
Nsg132
Nsg133
I1284319952
sg134
Nsbasg82
Nsg83
Nsg84
Nsg85
VRT @xfeelgoodxx: Check out the Taco Bell secret menu! \u000a(I like the guacamole Tacos)\u000ahttp://t.co/P4sbkE1Ljc
p277
sg87
I00
sg88
Ven
p278
sg90
g3
(g91
g5
Ntp279
Rp280
(dp281
g10
VUNITED STATES 
p282
sg96
V333333
p283
sg98
Ven-gb
p284
sg100
VNew Delhi
p285
sg102
I59165
sg103
I645
sg70
VWed Sep 03 06:04:21 +0000 2014
p286
sg105
I00
sg106
VWe share some amazing,shocking and unbelievable hidden secrets that U wont get anywhere else. Come join us to enhance ur knowledge about some serious things);
p287
sg108
Vhttps://pbs.twimg.com/profile_images/543461514112294913/EUDfqNDS_normal.jpeg
p288
sg110
I52107
sg111
I3
sg112
I19800
sg113
Nsg114
I00
sg115
Vhttps://pbs.twimg.com/profile_banners/2760125603/1418406209
p289
sg117
I00
sg118
I00
sg119
V0084B4
p290
sg121
I00
sg122
I00
sg123
Vhttp://abs.twimg.com/images/themes/theme1/bg.png
p291
sg125
Vsiona_same
p292
sg127
I102
sg128
VDid you Know?
p293
sg130
VDDEEF6
p294
sg132
Nsg133
I2760125603
sg134
VC0DEED
p295
sbsg136
I70
sg137
V<a href="http://twitter.com/download/android" rel="nofollow">Twitter for Android</a>
p296
sg139
(lp297
g3
(g141
g5
Ntp298
Rp299
(dp300
g145
Vhttp://t.co/P4sbkE1Ljc
p301
sg147
Vhttp://bit.ly/1Gd0l6E
p302
sbasg133
I544191249633144832
sbag3
(g4
g5
Ntp303
Rp304
(dp305
g9
I0
sg10
Nsg11
Nsg12
(lp306
sg14
I00
sg15
g3
(g4
g5
Ntp307
Rp308
(dp309
g9
I30
sg10
Nsg11
Nsg12
(lp310
sg14
I00
sg15
Nsg20
Nsg21
(lp311
sg67
Nsg68
Nsg69
Nsg70
VWed Dec 10 14:10:13 +0000 2014
p312
sg72
Nsg73
I00
sg74
Nsg75
Nsg76
Nsg77
Nsg78
I00
sg79
Nsg80
(lp313
sg82
Nsg83
Nsg84
Nsg85
VLol Justin Beiber was arrested again!\u000ahttp://t.co/x0BXxyRBz3
p314
sg87
I00
sg88
Ven
p315
sg90
g3
(g91
g5
Ntp316
Rp317
(dp318
g10
g95
sg96
V333333
p319
sg98
Ven
p320
sg100
VEastern Time (US & Canada)
p321
sg102
I29385
sg103
I522
sg70
VWed Mar 20 21:26:25 +0000 2013
p322
sg105
I00
sg106
VI'm here to make your day brighter. I post #funny and #true tweets that you will #love. Follow to Feel Good! For business kik: xfeelgood
p323
sg108
Vhttps://pbs.twimg.com/profile_images/424347988484296704/Wz9K6BYo_normal.jpeg
p324
sg110
I22129
sg111
I13
sg112
I-18000
sg113
Nsg114
I00
sg115
Vhttps://pbs.twimg.com/profile_banners/1284319952/1390006823
p325
sg117
I00
sg118
I00
sg119
V0084B4
p326
sg121
I00
sg122
I00
sg123
Vhttp://abs.twimg.com/images/themes/theme15/bg.png
p327
sg125
Vxfeelgoodxx
p328
sg127
I53
sg128
VFeel Good Posts
p329
sg130
VC0DFEC
p330
sg132
Nsg133
I1284319952
sg134
V022330
p331
sbsg136
I85
sg137
V<a href="http://twitter.com/download/iphone" rel="nofollow">Twitter for iPhone</a>
p332
sg139
(lp333
g3
(g141
g5
Ntp334
Rp335
(dp336
g145
Vhttp://t.co/x0BXxyRBz3
p337
sg147
Vhttp://bit.ly/1Gd0zdO
p338
sbasg133
I542682702387093504
sbsg20
Nsg21
(lp339
sg67
Nsg68
Nsg69
Nsg70
VSun Dec 14 18:04:37 +0000 2014
p340
sg72
Nsg73
I00
sg74
Nsg75
Nsg76
Nsg77
Nsg78
I00
sg79
Nsg80
(lp341
g3
(g91
g5
Ntp342
Rp343
(dp344
g10
Nsg96
Nsg98
Nsg100
Nsg102
Nsg103
Nsg70
Nsg105
Nsg106
Nsg108
Nsg110
Nsg111
Nsg112
Nsg113
Nsg114
Nsg115
Nsg117
Nsg118
Nsg119
Nsg121
Nsg122
Nsg123
Nsg125
Vxfeelgoodxx
p345
sg127
Nsg128
VFeel Good Posts
p346
sg130
Nsg132
Nsg133
I1284319952
sg134
Nsbasg82
Nsg83
Nsg84
Nsg85
VRT @xfeelgoodxx: Lol Justin Beiber was arrested again!\u000ahttp://t.co/x0BXxyRBz3
p347
sg87
I00
sg88
Ven
p348
sg90
g3
(g91
g5
Ntp349
Rp350
(dp351
g10
VUNITED STATES 
p352
sg96
V333333
p353
sg98
Ven-gb
p354
sg100
VNew Delhi
p355
sg102
I59165
sg103
I645
sg70
VWed Sep 03 06:04:21 +0000 2014
p356
sg105
I00
sg106
VWe share some amazing,shocking and unbelievable hidden secrets that U wont get anywhere else. Come join us to enhance ur knowledge about some serious things);
p357
sg108
Vhttps://pbs.twimg.com/profile_images/543461514112294913/EUDfqNDS_normal.jpeg
p358
sg110
I52107
sg111
I3
sg112
I19800
sg113
Nsg114
I00
sg115
Vhttps://pbs.twimg.com/profile_banners/2760125603/1418406209
p359
sg117
I00
sg118
I00
sg119
V0084B4
p360
sg121
I00
sg122
I00
sg123
Vhttp://abs.twimg.com/images/themes/theme1/bg.png
p361
sg125
Vsiona_same
p362
sg127
I102
sg128
VDid you Know?
p363
sg130
VDDEEF6
p364
sg132
Nsg133
I2760125603
sg134
VC0DEED
p365
sbsg136
I85
sg137
V<a href="http://twitter.com/download/android" rel="nofollow">Twitter for Android</a>
p366
sg139
(lp367
g3
(g141
g5
Ntp368
Rp369
(dp370
g145
Vhttp://t.co/x0BXxyRBz3
p371
sg147
Vhttp://bit.ly/1Gd0zdO
p372
sbasg133
I544191241835933696
sbag3
(g4
g5
Ntp373
Rp374
(dp375
g9
I0
sg10
Nsg11
Nsg12
(lp376
sg14
I00
sg15
g3
(g4
g5
Ntp377
Rp378
(dp379
g9
I3
sg10
Nsg11
Nsg12
(lp380
sg14
I00
sg15
Nsg20
Nsg21
(lp381
(dp382
Vexpanded_url
p383
Vhttp://twitter.com/wisewordbook/status/544188261816492033/photo/1
p384
sVdisplay_url
p385
Vpic.twitter.com/2W1dNyll3W
p386
sVurl
p387
Vhttp://t.co/2W1dNyll3W
p388
sVmedia_url_https
p389
Vhttps://pbs.twimg.com/media/B41YVXuCAAABjhy.jpg
p390
sVid_str
p391
V544188254149279744
p392
sVsizes
p393
(dp394
Vsmall
p395
(dp396
Vh
p397
I194
sVresize
p398
Vfit
p399
sVw
p400
I340
ssVlarge
p401
(dp402
Vh
p403
I343
sVresize
p404
Vfit
p405
sVw
p406
I600
ssVmedium
p407
(dp408
Vh
p409
I343
sVresize
p410
Vfit
p411
sVw
p412
I600
ssVthumb
p413
(dp414
Vh
p415
I150
sVresize
p416
Vcrop
p417
sVw
p418
I150
sssVindices
p419
(lp420
I97
aI119
asVtype
p421
Vphoto
p422
sVid
p423
I544188254149279744
sVmedia_url
p424
Vhttp://pbs.twimg.com/media/B41YVXuCAAABjhy.jpg
p425
sasg67
Nsg68
Nsg69
Nsg70
VSun Dec 14 17:52:46 +0000 2014
p426
sg72
Nsg73
I00
sg74
Nsg75
Nsg76
Nsg77
Nsg78
I00
sg79
Nsg80
(lp427
sg82
Nsg83
Nsg84
Nsg85
VInteresting P0rn Facts You Probably Didn't Know!!\u000a\u000aSee More Here &gt;&gt; http://t.co/ykRLzOpJAK http://t.co/2W1dNyll3W
p428
sg87
I00
sg88
Ven
p429
sg90
g3
(g91
g5
Ntp430
Rp431
(dp432
g10
g95
sg96
V3D1957
p433
sg98
Ven
p434
sg100
VNew Delhi
p435
sg102
I13223
sg103
I23
sg70
VSun Nov 09 15:31:43 +0000 2014
p436
sg105
I00
sg106
g95
sg108
Vhttps://pbs.twimg.com/profile_images/531473401974501376/Jgx9XU8r_normal.jpeg
p437
sg110
I11608
sg111
I3
sg112
I19800
sg113
Nsg114
I00
sg115
Vhttps://pbs.twimg.com/profile_banners/2869097837/1415547966
p438
sg117
I00
sg118
I01
sg119
VFF0000
p439
sg121
I00
sg122
I00
sg123
Vhttp://abs.twimg.com/images/themes/theme10/bg.gif
p440
sg125
Vwisewordbook
p441
sg127
I24
sg128
Vlove factss
p442
sg130
V7AC3EE
p443
sg132
Nsg133
I2869097837
sg134
V642D8B
p444
sbsg136
I1
sg137
V<a href="http://twitter.com/download/android" rel="nofollow">Twitter for Android</a>
p445
sg139
(lp446
g3
(g141
g5
Ntp447
Rp448
(dp449
g145
Vhttp://t.co/ykRLzOpJAK
p450
sg147
Vhttp://bit.ly/1vOINWt
p451
sbasg133
I544188261816492033
sbsg20
Nsg21
(lp452
(dp453
Vsource_user_id
p454
I2869097837
sVsource_status_id_str
p455
V544188261816492033
p456
sVexpanded_url
p457
Vhttp://twitter.com/wisewordbook/status/544188261816492033/photo/1
p458
sVdisplay_url
p459
Vpic.twitter.com/2W1dNyll3W
p460
sVurl
p461
Vhttp://t.co/2W1dNyll3W
p462
sVmedia_url_https
p463
Vhttps://pbs.twimg.com/media/B41YVXuCAAABjhy.jpg
p464
sVsource_user_id_str
p465
V2869097837
p466
sVsource_status_id
p467
I544188261816492033
sVid_str
p468
V544188254149279744
p469
sVsizes
p470
(dp471
Vsmall
p472
(dp473
Vh
p474
I194
sVresize
p475
Vfit
p476
sVw
p477
I340
ssVlarge
p478
(dp479
Vh
p480
I343
sVresize
p481
Vfit
p482
sVw
p483
I600
ssVmedium
p484
(dp485
Vh
p486
I343
sVresize
p487
Vfit
p488
sVw
p489
I600
ssVthumb
p490
(dp491
Vh
p492
I150
sVresize
p493
Vcrop
p494
sVw
p495
I150
sssVindices
p496
(lp497
I115
aI137
asVtype
p498
Vphoto
p499
sVid
p500
I544188254149279744
sVmedia_url
p501
Vhttp://pbs.twimg.com/media/B41YVXuCAAABjhy.jpg
p502
sasg67
Nsg68
Nsg69
Nsg70
VSun Dec 14 17:59:08 +0000 2014
p503
sg72
Nsg73
I00
sg74
Nsg75
Nsg76
Nsg77
Nsg78
I00
sg79
Nsg80
(lp504
g3
(g91
g5
Ntp505
Rp506
(dp507
g10
Nsg96
Nsg98
Nsg100
Nsg102
Nsg103
Nsg70
Nsg105
Nsg106
Nsg108
Nsg110
Nsg111
Nsg112
Nsg113
Nsg114
Nsg115
Nsg117
Nsg118
Nsg119
Nsg121
Nsg122
Nsg123
Nsg125
Vwisewordbook
p508
sg127
Nsg128
Vlove factss
p509
sg130
Nsg132
Nsg133
I2869097837
sg134
Nsbasg82
Nsg83
Nsg84
Nsg85
VRT @wisewordbook: Interesting P0rn Facts You Probably Didn't Know!!\u000a\u000aSee More Here &gt;&gt; http://t.co/ykRLzOpJAK http://t.co/2W1dNyll3W
p510
sg87
I00
sg88
Ven
p511
sg90
g3
(g91
g5
Ntp512
Rp513
(dp514
g10
VUNITED STATES 
p515
sg96
V333333
p516
sg98
Ven-gb
p517
sg100
VNew Delhi
p518
sg102
I59165
sg103
I645
sg70
VWed Sep 03 06:04:21 +0000 2014
p519
sg105
I00
sg106
VWe share some amazing,shocking and unbelievable hidden secrets that U wont get anywhere else. Come join us to enhance ur knowledge about some serious things);
p520
sg108
Vhttps://pbs.twimg.com/profile_images/543461514112294913/EUDfqNDS_normal.jpeg
p521
sg110
I52107
sg111
I3
sg112
I19800
sg113
Nsg114
I00
sg115
Vhttps://pbs.twimg.com/profile_banners/2760125603/1418406209
p522
sg117
I00
sg118
I00
sg119
V0084B4
p523
sg121
I00
sg122
I00
sg123
Vhttp://abs.twimg.com/images/themes/theme1/bg.png
p524
sg125
Vsiona_same
p525
sg127
I102
sg128
VDid you Know?
p526
sg130
VDDEEF6
p527
sg132
Nsg133
I2760125603
sg134
VC0DEED
p528
sbsg136
I1
sg137
V<a href="http://twitter.com/download/android" rel="nofollow">Twitter for Android</a>
p529
sg139
(lp530
g3
(g141
g5
Ntp531
Rp532
(dp533
g145
Vhttp://t.co/ykRLzOpJAK
p534
sg147
Vhttp://bit.ly/1vOINWt
p535
sbasg133
I544189862530666497
sbag3
(g4
g5
Ntp536
Rp537
(dp538
g9
I0
sg10
Nsg11
Nsg12
(lp539
sg14
I00
sg15
g3
(g4
g5
Ntp540
Rp541
(dp542
g9
I3
sg10
Nsg11
Nsg12
(lp543
sg14
I00
sg15
Nsg20
Nsg21
(lp544
(dp545
Vexpanded_url
p546
Vhttp://twitter.com/wisewordbook/status/544187947012980736/photo/1
p547
sVdisplay_url
p548
Vpic.twitter.com/cV9rn3Jria
p549
sVurl
p550
Vhttp://t.co/cV9rn3Jria
p551
sVmedia_url_https
p552
Vhttps://pbs.twimg.com/media/B41X-ncCYAIAmJU.jpg
p553
sVid_str
p554
V544187863231782914
p555
sVsizes
p556
(dp557
Vlarge
p558
(dp559
Vh
p560
I586
sVresize
p561
Vfit
p562
sVw
p563
I458
ssVsmall
p564
(dp565
Vh
p566
I435
sVresize
p567
Vfit
p568
sVw
p569
I340
ssVmedium
p570
(dp571
Vh
p572
I586
sVresize
p573
Vfit
p574
sVw
p575
I458
ssVthumb
p576
(dp577
Vh
p578
I150
sVresize
p579
Vcrop
p580
sVw
p581
I150
sssVindices
p582
(lp583
I90
aI112
asVtype
p584
Vphoto
p585
sVid
p586
I544187863231782914
sVmedia_url
p587
Vhttp://pbs.twimg.com/media/B41X-ncCYAIAmJU.jpg
p588
sasg67
Nsg68
Nsg69
Nsg70
VSun Dec 14 17:51:31 +0000 2014
p589
sg72
Nsg73
I00
sg74
Nsg75
Nsg76
Nsg77
Nsg78
I00
sg79
Nsg80
(lp590
sg82
Nsg83
Nsg84
Nsg85
VCartoons You Never Knew Were Dirty!!\u000a\u000aSee More click Here &gt;&gt; http://t.co/ykRLzOpJAK http://t.co/cV9rn3Jria
p591
sg87
I00
sg88
Ven
p592
sg90
g3
(g91
g5
Ntp593
Rp594
(dp595
g10
g95
sg96
V3D1957
p596
sg98
Ven
p597
sg100
VNew Delhi
p598
sg102
I13223
sg103
I23
sg70
VSun Nov 09 15:31:43 +0000 2014
p599
sg105
I00
sg106
g95
sg108
Vhttps://pbs.twimg.com/profile_images/531473401974501376/Jgx9XU8r_normal.jpeg
p600
sg110
I11608
sg111
I3
sg112
I19800
sg113
Nsg114
I00
sg115
Vhttps://pbs.twimg.com/profile_banners/2869097837/1415547966
p601
sg117
I00
sg118
I01
sg119
VFF0000
p602
sg121
I00
sg122
I00
sg123
Vhttp://abs.twimg.com/images/themes/theme10/bg.gif
p603
sg125
Vwisewordbook
p604
sg127
I24
sg128
Vlove factss
p605
sg130
V7AC3EE
p606
sg132
Nsg133
I2869097837
sg134
V642D8B
p607
sbsg136
I1
sg137
V<a href="http://twitter.com/download/android" rel="nofollow">Twitter for Android</a>
p608
sg139
(lp609
g3
(g141
g5
Ntp610
Rp611
(dp612
g145
Vhttp://t.co/ykRLzOpJAK
p613
sg147
Vhttp://bit.ly/1vOINWt
p614
sbasg133
I544187947012980736
sbsg20
Nsg21
(lp615
(dp616
Vsource_user_id
p617
I2869097837
sVsource_status_id_str
p618
V544187947012980736
p619
sVexpanded_url
p620
Vhttp://twitter.com/wisewordbook/status/544187947012980736/photo/1
p621
sVdisplay_url
p622
Vpic.twitter.com/cV9rn3Jria
p623
sVurl
p624
Vhttp://t.co/cV9rn3Jria
p625
sVmedia_url_https
p626
Vhttps://pbs.twimg.com/media/B41X-ncCYAIAmJU.jpg
p627
sVsource_user_id_str
p628
V2869097837
p629
sVsource_status_id
p630
I544187947012980736
sVid_str
p631
V544187863231782914
p632
sVsizes
p633
(dp634
Vlarge
p635
(dp636
Vh
p637
I586
sVresize
p638
Vfit
p639
sVw
p640
I458
ssVsmall
p641
(dp642
Vh
p643
I435
sVresize
p644
Vfit
p645
sVw
p646
I340
ssVmedium
p647
(dp648
Vh
p649
I586
sVresize
p650
Vfit
p651
sVw
p652
I458
ssVthumb
p653
(dp654
Vh
p655
I150
sVresize
p656
Vcrop
p657
sVw
p658
I150
sssVindices
p659
(lp660
I108
aI130
asVtype
p661
Vphoto
p662
sVid
p663
I544187863231782914
sVmedia_url
p664
Vhttp://pbs.twimg.com/media/B41X-ncCYAIAmJU.jpg
p665
sasg67
Nsg68
Nsg69
Nsg70
VSun Dec 14 17:59:06 +0000 2014
p666
sg72
Nsg73
I00
sg74
Nsg75
Nsg76
Nsg77
Nsg78
I00
sg79
Nsg80
(lp667
g3
(g91
g5
Ntp668
Rp669
(dp670
g10
Nsg96
Nsg98
Nsg100
Nsg102
Nsg103
Nsg70
Nsg105
Nsg106
Nsg108
Nsg110
Nsg111
Nsg112
Nsg113
Nsg114
Nsg115
Nsg117
Nsg118
Nsg119
Nsg121
Nsg122
Nsg123
Nsg125
Vwisewordbook
p671
sg127
Nsg128
Vlove factss
p672
sg130
Nsg132
Nsg133
I2869097837
sg134
Nsbasg82
Nsg83
Nsg84
Nsg85
VRT @wisewordbook: Cartoons You Never Knew Were Dirty!!\u000a\u000aSee More click Here &gt;&gt; http://t.co/ykRLzOpJAK http://t.co/cV9rn3Jria
p673
sg87
I00
sg88
Ven
p674
sg90
g3
(g91
g5
Ntp675
Rp676
(dp677
g10
VUNITED STATES 
p678
sg96
V333333
p679
sg98
Ven-gb
p680
sg100
VNew Delhi
p681
sg102
I59165
sg103
I645
sg70
VWed Sep 03 06:04:21 +0000 2014
p682
sg105
I00
sg106
VWe share some amazing,shocking and unbelievable hidden secrets that U wont get anywhere else. Come join us to enhance ur knowledge about some serious things);
p683
sg108
Vhttps://pbs.twimg.com/profile_images/543461514112294913/EUDfqNDS_normal.jpeg
p684
sg110
I52107
sg111
I3
sg112
I19800
sg113
Nsg114
I00
sg115
Vhttps://pbs.twimg.com/profile_banners/2760125603/1418406209
p685
sg117
I00
sg118
I00
sg119
V0084B4
p686
sg121
I00
sg122
I00
sg123
Vhttp://abs.twimg.com/images/themes/theme1/bg.png
p687
sg125
Vsiona_same
p688
sg127
I102
sg128
VDid you Know?
p689
sg130
VDDEEF6
p690
sg132
Nsg133
I2760125603
sg134
VC0DEED
p691
sbsg136
I1
sg137
V<a href="http://twitter.com/download/android" rel="nofollow">Twitter for Android</a>
p692
sg139
(lp693
g3
(g141
g5
Ntp694
Rp695
(dp696
g145
Vhttp://t.co/ykRLzOpJAK
p697
sg147
Vhttp://bit.ly/1vOINWt
p698
sbasg133
I544189854976724993
sbag3
(g4
g5
Ntp699
Rp700
(dp701
g9
I0
sg10
Nsg11
Nsg12
(lp702
sg14
I00
sg15
g3
(g4
g5
Ntp703
Rp704
(dp705
g9
I2
sg10
Nsg11
Nsg12
(lp706
sg14
I00
sg15
Nsg20
Nsg21
(lp707
(dp708
Vexpanded_url
p709
Vhttp://twitter.com/wisewordbook/status/544187665722003456/photo/1
p710
sVdisplay_url
p711
Vpic.twitter.com/51uDxiLaY8
p712
sVurl
p713
Vhttp://t.co/51uDxiLaY8
p714
sVmedia_url_https
p715
Vhttps://pbs.twimg.com/media/B41XvuxCYAAJJRI.jpg
p716
sVid_str
p717
V544187607500873728
p718
sVsizes
p719
(dp720
Vlarge
p721
(dp722
Vh
p723
I825
sVresize
p724
Vfit
p725
sVw
p726
I600
ssVsmall
p727
(dp728
Vh
p729
I467
sVresize
p730
Vfit
p731
sVw
p732
I340
ssVmedium
p733
(dp734
Vh
p735
I825
sVresize
p736
Vfit
p737
sVw
p738
I600
ssVthumb
p739
(dp740
Vh
p741
I150
sVresize
p742
Vcrop
p743
sVw
p744
I150
sssVindices
p745
(lp746
I87
aI109
asVtype
p747
Vphoto
p748
sVid
p749
I544187607500873728
sVmedia_url
p750
Vhttp://pbs.twimg.com/media/B41XvuxCYAAJJRI.jpg
p751
sasg67
Nsg68
Nsg69
Nsg70
VSun Dec 14 17:50:24 +0000 2014
p752
sg72
Nsg73
I00
sg74
Nsg75
Nsg76
Nsg77
Nsg78
I00
sg79
Nsg80
(lp753
sg82
Nsg83
Nsg84
Nsg85
VSex Tricks Women Don't Understand!!\u000a\u000aFull Gallery Here &gt;&gt; http://t.co/ykRLzOpJAK http://t.co/51uDxiLaY8
p754
sg87
I00
sg88
Ven
p755
sg90
g3
(g91
g5
Ntp756
Rp757
(dp758
g10
g95
sg96
V3D1957
p759
sg98
Ven
p760
sg100
VNew Delhi
p761
sg102
I13223
sg103
I23
sg70
VSun Nov 09 15:31:43 +0000 2014
p762
sg105
I00
sg106
g95
sg108
Vhttps://pbs.twimg.com/profile_images/531473401974501376/Jgx9XU8r_normal.jpeg
p763
sg110
I11608
sg111
I3
sg112
I19800
sg113
Nsg114
I00
sg115
Vhttps://pbs.twimg.com/profile_banners/2869097837/1415547966
p764
sg117
I00
sg118
I01
sg119
VFF0000
p765
sg121
I00
sg122
I00
sg123
Vhttp://abs.twimg.com/images/themes/theme10/bg.gif
p766
sg125
Vwisewordbook
p767
sg127
I24
sg128
Vlove factss
p768
sg130
V7AC3EE
p769
sg132
Nsg133
I2869097837
sg134
V642D8B
p770
sbsg136
I1
sg137
V<a href="http://twitter.com/download/android" rel="nofollow">Twitter for Android</a>
p771
sg139
(lp772
g3
(g141
g5
Ntp773
Rp774
(dp775
g145
Vhttp://t.co/ykRLzOpJAK
p776
sg147
Vhttp://bit.ly/1vOINWt
p777
sbasg133
I544187665722003456
sbsg20
Nsg21
(lp778
(dp779
Vsource_user_id
p780
I2869097837
sVsource_status_id_str
p781
V544187665722003456
p782
sVexpanded_url
p783
Vhttp://twitter.com/wisewordbook/status/544187665722003456/photo/1
p784
sVdisplay_url
p785
Vpic.twitter.com/51uDxiLaY8
p786
sVurl
p787
Vhttp://t.co/51uDxiLaY8
p788
sVmedia_url_https
p789
Vhttps://pbs.twimg.com/media/B41XvuxCYAAJJRI.jpg
p790
sVsource_user_id_str
p791
V2869097837
p792
sVsource_status_id
p793
I544187665722003456
sVid_str
p794
V544187607500873728
p795
sVsizes
p796
(dp797
Vlarge
p798
(dp799
Vh
p800
I825
sVresize
p801
Vfit
p802
sVw
p803
I600
ssVsmall
p804
(dp805
Vh
p806
I467
sVresize
p807
Vfit
p808
sVw
p809
I340
ssVmedium
p810
(dp811
Vh
p812
I825
sVresize
p813
Vfit
p814
sVw
p815
I600
ssVthumb
p816
(dp817
Vh
p818
I150
sVresize
p819
Vcrop
p820
sVw
p821
I150
sssVindices
p822
(lp823
I105
aI127
asVtype
p824
Vphoto
p825
sVid
p826
I544187607500873728
sVmedia_url
p827
Vhttp://pbs.twimg.com/media/B41XvuxCYAAJJRI.jpg
p828
sasg67
Nsg68
Nsg69
Nsg70
VSun Dec 14 17:59:05 +0000 2014
p829
sg72
Nsg73
I00
sg74
Nsg75
Nsg76
Nsg77
Nsg78
I00
sg79
Nsg80
(lp830
g3
(g91
g5
Ntp831
Rp832
(dp833
g10
Nsg96
Nsg98
Nsg100
Nsg102
Nsg103
Nsg70
Nsg105
Nsg106
Nsg108
Nsg110
Nsg111
Nsg112
Nsg113
Nsg114
Nsg115
Nsg117
Nsg118
Nsg119
Nsg121
Nsg122
Nsg123
Nsg125
Vwisewordbook
p834
sg127
Nsg128
Vlove factss
p835
sg130
Nsg132
Nsg133
I2869097837
sg134
Nsbasg82
Nsg83
Nsg84
Nsg85
VRT @wisewordbook: Sex Tricks Women Don't Understand!!\u000a\u000aFull Gallery Here &gt;&gt; http://t.co/ykRLzOpJAK http://t.co/51uDxiLaY8
p836
sg87
I00
sg88
Ven
p837
sg90
g3
(g91
g5
Ntp838
Rp839
(dp840
g10
VUNITED STATES 
p841
sg96
V333333
p842
sg98
Ven-gb
p843
sg100
VNew Delhi
p844
sg102
I59165
sg103
I645
sg70
VWed Sep 03 06:04:21 +0000 2014
p845
sg105
I00
sg106
VWe share some amazing,shocking and unbelievable hidden secrets that U wont get anywhere else. Come join us to enhance ur knowledge about some serious things);
p846
sg108
Vhttps://pbs.twimg.com/profile_images/543461514112294913/EUDfqNDS_normal.jpeg
p847
sg110
I52107
sg111
I3
sg112
I19800
sg113
Nsg114
I00
sg115
Vhttps://pbs.twimg.com/profile_banners/2760125603/1418406209
p848
sg117
I00
sg118
I00
sg119
V0084B4
p849
sg121
I00
sg122
I00
sg123
Vhttp://abs.twimg.com/images/themes/theme1/bg.png
p850
sg125
Vsiona_same
p851
sg127
I102
sg128
VDid you Know?
p852
sg130
VDDEEF6
p853
sg132
Nsg133
I2760125603
sg134
VC0DEED
p854
sbsg136
I1
sg137
V<a href="http://twitter.com/download/android" rel="nofollow">Twitter for Android</a>
p855
sg139
(lp856
g3
(g141
g5
Ntp857
Rp858
(dp859
g145
Vhttp://t.co/ykRLzOpJAK
p860
sg147
Vhttp://bit.ly/1vOINWt
p861
sbasg133
I544189849918402560
sbag3
(g4
g5
Ntp862
Rp863
(dp864
g9
I0
sg10
Nsg11
Nsg12
(lp865
sg14
I00
sg15
g3
(g4
g5
Ntp866
Rp867
(dp868
g9
I38
sg10
Nsg11
Nsg12
(lp869
sg14
I00
sg15
Nsg20
Nsg21
(lp870
(dp871
Vexpanded_url
p872
Vhttp://twitter.com/femaletextx/status/544053497851682817/photo/1
p873
sVdisplay_url
p874
Vpic.twitter.com/KcKMJOGxAY
p875
sVurl
p876
Vhttp://t.co/KcKMJOGxAY
p877
sVmedia_url_https
p878
Vhttps://pbs.twimg.com/media/B4zdwgJCYAAWQ7v.jpg
p879
sVid_str
p880
V544053480336285696
p881
sVsizes
p882
(dp883
Vlarge
p884
(dp885
Vh
p886
I847
sVresize
p887
Vfit
p888
sVw
p889
I600
ssVsmall
p890
(dp891
Vh
p892
I479
sVresize
p893
Vfit
p894
sVw
p895
I340
ssVmedium
p896
(dp897
Vh
p898
I847
sVresize
p899
Vfit
p900
sVw
p901
I600
ssVthumb
p902
(dp903
Vh
p904
I150
sVresize
p905
Vcrop
p906
sVw
p907
I150
sssVindices
p908
(lp909
I103
aI125
asVtype
p910
Vphoto
p911
sVid
p912
I544053480336285696
sVmedia_url
p913
Vhttp://pbs.twimg.com/media/B4zdwgJCYAAWQ7v.jpg
p914
sasg67
Nsg68
Nsg69
Nsg70
VSun Dec 14 08:57:16 +0000 2014
p915
sg72
Nsg73
I00
sg74
Nsg75
Nsg76
Nsg77
Nsg78
I00
sg79
Nsg80
(lp916
sg82
Nsg83
Nsg84
Nsg85
VCan't Lose With BOOBS!! (Selfies &amp; BOUNCY gifs)\u000a\u000aSee more here:&gt;&gt;&gt; http://t.co/Uoo0yGpVqh http://t.co/KcKMJOGxAY
p917
sg87
I00
sg88
Ven
p918
sg90
g3
(g91
g5
Ntp919
Rp920
(dp921
g10
g95
sg96
V333333
p922
sg98
Ven
p923
sg100
Nsg102
I62024
sg103
I433
sg70
VTue Sep 02 11:22:53 +0000 2014
p924
sg105
I00
sg106
g95
sg108
Vhttps://pbs.twimg.com/profile_images/543356643736420352/NYinJRuz_normal.jpeg
p925
sg110
I58261
sg111
I3
sg112
Nsg113
Nsg114
I00
sg115
Vhttps://pbs.twimg.com/profile_banners/2785793167/1415236227
p926
sg117
I00
sg118
I00
sg119
V0084B4
p927
sg121
I01
sg122
I00
sg123
Vhttp://abs.twimg.com/images/themes/theme1/bg.png
p928
sg125
Vfemaletextx
p929
sg127
I60
sg128
VJACK REACHER
p930
sg130
VDDEEF6
p931
sg132
Nsg133
I2785793167
sg134
VC0DEED
p932
sbsg136
I62
sg137
V<a href="http://twitter.com/download/android" rel="nofollow">Twitter for Android</a>
p933
sg139
(lp934
g3
(g141
g5
Ntp935
Rp936
(dp937
g145
Vhttp://t.co/Uoo0yGpVqh
p938
sg147
Vhttp://bit.ly/16l8dqa
p939
sbasg133
I544053497851682817
sbsg20
Nsg21
(lp940
(dp941
Vsource_user_id
p942
I2785793167
sVsource_status_id_str
p943
V544053497851682817
p944
sVexpanded_url
p945
Vhttp://twitter.com/femaletextx/status/544053497851682817/photo/1
p946
sVdisplay_url
p947
Vpic.twitter.com/KcKMJOGxAY
p948
sVurl
p949
Vhttp://t.co/KcKMJOGxAY
p950
sVmedia_url_https
p951
Vhttps://pbs.twimg.com/media/B4zdwgJCYAAWQ7v.jpg
p952
sVsource_user_id_str
p953
V2785793167
p954
sVsource_status_id
p955
I544053497851682817
sVid_str
p956
V544053480336285696
p957
sVsizes
p958
(dp959
Vlarge
p960
(dp961
Vh
p962
I847
sVresize
p963
Vfit
p964
sVw
p965
I600
ssVsmall
p966
(dp967
Vh
p968
I479
sVresize
p969
Vfit
p970
sVw
p971
I340
ssVmedium
p972
(dp973
Vh
p974
I847
sVresize
p975
Vfit
p976
sVw
p977
I600
ssVthumb
p978
(dp979
Vh
p980
I150
sVresize
p981
Vcrop
p982
sVw
p983
I150
sssVindices
p984
(lp985
I120
aI142
asVtype
p986
Vphoto
p987
sVid
p988
I544053480336285696
sVmedia_url
p989
Vhttp://pbs.twimg.com/media/B4zdwgJCYAAWQ7v.jpg
p990
sasg67
Nsg68
Nsg69
Nsg70
VSun Dec 14 16:35:29 +0000 2014
p991
sg72
Nsg73
I00
sg74
Nsg75
Nsg76
Nsg77
Nsg78
I00
sg79
Nsg80
(lp992
g3
(g91
g5
Ntp993
Rp994
(dp995
g10
Nsg96
Nsg98
Nsg100
Nsg102
Nsg103
Nsg70
Nsg105
Nsg106
Nsg108
Nsg110
Nsg111
Nsg112
Nsg113
Nsg114
Nsg115
Nsg117
Nsg118
Nsg119
Nsg121
Nsg122
Nsg123
Nsg125
Vfemaletextx
p996
sg127
Nsg128
VJACK REACHER
p997
sg130
Nsg132
Nsg133
I2785793167
sg134
Nsbasg82
Nsg83
Nsg84
Nsg85
VRT @femaletextx: Can't Lose With BOOBS!! (Selfies &amp; BOUNCY gifs)\u000a\u000aSee more here:&gt;&gt;&gt; http://t.co/Uoo0yGpVqh http://t.co/KcKMJOGxAY
p998
sg87
I00
sg88
Ven
p999
sg90
g3
(g91
g5
Ntp1000
Rp1001
(dp1002
g10
VUNITED STATES 
p1003
sg96
V333333
p1004
sg98
Ven-gb
p1005
sg100
VNew Delhi
p1006
sg102
I59165
sg103
I645
sg70
VWed Sep 03 06:04:21 +0000 2014
p1007
sg105
I00
sg106
VWe share some amazing,shocking and unbelievable hidden secrets that U wont get anywhere else. Come join us to enhance ur knowledge about some serious things);
p1008
sg108
Vhttps://pbs.twimg.com/profile_images/543461514112294913/EUDfqNDS_normal.jpeg
p1009
sg110
I52107
sg111
I3
sg112
I19800
sg113
Nsg114
I00
sg115
Vhttps://pbs.twimg.com/profile_banners/2760125603/1418406209
p1010
sg117
I00
sg118
I00
sg119
V0084B4
p1011
sg121
I00
sg122
I00
sg123
Vhttp://abs.twimg.com/images/themes/theme1/bg.png
p1012
sg125
Vsiona_same
p1013
sg127
I102
sg128
VDid you Know?
p1014
sg130
VDDEEF6
p1015
sg132
Nsg133
I2760125603
sg134
VC0DEED
p1016
sbsg136
I62
sg137
V<a href="http://twitter.com/download/android" rel="nofollow">Twitter for Android</a>
p1017
sg139
(lp1018
g3
(g141
g5
Ntp1019
Rp1020
(dp1021
g145
Vhttp://t.co/Uoo0yGpVqh
p1022
sg147
Vhttp://bit.ly/16l8dqa
p1023
sbasg133
I544168810291273728
sbag3
(g4
g5
Ntp1024
Rp1025
(dp1026
g9
I0
sg10
Nsg11
Nsg12
(lp1027
sg14
I00
sg15
g3
(g4
g5
Ntp1028
Rp1029
(dp1030
g9
I14
sg10
Nsg11
Nsg12
(lp1031
sg14
I00
sg15
Nsg20
Nsg21
(lp1032
(dp1033
Vexpanded_url
p1034
Vhttp://twitter.com/femaletextx/status/544053698582675456/photo/1
p1035
sVdisplay_url
p1036
Vpic.twitter.com/Qz2FW6gbAy
p1037
sVurl
p1038
Vhttp://t.co/Qz2FW6gbAy
p1039
sVmedia_url_https
p1040
Vhttps://pbs.twimg.com/media/B4zd768CMAEphV-.jpg
p1041
sVid_str
p1042
V544053676508065793
p1043
sVsizes
p1044
(dp1045
Vlarge
p1046
(dp1047
Vh
p1048
I861
sVresize
p1049
Vfit
p1050
sVw
p1051
I599
ssVsmall
p1052
(dp1053
Vh
p1054
I488
sVresize
p1055
Vfit
p1056
sVw
p1057
I340
ssVmedium
p1058
(dp1059
Vh
p1060
I861
sVresize
p1061
Vfit
p1062
sVw
p1063
I599
ssVthumb
p1064
(dp1065
Vh
p1066
I150
sVresize
p1067
Vcrop
p1068
sVw
p1069
I150
sssVindices
p1070
(lp1071
I91
aI113
asVtype
p1072
Vphoto
p1073
sVid
p1074
I544053676508065793
sVmedia_url
p1075
Vhttp://pbs.twimg.com/media/B4zd768CMAEphV-.jpg
p1076
sasg67
Nsg68
Nsg69
Nsg70
VSun Dec 14 08:58:04 +0000 2014
p1077
sg72
Nsg73
I00
sg74
Nsg75
Nsg76
Nsg77
Nsg78
I00
sg79
Nsg80
(lp1078
sg82
Nsg83
Nsg84
Nsg85
V10 Disturbing Teacher Confessions\u000a\u000aSee more click here:&gt;&gt;&gt; http://t.co/Uoo0yGpVqh http://t.co/Qz2FW6gbAy
p1079
sg87
I00
sg88
Ven
p1080
sg90
g3
(g91
g5
Ntp1081
Rp1082
(dp1083
g10
g95
sg96
V333333
p1084
sg98
Ven
p1085
sg100
Nsg102
I62024
sg103
I433
sg70
VTue Sep 02 11:22:53 +0000 2014
p1086
sg105
I00
sg106
g95
sg108
Vhttps://pbs.twimg.com/profile_images/543356643736420352/NYinJRuz_normal.jpeg
p1087
sg110
I58261
sg111
I3
sg112
Nsg113
Nsg114
I00
sg115
Vhttps://pbs.twimg.com/profile_banners/2785793167/1415236227
p1088
sg117
I00
sg118
I00
sg119
V0084B4
p1089
sg121
I01
sg122
I00
sg123
Vhttp://abs.twimg.com/images/themes/theme1/bg.png
p1090
sg125
Vfemaletextx
p1091
sg127
I60
sg128
VJACK REACHER
p1092
sg130
VDDEEF6
p1093
sg132
Nsg133
I2785793167
sg134
VC0DEED
p1094
sbsg136
I79
sg137
V<a href="http://twitter.com/download/android" rel="nofollow">Twitter for Android</a>
p1095
sg139
(lp1096
g3
(g141
g5
Ntp1097
Rp1098
(dp1099
g145
Vhttp://t.co/Uoo0yGpVqh
p1100
sg147
Vhttp://bit.ly/16l8dqa
p1101
sbasg133
I544053698582675456
sbsg20
Nsg21
(lp1102
(dp1103
Vsource_user_id
p1104
I2785793167
sVsource_status_id_str
p1105
V544053698582675456
p1106
sVexpanded_url
p1107
Vhttp://twitter.com/femaletextx/status/544053698582675456/photo/1
p1108
sVdisplay_url
p1109
Vpic.twitter.com/Qz2FW6gbAy
p1110
sVurl
p1111
Vhttp://t.co/Qz2FW6gbAy
p1112
sVmedia_url_https
p1113
Vhttps://pbs.twimg.com/media/B4zd768CMAEphV-.jpg
p1114
sVsource_user_id_str
p1115
V2785793167
p1116
sVsource_status_id
p1117
I544053698582675456
sVid_str
p1118
V544053676508065793
p1119
sVsizes
p1120
(dp1121
Vlarge
p1122
(dp1123
Vh
p1124
I861
sVresize
p1125
Vfit
p1126
sVw
p1127
I599
ssVsmall
p1128
(dp1129
Vh
p1130
I488
sVresize
p1131
Vfit
p1132
sVw
p1133
I340
ssVmedium
p1134
(dp1135
Vh
p1136
I861
sVresize
p1137
Vfit
p1138
sVw
p1139
I599
ssVthumb
p1140
(dp1141
Vh
p1142
I150
sVresize
p1143
Vcrop
p1144
sVw
p1145
I150
sssVindices
p1146
(lp1147
I108
aI130
asVtype
p1148
Vphoto
p1149
sVid
p1150
I544053676508065793
sVmedia_url
p1151
Vhttp://pbs.twimg.com/media/B4zd768CMAEphV-.jpg
p1152
sasg67
Nsg68
Nsg69
Nsg70
VSun Dec 14 16:35:28 +0000 2014
p1153
sg72
Nsg73
I00
sg74
Nsg75
Nsg76
Nsg77
Nsg78
I00
sg79
Nsg80
(lp1154
g3
(g91
g5
Ntp1155
Rp1156
(dp1157
g10
Nsg96
Nsg98
Nsg100
Nsg102
Nsg103
Nsg70
Nsg105
Nsg106
Nsg108
Nsg110
Nsg111
Nsg112
Nsg113
Nsg114
Nsg115
Nsg117
Nsg118
Nsg119
Nsg121
Nsg122
Nsg123
Nsg125
Vfemaletextx
p1158
sg127
Nsg128
VJACK REACHER
p1159
sg130
Nsg132
Nsg133
I2785793167
sg134
Nsbasg82
Nsg83
Nsg84
Nsg85
VRT @femaletextx: 10 Disturbing Teacher Confessions\u000a\u000aSee more click here:&gt;&gt;&gt; http://t.co/Uoo0yGpVqh http://t.co/Qz2FW6gbAy
p1160
sg87
I00
sg88
Ven
p1161
sg90
g3
(g91
g5
Ntp1162
Rp1163
(dp1164
g10
VUNITED STATES 
p1165
sg96
V333333
p1166
sg98
Ven-gb
p1167
sg100
VNew Delhi
p1168
sg102
I59165
sg103
I645
sg70
VWed Sep 03 06:04:21 +0000 2014
p1169
sg105
I00
sg106
VWe share some amazing,shocking and unbelievable hidden secrets that U wont get anywhere else. Come join us to enhance ur knowledge about some serious things);
p1170
sg108
Vhttps://pbs.twimg.com/profile_images/543461514112294913/EUDfqNDS_normal.jpeg
p1171
sg110
I52107
sg111
I3
sg112
I19800
sg113
Nsg114
I00
sg115
Vhttps://pbs.twimg.com/profile_banners/2760125603/1418406209
p1172
sg117
I00
sg118
I00
sg119
V0084B4
p1173
sg121
I00
sg122
I00
sg123
Vhttp://abs.twimg.com/images/themes/theme1/bg.png
p1174
sg125
Vsiona_same
p1175
sg127
I102
sg128
VDid you Know?
p1176
sg130
VDDEEF6
p1177
sg132
Nsg133
I2760125603
sg134
VC0DEED
p1178
sbsg136
I79
sg137
V<a href="http://twitter.com/download/android" rel="nofollow">Twitter for Android</a>
p1179
sg139
(lp1180
g3
(g141
g5
Ntp1181
Rp1182
(dp1183
g145
Vhttp://t.co/Uoo0yGpVqh
p1184
sg147
Vhttp://bit.ly/16l8dqa
p1185
sbasg133
I544168807317512192
sbag3
(g4
g5
Ntp1186
Rp1187
(dp1188
g9
I0
sg10
Nsg11
Nsg12
(lp1189
sg14
I00
sg15
g3
(g4
g5
Ntp1190
Rp1191
(dp1192
g9
I32
sg10
Nsg11
Nsg12
(lp1193
sg14
I00
sg15
Nsg20
Nsg21
(lp1194
(dp1195
Vexpanded_url
p1196
Vhttp://twitter.com/femaletextx/status/544053826429272064/photo/1
p1197
sVdisplay_url
p1198
Vpic.twitter.com/NfKh3zUuCZ
p1199
sVurl
p1200
Vhttp://t.co/NfKh3zUuCZ
p1201
sVmedia_url_https
p1202
Vhttps://pbs.twimg.com/media/B4zeDtqCYAEUfTl.jpg
p1203
sVid_str
p1204
V544053810381873153
p1205
sVsizes
p1206
(dp1207
Vlarge
p1208
(dp1209
Vh
p1210
I800
sVresize
p1211
Vfit
p1212
sVw
p1213
I600
ssVsmall
p1214
(dp1215
Vh
p1216
I453
sVresize
p1217
Vfit
p1218
sVw
p1219
I340
ssVmedium
p1220
(dp1221
Vh
p1222
I800
sVresize
p1223
Vfit
p1224
sVw
p1225
I600
ssVthumb
p1226
(dp1227
Vh
p1228
I150
sVresize
p1229
Vcrop
p1230
sVw
p1231
I150
sssVindices
p1232
(lp1233
I111
aI133
asVtype
p1234
Vphoto
p1235
sVid
p1236
I544053810381873153
sVmedia_url
p1237
Vhttp://pbs.twimg.com/media/B4zeDtqCYAEUfTl.jpg
p1238
sasg67
Nsg68
Nsg69
Nsg70
VSun Dec 14 08:58:34 +0000 2014
p1239
sg72
Nsg73
I00
sg74
Nsg75
Nsg76
Nsg77
Nsg78
I00
sg79
Nsg80
(lp1240
sg82
Nsg83
Nsg84
Nsg85
V16 Sexiest Selfies of the Year that you don't wanna Miss..\u000a\u000aSee click here:&gt;&gt;&gt; http://t.co/Uoo0yGpVqh http://t.co/NfKh3zUuCZ
p1241
sg87
I00
sg88
Ven
p1242
sg90
g3
(g91
g5
Ntp1243
Rp1244
(dp1245
g10
g95
sg96
V333333
p1246
sg98
Ven
p1247
sg100
Nsg102
I62024
sg103
I433
sg70
VTue Sep 02 11:22:53 +0000 2014
p1248
sg105
I00
sg106
g95
sg108
Vhttps://pbs.twimg.com/profile_images/543356643736420352/NYinJRuz_normal.jpeg
p1249
sg110
I58261
sg111
I3
sg112
Nsg113
Nsg114
I00
sg115
Vhttps://pbs.twimg.com/profile_banners/2785793167/1415236227
p1250
sg117
I00
sg118
I00
sg119
V0084B4
p1251
sg121
I01
sg122
I00
sg123
Vhttp://abs.twimg.com/images/themes/theme1/bg.png
p1252
sg125
Vfemaletextx
p1253
sg127
I60
sg128
VJACK REACHER
p1254
sg130
VDDEEF6
p1255
sg132
Nsg133
I2785793167
sg134
VC0DEED
p1256
sbsg136
I85
sg137
V<a href="http://twitter.com/download/android" rel="nofollow">Twitter for Android</a>
p1257
sg139
(lp1258
g3
(g141
g5
Ntp1259
Rp1260
(dp1261
g145
Vhttp://t.co/Uoo0yGpVqh
p1262
sg147
Vhttp://bit.ly/16l8dqa
p1263
sbasg133
I544053826429272064
sbsg20
Nsg21
(lp1264
(dp1265
Vsource_user_id
p1266
I2785793167
sVsource_status_id_str
p1267
V544053826429272064
p1268
sVexpanded_url
p1269
Vhttp://twitter.com/femaletextx/status/544053826429272064/photo/1
p1270
sVdisplay_url
p1271
Vpic.twitter.com/NfKh3zUuCZ
p1272
sVurl
p1273
Vhttp://t.co/NfKh3zUuCZ
p1274
sVmedia_url_https
p1275
Vhttps://pbs.twimg.com/media/B4zeDtqCYAEUfTl.jpg
p1276
sVsource_user_id_str
p1277
V2785793167
p1278
sVsource_status_id
p1279
I544053826429272064
sVid_str
p1280
V544053810381873153
p1281
sVsizes
p1282
(dp1283
Vlarge
p1284
(dp1285
Vh
p1286
I800
sVresize
p1287
Vfit
p1288
sVw
p1289
I600
ssVsmall
p1290
(dp1291
Vh
p1292
I453
sVresize
p1293
Vfit
p1294
sVw
p1295
I340
ssVmedium
p1296
(dp1297
Vh
p1298
I800
sVresize
p1299
Vfit
p1300
sVw
p1301
I600
ssVthumb
p1302
(dp1303
Vh
p1304
I150
sVresize
p1305
Vcrop
p1306
sVw
p1307
I150
sssVindices
p1308
(lp1309
I148
aI149
asVtype
p1310
Vphoto
p1311
sVid
p1312
I544053810381873153
sVmedia_url
p1313
Vhttp://pbs.twimg.com/media/B4zeDtqCYAEUfTl.jpg
p1314
sasg67
Nsg68
Nsg69
Nsg70
VSun Dec 14 16:35:27 +0000 2014
p1315
sg72
Nsg73
I00
sg74
Nsg75
Nsg76
Nsg77
Nsg78
I00
sg79
Nsg80
(lp1316
g3
(g91
g5
Ntp1317
Rp1318
(dp1319
g10
Nsg96
Nsg98
Nsg100
Nsg102
Nsg103
Nsg70
Nsg105
Nsg106
Nsg108
Nsg110
Nsg111
Nsg112
Nsg113
Nsg114
Nsg115
Nsg117
Nsg118
Nsg119
Nsg121
Nsg122
Nsg123
Nsg125
Vfemaletextx
p1320
sg127
Nsg128
VJACK REACHER
p1321
sg130
Nsg132
Nsg133
I2785793167
sg134
Nsbasg82
Nsg83
Nsg84
Nsg85
VRT @femaletextx: 16 Sexiest Selfies of the Year that you don't wanna Miss..\u000a\u000aSee click here:&gt;&gt;&gt; http://t.co/Uoo0yGpVqh http://t.co/NfKh3zUu\u2026
p1322
sg87
I00
sg88
Ven
p1323
sg90
g3
(g91
g5
Ntp1324
Rp1325
(dp1326
g10
VUNITED STATES 
p1327
sg96
V333333
p1328
sg98
Ven-gb
p1329
sg100
VNew Delhi
p1330
sg102
I59165
sg103
I645
sg70
VWed Sep 03 06:04:21 +0000 2014
p1331
sg105
I00
sg106
VWe share some amazing,shocking and unbelievable hidden secrets that U wont get anywhere else. Come join us to enhance ur knowledge about some serious things);
p1332
sg108
Vhttps://pbs.twimg.com/profile_images/543461514112294913/EUDfqNDS_normal.jpeg
p1333
sg110
I52107
sg111
I3
sg112
I19800
sg113
Nsg114
I00
sg115
Vhttps://pbs.twimg.com/profile_banners/2760125603/1418406209
p1334
sg117
I00
sg118
I00
sg119
V0084B4
p1335
sg121
I00
sg122
I00
sg123
Vhttp://abs.twimg.com/images/themes/theme1/bg.png
p1336
sg125
Vsiona_same
p1337
sg127
I102
sg128
VDid you Know?
p1338
sg130
VDDEEF6
p1339
sg132
Nsg133
I2760125603
sg134
VC0DEED
p1340
sbsg136
I85
sg137
V<a href="http://twitter.com/download/android" rel="nofollow">Twitter for Android</a>
p1341
sg139
(lp1342
g3
(g141
g5
Ntp1343
Rp1344
(dp1345
g145
Vhttp://t.co/Uoo0yGpVqh
p1346
sg147
Vhttp://bit.ly/16l8dqa
p1347
sbasg133
I544168801340641280
sbag3
(g4
g5
Ntp1348
Rp1349
(dp1350
g9
I0
sg10
Nsg11
Nsg12
(lp1351
sg14
I00
sg15
g3
(g4
g5
Ntp1352
Rp1353
(dp1354
g9
I33
sg10
Nsg11
Nsg12
(lp1355
sg14
I00
sg15
Nsg20
Nsg21
(lp1356
(dp1357
Vexpanded_url
p1358
Vhttp://twitter.com/Amazinglllusion/status/543767029681909762/photo/1
p1359
sVdisplay_url
p1360
Vpic.twitter.com/QumFo0dXQc
p1361
sVurl
p1362
Vhttp://t.co/QumFo0dXQc
p1363
sVmedia_url_https
p1364
Vhttps://pbs.twimg.com/media/B4vZOyFCYAAF1Dy.jpg
p1365
sVid_str
p1366
V543767028012572672
p1367
sVsizes
p1368
(dp1369
Vsmall
p1370
(dp1371
Vh
p1372
I500
sVresize
p1373
Vfit
p1374
sVw
p1375
I218
ssVlarge
p1376
(dp1377
Vh
p1378
I500
sVresize
p1379
Vfit
p1380
sVw
p1381
I218
ssVmedium
p1382
(dp1383
Vh
p1384
I500
sVresize
p1385
Vfit
p1386
sVw
p1387
I218
ssVthumb
p1388
(dp1389
Vh
p1390
I150
sVresize
p1391
Vcrop
p1392
sVw
p1393
I150
sssVindices
p1394
(lp1395
I48
aI70
asVtype
p1396
Vphoto
p1397
sVid
p1398
I543767028012572672
sVmedia_url
p1399
Vhttp://pbs.twimg.com/media/B4vZOyFCYAAF1Dy.jpg
p1400
sasg67
Nsg68
Nsg69
Nsg70
VSat Dec 13 13:58:57 +0000 2014
p1401
sg72
Nsg73
I00
sg74
Nsg75
Nsg76
Nsg77
Nsg78
I00
sg79
Nsg80
(lp1402
sg82
Nsg83
Nsg84
Nsg85
VBest Celebs Bikini Fails http://t.co/adl4d5cmbw http://t.co/QumFo0dXQc
p1403
sg87
I00
sg88
Ven
p1404
sg90
g3
(g91
g5
Ntp1405
Rp1406
(dp1407
g10
g95
sg96
V333333
p1408
sg98
Ven
p1409
sg100
VChennai
p1410
sg102
I35082
sg103
I676
sg70
VMon Jun 24 03:48:35 +0000 2013
p1411
sg105
I00
sg106
VTricky thing about illusions is that we perceive them as reality. Follow for the best Optical Illusions You'll Ever See
p1412
sg108
Vhttps://pbs.twimg.com/profile_images/378800000236863983/f5fbb09bb6ddb804fead50e6ca69bf81_normal.jpeg
p1413
sg110
I654
sg111
I3
sg112
I19800
sg113
Nsg114
I00
sg115
Vhttps://pbs.twimg.com/profile_banners/1542423512/1372046150
p1414
sg117
I00
sg118
I00
sg119
V0DE31C
p1415
sg121
I01
sg122
I00
sg123
Vhttp://abs.twimg.com/images/themes/theme15/bg.png
p1416
sg125
VAmazinglllusion
p1417
sg127
I124
sg128
VOptical illusions
p1418
sg130
VEFEFEF
p1419
sg132
Nsg133
I1542423512
sg134
V022330
p1420
sbsg136
I64
sg137
V<a href="http://twitter.com" rel="nofollow">Twitter Web Client</a>
p1421
sg139
(lp1422
g3
(g141
g5
Ntp1423
Rp1424
(dp1425
g145
Vhttp://t.co/adl4d5cmbw
p1426
sg147
Vhttp://pictvviteer.com/best-celebs-bikini-fails-1
p1427
sbasg133
I543767029681909762
sbsg20
Nsg21
(lp1428
(dp1429
Vsource_user_id
p1430
I1542423512
sVsource_status_id_str
p1431
V543767029681909762
p1432
sVexpanded_url
p1433
Vhttp://twitter.com/Amazinglllusion/status/543767029681909762/photo/1
p1434
sVdisplay_url
p1435
Vpic.twitter.com/QumFo0dXQc
p1436
sVurl
p1437
Vhttp://t.co/QumFo0dXQc
p1438
sVmedia_url_https
p1439
Vhttps://pbs.twimg.com/media/B4vZOyFCYAAF1Dy.jpg
p1440
sVsource_user_id_str
p1441
V1542423512
p1442
sVsource_status_id
p1443
I543767029681909762
sVid_str
p1444
V543767028012572672
p1445
sVsizes
p1446
(dp1447
Vsmall
p1448
(dp1449
Vh
p1450
I500
sVresize
p1451
Vfit
p1452
sVw
p1453
I218
ssVlarge
p1454
(dp1455
Vh
p1456
I500
sVresize
p1457
Vfit
p1458
sVw
p1459
I218
ssVmedium
p1460
(dp1461
Vh
p1462
I500
sVresize
p1463
Vfit
p1464
sVw
p1465
I218
ssVthumb
p1466
(dp1467
Vh
p1468
I150
sVresize
p1469
Vcrop
p1470
sVw
p1471
I150
sssVindices
p1472
(lp1473
I69
aI91
asVtype
p1474
Vphoto
p1475
sVid
p1476
I543767028012572672
sVmedia_url
p1477
Vhttp://pbs.twimg.com/media/B4vZOyFCYAAF1Dy.jpg
p1478
sasg67
Nsg68
Nsg69
Nsg70
VSun Dec 14 15:53:56 +0000 2014
p1479
sg72
Nsg73
I00
sg74
Nsg75
Nsg76
Nsg77
Nsg78
I00
sg79
Nsg80
(lp1480
g3
(g91
g5
Ntp1481
Rp1482
(dp1483
g10
Nsg96
Nsg98
Nsg100
Nsg102
Nsg103
Nsg70
Nsg105
Nsg106
Nsg108
Nsg110
Nsg111
Nsg112
Nsg113
Nsg114
Nsg115
Nsg117
Nsg118
Nsg119
Nsg121
Nsg122
Nsg123
Nsg125
VAmazinglllusion
p1484
sg127
Nsg128
VOptical illusions
p1485
sg130
Nsg132
Nsg133
I1542423512
sg134
Nsbasg82
Nsg83
Nsg84
Nsg85
VRT @Amazinglllusion: Best Celebs Bikini Fails http://t.co/adl4d5cmbw http://t.co/QumFo0dXQc
p1486
sg87
I00
sg88
Ven
p1487
sg90
g3
(g91
g5
Ntp1488
Rp1489
(dp1490
g10
VUNITED STATES 
p1491
sg96
V333333
p1492
sg98
Ven-gb
p1493
sg100
VNew Delhi
p1494
sg102
I59165
sg103
I645
sg70
VWed Sep 03 06:04:21 +0000 2014
p1495
sg105
I00
sg106
VWe share some amazing,shocking and unbelievable hidden secrets that U wont get anywhere else. Come join us to enhance ur knowledge about some serious things);
p1496
sg108
Vhttps://pbs.twimg.com/profile_images/543461514112294913/EUDfqNDS_normal.jpeg
p1497
sg110
I52107
sg111
I3
sg112
I19800
sg113
Nsg114
I00
sg115
Vhttps://pbs.twimg.com/profile_banners/2760125603/1418406209
p1498
sg117
I00
sg118
I00
sg119
V0084B4
p1499
sg121
I00
sg122
I00
sg123
Vhttp://abs.twimg.com/images/themes/theme1/bg.png
p1500
sg125
Vsiona_same
p1501
sg127
I102
sg128
VDid you Know?
p1502
sg130
VDDEEF6
p1503
sg132
Nsg133
I2760125603
sg134
VC0DEED
p1504
sbsg136
I64
sg137
V<a href="http://twitter.com/download/android" rel="nofollow">Twitter for Android</a>
p1505
sg139
(lp1506
g3
(g141
g5
Ntp1507
Rp1508
(dp1509
g145
Vhttp://t.co/adl4d5cmbw
p1510
sg147
Vhttp://pictvviteer.com/best-celebs-bikini-fails-1
p1511
sbasg133
I544158353832697856
sbag3
(g4
g5
Ntp1512
Rp1513
(dp1514
g9
I0
sg10
Nsg11
Nsg12
(lp1515
sg14
I00
sg15
g3
(g4
g5
Ntp1516
Rp1517
(dp1518
g9
I172
sg10
Nsg11
Nsg12
(lp1519
sg14
I00
sg15
Nsg20
Nsg21
(lp1520
(dp1521
Vexpanded_url
p1522
Vhttp://twitter.com/callmeyoyo007/status/542521964200333314/photo/1
p1523
sVdisplay_url
p1524
Vpic.twitter.com/iCvc2aqupe
p1525
sVurl
p1526
Vhttp://t.co/iCvc2aqupe
p1527
sVmedia_url_https
p1528
Vhttps://pbs.twimg.com/media/B4ds2Q7CQAE-H28.jpg
p1529
sVid_str
p1530
V542521959632748545
p1531
sVsizes
p1532
(dp1533
Vsmall
p1534
(dp1535
Vh
p1536
I604
sVresize
p1537
Vfit
p1538
sVw
p1539
I340
ssVlarge
p1540
(dp1541
Vh
p1542
I854
sVresize
p1543
Vfit
p1544
sVw
p1545
I480
ssVmedium
p1546
(dp1547
Vh
p1548
I854
sVresize
p1549
Vfit
p1550
sVw
p1551
I480
ssVthumb
p1552
(dp1553
Vh
p1554
I150
sVresize
p1555
Vcrop
p1556
sVw
p1557
I150
sssVindices
p1558
(lp1559
I102
aI124
asVtype
p1560
Vphoto
p1561
sVid
p1562
I542521959632748545
sVmedia_url
p1563
Vhttp://pbs.twimg.com/media/B4ds2Q7CQAE-H28.jpg
p1564
sasg67
Nsg68
Nsg69
Nsg70
VWed Dec 10 03:31:30 +0000 2014
p1565
sg72
Nsg73
I00
sg74
Nsg75
Nsg76
Nsg77
Nsg78
I00
sg79
Nsg80
(lp1566
sg82
Nsg83
Nsg84
Nsg85
V"He is suffering from Cancer \U0001f614\u000a\u000aRT TO SUPPORT HIM\u000a\u000aClick for full story \U0001f449 http://t.co/mIxWIY01vq.\u2665\u2665\u2665\u2665 http://t.co/iCvc2aqupe
p1567
sg87
I00
sg88
Ven
p1568
sg90
g3
(g91
g5
Ntp1569
Rp1570
(dp1571
g10
g95
sg96
V333333
p1572
sg98
Ven
p1573
sg100
Nsg102
I16745
sg103
I173
sg70
VWed Aug 27 02:40:50 +0000 2014
p1574
sg105
I00
sg106
g95
sg108
Vhttps://pbs.twimg.com/profile_images/504459032606679040/NkxMTrld_normal.jpeg
p1575
sg110
I16557
sg111
I4
sg112
Nsg113
Nsg114
I00
sg115
Vhttps://pbs.twimg.com/profile_banners/2772144096/1409107378
p1576
sg117
I00
sg118
I00
sg119
V0084B4
p1577
sg121
I00
sg122
I00
sg123
Vhttp://abs.twimg.com/images/themes/theme1/bg.png
p1578
sg125
Vcallmeyoyo007
p1579
sg127
I12
sg128
VYoyohoneysingh
p1580
sg130
VDDEEF6
p1581
sg132
Nsg133
I2772144096
sg134
VC0DEED
p1582
sbsg136
I339
sg137
V<a href="http://twitter.com/download/android" rel="nofollow">Twitter for Android</a>
p1583
sg139
(lp1584
g3
(g141
g5
Ntp1585
Rp1586
(dp1587
g145
Vhttp://t.co/mIxWIY01vq
p1588
sg147
Vhttp://bit.ly/12qxTiQ
p1589
sbasg133
I542521964200333314
sbsg20
Nsg21
(lp1590
(dp1591
Vsource_user_id
p1592
I2772144096
sVsource_status_id_str
p1593
V542521964200333314
p1594
sVexpanded_url
p1595
Vhttp://twitter.com/callmeyoyo007/status/542521964200333314/photo/1
p1596
sVdisplay_url
p1597
Vpic.twitter.com/iCvc2aqupe
p1598
sVurl
p1599
Vhttp://t.co/iCvc2aqupe
p1600
sVmedia_url_https
p1601
Vhttps://pbs.twimg.com/media/B4ds2Q7CQAE-H28.jpg
p1602
sVsource_user_id_str
p1603
V2772144096
p1604
sVsource_status_id
p1605
I542521964200333314
sVid_str
p1606
V542521959632748545
p1607
sVsizes
p1608
(dp1609
Vsmall
p1610
(dp1611
Vh
p1612
I604
sVresize
p1613
Vfit
p1614
sVw
p1615
I340
ssVlarge
p1616
(dp1617
Vh
p1618
I854
sVresize
p1619
Vfit
p1620
sVw
p1621
I480
ssVmedium
p1622
(dp1623
Vh
p1624
I854
sVresize
p1625
Vfit
p1626
sVw
p1627
I480
ssVthumb
p1628
(dp1629
Vh
p1630
I150
sVresize
p1631
Vcrop
p1632
sVw
p1633
I150
sssVindices
p1634
(lp1635
I139
aI140
asVtype
p1636
Vphoto
p1637
sVid
p1638
I542521959632748545
sVmedia_url
p1639
Vhttp://pbs.twimg.com/media/B4ds2Q7CQAE-H28.jpg
p1640
sasg67
Nsg68
Nsg69
Nsg70
VSun Dec 14 14:29:48 +0000 2014
p1641
sg72
Nsg73
I00
sg74
Nsg75
Nsg76
Nsg77
Nsg78
I00
sg79
Nsg80
(lp1642
g3
(g91
g5
Ntp1643
Rp1644
(dp1645
g10
Nsg96
Nsg98
Nsg100
Nsg102
Nsg103
Nsg70
Nsg105
Nsg106
Nsg108
Nsg110
Nsg111
Nsg112
Nsg113
Nsg114
Nsg115
Nsg117
Nsg118
Nsg119
Nsg121
Nsg122
Nsg123
Nsg125
Vcallmeyoyo007
p1646
sg127
Nsg128
VYoyohoneysingh
p1647
sg130
Nsg132
Nsg133
I2772144096
sg134
Nsbasg82
Nsg83
Nsg84
Nsg85
VRT @callmeyoyo007: "He is suffering from Cancer \U0001f614\u000a\u000aRT TO SUPPORT HIM\u000a\u000aClick for full story \U0001f449 http://t.co/mIxWIY01vq.\u2665\u2665\u2665\u2665 http://t.co/iCvc2a\u2026
p1648
sg87
I00
sg88
Ven
p1649
sg90
g3
(g91
g5
Ntp1650
Rp1651
(dp1652
g10
VUNITED STATES 
p1653
sg96
V333333
p1654
sg98
Ven-gb
p1655
sg100
VNew Delhi
p1656
sg102
I59165
sg103
I645
sg70
VWed Sep 03 06:04:21 +0000 2014
p1657
sg105
I00
sg106
VWe share some amazing,shocking and unbelievable hidden secrets that U wont get anywhere else. Come join us to enhance ur knowledge about some serious things);
p1658
sg108
Vhttps://pbs.twimg.com/profile_images/543461514112294913/EUDfqNDS_normal.jpeg
p1659
sg110
I52107
sg111
I3
sg112
I19800
sg113
Nsg114
I00
sg115
Vhttps://pbs.twimg.com/profile_banners/2760125603/1418406209
p1660
sg117
I00
sg118
I00
sg119
V0084B4
p1661
sg121
I00
sg122
I00
sg123
Vhttp://abs.twimg.com/images/themes/theme1/bg.png
p1662
sg125
Vsiona_same
p1663
sg127
I102
sg128
VDid you Know?
p1664
sg130
VDDEEF6
p1665
sg132
Nsg133
I2760125603
sg134
VC0DEED
p1666
sbsg136
I339
sg137
V<a href="http://twitter.com/download/android" rel="nofollow">Twitter for Android</a>
p1667
sg139
(lp1668
g3
(g141
g5
Ntp1669
Rp1670
(dp1671
g145
Vhttp://t.co/mIxWIY01vq
p1672
sg147
Vhttp://bit.ly/12qxTiQ
p1673
sbasg133
I544137180918972416
sbag3
(g4
g5
Ntp1674
Rp1675
(dp1676
g9
I0
sg10
Nsg11
Nsg12
(lp1677
sg14
I00
sg15
g3
(g4
g5
Ntp1678
Rp1679
(dp1680
g9
I100
sg10
Nsg11
Nsg12
(lp1681
sg14
I00
sg15
Nsg20
Nsg21
(lp1682
(dp1683
Vexpanded_url
p1684
Vhttp://twitter.com/callmeyoyo007/status/542522411095044097/photo/1
p1685
sVdisplay_url
p1686
Vpic.twitter.com/fLr5piKYnU
p1687
sVurl
p1688
Vhttp://t.co/fLr5piKYnU
p1689
sVmedia_url_https
p1690
Vhttps://pbs.twimg.com/media/B4dtNI5CMAEruSh.jpg
p1691
sVid_str
p1692
V542522352613863425
p1693
sVsizes
p1694
(dp1695
Vlarge
p1696
(dp1697
Vh
p1698
I800
sVresize
p1699
Vfit
p1700
sVw
p1701
I600
ssVsmall
p1702
(dp1703
Vh
p1704
I453
sVresize
p1705
Vfit
p1706
sVw
p1707
I340
ssVmedium
p1708
(dp1709
Vh
p1710
I800
sVresize
p1711
Vfit
p1712
sVw
p1713
I600
ssVthumb
p1714
(dp1715
Vh
p1716
I150
sVresize
p1717
Vcrop
p1718
sVw
p1719
I150
sssVindices
p1720
(lp1721
I72
aI94
asVtype
p1722
Vphoto
p1723
sVid
p1724
I542522352613863425
sVmedia_url
p1725
Vhttp://pbs.twimg.com/media/B4dtNI5CMAEruSh.jpg
p1726
sasg67
Nsg68
Nsg69
Nsg70
VWed Dec 10 03:33:17 +0000 2014
p1727
sg72
Nsg73
I00
sg74
Nsg75
Nsg76
Nsg77
Nsg78
I00
sg79
Nsg80
(lp1728
sg82
Nsg83
Nsg84
Nsg85
Vmost-shocking-cameltoes-in-sport &gt;===&gt;&gt; http://t.co/mIxWIY01vq http://t.co/fLr5piKYnU
p1729
sg87
I00
sg88
Ven
p1730
sg90
g3
(g91
g5
Ntp1731
Rp1732
(dp1733
g10
g95
sg96
V333333
p1734
sg98
Ven
p1735
sg100
Nsg102
I16745
sg103
I173
sg70
VWed Aug 27 02:40:50 +0000 2014
p1736
sg105
I00
sg106
g95
sg108
Vhttps://pbs.twimg.com/profile_images/504459032606679040/NkxMTrld_normal.jpeg
p1737
sg110
I16557
sg111
I4
sg112
Nsg113
Nsg114
I00
sg115
Vhttps://pbs.twimg.com/profile_banners/2772144096/1409107378
p1738
sg117
I00
sg118
I00
sg119
V0084B4
p1739
sg121
I00
sg122
I00
sg123
Vhttp://abs.twimg.com/images/themes/theme1/bg.png
p1740
sg125
Vcallmeyoyo007
p1741
sg127
I12
sg128
VYoyohoneysingh
p1742
sg130
VDDEEF6
p1743
sg132
Nsg133
I2772144096
sg134
VC0DEED
p1744
sbsg136
I51
sg137
V<a href="http://twitter.com/download/android" rel="nofollow">Twitter for Android</a>
p1745
sg139
(lp1746
g3
(g141
g5
Ntp1747
Rp1748
(dp1749
g145
Vhttp://t.co/mIxWIY01vq
p1750
sg147
Vhttp://bit.ly/12qxTiQ
p1751
sbasg133
I542522411095044097
sbsg20
Nsg21
(lp1752
(dp1753
Vsource_user_id
p1754
I2772144096
sVsource_status_id_str
p1755
V542522411095044097
p1756
sVexpanded_url
p1757
Vhttp://twitter.com/callmeyoyo007/status/542522411095044097/photo/1
p1758
sVdisplay_url
p1759
Vpic.twitter.com/fLr5piKYnU
p1760
sVurl
p1761
Vhttp://t.co/fLr5piKYnU
p1762
sVmedia_url_https
p1763
Vhttps://pbs.twimg.com/media/B4dtNI5CMAEruSh.jpg
p1764
sVsource_user_id_str
p1765
V2772144096
p1766
sVsource_status_id
p1767
I542522411095044097
sVid_str
p1768
V542522352613863425
p1769
sVsizes
p1770
(dp1771
Vlarge
p1772
(dp1773
Vh
p1774
I800
sVresize
p1775
Vfit
p1776
sVw
p1777
I600
ssVsmall
p1778
(dp1779
Vh
p1780
I453
sVresize
p1781
Vfit
p1782
sVw
p1783
I340
ssVmedium
p1784
(dp1785
Vh
p1786
I800
sVresize
p1787
Vfit
p1788
sVw
p1789
I600
ssVthumb
p1790
(dp1791
Vh
p1792
I150
sVresize
p1793
Vcrop
p1794
sVw
p1795
I150
sssVindices
p1796
(lp1797
I91
aI113
asVtype
p1798
Vphoto
p1799
sVid
p1800
I542522352613863425
sVmedia_url
p1801
Vhttp://pbs.twimg.com/media/B4dtNI5CMAEruSh.jpg
p1802
sasg67
Nsg68
Nsg69
Nsg70
VSun Dec 14 14:29:45 +0000 2014
p1803
sg72
Nsg73
I00
sg74
Nsg75
Nsg76
Nsg77
Nsg78
I00
sg79
Nsg80
(lp1804
g3
(g91
g5
Ntp1805
Rp1806
(dp1807
g10
Nsg96
Nsg98
Nsg100
Nsg102
Nsg103
Nsg70
Nsg105
Nsg106
Nsg108
Nsg110
Nsg111
Nsg112
Nsg113
Nsg114
Nsg115
Nsg117
Nsg118
Nsg119
Nsg121
Nsg122
Nsg123
Nsg125
Vcallmeyoyo007
p1808
sg127
Nsg128
VYoyohoneysingh
p1809
sg130
Nsg132
Nsg133
I2772144096
sg134
Nsbasg82
Nsg83
Nsg84
Nsg85
VRT @callmeyoyo007: most-shocking-cameltoes-in-sport &gt;===&gt;&gt; http://t.co/mIxWIY01vq http://t.co/fLr5piKYnU
p1810
sg87
I00
sg88
Ven
p1811
sg90
g3
(g91
g5
Ntp1812
Rp1813
(dp1814
g10
VUNITED STATES 
p1815
sg96
V333333
p1816
sg98
Ven-gb
p1817
sg100
VNew Delhi
p1818
sg102
I59165
sg103
I645
sg70
VWed Sep 03 06:04:21 +0000 2014
p1819
sg105
I00
sg106
VWe share some amazing,shocking and unbelievable hidden secrets that U wont get anywhere else. Come join us to enhance ur knowledge about some serious things);
p1820
sg108
Vhttps://pbs.twimg.com/profile_images/543461514112294913/EUDfqNDS_normal.jpeg
p1821
sg110
I52107
sg111
I3
sg112
I19800
sg113
Nsg114
I00
sg115
Vhttps://pbs.twimg.com/profile_banners/2760125603/1418406209
p1822
sg117
I00
sg118
I00
sg119
V0084B4
p1823
sg121
I00
sg122
I00
sg123
Vhttp://abs.twimg.com/images/themes/theme1/bg.png
p1824
sg125
Vsiona_same
p1825
sg127
I102
sg128
VDid you Know?
p1826
sg130
VDDEEF6
p1827
sg132
Nsg133
I2760125603
sg134
VC0DEED
p1828
sbsg136
I51
sg137
V<a href="http://twitter.com/download/android" rel="nofollow">Twitter for Android</a>
p1829
sg139
(lp1830
g3
(g141
g5
Ntp1831
Rp1832
(dp1833
g145
Vhttp://t.co/mIxWIY01vq
p1834
sg147
Vhttp://bit.ly/12qxTiQ
p1835
sbasg133
I544137170353520641
sbag3
(g4
g5
Ntp1836
Rp1837
(dp1838
g9
I0
sg10
Nsg11
Nsg12
(lp1839
sg14
I00
sg15
g3
(g4
g5
Ntp1840
Rp1841
(dp1842
g9
I45
sg10
Nsg11
Nsg12
(lp1843
sg14
I00
sg15
Nsg20
Nsg21
(lp1844
(dp1845
Vexpanded_url
p1846
Vhttp://twitter.com/callmeyoyo007/status/542522916068282370/photo/1
p1847
sVdisplay_url
p1848
Vpic.twitter.com/1gm3hf0rqi
p1849
sVurl
p1850
Vhttp://t.co/1gm3hf0rqi
p1851
sVmedia_url_https
p1852
Vhttps://pbs.twimg.com/media/B4dttrNCAAAywys.jpg
p1853
sVid_str
p1854
V542522911580356608
p1855
sVsizes
p1856
(dp1857
Vlarge
p1858
(dp1859
Vh
p1860
I250
sVresize
p1861
Vfit
p1862
sVw
p1863
I500
ssVsmall
p1864
(dp1865
Vh
p1866
I170
sVresize
p1867
Vfit
p1868
sVw
p1869
I340
ssVmedium
p1870
(dp1871
Vh
p1872
I250
sVresize
p1873
Vfit
p1874
sVw
p1875
I500
ssVthumb
p1876
(dp1877
Vh
p1878
I150
sVresize
p1879
Vcrop
p1880
sVw
p1881
I150
sssVindices
p1882
(lp1883
I94
aI116
asVtype
p1884
Vphoto
p1885
sVid
p1886
I542522911580356608
sVmedia_url
p1887
Vhttp://pbs.twimg.com/media/B4dttrNCAAAywys.jpg
p1888
sasg67
Nsg68
Nsg69
Nsg70
VWed Dec 10 03:35:17 +0000 2014
p1889
sg72
Nsg73
I00
sg74
Nsg75
Nsg76
Nsg77
Nsg78
I00
sg79
Nsg80
(lp1890
sg82
Nsg83
Nsg84
Nsg85
V13 Perfectly Timed Cheerleading Photos\u000aSee More click Here&gt;&gt;&gt; http://t.co/mIxWIY01vq http://t.co/1gm3hf0rqi
p1891
sg87
I00
sg88
Ven
p1892
sg90
g3
(g91
g5
Ntp1893
Rp1894
(dp1895
g10
g95
sg96
V333333
p1896
sg98
Ven
p1897
sg100
Nsg102
I16745
sg103
I173
sg70
VWed Aug 27 02:40:50 +0000 2014
p1898
sg105
I00
sg106
g95
sg108
Vhttps://pbs.twimg.com/profile_images/504459032606679040/NkxMTrld_normal.jpeg
p1899
sg110
I16557
sg111
I4
sg112
Nsg113
Nsg114
I00
sg115
Vhttps://pbs.twimg.com/profile_banners/2772144096/1409107378
p1900
sg117
I00
sg118
I00
sg119
V0084B4
p1901
sg121
I00
sg122
I00
sg123
Vhttp://abs.twimg.com/images/themes/theme1/bg.png
p1902
sg125
Vcallmeyoyo007
p1903
sg127
I12
sg128
VYoyohoneysingh
p1904
sg130
VDDEEF6
p1905
sg132
Nsg133
I2772144096
sg134
VC0DEED
p1906
sbsg136
I48
sg137
V<a href="http://twitter.com/download/android" rel="nofollow">Twitter for Android</a>
p1907
sg139
(lp1908
g3
(g141
g5
Ntp1909
Rp1910
(dp1911
g145
Vhttp://t.co/mIxWIY01vq
p1912
sg147
Vhttp://bit.ly/12qxTiQ
p1913
sbasg133
I542522916068282370
sbsg20
Nsg21
(lp1914
(dp1915
Vsource_user_id
p1916
I2772144096
sVsource_status_id_str
p1917
V542522916068282370
p1918
sVexpanded_url
p1919
Vhttp://twitter.com/callmeyoyo007/status/542522916068282370/photo/1
p1920
sVdisplay_url
p1921
Vpic.twitter.com/1gm3hf0rqi
p1922
sVurl
p1923
Vhttp://t.co/1gm3hf0rqi
p1924
sVmedia_url_https
p1925
Vhttps://pbs.twimg.com/media/B4dttrNCAAAywys.jpg
p1926
sVsource_user_id_str
p1927
V2772144096
p1928
sVsource_status_id
p1929
I542522916068282370
sVid_str
p1930
V542522911580356608
p1931
sVsizes
p1932
(dp1933
Vlarge
p1934
(dp1935
Vh
p1936
I250
sVresize
p1937
Vfit
p1938
sVw
p1939
I500
ssVsmall
p1940
(dp1941
Vh
p1942
I170
sVresize
p1943
Vfit
p1944
sVw
p1945
I340
ssVmedium
p1946
(dp1947
Vh
p1948
I250
sVresize
p1949
Vfit
p1950
sVw
p1951
I500
ssVthumb
p1952
(dp1953
Vh
p1954
I150
sVresize
p1955
Vcrop
p1956
sVw
p1957
I150
sssVindices
p1958
(lp1959
I113
aI135
asVtype
p1960
Vphoto
p1961
sVid
p1962
I542522911580356608
sVmedia_url
p1963
Vhttp://pbs.twimg.com/media/B4dttrNCAAAywys.jpg
p1964
sasg67
Nsg68
Nsg69
Nsg70
VSun Dec 14 14:29:45 +0000 2014
p1965
sg72
Nsg73
I00
sg74
Nsg75
Nsg76
Nsg77
Nsg78
I00
sg79
Nsg80
(lp1966
g3
(g91
g5
Ntp1967
Rp1968
(dp1969
g10
Nsg96
Nsg98
Nsg100
Nsg102
Nsg103
Nsg70
Nsg105
Nsg106
Nsg108
Nsg110
Nsg111
Nsg112
Nsg113
Nsg114
Nsg115
Nsg117
Nsg118
Nsg119
Nsg121
Nsg122
Nsg123
Nsg125
Vcallmeyoyo007
p1970
sg127
Nsg128
VYoyohoneysingh
p1971
sg130
Nsg132
Nsg133
I2772144096
sg134
Nsbasg82
Nsg83
Nsg84
Nsg85
VRT @callmeyoyo007: 13 Perfectly Timed Cheerleading Photos\u000aSee More click Here&gt;&gt;&gt; http://t.co/mIxWIY01vq http://t.co/1gm3hf0rqi
p1972
sg87
I00
sg88
Ven
p1973
sg90
g3
(g91
g5
Ntp1974
Rp1975
(dp1976
g10
VUNITED STATES 
p1977
sg96
V333333
p1978
sg98
Ven-gb
p1979
sg100
VNew Delhi
p1980
sg102
I59165
sg103
I645
sg70
VWed Sep 03 06:04:21 +0000 2014
p1981
sg105
I00
sg106
VWe share some amazing,shocking and unbelievable hidden secrets that U wont get anywhere else. Come join us to enhance ur knowledge about some serious things);
p1982
sg108
Vhttps://pbs.twimg.com/profile_images/543461514112294913/EUDfqNDS_normal.jpeg
p1983
sg110
I52107
sg111
I3
sg112
I19800
sg113
Nsg114
I00
sg115
Vhttps://pbs.twimg.com/profile_banners/2760125603/1418406209
p1984
sg117
I00
sg118
I00
sg119
V0084B4
p1985
sg121
I00
sg122
I00
sg123
Vhttp://abs.twimg.com/images/themes/theme1/bg.png
p1986
sg125
Vsiona_same
p1987
sg127
I102
sg128
VDid you Know?
p1988
sg130
VDDEEF6
p1989
sg132
Nsg133
I2760125603
sg134
VC0DEED
p1990
sbsg136
I48
sg137
V<a href="http://twitter.com/download/android" rel="nofollow">Twitter for Android</a>
p1991
sg139
(lp1992
g3
(g141
g5
Ntp1993
Rp1994
(dp1995
g145
Vhttp://t.co/mIxWIY01vq
p1996
sg147
Vhttp://bit.ly/12qxTiQ
p1997
sbasg133
I544137170349346817
sbag3
(g4
g5
Ntp1998
Rp1999
(dp2000
g9
I2
sg10
Nsg11
Nsg12
(lp2001
sg14
I00
sg15
Nsg20
Nsg21
(lp2002
sg67
Nsg68
Nsg69
Nsg70
VSun Dec 14 04:18:01 +0000 2014
p2003
sg72
Nsg73
Nsg74
Nsg75
Nsg76
Nsg77
Nsg78
I00
sg79
Nsg80
(lp2004
sg82
Nsg83
Nsg84
Nsg85
VLife is not about waiting for the storm to pass, it's about learning how to dance in the rain."
p2005
sg87
I00
sg88
Ven
p2006
sg90
g3
(g91
g5
Ntp2007
Rp2008
(dp2009
g10
VUNITED STATES 
p2010
sg96
V333333
p2011
sg98
Ven-gb
p2012
sg100
VNew Delhi
p2013
sg102
I59165
sg103
I645
sg70
VWed Sep 03 06:04:21 +0000 2014
p2014
sg105
I00
sg106
VWe share some amazing,shocking and unbelievable hidden secrets that U wont get anywhere else. Come join us to enhance ur knowledge about some serious things);
p2015
sg108
Vhttps://pbs.twimg.com/profile_images/543461514112294913/EUDfqNDS_normal.jpeg
p2016
sg110
I52107
sg111
I3
sg112
I19800
sg113
Nsg114
I00
sg115
Vhttps://pbs.twimg.com/profile_banners/2760125603/1418406209
p2017
sg117
I00
sg118
I00
sg119
V0084B4
p2018
sg121
I00
sg122
I00
sg123
Vhttp://abs.twimg.com/images/themes/theme1/bg.png
p2019
sg125
Vsiona_same
p2020
sg127
I102
sg128
VDid you Know?
p2021
sg130
VDDEEF6
p2022
sg132
Nsg133
I2760125603
sg134
VC0DEED
p2023
sbsg136
I2
sg137
V<a href="http://twitter.com/download/android" rel="nofollow">Twitter for Android</a>
p2024
sg139
(lp2025
sg133
I543983221549981696
sbag3
(g4
g5
Ntp2026
Rp2027
(dp2028
g9
I6
sg10
Nsg11
Nsg12
(lp2029
sg14
I00
sg15
Nsg20
Nsg21
(lp2030
sg67
Nsg68
Nsg69
Nsg70
VSat Dec 13 00:45:05 +0000 2014
p2031
sg72
Nsg73
Nsg74
Nsg75
Nsg76
Nsg77
Nsg78
I00
sg79
Nsg80
(lp2032
sg82
Nsg83
Nsg84
Nsg85
VMusic is so influential on the brain that the type you listen to actually has the ability to change the way you think and look at the world"
p2033
sg87
I00
sg88
Ven
p2034
sg90
g3
(g91
g5
Ntp2035
Rp2036
(dp2037
g10
VUNITED STATES 
p2038
sg96
V333333
p2039
sg98
Ven-gb
p2040
sg100
VNew Delhi
p2041
sg102
I59165
sg103
I645
sg70
VWed Sep 03 06:04:21 +0000 2014
p2042
sg105
I00
sg106
VWe share some amazing,shocking and unbelievable hidden secrets that U wont get anywhere else. Come join us to enhance ur knowledge about some serious things);
p2043
sg108
Vhttps://pbs.twimg.com/profile_images/543461514112294913/EUDfqNDS_normal.jpeg
p2044
sg110
I52107
sg111
I3
sg112
I19800
sg113
Nsg114
I00
sg115
Vhttps://pbs.twimg.com/profile_banners/2760125603/1418406209
p2045
sg117
I00
sg118
I00
sg119
V0084B4
p2046
sg121
I00
sg122
I00
sg123
Vhttp://abs.twimg.com/images/themes/theme1/bg.png
p2047
sg125
Vsiona_same
p2048
sg127
I102
sg128
VDid you Know?
p2049
sg130
VDDEEF6
p2050
sg132
Nsg133
I2760125603
sg134
VC0DEED
p2051
sbsg136
I12
sg137
V<a href="http://twitter.com/download/android" rel="nofollow">Twitter for Android</a>
p2052
sg139
(lp2053
sg133
I543567247457779713
sbag3
(g4
g5
Ntp2054
Rp2055
(dp2056
g9
I8
sg10
Nsg11
Nsg12
(lp2057
sg14
I00
sg15
Nsg20
Nsg21
(lp2058
sg67
Nsg68
Nsg69
Nsg70
VSat Dec 13 00:43:32 +0000 2014
p2059
sg72
Nsg73
Nsg74
Nsg75
Nsg76
Nsg77
Nsg78
I00
sg79
Nsg80
(lp2060
sg82
Nsg83
Nsg84
Nsg85
VSometimes the bad things that happen in our lives put us directly on the path to the best things that will ever happen to us."
p2061
sg87
I00
sg88
Ven
p2062
sg90
g3
(g91
g5
Ntp2063
Rp2064
(dp2065
g10
VUNITED STATES 
p2066
sg96
V333333
p2067
sg98
Ven-gb
p2068
sg100
VNew Delhi
p2069
sg102
I59165
sg103
I645
sg70
VWed Sep 03 06:04:21 +0000 2014
p2070
sg105
I00
sg106
VWe share some amazing,shocking and unbelievable hidden secrets that U wont get anywhere else. Come join us to enhance ur knowledge about some serious things);
p2071
sg108
Vhttps://pbs.twimg.com/profile_images/543461514112294913/EUDfqNDS_normal.jpeg
p2072
sg110
I52107
sg111
I3
sg112
I19800
sg113
Nsg114
I00
sg115
Vhttps://pbs.twimg.com/profile_banners/2760125603/1418406209
p2073
sg117
I00
sg118
I00
sg119
V0084B4
p2074
sg121
I00
sg122
I00
sg123
Vhttp://abs.twimg.com/images/themes/theme1/bg.png
p2075
sg125
Vsiona_same
p2076
sg127
I102
sg128
VDid you Know?
p2077
sg130
VDDEEF6
p2078
sg132
Nsg133
I2760125603
sg134
VC0DEED
p2079
sbsg136
I17
sg137
V<a href="http://twitter.com/download/android" rel="nofollow">Twitter for Android</a>
p2080
sg139
(lp2081
sg133
I543566858306060288
sbaa.