(lp0
S'TittyGods'
p1
a(lp2
ccopy_reg
_reconstructor
p3
(ctwitter.status
Status
p4
c__builtin__
object
p5
Ntp6
Rp7
(dp8
S'_favorite_count'
p9
I0
sS'_location'
p10
NsS'_withheld_scope'
p11
NsS'hashtags'
p12
(lp13
sS'_truncated'
p14
I00
sS'_retweeted_status'
p15
g3
(g4
g5
Ntp16
Rp17
(dp18
g9
I1
sg10
Nsg11
Nsg12
(lp19
sg14
I00
sg15
NsS'_withheld_copyright'
p20
NsS'media'
p21
(lp22
(dp23
Vsource_user_id
p24
I2381747401
sVsource_status_id_str
p25
V540211529526689792
p26
sVexpanded_url
p27
Vhttp://twitter.com/WomensHeaIthNow/status/540211529526689792/photo/1
p28
sVdisplay_url
p29
Vpic.twitter.com/ZJG5fJfobT
p30
sVurl
p31
Vhttp://t.co/ZJG5fJfobT
p32
sVmedia_url_https
p33
Vhttps://pbs.twimg.com/media/B383hfUCIAA-3Cx.png
p34
sVsource_user_id_str
p35
V2381747401
p36
sVsource_status_id
p37
I540211529526689792
sVid_str
p38
V540211528788484096
p39
sVsizes
p40
(dp41
Vsmall
p42
(dp43
Vh
p44
I340
sVresize
p45
Vfit
p46
sVw
p47
I340
ssVlarge
p48
(dp49
Vh
p50
I574
sVresize
p51
Vfit
p52
sVw
p53
I574
ssVmedium
p54
(dp55
Vh
p56
I574
sVresize
p57
Vfit
p58
sVw
p59
I574
ssVthumb
p60
(dp61
Vh
p62
I150
sVresize
p63
Vcrop
p64
sVw
p65
I150
sssVindices
p66
(lp67
I90
aI112
asVtype
p68
Vphoto
p69
sVid
p70
I540211528788484096
sVmedia_url
p71
Vhttp://pbs.twimg.com/media/B383hfUCIAA-3Cx.png
p72
sasS'_place'
p73
NsS'_contributors'
p74
NsS'_current_user_retweet'
p75
NsS'_created_at'
p76
VSun Dec 14 16:40:33 +0000 2014
p77
sS'_scopes'
p78
NsS'_possibly_sensitive'
p79
I00
sS'_in_reply_to_screen_name'
p80
NsS'_coordinates'
p81
NsS'_in_reply_to_user_id'
p82
NsS'_geo'
p83
NsS'_favorited'
p84
I00
sS'_withheld_in_countries'
p85
NsS'user_mentions'
p86
(lp87
sS'_now'
p88
NsS'_id_str'
p89
NsS'_in_reply_to_status_id'
p90
NsS'_text'
p91
VGet the perfect body in 4 weeks with this simple 2 step method... \u000ahttp://t.co/w5862dOB1M\u000ahttp://t.co/ZJG5fJfobT
p92
sS'_retweeted'
p93
I00
sS'lang'
p94
Ven
p95
sS'_user'
p96
g3
(ctwitter.user
User
p97
g5
Ntp98
Rp99
(dp100
g10
VNEW YORK
p101
sS'_profile_text_color'
p102
V333333
p103
sS'_lang'
p104
Ven
p105
sS'_time_zone'
p106
VEastern Time (US & Canada)
p107
sS'_followers_count'
p108
I4290
sS'_statuses_count'
p109
I304
sg76
VSun Oct 05 02:49:56 +0000 2014
p110
sS'_verified'
p111
I00
sS'_description'
p112
VFitness Products available. #HealthyLifestyle #StayInShape
p113
sS'_profile_image_url'
p114
Vhttps://pbs.twimg.com/profile_images/543364312861913088/cu1E7yLp_normal.jpeg
p115
sS'_friends_count'
p116
I3531
sS'_favourites_count'
p117
I210
sS'_utc_offset'
p118
I-18000
sS'_status'
p119
NsS'_protected'
p120
I00
sS'_profile_banner_url'
p121
Vhttps://pbs.twimg.com/profile_banners/2806620167/1418383091
p122
sS'_notifications'
p123
I00
sS'_profile_background_tile'
p124
I00
sS'_profile_link_color'
p125
V0084B4
p126
sS'_geo_enabled'
p127
I00
sS'_contributors_enabled'
p128
I00
sS'_profile_background_image_url'
p129
Vhttp://abs.twimg.com/images/themes/theme1/bg.png
p130
sS'_screen_name'
p131
VMusclePr0ducts
p132
sS'_listed_count'
p133
I1
sS'_name'
p134
VMuscle Products
p135
sS'_profile_sidebar_fill_color'
p136
VDDEEF6
p137
sS'_url'
p138
Vhttp://t.co/NdelrLmEWt
p139
sS'_id'
p140
I2806620167
sS'_profile_background_color'
p141
VC0DEED
p142
sbsS'_retweet_count'
p143
I36
sS'_source'
p144
V<a href="https://about.twitter.com/products/tweetdeck" rel="nofollow">TweetDeck</a>
p145
sS'urls'
p146
(lp147
g3
(ctwitter.url
Url
p148
g5
Ntp149
Rp150
(dp151
S'url'
p152
Vhttp://t.co/w5862dOB1M
p153
sS'expanded_url'
p154
Vhttp://be-heaIthy.com/ZyTzYp
p155
sbasg140
I544170087054184448
sbsg20
Nsg21
(lp156
(dp157
Vsource_user_id
p158
I2381747401
sVsource_status_id_str
p159
V540211529526689792
p160
sVexpanded_url
p161
Vhttp://twitter.com/WomensHeaIthNow/status/540211529526689792/photo/1
p162
sVdisplay_url
p163
Vpic.twitter.com/ZJG5fJfobT
p164
sVurl
p165
Vhttp://t.co/ZJG5fJfobT
p166
sVmedia_url_https
p167
Vhttps://pbs.twimg.com/media/B383hfUCIAA-3Cx.png
p168
sVsource_user_id_str
p169
V2381747401
p170
sVsource_status_id
p171
I540211529526689792
sVid_str
p172
V540211528788484096
p173
sVsizes
p174
(dp175
Vsmall
p176
(dp177
Vh
p178
I340
sVresize
p179
Vfit
p180
sVw
p181
I340
ssVlarge
p182
(dp183
Vh
p184
I574
sVresize
p185
Vfit
p186
sVw
p187
I574
ssVmedium
p188
(dp189
Vh
p190
I574
sVresize
p191
Vfit
p192
sVw
p193
I574
ssVthumb
p194
(dp195
Vh
p196
I150
sVresize
p197
Vcrop
p198
sVw
p199
I150
sssVindices
p200
(lp201
I110
aI132
asVtype
p202
Vphoto
p203
sVid
p204
I540211528788484096
sVmedia_url
p205
Vhttp://pbs.twimg.com/media/B383hfUCIAA-3Cx.png
p206
sasg73
Nsg74
Nsg75
Nsg76
VSun Dec 14 19:39:54 +0000 2014
p207
sg78
Nsg79
I00
sg80
Nsg81
Nsg82
Nsg83
Nsg84
I00
sg85
Nsg86
(lp208
g3
(g97
g5
Ntp209
Rp210
(dp211
g10
Nsg102
Nsg104
Nsg106
Nsg108
Nsg109
Nsg76
Nsg111
Nsg112
Nsg114
Nsg116
Nsg117
Nsg118
Nsg119
Nsg120
Nsg121
Nsg123
Nsg124
Nsg125
Nsg127
Nsg128
Nsg129
Nsg131
VMusclePr0ducts
p212
sg133
Nsg134
VMuscle Products
p213
sg136
Nsg138
Nsg140
I2806620167
sg141
Nsbasg88
Nsg89
Nsg90
Nsg91
VRT @MusclePr0ducts: Get the perfect body in 4 weeks with this simple 2 step method... \u000ahttp://t.co/w5862dOB1M\u000ahttp://t.co/ZJG5fJfobT
p214
sg93
I00
sg94
Ven
p215
sg96
g3
(g97
g5
Ntp216
Rp217
(dp218
g10
V
p219
sg102
V333333
p220
sg104
Ven
p221
sg106
VEastern Time (US & Canada)
p222
sg108
I79002
sg109
I94733
sg76
VWed Apr 02 03:05:37 +0000 2014
p223
sg111
I00
sg112
Vcheck out the hottest girls of 2014 --- webstie http://t.co/GLeigCsiG5 ---
p224
sg114
Vhttps://pbs.twimg.com/profile_images/483835441162895361/gqXo6svJ_normal.jpeg
p225
sg116
I38936
sg117
I1836
sg118
I-18000
sg119
Nsg120
I00
sg121
Vhttps://pbs.twimg.com/profile_banners/2423097876/1404262150
p226
sg123
I00
sg124
I00
sg125
V0084B4
p227
sg127
I00
sg128
I00
sg129
Vhttp://abs.twimg.com/images/themes/theme1/bg.png
p228
sg131
VTittyGods
p229
sg133
I76
sg134
Vboobs
p230
sg136
VDDEEF6
p231
sg138
Vhttp://t.co/zrh7XvHy8k
p232
sg140
I2423097876
sg141
VC0DEED
p233
sbsg143
I36
sg144
V<a href="http://www.hootsuite.com" rel="nofollow">Hootsuite</a>
p234
sg146
(lp235
g3
(g148
g5
Ntp236
Rp237
(dp238
g152
Vhttp://t.co/w5862dOB1M
p239
sg154
Vhttp://be-heaIthy.com/ZyTzYp
p240
sbasg140
I544215221125279745
sbag3
(g4
g5
Ntp241
Rp242
(dp243
g9
I0
sg10
Nsg11
Nsg12
(lp244
sg14
I00
sg15
g3
(g4
g5
Ntp245
Rp246
(dp247
g9
I2
sg10
Nsg11
Nsg12
(lp248
sg14
I00
sg15
Nsg20
Nsg21
(lp249
(dp250
Vsource_user_id
p251
I2381747401
sVsource_status_id_str
p252
V540211594450309120
p253
sVexpanded_url
p254
Vhttp://twitter.com/WomensHeaIthNow/status/540211594450309120/photo/1
p255
sVdisplay_url
p256
Vpic.twitter.com/l052sreMtl
p257
sVurl
p258
Vhttp://t.co/l052sreMtl
p259
sVmedia_url_https
p260
Vhttps://pbs.twimg.com/media/B383lP3CcAAhX6t.png
p261
sVsource_user_id_str
p262
V2381747401
p263
sVsource_status_id
p264
I540211594450309120
sVid_str
p265
V540211593359814656
p266
sVsizes
p267
(dp268
Vsmall
p269
(dp270
Vh
p271
I379
sVresize
p272
Vfit
p273
sVw
p274
I340
ssVlarge
p275
(dp276
Vh
p277
I672
sVresize
p278
Vfit
p279
sVw
p280
I602
ssVmedium
p281
(dp282
Vh
p283
I669
sVresize
p284
Vfit
p285
sVw
p286
I600
ssVthumb
p287
(dp288
Vh
p289
I150
sVresize
p290
Vcrop
p291
sVw
p292
I150
sssVindices
p293
(lp294
I99
aI121
asVtype
p295
Vphoto
p296
sVid
p297
I540211593359814656
sVmedia_url
p298
Vhttp://pbs.twimg.com/media/B383lP3CcAAhX6t.png
p299
sasg73
Nsg74
Nsg75
Nsg76
VSun Dec 14 16:40:40 +0000 2014
p300
sg78
Nsg79
I00
sg80
Nsg81
Nsg82
Nsg83
Nsg84
I00
sg85
Nsg86
(lp301
sg88
Nsg89
Nsg90
Nsg91
V95% of high school girls use this to lose weight for a PERFECT Bikini Body!\u000ahttp://t.co/w5862dOB1M\u000ahttp://t.co/l052sreMtl
p302
sg93
I00
sg94
Ven
p303
sg96
g3
(g97
g5
Ntp304
Rp305
(dp306
g10
VNEW YORK
p307
sg102
V333333
p308
sg104
Ven
p309
sg106
VEastern Time (US & Canada)
p310
sg108
I4290
sg109
I304
sg76
VSun Oct 05 02:49:56 +0000 2014
p311
sg111
I00
sg112
VFitness Products available. #HealthyLifestyle #StayInShape
p312
sg114
Vhttps://pbs.twimg.com/profile_images/543364312861913088/cu1E7yLp_normal.jpeg
p313
sg116
I3531
sg117
I210
sg118
I-18000
sg119
Nsg120
I00
sg121
Vhttps://pbs.twimg.com/profile_banners/2806620167/1418383091
p314
sg123
I00
sg124
I00
sg125
V0084B4
p315
sg127
I00
sg128
I00
sg129
Vhttp://abs.twimg.com/images/themes/theme1/bg.png
p316
sg131
VMusclePr0ducts
p317
sg133
I1
sg134
VMuscle Products
p318
sg136
VDDEEF6
p319
sg138
Vhttp://t.co/NdelrLmEWt
p320
sg140
I2806620167
sg141
VC0DEED
p321
sbsg143
I41
sg144
V<a href="https://about.twitter.com/products/tweetdeck" rel="nofollow">TweetDeck</a>
p322
sg146
(lp323
g3
(g148
g5
Ntp324
Rp325
(dp326
g152
Vhttp://t.co/w5862dOB1M
p327
sg154
Vhttp://be-heaIthy.com/ZyTzYp
p328
sbasg140
I544170114895978496
sbsg20
Nsg21
(lp329
(dp330
Vsource_user_id
p331
I2381747401
sVsource_status_id_str
p332
V540211594450309120
p333
sVexpanded_url
p334
Vhttp://twitter.com/WomensHeaIthNow/status/540211594450309120/photo/1
p335
sVdisplay_url
p336
Vpic.twitter.com/l052sreMtl
p337
sVurl
p338
Vhttp://t.co/l052sreMtl
p339
sVmedia_url_https
p340
Vhttps://pbs.twimg.com/media/B383lP3CcAAhX6t.png
p341
sVsource_user_id_str
p342
V2381747401
p343
sVsource_status_id
p344
I540211594450309120
sVid_str
p345
V540211593359814656
p346
sVsizes
p347
(dp348
Vsmall
p349
(dp350
Vh
p351
I379
sVresize
p352
Vfit
p353
sVw
p354
I340
ssVlarge
p355
(dp356
Vh
p357
I672
sVresize
p358
Vfit
p359
sVw
p360
I602
ssVmedium
p361
(dp362
Vh
p363
I669
sVresize
p364
Vfit
p365
sVw
p366
I600
ssVthumb
p367
(dp368
Vh
p369
I150
sVresize
p370
Vcrop
p371
sVw
p372
I150
sssVindices
p373
(lp374
I139
aI140
asVtype
p375
Vphoto
p376
sVid
p377
I540211593359814656
sVmedia_url
p378
Vhttp://pbs.twimg.com/media/B383lP3CcAAhX6t.png
p379
sasg73
Nsg74
Nsg75
Nsg76
VSun Dec 14 19:39:26 +0000 2014
p380
sg78
Nsg79
I00
sg80
Nsg81
Nsg82
Nsg83
Nsg84
I00
sg85
Nsg86
(lp381
g3
(g97
g5
Ntp382
Rp383
(dp384
g10
Nsg102
Nsg104
Nsg106
Nsg108
Nsg109
Nsg76
Nsg111
Nsg112
Nsg114
Nsg116
Nsg117
Nsg118
Nsg119
Nsg120
Nsg121
Nsg123
Nsg124
Nsg125
Nsg127
Nsg128
Nsg129
Nsg131
VMusclePr0ducts
p385
sg133
Nsg134
VMuscle Products
p386
sg136
Nsg138
Nsg140
I2806620167
sg141
Nsbasg88
Nsg89
Nsg90
Nsg91
VRT @MusclePr0ducts: 95% of high school girls use this to lose weight for a PERFECT Bikini Body!\u000ahttp://t.co/w5862dOB1M\u000ahttp://t.co/l052sreM\u2026
p387
sg93
I00
sg94
Ven
p388
sg96
g3
(g97
g5
Ntp389
Rp390
(dp391
g10
g219
sg102
V333333
p392
sg104
Ven
p393
sg106
VEastern Time (US & Canada)
p394
sg108
I79002
sg109
I94733
sg76
VWed Apr 02 03:05:37 +0000 2014
p395
sg111
I00
sg112
Vcheck out the hottest girls of 2014 --- webstie http://t.co/GLeigCsiG5 ---
p396
sg114
Vhttps://pbs.twimg.com/profile_images/483835441162895361/gqXo6svJ_normal.jpeg
p397
sg116
I38936
sg117
I1836
sg118
I-18000
sg119
Nsg120
I00
sg121
Vhttps://pbs.twimg.com/profile_banners/2423097876/1404262150
p398
sg123
I00
sg124
I00
sg125
V0084B4
p399
sg127
I00
sg128
I00
sg129
Vhttp://abs.twimg.com/images/themes/theme1/bg.png
p400
sg131
VTittyGods
p401
sg133
I76
sg134
Vboobs
p402
sg136
VDDEEF6
p403
sg138
Vhttp://t.co/zrh7XvHy8k
p404
sg140
I2423097876
sg141
VC0DEED
p405
sbsg143
I41
sg144
V<a href="http://www.hootsuite.com" rel="nofollow">Hootsuite</a>
p406
sg146
(lp407
g3
(g148
g5
Ntp408
Rp409
(dp410
g152
Vhttp://t.co/w5862dOB1M
p411
sg154
Vhttp://be-heaIthy.com/ZyTzYp
p412
sbasg140
I544215102879461376
sbag3
(g4
g5
Ntp413
Rp414
(dp415
g9
I0
sg10
Nsg11
Nsg12
(lp416
sg14
I00
sg15
g3
(g4
g5
Ntp417
Rp418
(dp419
g9
I1
sg10
Nsg11
Nsg12
(lp420
sg14
I00
sg15
Nsg20
Nsg21
(lp421
(dp422
Vsource_user_id
p423
I2381747401
sVsource_status_id_str
p424
V540941704782573568
p425
sVexpanded_url
p426
Vhttp://twitter.com/WomensHeaIthNow/status/540941704782573568/photo/1
p427
sVdisplay_url
p428
Vpic.twitter.com/XPNfM6T7OY
p429
sVurl
p430
Vhttp://t.co/XPNfM6T7OY
p431
sVmedia_url_https
p432
Vhttps://pbs.twimg.com/media/B4HPnRrCAAAI4Bi.png
p433
sVsource_user_id_str
p434
V2381747401
p435
sVsource_status_id
p436
I540941704782573568
sVid_str
p437
V540941703926906880
p438
sVsizes
p439
(dp440
Vsmall
p441
(dp442
Vh
p443
I322
sVresize
p444
Vfit
p445
sVw
p446
I340
ssVlarge
p447
(dp448
Vh
p449
I577
sVresize
p450
Vfit
p451
sVw
p452
I609
ssVmedium
p453
(dp454
Vh
p455
I568
sVresize
p456
Vfit
p457
sVw
p458
I600
ssVthumb
p459
(dp460
Vh
p461
I150
sVresize
p462
Vcrop
p463
sVw
p464
I150
sssVindices
p465
(lp466
I96
aI118
asVtype
p467
Vphoto
p468
sVid
p469
I540941703926906880
sVmedia_url
p470
Vhttp://pbs.twimg.com/media/B4HPnRrCAAAI4Bi.png
p471
sasg73
Nsg74
Nsg75
Nsg76
VSun Dec 14 16:40:44 +0000 2014
p472
sg78
Nsg79
I00
sg80
Nsg81
Nsg82
Nsg83
Nsg84
I00
sg85
Nsg86
(lp473
sg88
Nsg89
Nsg90
Nsg91
VIt Really Works!\u000aShe got her dream body with this simple 2 step cleanse!\u000ahttp://t.co/w5862dOB1M\u000ahttp://t.co/XPNfM6T7OY
p474
sg93
I00
sg94
Ven
p475
sg96
g3
(g97
g5
Ntp476
Rp477
(dp478
g10
VNEW YORK
p479
sg102
V333333
p480
sg104
Ven
p481
sg106
VEastern Time (US & Canada)
p482
sg108
I4290
sg109
I304
sg76
VSun Oct 05 02:49:56 +0000 2014
p483
sg111
I00
sg112
VFitness Products available. #HealthyLifestyle #StayInShape
p484
sg114
Vhttps://pbs.twimg.com/profile_images/543364312861913088/cu1E7yLp_normal.jpeg
p485
sg116
I3531
sg117
I210
sg118
I-18000
sg119
Nsg120
I00
sg121
Vhttps://pbs.twimg.com/profile_banners/2806620167/1418383091
p486
sg123
I00
sg124
I00
sg125
V0084B4
p487
sg127
I00
sg128
I00
sg129
Vhttp://abs.twimg.com/images/themes/theme1/bg.png
p488
sg131
VMusclePr0ducts
p489
sg133
I1
sg134
VMuscle Products
p490
sg136
VDDEEF6
p491
sg138
Vhttp://t.co/NdelrLmEWt
p492
sg140
I2806620167
sg141
VC0DEED
p493
sbsg143
I40
sg144
V<a href="https://about.twitter.com/products/tweetdeck" rel="nofollow">TweetDeck</a>
p494
sg146
(lp495
g3
(g148
g5
Ntp496
Rp497
(dp498
g152
Vhttp://t.co/w5862dOB1M
p499
sg154
Vhttp://be-heaIthy.com/ZyTzYp
p500
sbasg140
I544170134223343617
sbsg20
Nsg21
(lp501
(dp502
Vsource_user_id
p503
I2381747401
sVsource_status_id_str
p504
V540941704782573568
p505
sVexpanded_url
p506
Vhttp://twitter.com/WomensHeaIthNow/status/540941704782573568/photo/1
p507
sVdisplay_url
p508
Vpic.twitter.com/XPNfM6T7OY
p509
sVurl
p510
Vhttp://t.co/XPNfM6T7OY
p511
sVmedia_url_https
p512
Vhttps://pbs.twimg.com/media/B4HPnRrCAAAI4Bi.png
p513
sVsource_user_id_str
p514
V2381747401
p515
sVsource_status_id
p516
I540941704782573568
sVid_str
p517
V540941703926906880
p518
sVsizes
p519
(dp520
Vsmall
p521
(dp522
Vh
p523
I322
sVresize
p524
Vfit
p525
sVw
p526
I340
ssVlarge
p527
(dp528
Vh
p529
I577
sVresize
p530
Vfit
p531
sVw
p532
I609
ssVmedium
p533
(dp534
Vh
p535
I568
sVresize
p536
Vfit
p537
sVw
p538
I600
ssVthumb
p539
(dp540
Vh
p541
I150
sVresize
p542
Vcrop
p543
sVw
p544
I150
sssVindices
p545
(lp546
I116
aI138
asVtype
p547
Vphoto
p548
sVid
p549
I540941703926906880
sVmedia_url
p550
Vhttp://pbs.twimg.com/media/B4HPnRrCAAAI4Bi.png
p551
sasg73
Nsg74
Nsg75
Nsg76
VSun Dec 14 19:39:00 +0000 2014
p552
sg78
Nsg79
I00
sg80
Nsg81
Nsg82
Nsg83
Nsg84
I00
sg85
Nsg86
(lp553
g3
(g97
g5
Ntp554
Rp555
(dp556
g10
Nsg102
Nsg104
Nsg106
Nsg108
Nsg109
Nsg76
Nsg111
Nsg112
Nsg114
Nsg116
Nsg117
Nsg118
Nsg119
Nsg120
Nsg121
Nsg123
Nsg124
Nsg125
Nsg127
Nsg128
Nsg129
Nsg131
VMusclePr0ducts
p557
sg133
Nsg134
VMuscle Products
p558
sg136
Nsg138
Nsg140
I2806620167
sg141
Nsbasg88
Nsg89
Nsg90
Nsg91
VRT @MusclePr0ducts: It Really Works!\u000aShe got her dream body with this simple 2 step cleanse!\u000ahttp://t.co/w5862dOB1M\u000ahttp://t.co/XPNfM6T7OY
p559
sg93
I00
sg94
Ven
p560
sg96
g3
(g97
g5
Ntp561
Rp562
(dp563
g10
g219
sg102
V333333
p564
sg104
Ven
p565
sg106
VEastern Time (US & Canada)
p566
sg108
I79002
sg109
I94733
sg76
VWed Apr 02 03:05:37 +0000 2014
p567
sg111
I00
sg112
Vcheck out the hottest girls of 2014 --- webstie http://t.co/GLeigCsiG5 ---
p568
sg114
Vhttps://pbs.twimg.com/profile_images/483835441162895361/gqXo6svJ_normal.jpeg
p569
sg116
I38936
sg117
I1836
sg118
I-18000
sg119
Nsg120
I00
sg121
Vhttps://pbs.twimg.com/profile_banners/2423097876/1404262150
p570
sg123
I00
sg124
I00
sg125
V0084B4
p571
sg127
I00
sg128
I00
sg129
Vhttp://abs.twimg.com/images/themes/theme1/bg.png
p572
sg131
VTittyGods
p573
sg133
I76
sg134
Vboobs
p574
sg136
VDDEEF6
p575
sg138
Vhttp://t.co/zrh7XvHy8k
p576
sg140
I2423097876
sg141
VC0DEED
p577
sbsg143
I40
sg144
V<a href="http://www.hootsuite.com" rel="nofollow">Hootsuite</a>
p578
sg146
(lp579
g3
(g148
g5
Ntp580
Rp581
(dp582
g152
Vhttp://t.co/w5862dOB1M
p583
sg154
Vhttp://be-heaIthy.com/ZyTzYp
p584
sbasg140
I544214994838380544
sbag3
(g4
g5
Ntp585
Rp586
(dp587
g9
I0
sg10
Nsg11
Nsg12
(lp588
sg14
I00
sg15
g3
(g4
g5
Ntp589
Rp590
(dp591
g9
I1
sg10
Nsg11
Nsg12
(lp592
sg14
I00
sg15
Nsg20
Nsg21
(lp593
(dp594
Vsource_user_id
p595
I2381747401
sVsource_status_id_str
p596
V540941704782573568
p597
sVexpanded_url
p598
Vhttp://twitter.com/WomensHeaIthNow/status/540941704782573568/photo/1
p599
sVdisplay_url
p600
Vpic.twitter.com/IQeWdJbzeT
p601
sVurl
p602
Vhttp://t.co/IQeWdJbzeT
p603
sVmedia_url_https
p604
Vhttps://pbs.twimg.com/media/B4HPnRrCAAAI4Bi.png
p605
sVsource_user_id_str
p606
V2381747401
p607
sVsource_status_id
p608
I540941704782573568
sVid_str
p609
V540941703926906880
p610
sVsizes
p611
(dp612
Vsmall
p613
(dp614
Vh
p615
I322
sVresize
p616
Vfit
p617
sVw
p618
I340
ssVlarge
p619
(dp620
Vh
p621
I577
sVresize
p622
Vfit
p623
sVw
p624
I609
ssVmedium
p625
(dp626
Vh
p627
I568
sVresize
p628
Vfit
p629
sVw
p630
I600
ssVthumb
p631
(dp632
Vh
p633
I150
sVresize
p634
Vcrop
p635
sVw
p636
I150
sssVindices
p637
(lp638
I96
aI118
asVtype
p639
Vphoto
p640
sVid
p641
I540941703926906880
sVmedia_url
p642
Vhttp://pbs.twimg.com/media/B4HPnRrCAAAI4Bi.png
p643
sasg73
Nsg74
Nsg75
Nsg76
VSun Dec 14 16:40:44 +0000 2014
p644
sg78
Nsg79
I00
sg80
Nsg81
Nsg82
Nsg83
Nsg84
I00
sg85
Nsg86
(lp645
sg88
Nsg89
Nsg90
Nsg91
VIt Really Works!\u000aShe got her dream body with this simple 2 step cleanse!\u000ahttp://t.co/C6iHlxo31i\u000ahttp://t.co/IQeWdJbzeT
p646
sg93
I00
sg94
Ven
p647
sg96
g3
(g97
g5
Ntp648
Rp649
(dp650
g10
g219
sg102
V333333
p651
sg104
Ven
p652
sg106
Nsg108
I7442
sg109
I1148
sg76
VWed Nov 12 05:36:43 +0000 2014
p653
sg111
I00
sg112
VWe provide you vwith only health oriented products with zero 0 side effect and 100% results.
p654
sg114
Vhttps://pbs.twimg.com/profile_images/544123627420262401/DGMQtdTx_normal.jpeg
p655
sg116
I5207
sg117
I1000
sg118
Nsg119
Nsg120
I00
sg121
Vhttps://pbs.twimg.com/profile_banners/2873391143/1418486849
p656
sg123
I00
sg124
I00
sg125
V0084B4
p657
sg127
I00
sg128
I00
sg129
Vhttp://abs.twimg.com/images/themes/theme1/bg.png
p658
sg131
VHealthPr0ducts
p659
sg133
I4
sg134
VKayla (Health)
p660
sg136
VDDEEF6
p661
sg138
Nsg140
I2873391143
sg141
VC0DEED
p662
sbsg143
I41
sg144
V<a href="https://about.twitter.com/products/tweetdeck" rel="nofollow">TweetDeck</a>
p663
sg146
(lp664
g3
(g148
g5
Ntp665
Rp666
(dp667
g152
Vhttp://t.co/C6iHlxo31i
p668
sg154
Vhttp://be-heaIthy.com/ZyTzYp
p669
sbasg140
I544170134231724032
sbsg20
Nsg21
(lp670
(dp671
Vsource_user_id
p672
I2381747401
sVsource_status_id_str
p673
V540941704782573568
p674
sVexpanded_url
p675
Vhttp://twitter.com/WomensHeaIthNow/status/540941704782573568/photo/1
p676
sVdisplay_url
p677
Vpic.twitter.com/IQeWdJbzeT
p678
sVurl
p679
Vhttp://t.co/IQeWdJbzeT
p680
sVmedia_url_https
p681
Vhttps://pbs.twimg.com/media/B4HPnRrCAAAI4Bi.png
p682
sVsource_user_id_str
p683
V2381747401
p684
sVsource_status_id
p685
I540941704782573568
sVid_str
p686
V540941703926906880
p687
sVsizes
p688
(dp689
Vsmall
p690
(dp691
Vh
p692
I322
sVresize
p693
Vfit
p694
sVw
p695
I340
ssVlarge
p696
(dp697
Vh
p698
I577
sVresize
p699
Vfit
p700
sVw
p701
I609
ssVmedium
p702
(dp703
Vh
p704
I568
sVresize
p705
Vfit
p706
sVw
p707
I600
ssVthumb
p708
(dp709
Vh
p710
I150
sVresize
p711
Vcrop
p712
sVw
p713
I150
sssVindices
p714
(lp715
I116
aI138
asVtype
p716
Vphoto
p717
sVid
p718
I540941703926906880
sVmedia_url
p719
Vhttp://pbs.twimg.com/media/B4HPnRrCAAAI4Bi.png
p720
sasg73
Nsg74
Nsg75
Nsg76
VSun Dec 14 19:38:29 +0000 2014
p721
sg78
Nsg79
I00
sg80
Nsg81
Nsg82
Nsg83
Nsg84
I00
sg85
Nsg86
(lp722
g3
(g97
g5
Ntp723
Rp724
(dp725
g10
Nsg102
Nsg104
Nsg106
Nsg108
Nsg109
Nsg76
Nsg111
Nsg112
Nsg114
Nsg116
Nsg117
Nsg118
Nsg119
Nsg120
Nsg121
Nsg123
Nsg124
Nsg125
Nsg127
Nsg128
Nsg129
Nsg131
VHealthPr0ducts
p726
sg133
Nsg134
VKayla (Health)
p727
sg136
Nsg138
Nsg140
I2873391143
sg141
Nsbasg88
Nsg89
Nsg90
Nsg91
VRT @HealthPr0ducts: It Really Works!\u000aShe got her dream body with this simple 2 step cleanse!\u000ahttp://t.co/C6iHlxo31i\u000ahttp://t.co/IQeWdJbzeT
p728
sg93
I00
sg94
Ven
p729
sg96
g3
(g97
g5
Ntp730
Rp731
(dp732
g10
g219
sg102
V333333
p733
sg104
Ven
p734
sg106
VEastern Time (US & Canada)
p735
sg108
I79002
sg109
I94733
sg76
VWed Apr 02 03:05:37 +0000 2014
p736
sg111
I00
sg112
Vcheck out the hottest girls of 2014 --- webstie http://t.co/GLeigCsiG5 ---
p737
sg114
Vhttps://pbs.twimg.com/profile_images/483835441162895361/gqXo6svJ_normal.jpeg
p738
sg116
I38936
sg117
I1836
sg118
I-18000
sg119
Nsg120
I00
sg121
Vhttps://pbs.twimg.com/profile_banners/2423097876/1404262150
p739
sg123
I00
sg124
I00
sg125
V0084B4
p740
sg127
I00
sg128
I00
sg129
Vhttp://abs.twimg.com/images/themes/theme1/bg.png
p741
sg131
VTittyGods
p742
sg133
I76
sg134
Vboobs
p743
sg136
VDDEEF6
p744
sg138
Vhttp://t.co/zrh7XvHy8k
p745
sg140
I2423097876
sg141
VC0DEED
p746
sbsg143
I41
sg144
V<a href="http://www.hootsuite.com" rel="nofollow">Hootsuite</a>
p747
sg146
(lp748
g3
(g148
g5
Ntp749
Rp750
(dp751
g152
Vhttp://t.co/C6iHlxo31i
p752
sg154
Vhttp://be-heaIthy.com/ZyTzYp
p753
sbasg140
I544214864286466048
sbag3
(g4
g5
Ntp754
Rp755
(dp756
g9
I0
sg10
Nsg11
Nsg12
(lp757
sg14
I00
sg15
g3
(g4
g5
Ntp758
Rp759
(dp760
g9
I22
sg10
Nsg11
Nsg12
(lp761
sg14
I00
sg15
Nsg20
Nsg21
(lp762
(dp763
Vexpanded_url
p764
Vhttp://twitter.com/LivinOnAHigh/status/543777549432549376/photo/1
p765
sVdisplay_url
p766
Vpic.twitter.com/igZBq4nzUO
p767
sVurl
p768
Vhttp://t.co/igZBq4nzUO
p769
sVmedia_url_https
p770
Vhttps://pbs.twimg.com/media/B4viy25CEAEuBj-.jpg
p771
sVid_str
p772
V543777543384338433
p773
sVsizes
p774
(dp775
Vsmall
p776
(dp777
Vh
p778
I226
sVresize
p779
Vfit
p780
sVw
p781
I340
ssVlarge
p782
(dp783
Vh
p784
I333
sVresize
p785
Vfit
p786
sVw
p787
I500
ssVmedium
p788
(dp789
Vh
p790
I333
sVresize
p791
Vfit
p792
sVw
p793
I500
ssVthumb
p794
(dp795
Vh
p796
I150
sVresize
p797
Vcrop
p798
sVw
p799
I150
sssVindices
p800
(lp801
I76
aI98
asVtype
p802
Vphoto
p803
sVid
p804
I543777543384338433
sVmedia_url
p805
Vhttp://pbs.twimg.com/media/B4viy25CEAEuBj-.jpg
p806
sasg73
Nsg74
Nsg75
Nsg76
VSat Dec 13 14:40:45 +0000 2014
p807
sg78
Nsg79
I00
sg80
Nsg81
Nsg82
Nsg83
Nsg84
I00
sg85
Nsg86
(lp808
sg88
Nsg89
Nsg90
Nsg91
Vpot heads are actually living longer----&gt;http://t.co/ljiceKDE65&lt;----- http://t.co/igZBq4nzUO
p809
sg93
I00
sg94
Ven
p810
sg96
g3
(g97
g5
Ntp811
Rp812
(dp813
g10
VLondon 
p814
sg102
V000000
p815
sg104
Ven
p816
sg106
VCentral Time (US & Canada)
p817
sg108
I44086
sg109
I2450
sg76
VSat Aug 02 16:59:45 +0000 2014
p818
sg111
I00
sg112
Vfrom london with love ---- http://t.co/D0321Yk5UO -----
p819
sg114
Vhttps://pbs.twimg.com/profile_images/501158839131963393/_o2VQmmQ_normal.jpeg
p820
sg116
I29975
sg117
I1910
sg118
I-21600
sg119
Nsg120
I00
sg121
Vhttps://pbs.twimg.com/profile_banners/2701268012/1408178177
p821
sg123
I00
sg124
I00
sg125
V0DB3A0
p822
sg127
I00
sg128
I00
sg129
Vhttp://abs.twimg.com/images/themes/theme11/bg.gif
p823
sg131
VLivinOnAHigh
p824
sg133
I34
sg134
VHigh on life
p825
sg136
V000000
p826
sg138
Nsg140
I2701268012
sg141
V000000
p827
sbsg143
I74
sg144
V<a href="http://twitter.com" rel="nofollow">Twitter Web Client</a>
p828
sg146
(lp829
g3
(g148
g5
Ntp830
Rp831
(dp832
g152
Vhttp://t.co/ljiceKDE65
p833
sg154
Vhttp://bit.ly/1Ag7hLg
p834
sbasg140
I543777549432549376
sbsg20
Nsg21
(lp835
(dp836
Vsource_user_id
p837
I2701268012
sVsource_status_id_str
p838
V543777549432549376
p839
sVexpanded_url
p840
Vhttp://twitter.com/LivinOnAHigh/status/543777549432549376/photo/1
p841
sVdisplay_url
p842
Vpic.twitter.com/igZBq4nzUO
p843
sVurl
p844
Vhttp://t.co/igZBq4nzUO
p845
sVmedia_url_https
p846
Vhttps://pbs.twimg.com/media/B4viy25CEAEuBj-.jpg
p847
sVsource_user_id_str
p848
V2701268012
p849
sVsource_status_id
p850
I543777549432549376
sVid_str
p851
V543777543384338433
p852
sVsizes
p853
(dp854
Vsmall
p855
(dp856
Vh
p857
I226
sVresize
p858
Vfit
p859
sVw
p860
I340
ssVlarge
p861
(dp862
Vh
p863
I333
sVresize
p864
Vfit
p865
sVw
p866
I500
ssVmedium
p867
(dp868
Vh
p869
I333
sVresize
p870
Vfit
p871
sVw
p872
I500
ssVthumb
p873
(dp874
Vh
p875
I150
sVresize
p876
Vcrop
p877
sVw
p878
I150
sssVindices
p879
(lp880
I94
aI116
asVtype
p881
Vphoto
p882
sVid
p883
I543777543384338433
sVmedia_url
p884
Vhttp://pbs.twimg.com/media/B4viy25CEAEuBj-.jpg
p885
sasg73
Nsg74
Nsg75
Nsg76
VSun Dec 14 19:38:20 +0000 2014
p886
sg78
Nsg79
I00
sg80
Nsg81
Nsg82
Nsg83
Nsg84
I00
sg85
Nsg86
(lp887
g3
(g97
g5
Ntp888
Rp889
(dp890
g10
Nsg102
Nsg104
Nsg106
Nsg108
Nsg109
Nsg76
Nsg111
Nsg112
Nsg114
Nsg116
Nsg117
Nsg118
Nsg119
Nsg120
Nsg121
Nsg123
Nsg124
Nsg125
Nsg127
Nsg128
Nsg129
Nsg131
VLivinOnAHigh
p891
sg133
Nsg134
VHigh on life
p892
sg136
Nsg138
Nsg140
I2701268012
sg141
Nsbasg88
Nsg89
Nsg90
Nsg91
VRT @LivinOnAHigh: pot heads are actually living longer----&gt;http://t.co/ljiceKDE65&lt;----- http://t.co/igZBq4nzUO
p893
sg93
I00
sg94
Ven
p894
sg96
g3
(g97
g5
Ntp895
Rp896
(dp897
g10
g219
sg102
V333333
p898
sg104
Ven
p899
sg106
VEastern Time (US & Canada)
p900
sg108
I79002
sg109
I94733
sg76
VWed Apr 02 03:05:37 +0000 2014
p901
sg111
I00
sg112
Vcheck out the hottest girls of 2014 --- webstie http://t.co/GLeigCsiG5 ---
p902
sg114
Vhttps://pbs.twimg.com/profile_images/483835441162895361/gqXo6svJ_normal.jpeg
p903
sg116
I38936
sg117
I1836
sg118
I-18000
sg119
Nsg120
I00
sg121
Vhttps://pbs.twimg.com/profile_banners/2423097876/1404262150
p904
sg123
I00
sg124
I00
sg125
V0084B4
p905
sg127
I00
sg128
I00
sg129
Vhttp://abs.twimg.com/images/themes/theme1/bg.png
p906
sg131
VTittyGods
p907
sg133
I76
sg134
Vboobs
p908
sg136
VDDEEF6
p909
sg138
Vhttp://t.co/zrh7XvHy8k
p910
sg140
I2423097876
sg141
VC0DEED
p911
sbsg143
I74
sg144
V<a href="http://www.hootsuite.com" rel="nofollow">Hootsuite</a>
p912
sg146
(lp913
g3
(g148
g5
Ntp914
Rp915
(dp916
g152
Vhttp://t.co/ljiceKDE65
p917
sg154
Vhttp://bit.ly/1Ag7hLg
p918
sbasg140
I544214826914807809
sbag3
(g4
g5
Ntp919
Rp920
(dp921
g9
I0
sg10
Nsg11
Nsg12
(lp922
sg14
I00
sg15
g3
(g4
g5
Ntp923
Rp924
(dp925
g9
I1
sg10
Nsg11
Nsg12
(lp926
sg14
I00
sg15
Nsg20
Nsg21
(lp927
(dp928
Vsource_user_id
p929
I2381747401
sVsource_status_id_str
p930
V541293826652917760
p931
sVexpanded_url
p932
Vhttp://twitter.com/WomensHeaIthNow/status/541293826652917760/photo/1
p933
sVdisplay_url
p934
Vpic.twitter.com/MnJCJTfhi5
p935
sVurl
p936
Vhttp://t.co/MnJCJTfhi5
p937
sVmedia_url_https
p938
Vhttps://pbs.twimg.com/media/B4MP3dsCUAAn6Oq.png
p939
sVsource_user_id_str
p940
V2381747401
p941
sVsource_status_id
p942
I541293826652917760
sVid_str
p943
V541293825751142400
p944
sVsizes
p945
(dp946
Vlarge
p947
(dp948
Vh
p949
I514
sVresize
p950
Vfit
p951
sVw
p952
I609
ssVsmall
p953
(dp954
Vh
p955
I286
sVresize
p956
Vfit
p957
sVw
p958
I340
ssVmedium
p959
(dp960
Vh
p961
I506
sVresize
p962
Vfit
p963
sVw
p964
I600
ssVthumb
p965
(dp966
Vh
p967
I150
sVresize
p968
Vcrop
p969
sVw
p970
I150
sssVindices
p971
(lp972
I103
aI125
asVtype
p973
Vphoto
p974
sVid
p975
I541293825751142400
sVmedia_url
p976
Vhttp://pbs.twimg.com/media/B4MP3dsCUAAn6Oq.png
p977
sasg73
Nsg74
Nsg75
Nsg76
VSun Dec 14 16:40:48 +0000 2014
p978
sg78
Nsg79
I00
sg80
Nsg81
Nsg82
Nsg83
Nsg84
I00
sg85
Nsg86
(lp979
sg88
Nsg89
Nsg90
Nsg91
VFinally got my Bikini Body! \u000aThis simple 2 step cleanse truly works like magic!\u000ahttp://t.co/C6iHlxo31i\u000ahttp://t.co/MnJCJTfhi5
p980
sg93
I00
sg94
Ven
p981
sg96
g3
(g97
g5
Ntp982
Rp983
(dp984
g10
g219
sg102
V333333
p985
sg104
Ven
p986
sg106
Nsg108
I7442
sg109
I1148
sg76
VWed Nov 12 05:36:43 +0000 2014
p987
sg111
I00
sg112
VWe provide you vwith only health oriented products with zero 0 side effect and 100% results.
p988
sg114
Vhttps://pbs.twimg.com/profile_images/544123627420262401/DGMQtdTx_normal.jpeg
p989
sg116
I5207
sg117
I1000
sg118
Nsg119
Nsg120
I00
sg121
Vhttps://pbs.twimg.com/profile_banners/2873391143/1418486849
p990
sg123
I00
sg124
I00
sg125
V0084B4
p991
sg127
I00
sg128
I00
sg129
Vhttp://abs.twimg.com/images/themes/theme1/bg.png
p992
sg131
VHealthPr0ducts
p993
sg133
I4
sg134
VKayla (Health)
p994
sg136
VDDEEF6
p995
sg138
Nsg140
I2873391143
sg141
VC0DEED
p996
sbsg143
I39
sg144
V<a href="https://about.twitter.com/products/tweetdeck" rel="nofollow">TweetDeck</a>
p997
sg146
(lp998
g3
(g148
g5
Ntp999
Rp1000
(dp1001
g152
Vhttp://t.co/C6iHlxo31i
p1002
sg154
Vhttp://be-heaIthy.com/ZyTzYp
p1003
sbasg140
I544170151474495489
sbsg20
Nsg21
(lp1004
(dp1005
Vsource_user_id
p1006
I2381747401
sVsource_status_id_str
p1007
V541293826652917760
p1008
sVexpanded_url
p1009
Vhttp://twitter.com/WomensHeaIthNow/status/541293826652917760/photo/1
p1010
sVdisplay_url
p1011
Vpic.twitter.com/MnJCJTfhi5
p1012
sVurl
p1013
Vhttp://t.co/MnJCJTfhi5
p1014
sVmedia_url_https
p1015
Vhttps://pbs.twimg.com/media/B4MP3dsCUAAn6Oq.png
p1016
sVsource_user_id_str
p1017
V2381747401
p1018
sVsource_status_id
p1019
I541293826652917760
sVid_str
p1020
V541293825751142400
p1021
sVsizes
p1022
(dp1023
Vlarge
p1024
(dp1025
Vh
p1026
I514
sVresize
p1027
Vfit
p1028
sVw
p1029
I609
ssVsmall
p1030
(dp1031
Vh
p1032
I286
sVresize
p1033
Vfit
p1034
sVw
p1035
I340
ssVmedium
p1036
(dp1037
Vh
p1038
I506
sVresize
p1039
Vfit
p1040
sVw
p1041
I600
ssVthumb
p1042
(dp1043
Vh
p1044
I150
sVresize
p1045
Vcrop
p1046
sVw
p1047
I150
sssVindices
p1048
(lp1049
I139
aI140
asVtype
p1050
Vphoto
p1051
sVid
p1052
I541293825751142400
sVmedia_url
p1053
Vhttp://pbs.twimg.com/media/B4MP3dsCUAAn6Oq.png
p1054
sasg73
Nsg74
Nsg75
Nsg76
VSun Dec 14 19:38:02 +0000 2014
p1055
sg78
Nsg79
I00
sg80
Nsg81
Nsg82
Nsg83
Nsg84
I00
sg85
Nsg86
(lp1056
g3
(g97
g5
Ntp1057
Rp1058
(dp1059
g10
Nsg102
Nsg104
Nsg106
Nsg108
Nsg109
Nsg76
Nsg111
Nsg112
Nsg114
Nsg116
Nsg117
Nsg118
Nsg119
Nsg120
Nsg121
Nsg123
Nsg124
Nsg125
Nsg127
Nsg128
Nsg129
Nsg131
VHealthPr0ducts
p1060
sg133
Nsg134
VKayla (Health)
p1061
sg136
Nsg138
Nsg140
I2873391143
sg141
Nsbasg88
Nsg89
Nsg90
Nsg91
VRT @HealthPr0ducts: Finally got my Bikini Body! \u000aThis simple 2 step cleanse truly works like magic!\u000ahttp://t.co/C6iHlxo31i\u000ahttp://t.co/MnJC\u2026
p1062
sg93
I00
sg94
Ven
p1063
sg96
g3
(g97
g5
Ntp1064
Rp1065
(dp1066
g10
g219
sg102
V333333
p1067
sg104
Ven
p1068
sg106
VEastern Time (US & Canada)
p1069
sg108
I79002
sg109
I94733
sg76
VWed Apr 02 03:05:37 +0000 2014
p1070
sg111
I00
sg112
Vcheck out the hottest girls of 2014 --- webstie http://t.co/GLeigCsiG5 ---
p1071
sg114
Vhttps://pbs.twimg.com/profile_images/483835441162895361/gqXo6svJ_normal.jpeg
p1072
sg116
I38936
sg117
I1836
sg118
I-18000
sg119
Nsg120
I00
sg121
Vhttps://pbs.twimg.com/profile_banners/2423097876/1404262150
p1073
sg123
I00
sg124
I00
sg125
V0084B4
p1074
sg127
I00
sg128
I00
sg129
Vhttp://abs.twimg.com/images/themes/theme1/bg.png
p1075
sg131
VTittyGods
p1076
sg133
I76
sg134
Vboobs
p1077
sg136
VDDEEF6
p1078
sg138
Vhttp://t.co/zrh7XvHy8k
p1079
sg140
I2423097876
sg141
VC0DEED
p1080
sbsg143
I39
sg144
V<a href="http://www.hootsuite.com" rel="nofollow">Hootsuite</a>
p1081
sg146
(lp1082
g3
(g148
g5
Ntp1083
Rp1084
(dp1085
g152
Vhttp://t.co/C6iHlxo31i
p1086
sg154
Vhttp://be-heaIthy.com/ZyTzYp
p1087
sbasg140
I544214751933640704
sbag3
(g4
g5
Ntp1088
Rp1089
(dp1090
g9
I0
sg10
Nsg11
Nsg12
(lp1091
sg14
I00
sg15
g3
(g4
g5
Ntp1092
Rp1093
(dp1094
g9
I15
sg10
Nsg11
Nsg12
(lp1095
sg14
I00
sg15
Nsg20
Nsg21
(lp1096
(dp1097
Vexpanded_url
p1098
Vhttp://twitter.com/LivinOnAHigh/status/543777535478091776/photo/1
p1099
sVdisplay_url
p1100
Vpic.twitter.com/IVQiSowWw5
p1101
sVurl
p1102
Vhttp://t.co/IVQiSowWw5
p1103
sVmedia_url_https
p1104
Vhttps://pbs.twimg.com/media/B4viyP8CcAMTR5V.jpg
p1105
sVid_str
p1106
V543777532927963139
p1107
sVsizes
p1108
(dp1109
Vsmall
p1110
(dp1111
Vh
p1112
I255
sVresize
p1113
Vfit
p1114
sVw
p1115
I340
ssVlarge
p1116
(dp1117
Vh
p1118
I300
sVresize
p1119
Vfit
p1120
sVw
p1121
I400
ssVmedium
p1122
(dp1123
Vh
p1124
I300
sVresize
p1125
Vfit
p1126
sVw
p1127
I400
ssVthumb
p1128
(dp1129
Vh
p1130
I150
sVresize
p1131
Vcrop
p1132
sVw
p1133
I150
sssVindices
p1134
(lp1135
I73
aI95
asVtype
p1136
Vphoto
p1137
sVid
p1138
I543777532927963139
sVmedia_url
p1139
Vhttp://pbs.twimg.com/media/B4viyP8CcAMTR5V.jpg
p1140
sasg73
Nsg74
Nsg75
Nsg76
VSat Dec 13 14:40:42 +0000 2014
p1141
sg78
Nsg79
I00
sg80
Nsg81
Nsg82
Nsg83
Nsg84
I00
sg85
Nsg86
(lp1142
sg88
Nsg89
Nsg90
Nsg91
Vmedical marijuana is good for you----&gt;http://t.co/ljiceKDE65&lt;----- http://t.co/IVQiSowWw5
p1143
sg93
I00
sg94
Ven
p1144
sg96
g3
(g97
g5
Ntp1145
Rp1146
(dp1147
g10
VLondon 
p1148
sg102
V000000
p1149
sg104
Ven
p1150
sg106
VCentral Time (US & Canada)
p1151
sg108
I44086
sg109
I2450
sg76
VSat Aug 02 16:59:45 +0000 2014
p1152
sg111
I00
sg112
Vfrom london with love ---- http://t.co/D0321Yk5UO -----
p1153
sg114
Vhttps://pbs.twimg.com/profile_images/501158839131963393/_o2VQmmQ_normal.jpeg
p1154
sg116
I29975
sg117
I1910
sg118
I-21600
sg119
Nsg120
I00
sg121
Vhttps://pbs.twimg.com/profile_banners/2701268012/1408178177
p1155
sg123
I00
sg124
I00
sg125
V0DB3A0
p1156
sg127
I00
sg128
I00
sg129
Vhttp://abs.twimg.com/images/themes/theme11/bg.gif
p1157
sg131
VLivinOnAHigh
p1158
sg133
I34
sg134
VHigh on life
p1159
sg136
V000000
p1160
sg138
Nsg140
I2701268012
sg141
V000000
p1161
sbsg143
I64
sg144
V<a href="http://twitter.com" rel="nofollow">Twitter Web Client</a>
p1162
sg146
(lp1163
g3
(g148
g5
Ntp1164
Rp1165
(dp1166
g152
Vhttp://t.co/ljiceKDE65
p1167
sg154
Vhttp://bit.ly/1Ag7hLg
p1168
sbasg140
I543777535478091776
sbsg20
Nsg21
(lp1169
(dp1170
Vsource_user_id
p1171
I2701268012
sVsource_status_id_str
p1172
V543777535478091776
p1173
sVexpanded_url
p1174
Vhttp://twitter.com/LivinOnAHigh/status/543777535478091776/photo/1
p1175
sVdisplay_url
p1176
Vpic.twitter.com/IVQiSowWw5
p1177
sVurl
p1178
Vhttp://t.co/IVQiSowWw5
p1179
sVmedia_url_https
p1180
Vhttps://pbs.twimg.com/media/B4viyP8CcAMTR5V.jpg
p1181
sVsource_user_id_str
p1182
V2701268012
p1183
sVsource_status_id
p1184
I543777535478091776
sVid_str
p1185
V543777532927963139
p1186
sVsizes
p1187
(dp1188
Vsmall
p1189
(dp1190
Vh
p1191
I255
sVresize
p1192
Vfit
p1193
sVw
p1194
I340
ssVlarge
p1195
(dp1196
Vh
p1197
I300
sVresize
p1198
Vfit
p1199
sVw
p1200
I400
ssVmedium
p1201
(dp1202
Vh
p1203
I300
sVresize
p1204
Vfit
p1205
sVw
p1206
I400
ssVthumb
p1207
(dp1208
Vh
p1209
I150
sVresize
p1210
Vcrop
p1211
sVw
p1212
I150
sssVindices
p1213
(lp1214
I91
aI113
asVtype
p1215
Vphoto
p1216
sVid
p1217
I543777532927963139
sVmedia_url
p1218
Vhttp://pbs.twimg.com/media/B4viyP8CcAMTR5V.jpg
p1219
sasg73
Nsg74
Nsg75
Nsg76
VSun Dec 14 19:37:25 +0000 2014
p1220
sg78
Nsg79
I00
sg80
Nsg81
Nsg82
Nsg83
Nsg84
I00
sg85
Nsg86
(lp1221
g3
(g97
g5
Ntp1222
Rp1223
(dp1224
g10
Nsg102
Nsg104
Nsg106
Nsg108
Nsg109
Nsg76
Nsg111
Nsg112
Nsg114
Nsg116
Nsg117
Nsg118
Nsg119
Nsg120
Nsg121
Nsg123
Nsg124
Nsg125
Nsg127
Nsg128
Nsg129
Nsg131
VLivinOnAHigh
p1225
sg133
Nsg134
VHigh on life
p1226
sg136
Nsg138
Nsg140
I2701268012
sg141
Nsbasg88
Nsg89
Nsg90
Nsg91
VRT @LivinOnAHigh: medical marijuana is good for you----&gt;http://t.co/ljiceKDE65&lt;----- http://t.co/IVQiSowWw5
p1227
sg93
I00
sg94
Ven
p1228
sg96
g3
(g97
g5
Ntp1229
Rp1230
(dp1231
g10
g219
sg102
V333333
p1232
sg104
Ven
p1233
sg106
VEastern Time (US & Canada)
p1234
sg108
I79002
sg109
I94733
sg76
VWed Apr 02 03:05:37 +0000 2014
p1235
sg111
I00
sg112
Vcheck out the hottest girls of 2014 --- webstie http://t.co/GLeigCsiG5 ---
p1236
sg114
Vhttps://pbs.twimg.com/profile_images/483835441162895361/gqXo6svJ_normal.jpeg
p1237
sg116
I38936
sg117
I1836
sg118
I-18000
sg119
Nsg120
I00
sg121
Vhttps://pbs.twimg.com/profile_banners/2423097876/1404262150
p1238
sg123
I00
sg124
I00
sg125
V0084B4
p1239
sg127
I00
sg128
I00
sg129
Vhttp://abs.twimg.com/images/themes/theme1/bg.png
p1240
sg131
VTittyGods
p1241
sg133
I76
sg134
Vboobs
p1242
sg136
VDDEEF6
p1243
sg138
Vhttp://t.co/zrh7XvHy8k
p1244
sg140
I2423097876
sg141
VC0DEED
p1245
sbsg143
I64
sg144
V<a href="http://www.hootsuite.com" rel="nofollow">Hootsuite</a>
p1246
sg146
(lp1247
g3
(g148
g5
Ntp1248
Rp1249
(dp1250
g152
Vhttp://t.co/ljiceKDE65
p1251
sg154
Vhttp://bit.ly/1Ag7hLg
p1252
sbasg140
I544214597239324672
sbag3
(g4
g5
Ntp1253
Rp1254
(dp1255
g9
I0
sg10
Nsg11
Nsg12
(lp1256
sg14
I00
sg15
g3
(g4
g5
Ntp1257
Rp1258
(dp1259
g9
I2
sg10
Nsg11
Nsg12
(lp1260
sg14
I00
sg15
Nsg20
Nsg21
(lp1261
(dp1262
Vsource_user_id
p1263
I2381747401
sVsource_status_id_str
p1264
V541293926049513473
p1265
sVexpanded_url
p1266
Vhttp://twitter.com/WomensHeaIthNow/status/541293926049513473/photo/1
p1267
sVdisplay_url
p1268
Vpic.twitter.com/UPbQVQyspc
p1269
sVurl
p1270
Vhttp://t.co/UPbQVQyspc
p1271
sVmedia_url_https
p1272
Vhttps://pbs.twimg.com/media/B4MP9QnCAAAofjd.png
p1273
sVsource_user_id_str
p1274
V2381747401
p1275
sVsource_status_id
p1276
I541293926049513473
sVid_str
p1277
V541293925319704576
p1278
sVsizes
p1279
(dp1280
Vsmall
p1281
(dp1282
Vh
p1283
I272
sVresize
p1284
Vfit
p1285
sVw
p1286
I340
ssVlarge
p1287
(dp1288
Vh
p1289
I488
sVresize
p1290
Vfit
p1291
sVw
p1292
I608
ssVmedium
p1293
(dp1294
Vh
p1295
I481
sVresize
p1296
Vfit
p1297
sVw
p1298
I600
ssVthumb
p1299
(dp1300
Vh
p1301
I150
sVresize
p1302
Vcrop
p1303
sVw
p1304
I150
sssVindices
p1305
(lp1306
I100
aI122
asVtype
p1307
Vphoto
p1308
sVid
p1309
I541293925319704576
sVmedia_url
p1310
Vhttp://pbs.twimg.com/media/B4MP9QnCAAAofjd.png
p1311
sasg73
Nsg74
Nsg75
Nsg76
VSun Dec 14 16:40:57 +0000 2014
p1312
sg78
Nsg79
I00
sg80
Nsg81
Nsg82
Nsg83
Nsg84
I00
sg85
Nsg86
(lp1313
sg88
Nsg89
Nsg90
Nsg91
V95% of high school girls use this to lose weight for a PERFECT Bikini Body! \u000ahttp://t.co/C6iHlxo31i\u000ahttp://t.co/UPbQVQyspc
p1314
sg93
I00
sg94
Ven
p1315
sg96
g3
(g97
g5
Ntp1316
Rp1317
(dp1318
g10
g219
sg102
V333333
p1319
sg104
Ven
p1320
sg106
Nsg108
I7442
sg109
I1148
sg76
VWed Nov 12 05:36:43 +0000 2014
p1321
sg111
I00
sg112
VWe provide you vwith only health oriented products with zero 0 side effect and 100% results.
p1322
sg114
Vhttps://pbs.twimg.com/profile_images/544123627420262401/DGMQtdTx_normal.jpeg
p1323
sg116
I5207
sg117
I1000
sg118
Nsg119
Nsg120
I00
sg121
Vhttps://pbs.twimg.com/profile_banners/2873391143/1418486849
p1324
sg123
I00
sg124
I00
sg125
V0084B4
p1325
sg127
I00
sg128
I00
sg129
Vhttp://abs.twimg.com/images/themes/theme1/bg.png
p1326
sg131
VHealthPr0ducts
p1327
sg133
I4
sg134
VKayla (Health)
p1328
sg136
VDDEEF6
p1329
sg138
Nsg140
I2873391143
sg141
VC0DEED
p1330
sbsg143
I41
sg144
V<a href="https://about.twitter.com/products/tweetdeck" rel="nofollow">TweetDeck</a>
p1331
sg146
(lp1332
g3
(g148
g5
Ntp1333
Rp1334
(dp1335
g152
Vhttp://t.co/C6iHlxo31i
p1336
sg154
Vhttp://be-heaIthy.com/ZyTzYp
p1337
sbasg140
I544170185771331584
sbsg20
Nsg21
(lp1338
(dp1339
Vsource_user_id
p1340
I2381747401
sVsource_status_id_str
p1341
V541293926049513473
p1342
sVexpanded_url
p1343
Vhttp://twitter.com/WomensHeaIthNow/status/541293926049513473/photo/1
p1344
sVdisplay_url
p1345
Vpic.twitter.com/UPbQVQyspc
p1346
sVurl
p1347
Vhttp://t.co/UPbQVQyspc
p1348
sVmedia_url_https
p1349
Vhttps://pbs.twimg.com/media/B4MP9QnCAAAofjd.png
p1350
sVsource_user_id_str
p1351
V2381747401
p1352
sVsource_status_id
p1353
I541293926049513473
sVid_str
p1354
V541293925319704576
p1355
sVsizes
p1356
(dp1357
Vsmall
p1358
(dp1359
Vh
p1360
I272
sVresize
p1361
Vfit
p1362
sVw
p1363
I340
ssVlarge
p1364
(dp1365
Vh
p1366
I488
sVresize
p1367
Vfit
p1368
sVw
p1369
I608
ssVmedium
p1370
(dp1371
Vh
p1372
I481
sVresize
p1373
Vfit
p1374
sVw
p1375
I600
ssVthumb
p1376
(dp1377
Vh
p1378
I150
sVresize
p1379
Vcrop
p1380
sVw
p1381
I150
sssVindices
p1382
(lp1383
I139
aI140
asVtype
p1384
Vphoto
p1385
sVid
p1386
I541293925319704576
sVmedia_url
p1387
Vhttp://pbs.twimg.com/media/B4MP9QnCAAAofjd.png
p1388
sasg73
Nsg74
Nsg75
Nsg76
VSun Dec 14 19:37:16 +0000 2014
p1389
sg78
Nsg79
I00
sg80
Nsg81
Nsg82
Nsg83
Nsg84
I00
sg85
Nsg86
(lp1390
g3
(g97
g5
Ntp1391
Rp1392
(dp1393
g10
Nsg102
Nsg104
Nsg106
Nsg108
Nsg109
Nsg76
Nsg111
Nsg112
Nsg114
Nsg116
Nsg117
Nsg118
Nsg119
Nsg120
Nsg121
Nsg123
Nsg124
Nsg125
Nsg127
Nsg128
Nsg129
Nsg131
VHealthPr0ducts
p1394
sg133
Nsg134
VKayla (Health)
p1395
sg136
Nsg138
Nsg140
I2873391143
sg141
Nsbasg88
Nsg89
Nsg90
Nsg91
VRT @HealthPr0ducts: 95% of high school girls use this to lose weight for a PERFECT Bikini Body! \u000ahttp://t.co/C6iHlxo31i\u000ahttp://t.co/UPbQVQy\u2026
p1396
sg93
I00
sg94
Ven
p1397
sg96
g3
(g97
g5
Ntp1398
Rp1399
(dp1400
g10
g219
sg102
V333333
p1401
sg104
Ven
p1402
sg106
VEastern Time (US & Canada)
p1403
sg108
I79002
sg109
I94733
sg76
VWed Apr 02 03:05:37 +0000 2014
p1404
sg111
I00
sg112
Vcheck out the hottest girls of 2014 --- webstie http://t.co/GLeigCsiG5 ---
p1405
sg114
Vhttps://pbs.twimg.com/profile_images/483835441162895361/gqXo6svJ_normal.jpeg
p1406
sg116
I38936
sg117
I1836
sg118
I-18000
sg119
Nsg120
I00
sg121
Vhttps://pbs.twimg.com/profile_banners/2423097876/1404262150
p1407
sg123
I00
sg124
I00
sg125
V0084B4
p1408
sg127
I00
sg128
I00
sg129
Vhttp://abs.twimg.com/images/themes/theme1/bg.png
p1409
sg131
VTittyGods
p1410
sg133
I76
sg134
Vboobs
p1411
sg136
VDDEEF6
p1412
sg138
Vhttp://t.co/zrh7XvHy8k
p1413
sg140
I2423097876
sg141
VC0DEED
p1414
sbsg143
I41
sg144
V<a href="http://www.hootsuite.com" rel="nofollow">Hootsuite</a>
p1415
sg146
(lp1416
g3
(g148
g5
Ntp1417
Rp1418
(dp1419
g152
Vhttp://t.co/C6iHlxo31i
p1420
sg154
Vhttp://be-heaIthy.com/ZyTzYp
p1421
sbasg140
I544214560249745408
sbag3
(g4
g5
Ntp1422
Rp1423
(dp1424
g9
I0
sg10
Nsg11
Nsg12
(lp1425
sg14
I00
sg15
g3
(g4
g5
Ntp1426
Rp1427
(dp1428
g9
I14
sg10
Nsg11
Nsg12
(lp1429
sg14
I00
sg15
Nsg20
Nsg21
(lp1430
(dp1431
Vexpanded_url
p1432
Vhttp://twitter.com/LivinOnAHigh/status/543777527638929411/photo/1
p1433
sVdisplay_url
p1434
Vpic.twitter.com/lOapy88MjG
p1435
sVurl
p1436
Vhttp://t.co/lOapy88MjG
p1437
sVmedia_url_https
p1438
Vhttps://pbs.twimg.com/media/B4vix0YCEAEwohM.jpg
p1439
sVid_str
p1440
V543777525529186305
p1441
sVsizes
p1442
(dp1443
Vsmall
p1444
(dp1445
Vh
p1446
I450
sVresize
p1447
Vfit
p1448
sVw
p1449
I300
ssVlarge
p1450
(dp1451
Vh
p1452
I450
sVresize
p1453
Vfit
p1454
sVw
p1455
I300
ssVmedium
p1456
(dp1457
Vh
p1458
I450
sVresize
p1459
Vfit
p1460
sVw
p1461
I300
ssVthumb
p1462
(dp1463
Vh
p1464
I150
sVresize
p1465
Vcrop
p1466
sVw
p1467
I150
sssVindices
p1468
(lp1469
I70
aI92
asVtype
p1470
Vphoto
p1471
sVid
p1472
I543777525529186305
sVmedia_url
p1473
Vhttp://pbs.twimg.com/media/B4vix0YCEAEwohM.jpg
p1474
sasg73
Nsg74
Nsg75
Nsg76
VSat Dec 13 14:40:40 +0000 2014
p1475
sg78
Nsg79
I00
sg80
Nsg81
Nsg82
Nsg83
Nsg84
I00
sg85
Nsg86
(lp1476
sg88
Nsg89
Nsg90
Nsg91
Vcheck out the benefits of weed----&gt;http://t.co/ljiceKDE65&lt;----- http://t.co/lOapy88MjG
p1477
sg93
I00
sg94
Ven
p1478
sg96
g3
(g97
g5
Ntp1479
Rp1480
(dp1481
g10
VLondon 
p1482
sg102
V000000
p1483
sg104
Ven
p1484
sg106
VCentral Time (US & Canada)
p1485
sg108
I44086
sg109
I2450
sg76
VSat Aug 02 16:59:45 +0000 2014
p1486
sg111
I00
sg112
Vfrom london with love ---- http://t.co/D0321Yk5UO -----
p1487
sg114
Vhttps://pbs.twimg.com/profile_images/501158839131963393/_o2VQmmQ_normal.jpeg
p1488
sg116
I29975
sg117
I1910
sg118
I-21600
sg119
Nsg120
I00
sg121
Vhttps://pbs.twimg.com/profile_banners/2701268012/1408178177
p1489
sg123
I00
sg124
I00
sg125
V0DB3A0
p1490
sg127
I00
sg128
I00
sg129
Vhttp://abs.twimg.com/images/themes/theme11/bg.gif
p1491
sg131
VLivinOnAHigh
p1492
sg133
I34
sg134
VHigh on life
p1493
sg136
V000000
p1494
sg138
Nsg140
I2701268012
sg141
V000000
p1495
sbsg143
I60
sg144
V<a href="http://twitter.com" rel="nofollow">Twitter Web Client</a>
p1496
sg146
(lp1497
g3
(g148
g5
Ntp1498
Rp1499
(dp1500
g152
Vhttp://t.co/ljiceKDE65
p1501
sg154
Vhttp://bit.ly/1Ag7hLg
p1502
sbasg140
I543777527638929411
sbsg20
Nsg21
(lp1503
(dp1504
Vsource_user_id
p1505
I2701268012
sVsource_status_id_str
p1506
V543777527638929411
p1507
sVexpanded_url
p1508
Vhttp://twitter.com/LivinOnAHigh/status/543777527638929411/photo/1
p1509
sVdisplay_url
p1510
Vpic.twitter.com/lOapy88MjG
p1511
sVurl
p1512
Vhttp://t.co/lOapy88MjG
p1513
sVmedia_url_https
p1514
Vhttps://pbs.twimg.com/media/B4vix0YCEAEwohM.jpg
p1515
sVsource_user_id_str
p1516
V2701268012
p1517
sVsource_status_id
p1518
I543777527638929411
sVid_str
p1519
V543777525529186305
p1520
sVsizes
p1521
(dp1522
Vsmall
p1523
(dp1524
Vh
p1525
I450
sVresize
p1526
Vfit
p1527
sVw
p1528
I300
ssVlarge
p1529
(dp1530
Vh
p1531
I450
sVresize
p1532
Vfit
p1533
sVw
p1534
I300
ssVmedium
p1535
(dp1536
Vh
p1537
I450
sVresize
p1538
Vfit
p1539
sVw
p1540
I300
ssVthumb
p1541
(dp1542
Vh
p1543
I150
sVresize
p1544
Vcrop
p1545
sVw
p1546
I150
sssVindices
p1547
(lp1548
I88
aI110
asVtype
p1549
Vphoto
p1550
sVid
p1551
I543777525529186305
sVmedia_url
p1552
Vhttp://pbs.twimg.com/media/B4vix0YCEAEwohM.jpg
p1553
sasg73
Nsg74
Nsg75
Nsg76
VSun Dec 14 19:36:11 +0000 2014
p1554
sg78
Nsg79
I00
sg80
Nsg81
Nsg82
Nsg83
Nsg84
I00
sg85
Nsg86
(lp1555
g3
(g97
g5
Ntp1556
Rp1557
(dp1558
g10
Nsg102
Nsg104
Nsg106
Nsg108
Nsg109
Nsg76
Nsg111
Nsg112
Nsg114
Nsg116
Nsg117
Nsg118
Nsg119
Nsg120
Nsg121
Nsg123
Nsg124
Nsg125
Nsg127
Nsg128
Nsg129
Nsg131
VLivinOnAHigh
p1559
sg133
Nsg134
VHigh on life
p1560
sg136
Nsg138
Nsg140
I2701268012
sg141
Nsbasg88
Nsg89
Nsg90
Nsg91
VRT @LivinOnAHigh: check out the benefits of weed----&gt;http://t.co/ljiceKDE65&lt;----- http://t.co/lOapy88MjG
p1561
sg93
I00
sg94
Ven
p1562
sg96
g3
(g97
g5
Ntp1563
Rp1564
(dp1565
g10
g219
sg102
V333333
p1566
sg104
Ven
p1567
sg106
VEastern Time (US & Canada)
p1568
sg108
I79002
sg109
I94733
sg76
VWed Apr 02 03:05:37 +0000 2014
p1569
sg111
I00
sg112
Vcheck out the hottest girls of 2014 --- webstie http://t.co/GLeigCsiG5 ---
p1570
sg114
Vhttps://pbs.twimg.com/profile_images/483835441162895361/gqXo6svJ_normal.jpeg
p1571
sg116
I38936
sg117
I1836
sg118
I-18000
sg119
Nsg120
I00
sg121
Vhttps://pbs.twimg.com/profile_banners/2423097876/1404262150
p1572
sg123
I00
sg124
I00
sg125
V0084B4
p1573
sg127
I00
sg128
I00
sg129
Vhttp://abs.twimg.com/images/themes/theme1/bg.png
p1574
sg131
VTittyGods
p1575
sg133
I76
sg134
Vboobs
p1576
sg136
VDDEEF6
p1577
sg138
Vhttp://t.co/zrh7XvHy8k
p1578
sg140
I2423097876
sg141
VC0DEED
p1579
sbsg143
I60
sg144
V<a href="http://www.hootsuite.com" rel="nofollow">Hootsuite</a>
p1580
sg146
(lp1581
g3
(g148
g5
Ntp1582
Rp1583
(dp1584
g152
Vhttp://t.co/ljiceKDE65
p1585
sg154
Vhttp://bit.ly/1Ag7hLg
p1586
sbasg140
I544214286042533889
sbag3
(g4
g5
Ntp1587
Rp1588
(dp1589
g9
I0
sg10
Nsg11
Nsg12
(lp1590
sg14
I00
sg15
g3
(g4
g5
Ntp1591
Rp1592
(dp1593
g9
I1
sg10
Nsg11
Nsg12
(lp1594
sg14
I00
sg15
Nsg20
Nsg21
(lp1595
(dp1596
Vsource_user_id
p1597
I2381747401
sVsource_status_id_str
p1598
V541293926049513473
p1599
sVexpanded_url
p1600
Vhttp://twitter.com/WomensHeaIthNow/status/541293926049513473/photo/1
p1601
sVdisplay_url
p1602
Vpic.twitter.com/xQb1qp8NyT
p1603
sVurl
p1604
Vhttp://t.co/xQb1qp8NyT
p1605
sVmedia_url_https
p1606
Vhttps://pbs.twimg.com/media/B4MP9QnCAAAofjd.png
p1607
sVsource_user_id_str
p1608
V2381747401
p1609
sVsource_status_id
p1610
I541293926049513473
sVid_str
p1611
V541293925319704576
p1612
sVsizes
p1613
(dp1614
Vsmall
p1615
(dp1616
Vh
p1617
I272
sVresize
p1618
Vfit
p1619
sVw
p1620
I340
ssVlarge
p1621
(dp1622
Vh
p1623
I488
sVresize
p1624
Vfit
p1625
sVw
p1626
I608
ssVmedium
p1627
(dp1628
Vh
p1629
I481
sVresize
p1630
Vfit
p1631
sVw
p1632
I600
ssVthumb
p1633
(dp1634
Vh
p1635
I150
sVresize
p1636
Vcrop
p1637
sVw
p1638
I150
sssVindices
p1639
(lp1640
I100
aI122
asVtype
p1641
Vphoto
p1642
sVid
p1643
I541293925319704576
sVmedia_url
p1644
Vhttp://pbs.twimg.com/media/B4MP9QnCAAAofjd.png
p1645
sasg73
Nsg74
Nsg75
Nsg76
VSun Dec 14 16:40:57 +0000 2014
p1646
sg78
Nsg79
I00
sg80
Nsg81
Nsg82
Nsg83
Nsg84
I00
sg85
Nsg86
(lp1647
sg88
Nsg89
Nsg90
Nsg91
V95% of high school girls use this to lose weight for a PERFECT Bikini Body! \u000ahttp://t.co/g3X2aRHfJw\u000ahttp://t.co/xQb1qp8NyT
p1648
sg93
I00
sg94
Ven
p1649
sg96
g3
(g97
g5
Ntp1650
Rp1651
(dp1652
g10
VNew York 
p1653
sg102
V333333
p1654
sg104
Ven
p1655
sg106
VCentral Time (US & Canada)
p1656
sg108
I10329
sg109
I1633
sg76
VTue Oct 28 19:04:55 +0000 2014
p1657
sg111
I00
sg112
VFitness Products for sale. A healthy lifestyle with staying in good shape is our aim
p1658
sg114
Vhttps://pbs.twimg.com/profile_images/543798692688703488/XlEi_59-_normal.jpeg
p1659
sg116
I9267
sg117
I1420
sg118
I-21600
sg119
Nsg120
I00
sg121
Vhttps://pbs.twimg.com/profile_banners/2848650785/1418486685
p1660
sg123
I00
sg124
I00
sg125
V0084B4
p1661
sg127
I00
sg128
I00
sg129
Vhttp://abs.twimg.com/images/themes/theme1/bg.png
p1662
sg131
VFitnessPr0ducts
p1663
sg133
I9
sg134
VFelicia (Fitness)
p1664
sg136
VDDEEF6
p1665
sg138
Nsg140
I2848650785
sg141
VC0DEED
p1666
sbsg143
I38
sg144
V<a href="https://about.twitter.com/products/tweetdeck" rel="nofollow">TweetDeck</a>
p1667
sg146
(lp1668
g3
(g148
g5
Ntp1669
Rp1670
(dp1671
g152
Vhttp://t.co/g3X2aRHfJw
p1672
sg154
Vhttp://be-heaIthy.com/ZyTzYp
p1673
sbasg140
I544170185762947072
sbsg20
Nsg21
(lp1674
(dp1675
Vsource_user_id
p1676
I2381747401
sVsource_status_id_str
p1677
V541293926049513473
p1678
sVexpanded_url
p1679
Vhttp://twitter.com/WomensHeaIthNow/status/541293926049513473/photo/1
p1680
sVdisplay_url
p1681
Vpic.twitter.com/xQb1qp8NyT
p1682
sVurl
p1683
Vhttp://t.co/xQb1qp8NyT
p1684
sVmedia_url_https
p1685
Vhttps://pbs.twimg.com/media/B4MP9QnCAAAofjd.png
p1686
sVsource_user_id_str
p1687
V2381747401
p1688
sVsource_status_id
p1689
I541293926049513473
sVid_str
p1690
V541293925319704576
p1691
sVsizes
p1692
(dp1693
Vsmall
p1694
(dp1695
Vh
p1696
I272
sVresize
p1697
Vfit
p1698
sVw
p1699
I340
ssVlarge
p1700
(dp1701
Vh
p1702
I488
sVresize
p1703
Vfit
p1704
sVw
p1705
I608
ssVmedium
p1706
(dp1707
Vh
p1708
I481
sVresize
p1709
Vfit
p1710
sVw
p1711
I600
ssVthumb
p1712
(dp1713
Vh
p1714
I150
sVresize
p1715
Vcrop
p1716
sVw
p1717
I150
sssVindices
p1718
(lp1719
I139
aI140
asVtype
p1720
Vphoto
p1721
sVid
p1722
I541293925319704576
sVmedia_url
p1723
Vhttp://pbs.twimg.com/media/B4MP9QnCAAAofjd.png
p1724
sasg73
Nsg74
Nsg75
Nsg76
VSun Dec 14 19:35:01 +0000 2014
p1725
sg78
Nsg79
I00
sg80
Nsg81
Nsg82
Nsg83
Nsg84
I00
sg85
Nsg86
(lp1726
g3
(g97
g5
Ntp1727
Rp1728
(dp1729
g10
Nsg102
Nsg104
Nsg106
Nsg108
Nsg109
Nsg76
Nsg111
Nsg112
Nsg114
Nsg116
Nsg117
Nsg118
Nsg119
Nsg120
Nsg121
Nsg123
Nsg124
Nsg125
Nsg127
Nsg128
Nsg129
Nsg131
VFitnessPr0ducts
p1730
sg133
Nsg134
VFelicia (Fitness)
p1731
sg136
Nsg138
Nsg140
I2848650785
sg141
Nsbasg88
Nsg89
Nsg90
Nsg91
VRT @FitnessPr0ducts: 95% of high school girls use this to lose weight for a PERFECT Bikini Body! \u000ahttp://t.co/g3X2aRHfJw\u000ahttp://t.co/xQb1qp\u2026
p1732
sg93
I00
sg94
Ven
p1733
sg96
g3
(g97
g5
Ntp1734
Rp1735
(dp1736
g10
g219
sg102
V333333
p1737
sg104
Ven
p1738
sg106
VEastern Time (US & Canada)
p1739
sg108
I79002
sg109
I94733
sg76
VWed Apr 02 03:05:37 +0000 2014
p1740
sg111
I00
sg112
Vcheck out the hottest girls of 2014 --- webstie http://t.co/GLeigCsiG5 ---
p1741
sg114
Vhttps://pbs.twimg.com/profile_images/483835441162895361/gqXo6svJ_normal.jpeg
p1742
sg116
I38936
sg117
I1836
sg118
I-18000
sg119
Nsg120
I00
sg121
Vhttps://pbs.twimg.com/profile_banners/2423097876/1404262150
p1743
sg123
I00
sg124
I00
sg125
V0084B4
p1744
sg127
I00
sg128
I00
sg129
Vhttp://abs.twimg.com/images/themes/theme1/bg.png
p1745
sg131
VTittyGods
p1746
sg133
I76
sg134
Vboobs
p1747
sg136
VDDEEF6
p1748
sg138
Vhttp://t.co/zrh7XvHy8k
p1749
sg140
I2423097876
sg141
VC0DEED
p1750
sbsg143
I38
sg144
V<a href="http://www.hootsuite.com" rel="nofollow">Hootsuite</a>
p1751
sg146
(lp1752
g3
(g148
g5
Ntp1753
Rp1754
(dp1755
g152
Vhttp://t.co/g3X2aRHfJw
p1756
sg154
Vhttp://be-heaIthy.com/ZyTzYp
p1757
sbasg140
I544213992630390784
sbag3
(g4
g5
Ntp1758
Rp1759
(dp1760
g9
I0
sg10
Nsg11
Nsg12
(lp1761
sg14
I00
sg15
g3
(g4
g5
Ntp1762
Rp1763
(dp1764
g9
I7
sg10
Nsg11
Nsg12
(lp1765
sg14
I00
sg15
Nsg20
Nsg21
(lp1766
sg73
Nsg74
Nsg75
Nsg76
VSun Dec 14 19:29:41 +0000 2014
p1767
sg78
Nsg79
Nsg80
Nsg81
Nsg82
Nsg83
Nsg84
I00
sg85
Nsg86
(lp1768
sg88
Nsg89
Nsg90
Nsg91
VWhat's the perfect girl if it's not the perfect time?
p1769
sg93
I00
sg94
Ven
p1770
sg96
g3
(g97
g5
Ntp1771
Rp1772
(dp1773
g10
Vlincoln ne 
p1774
sg102
V333333
p1775
sg104
Ven
p1776
sg106
VEastern Time (US & Canada)
p1777
sg108
I99422
sg109
I87539
sg76
VFri Jun 22 20:23:40 +0000 2012
p1778
sg111
I00
sg112
Vwebsite site owner advertise for google not rich but pavin my way to success.
p1779
sg114
Vhttps://pbs.twimg.com/profile_images/526469027859034112/LH9TzZ2w_normal.jpeg
p1780
sg116
I69464
sg117
I1706
sg118
I-18000
sg119
Nsg120
I00
sg121
Vhttps://pbs.twimg.com/profile_banners/615501427/1417851543
p1781
sg123
I00
sg124
I01
sg125
V0EA4F5
p1782
sg127
I00
sg128
I00
sg129
Vhttp://pbs.twimg.com/profile_background_images/458499577671204864/aLTzKuOD.jpeg
p1783
sg131
VDreamville402
p1784
sg133
I74
sg134
VDreamer
p1785
sg136
VDDEEF6
p1786
sg138
Vhttp://t.co/nMec1JExyd
p1787
sg140
I615501427
sg141
VC0DEED
p1788
sbsg143
I20
sg144
V<a href="https://about.twitter.com/products/tweetdeck" rel="nofollow">TweetDeck</a>
p1789
sg146
(lp1790
sg140
I544212649404157952
sbsg20
Nsg21
(lp1791
sg73
Nsg74
Nsg75
Nsg76
VSun Dec 14 19:34:53 +0000 2014
p1792
sg78
Nsg79
Nsg80
Nsg81
Nsg82
Nsg83
Nsg84
I00
sg85
Nsg86
(lp1793
g3
(g97
g5
Ntp1794
Rp1795
(dp1796
g10
Nsg102
Nsg104
Nsg106
Nsg108
Nsg109
Nsg76
Nsg111
Nsg112
Nsg114
Nsg116
Nsg117
Nsg118
Nsg119
Nsg120
Nsg121
Nsg123
Nsg124
Nsg125
Nsg127
Nsg128
Nsg129
Nsg131
VDreamville402
p1797
sg133
Nsg134
VDreamer
p1798
sg136
Nsg138
Nsg140
I615501427
sg141
Nsbasg88
Nsg89
Nsg90
Nsg91
VRT @Dreamville402: What's the perfect girl if it's not the perfect time?
p1799
sg93
I00
sg94
Ven
p1800
sg96
g3
(g97
g5
Ntp1801
Rp1802
(dp1803
g10
g219
sg102
V333333
p1804
sg104
Ven
p1805
sg106
VEastern Time (US & Canada)
p1806
sg108
I79002
sg109
I94733
sg76
VWed Apr 02 03:05:37 +0000 2014
p1807
sg111
I00
sg112
Vcheck out the hottest girls of 2014 --- webstie http://t.co/GLeigCsiG5 ---
p1808
sg114
Vhttps://pbs.twimg.com/profile_images/483835441162895361/gqXo6svJ_normal.jpeg
p1809
sg116
I38936
sg117
I1836
sg118
I-18000
sg119
Nsg120
I00
sg121
Vhttps://pbs.twimg.com/profile_banners/2423097876/1404262150
p1810
sg123
I00
sg124
I00
sg125
V0084B4
p1811
sg127
I00
sg128
I00
sg129
Vhttp://abs.twimg.com/images/themes/theme1/bg.png
p1812
sg131
VTittyGods
p1813
sg133
I76
sg134
Vboobs
p1814
sg136
VDDEEF6
p1815
sg138
Vhttp://t.co/zrh7XvHy8k
p1816
sg140
I2423097876
sg141
VC0DEED
p1817
sbsg143
I20
sg144
V<a href="https://about.twitter.com/products/tweetdeck" rel="nofollow">TweetDeck</a>
p1818
sg146
(lp1819
sg140
I544213958014427136
sbag3
(g4
g5
Ntp1820
Rp1821
(dp1822
g9
I0
sg10
Nsg11
Nsg12
(lp1823
sg14
I00
sg15
g3
(g4
g5
Ntp1824
Rp1825
(dp1826
g9
I2
sg10
Nsg11
Nsg12
(lp1827
sg14
I00
sg15
Nsg20
Nsg21
(lp1828
(dp1829
Vsource_user_id
p1830
I2381747401
sVsource_status_id_str
p1831
V541650190986264576
p1832
sVexpanded_url
p1833
Vhttp://twitter.com/WomensHeaIthNow/status/541650190986264576/photo/1
p1834
sVdisplay_url
p1835
Vpic.twitter.com/7ewqaEPjni
p1836
sVurl
p1837
Vhttp://t.co/7ewqaEPjni
p1838
sVmedia_url_https
p1839
Vhttps://pbs.twimg.com/media/B4RT-mrCYAA48Q4.png
p1840
sVsource_user_id_str
p1841
V2381747401
p1842
sVsource_status_id
p1843
I541650190986264576
sVid_str
p1844
V541650190189355008
p1845
sVsizes
p1846
(dp1847
Vlarge
p1848
(dp1849
Vh
p1850
I374
sVresize
p1851
Vfit
p1852
sVw
p1853
I511
ssVsmall
p1854
(dp1855
Vh
p1856
I248
sVresize
p1857
Vfit
p1858
sVw
p1859
I340
ssVmedium
p1860
(dp1861
Vh
p1862
I374
sVresize
p1863
Vfit
p1864
sVw
p1865
I511
ssVthumb
p1866
(dp1867
Vh
p1868
I150
sVresize
p1869
Vcrop
p1870
sVw
p1871
I150
sssVindices
p1872
(lp1873
I95
aI117
asVtype
p1874
Vphoto
p1875
sVid
p1876
I541650190189355008
sVmedia_url
p1877
Vhttp://pbs.twimg.com/media/B4RT-mrCYAA48Q4.png
p1878
sasg73
Nsg74
Nsg75
Nsg76
VSun Dec 14 16:41:06 +0000 2014
p1879
sg78
Nsg79
I00
sg80
Nsg81
Nsg82
Nsg83
Nsg84
I00
sg85
Nsg86
(lp1880
sg88
Nsg89
Nsg90
Nsg91
VIt's Time For You To Change Your Body! Become slim in 4 weeks with this\u000ahttp://t.co/g3X2aRHfJw\u000ahttp://t.co/7ewqaEPjni
p1881
sg93
I00
sg94
Ven
p1882
sg96
g3
(g97
g5
Ntp1883
Rp1884
(dp1885
g10
VNew York 
p1886
sg102
V333333
p1887
sg104
Ven
p1888
sg106
VCentral Time (US & Canada)
p1889
sg108
I10329
sg109
I1633
sg76
VTue Oct 28 19:04:55 +0000 2014
p1890
sg111
I00
sg112
VFitness Products for sale. A healthy lifestyle with staying in good shape is our aim
p1891
sg114
Vhttps://pbs.twimg.com/profile_images/543798692688703488/XlEi_59-_normal.jpeg
p1892
sg116
I9267
sg117
I1420
sg118
I-21600
sg119
Nsg120
I00
sg121
Vhttps://pbs.twimg.com/profile_banners/2848650785/1418486685
p1893
sg123
I00
sg124
I00
sg125
V0084B4
p1894
sg127
I00
sg128
I00
sg129
Vhttp://abs.twimg.com/images/themes/theme1/bg.png
p1895
sg131
VFitnessPr0ducts
p1896
sg133
I9
sg134
VFelicia (Fitness)
p1897
sg136
VDDEEF6
p1898
sg138
Nsg140
I2848650785
sg141
VC0DEED
p1899
sbsg143
I39
sg144
V<a href="https://about.twitter.com/products/tweetdeck" rel="nofollow">TweetDeck</a>
p1900
sg146
(lp1901
g3
(g148
g5
Ntp1902
Rp1903
(dp1904
g152
Vhttp://t.co/g3X2aRHfJw
p1905
sg154
Vhttp://be-heaIthy.com/ZyTzYp
p1906
sbasg140
I544170226573520896
sbsg20
Nsg21
(lp1907
(dp1908
Vsource_user_id
p1909
I2381747401
sVsource_status_id_str
p1910
V541650190986264576
p1911
sVexpanded_url
p1912
Vhttp://twitter.com/WomensHeaIthNow/status/541650190986264576/photo/1
p1913
sVdisplay_url
p1914
Vpic.twitter.com/7ewqaEPjni
p1915
sVurl
p1916
Vhttp://t.co/7ewqaEPjni
p1917
sVmedia_url_https
p1918
Vhttps://pbs.twimg.com/media/B4RT-mrCYAA48Q4.png
p1919
sVsource_user_id_str
p1920
V2381747401
p1921
sVsource_status_id
p1922
I541650190986264576
sVid_str
p1923
V541650190189355008
p1924
sVsizes
p1925
(dp1926
Vlarge
p1927
(dp1928
Vh
p1929
I374
sVresize
p1930
Vfit
p1931
sVw
p1932
I511
ssVsmall
p1933
(dp1934
Vh
p1935
I248
sVresize
p1936
Vfit
p1937
sVw
p1938
I340
ssVmedium
p1939
(dp1940
Vh
p1941
I374
sVresize
p1942
Vfit
p1943
sVw
p1944
I511
ssVthumb
p1945
(dp1946
Vh
p1947
I150
sVresize
p1948
Vcrop
p1949
sVw
p1950
I150
sssVindices
p1951
(lp1952
I116
aI138
asVtype
p1953
Vphoto
p1954
sVid
p1955
I541650190189355008
sVmedia_url
p1956
Vhttp://pbs.twimg.com/media/B4RT-mrCYAA48Q4.png
p1957
sasg73
Nsg74
Nsg75
Nsg76
VSun Dec 14 19:34:33 +0000 2014
p1958
sg78
Nsg79
I00
sg80
Nsg81
Nsg82
Nsg83
Nsg84
I00
sg85
Nsg86
(lp1959
g3
(g97
g5
Ntp1960
Rp1961
(dp1962
g10
Nsg102
Nsg104
Nsg106
Nsg108
Nsg109
Nsg76
Nsg111
Nsg112
Nsg114
Nsg116
Nsg117
Nsg118
Nsg119
Nsg120
Nsg121
Nsg123
Nsg124
Nsg125
Nsg127
Nsg128
Nsg129
Nsg131
VFitnessPr0ducts
p1963
sg133
Nsg134
VFelicia (Fitness)
p1964
sg136
Nsg138
Nsg140
I2848650785
sg141
Nsbasg88
Nsg89
Nsg90
Nsg91
VRT @FitnessPr0ducts: It's Time For You To Change Your Body! Become slim in 4 weeks with this\u000ahttp://t.co/g3X2aRHfJw\u000ahttp://t.co/7ewqaEPjni
p1965
sg93
I00
sg94
Ven
p1966
sg96
g3
(g97
g5
Ntp1967
Rp1968
(dp1969
g10
g219
sg102
V333333
p1970
sg104
Ven
p1971
sg106
VEastern Time (US & Canada)
p1972
sg108
I79002
sg109
I94733
sg76
VWed Apr 02 03:05:37 +0000 2014
p1973
sg111
I00
sg112
Vcheck out the hottest girls of 2014 --- webstie http://t.co/GLeigCsiG5 ---
p1974
sg114
Vhttps://pbs.twimg.com/profile_images/483835441162895361/gqXo6svJ_normal.jpeg
p1975
sg116
I38936
sg117
I1836
sg118
I-18000
sg119
Nsg120
I00
sg121
Vhttps://pbs.twimg.com/profile_banners/2423097876/1404262150
p1976
sg123
I00
sg124
I00
sg125
V0084B4
p1977
sg127
I00
sg128
I00
sg129
Vhttp://abs.twimg.com/images/themes/theme1/bg.png
p1978
sg131
VTittyGods
p1979
sg133
I76
sg134
Vboobs
p1980
sg136
VDDEEF6
p1981
sg138
Vhttp://t.co/zrh7XvHy8k
p1982
sg140
I2423097876
sg141
VC0DEED
p1983
sbsg143
I39
sg144
V<a href="http://www.hootsuite.com" rel="nofollow">Hootsuite</a>
p1984
sg146
(lp1985
g3
(g148
g5
Ntp1986
Rp1987
(dp1988
g152
Vhttp://t.co/g3X2aRHfJw
p1989
sg154
Vhttp://be-heaIthy.com/ZyTzYp
p1990
sbasg140
I544213876834058240
sbag3
(g4
g5
Ntp1991
Rp1992
(dp1993
g9
I0
sg10
Nsg11
Nsg12
(lp1994
sg14
I00
sg15
g3
(g4
g5
Ntp1995
Rp1996
(dp1997
g9
I2
sg10
Nsg11
Nsg12
(lp1998
sg14
I00
sg15
Nsg20
Nsg21
(lp1999
(dp2000
Vsource_user_id
p2001
I2381747401
sVsource_status_id_str
p2002
V542023726686937088
p2003
sVexpanded_url
p2004
Vhttp://twitter.com/WomensHeaIthNow/status/542023726686937088/photo/1
p2005
sVdisplay_url
p2006
Vpic.twitter.com/pH4WyqEqIY
p2007
sVurl
p2008
Vhttp://t.co/pH4WyqEqIY
p2009
sVmedia_url_https
p2010
Vhttps://pbs.twimg.com/media/B4WntPQCEAE_Y-Q.png
p2011
sVsource_user_id_str
p2012
V2381747401
p2013
sVsource_status_id
p2014
I542023726686937088
sVid_str
p2015
V542023725797740545
p2016
sVsizes
p2017
(dp2018
Vsmall
p2019
(dp2020
Vh
p2021
I340
sVresize
p2022
Vfit
p2023
sVw
p2024
I340
ssVlarge
p2025
(dp2026
Vh
p2027
I610
sVresize
p2028
Vfit
p2029
sVw
p2030
I610
ssVmedium
p2031
(dp2032
Vh
p2033
I600
sVresize
p2034
Vfit
p2035
sVw
p2036
I600
ssVthumb
p2037
(dp2038
Vh
p2039
I150
sVresize
p2040
Vcrop
p2041
sVw
p2042
I150
sssVindices
p2043
(lp2044
I119
aI141
asVtype
p2045
Vphoto
p2046
sVid
p2047
I542023725797740545
sVmedia_url
p2048
Vhttp://pbs.twimg.com/media/B4WntPQCEAE_Y-Q.png
p2049
sasg73
Nsg74
Nsg75
Nsg76
VSun Dec 14 16:41:12 +0000 2014
p2050
sg78
Nsg79
I00
sg80
Nsg81
Nsg82
Nsg83
Nsg84
I00
sg85
Nsg86
(lp2051
sg88
Nsg89
Nsg90
Nsg91
VYou Can Easily Trick Your Body &amp; Make It LOSE FAT! Double Your Weight Loss Potential Using.\u000ahttp://t.co/g3X2aRHfJw\u000ahttp://t.co/pH4WyqEqIY
p2052
sg93
I00
sg94
Ven
p2053
sg96
g3
(g97
g5
Ntp2054
Rp2055
(dp2056
g10
VNew York 
p2057
sg102
V333333
p2058
sg104
Ven
p2059
sg106
VCentral Time (US & Canada)
p2060
sg108
I10329
sg109
I1633
sg76
VTue Oct 28 19:04:55 +0000 2014
p2061
sg111
I00
sg112
VFitness Products for sale. A healthy lifestyle with staying in good shape is our aim
p2062
sg114
Vhttps://pbs.twimg.com/profile_images/543798692688703488/XlEi_59-_normal.jpeg
p2063
sg116
I9267
sg117
I1420
sg118
I-21600
sg119
Nsg120
I00
sg121
Vhttps://pbs.twimg.com/profile_banners/2848650785/1418486685
p2064
sg123
I00
sg124
I00
sg125
V0084B4
p2065
sg127
I00
sg128
I00
sg129
Vhttp://abs.twimg.com/images/themes/theme1/bg.png
p2066
sg131
VFitnessPr0ducts
p2067
sg133
I9
sg134
VFelicia (Fitness)
p2068
sg136
VDDEEF6
p2069
sg138
Nsg140
I2848650785
sg141
VC0DEED
p2070
sbsg143
I41
sg144
V<a href="https://about.twitter.com/products/tweetdeck" rel="nofollow">TweetDeck</a>
p2071
sg146
(lp2072
g3
(g148
g5
Ntp2073
Rp2074
(dp2075
g152
Vhttp://t.co/g3X2aRHfJw
p2076
sg154
Vhttp://be-heaIthy.com/ZyTzYp
p2077
sbasg140
I544170250241990657
sbsg20
Nsg21
(lp2078
(dp2079
Vsource_user_id
p2080
I2381747401
sVsource_status_id_str
p2081
V542023726686937088
p2082
sVexpanded_url
p2083
Vhttp://twitter.com/WomensHeaIthNow/status/542023726686937088/photo/1
p2084
sVdisplay_url
p2085
Vpic.twitter.com/pH4WyqEqIY
p2086
sVurl
p2087
Vhttp://t.co/pH4WyqEqIY
p2088
sVmedia_url_https
p2089
Vhttps://pbs.twimg.com/media/B4WntPQCEAE_Y-Q.png
p2090
sVsource_user_id_str
p2091
V2381747401
p2092
sVsource_status_id
p2093
I542023726686937088
sVid_str
p2094
V542023725797740545
p2095
sVsizes
p2096
(dp2097
Vsmall
p2098
(dp2099
Vh
p2100
I340
sVresize
p2101
Vfit
p2102
sVw
p2103
I340
ssVlarge
p2104
(dp2105
Vh
p2106
I610
sVresize
p2107
Vfit
p2108
sVw
p2109
I610
ssVmedium
p2110
(dp2111
Vh
p2112
I600
sVresize
p2113
Vfit
p2114
sVw
p2115
I600
ssVthumb
p2116
(dp2117
Vh
p2118
I150
sVresize
p2119
Vcrop
p2120
sVw
p2121
I150
sssVindices
p2122
(lp2123
I143
aI144
asVtype
p2124
Vphoto
p2125
sVid
p2126
I542023725797740545
sVmedia_url
p2127
Vhttp://pbs.twimg.com/media/B4WntPQCEAE_Y-Q.png
p2128
sasg73
Nsg74
Nsg75
Nsg76
VSun Dec 14 19:34:09 +0000 2014
p2129
sg78
Nsg79
I00
sg80
Nsg81
Nsg82
Nsg83
Nsg84
I00
sg85
Nsg86
(lp2130
g3
(g97
g5
Ntp2131
Rp2132
(dp2133
g10
Nsg102
Nsg104
Nsg106
Nsg108
Nsg109
Nsg76
Nsg111
Nsg112
Nsg114
Nsg116
Nsg117
Nsg118
Nsg119
Nsg120
Nsg121
Nsg123
Nsg124
Nsg125
Nsg127
Nsg128
Nsg129
Nsg131
VFitnessPr0ducts
p2134
sg133
Nsg134
VFelicia (Fitness)
p2135
sg136
Nsg138
Nsg140
I2848650785
sg141
Nsbasg88
Nsg89
Nsg90
Nsg91
VRT @FitnessPr0ducts: You Can Easily Trick Your Body &amp; Make It LOSE FAT! Double Your Weight Loss Potential Using.\u000ahttp://t.co/g3X2aRHfJw\u000ahtt\u2026
p2136
sg93
I00
sg94
Ven
p2137
sg96
g3
(g97
g5
Ntp2138
Rp2139
(dp2140
g10
g219
sg102
V333333
p2141
sg104
Ven
p2142
sg106
VEastern Time (US & Canada)
p2143
sg108
I79002
sg109
I94733
sg76
VWed Apr 02 03:05:37 +0000 2014
p2144
sg111
I00
sg112
Vcheck out the hottest girls of 2014 --- webstie http://t.co/GLeigCsiG5 ---
p2145
sg114
Vhttps://pbs.twimg.com/profile_images/483835441162895361/gqXo6svJ_normal.jpeg
p2146
sg116
I38936
sg117
I1836
sg118
I-18000
sg119
Nsg120
I00
sg121
Vhttps://pbs.twimg.com/profile_banners/2423097876/1404262150
p2147
sg123
I00
sg124
I00
sg125
V0084B4
p2148
sg127
I00
sg128
I00
sg129
Vhttp://abs.twimg.com/images/themes/theme1/bg.png
p2149
sg131
VTittyGods
p2150
sg133
I76
sg134
Vboobs
p2151
sg136
VDDEEF6
p2152
sg138
Vhttp://t.co/zrh7XvHy8k
p2153
sg140
I2423097876
sg141
VC0DEED
p2154
sbsg143
I41
sg144
V<a href="http://www.hootsuite.com" rel="nofollow">Hootsuite</a>
p2155
sg146
(lp2156
g3
(g148
g5
Ntp2157
Rp2158
(dp2159
g152
Vhttp://t.co/g3X2aRHfJw
p2160
sg154
Vhttp://be-heaIthy.com/ZyTzYp
p2161
sbasg140
I544213774035849217
sbag3
(g4
g5
Ntp2162
Rp2163
(dp2164
g9
I0
sg10
Nsg11
Nsg12
(lp2165
sg14
I00
sg15
g3
(g4
g5
Ntp2166
Rp2167
(dp2168
g9
I2
sg10
Nsg11
Nsg12
(lp2169
sg14
I00
sg15
Nsg20
Nsg21
(lp2170
(dp2171
Vsource_user_id
p2172
I2381747401
sVsource_status_id_str
p2173
V542023795414798336
p2174
sVexpanded_url
p2175
Vhttp://twitter.com/WomensHeaIthNow/status/542023795414798336/photo/1
p2176
sVdisplay_url
p2177
Vpic.twitter.com/frv1q3RuxR
p2178
sVurl
p2179
Vhttp://t.co/frv1q3RuxR
p2180
sVmedia_url_https
p2181
Vhttps://pbs.twimg.com/media/B4WnxPyCUAAP_h4.png
p2182
sVsource_user_id_str
p2183
V2381747401
p2184
sVsource_status_id
p2185
I542023795414798336
sVid_str
p2186
V542023794659840000
p2187
sVsizes
p2188
(dp2189
Vsmall
p2190
(dp2191
Vh
p2192
I337
sVresize
p2193
Vfit
p2194
sVw
p2195
I340
ssVlarge
p2196
(dp2197
Vh
p2198
I575
sVresize
p2199
Vfit
p2200
sVw
p2201
I580
ssVmedium
p2202
(dp2203
Vh
p2204
I575
sVresize
p2205
Vfit
p2206
sVw
p2207
I580
ssVthumb
p2208
(dp2209
Vh
p2210
I150
sVresize
p2211
Vcrop
p2212
sVw
p2213
I150
sssVindices
p2214
(lp2215
I113
aI135
asVtype
p2216
Vphoto
p2217
sVid
p2218
I542023794659840000
sVmedia_url
p2219
Vhttp://pbs.twimg.com/media/B4WnxPyCUAAP_h4.png
p2220
sasg73
Nsg74
Nsg75
Nsg76
VSun Dec 14 16:41:22 +0000 2014
p2221
sg78
Nsg79
I00
sg80
Nsg81
Nsg82
Nsg83
Nsg84
I00
sg85
Nsg86
(lp2222
sg88
Nsg89
Nsg90
Nsg91
VWanna make your EX Mad With Your Body? Start using this one trick to lose 5lbs in a week!\u000ahttp://t.co/pyyHl1yluR\u000ahttp://t.co/frv1q3RuxR
p2223
sg93
I00
sg94
Ven
p2224
sg96
g3
(g97
g5
Ntp2225
Rp2226
(dp2227
g10
VUSA
p2228
sg102
V000000
p2229
sg104
Ven
p2230
sg106
VCentral Time (US & Canada)
p2231
sg108
I13114
sg109
I2434
sg76
VSun Oct 05 03:53:09 +0000 2014
p2232
sg111
I00
sg112
VHealth Tips and Fitness Products for Sale, Reasonable Prices. Get your Body In shape Today with just one Purchase http://t.co/xkOQknGGPw
p2233
sg114
Vhttps://pbs.twimg.com/profile_images/544123463632683008/4RmuTEEA_normal.jpeg
p2234
sg116
I10487
sg117
I2056
sg118
I-21600
sg119
Nsg120
I00
sg121
Vhttps://pbs.twimg.com/profile_banners/2806644423/1418487694
p2235
sg123
I00
sg124
I00
sg125
V4A913C
p2236
sg127
I00
sg128
I00
sg129
Vhttp://abs.twimg.com/images/themes/theme1/bg.png
p2237
sg131
VFitness_HeaIth
p2238
sg133
I18
sg134
VMelissa
p2239
sg136
V000000
p2240
sg138
Nsg140
I2806644423
sg141
V000000
p2241
sbsg143
I38
sg144
V<a href="https://about.twitter.com/products/tweetdeck" rel="nofollow">TweetDeck</a>
p2242
sg146
(lp2243
g3
(g148
g5
Ntp2244
Rp2245
(dp2246
g152
Vhttp://t.co/pyyHl1yluR
p2247
sg154
Vhttp://be-heaIthy.com/ZyTzYp
p2248
sbasg140
I544170290989654016
sbsg20
Nsg21
(lp2249
(dp2250
Vsource_user_id
p2251
I2381747401
sVsource_status_id_str
p2252
V542023795414798336
p2253
sVexpanded_url
p2254
Vhttp://twitter.com/WomensHeaIthNow/status/542023795414798336/photo/1
p2255
sVdisplay_url
p2256
Vpic.twitter.com/frv1q3RuxR
p2257
sVurl
p2258
Vhttp://t.co/frv1q3RuxR
p2259
sVmedia_url_https
p2260
Vhttps://pbs.twimg.com/media/B4WnxPyCUAAP_h4.png
p2261
sVsource_user_id_str
p2262
V2381747401
p2263
sVsource_status_id
p2264
I542023795414798336
sVid_str
p2265
V542023794659840000
p2266
sVsizes
p2267
(dp2268
Vsmall
p2269
(dp2270
Vh
p2271
I337
sVresize
p2272
Vfit
p2273
sVw
p2274
I340
ssVlarge
p2275
(dp2276
Vh
p2277
I575
sVresize
p2278
Vfit
p2279
sVw
p2280
I580
ssVmedium
p2281
(dp2282
Vh
p2283
I575
sVresize
p2284
Vfit
p2285
sVw
p2286
I580
ssVthumb
p2287
(dp2288
Vh
p2289
I150
sVresize
p2290
Vcrop
p2291
sVw
p2292
I150
sssVindices
p2293
(lp2294
I139
aI140
asVtype
p2295
Vphoto
p2296
sVid
p2297
I542023794659840000
sVmedia_url
p2298
Vhttp://pbs.twimg.com/media/B4WnxPyCUAAP_h4.png
p2299
sasg73
Nsg74
Nsg75
Nsg76
VSun Dec 14 19:33:30 +0000 2014
p2300
sg78
Nsg79
I00
sg80
Nsg81
Nsg82
Nsg83
Nsg84
I00
sg85
Nsg86
(lp2301
g3
(g97
g5
Ntp2302
Rp2303
(dp2304
g10
Nsg102
Nsg104
Nsg106
Nsg108
Nsg109
Nsg76
Nsg111
Nsg112
Nsg114
Nsg116
Nsg117
Nsg118
Nsg119
Nsg120
Nsg121
Nsg123
Nsg124
Nsg125
Nsg127
Nsg128
Nsg129
Nsg131
VFitness_HeaIth
p2305
sg133
Nsg134
VMelissa
p2306
sg136
Nsg138
Nsg140
I2806644423
sg141
Nsbasg88
Nsg89
Nsg90
Nsg91
VRT @Fitness_HeaIth: Wanna make your EX Mad With Your Body? Start using this one trick to lose 5lbs in a week!\u000ahttp://t.co/pyyHl1yluR\u000ahttp:/\u2026
p2307
sg93
I00
sg94
Ven
p2308
sg96
g3
(g97
g5
Ntp2309
Rp2310
(dp2311
g10
g219
sg102
V333333
p2312
sg104
Ven
p2313
sg106
VEastern Time (US & Canada)
p2314
sg108
I79002
sg109
I94733
sg76
VWed Apr 02 03:05:37 +0000 2014
p2315
sg111
I00
sg112
Vcheck out the hottest girls of 2014 --- webstie http://t.co/GLeigCsiG5 ---
p2316
sg114
Vhttps://pbs.twimg.com/profile_images/483835441162895361/gqXo6svJ_normal.jpeg
p2317
sg116
I38936
sg117
I1836
sg118
I-18000
sg119
Nsg120
I00
sg121
Vhttps://pbs.twimg.com/profile_banners/2423097876/1404262150
p2318
sg123
I00
sg124
I00
sg125
V0084B4
p2319
sg127
I00
sg128
I00
sg129
Vhttp://abs.twimg.com/images/themes/theme1/bg.png
p2320
sg131
VTittyGods
p2321
sg133
I76
sg134
Vboobs
p2322
sg136
VDDEEF6
p2323
sg138
Vhttp://t.co/zrh7XvHy8k
p2324
sg140
I2423097876
sg141
VC0DEED
p2325
sbsg143
I38
sg144
V<a href="http://www.hootsuite.com" rel="nofollow">Hootsuite</a>
p2326
sg146
(lp2327
g3
(g148
g5
Ntp2328
Rp2329
(dp2330
g152
Vhttp://t.co/pyyHl1yluR
p2331
sg154
Vhttp://be-heaIthy.com/ZyTzYp
p2332
sbasg140
I544213611296862208
sbag3
(g4
g5
Ntp2333
Rp2334
(dp2335
g9
I0
sg10
Nsg11
Nsg12
(lp2336
sg14
I00
sg15
g3
(g4
g5
Ntp2337
Rp2338
(dp2339
g9
I1
sg10
Nsg11
Nsg12
(lp2340
sg14
I00
sg15
Nsg20
Nsg21
(lp2341
(dp2342
Vsource_user_id
p2343
I2381747401
sVsource_status_id_str
p2344
V542745732805971968
p2345
sVexpanded_url
p2346
Vhttp://twitter.com/WomensHeaIthNow/status/542745732805971968/photo/1
p2347
sVdisplay_url
p2348
Vpic.twitter.com/cqwATK6nOY
p2349
sVurl
p2350
Vhttp://t.co/cqwATK6nOY
p2351
sVmedia_url_https
p2352
Vhttps://pbs.twimg.com/media/B4g4XiQIEAAufna.png
p2353
sVsource_user_id_str
p2354
V2381747401
p2355
sVsource_status_id
p2356
I542745732805971968
sVid_str
p2357
V542745732080734208
p2358
sVsizes
p2359
(dp2360
Vsmall
p2361
(dp2362
Vh
p2363
I339
sVresize
p2364
Vfit
p2365
sVw
p2366
I340
ssVlarge
p2367
(dp2368
Vh
p2369
I587
sVresize
p2370
Vfit
p2371
sVw
p2372
I588
ssVmedium
p2373
(dp2374
Vh
p2375
I587
sVresize
p2376
Vfit
p2377
sVw
p2378
I588
ssVthumb
p2379
(dp2380
Vh
p2381
I150
sVresize
p2382
Vcrop
p2383
sVw
p2384
I150
sssVindices
p2385
(lp2386
I94
aI116
asVtype
p2387
Vphoto
p2388
sVid
p2389
I542745732080734208
sVmedia_url
p2390
Vhttp://pbs.twimg.com/media/B4g4XiQIEAAufna.png
p2391
sasg73
Nsg74
Nsg75
Nsg76
VSun Dec 14 16:41:26 +0000 2014
p2392
sg78
Nsg79
I00
sg80
Nsg81
Nsg82
Nsg83
Nsg84
I00
sg85
Nsg86
(lp2393
sg88
Nsg89
Nsg90
Nsg91
VGirls are getting the body of their dreams with this celebrity secret \u000ahttp://t.co/pyyHl1yluR\u000ahttp://t.co/cqwATK6nOY
p2394
sg93
I00
sg94
Ven
p2395
sg96
g3
(g97
g5
Ntp2396
Rp2397
(dp2398
g10
VUSA
p2399
sg102
V000000
p2400
sg104
Ven
p2401
sg106
VCentral Time (US & Canada)
p2402
sg108
I13114
sg109
I2434
sg76
VSun Oct 05 03:53:09 +0000 2014
p2403
sg111
I00
sg112
VHealth Tips and Fitness Products for Sale, Reasonable Prices. Get your Body In shape Today with just one Purchase http://t.co/xkOQknGGPw
p2404
sg114
Vhttps://pbs.twimg.com/profile_images/544123463632683008/4RmuTEEA_normal.jpeg
p2405
sg116
I10487
sg117
I2056
sg118
I-21600
sg119
Nsg120
I00
sg121
Vhttps://pbs.twimg.com/profile_banners/2806644423/1418487694
p2406
sg123
I00
sg124
I00
sg125
V4A913C
p2407
sg127
I00
sg128
I00
sg129
Vhttp://abs.twimg.com/images/themes/theme1/bg.png
p2408
sg131
VFitness_HeaIth
p2409
sg133
I18
sg134
VMelissa
p2410
sg136
V000000
p2411
sg138
Nsg140
I2806644423
sg141
V000000
p2412
sbsg143
I41
sg144
V<a href="https://about.twitter.com/products/tweetdeck" rel="nofollow">TweetDeck</a>
p2413
sg146
(lp2414
g3
(g148
g5
Ntp2415
Rp2416
(dp2417
g152
Vhttp://t.co/pyyHl1yluR
p2418
sg154
Vhttp://be-heaIthy.com/ZyTzYp
p2419
sbasg140
I544170310308605954
sbsg20
Nsg21
(lp2420
(dp2421
Vsource_user_id
p2422
I2381747401
sVsource_status_id_str
p2423
V542745732805971968
p2424
sVexpanded_url
p2425
Vhttp://twitter.com/WomensHeaIthNow/status/542745732805971968/photo/1
p2426
sVdisplay_url
p2427
Vpic.twitter.com/cqwATK6nOY
p2428
sVurl
p2429
Vhttp://t.co/cqwATK6nOY
p2430
sVmedia_url_https
p2431
Vhttps://pbs.twimg.com/media/B4g4XiQIEAAufna.png
p2432
sVsource_user_id_str
p2433
V2381747401
p2434
sVsource_status_id
p2435
I542745732805971968
sVid_str
p2436
V542745732080734208
p2437
sVsizes
p2438
(dp2439
Vsmall
p2440
(dp2441
Vh
p2442
I339
sVresize
p2443
Vfit
p2444
sVw
p2445
I340
ssVlarge
p2446
(dp2447
Vh
p2448
I587
sVresize
p2449
Vfit
p2450
sVw
p2451
I588
ssVmedium
p2452
(dp2453
Vh
p2454
I587
sVresize
p2455
Vfit
p2456
sVw
p2457
I588
ssVthumb
p2458
(dp2459
Vh
p2460
I150
sVresize
p2461
Vcrop
p2462
sVw
p2463
I150
sssVindices
p2464
(lp2465
I114
aI136
asVtype
p2466
Vphoto
p2467
sVid
p2468
I542745732080734208
sVmedia_url
p2469
Vhttp://pbs.twimg.com/media/B4g4XiQIEAAufna.png
p2470
sasg73
Nsg74
Nsg75
Nsg76
VSun Dec 14 19:33:06 +0000 2014
p2471
sg78
Nsg79
I00
sg80
Nsg81
Nsg82
Nsg83
Nsg84
I00
sg85
Nsg86
(lp2472
g3
(g97
g5
Ntp2473
Rp2474
(dp2475
g10
Nsg102
Nsg104
Nsg106
Nsg108
Nsg109
Nsg76
Nsg111
Nsg112
Nsg114
Nsg116
Nsg117
Nsg118
Nsg119
Nsg120
Nsg121
Nsg123
Nsg124
Nsg125
Nsg127
Nsg128
Nsg129
Nsg131
VFitness_HeaIth
p2476
sg133
Nsg134
VMelissa
p2477
sg136
Nsg138
Nsg140
I2806644423
sg141
Nsbasg88
Nsg89
Nsg90
Nsg91
VRT @Fitness_HeaIth: Girls are getting the body of their dreams with this celebrity secret \u000ahttp://t.co/pyyHl1yluR\u000ahttp://t.co/cqwATK6nOY
p2478
sg93
I00
sg94
Ven
p2479
sg96
g3
(g97
g5
Ntp2480
Rp2481
(dp2482
g10
g219
sg102
V333333
p2483
sg104
Ven
p2484
sg106
VEastern Time (US & Canada)
p2485
sg108
I79002
sg109
I94733
sg76
VWed Apr 02 03:05:37 +0000 2014
p2486
sg111
I00
sg112
Vcheck out the hottest girls of 2014 --- webstie http://t.co/GLeigCsiG5 ---
p2487
sg114
Vhttps://pbs.twimg.com/profile_images/483835441162895361/gqXo6svJ_normal.jpeg
p2488
sg116
I38936
sg117
I1836
sg118
I-18000
sg119
Nsg120
I00
sg121
Vhttps://pbs.twimg.com/profile_banners/2423097876/1404262150
p2489
sg123
I00
sg124
I00
sg125
V0084B4
p2490
sg127
I00
sg128
I00
sg129
Vhttp://abs.twimg.com/images/themes/theme1/bg.png
p2491
sg131
VTittyGods
p2492
sg133
I76
sg134
Vboobs
p2493
sg136
VDDEEF6
p2494
sg138
Vhttp://t.co/zrh7XvHy8k
p2495
sg140
I2423097876
sg141
VC0DEED
p2496
sbsg143
I41
sg144
V<a href="http://www.hootsuite.com" rel="nofollow">Hootsuite</a>
p2497
sg146
(lp2498
g3
(g148
g5
Ntp2499
Rp2500
(dp2501
g152
Vhttp://t.co/pyyHl1yluR
p2502
sg154
Vhttp://be-heaIthy.com/ZyTzYp
p2503
sbasg140
I544213511485014016
sbag3
(g4
g5
Ntp2504
Rp2505
(dp2506
g9
I0
sg10
Nsg11
Nsg12
(lp2507
sg14
I00
sg15
g3
(g4
g5
Ntp2508
Rp2509
(dp2510
g9
I2
sg10
Nsg11
Nsg12
(lp2511
sg14
I00
sg15
Nsg20
Nsg21
(lp2512
(dp2513
Vsource_user_id
p2514
I2381747401
sVsource_status_id_str
p2515
V542745791291351040
p2516
sVexpanded_url
p2517
Vhttp://twitter.com/WomensHeaIthNow/status/542745791291351040/photo/1
p2518
sVdisplay_url
p2519
Vpic.twitter.com/8oxAqLYwB8
p2520
sVurl
p2521
Vhttp://t.co/8oxAqLYwB8
p2522
sVmedia_url_https
p2523
Vhttps://pbs.twimg.com/media/B4g4a8RIgAAPrrR.png
p2524
sVsource_user_id_str
p2525
V2381747401
p2526
sVsource_status_id
p2527
I542745791291351040
sVid_str
p2528
V542745790603886592
p2529
sVsizes
p2530
(dp2531
Vsmall
p2532
(dp2533
Vh
p2534
I519
sVresize
p2535
Vfit
p2536
sVw
p2537
I340
ssVlarge
p2538
(dp2539
Vh
p2540
I721
sVresize
p2541
Vfit
p2542
sVw
p2543
I472
ssVmedium
p2544
(dp2545
Vh
p2546
I721
sVresize
p2547
Vfit
p2548
sVw
p2549
I472
ssVthumb
p2550
(dp2551
Vh
p2552
I150
sVresize
p2553
Vcrop
p2554
sVw
p2555
I150
sssVindices
p2556
(lp2557
I99
aI121
asVtype
p2558
Vphoto
p2559
sVid
p2560
I542745790603886592
sVmedia_url
p2561
Vhttp://pbs.twimg.com/media/B4g4a8RIgAAPrrR.png
p2562
sasg73
Nsg74
Nsg75
Nsg76
VSun Dec 14 16:41:33 +0000 2014
p2563
sg78
Nsg79
I00
sg80
Nsg81
Nsg82
Nsg83
Nsg84
I00
sg85
Nsg86
(lp2564
sg88
Nsg89
Nsg90
Nsg91
V95% of high school girls use this to lose weight for a PERFECT Bikini Body!\u000ahttp://t.co/pyyHl1yluR\u000ahttp://t.co/8oxAqLYwB8
p2565
sg93
I00
sg94
Ven
p2566
sg96
g3
(g97
g5
Ntp2567
Rp2568
(dp2569
g10
VUSA
p2570
sg102
V000000
p2571
sg104
Ven
p2572
sg106
VCentral Time (US & Canada)
p2573
sg108
I13114
sg109
I2434
sg76
VSun Oct 05 03:53:09 +0000 2014
p2574
sg111
I00
sg112
VHealth Tips and Fitness Products for Sale, Reasonable Prices. Get your Body In shape Today with just one Purchase http://t.co/xkOQknGGPw
p2575
sg114
Vhttps://pbs.twimg.com/profile_images/544123463632683008/4RmuTEEA_normal.jpeg
p2576
sg116
I10487
sg117
I2056
sg118
I-21600
sg119
Nsg120
I00
sg121
Vhttps://pbs.twimg.com/profile_banners/2806644423/1418487694
p2577
sg123
I00
sg124
I00
sg125
V4A913C
p2578
sg127
I00
sg128
I00
sg129
Vhttp://abs.twimg.com/images/themes/theme1/bg.png
p2579
sg131
VFitness_HeaIth
p2580
sg133
I18
sg134
VMelissa
p2581
sg136
V000000
p2582
sg138
Nsg140
I2806644423
sg141
V000000
p2583
sbsg143
I39
sg144
V<a href="https://about.twitter.com/products/tweetdeck" rel="nofollow">TweetDeck</a>
p2584
sg146
(lp2585
g3
(g148
g5
Ntp2586
Rp2587
(dp2588
g152
Vhttp://t.co/pyyHl1yluR
p2589
sg154
Vhttp://be-heaIthy.com/ZyTzYp
p2590
sbasg140
I544170338225893376
sbsg20
Nsg21
(lp2591
(dp2592
Vsource_user_id
p2593
I2381747401
sVsource_status_id_str
p2594
V542745791291351040
p2595
sVexpanded_url
p2596
Vhttp://twitter.com/WomensHeaIthNow/status/542745791291351040/photo/1
p2597
sVdisplay_url
p2598
Vpic.twitter.com/8oxAqLYwB8
p2599
sVurl
p2600
Vhttp://t.co/8oxAqLYwB8
p2601
sVmedia_url_https
p2602
Vhttps://pbs.twimg.com/media/B4g4a8RIgAAPrrR.png
p2603
sVsource_user_id_str
p2604
V2381747401
p2605
sVsource_status_id
p2606
I542745791291351040
sVid_str
p2607
V542745790603886592
p2608
sVsizes
p2609
(dp2610
Vsmall
p2611
(dp2612
Vh
p2613
I519
sVresize
p2614
Vfit
p2615
sVw
p2616
I340
ssVlarge
p2617
(dp2618
Vh
p2619
I721
sVresize
p2620
Vfit
p2621
sVw
p2622
I472
ssVmedium
p2623
(dp2624
Vh
p2625
I721
sVresize
p2626
Vfit
p2627
sVw
p2628
I472
ssVthumb
p2629
(dp2630
Vh
p2631
I150
sVresize
p2632
Vcrop
p2633
sVw
p2634
I150
sssVindices
p2635
(lp2636
I139
aI140
asVtype
p2637
Vphoto
p2638
sVid
p2639
I542745790603886592
sVmedia_url
p2640
Vhttp://pbs.twimg.com/media/B4g4a8RIgAAPrrR.png
p2641
sasg73
Nsg74
Nsg75
Nsg76
VSun Dec 14 19:32:36 +0000 2014
p2642
sg78
Nsg79
I00
sg80
Nsg81
Nsg82
Nsg83
Nsg84
I00
sg85
Nsg86
(lp2643
g3
(g97
g5
Ntp2644
Rp2645
(dp2646
g10
Nsg102
Nsg104
Nsg106
Nsg108
Nsg109
Nsg76
Nsg111
Nsg112
Nsg114
Nsg116
Nsg117
Nsg118
Nsg119
Nsg120
Nsg121
Nsg123
Nsg124
Nsg125
Nsg127
Nsg128
Nsg129
Nsg131
VFitness_HeaIth
p2647
sg133
Nsg134
VMelissa
p2648
sg136
Nsg138
Nsg140
I2806644423
sg141
Nsbasg88
Nsg89
Nsg90
Nsg91
VRT @Fitness_HeaIth: 95% of high school girls use this to lose weight for a PERFECT Bikini Body!\u000ahttp://t.co/pyyHl1yluR\u000ahttp://t.co/8oxAqLYw\u2026
p2649
sg93
I00
sg94
Ven
p2650
sg96
g3
(g97
g5
Ntp2651
Rp2652
(dp2653
g10
g219
sg102
V333333
p2654
sg104
Ven
p2655
sg106
VEastern Time (US & Canada)
p2656
sg108
I79002
sg109
I94733
sg76
VWed Apr 02 03:05:37 +0000 2014
p2657
sg111
I00
sg112
Vcheck out the hottest girls of 2014 --- webstie http://t.co/GLeigCsiG5 ---
p2658
sg114
Vhttps://pbs.twimg.com/profile_images/483835441162895361/gqXo6svJ_normal.jpeg
p2659
sg116
I38936
sg117
I1836
sg118
I-18000
sg119
Nsg120
I00
sg121
Vhttps://pbs.twimg.com/profile_banners/2423097876/1404262150
p2660
sg123
I00
sg124
I00
sg125
V0084B4
p2661
sg127
I00
sg128
I00
sg129
Vhttp://abs.twimg.com/images/themes/theme1/bg.png
p2662
sg131
VTittyGods
p2663
sg133
I76
sg134
Vboobs
p2664
sg136
VDDEEF6
p2665
sg138
Vhttp://t.co/zrh7XvHy8k
p2666
sg140
I2423097876
sg141
VC0DEED
p2667
sbsg143
I39
sg144
V<a href="http://www.hootsuite.com" rel="nofollow">Hootsuite</a>
p2668
sg146
(lp2669
g3
(g148
g5
Ntp2670
Rp2671
(dp2672
g152
Vhttp://t.co/pyyHl1yluR
p2673
sg154
Vhttp://be-heaIthy.com/ZyTzYp
p2674
sbasg140
I544213386083729408
sbag3
(g4
g5
Ntp2675
Rp2676
(dp2677
g9
I0
sg10
Nsg11
Nsg12
(lp2678
sg14
I00
sg15
g3
(g4
g5
Ntp2679
Rp2680
(dp2681
g9
I11
sg10
Nsg11
Nsg12
(lp2682
sg14
I00
sg15
Nsg20
Nsg21
(lp2683
(dp2684
Vexpanded_url
p2685
Vhttp://twitter.com/thailluminatiii/status/544210136370536448/photo/1
p2686
sVdisplay_url
p2687
Vpic.twitter.com/fL8JeDghhX
p2688
sVurl
p2689
Vhttp://t.co/fL8JeDghhX
p2690
sVmedia_url_https
p2691
Vhttps://pbs.twimg.com/media/B41sPCgIcAEMtbh.jpg
p2692
sVid_str
p2693
V544210135607177217
p2694
sVsizes
p2695
(dp2696
Vlarge
p2697
(dp2698
Vh
p2699
I293
sVresize
p2700
Vfit
p2701
sVw
p2702
I500
ssVsmall
p2703
(dp2704
Vh
p2705
I199
sVresize
p2706
Vfit
p2707
sVw
p2708
I340
ssVmedium
p2709
(dp2710
Vh
p2711
I293
sVresize
p2712
Vfit
p2713
sVw
p2714
I500
ssVthumb
p2715
(dp2716
Vh
p2717
I150
sVresize
p2718
Vcrop
p2719
sVw
p2720
I150
sssVindices
p2721
(lp2722
I88
aI110
asVtype
p2723
Vphoto
p2724
sVid
p2725
I544210135607177217
sVmedia_url
p2726
Vhttp://pbs.twimg.com/media/B41sPCgIcAEMtbh.jpg
p2727
sasg73
Nsg74
Nsg75
Nsg76
VSun Dec 14 19:19:42 +0000 2014
p2728
sg78
Nsg79
I00
sg80
Nsg81
Nsg82
Nsg83
Nsg84
I00
sg85
Nsg86
(lp2729
sg88
Nsg89
Nsg90
Nsg91
V10 Childhood Ruined Pictures That Will Make You Call Your Lawyer http://t.co/j61z5izq6g http://t.co/fL8JeDghhX
p2730
sg93
I00
sg94
Ven
p2731
sg96
g3
(g97
g5
Ntp2732
Rp2733
(dp2734
g10
g219
sg102
V333333
p2735
sg104
Ven
p2736
sg106
Nsg108
I1105
sg109
I167
sg76
VSat Nov 08 07:33:57 +0000 2014
p2737
sg111
I00
sg112
g219
sg114
Vhttps://pbs.twimg.com/profile_images/530987871922970624/nhqOxLzY_normal.jpeg
p2738
sg116
I1
sg117
I0
sg118
Nsg119
Nsg120
I00
sg121
Nsg123
I00
sg124
I00
sg125
V0084B4
p2739
sg127
I00
sg128
I00
sg129
Vhttp://abs.twimg.com/images/themes/theme1/bg.png
p2740
sg131
Vthailluminatiii
p2741
sg133
I0
sg134
Villuminati
p2742
sg136
VDDEEF6
p2743
sg138
Nsg140
I2866969251
sg141
VC0DEED
p2744
sbsg143
I112
sg144
V<a href="http://twitter.com" rel="nofollow">Twitter Web Client</a>
p2745
sg146
(lp2746
g3
(g148
g5
Ntp2747
Rp2748
(dp2749
g152
Vhttp://t.co/j61z5izq6g
p2750
sg154
Vhttp://bit.ly/106DjOQ
p2751
sbasg140
I544210136370536448
sbsg20
Nsg21
(lp2752
(dp2753
Vsource_user_id
p2754
I2866969251
sVsource_status_id_str
p2755
V544210136370536448
p2756
sVexpanded_url
p2757
Vhttp://twitter.com/thailluminatiii/status/544210136370536448/photo/1
p2758
sVdisplay_url
p2759
Vpic.twitter.com/fL8JeDghhX
p2760
sVurl
p2761
Vhttp://t.co/fL8JeDghhX
p2762
sVmedia_url_https
p2763
Vhttps://pbs.twimg.com/media/B41sPCgIcAEMtbh.jpg
p2764
sVsource_user_id_str
p2765
V2866969251
p2766
sVsource_status_id
p2767
I544210136370536448
sVid_str
p2768
V544210135607177217
p2769
sVsizes
p2770
(dp2771
Vlarge
p2772
(dp2773
Vh
p2774
I293
sVresize
p2775
Vfit
p2776
sVw
p2777
I500
ssVsmall
p2778
(dp2779
Vh
p2780
I199
sVresize
p2781
Vfit
p2782
sVw
p2783
I340
ssVmedium
p2784
(dp2785
Vh
p2786
I293
sVresize
p2787
Vfit
p2788
sVw
p2789
I500
ssVthumb
p2790
(dp2791
Vh
p2792
I150
sVresize
p2793
Vcrop
p2794
sVw
p2795
I150
sssVindices
p2796
(lp2797
I109
aI131
asVtype
p2798
Vphoto
p2799
sVid
p2800
I544210135607177217
sVmedia_url
p2801
Vhttp://pbs.twimg.com/media/B41sPCgIcAEMtbh.jpg
p2802
sasg73
Nsg74
Nsg75
Nsg76
VSun Dec 14 19:26:26 +0000 2014
p2803
sg78
Nsg79
I00
sg80
Nsg81
Nsg82
Nsg83
Nsg84
I00
sg85
Nsg86
(lp2804
g3
(g97
g5
Ntp2805
Rp2806
(dp2807
g10
Nsg102
Nsg104
Nsg106
Nsg108
Nsg109
Nsg76
Nsg111
Nsg112
Nsg114
Nsg116
Nsg117
Nsg118
Nsg119
Nsg120
Nsg121
Nsg123
Nsg124
Nsg125
Nsg127
Nsg128
Nsg129
Nsg131
Vthailluminatiii
p2808
sg133
Nsg134
Villuminati
p2809
sg136
Nsg138
Nsg140
I2866969251
sg141
Nsbasg88
Nsg89
Nsg90
Nsg91
VRT @thailluminatiii: 10 Childhood Ruined Pictures That Will Make You Call Your Lawyer http://t.co/j61z5izq6g http://t.co/fL8JeDghhX
p2810
sg93
I00
sg94
Ven
p2811
sg96
g3
(g97
g5
Ntp2812
Rp2813
(dp2814
g10
g219
sg102
V333333
p2815
sg104
Ven
p2816
sg106
VEastern Time (US & Canada)
p2817
sg108
I79002
sg109
I94733
sg76
VWed Apr 02 03:05:37 +0000 2014
p2818
sg111
I00
sg112
Vcheck out the hottest girls of 2014 --- webstie http://t.co/GLeigCsiG5 ---
p2819
sg114
Vhttps://pbs.twimg.com/profile_images/483835441162895361/gqXo6svJ_normal.jpeg
p2820
sg116
I38936
sg117
I1836
sg118
I-18000
sg119
Nsg120
I00
sg121
Vhttps://pbs.twimg.com/profile_banners/2423097876/1404262150
p2821
sg123
I00
sg124
I00
sg125
V0084B4
p2822
sg127
I00
sg128
I00
sg129
Vhttp://abs.twimg.com/images/themes/theme1/bg.png
p2823
sg131
VTittyGods
p2824
sg133
I76
sg134
Vboobs
p2825
sg136
VDDEEF6
p2826
sg138
Vhttp://t.co/zrh7XvHy8k
p2827
sg140
I2423097876
sg141
VC0DEED
p2828
sbsg143
I112
sg144
V<a href="http://www.hootsuite.com" rel="nofollow">Hootsuite</a>
p2829
sg146
(lp2830
g3
(g148
g5
Ntp2831
Rp2832
(dp2833
g152
Vhttp://t.co/j61z5izq6g
p2834
sg154
Vhttp://bit.ly/106DjOQ
p2835
sbasg140
I544211832895184896
sbag3
(g4
g5
Ntp2836
Rp2837
(dp2838
g9
I0
sg10
Nsg11
Nsg12
(lp2839
sg14
I00
sg15
g3
(g4
g5
Ntp2840
Rp2841
(dp2842
g9
I7
sg10
Nsg11
Nsg12
(lp2843
sg14
I00
sg15
Nsg20
Nsg21
(lp2844
sg73
Nsg74
Nsg75
Nsg76
VSun Dec 14 19:23:58 +0000 2014
p2845
sg78
Nsg79
Nsg80
Nsg81
Nsg82
Nsg83
Nsg84
I00
sg85
Nsg86
(lp2846
sg88
Nsg89
Nsg90
Nsg91
VLove seein old friends
p2847
sg93
I00
sg94
Ven
p2848
sg96
g3
(g97
g5
Ntp2849
Rp2850
(dp2851
g10
Vlincoln ne 
p2852
sg102
V333333
p2853
sg104
Ven
p2854
sg106
VEastern Time (US & Canada)
p2855
sg108
I99422
sg109
I87539
sg76
VFri Jun 22 20:23:40 +0000 2012
p2856
sg111
I00
sg112
Vwebsite site owner advertise for google not rich but pavin my way to success.
p2857
sg114
Vhttps://pbs.twimg.com/profile_images/526469027859034112/LH9TzZ2w_normal.jpeg
p2858
sg116
I69464
sg117
I1706
sg118
I-18000
sg119
Nsg120
I00
sg121
Vhttps://pbs.twimg.com/profile_banners/615501427/1417851543
p2859
sg123
I00
sg124
I01
sg125
V0EA4F5
p2860
sg127
I00
sg128
I00
sg129
Vhttp://pbs.twimg.com/profile_background_images/458499577671204864/aLTzKuOD.jpeg
p2861
sg131
VDreamville402
p2862
sg133
I74
sg134
VDreamer
p2863
sg136
VDDEEF6
p2864
sg138
Vhttp://t.co/nMec1JExyd
p2865
sg140
I615501427
sg141
VC0DEED
p2866
sbsg143
I32
sg144
V<a href="http://twitter.com/download/iphone" rel="nofollow">Twitter for iPhone</a>
p2867
sg146
(lp2868
sg140
I544211213710675969
sbsg20
Nsg21
(lp2869
sg73
Nsg74
Nsg75
Nsg76
VSun Dec 14 19:25:22 +0000 2014
p2870
sg78
Nsg79
Nsg80
Nsg81
Nsg82
Nsg83
Nsg84
I00
sg85
Nsg86
(lp2871
g3
(g97
g5
Ntp2872
Rp2873
(dp2874
g10
Nsg102
Nsg104
Nsg106
Nsg108
Nsg109
Nsg76
Nsg111
Nsg112
Nsg114
Nsg116
Nsg117
Nsg118
Nsg119
Nsg120
Nsg121
Nsg123
Nsg124
Nsg125
Nsg127
Nsg128
Nsg129
Nsg131
VDreamville402
p2875
sg133
Nsg134
VDreamer
p2876
sg136
Nsg138
Nsg140
I615501427
sg141
Nsbasg88
Nsg89
Nsg90
Nsg91
VRT @Dreamville402: Love seein old friends
p2877
sg93
I00
sg94
Ven
p2878
sg96
g3
(g97
g5
Ntp2879
Rp2880
(dp2881
g10
g219
sg102
V333333
p2882
sg104
Ven
p2883
sg106
VEastern Time (US & Canada)
p2884
sg108
I79002
sg109
I94733
sg76
VWed Apr 02 03:05:37 +0000 2014
p2885
sg111
I00
sg112
Vcheck out the hottest girls of 2014 --- webstie http://t.co/GLeigCsiG5 ---
p2886
sg114
Vhttps://pbs.twimg.com/profile_images/483835441162895361/gqXo6svJ_normal.jpeg
p2887
sg116
I38936
sg117
I1836
sg118
I-18000
sg119
Nsg120
I00
sg121
Vhttps://pbs.twimg.com/profile_banners/2423097876/1404262150
p2888
sg123
I00
sg124
I00
sg125
V0084B4
p2889
sg127
I00
sg128
I00
sg129
Vhttp://abs.twimg.com/images/themes/theme1/bg.png
p2890
sg131
VTittyGods
p2891
sg133
I76
sg134
Vboobs
p2892
sg136
VDDEEF6
p2893
sg138
Vhttp://t.co/zrh7XvHy8k
p2894
sg140
I2423097876
sg141
VC0DEED
p2895
sbsg143
I32
sg144
V<a href="https://about.twitter.com/products/tweetdeck" rel="nofollow">TweetDeck</a>
p2896
sg146
(lp2897
sg140
I544211565793140736
sbag3
(g4
g5
Ntp2898
Rp2899
(dp2900
g9
I0
sg10
Nsg11
Nsg12
(lp2901
sg14
I00
sg15
g3
(g4
g5
Ntp2902
Rp2903
(dp2904
g9
I271
sg10
Nsg11
Nsg12
(lp2905
sg14
I00
sg15
Nsg20
Nsg21
(lp2906
sg73
Nsg74
Nsg75
Nsg76
VSun Dec 14 15:58:10 +0000 2014
p2907
sg78
Nsg79
Nsg80
Nsg81
Nsg82
Nsg83
Nsg84
I00
sg85
Nsg86
(lp2908
sg88
Nsg89
Nsg90
Nsg91
V2015 is 17 days away...\u000a\u000aJust take that in \U0001f633
p2909
sg93
I00
sg94
Ven
p2910
sg96
g3
(g97
g5
Ntp2911
Rp2912
(dp2913
g10
g219
sg102
V333333
p2914
sg104
Ven
p2915
sg106
VArizona
p2916
sg108
I239768
sg109
I12469
sg76
VTue Apr 30 05:55:28 +0000 2013
p2917
sg111
I00
sg112
VHated by many, loved by few, respected by all.
p2918
sg114
Vhttps://pbs.twimg.com/profile_images/539223799422808064/jl174AIC_normal.jpeg
p2919
sg116
I223740
sg117
I107
sg118
I-25200
sg119
Nsg120
I00
sg121
Vhttps://pbs.twimg.com/profile_banners/1391278070/1413445817
p2920
sg123
I00
sg124
I00
sg125
V0084B4
p2921
sg127
I00
sg128
I00
sg129
Vhttp://abs.twimg.com/images/themes/theme1/bg.png
p2922
sg131
VCool_Tweetsss
p2923
sg133
I158
sg134
VCool Tweets
p2924
sg136
VDDEEF6
p2925
sg138
Nsg140
I1391278070
sg141
VC0DEED
p2926
sbsg143
I401
sg144
V<a href="http://twitter.com/download/iphone" rel="nofollow">Twitter for iPhone</a>
p2927
sg146
(lp2928
sg140
I544159420608180224
sbsg20
Nsg21
(lp2929
sg73
Nsg74
Nsg75
Nsg76
VSun Dec 14 19:24:53 +0000 2014
p2930
sg78
Nsg79
Nsg80
Nsg81
Nsg82
Nsg83
Nsg84
I00
sg85
Nsg86
(lp2931
g3
(g97
g5
Ntp2932
Rp2933
(dp2934
g10
Nsg102
Nsg104
Nsg106
Nsg108
Nsg109
Nsg76
Nsg111
Nsg112
Nsg114
Nsg116
Nsg117
Nsg118
Nsg119
Nsg120
Nsg121
Nsg123
Nsg124
Nsg125
Nsg127
Nsg128
Nsg129
Nsg131
VCool_Tweetsss
p2935
sg133
Nsg134
VCool Tweets
p2936
sg136
Nsg138
Nsg140
I1391278070
sg141
Nsbasg88
Nsg89
Nsg90
Nsg91
VRT @Cool_Tweetsss: 2015 is 17 days away...\u000a\u000aJust take that in \U0001f633
p2937
sg93
I00
sg94
Ven
p2938
sg96
g3
(g97
g5
Ntp2939
Rp2940
(dp2941
g10
g219
sg102
V333333
p2942
sg104
Ven
p2943
sg106
VEastern Time (US & Canada)
p2944
sg108
I79002
sg109
I94733
sg76
VWed Apr 02 03:05:37 +0000 2014
p2945
sg111
I00
sg112
Vcheck out the hottest girls of 2014 --- webstie http://t.co/GLeigCsiG5 ---
p2946
sg114
Vhttps://pbs.twimg.com/profile_images/483835441162895361/gqXo6svJ_normal.jpeg
p2947
sg116
I38936
sg117
I1836
sg118
I-18000
sg119
Nsg120
I00
sg121
Vhttps://pbs.twimg.com/profile_banners/2423097876/1404262150
p2948
sg123
I00
sg124
I00
sg125
V0084B4
p2949
sg127
I00
sg128
I00
sg129
Vhttp://abs.twimg.com/images/themes/theme1/bg.png
p2950
sg131
VTittyGods
p2951
sg133
I76
sg134
Vboobs
p2952
sg136
VDDEEF6
p2953
sg138
Vhttp://t.co/zrh7XvHy8k
p2954
sg140
I2423097876
sg141
VC0DEED
p2955
sbsg143
I401
sg144
V<a href="http://www.hootsuite.com" rel="nofollow">Hootsuite</a>
p2956
sg146
(lp2957
sg140
I544211442334175232
sbag3
(g4
g5
Ntp2958
Rp2959
(dp2960
g9
I0
sg10
Nsg11
Nsg12
(lp2961
sg14
I00
sg15
g3
(g4
g5
Ntp2962
Rp2963
(dp2964
g9
I158
sg10
Nsg11
Nsg12
(lp2965
sg14
I00
sg15
Nsg20
Nsg21
(lp2966
(dp2967
Vsource_user_id
p2968
I2875981235
sVsource_status_id_str
p2969
V544119088277368832
p2970
sVexpanded_url
p2971
Vhttp://twitter.com/TheStartrPack/status/544119088277368832/photo/1
p2972
sVdisplay_url
p2973
Vpic.twitter.com/1TReHH6Ub6
p2974
sVurl
p2975
Vhttp://t.co/1TReHH6Ub6
p2976
sVmedia_url_https
p2977
Vhttps://pbs.twimg.com/media/B40ZbFICMAAK7ID.jpg
p2978
sVsource_user_id_str
p2979
V2875981235
p2980
sVsource_status_id
p2981
I544119088277368832
sVid_str
p2982
V544119083004735488
p2983
sVsizes
p2984
(dp2985
Vsmall
p2986
(dp2987
Vh
p2988
I330
sVresize
p2989
Vfit
p2990
sVw
p2991
I340
ssVlarge
p2992
(dp2993
Vh
p2994
I562
sVresize
p2995
Vfit
p2996
sVw
p2997
I578
ssVmedium
p2998
(dp2999
Vh
p3000
I562
sVresize
p3001
Vfit
p3002
sVw
p3003
I578
ssVthumb
p3004
(dp3005
Vh
p3006
I150
sVresize
p3007
Vcrop
p3008
sVw
p3009
I150
sssVindices
p3010
(lp3011
I42
aI64
asVtype
p3012
Vphoto
p3013
sVid
p3014
I544119083004735488
sVmedia_url
p3015
Vhttp://pbs.twimg.com/media/B40ZbFICMAAK7ID.jpg
p3016
sasg73
Nsg74
Nsg75
Nsg76
VSun Dec 14 19:21:54 +0000 2014
p3017
sg78
Nsg79
I00
sg80
Nsg81
Nsg82
Nsg83
Nsg84
I00
sg85
Nsg86
(lp3018
sg88
Nsg89
Nsg90
Nsg91
VThe "How to piss a girl off" starter pack http://t.co/1TReHH6Ub6
p3019
sg93
I00
sg94
Ven
p3020
sg96
g3
(g97
g5
Ntp3021
Rp3022
(dp3023
g10
g219
sg102
V333333
p3024
sg104
Ven
p3025
sg106
VArizona
p3026
sg108
I239768
sg109
I12469
sg76
VTue Apr 30 05:55:28 +0000 2013
p3027
sg111
I00
sg112
VHated by many, loved by few, respected by all.
p3028
sg114
Vhttps://pbs.twimg.com/profile_images/539223799422808064/jl174AIC_normal.jpeg
p3029
sg116
I223740
sg117
I107
sg118
I-25200
sg119
Nsg120
I00
sg121
Vhttps://pbs.twimg.com/profile_banners/1391278070/1413445817
p3030
sg123
I00
sg124
I00
sg125
V0084B4
p3031
sg127
I00
sg128
I00
sg129
Vhttp://abs.twimg.com/images/themes/theme1/bg.png
p3032
sg131
VCool_Tweetsss
p3033
sg133
I158
sg134
VCool Tweets
p3034
sg136
VDDEEF6
p3035
sg138
Nsg140
I1391278070
sg141
VC0DEED
p3036
sbsg143
I231
sg144
V<a href="http://twitter.com/download/iphone" rel="nofollow">Twitter for iPhone</a>
p3037
sg146
(lp3038
sg140
I544210692522668033
sbsg20
Nsg21
(lp3039
(dp3040
Vsource_user_id
p3041
I2875981235
sVsource_status_id_str
p3042
V544119088277368832
p3043
sVexpanded_url
p3044
Vhttp://twitter.com/TheStartrPack/status/544119088277368832/photo/1
p3045
sVdisplay_url
p3046
Vpic.twitter.com/1TReHH6Ub6
p3047
sVurl
p3048
Vhttp://t.co/1TReHH6Ub6
p3049
sVmedia_url_https
p3050
Vhttps://pbs.twimg.com/media/B40ZbFICMAAK7ID.jpg
p3051
sVsource_user_id_str
p3052
V2875981235
p3053
sVsource_status_id
p3054
I544119088277368832
sVid_str
p3055
V544119083004735488
p3056
sVsizes
p3057
(dp3058
Vsmall
p3059
(dp3060
Vh
p3061
I330
sVresize
p3062
Vfit
p3063
sVw
p3064
I340
ssVlarge
p3065
(dp3066
Vh
p3067
I562
sVresize
p3068
Vfit
p3069
sVw
p3070
I578
ssVmedium
p3071
(dp3072
Vh
p3073
I562
sVresize
p3074
Vfit
p3075
sVw
p3076
I578
ssVthumb
p3077
(dp3078
Vh
p3079
I150
sVresize
p3080
Vcrop
p3081
sVw
p3082
I150
sssVindices
p3083
(lp3084
I61
aI83
asVtype
p3085
Vphoto
p3086
sVid
p3087
I544119083004735488
sVmedia_url
p3088
Vhttp://pbs.twimg.com/media/B40ZbFICMAAK7ID.jpg
p3089
sasg73
Nsg74
Nsg75
Nsg76
VSun Dec 14 19:24:17 +0000 2014
p3090
sg78
Nsg79
I00
sg80
Nsg81
Nsg82
Nsg83
Nsg84
I00
sg85
Nsg86
(lp3091
g3
(g97
g5
Ntp3092
Rp3093
(dp3094
g10
Nsg102
Nsg104
Nsg106
Nsg108
Nsg109
Nsg76
Nsg111
Nsg112
Nsg114
Nsg116
Nsg117
Nsg118
Nsg119
Nsg120
Nsg121
Nsg123
Nsg124
Nsg125
Nsg127
Nsg128
Nsg129
Nsg131
VCool_Tweetsss
p3095
sg133
Nsg134
VCool Tweets
p3096
sg136
Nsg138
Nsg140
I1391278070
sg141
Nsbasg88
Nsg89
Nsg90
Nsg91
VRT @Cool_Tweetsss: The "How to piss a girl off" starter pack http://t.co/1TReHH6Ub6
p3097
sg93
I00
sg94
Ven
p3098
sg96
g3
(g97
g5
Ntp3099
Rp3100
(dp3101
g10
g219
sg102
V333333
p3102
sg104
Ven
p3103
sg106
VEastern Time (US & Canada)
p3104
sg108
I79002
sg109
I94733
sg76
VWed Apr 02 03:05:37 +0000 2014
p3105
sg111
I00
sg112
Vcheck out the hottest girls of 2014 --- webstie http://t.co/GLeigCsiG5 ---
p3106
sg114
Vhttps://pbs.twimg.com/profile_images/483835441162895361/gqXo6svJ_normal.jpeg
p3107
sg116
I38936
sg117
I1836
sg118
I-18000
sg119
Nsg120
I00
sg121
Vhttps://pbs.twimg.com/profile_banners/2423097876/1404262150
p3108
sg123
I00
sg124
I00
sg125
V0084B4
p3109
sg127
I00
sg128
I00
sg129
Vhttp://abs.twimg.com/images/themes/theme1/bg.png
p3110
sg131
VTittyGods
p3111
sg133
I76
sg134
Vboobs
p3112
sg136
VDDEEF6
p3113
sg138
Vhttp://t.co/zrh7XvHy8k
p3114
sg140
I2423097876
sg141
VC0DEED
p3115
sbsg143
I231
sg144
V<a href="http://www.hootsuite.com" rel="nofollow">Hootsuite</a>
p3116
sg146
(lp3117
sg140
I544211290886262784
sbaa.