(lp0
S'MsPromo88'
p1
a(lp2
ccopy_reg
_reconstructor
p3
(ctwitter.status
Status
p4
c__builtin__
object
p5
Ntp6
Rp7
(dp8
S'_favorite_count'
p9
I0
sS'_location'
p10
NsS'_withheld_scope'
p11
NsS'hashtags'
p12
(lp13
sS'_truncated'
p14
I00
sS'_retweeted_status'
p15
NsS'_withheld_copyright'
p16
NsS'media'
p17
(lp18
sS'_place'
p19
NsS'_contributors'
p20
NsS'_current_user_retweet'
p21
NsS'_created_at'
p22
VSun Dec 14 19:36:16 +0000 2014
p23
sS'_scopes'
p24
NsS'_possibly_sensitive'
p25
I00
sS'_in_reply_to_screen_name'
p26
NsS'_coordinates'
p27
NsS'_in_reply_to_user_id'
p28
NsS'_geo'
p29
NsS'_favorited'
p30
I00
sS'_withheld_in_countries'
p31
NsS'user_mentions'
p32
(lp33
sS'_now'
p34
NsS'_id_str'
p35
NsS'_in_reply_to_status_id'
p36
NsS'_text'
p37
VARE YOU AS SICK OF ALL THIS DRAMA AS I AM? Well if so, than click this link &amp; JUST BUMP! https://t.co/hzoF42sFJR (I Actually Like This Guy)
p38
sS'_retweeted'
p39
I00
sS'lang'
p40
Ven
p41
sS'_user'
p42
g3
(ctwitter.user
User
p43
g5
Ntp44
Rp45
(dp46
g10
VATL
p47
sS'_profile_text_color'
p48
V333333
p49
sS'_lang'
p50
Ven
p51
sS'_time_zone'
p52
VEastern Time (US & Canada)
p53
sS'_followers_count'
p54
I48574
sS'_statuses_count'
p55
I99589
sg22
VWed Feb 29 07:05:42 +0000 2012
p56
sS'_verified'
p57
I00
sS'_description'
p58
VOwner of Promo Headz. Here to help you reach your full social media potential. Use my trusted services at http://t.co/44qenBiazv  #PayPalVerified
p59
sS'_profile_image_url'
p60
Vhttps://pbs.twimg.com/profile_images/421688928102412288/v8doef8Y_normal.jpeg
p61
sS'_friends_count'
p62
I35277
sS'_favourites_count'
p63
I18
sS'_utc_offset'
p64
I-18000
sS'_status'
p65
NsS'_protected'
p66
I00
sS'_profile_banner_url'
p67
Vhttps://pbs.twimg.com/profile_banners/508505901/1407735662
p68
sS'_notifications'
p69
I00
sS'_profile_background_tile'
p70
I01
sS'_profile_link_color'
p71
V0084B4
p72
sS'_geo_enabled'
p73
I00
sS'_contributors_enabled'
p74
I00
sS'_profile_background_image_url'
p75
Vhttp://pbs.twimg.com/profile_background_images/378800000169235923/uQzytBpy.jpeg
p76
sS'_screen_name'
p77
VMsPromo88
p78
sS'_listed_count'
p79
I166
sS'_name'
p80
VNikki Barnwell
p81
sS'_profile_sidebar_fill_color'
p82
VDDFFCC
p83
sS'_url'
p84
Vhttp://t.co/44qenBiazv
p85
sS'_id'
p86
I508505901
sS'_profile_background_color'
p87
V9AE4E8
p88
sbsS'_retweet_count'
p89
I0
sS'_source'
p90
V<a href="http://gremln.com" rel="nofollow">Gremln</a>
p91
sS'urls'
p92
(lp93
g3
(ctwitter.url
Url
p94
g5
Ntp95
Rp96
(dp97
S'url'
p98
Vhttps://t.co/hzoF42sFJR
p99
sS'expanded_url'
p100
Vhttps://soundcloud.com/mic_ciphers/just-bump-head-phone-banger
p101
sbasg86
I544214306997698560
sbag3
(g4
g5
Ntp102
Rp103
(dp104
g9
I0
sg10
Nsg11
Nsg12
(lp105
sg14
I00
sg15
Nsg16
Nsg17
(lp106
(dp107
Vexpanded_url
p108
Vhttp://twitter.com/MsPromo88/status/544210596523417600/photo/1
p109
sVdisplay_url
p110
Vpic.twitter.com/cbheSJtFlV
p111
sVurl
p112
Vhttp://t.co/cbheSJtFlV
p113
sVmedia_url_https
p114
Vhttps://pbs.twimg.com/media/B41sp3MIYAAUN_J.jpg
p115
sVid_str
p116
V544210596426964992
p117
sVsizes
p118
(dp119
Vsmall
p120
(dp121
Vh
p122
I340
sVresize
p123
Vfit
p124
sVw
p125
I340
ssVlarge
p126
(dp127
Vh
p128
I640
sVresize
p129
Vfit
p130
sVw
p131
I640
ssVmedium
p132
(dp133
Vh
p134
I600
sVresize
p135
Vfit
p136
sVw
p137
I600
ssVthumb
p138
(dp139
Vh
p140
I150
sVresize
p141
Vcrop
p142
sVw
p143
I150
sssVindices
p144
(lp145
I106
aI128
asVtype
p146
Vphoto
p147
sVid
p148
I544210596426964992
sVmedia_url
p149
Vhttp://pbs.twimg.com/media/B41sp3MIYAAUN_J.jpg
p150
sasg19
Nsg20
Nsg21
Nsg22
VSun Dec 14 19:21:31 +0000 2014
p151
sg24
Nsg25
I00
sg26
Nsg27
Nsg28
Nsg29
Nsg30
I00
sg31
Nsg32
(lp152
g3
(g43
g5
Ntp153
Rp154
(dp155
g10
Nsg48
Nsg50
Nsg52
Nsg54
Nsg55
Nsg22
Nsg57
Nsg58
Nsg60
Nsg62
Nsg63
Nsg64
Nsg65
Nsg66
Nsg67
Nsg69
Nsg70
Nsg71
Nsg73
Nsg74
Nsg75
Nsg77
ViCreateGfx
p156
sg79
Nsg80
ViCreateGFX.Com
p157
sg82
Nsg84
Nsg86
I314481164
sg87
Nsbasg34
Nsg35
Nsg36
Nsg37
VLooking for a Graphic Designer &amp; Visual Consultant?? I recommend @icreategfx | http://t.co/gAQ4tFLEF9 http://t.co/cbheSJtFlV
p158
sg39
I00
sg40
Ven
p159
sg42
g3
(g43
g5
Ntp160
Rp161
(dp162
g10
VATL
p163
sg48
V333333
p164
sg50
Ven
p165
sg52
VEastern Time (US & Canada)
p166
sg54
I48574
sg55
I99589
sg22
VWed Feb 29 07:05:42 +0000 2012
p167
sg57
I00
sg58
VOwner of Promo Headz. Here to help you reach your full social media potential. Use my trusted services at http://t.co/44qenBiazv  #PayPalVerified
p168
sg60
Vhttps://pbs.twimg.com/profile_images/421688928102412288/v8doef8Y_normal.jpeg
p169
sg62
I35277
sg63
I18
sg64
I-18000
sg65
Nsg66
I00
sg67
Vhttps://pbs.twimg.com/profile_banners/508505901/1407735662
p170
sg69
I00
sg70
I01
sg71
V0084B4
p171
sg73
I00
sg74
I00
sg75
Vhttp://pbs.twimg.com/profile_background_images/378800000169235923/uQzytBpy.jpeg
p172
sg77
VMsPromo88
p173
sg79
I166
sg80
VNikki Barnwell
p174
sg82
VDDFFCC
p175
sg84
Vhttp://t.co/44qenBiazv
p176
sg86
I508505901
sg87
V9AE4E8
p177
sbsg89
I0
sg90
V<a href="http://gremln.com" rel="nofollow">Gremln</a>
p178
sg92
(lp179
g3
(g94
g5
Ntp180
Rp181
(dp182
g98
Vhttp://t.co/gAQ4tFLEF9
p183
sg100
Vhttp://www.icreategfx.com
p184
sbasg86
I544210596523417600
sbag3
(g4
g5
Ntp185
Rp186
(dp187
g9
I0
sg10
Nsg11
Nsg12
(lp188
g3
(ctwitter.hashtag
Hashtag
p189
g5
Ntp190
Rp191
(dp192
S'text'
p193
VYoutube
p194
sbag3
(g189
g5
Ntp195
Rp196
(dp197
g193
VYoutube
p198
sbasg14
I00
sg15
Nsg16
Nsg17
(lp199
sg19
Nsg20
Nsg21
Nsg22
VSun Dec 14 19:14:03 +0000 2014
p200
sg24
Nsg25
I00
sg26
Nsg27
Nsg28
Nsg29
Nsg30
I00
sg31
Nsg32
(lp201
sg34
Nsg35
Nsg36
Nsg37
VNeed #Youtube Subs, Likes, Views and Comments? Submit your #Youtube link on my site and watch the numbers rise http://t.co/DG3X8FmjLe
p202
sg39
I00
sg40
Ven
p203
sg42
g3
(g43
g5
Ntp204
Rp205
(dp206
g10
VATL
p207
sg48
V333333
p208
sg50
Ven
p209
sg52
VEastern Time (US & Canada)
p210
sg54
I48574
sg55
I99589
sg22
VWed Feb 29 07:05:42 +0000 2012
p211
sg57
I00
sg58
VOwner of Promo Headz. Here to help you reach your full social media potential. Use my trusted services at http://t.co/44qenBiazv  #PayPalVerified
p212
sg60
Vhttps://pbs.twimg.com/profile_images/421688928102412288/v8doef8Y_normal.jpeg
p213
sg62
I35277
sg63
I18
sg64
I-18000
sg65
Nsg66
I00
sg67
Vhttps://pbs.twimg.com/profile_banners/508505901/1407735662
p214
sg69
I00
sg70
I01
sg71
V0084B4
p215
sg73
I00
sg74
I00
sg75
Vhttp://pbs.twimg.com/profile_background_images/378800000169235923/uQzytBpy.jpeg
p216
sg77
VMsPromo88
p217
sg79
I166
sg80
VNikki Barnwell
p218
sg82
VDDFFCC
p219
sg84
Vhttp://t.co/44qenBiazv
p220
sg86
I508505901
sg87
V9AE4E8
p221
sbsg89
I0
sg90
V<a href="http://gremln.com" rel="nofollow">Gremln</a>
p222
sg92
(lp223
g3
(g94
g5
Ntp224
Rp225
(dp226
g98
Vhttp://t.co/DG3X8FmjLe
p227
sg100
Vhttp://www.promoheadz.com
p228
sbasg86
I544208717345210370
sbag3
(g4
g5
Ntp229
Rp230
(dp231
g9
I0
sg10
Nsg11
Nsg12
(lp232
g3
(g189
g5
Ntp233
Rp234
(dp235
g193
VFacebook
p236
sbag3
(g189
g5
Ntp237
Rp238
(dp239
g193
VTwitter
p240
sbasg14
I00
sg15
Nsg16
Nsg17
(lp241
sg19
Nsg20
Nsg21
Nsg22
VSun Dec 14 19:11:07 +0000 2014
p242
sg24
Nsg25
I00
sg26
Nsg27
Nsg28
Nsg29
Nsg30
I00
sg31
Nsg32
(lp243
sg34
Nsg35
Nsg36
Nsg37
VNeed help growing your likes on #Facebook or followers on #Twitter? log on to &gt;&gt;&gt; http://t.co/DG3X8FmjLe
p244
sg39
I00
sg40
Ven
p245
sg42
g3
(g43
g5
Ntp246
Rp247
(dp248
g10
VATL
p249
sg48
V333333
p250
sg50
Ven
p251
sg52
VEastern Time (US & Canada)
p252
sg54
I48574
sg55
I99589
sg22
VWed Feb 29 07:05:42 +0000 2012
p253
sg57
I00
sg58
VOwner of Promo Headz. Here to help you reach your full social media potential. Use my trusted services at http://t.co/44qenBiazv  #PayPalVerified
p254
sg60
Vhttps://pbs.twimg.com/profile_images/421688928102412288/v8doef8Y_normal.jpeg
p255
sg62
I35277
sg63
I18
sg64
I-18000
sg65
Nsg66
I00
sg67
Vhttps://pbs.twimg.com/profile_banners/508505901/1407735662
p256
sg69
I00
sg70
I01
sg71
V0084B4
p257
sg73
I00
sg74
I00
sg75
Vhttp://pbs.twimg.com/profile_background_images/378800000169235923/uQzytBpy.jpeg
p258
sg77
VMsPromo88
p259
sg79
I166
sg80
VNikki Barnwell
p260
sg82
VDDFFCC
p261
sg84
Vhttp://t.co/44qenBiazv
p262
sg86
I508505901
sg87
V9AE4E8
p263
sbsg89
I0
sg90
V<a href="http://gremln.com" rel="nofollow">Gremln</a>
p264
sg92
(lp265
g3
(g94
g5
Ntp266
Rp267
(dp268
g98
Vhttp://t.co/DG3X8FmjLe
p269
sg100
Vhttp://www.promoheadz.com
p270
sbasg86
I544207979567124480
sbag3
(g4
g5
Ntp271
Rp272
(dp273
g9
I0
sg10
Nsg11
Nsg12
(lp274
sg14
I00
sg15
Nsg16
Nsg17
(lp275
sg19
Nsg20
Nsg21
Nsg22
VSun Dec 14 19:06:14 +0000 2014
p276
sg24
Nsg25
I00
sg26
Nsg27
Nsg28
Nsg29
Nsg30
I00
sg31
Nsg32
(lp277
sg34
Nsg35
Nsg36
Nsg37
VWhile you all are busy tweeting your links to me, you should be using our premium Twitter Promotion Services! http://t.co/4jVvFU2gYo
p278
sg39
I00
sg40
Ven
p279
sg42
g3
(g43
g5
Ntp280
Rp281
(dp282
g10
VATL
p283
sg48
V333333
p284
sg50
Ven
p285
sg52
VEastern Time (US & Canada)
p286
sg54
I48574
sg55
I99589
sg22
VWed Feb 29 07:05:42 +0000 2012
p287
sg57
I00
sg58
VOwner of Promo Headz. Here to help you reach your full social media potential. Use my trusted services at http://t.co/44qenBiazv  #PayPalVerified
p288
sg60
Vhttps://pbs.twimg.com/profile_images/421688928102412288/v8doef8Y_normal.jpeg
p289
sg62
I35277
sg63
I18
sg64
I-18000
sg65
Nsg66
I00
sg67
Vhttps://pbs.twimg.com/profile_banners/508505901/1407735662
p290
sg69
I00
sg70
I01
sg71
V0084B4
p291
sg73
I00
sg74
I00
sg75
Vhttp://pbs.twimg.com/profile_background_images/378800000169235923/uQzytBpy.jpeg
p292
sg77
VMsPromo88
p293
sg79
I166
sg80
VNikki Barnwell
p294
sg82
VDDFFCC
p295
sg84
Vhttp://t.co/44qenBiazv
p296
sg86
I508505901
sg87
V9AE4E8
p297
sbsg89
I0
sg90
V<a href="http://gremln.com" rel="nofollow">Gremln</a>
p298
sg92
(lp299
g3
(g94
g5
Ntp300
Rp301
(dp302
g98
Vhttp://t.co/4jVvFU2gYo
p303
sg100
Vhttp://www.promoheadz.com/twitter-marketing
p304
sbasg86
I544206749730111488
sbag3
(g4
g5
Ntp305
Rp306
(dp307
g9
I0
sg10
Nsg11
Nsg12
(lp308
g3
(g189
g5
Ntp309
Rp310
(dp311
g193
Vsocial
p312
sbag3
(g189
g5
Ntp313
Rp314
(dp315
g193
Vmedia
p316
sbasg14
I00
sg15
Nsg16
Nsg17
(lp317
sg19
Nsg20
Nsg21
Nsg22
VSun Dec 14 19:06:05 +0000 2014
p318
sg24
Nsg25
I00
sg26
Nsg27
Nsg28
Nsg29
Nsg30
I00
sg31
Nsg32
(lp319
sg34
Nsg35
Nsg36
Nsg37
VGrow a monstrous #social #media presence using my services, tips and techinques http://t.co/DG3X8FmjLe
p320
sg39
I00
sg40
Ven
p321
sg42
g3
(g43
g5
Ntp322
Rp323
(dp324
g10
VATL
p325
sg48
V333333
p326
sg50
Ven
p327
sg52
VEastern Time (US & Canada)
p328
sg54
I48574
sg55
I99589
sg22
VWed Feb 29 07:05:42 +0000 2012
p329
sg57
I00
sg58
VOwner of Promo Headz. Here to help you reach your full social media potential. Use my trusted services at http://t.co/44qenBiazv  #PayPalVerified
p330
sg60
Vhttps://pbs.twimg.com/profile_images/421688928102412288/v8doef8Y_normal.jpeg
p331
sg62
I35277
sg63
I18
sg64
I-18000
sg65
Nsg66
I00
sg67
Vhttps://pbs.twimg.com/profile_banners/508505901/1407735662
p332
sg69
I00
sg70
I01
sg71
V0084B4
p333
sg73
I00
sg74
I00
sg75
Vhttp://pbs.twimg.com/profile_background_images/378800000169235923/uQzytBpy.jpeg
p334
sg77
VMsPromo88
p335
sg79
I166
sg80
VNikki Barnwell
p336
sg82
VDDFFCC
p337
sg84
Vhttp://t.co/44qenBiazv
p338
sg86
I508505901
sg87
V9AE4E8
p339
sbsg89
I0
sg90
V<a href="http://gremln.com" rel="nofollow">Gremln</a>
p340
sg92
(lp341
g3
(g94
g5
Ntp342
Rp343
(dp344
g98
Vhttp://t.co/DG3X8FmjLe
p345
sg100
Vhttp://www.promoheadz.com
p346
sbasg86
I544206710626607104
sbag3
(g4
g5
Ntp347
Rp348
(dp349
g9
I0
sg10
Nsg11
Nsg12
(lp350
g3
(g189
g5
Ntp351
Rp352
(dp353
g193
VTeamPromoHard
p354
sbasg14
I00
sg15
Nsg16
Nsg17
(lp355
sg19
Nsg20
Nsg21
Nsg22
VSun Dec 14 19:01:09 +0000 2014
p356
sg24
Nsg25
Nsg26
Nsg27
Nsg28
Nsg29
Nsg30
I00
sg31
Nsg32
(lp357
sg34
Nsg35
Nsg36
Nsg37
V#TeamPromoHard
p358
sg39
I00
sg40
Vund
p359
sg42
g3
(g43
g5
Ntp360
Rp361
(dp362
g10
VATL
p363
sg48
V333333
p364
sg50
Ven
p365
sg52
VEastern Time (US & Canada)
p366
sg54
I48574
sg55
I99589
sg22
VWed Feb 29 07:05:42 +0000 2012
p367
sg57
I00
sg58
VOwner of Promo Headz. Here to help you reach your full social media potential. Use my trusted services at http://t.co/44qenBiazv  #PayPalVerified
p368
sg60
Vhttps://pbs.twimg.com/profile_images/421688928102412288/v8doef8Y_normal.jpeg
p369
sg62
I35277
sg63
I18
sg64
I-18000
sg65
Nsg66
I00
sg67
Vhttps://pbs.twimg.com/profile_banners/508505901/1407735662
p370
sg69
I00
sg70
I01
sg71
V0084B4
p371
sg73
I00
sg74
I00
sg75
Vhttp://pbs.twimg.com/profile_background_images/378800000169235923/uQzytBpy.jpeg
p372
sg77
VMsPromo88
p373
sg79
I166
sg80
VNikki Barnwell
p374
sg82
VDDFFCC
p375
sg84
Vhttp://t.co/44qenBiazv
p376
sg86
I508505901
sg87
V9AE4E8
p377
sbsg89
I0
sg90
V<a href="http://gremln.com" rel="nofollow">Gremln</a>
p378
sg92
(lp379
sg86
I544205470270255104
sbag3
(g4
g5
Ntp380
Rp381
(dp382
g9
I0
sg10
Nsg11
Nsg12
(lp383
g3
(g189
g5
Ntp384
Rp385
(dp386
g193
VNolimit4ever
p387
sbag3
(g189
g5
Ntp388
Rp389
(dp390
g193
VPHILLY
p391
sbag3
(g189
g5
Ntp392
Rp393
(dp394
g193
VNLF
p395
sbasg14
I00
sg15
Nsg16
Nsg17
(lp396
sg19
Nsg20
Nsg21
Nsg22
VSun Dec 14 18:51:21 +0000 2014
p397
sg24
Nsg25
I00
sg26
Nsg27
Nsg28
Nsg29
Nsg30
I00
sg31
Nsg32
(lp398
g3
(g43
g5
Ntp399
Rp400
(dp401
g10
Nsg48
Nsg50
Nsg52
Nsg54
Nsg55
Nsg22
Nsg57
Nsg58
Nsg60
Nsg62
Nsg63
Nsg64
Nsg65
Nsg66
Nsg67
Nsg69
Nsg70
Nsg71
Nsg73
Nsg74
Nsg75
Nsg77
VAfficial215
p402
sg79
Nsg80
VAfficial
p403
sg82
Nsg84
Nsg86
I47125042
sg87
Nsbasg34
Nsg35
Nsg36
Nsg37
VListen, Comment, &amp; like! New Music by Flames from the group @Afficial215/#Nolimit4ever "40 on my hip" https://t.co/mWiacckn79 #PHILLY #NLF
p404
sg39
I00
sg40
Ven
p405
sg42
g3
(g43
g5
Ntp406
Rp407
(dp408
g10
VATL
p409
sg48
V333333
p410
sg50
Ven
p411
sg52
VEastern Time (US & Canada)
p412
sg54
I48574
sg55
I99589
sg22
VWed Feb 29 07:05:42 +0000 2012
p413
sg57
I00
sg58
VOwner of Promo Headz. Here to help you reach your full social media potential. Use my trusted services at http://t.co/44qenBiazv  #PayPalVerified
p414
sg60
Vhttps://pbs.twimg.com/profile_images/421688928102412288/v8doef8Y_normal.jpeg
p415
sg62
I35277
sg63
I18
sg64
I-18000
sg65
Nsg66
I00
sg67
Vhttps://pbs.twimg.com/profile_banners/508505901/1407735662
p416
sg69
I00
sg70
I01
sg71
V0084B4
p417
sg73
I00
sg74
I00
sg75
Vhttp://pbs.twimg.com/profile_background_images/378800000169235923/uQzytBpy.jpeg
p418
sg77
VMsPromo88
p419
sg79
I166
sg80
VNikki Barnwell
p420
sg82
VDDFFCC
p421
sg84
Vhttp://t.co/44qenBiazv
p422
sg86
I508505901
sg87
V9AE4E8
p423
sbsg89
I0
sg90
V<a href="http://gremln.com" rel="nofollow">Gremln</a>
p424
sg92
(lp425
g3
(g94
g5
Ntp426
Rp427
(dp428
g98
Vhttps://t.co/mWiacckn79
p429
sg100
Vhttps://soundcloud.com/its-afficial/40-on-my-hip-1
p430
sbasg86
I544203002048167937
sbag3
(g4
g5
Ntp431
Rp432
(dp433
g9
I0
sg10
Nsg11
Nsg12
(lp434
g3
(g189
g5
Ntp435
Rp436
(dp437
g193
VInstagram
p438
sbasg14
I00
sg15
Nsg16
Nsg17
(lp439
sg19
Nsg20
Nsg21
Nsg22
VSun Dec 14 18:31:17 +0000 2014
p440
sg24
Nsg25
Nsg26
Nsg27
Nsg28
Nsg29
Nsg30
I00
sg31
Nsg32
(lp441
sg34
Nsg35
Nsg36
Nsg37
VFollow me on #Instagram 'MsBarnwell88'
p442
sg39
I00
sg40
Ven
p443
sg42
g3
(g43
g5
Ntp444
Rp445
(dp446
g10
VATL
p447
sg48
V333333
p448
sg50
Ven
p449
sg52
VEastern Time (US & Canada)
p450
sg54
I48574
sg55
I99589
sg22
VWed Feb 29 07:05:42 +0000 2012
p451
sg57
I00
sg58
VOwner of Promo Headz. Here to help you reach your full social media potential. Use my trusted services at http://t.co/44qenBiazv  #PayPalVerified
p452
sg60
Vhttps://pbs.twimg.com/profile_images/421688928102412288/v8doef8Y_normal.jpeg
p453
sg62
I35277
sg63
I18
sg64
I-18000
sg65
Nsg66
I00
sg67
Vhttps://pbs.twimg.com/profile_banners/508505901/1407735662
p454
sg69
I00
sg70
I01
sg71
V0084B4
p455
sg73
I00
sg74
I00
sg75
Vhttp://pbs.twimg.com/profile_background_images/378800000169235923/uQzytBpy.jpeg
p456
sg77
VMsPromo88
p457
sg79
I166
sg80
VNikki Barnwell
p458
sg82
VDDFFCC
p459
sg84
Vhttp://t.co/44qenBiazv
p460
sg86
I508505901
sg87
V9AE4E8
p461
sbsg89
I0
sg90
V<a href="http://gremln.com" rel="nofollow">Gremln</a>
p462
sg92
(lp463
sg86
I544197955360919552
sbag3
(g4
g5
Ntp464
Rp465
(dp466
g9
I0
sg10
Nsg11
Nsg12
(lp467
sg14
I00
sg15
Nsg16
Nsg17
(lp468
sg19
Nsg20
Nsg21
Nsg22
VSun Dec 14 18:17:02 +0000 2014
p469
sg24
Nsg25
I00
sg26
Nsg27
Nsg28
Nsg29
Nsg30
I00
sg31
Nsg32
(lp470
sg34
Nsg35
Nsg36
Nsg37
VNeed promo campaigns, real Twitter followers, real Facebook likes, real YouTube views, etc? http://t.co/DG3X8FmjLe
p471
sg39
I00
sg40
Ven
p472
sg42
g3
(g43
g5
Ntp473
Rp474
(dp475
g10
VATL
p476
sg48
V333333
p477
sg50
Ven
p478
sg52
VEastern Time (US & Canada)
p479
sg54
I48574
sg55
I99589
sg22
VWed Feb 29 07:05:42 +0000 2012
p480
sg57
I00
sg58
VOwner of Promo Headz. Here to help you reach your full social media potential. Use my trusted services at http://t.co/44qenBiazv  #PayPalVerified
p481
sg60
Vhttps://pbs.twimg.com/profile_images/421688928102412288/v8doef8Y_normal.jpeg
p482
sg62
I35277
sg63
I18
sg64
I-18000
sg65
Nsg66
I00
sg67
Vhttps://pbs.twimg.com/profile_banners/508505901/1407735662
p483
sg69
I00
sg70
I01
sg71
V0084B4
p484
sg73
I00
sg74
I00
sg75
Vhttp://pbs.twimg.com/profile_background_images/378800000169235923/uQzytBpy.jpeg
p485
sg77
VMsPromo88
p486
sg79
I166
sg80
VNikki Barnwell
p487
sg82
VDDFFCC
p488
sg84
Vhttp://t.co/44qenBiazv
p489
sg86
I508505901
sg87
V9AE4E8
p490
sbsg89
I0
sg90
V<a href="http://gremln.com" rel="nofollow">Gremln</a>
p491
sg92
(lp492
g3
(g94
g5
Ntp493
Rp494
(dp495
g98
Vhttp://t.co/DG3X8FmjLe
p496
sg100
Vhttp://www.promoheadz.com
p497
sbasg86
I544194368979349504
sbag3
(g4
g5
Ntp498
Rp499
(dp500
g9
I0
sg10
Nsg11
Nsg12
(lp501
sg14
I00
sg15
Nsg16
Nsg17
(lp502
sg19
Nsg20
Nsg21
Nsg22
VSun Dec 14 18:10:08 +0000 2014
p503
sg24
Nsg25
I00
sg26
Nsg27
Nsg28
Nsg29
Nsg30
I00
sg31
Nsg32
(lp504
sg34
Nsg35
Nsg36
Nsg37
VWant more Twitter followers in less than 24hr ? http://t.co/DG3X8FmjLe
p505
sg39
I00
sg40
Ven
p506
sg42
g3
(g43
g5
Ntp507
Rp508
(dp509
g10
VATL
p510
sg48
V333333
p511
sg50
Ven
p512
sg52
VEastern Time (US & Canada)
p513
sg54
I48574
sg55
I99589
sg22
VWed Feb 29 07:05:42 +0000 2012
p514
sg57
I00
sg58
VOwner of Promo Headz. Here to help you reach your full social media potential. Use my trusted services at http://t.co/44qenBiazv  #PayPalVerified
p515
sg60
Vhttps://pbs.twimg.com/profile_images/421688928102412288/v8doef8Y_normal.jpeg
p516
sg62
I35277
sg63
I18
sg64
I-18000
sg65
Nsg66
I00
sg67
Vhttps://pbs.twimg.com/profile_banners/508505901/1407735662
p517
sg69
I00
sg70
I01
sg71
V0084B4
p518
sg73
I00
sg74
I00
sg75
Vhttp://pbs.twimg.com/profile_background_images/378800000169235923/uQzytBpy.jpeg
p519
sg77
VMsPromo88
p520
sg79
I166
sg80
VNikki Barnwell
p521
sg82
VDDFFCC
p522
sg84
Vhttp://t.co/44qenBiazv
p523
sg86
I508505901
sg87
V9AE4E8
p524
sbsg89
I0
sg90
V<a href="http://gremln.com" rel="nofollow">Gremln</a>
p525
sg92
(lp526
g3
(g94
g5
Ntp527
Rp528
(dp529
g98
Vhttp://t.co/DG3X8FmjLe
p530
sg100
Vhttp://www.promoheadz.com
p531
sbasg86
I544192629093978113
sbag3
(g4
g5
Ntp532
Rp533
(dp534
g9
I0
sg10
Nsg11
Nsg12
(lp535
g3
(g189
g5
Ntp536
Rp537
(dp538
g193
VSoundcloud
p539
sbag3
(g189
g5
Ntp540
Rp541
(dp542
g193
VReverbNation
p543
sbasg14
I00
sg15
Nsg16
Nsg17
(lp544
sg19
Nsg20
Nsg21
Nsg22
VSun Dec 14 18:07:02 +0000 2014
p545
sg24
Nsg25
I00
sg26
Nsg27
Nsg28
Nsg29
Nsg30
I00
sg31
Nsg32
(lp546
sg34
Nsg35
Nsg36
Nsg37
VCheck Out Our #Soundcloud and #ReverbNation Services! Perfect For Independent Artist http://t.co/DG3X8FmjLe
p547
sg39
I00
sg40
Ven
p548
sg42
g3
(g43
g5
Ntp549
Rp550
(dp551
g10
VATL
p552
sg48
V333333
p553
sg50
Ven
p554
sg52
VEastern Time (US & Canada)
p555
sg54
I48574
sg55
I99589
sg22
VWed Feb 29 07:05:42 +0000 2012
p556
sg57
I00
sg58
VOwner of Promo Headz. Here to help you reach your full social media potential. Use my trusted services at http://t.co/44qenBiazv  #PayPalVerified
p557
sg60
Vhttps://pbs.twimg.com/profile_images/421688928102412288/v8doef8Y_normal.jpeg
p558
sg62
I35277
sg63
I18
sg64
I-18000
sg65
Nsg66
I00
sg67
Vhttps://pbs.twimg.com/profile_banners/508505901/1407735662
p559
sg69
I00
sg70
I01
sg71
V0084B4
p560
sg73
I00
sg74
I00
sg75
Vhttp://pbs.twimg.com/profile_background_images/378800000169235923/uQzytBpy.jpeg
p561
sg77
VMsPromo88
p562
sg79
I166
sg80
VNikki Barnwell
p563
sg82
VDDFFCC
p564
sg84
Vhttp://t.co/44qenBiazv
p565
sg86
I508505901
sg87
V9AE4E8
p566
sbsg89
I0
sg90
V<a href="http://gremln.com" rel="nofollow">Gremln</a>
p567
sg92
(lp568
g3
(g94
g5
Ntp569
Rp570
(dp571
g98
Vhttp://t.co/DG3X8FmjLe
p572
sg100
Vhttp://www.promoheadz.com
p573
sbasg86
I544191852627636224
sbag3
(g4
g5
Ntp574
Rp575
(dp576
g9
I0
sg10
Nsg11
Nsg12
(lp577
g3
(g189
g5
Ntp578
Rp579
(dp580
g193
Vdatpiff
p581
sbag3
(g189
g5
Ntp582
Rp583
(dp584
g193
Vtwitter
p585
sbag3
(g189
g5
Ntp586
Rp587
(dp588
g193
VFacebook
p589
sbag3
(g189
g5
Ntp590
Rp591
(dp592
g193
Vinstagram
p593
sbag3
(g189
g5
Ntp594
Rp595
(dp596
g193
VYouTube
p597
sbasg14
I00
sg15
Nsg16
Nsg17
(lp598
sg19
Nsg20
Nsg21
Nsg22
VSun Dec 14 18:01:17 +0000 2014
p599
sg24
Nsg25
I00
sg26
Nsg27
Nsg28
Nsg29
Nsg30
I00
sg31
Nsg32
(lp600
sg34
Nsg35
Nsg36
Nsg37
VLooking for a cheap #datpiff #twitter #Facebook #instagram or #YouTube promotion service? Check out http://t.co/DG3X8FmjLe now!
p601
sg39
I00
sg40
Ven
p602
sg42
g3
(g43
g5
Ntp603
Rp604
(dp605
g10
VATL
p606
sg48
V333333
p607
sg50
Ven
p608
sg52
VEastern Time (US & Canada)
p609
sg54
I48574
sg55
I99589
sg22
VWed Feb 29 07:05:42 +0000 2012
p610
sg57
I00
sg58
VOwner of Promo Headz. Here to help you reach your full social media potential. Use my trusted services at http://t.co/44qenBiazv  #PayPalVerified
p611
sg60
Vhttps://pbs.twimg.com/profile_images/421688928102412288/v8doef8Y_normal.jpeg
p612
sg62
I35277
sg63
I18
sg64
I-18000
sg65
Nsg66
I00
sg67
Vhttps://pbs.twimg.com/profile_banners/508505901/1407735662
p613
sg69
I00
sg70
I01
sg71
V0084B4
p614
sg73
I00
sg74
I00
sg75
Vhttp://pbs.twimg.com/profile_background_images/378800000169235923/uQzytBpy.jpeg
p615
sg77
VMsPromo88
p616
sg79
I166
sg80
VNikki Barnwell
p617
sg82
VDDFFCC
p618
sg84
Vhttp://t.co/44qenBiazv
p619
sg86
I508505901
sg87
V9AE4E8
p620
sbsg89
I0
sg90
V<a href="http://gremln.com" rel="nofollow">Gremln</a>
p621
sg92
(lp622
g3
(g94
g5
Ntp623
Rp624
(dp625
g98
Vhttp://t.co/DG3X8FmjLe
p626
sg100
Vhttp://www.promoheadz.com
p627
sbasg86
I544190405580173312
sbag3
(g4
g5
Ntp628
Rp629
(dp630
g9
I0
sg10
Nsg11
Nsg12
(lp631
g3
(g189
g5
Ntp632
Rp633
(dp634
g193
VDRUGS
p635
sbasg14
I00
sg15
Nsg16
Nsg17
(lp636
sg19
Nsg20
Nsg21
Nsg22
VSun Dec 14 17:58:05 +0000 2014
p637
sg24
Nsg25
I00
sg26
Nsg27
Nsg28
Nsg29
Nsg30
I00
sg31
Nsg32
(lp638
g3
(g43
g5
Ntp639
Rp640
(dp641
g10
Nsg48
Nsg50
Nsg52
Nsg54
Nsg55
Nsg22
Nsg57
Nsg58
Nsg60
Nsg62
Nsg63
Nsg64
Nsg65
Nsg66
Nsg67
Nsg69
Nsg70
Nsg71
Nsg73
Nsg74
Nsg75
Nsg77
VDreP419
p642
sg79
Nsg80
VDre P. 
p643
sg82
Nsg84
Nsg86
I30900855
sg87
Nsbasg34
Nsg35
Nsg36
Nsg37
Vhttp://t.co/WJkOr02T5G Love this *VIDEO* straight #DRUGS @drep419
p644
sg39
I00
sg40
Ven
p645
sg42
g3
(g43
g5
Ntp646
Rp647
(dp648
g10
VATL
p649
sg48
V333333
p650
sg50
Ven
p651
sg52
VEastern Time (US & Canada)
p652
sg54
I48574
sg55
I99589
sg22
VWed Feb 29 07:05:42 +0000 2012
p653
sg57
I00
sg58
VOwner of Promo Headz. Here to help you reach your full social media potential. Use my trusted services at http://t.co/44qenBiazv  #PayPalVerified
p654
sg60
Vhttps://pbs.twimg.com/profile_images/421688928102412288/v8doef8Y_normal.jpeg
p655
sg62
I35277
sg63
I18
sg64
I-18000
sg65
Nsg66
I00
sg67
Vhttps://pbs.twimg.com/profile_banners/508505901/1407735662
p656
sg69
I00
sg70
I01
sg71
V0084B4
p657
sg73
I00
sg74
I00
sg75
Vhttp://pbs.twimg.com/profile_background_images/378800000169235923/uQzytBpy.jpeg
p658
sg77
VMsPromo88
p659
sg79
I166
sg80
VNikki Barnwell
p660
sg82
VDDFFCC
p661
sg84
Vhttp://t.co/44qenBiazv
p662
sg86
I508505901
sg87
V9AE4E8
p663
sbsg89
I0
sg90
V<a href="http://gremln.com" rel="nofollow">Gremln</a>
p664
sg92
(lp665
g3
(g94
g5
Ntp666
Rp667
(dp668
g98
Vhttp://t.co/WJkOr02T5G
p669
sg100
Vhttp://youtu.be/jVp3-MZ7Rmg?t=47s
p670
sbasg86
I544189597698523136
sbag3
(g4
g5
Ntp671
Rp672
(dp673
g9
I0
sg10
Nsg11
Nsg12
(lp674
g3
(g189
g5
Ntp675
Rp676
(dp677
g193
Vpromotion
p678
sbasg14
I00
sg15
Nsg16
Nsg17
(lp679
sg19
Nsg20
Nsg21
Nsg22
VSun Dec 14 17:14:00 +0000 2014
p680
sg24
Nsg25
I00
sg26
Nsg27
Nsg28
Nsg29
Nsg30
I00
sg31
Nsg32
(lp681
sg34
Nsg35
Nsg36
Nsg37
VNeed #promotion for your new single or video? http://t.co/DG3X8FmjLe
p682
sg39
I00
sg40
Ven
p683
sg42
g3
(g43
g5
Ntp684
Rp685
(dp686
g10
VATL
p687
sg48
V333333
p688
sg50
Ven
p689
sg52
VEastern Time (US & Canada)
p690
sg54
I48574
sg55
I99589
sg22
VWed Feb 29 07:05:42 +0000 2012
p691
sg57
I00
sg58
VOwner of Promo Headz. Here to help you reach your full social media potential. Use my trusted services at http://t.co/44qenBiazv  #PayPalVerified
p692
sg60
Vhttps://pbs.twimg.com/profile_images/421688928102412288/v8doef8Y_normal.jpeg
p693
sg62
I35277
sg63
I18
sg64
I-18000
sg65
Nsg66
I00
sg67
Vhttps://pbs.twimg.com/profile_banners/508505901/1407735662
p694
sg69
I00
sg70
I01
sg71
V0084B4
p695
sg73
I00
sg74
I00
sg75
Vhttp://pbs.twimg.com/profile_background_images/378800000169235923/uQzytBpy.jpeg
p696
sg77
VMsPromo88
p697
sg79
I166
sg80
VNikki Barnwell
p698
sg82
VDDFFCC
p699
sg84
Vhttp://t.co/44qenBiazv
p700
sg86
I508505901
sg87
V9AE4E8
p701
sbsg89
I0
sg90
V<a href="http://gremln.com" rel="nofollow">Gremln</a>
p702
sg92
(lp703
g3
(g94
g5
Ntp704
Rp705
(dp706
g98
Vhttp://t.co/DG3X8FmjLe
p707
sg100
Vhttp://www.promoheadz.com
p708
sbasg86
I544178506025148416
sbag3
(g4
g5
Ntp709
Rp710
(dp711
g9
I0
sg10
Nsg11
Nsg12
(lp712
g3
(g189
g5
Ntp713
Rp714
(dp715
g193
VInstagram
p716
sbag3
(g189
g5
Ntp717
Rp718
(dp719
g193
VTeamTopPromoters
p720
sbasg14
I00
sg15
Nsg16
Nsg17
(lp721
sg19
Nsg20
Nsg21
Nsg22
VSun Dec 14 17:11:06 +0000 2014
p722
sg24
Nsg25
I00
sg26
Nsg27
Nsg28
Nsg29
Nsg30
I00
sg31
Nsg32
(lp723
sg34
Nsg35
Nsg36
Nsg37
VNeed a mass #Instagram following like the celebs?  Go to my website http://t.co/DG3X8FmjLe #TeamTopPromoters
p724
sg39
I00
sg40
Ven
p725
sg42
g3
(g43
g5
Ntp726
Rp727
(dp728
g10
VATL
p729
sg48
V333333
p730
sg50
Ven
p731
sg52
VEastern Time (US & Canada)
p732
sg54
I48574
sg55
I99589
sg22
VWed Feb 29 07:05:42 +0000 2012
p733
sg57
I00
sg58
VOwner of Promo Headz. Here to help you reach your full social media potential. Use my trusted services at http://t.co/44qenBiazv  #PayPalVerified
p734
sg60
Vhttps://pbs.twimg.com/profile_images/421688928102412288/v8doef8Y_normal.jpeg
p735
sg62
I35277
sg63
I18
sg64
I-18000
sg65
Nsg66
I00
sg67
Vhttps://pbs.twimg.com/profile_banners/508505901/1407735662
p736
sg69
I00
sg70
I01
sg71
V0084B4
p737
sg73
I00
sg74
I00
sg75
Vhttp://pbs.twimg.com/profile_background_images/378800000169235923/uQzytBpy.jpeg
p738
sg77
VMsPromo88
p739
sg79
I166
sg80
VNikki Barnwell
p740
sg82
VDDFFCC
p741
sg84
Vhttp://t.co/44qenBiazv
p742
sg86
I508505901
sg87
V9AE4E8
p743
sbsg89
I0
sg90
V<a href="http://gremln.com" rel="nofollow">Gremln</a>
p744
sg92
(lp745
g3
(g94
g5
Ntp746
Rp747
(dp748
g98
Vhttp://t.co/DG3X8FmjLe
p749
sg100
Vhttp://www.promoheadz.com
p750
sbasg86
I544177773708079104
sbag3
(g4
g5
Ntp751
Rp752
(dp753
g9
I0
sg10
Nsg11
Nsg12
(lp754
sg14
I00
sg15
Nsg16
Nsg17
(lp755
sg19
Nsg20
Nsg21
Nsg22
VSun Dec 14 17:03:03 +0000 2014
p756
sg24
Nsg25
I00
sg26
Nsg27
Nsg28
Nsg29
Nsg30
I00
sg31
Nsg32
(lp757
sg34
Nsg35
Nsg36
Nsg37
VArtist/Buinsess Owners are you next to take off? Need CRAZY social media numbers? check out our website http://t.co/DG3X8FmjLe
p758
sg39
I00
sg40
Ven
p759
sg42
g3
(g43
g5
Ntp760
Rp761
(dp762
g10
VATL
p763
sg48
V333333
p764
sg50
Ven
p765
sg52
VEastern Time (US & Canada)
p766
sg54
I48574
sg55
I99589
sg22
VWed Feb 29 07:05:42 +0000 2012
p767
sg57
I00
sg58
VOwner of Promo Headz. Here to help you reach your full social media potential. Use my trusted services at http://t.co/44qenBiazv  #PayPalVerified
p768
sg60
Vhttps://pbs.twimg.com/profile_images/421688928102412288/v8doef8Y_normal.jpeg
p769
sg62
I35277
sg63
I18
sg64
I-18000
sg65
Nsg66
I00
sg67
Vhttps://pbs.twimg.com/profile_banners/508505901/1407735662
p770
sg69
I00
sg70
I01
sg71
V0084B4
p771
sg73
I00
sg74
I00
sg75
Vhttp://pbs.twimg.com/profile_background_images/378800000169235923/uQzytBpy.jpeg
p772
sg77
VMsPromo88
p773
sg79
I166
sg80
VNikki Barnwell
p774
sg82
VDDFFCC
p775
sg84
Vhttp://t.co/44qenBiazv
p776
sg86
I508505901
sg87
V9AE4E8
p777
sbsg89
I0
sg90
V<a href="http://gremln.com" rel="nofollow">Gremln</a>
p778
sg92
(lp779
g3
(g94
g5
Ntp780
Rp781
(dp782
g98
Vhttp://t.co/DG3X8FmjLe
p783
sg100
Vhttp://www.promoheadz.com
p784
sbasg86
I544175749889290240
sbag3
(g4
g5
Ntp785
Rp786
(dp787
g9
I0
sg10
Nsg11
Nsg12
(lp788
sg14
I00
sg15
Nsg16
Nsg17
(lp789
sg19
Nsg20
Nsg21
Nsg22
VSun Dec 14 17:01:12 +0000 2014
p790
sg24
Nsg25
I00
sg26
Nsg27
Nsg28
Nsg29
Nsg30
I00
sg31
Nsg32
(lp791
sg34
Nsg35
Nsg36
Nsg37
V[$10] 1 Week Promo To Over 300,000 Active Twitter Followers!  Click Here For Details---&gt; http://t.co/DG3X8FmjLe
p792
sg39
I00
sg40
Ven
p793
sg42
g3
(g43
g5
Ntp794
Rp795
(dp796
g10
VATL
p797
sg48
V333333
p798
sg50
Ven
p799
sg52
VEastern Time (US & Canada)
p800
sg54
I48574
sg55
I99589
sg22
VWed Feb 29 07:05:42 +0000 2012
p801
sg57
I00
sg58
VOwner of Promo Headz. Here to help you reach your full social media potential. Use my trusted services at http://t.co/44qenBiazv  #PayPalVerified
p802
sg60
Vhttps://pbs.twimg.com/profile_images/421688928102412288/v8doef8Y_normal.jpeg
p803
sg62
I35277
sg63
I18
sg64
I-18000
sg65
Nsg66
I00
sg67
Vhttps://pbs.twimg.com/profile_banners/508505901/1407735662
p804
sg69
I00
sg70
I01
sg71
V0084B4
p805
sg73
I00
sg74
I00
sg75
Vhttp://pbs.twimg.com/profile_background_images/378800000169235923/uQzytBpy.jpeg
p806
sg77
VMsPromo88
p807
sg79
I166
sg80
VNikki Barnwell
p808
sg82
VDDFFCC
p809
sg84
Vhttp://t.co/44qenBiazv
p810
sg86
I508505901
sg87
V9AE4E8
p811
sbsg89
I0
sg90
V<a href="http://gremln.com" rel="nofollow">Gremln</a>
p812
sg92
(lp813
g3
(g94
g5
Ntp814
Rp815
(dp816
g98
Vhttp://t.co/DG3X8FmjLe
p817
sg100
Vhttp://www.promoheadz.com
p818
sbasg86
I544175282903855106
sbag3
(g4
g5
Ntp819
Rp820
(dp821
g9
I0
sg10
Nsg11
Nsg12
(lp822
g3
(g189
g5
Ntp823
Rp824
(dp825
g193
VDatpiff
p826
sbag3
(g189
g5
Ntp827
Rp828
(dp829
g193
VReverbnation
p830
sbag3
(g189
g5
Ntp831
Rp832
(dp833
g193
VSoundcloud
p834
sbasg14
I00
sg15
Nsg16
Nsg17
(lp835
sg19
Nsg20
Nsg21
Nsg22
VSun Dec 14 16:26:13 +0000 2014
p836
sg24
Nsg25
I00
sg26
Nsg27
Nsg28
Nsg29
Nsg30
I00
sg31
Nsg32
(lp837
sg34
Nsg35
Nsg36
Nsg37
VBoost numbers on #Datpiff, #Reverbnation and #Soundcloud using my tried and proven techniques!  http://t.co/mxWxbWIIql
p838
sg39
I00
sg40
Ven
p839
sg42
g3
(g43
g5
Ntp840
Rp841
(dp842
g10
VATL
p843
sg48
V333333
p844
sg50
Ven
p845
sg52
VEastern Time (US & Canada)
p846
sg54
I48574
sg55
I99589
sg22
VWed Feb 29 07:05:42 +0000 2012
p847
sg57
I00
sg58
VOwner of Promo Headz. Here to help you reach your full social media potential. Use my trusted services at http://t.co/44qenBiazv  #PayPalVerified
p848
sg60
Vhttps://pbs.twimg.com/profile_images/421688928102412288/v8doef8Y_normal.jpeg
p849
sg62
I35277
sg63
I18
sg64
I-18000
sg65
Nsg66
I00
sg67
Vhttps://pbs.twimg.com/profile_banners/508505901/1407735662
p850
sg69
I00
sg70
I01
sg71
V0084B4
p851
sg73
I00
sg74
I00
sg75
Vhttp://pbs.twimg.com/profile_background_images/378800000169235923/uQzytBpy.jpeg
p852
sg77
VMsPromo88
p853
sg79
I166
sg80
VNikki Barnwell
p854
sg82
VDDFFCC
p855
sg84
Vhttp://t.co/44qenBiazv
p856
sg86
I508505901
sg87
V9AE4E8
p857
sbsg89
I0
sg90
V<a href="http://gremln.com" rel="nofollow">Gremln</a>
p858
sg92
(lp859
g3
(g94
g5
Ntp860
Rp861
(dp862
g98
Vhttp://t.co/mxWxbWIIql
p863
sg100
Vhttp://www.promoheadz.com/
p864
sbasg86
I544166480431304705
sbag3
(g4
g5
Ntp865
Rp866
(dp867
g9
I0
sg10
Nsg11
Nsg12
(lp868
sg14
I00
sg15
Nsg16
Nsg17
(lp869
sg19
Nsg20
Nsg21
Nsg22
VSun Dec 14 16:16:16 +0000 2014
p870
sg24
Nsg25
I00
sg26
Nsg27
Nsg28
Nsg29
Nsg30
I00
sg31
Nsg32
(lp871
sg34
Nsg35
Nsg36
Nsg37
VGet more Facebook fans and likes from http://t.co/DG3X8FmjLe and boost your social presence in almost no time.
p872
sg39
I00
sg40
Ven
p873
sg42
g3
(g43
g5
Ntp874
Rp875
(dp876
g10
VATL
p877
sg48
V333333
p878
sg50
Ven
p879
sg52
VEastern Time (US & Canada)
p880
sg54
I48574
sg55
I99589
sg22
VWed Feb 29 07:05:42 +0000 2012
p881
sg57
I00
sg58
VOwner of Promo Headz. Here to help you reach your full social media potential. Use my trusted services at http://t.co/44qenBiazv  #PayPalVerified
p882
sg60
Vhttps://pbs.twimg.com/profile_images/421688928102412288/v8doef8Y_normal.jpeg
p883
sg62
I35277
sg63
I18
sg64
I-18000
sg65
Nsg66
I00
sg67
Vhttps://pbs.twimg.com/profile_banners/508505901/1407735662
p884
sg69
I00
sg70
I01
sg71
V0084B4
p885
sg73
I00
sg74
I00
sg75
Vhttp://pbs.twimg.com/profile_background_images/378800000169235923/uQzytBpy.jpeg
p886
sg77
VMsPromo88
p887
sg79
I166
sg80
VNikki Barnwell
p888
sg82
VDDFFCC
p889
sg84
Vhttp://t.co/44qenBiazv
p890
sg86
I508505901
sg87
V9AE4E8
p891
sbsg89
I0
sg90
V<a href="http://gremln.com" rel="nofollow">Gremln</a>
p892
sg92
(lp893
g3
(g94
g5
Ntp894
Rp895
(dp896
g98
Vhttp://t.co/DG3X8FmjLe
p897
sg100
Vhttp://www.promoheadz.com
p898
sbasg86
I544163976599572480
sbaa.