(lp0
S'hugewinning'
p1
a(lp2
ccopy_reg
_reconstructor
p3
(ctwitter
Status
p4
c__builtin__
object
p5
Ntp6
Rp7
(dp8
S'_favorite_count'
p9
I0
sS'_location'
p10
NsS'_withheld_scope'
p11
NsS'hashtags'
p12
(lp13
sS'_truncated'
p14
I00
sS'_retweeted_status'
p15
NsS'_withheld_copyright'
p16
NsS'media'
p17
(lp18
sS'_place'
p19
NsS'_contributors'
p20
NsS'_current_user_retweet'
p21
NsS'_created_at'
p22
VSun Dec 14 15:26:41 +0000 2014
p23
sS'_scopes'
p24
NsS'_possibly_sensitive'
p25
I00
sS'_in_reply_to_screen_name'
p26
NsS'_coordinates'
p27
NsS'_in_reply_to_user_id'
p28
NsS'_geo'
p29
NsS'_favorited'
p30
I00
sS'_withheld_in_countries'
p31
NsS'user_mentions'
p32
(lp33
sS'_now'
p34
NsS'_id_str'
p35
V544151495923740672
p36
sS'_in_reply_to_status_id'
p37
NsS'_text'
p38
V\U0001f4e2Purchase Any Package\U0001f449Register First\U0001f449THEN YOUR SELECTIONS WILL BE TEXT TO THE CELL NUMBER THAT YOU\u2026 http://t.co/zBN9hUx1o3
p39
sS'_retweeted'
p40
I00
sS'lang'
p41
Ven
p42
sS'_user'
p43
g3
(ctwitter
User
p44
g5
Ntp45
Rp46
(dp47
g10
VAtlantic City, New Jersey
p48
sS'_profile_text_color'
p49
V333333
p50
sS'_lang'
p51
Ven
p52
sS'_time_zone'
p53
NsS'_followers_count'
p54
I24146
sS'_statuses_count'
p55
I1064
sg22
VWed Jun 25 20:55:45 +0000 2014
p56
sS'_verified'
p57
I00
sS'_description'
p58
VSports Handicapper, Over 100 Years Combined Experience, Top 25 Capper, VIP 76.4 % Lifetime Follow us on Instagram sportsbetting101
p59
sS'_profile_image_url'
p60
Vhttps://pbs.twimg.com/profile_images/481908190687145984/U1BYcQdT_normal.jpeg
p61
sS'_friends_count'
p62
I1516
sS'_favourites_count'
p63
I219
sS'_utc_offset'
p64
NsS'_status'
p65
NsS'_protected'
p66
I00
sS'_profile_banner_url'
p67
Vhttps://pbs.twimg.com/profile_banners/2641781176/1403733724
p68
sS'_notifications'
p69
I00
sS'_profile_background_tile'
p70
I01
sS'_profile_link_color'
p71
V3B94D9
p72
sS'_geo_enabled'
p73
I00
sS'_contributors_enabled'
p74
I00
sS'_profile_background_image_url'
p75
Vhttp://abs.twimg.com/images/themes/theme14/bg.gif
p76
sS'_screen_name'
p77
Vhugewinning
p78
sS'_listed_count'
p79
I2
sS'_name'
p80
VSports Betting 101
p81
sS'_profile_sidebar_fill_color'
p82
VDDEEF6
p83
sS'_url'
p84
Vhttp://t.co/tZR8ZVbp95
p85
sS'_id'
p86
I2641781176
sS'_profile_background_color'
p87
V131516
p88
sbsS'_retweet_count'
p89
I0
sS'_source'
p90
V<a href="http://instagram.com" rel="nofollow">Instagram</a>
p91
sS'urls'
p92
(lp93
g3
(ctwitter
Url
p94
g5
Ntp95
Rp96
(dp97
S'url'
p98
Vhttp://t.co/zBN9hUx1o3
p99
sS'expanded_url'
p100
Vhttp://instagram.com/p/wl5UMOqgNO/
p101
sbasg86
I544151495923740672
sbag3
(g4
g5
Ntp102
Rp103
(dp104
g9
I0
sg10
Nsg11
Nsg12
(lp105
sg14
I00
sg15
Nsg16
Nsg17
(lp106
sg19
Nsg20
Nsg21
Nsg22
VSun Dec 14 15:15:58 +0000 2014
p107
sg24
Nsg25
I00
sg26
Nsg27
Nsg28
Nsg29
Nsg30
I00
sg31
Nsg32
(lp108
sg34
Nsg35
V544148798482944000
p109
sg37
Nsg38
VRegroup say is today boys! You know that we always bounce back after a loss\u2705 \U0001f4e2Purchase Any\u2026 http://t.co/AXOeT3b19A
p110
sg40
I00
sg41
Ven
p111
sg43
g3
(g44
g5
Ntp112
Rp113
(dp114
g10
VAtlantic City, New Jersey
p115
sg49
V333333
p116
sg51
Ven
p117
sg53
Nsg54
I24146
sg55
I1064
sg22
VWed Jun 25 20:55:45 +0000 2014
p118
sg57
I00
sg58
VSports Handicapper, Over 100 Years Combined Experience, Top 25 Capper, VIP 76.4 % Lifetime Follow us on Instagram sportsbetting101
p119
sg60
Vhttps://pbs.twimg.com/profile_images/481908190687145984/U1BYcQdT_normal.jpeg
p120
sg62
I1516
sg63
I219
sg64
Nsg65
Nsg66
I00
sg67
Vhttps://pbs.twimg.com/profile_banners/2641781176/1403733724
p121
sg69
I00
sg70
I01
sg71
V3B94D9
p122
sg73
I00
sg74
I00
sg75
Vhttp://abs.twimg.com/images/themes/theme14/bg.gif
p123
sg77
Vhugewinning
p124
sg79
I2
sg80
VSports Betting 101
p125
sg82
VDDEEF6
p126
sg84
Vhttp://t.co/tZR8ZVbp95
p127
sg86
I2641781176
sg87
V131516
p128
sbsg89
I0
sg90
V<a href="http://instagram.com" rel="nofollow">Instagram</a>
p129
sg92
(lp130
g3
(g94
g5
Ntp131
Rp132
(dp133
g98
Vhttp://t.co/AXOeT3b19A
p134
sg100
Vhttp://instagram.com/p/wl4FsDqgKs/
p135
sbasg86
I544148798482944000
sbag3
(g4
g5
Ntp136
Rp137
(dp138
g9
I0
sg10
Nsg11
Nsg12
(lp139
sg14
I00
sg15
g3
(g4
g5
Ntp140
Rp141
(dp142
g9
I338
sg10
Nsg11
Nsg12
(lp143
sg14
I00
sg15
Nsg16
Nsg17
(lp144
sg19
Nsg20
Nsg21
Nsg22
VSun Dec 14 13:25:37 +0000 2014
p145
sg24
Nsg25
I00
sg26
Nsg27
Nsg28
Nsg29
Nsg30
I00
sg31
Nsg32
(lp146
sg34
Nsg35
V544121029518712834
p147
sg37
Nsg38
VICYMI: James Harden's triple-double &amp; Dwight Howard's 26 Pts power Rockets past Nuggets, 108-96.\u000a\u000aVIDEO: http://t.co/vcfxZO08uH
p148
sg40
I00
sg41
Ven
p149
sg43
g3
(g44
g5
Ntp150
Rp151
(dp152
g10
VRockin' Bristol, CT since 1979
p153
sg49
V333333
p154
sg51
Ven
p155
sg53
VEastern Time (US & Canada)
p156
sg54
I11857970
sg55
I50434
sg22
VTue Mar 24 15:28:02 +0000 2009
p157
sg57
I01
sg58
VAll things sports, all the time. Nominate top plays using #SCtop10. *If you send us a tweet, you consent to letting ESPN use and showcase it in any media*
p158
sg60
Vhttps://pbs.twimg.com/profile_images/489621467790082049/Np08P5_r_normal.jpeg
p159
sg62
I1464
sg63
I340
sg64
I-18000
sg65
Nsg66
I00
sg67
Vhttps://pbs.twimg.com/profile_banners/26257166/1403487428
p160
sg69
I00
sg70
I01
sg71
V009999
p161
sg73
I00
sg74
I00
sg75
Vhttp://pbs.twimg.com/profile_background_images/480904536454750208/mD9fyg2r.jpeg
p162
sg77
VSportsCenter
p163
sg79
I36912
sg80
VSportsCenter
p164
sg82
VEFEFEF
p165
sg84
Vhttp://t.co/Z8NJRNPZqF
p166
sg86
I26257166
sg87
V131516
p167
sbsg89
I234
sg90
V<a href="http://twitter.com" rel="nofollow">Twitter Web Client</a>
p168
sg92
(lp169
g3
(g94
g5
Ntp170
Rp171
(dp172
g98
Vhttp://t.co/vcfxZO08uH
p173
sg100
Vhttp://es.pn/1IP6PuA
p174
sbasg86
I544121029518712834
sbsg16
Nsg17
(lp175
sg19
Nsg20
Nsg21
Nsg22
VSun Dec 14 13:26:09 +0000 2014
p176
sg24
Nsg25
I00
sg26
Nsg27
Nsg28
Nsg29
Nsg30
I00
sg31
Nsg32
(lp177
g3
(g44
g5
Ntp178
Rp179
(dp180
g10
Nsg49
Nsg51
Nsg53
Nsg54
Nsg55
Nsg22
Nsg57
Nsg58
Nsg60
Nsg62
Nsg63
Nsg64
Nsg65
Nsg66
Nsg67
Nsg69
Nsg70
Nsg71
Nsg73
Nsg74
Nsg75
Nsg77
VSportsCenter
p181
sg79
Nsg80
VSportsCenter
p182
sg82
Nsg84
Nsg86
I26257166
sg87
Nsbasg34
Nsg35
V544121164512370689
p183
sg37
Nsg38
VRT @SportsCenter: ICYMI: James Harden's triple-double &amp; Dwight Howard's 26 Pts power Rockets past Nuggets, 108-96.\u000a\u000aVIDEO: http://t.co/vcfx\u2026
p184
sg40
I00
sg41
Ven
p185
sg43
g3
(g44
g5
Ntp186
Rp187
(dp188
g10
VAtlantic City, New Jersey
p189
sg49
V333333
p190
sg51
Ven
p191
sg53
Nsg54
I24146
sg55
I1064
sg22
VWed Jun 25 20:55:45 +0000 2014
p192
sg57
I00
sg58
VSports Handicapper, Over 100 Years Combined Experience, Top 25 Capper, VIP 76.4 % Lifetime Follow us on Instagram sportsbetting101
p193
sg60
Vhttps://pbs.twimg.com/profile_images/481908190687145984/U1BYcQdT_normal.jpeg
p194
sg62
I1516
sg63
I219
sg64
Nsg65
Nsg66
I00
sg67
Vhttps://pbs.twimg.com/profile_banners/2641781176/1403733724
p195
sg69
I00
sg70
I01
sg71
V3B94D9
p196
sg73
I00
sg74
I00
sg75
Vhttp://abs.twimg.com/images/themes/theme14/bg.gif
p197
sg77
Vhugewinning
p198
sg79
I2
sg80
VSports Betting 101
p199
sg82
VDDEEF6
p200
sg84
Vhttp://t.co/tZR8ZVbp95
p201
sg86
I2641781176
sg87
V131516
p202
sbsg89
I234
sg90
V<a href="http://twitter.com/download/iphone" rel="nofollow">Twitter for iPhone</a>
p203
sg92
(lp204
g3
(g94
g5
Ntp205
Rp206
(dp207
g98
Vhttp://t.co/vcfxZO08uH
p208
sg100
Vhttp://es.pn/1IP6PuA
p209
sbasg86
I544121164512370689
sbag3
(g4
g5
Ntp210
Rp211
(dp212
g9
I0
sg10
Nsg11
Nsg12
(lp213
g3
(ctwitter
Hashtag
p214
g5
Ntp215
Rp216
(dp217
S'text'
p218
Vsports
p219
sbag3
(g214
g5
Ntp220
Rp221
(dp222
g218
Vsportsbetting
p223
sbag3
(g214
g5
Ntp224
Rp225
(dp226
g218
Vsportsbook
p227
sbag3
(g214
g5
Ntp228
Rp229
(dp230
g218
Vsportsconsultant
p231
sbag3
(g214
g5
Ntp232
Rp233
(dp234
g218
Vsportsconsulting
p235
sbag3
(g214
g5
Ntp236
Rp237
(dp238
g218
Vsportspicks
p239
sbag3
(g214
g5
Ntp240
Rp241
(dp242
g218
Vspread
p243
sbag3
(g214
g5
Ntp244
Rp245
(dp246
g218
Vstake
p247
sbasg14
I00
sg15
Nsg16
Nsg17
(lp248
sg19
Nsg20
Nsg21
Nsg22
VSun Dec 14 01:11:34 +0000 2014
p249
sg24
Nsg25
I00
sg26
Nsg27
Nsg28
Nsg29
Nsg30
I00
sg31
Nsg32
(lp250
sg34
Nsg35
V543936299640848386
p251
sg37
Nsg38
V#sports #sportsbetting #sportsbook #sportsconsultant #sportsconsulting #sportspicks #spread #stake\u2026 http://t.co/P4whq6QzYp
p252
sg40
I00
sg41
Vund
p253
sg43
g3
(g44
g5
Ntp254
Rp255
(dp256
g10
VAtlantic City, New Jersey
p257
sg49
V333333
p258
sg51
Ven
p259
sg53
Nsg54
I24146
sg55
I1064
sg22
VWed Jun 25 20:55:45 +0000 2014
p260
sg57
I00
sg58
VSports Handicapper, Over 100 Years Combined Experience, Top 25 Capper, VIP 76.4 % Lifetime Follow us on Instagram sportsbetting101
p261
sg60
Vhttps://pbs.twimg.com/profile_images/481908190687145984/U1BYcQdT_normal.jpeg
p262
sg62
I1516
sg63
I219
sg64
Nsg65
Nsg66
I00
sg67
Vhttps://pbs.twimg.com/profile_banners/2641781176/1403733724
p263
sg69
I00
sg70
I01
sg71
V3B94D9
p264
sg73
I00
sg74
I00
sg75
Vhttp://abs.twimg.com/images/themes/theme14/bg.gif
p265
sg77
Vhugewinning
p266
sg79
I2
sg80
VSports Betting 101
p267
sg82
VDDEEF6
p268
sg84
Vhttp://t.co/tZR8ZVbp95
p269
sg86
I2641781176
sg87
V131516
p270
sbsg89
I0
sg90
V<a href="http://instagram.com" rel="nofollow">Instagram</a>
p271
sg92
(lp272
g3
(g94
g5
Ntp273
Rp274
(dp275
g98
Vhttp://t.co/P4whq6QzYp
p276
sg100
Vhttp://instagram.com/p/wkXdKbKgMX/
p277
sbasg86
I543936299640848386
sbag3
(g4
g5
Ntp278
Rp279
(dp280
g9
I0
sg10
Nsg11
Nsg12
(lp281
sg14
I00
sg15
Nsg16
Nsg17
(lp282
sg19
Nsg20
Nsg21
Nsg22
VSat Dec 13 20:00:58 +0000 2014
p283
sg24
Nsg25
I00
sg26
Nsg27
Nsg28
Nsg29
Nsg30
I00
sg31
Nsg32
(lp284
sg34
Nsg35
V543858136801890304
p285
sg37
Nsg38
V\U0001f4e2Purchase Any Package\U0001f449Register First\U0001f449THEN YOUR SELECTIONS WILL BE TEXT TO THE CELL NUMBER THAT YOU\u2026 http://t.co/EXEXQvOPEd
p286
sg40
I00
sg41
Ven
p287
sg43
g3
(g44
g5
Ntp288
Rp289
(dp290
g10
VAtlantic City, New Jersey
p291
sg49
V333333
p292
sg51
Ven
p293
sg53
Nsg54
I24146
sg55
I1064
sg22
VWed Jun 25 20:55:45 +0000 2014
p294
sg57
I00
sg58
VSports Handicapper, Over 100 Years Combined Experience, Top 25 Capper, VIP 76.4 % Lifetime Follow us on Instagram sportsbetting101
p295
sg60
Vhttps://pbs.twimg.com/profile_images/481908190687145984/U1BYcQdT_normal.jpeg
p296
sg62
I1516
sg63
I219
sg64
Nsg65
Nsg66
I00
sg67
Vhttps://pbs.twimg.com/profile_banners/2641781176/1403733724
p297
sg69
I00
sg70
I01
sg71
V3B94D9
p298
sg73
I00
sg74
I00
sg75
Vhttp://abs.twimg.com/images/themes/theme14/bg.gif
p299
sg77
Vhugewinning
p300
sg79
I2
sg80
VSports Betting 101
p301
sg82
VDDEEF6
p302
sg84
Vhttp://t.co/tZR8ZVbp95
p303
sg86
I2641781176
sg87
V131516
p304
sbsg89
I0
sg90
V<a href="http://instagram.com" rel="nofollow">Instagram</a>
p305
sg92
(lp306
g3
(g94
g5
Ntp307
Rp308
(dp309
g98
Vhttp://t.co/EXEXQvOPEd
p310
sg100
Vhttp://instagram.com/p/wjz6VBqgFG/
p311
sbasg86
I543858136801890304
sbag3
(g4
g5
Ntp312
Rp313
(dp314
g9
I0
sg10
Nsg11
Nsg12
(lp315
sg14
I00
sg15
Nsg16
Nsg17
(lp316
sg19
Nsg20
Nsg21
Nsg22
VSat Dec 13 19:54:19 +0000 2014
p317
sg24
Nsg25
I00
sg26
Nsg27
Nsg28
Nsg29
Nsg30
I00
sg31
Nsg32
(lp318
sg34
Nsg35
V543856461919420416
p319
sg37
Nsg38
VRegister on our website and your FREE PLAY will be text to your cell phone ASAP\u2705 www\u2026 http://t.co/g5LF8inlOk
p320
sg40
I00
sg41
Ven
p321
sg43
g3
(g44
g5
Ntp322
Rp323
(dp324
g10
VAtlantic City, New Jersey
p325
sg49
V333333
p326
sg51
Ven
p327
sg53
Nsg54
I24146
sg55
I1064
sg22
VWed Jun 25 20:55:45 +0000 2014
p328
sg57
I00
sg58
VSports Handicapper, Over 100 Years Combined Experience, Top 25 Capper, VIP 76.4 % Lifetime Follow us on Instagram sportsbetting101
p329
sg60
Vhttps://pbs.twimg.com/profile_images/481908190687145984/U1BYcQdT_normal.jpeg
p330
sg62
I1516
sg63
I219
sg64
Nsg65
Nsg66
I00
sg67
Vhttps://pbs.twimg.com/profile_banners/2641781176/1403733724
p331
sg69
I00
sg70
I01
sg71
V3B94D9
p332
sg73
I00
sg74
I00
sg75
Vhttp://abs.twimg.com/images/themes/theme14/bg.gif
p333
sg77
Vhugewinning
p334
sg79
I2
sg80
VSports Betting 101
p335
sg82
VDDEEF6
p336
sg84
Vhttp://t.co/tZR8ZVbp95
p337
sg86
I2641781176
sg87
V131516
p338
sbsg89
I0
sg90
V<a href="http://instagram.com" rel="nofollow">Instagram</a>
p339
sg92
(lp340
g3
(g94
g5
Ntp341
Rp342
(dp343
g98
Vhttp://t.co/g5LF8inlOk
p344
sg100
Vhttp://instagram.com/p/wjzJjTKgDa/
p345
sbasg86
I543856461919420416
sbag3
(g4
g5
Ntp346
Rp347
(dp348
g9
I0
sg10
Nsg11
Nsg12
(lp349
sg14
I00
sg15
Nsg16
Nsg17
(lp350
sg19
Nsg20
Nsg21
Nsg22
VSat Dec 13 19:08:46 +0000 2014
p351
sg24
Nsg25
I00
sg26
Nsg27
Nsg28
Nsg29
Nsg30
I00
sg31
Nsg32
(lp352
sg34
Nsg35
V543844997200502784
p353
sg37
Nsg38
V\U0001f4e2Purchase Any Package\U0001f449Register First\U0001f449THEN YOUR SELECTIONS WILL BE TEXT TO THE CELL NUMBER THAT YOU\u2026 http://t.co/4KtY6knNvS
p354
sg40
I00
sg41
Ven
p355
sg43
g3
(g44
g5
Ntp356
Rp357
(dp358
g10
VAtlantic City, New Jersey
p359
sg49
V333333
p360
sg51
Ven
p361
sg53
Nsg54
I24146
sg55
I1064
sg22
VWed Jun 25 20:55:45 +0000 2014
p362
sg57
I00
sg58
VSports Handicapper, Over 100 Years Combined Experience, Top 25 Capper, VIP 76.4 % Lifetime Follow us on Instagram sportsbetting101
p363
sg60
Vhttps://pbs.twimg.com/profile_images/481908190687145984/U1BYcQdT_normal.jpeg
p364
sg62
I1516
sg63
I219
sg64
Nsg65
Nsg66
I00
sg67
Vhttps://pbs.twimg.com/profile_banners/2641781176/1403733724
p365
sg69
I00
sg70
I01
sg71
V3B94D9
p366
sg73
I00
sg74
I00
sg75
Vhttp://abs.twimg.com/images/themes/theme14/bg.gif
p367
sg77
Vhugewinning
p368
sg79
I2
sg80
VSports Betting 101
p369
sg82
VDDEEF6
p370
sg84
Vhttp://t.co/tZR8ZVbp95
p371
sg86
I2641781176
sg87
V131516
p372
sbsg89
I0
sg90
V<a href="http://instagram.com" rel="nofollow">Instagram</a>
p373
sg92
(lp374
g3
(g94
g5
Ntp375
Rp376
(dp377
g98
Vhttp://t.co/4KtY6knNvS
p378
sg100
Vhttp://instagram.com/p/wjt7mMqgIR/
p379
sbasg86
I543844997200502784
sbag3
(g4
g5
Ntp380
Rp381
(dp382
g9
I0
sg10
Nsg11
Nsg12
(lp383
sg14
I00
sg15
Nsg16
Nsg17
(lp384
sg19
Nsg20
Nsg21
Nsg22
VSat Dec 13 18:06:07 +0000 2014
p385
sg24
Nsg25
I00
sg26
Nsg27
Nsg28
Nsg29
Nsg30
I00
sg31
Nsg32
(lp386
sg34
Nsg35
V543829231206428672
p387
sg37
Nsg38
V\U0001f449http://t.co/hTckzyC0Yl\U0001f448 is running HUGE SPECIAL!\U0001f4b0 100% Signup \U0001f4b5100% Reload\u2705 Comp Rewards Daily! \U0001f4b3 Easy\u2026 http://t.co/z8f2mAFx1w
p388
sg40
I00
sg41
Ven
p389
sg43
g3
(g44
g5
Ntp390
Rp391
(dp392
g10
VAtlantic City, New Jersey
p393
sg49
V333333
p394
sg51
Ven
p395
sg53
Nsg54
I24146
sg55
I1064
sg22
VWed Jun 25 20:55:45 +0000 2014
p396
sg57
I00
sg58
VSports Handicapper, Over 100 Years Combined Experience, Top 25 Capper, VIP 76.4 % Lifetime Follow us on Instagram sportsbetting101
p397
sg60
Vhttps://pbs.twimg.com/profile_images/481908190687145984/U1BYcQdT_normal.jpeg
p398
sg62
I1516
sg63
I219
sg64
Nsg65
Nsg66
I00
sg67
Vhttps://pbs.twimg.com/profile_banners/2641781176/1403733724
p399
sg69
I00
sg70
I01
sg71
V3B94D9
p400
sg73
I00
sg74
I00
sg75
Vhttp://abs.twimg.com/images/themes/theme14/bg.gif
p401
sg77
Vhugewinning
p402
sg79
I2
sg80
VSports Betting 101
p403
sg82
VDDEEF6
p404
sg84
Vhttp://t.co/tZR8ZVbp95
p405
sg86
I2641781176
sg87
V131516
p406
sbsg89
I0
sg90
V<a href="http://instagram.com" rel="nofollow">Instagram</a>
p407
sg92
(lp408
g3
(g94
g5
Ntp409
Rp410
(dp411
g98
Vhttp://t.co/hTckzyC0Yl
p412
sg100
Vhttp://www.betowi.com
p413
sbag3
(g94
g5
Ntp414
Rp415
(dp416
g98
Vhttp://t.co/z8f2mAFx1w
p417
sg100
Vhttp://instagram.com/p/wjmxDbKgJe/
p418
sbasg86
I543829231206428672
sbag3
(g4
g5
Ntp419
Rp420
(dp421
g9
I0
sg10
Nsg11
Nsg12
(lp422
sg14
I00
sg15
Nsg16
Nsg17
(lp423
sg19
Nsg20
Nsg21
Nsg22
VSat Dec 13 18:04:28 +0000 2014
p424
sg24
Nsg25
I00
sg26
Nsg27
Nsg28
Nsg29
Nsg30
I00
sg31
Nsg32
(lp425
sg34
Nsg35
V543828815919591424
p426
sg37
Nsg38
VBut your 2 TEAM PARLAY TODAY!  Only $39 \U0001f4e2\U0001f4e2Purchase Any Package\U0001f449Register First\U0001f449THEN YOUR SELECTIONS\u2026 http://t.co/0kQuCJ59jr
p427
sg40
I00
sg41
Ven
p428
sg43
g3
(g44
g5
Ntp429
Rp430
(dp431
g10
VAtlantic City, New Jersey
p432
sg49
V333333
p433
sg51
Ven
p434
sg53
Nsg54
I24146
sg55
I1064
sg22
VWed Jun 25 20:55:45 +0000 2014
p435
sg57
I00
sg58
VSports Handicapper, Over 100 Years Combined Experience, Top 25 Capper, VIP 76.4 % Lifetime Follow us on Instagram sportsbetting101
p436
sg60
Vhttps://pbs.twimg.com/profile_images/481908190687145984/U1BYcQdT_normal.jpeg
p437
sg62
I1516
sg63
I219
sg64
Nsg65
Nsg66
I00
sg67
Vhttps://pbs.twimg.com/profile_banners/2641781176/1403733724
p438
sg69
I00
sg70
I01
sg71
V3B94D9
p439
sg73
I00
sg74
I00
sg75
Vhttp://abs.twimg.com/images/themes/theme14/bg.gif
p440
sg77
Vhugewinning
p441
sg79
I2
sg80
VSports Betting 101
p442
sg82
VDDEEF6
p443
sg84
Vhttp://t.co/tZR8ZVbp95
p444
sg86
I2641781176
sg87
V131516
p445
sbsg89
I0
sg90
V<a href="http://instagram.com" rel="nofollow">Instagram</a>
p446
sg92
(lp447
g3
(g94
g5
Ntp448
Rp449
(dp450
g98
Vhttp://t.co/0kQuCJ59jr
p451
sg100
Vhttp://instagram.com/p/wjmk80KgI3/
p452
sbasg86
I543828815919591424
sbag3
(g4
g5
Ntp453
Rp454
(dp455
g9
I0
sg10
Nsg11
Nsg12
(lp456
sg14
I00
sg15
Nsg16
Nsg17
(lp457
sg19
Nsg20
Nsg21
Nsg22
VSat Dec 13 17:00:52 +0000 2014
p458
sg24
Nsg25
I00
sg26
Nsg27
Nsg28
Nsg29
Nsg30
I00
sg31
Nsg32
(lp459
sg34
Nsg35
V543812810653044736
p460
sg37
Nsg38
VPicture says it ALL! All of our customers stick with us for LIFE! Why you say? WE MAKE THEM \U0001f4b0\U0001f4b0\U0001f4b0\u2026 http://t.co/gGrow8On0k
p461
sg40
I00
sg41
Ven
p462
sg43
g3
(g44
g5
Ntp463
Rp464
(dp465
g10
VAtlantic City, New Jersey
p466
sg49
V333333
p467
sg51
Ven
p468
sg53
Nsg54
I24146
sg55
I1064
sg22
VWed Jun 25 20:55:45 +0000 2014
p469
sg57
I00
sg58
VSports Handicapper, Over 100 Years Combined Experience, Top 25 Capper, VIP 76.4 % Lifetime Follow us on Instagram sportsbetting101
p470
sg60
Vhttps://pbs.twimg.com/profile_images/481908190687145984/U1BYcQdT_normal.jpeg
p471
sg62
I1516
sg63
I219
sg64
Nsg65
Nsg66
I00
sg67
Vhttps://pbs.twimg.com/profile_banners/2641781176/1403733724
p472
sg69
I00
sg70
I01
sg71
V3B94D9
p473
sg73
I00
sg74
I00
sg75
Vhttp://abs.twimg.com/images/themes/theme14/bg.gif
p474
sg77
Vhugewinning
p475
sg79
I2
sg80
VSports Betting 101
p476
sg82
VDDEEF6
p477
sg84
Vhttp://t.co/tZR8ZVbp95
p478
sg86
I2641781176
sg87
V131516
p479
sbsg89
I0
sg90
V<a href="http://instagram.com" rel="nofollow">Instagram</a>
p480
sg92
(lp481
g3
(g94
g5
Ntp482
Rp483
(dp484
g98
Vhttp://t.co/gGrow8On0k
p485
sg100
Vhttp://instagram.com/p/wjfTJYKgIv/
p486
sbasg86
I543812810653044736
sbag3
(g4
g5
Ntp487
Rp488
(dp489
g9
I0
sg10
Nsg11
Nsg12
(lp490
g3
(g214
g5
Ntp491
Rp492
(dp493
g218
VVIP
p494
sbasg14
I00
sg15
Nsg16
Nsg17
(lp495
sg19
Nsg20
Nsg21
Nsg22
VSat Dec 13 16:44:10 +0000 2014
p496
sg24
Nsg25
I00
sg26
Nsg27
Nsg28
Nsg29
Nsg30
I00
sg31
Nsg32
(lp497
sg34
Nsg35
V543808607150964736
p498
sg37
Nsg38
VGuys Buy today's #VIP GAME and you will be buyers today's WINNER\u2705 $49 gets you PAID LETS GO! \U0001f44f Santa\u2026 http://t.co/PieMr5YBkw
p499
sg40
I00
sg41
Ven
p500
sg43
g3
(g44
g5
Ntp501
Rp502
(dp503
g10
VAtlantic City, New Jersey
p504
sg49
V333333
p505
sg51
Ven
p506
sg53
Nsg54
I24146
sg55
I1064
sg22
VWed Jun 25 20:55:45 +0000 2014
p507
sg57
I00
sg58
VSports Handicapper, Over 100 Years Combined Experience, Top 25 Capper, VIP 76.4 % Lifetime Follow us on Instagram sportsbetting101
p508
sg60
Vhttps://pbs.twimg.com/profile_images/481908190687145984/U1BYcQdT_normal.jpeg
p509
sg62
I1516
sg63
I219
sg64
Nsg65
Nsg66
I00
sg67
Vhttps://pbs.twimg.com/profile_banners/2641781176/1403733724
p510
sg69
I00
sg70
I01
sg71
V3B94D9
p511
sg73
I00
sg74
I00
sg75
Vhttp://abs.twimg.com/images/themes/theme14/bg.gif
p512
sg77
Vhugewinning
p513
sg79
I2
sg80
VSports Betting 101
p514
sg82
VDDEEF6
p515
sg84
Vhttp://t.co/tZR8ZVbp95
p516
sg86
I2641781176
sg87
V131516
p517
sbsg89
I0
sg90
V<a href="http://instagram.com" rel="nofollow">Instagram</a>
p518
sg92
(lp519
g3
(g94
g5
Ntp520
Rp521
(dp522
g98
Vhttp://t.co/PieMr5YBkw
p523
sg100
Vhttp://instagram.com/p/wjdYy9KgEr/
p524
sbasg86
I543808607150964736
sbag3
(g4
g5
Ntp525
Rp526
(dp527
g9
I0
sg10
Nsg11
Nsg12
(lp528
sg14
I00
sg15
Nsg16
Nsg17
(lp529
sg19
Nsg20
Nsg21
Nsg22
VSat Dec 13 16:40:42 +0000 2014
p530
sg24
Nsg25
I00
sg26
Nsg27
Nsg28
Nsg29
Nsg30
I00
sg31
Nsg32
(lp531
sg34
Nsg35
V543807735587151873
p532
sg37
Nsg38
VEasy \U0001f4b0 guys!!! We know you people are making smart decisions on making it with us!! VIP BABY\u2705\u2026 http://t.co/GmO7Ai61Qj
p533
sg40
I00
sg41
Ven
p534
sg43
g3
(g44
g5
Ntp535
Rp536
(dp537
g10
VAtlantic City, New Jersey
p538
sg49
V333333
p539
sg51
Ven
p540
sg53
Nsg54
I24146
sg55
I1064
sg22
VWed Jun 25 20:55:45 +0000 2014
p541
sg57
I00
sg58
VSports Handicapper, Over 100 Years Combined Experience, Top 25 Capper, VIP 76.4 % Lifetime Follow us on Instagram sportsbetting101
p542
sg60
Vhttps://pbs.twimg.com/profile_images/481908190687145984/U1BYcQdT_normal.jpeg
p543
sg62
I1516
sg63
I219
sg64
Nsg65
Nsg66
I00
sg67
Vhttps://pbs.twimg.com/profile_banners/2641781176/1403733724
p544
sg69
I00
sg70
I01
sg71
V3B94D9
p545
sg73
I00
sg74
I00
sg75
Vhttp://abs.twimg.com/images/themes/theme14/bg.gif
p546
sg77
Vhugewinning
p547
sg79
I2
sg80
VSports Betting 101
p548
sg82
VDDEEF6
p549
sg84
Vhttp://t.co/tZR8ZVbp95
p550
sg86
I2641781176
sg87
V131516
p551
sbsg89
I0
sg90
V<a href="http://instagram.com" rel="nofollow">Instagram</a>
p552
sg92
(lp553
g3
(g94
g5
Ntp554
Rp555
(dp556
g98
Vhttp://t.co/GmO7Ai61Qj
p557
sg100
Vhttp://instagram.com/p/wjc_c7KgDn/
p558
sbasg86
I543807735587151873
sbag3
(g4
g5
Ntp559
Rp560
(dp561
g9
I0
sg10
Nsg11
Nsg12
(lp562
sg14
I00
sg15
Nsg16
Nsg17
(lp563
sg19
Nsg20
Nsg21
Nsg22
VSat Dec 13 16:31:15 +0000 2014
p564
sg24
Nsg25
I00
sg26
Nsg27
Nsg28
Nsg29
Nsg30
I00
sg31
Nsg32
(lp565
sg34
Nsg35
V543805359979511808
p566
sg37
Nsg38
V\U0001f4e2Register First\U0001f449Purchase Any Package\U0001f449THEN YOUR SELECTIONS WILL BE TEXT TO THE CELL NUMBER THAT YOU\u2026 http://t.co/DDPKBzmkFY
p567
sg40
I00
sg41
Ven
p568
sg43
g3
(g44
g5
Ntp569
Rp570
(dp571
g10
VAtlantic City, New Jersey
p572
sg49
V333333
p573
sg51
Ven
p574
sg53
Nsg54
I24146
sg55
I1064
sg22
VWed Jun 25 20:55:45 +0000 2014
p575
sg57
I00
sg58
VSports Handicapper, Over 100 Years Combined Experience, Top 25 Capper, VIP 76.4 % Lifetime Follow us on Instagram sportsbetting101
p576
sg60
Vhttps://pbs.twimg.com/profile_images/481908190687145984/U1BYcQdT_normal.jpeg
p577
sg62
I1516
sg63
I219
sg64
Nsg65
Nsg66
I00
sg67
Vhttps://pbs.twimg.com/profile_banners/2641781176/1403733724
p578
sg69
I00
sg70
I01
sg71
V3B94D9
p579
sg73
I00
sg74
I00
sg75
Vhttp://abs.twimg.com/images/themes/theme14/bg.gif
p580
sg77
Vhugewinning
p581
sg79
I2
sg80
VSports Betting 101
p582
sg82
VDDEEF6
p583
sg84
Vhttp://t.co/tZR8ZVbp95
p584
sg86
I2641781176
sg87
V131516
p585
sbsg89
I0
sg90
V<a href="http://instagram.com" rel="nofollow">Instagram</a>
p586
sg92
(lp587
g3
(g94
g5
Ntp588
Rp589
(dp590
g98
Vhttp://t.co/DDPKBzmkFY
p591
sg100
Vhttp://instagram.com/p/wjb6TnKgBL/
p592
sbasg86
I543805359979511808
sbag3
(g4
g5
Ntp593
Rp594
(dp595
g9
I0
sg10
Nsg11
Nsg12
(lp596
sg14
I00
sg15
Nsg16
Nsg17
(lp597
sg19
Nsg20
Nsg21
Nsg22
VFri Dec 12 20:36:08 +0000 2014
p598
sg24
Nsg25
I00
sg26
Nsg27
Nsg28
Nsg29
Nsg30
I00
sg31
Nsg32
(lp599
sg34
Nsg35
V543504595608403969
p600
sg37
Nsg38
V\U0001f4e2Register First\U0001f449Purchase Any Package\U0001f449THEN YOUR SELECTIONS WILL BE TEXT TO THE CELL NUMBER THAT YOU\u2026 http://t.co/8c1PYtv9x5
p601
sg40
I00
sg41
Ven
p602
sg43
g3
(g44
g5
Ntp603
Rp604
(dp605
g10
VAtlantic City, New Jersey
p606
sg49
V333333
p607
sg51
Ven
p608
sg53
Nsg54
I24146
sg55
I1064
sg22
VWed Jun 25 20:55:45 +0000 2014
p609
sg57
I00
sg58
VSports Handicapper, Over 100 Years Combined Experience, Top 25 Capper, VIP 76.4 % Lifetime Follow us on Instagram sportsbetting101
p610
sg60
Vhttps://pbs.twimg.com/profile_images/481908190687145984/U1BYcQdT_normal.jpeg
p611
sg62
I1516
sg63
I219
sg64
Nsg65
Nsg66
I00
sg67
Vhttps://pbs.twimg.com/profile_banners/2641781176/1403733724
p612
sg69
I00
sg70
I01
sg71
V3B94D9
p613
sg73
I00
sg74
I00
sg75
Vhttp://abs.twimg.com/images/themes/theme14/bg.gif
p614
sg77
Vhugewinning
p615
sg79
I2
sg80
VSports Betting 101
p616
sg82
VDDEEF6
p617
sg84
Vhttp://t.co/tZR8ZVbp95
p618
sg86
I2641781176
sg87
V131516
p619
sbsg89
I0
sg90
V<a href="http://instagram.com" rel="nofollow">Instagram</a>
p620
sg92
(lp621
g3
(g94
g5
Ntp622
Rp623
(dp624
g98
Vhttp://t.co/8c1PYtv9x5
p625
sg100
Vhttp://instagram.com/p/whTIoGqgHd/
p626
sbasg86
I543504595608403969
sbag3
(g4
g5
Ntp627
Rp628
(dp629
g9
I0
sg10
Nsg11
Nsg12
(lp630
sg14
I00
sg15
Nsg16
Nsg17
(lp631
sg19
Nsg20
Nsg21
Nsg22
VFri Dec 12 20:33:01 +0000 2014
p632
sg24
Nsg25
I00
sg26
Nsg27
Nsg28
Nsg29
Nsg30
I00
sg31
Nsg32
(lp633
sg34
Nsg35
V543503813001637888
p634
sg37
Nsg38
V\U0001f4e2Register First\U0001f449Purchase Any Package\U0001f449THEN YOUR SELECTIONS WILL BE TEXT TO THE CELL NUMBER THAT YOU\u2026 http://t.co/uNYAkMidJU
p635
sg40
I00
sg41
Ven
p636
sg43
g3
(g44
g5
Ntp637
Rp638
(dp639
g10
VAtlantic City, New Jersey
p640
sg49
V333333
p641
sg51
Ven
p642
sg53
Nsg54
I24146
sg55
I1064
sg22
VWed Jun 25 20:55:45 +0000 2014
p643
sg57
I00
sg58
VSports Handicapper, Over 100 Years Combined Experience, Top 25 Capper, VIP 76.4 % Lifetime Follow us on Instagram sportsbetting101
p644
sg60
Vhttps://pbs.twimg.com/profile_images/481908190687145984/U1BYcQdT_normal.jpeg
p645
sg62
I1516
sg63
I219
sg64
Nsg65
Nsg66
I00
sg67
Vhttps://pbs.twimg.com/profile_banners/2641781176/1403733724
p646
sg69
I00
sg70
I01
sg71
V3B94D9
p647
sg73
I00
sg74
I00
sg75
Vhttp://abs.twimg.com/images/themes/theme14/bg.gif
p648
sg77
Vhugewinning
p649
sg79
I2
sg80
VSports Betting 101
p650
sg82
VDDEEF6
p651
sg84
Vhttp://t.co/tZR8ZVbp95
p652
sg86
I2641781176
sg87
V131516
p653
sbsg89
I0
sg90
V<a href="http://instagram.com" rel="nofollow">Instagram</a>
p654
sg92
(lp655
g3
(g94
g5
Ntp656
Rp657
(dp658
g98
Vhttp://t.co/uNYAkMidJU
p659
sg100
Vhttp://instagram.com/p/whSyJRKgG3/
p660
sbasg86
I543503813001637888
sbag3
(g4
g5
Ntp661
Rp662
(dp663
g9
I0
sg10
Nsg11
Nsg12
(lp664
sg14
I00
sg15
Nsg16
Nsg17
(lp665
sg19
Nsg20
Nsg21
Nsg22
VFri Dec 12 20:29:55 +0000 2014
p666
sg24
Nsg25
I00
sg26
Nsg27
Nsg28
Nsg29
Nsg30
I00
sg31
Nsg32
(lp667
sg34
Nsg35
V543503031569248257
p668
sg37
Nsg38
VJump on this game tonight if you need a WIN\u2705 Our selection is going to BLOW Vegas AWAY\U0001f4e2 \U0001f4e2Register\u2026 http://t.co/CAvNMNGkan
p669
sg40
I00
sg41
Ven
p670
sg43
g3
(g44
g5
Ntp671
Rp672
(dp673
g10
VAtlantic City, New Jersey
p674
sg49
V333333
p675
sg51
Ven
p676
sg53
Nsg54
I24146
sg55
I1064
sg22
VWed Jun 25 20:55:45 +0000 2014
p677
sg57
I00
sg58
VSports Handicapper, Over 100 Years Combined Experience, Top 25 Capper, VIP 76.4 % Lifetime Follow us on Instagram sportsbetting101
p678
sg60
Vhttps://pbs.twimg.com/profile_images/481908190687145984/U1BYcQdT_normal.jpeg
p679
sg62
I1516
sg63
I219
sg64
Nsg65
Nsg66
I00
sg67
Vhttps://pbs.twimg.com/profile_banners/2641781176/1403733724
p680
sg69
I00
sg70
I01
sg71
V3B94D9
p681
sg73
I00
sg74
I00
sg75
Vhttp://abs.twimg.com/images/themes/theme14/bg.gif
p682
sg77
Vhugewinning
p683
sg79
I2
sg80
VSports Betting 101
p684
sg82
VDDEEF6
p685
sg84
Vhttp://t.co/tZR8ZVbp95
p686
sg86
I2641781176
sg87
V131516
p687
sbsg89
I0
sg90
V<a href="http://instagram.com" rel="nofollow">Instagram</a>
p688
sg92
(lp689
g3
(g94
g5
Ntp690
Rp691
(dp692
g98
Vhttp://t.co/CAvNMNGkan
p693
sg100
Vhttp://instagram.com/p/whSbZsqgGE/
p694
sbasg86
I543503031569248257
sbag3
(g4
g5
Ntp695
Rp696
(dp697
g9
I0
sg10
Nsg11
Nsg12
(lp698
sg14
I00
sg15
Nsg16
Nsg17
(lp699
sg19
Nsg20
Nsg21
Nsg22
VFri Dec 12 20:03:20 +0000 2014
p700
sg24
Nsg25
I00
sg26
Nsg27
Nsg28
Nsg29
Nsg30
I00
sg31
Nsg32
(lp701
sg34
Nsg35
V543496343356837888
p702
sg37
Nsg38
V\U0001f4e2Register First\U0001f449Purchase Any Package\U0001f449THEN YOUR SELECTIONS WILL BE TEXT TO THE CELL NUMBER THAT YOU\u2026 http://t.co/00BpFUOsib
p703
sg40
I00
sg41
Ven
p704
sg43
g3
(g44
g5
Ntp705
Rp706
(dp707
g10
VAtlantic City, New Jersey
p708
sg49
V333333
p709
sg51
Ven
p710
sg53
Nsg54
I24146
sg55
I1064
sg22
VWed Jun 25 20:55:45 +0000 2014
p711
sg57
I00
sg58
VSports Handicapper, Over 100 Years Combined Experience, Top 25 Capper, VIP 76.4 % Lifetime Follow us on Instagram sportsbetting101
p712
sg60
Vhttps://pbs.twimg.com/profile_images/481908190687145984/U1BYcQdT_normal.jpeg
p713
sg62
I1516
sg63
I219
sg64
Nsg65
Nsg66
I00
sg67
Vhttps://pbs.twimg.com/profile_banners/2641781176/1403733724
p714
sg69
I00
sg70
I01
sg71
V3B94D9
p715
sg73
I00
sg74
I00
sg75
Vhttp://abs.twimg.com/images/themes/theme14/bg.gif
p716
sg77
Vhugewinning
p717
sg79
I2
sg80
VSports Betting 101
p718
sg82
VDDEEF6
p719
sg84
Vhttp://t.co/tZR8ZVbp95
p720
sg86
I2641781176
sg87
V131516
p721
sbsg89
I0
sg90
V<a href="http://instagram.com" rel="nofollow">Instagram</a>
p722
sg92
(lp723
g3
(g94
g5
Ntp724
Rp725
(dp726
g98
Vhttp://t.co/00BpFUOsib
p727
sg100
Vhttp://instagram.com/p/whPYs8KgA7/
p728
sbasg86
I543496343356837888
sbag3
(g4
g5
Ntp729
Rp730
(dp731
g9
I0
sg10
Nsg11
Nsg12
(lp732
sg14
I00
sg15
Nsg16
Nsg17
(lp733
(dp734
Vexpanded_url
p735
Vhttp://twitter.com/hugewinning/status/543430417886740480/photo/1
p736
sVdisplay_url
p737
Vpic.twitter.com/Ip0oPPX6i0
p738
sVurl
p739
Vhttp://t.co/Ip0oPPX6i0
p740
sVmedia_url_https
p741
Vhttps://pbs.twimg.com/media/B4qnCucCEAE1zjE.jpg
p742
sVid_str
p743
V543430370318749697
p744
sVsizes
p745
(dp746
Vsmall
p747
(dp748
Vh
p749
I456
sVresize
p750
Vfit
p751
sVw
p752
I340
ssVlarge
p753
(dp754
Vh
p755
I1024
sVresize
p756
Vfit
p757
sVw
p758
I763
ssVmedium
p759
(dp760
Vh
p761
I805
sVresize
p762
Vfit
p763
sVw
p764
I600
ssVthumb
p765
(dp766
Vh
p767
I150
sVresize
p768
Vcrop
p769
sVw
p770
I150
sssVindices
p771
(lp772
I118
aI140
asVtype
p773
Vphoto
p774
sVid
p775
I543430370318749697
sVmedia_url
p776
Vhttp://pbs.twimg.com/media/B4qnCucCEAE1zjE.jpg
p777
sasg19
Nsg20
Nsg21
Nsg22
VFri Dec 12 15:41:22 +0000 2014
p778
sg24
Nsg25
I00
sg26
Nsg27
Nsg28
Nsg29
Nsg30
I00
sg31
Nsg32
(lp779
sg34
Nsg35
V543430417886740480
p780
sg37
Nsg38
V\U0001f449http://t.co/hTckzyC0Yl\U0001f448 is running HUGE SPECIAL!\U0001f4b0 100% Signup \U0001f4b5100% \U0001f44fSAME DAY PAYOUTS!\U0001f4b8 MUST USE PROMO CODE \U0001f449"WIN7"\U0001f448 http://t.co/Ip0oPPX6i0
p781
sg40
I00
sg41
Ven
p782
sg43
g3
(g44
g5
Ntp783
Rp784
(dp785
g10
VAtlantic City, New Jersey
p786
sg49
V333333
p787
sg51
Ven
p788
sg53
Nsg54
I24146
sg55
I1064
sg22
VWed Jun 25 20:55:45 +0000 2014
p789
sg57
I00
sg58
VSports Handicapper, Over 100 Years Combined Experience, Top 25 Capper, VIP 76.4 % Lifetime Follow us on Instagram sportsbetting101
p790
sg60
Vhttps://pbs.twimg.com/profile_images/481908190687145984/U1BYcQdT_normal.jpeg
p791
sg62
I1516
sg63
I219
sg64
Nsg65
Nsg66
I00
sg67
Vhttps://pbs.twimg.com/profile_banners/2641781176/1403733724
p792
sg69
I00
sg70
I01
sg71
V3B94D9
p793
sg73
I00
sg74
I00
sg75
Vhttp://abs.twimg.com/images/themes/theme14/bg.gif
p794
sg77
Vhugewinning
p795
sg79
I2
sg80
VSports Betting 101
p796
sg82
VDDEEF6
p797
sg84
Vhttp://t.co/tZR8ZVbp95
p798
sg86
I2641781176
sg87
V131516
p799
sbsg89
I0
sg90
V<a href="http://twitter.com/download/iphone" rel="nofollow">Twitter for iPhone</a>
p800
sg92
(lp801
g3
(g94
g5
Ntp802
Rp803
(dp804
g98
Vhttp://t.co/hTckzyC0Yl
p805
sg100
Vhttp://www.betowi.com
p806
sbasg86
I543430417886740480
sbag3
(g4
g5
Ntp807
Rp808
(dp809
g9
I0
sg10
Nsg11
Nsg12
(lp810
g3
(g214
g5
Ntp811
Rp812
(dp813
g218
Vnfl
p814
sbag3
(g214
g5
Ntp815
Rp816
(dp817
g218
Vnba
p818
sbag3
(g214
g5
Ntp819
Rp820
(dp821
g218
Vnhl
p822
sbag3
(g214
g5
Ntp823
Rp824
(dp825
g218
Vncaa
p826
sbag3
(g214
g5
Ntp827
Rp828
(dp829
g218
Vwager
p830
sbag3
(g214
g5
Ntp831
Rp832
(dp833
g218
Vinvest
p834
sbag3
(g214
g5
Ntp835
Rp836
(dp837
g218
Vfree
p838
sbag3
(g214
g5
Ntp839
Rp840
(dp841
g218
Vmakingmoney
p842
sbag3
(g214
g5
Ntp843
Rp844
(dp845
g218
VRT
p846
sbasg14
I00
sg15
Nsg16
Nsg17
(lp847
sg19
Nsg20
Nsg21
Nsg22
VFri Dec 12 15:37:56 +0000 2014
p848
sg24
Nsg25
I00
sg26
Nsg27
Nsg28
Nsg29
Nsg30
I00
sg31
Nsg32
(lp849
sg34
Nsg35
V543429553356828672
p850
sg37
Nsg38
VNice Friday night matchup! BUY YOUR PACKAGE NOW! http://t.co/3FGT97jMm0 #nfl #nba #nhl #ncaa #wager #invest #free #makingmoney #RT
p851
sg40
I00
sg41
Ven
p852
sg43
g3
(g44
g5
Ntp853
Rp854
(dp855
g10
VAtlantic City, New Jersey
p856
sg49
V333333
p857
sg51
Ven
p858
sg53
Nsg54
I24146
sg55
I1064
sg22
VWed Jun 25 20:55:45 +0000 2014
p859
sg57
I00
sg58
VSports Handicapper, Over 100 Years Combined Experience, Top 25 Capper, VIP 76.4 % Lifetime Follow us on Instagram sportsbetting101
p860
sg60
Vhttps://pbs.twimg.com/profile_images/481908190687145984/U1BYcQdT_normal.jpeg
p861
sg62
I1516
sg63
I219
sg64
Nsg65
Nsg66
I00
sg67
Vhttps://pbs.twimg.com/profile_banners/2641781176/1403733724
p862
sg69
I00
sg70
I01
sg71
V3B94D9
p863
sg73
I00
sg74
I00
sg75
Vhttp://abs.twimg.com/images/themes/theme14/bg.gif
p864
sg77
Vhugewinning
p865
sg79
I2
sg80
VSports Betting 101
p866
sg82
VDDEEF6
p867
sg84
Vhttp://t.co/tZR8ZVbp95
p868
sg86
I2641781176
sg87
V131516
p869
sbsg89
I0
sg90
V<a href="http://twitter.com/download/iphone" rel="nofollow">Twitter for iPhone</a>
p870
sg92
(lp871
g3
(g94
g5
Ntp872
Rp873
(dp874
g98
Vhttp://t.co/3FGT97jMm0
p875
sg100
Vhttp://www.vegassportsbookpicks.com
p876
sbasg86
I543429553356828672
sbag3
(g4
g5
Ntp877
Rp878
(dp879
g9
I0
sg10
Nsg11
Nsg12
(lp880
sg14
I00
sg15
Nsg16
Nsg17
(lp881
sg19
Nsg20
Nsg21
Nsg22
VFri Dec 12 15:07:57 +0000 2014
p882
sg24
Nsg25
I00
sg26
Nsg27
Nsg28
Nsg29
Nsg30
I00
sg31
Nsg32
(lp883
sg34
Nsg35
V543422006608535553
p884
sg37
Nsg38
V\U0001f4e2Register First\U0001f449Purchase Any Package\U0001f449THEN YOUR SELECTIONS WILL BE TEXT TO THE CELL NUMBER THAT YOU\u2026 http://t.co/TExJYLnkiH
p885
sg40
I00
sg41
Ven
p886
sg43
g3
(g44
g5
Ntp887
Rp888
(dp889
g10
VAtlantic City, New Jersey
p890
sg49
V333333
p891
sg51
Ven
p892
sg53
Nsg54
I24146
sg55
I1064
sg22
VWed Jun 25 20:55:45 +0000 2014
p893
sg57
I00
sg58
VSports Handicapper, Over 100 Years Combined Experience, Top 25 Capper, VIP 76.4 % Lifetime Follow us on Instagram sportsbetting101
p894
sg60
Vhttps://pbs.twimg.com/profile_images/481908190687145984/U1BYcQdT_normal.jpeg
p895
sg62
I1516
sg63
I219
sg64
Nsg65
Nsg66
I00
sg67
Vhttps://pbs.twimg.com/profile_banners/2641781176/1403733724
p896
sg69
I00
sg70
I01
sg71
V3B94D9
p897
sg73
I00
sg74
I00
sg75
Vhttp://abs.twimg.com/images/themes/theme14/bg.gif
p898
sg77
Vhugewinning
p899
sg79
I2
sg80
VSports Betting 101
p900
sg82
VDDEEF6
p901
sg84
Vhttp://t.co/tZR8ZVbp95
p902
sg86
I2641781176
sg87
V131516
p903
sbsg89
I0
sg90
V<a href="http://instagram.com" rel="nofollow">Instagram</a>
p904
sg92
(lp905
g3
(g94
g5
Ntp906
Rp907
(dp908
g98
Vhttp://t.co/TExJYLnkiH
p909
sg100
Vhttp://instagram.com/p/wgtlQLKgKj/
p910
sbasg86
I543422006608535553
sbaa.