(lp0
S'Ecigofferz'
p1
a(lp2
ccopy_reg
_reconstructor
p3
(ctwitter.status
Status
p4
c__builtin__
object
p5
Ntp6
Rp7
(dp8
S'_favorite_count'
p9
I0
sS'_location'
p10
NsS'_withheld_scope'
p11
NsS'hashtags'
p12
(lp13
g3
(ctwitter.hashtag
Hashtag
p14
g5
Ntp15
Rp16
(dp17
S'text'
p18
VE
p19
sbag3
(g14
g5
Ntp20
Rp21
(dp22
g18
Vxmaspresents
p23
sbasS'_truncated'
p24
I00
sS'_retweeted_status'
p25
NsS'_withheld_copyright'
p26
NsS'media'
p27
(lp28
(dp29
Vexpanded_url
p30
Vhttp://twitter.com/Ecigofferz/status/544212793529221120/photo/1
p31
sVdisplay_url
p32
Vpic.twitter.com/SuaewRxpcP
p33
sVurl
p34
Vhttp://t.co/SuaewRxpcP
p35
sVmedia_url_https
p36
Vhttps://pbs.twimg.com/media/B41upvRIAAIWamF.jpg
p37
sVid_str
p38
V544212793323683842
p39
sVsizes
p40
(dp41
Vsmall
p42
(dp43
Vh
p44
I191
sVresize
p45
Vfit
p46
sVw
p47
I340
ssVlarge
p48
(dp49
Vh
p50
I450
sVresize
p51
Vfit
p52
sVw
p53
I800
ssVmedium
p54
(dp55
Vh
p56
I337
sVresize
p57
Vfit
p58
sVw
p59
I600
ssVthumb
p60
(dp61
Vh
p62
I150
sVresize
p63
Vcrop
p64
sVw
p65
I150
sssVindices
p66
(lp67
I61
aI83
asVtype
p68
Vphoto
p69
sVid
p70
I544212793323683842
sVmedia_url
p71
Vhttp://pbs.twimg.com/media/B41upvRIAAIWamF.jpg
p72
sasS'_place'
p73
NsS'_contributors'
p74
NsS'_current_user_retweet'
p75
NsS'_created_at'
p76
VSun Dec 14 19:30:15 +0000 2014
p77
sS'_scopes'
p78
NsS'_possibly_sensitive'
p79
I00
sS'_in_reply_to_screen_name'
p80
NsS'_coordinates'
p81
NsS'_in_reply_to_user_id'
p82
NsS'_geo'
p83
NsS'_favorited'
p84
I00
sS'_withheld_in_countries'
p85
NsS'user_mentions'
p86
(lp87
sS'_now'
p88
NsS'_id_str'
p89
NsS'_in_reply_to_status_id'
p90
NsS'_text'
p91
VLast Minute #E-CIG  #xmaspresents http://t.co/UgETZZKDCi  RT http://t.co/SuaewRxpcP
p92
sS'_retweeted'
p93
I00
sS'lang'
p94
Ven
p95
sS'_user'
p96
g3
(ctwitter.user
User
p97
g5
Ntp98
Rp99
(dp100
g10
V
p101
sS'_profile_text_color'
p102
V333333
p103
sS'_lang'
p104
Ven
p105
sS'_time_zone'
p106
VLondon
p107
sS'_followers_count'
p108
I2407
sS'_statuses_count'
p109
I2192
sg76
VThu Nov 13 08:51:55 +0000 2014
p110
sS'_verified'
p111
I00
sS'_description'
p112
V#Ecigs #vape #offers #onedirection #zaynmalik #harrystyles
p113
sS'_profile_image_url'
p114
Vhttps://pbs.twimg.com/profile_images/543363273631227904/DezF3iR8_normal.jpeg
p115
sS'_friends_count'
p116
I2639
sS'_favourites_count'
p117
I5550
sS'_utc_offset'
p118
I0
sS'_status'
p119
NsS'_protected'
p120
I00
sS'_profile_banner_url'
p121
Vhttps://pbs.twimg.com/profile_banners/2874805857/1418304844
p122
sS'_notifications'
p123
I00
sS'_profile_background_tile'
p124
I00
sS'_profile_link_color'
p125
V0084B4
p126
sS'_geo_enabled'
p127
I00
sS'_contributors_enabled'
p128
I00
sS'_profile_background_image_url'
p129
Vhttp://abs.twimg.com/images/themes/theme1/bg.png
p130
sS'_screen_name'
p131
VEcigofferz
p132
sS'_listed_count'
p133
I5
sS'_name'
p134
VE Cig Store
p135
sS'_profile_sidebar_fill_color'
p136
VDDEEF6
p137
sS'_url'
p138
Vhttp://t.co/b81Mg0NHJJ
p139
sS'_id'
p140
I2874805857
sS'_profile_background_color'
p141
VC0DEED
p142
sbsS'_retweet_count'
p143
I1
sS'_source'
p144
V<a href="http://bufferapp.com" rel="nofollow">Buffer</a>
p145
sS'urls'
p146
(lp147
g3
(ctwitter.url
Url
p148
g5
Ntp149
Rp150
(dp151
S'url'
p152
Vhttp://t.co/UgETZZKDCi
p153
sS'expanded_url'
p154
Vhttp://buff.ly/12Ok4eg
p155
sbasg140
I544212793529221120
sbag3
(g4
g5
Ntp156
Rp157
(dp158
g9
I0
sg10
Nsg11
Nsg12
(lp159
g3
(g14
g5
Ntp160
Rp161
(dp162
g18
VE
p163
sbag3
(g14
g5
Ntp164
Rp165
(dp166
g18
Vxmaspresents
p167
sbasg24
I00
sg25
Nsg26
Nsg27
(lp168
(dp169
Vexpanded_url
p170
Vhttp://twitter.com/Ecigofferz/status/544211744374403073/photo/1
p171
sVdisplay_url
p172
Vpic.twitter.com/b9ttfle9Uv
p173
sVurl
p174
Vhttp://t.co/b9ttfle9Uv
p175
sVmedia_url_https
p176
Vhttps://pbs.twimg.com/media/B41tsrJIcAExIOj.jpg
p177
sVid_str
p178
V544211744244396033
p179
sVsizes
p180
(dp181
Vsmall
p182
(dp183
Vh
p184
I191
sVresize
p185
Vfit
p186
sVw
p187
I340
ssVlarge
p188
(dp189
Vh
p190
I450
sVresize
p191
Vfit
p192
sVw
p193
I800
ssVmedium
p194
(dp195
Vh
p196
I337
sVresize
p197
Vfit
p198
sVw
p199
I600
ssVthumb
p200
(dp201
Vh
p202
I150
sVresize
p203
Vcrop
p204
sVw
p205
I150
sssVindices
p206
(lp207
I61
aI83
asVtype
p208
Vphoto
p209
sVid
p210
I544211744244396033
sVmedia_url
p211
Vhttp://pbs.twimg.com/media/B41tsrJIcAExIOj.jpg
p212
sasg73
Nsg74
Nsg75
Nsg76
VSun Dec 14 19:26:05 +0000 2014
p213
sg78
Nsg79
I00
sg80
Nsg81
Nsg82
Nsg83
Nsg84
I00
sg85
Nsg86
(lp214
sg88
Nsg89
Nsg90
Nsg91
VLast Minute #E-CIG  #xmaspresents http://t.co/tIFz2cBGBm  RT http://t.co/b9ttfle9Uv
p215
sg93
I00
sg94
Ven
p216
sg96
g3
(g97
g5
Ntp217
Rp218
(dp219
g10
g101
sg102
V333333
p220
sg104
Ven
p221
sg106
VLondon
p222
sg108
I2407
sg109
I2192
sg76
VThu Nov 13 08:51:55 +0000 2014
p223
sg111
I00
sg112
V#Ecigs #vape #offers #onedirection #zaynmalik #harrystyles
p224
sg114
Vhttps://pbs.twimg.com/profile_images/543363273631227904/DezF3iR8_normal.jpeg
p225
sg116
I2639
sg117
I5550
sg118
I0
sg119
Nsg120
I00
sg121
Vhttps://pbs.twimg.com/profile_banners/2874805857/1418304844
p226
sg123
I00
sg124
I00
sg125
V0084B4
p227
sg127
I00
sg128
I00
sg129
Vhttp://abs.twimg.com/images/themes/theme1/bg.png
p228
sg131
VEcigofferz
p229
sg133
I5
sg134
VE Cig Store
p230
sg136
VDDEEF6
p231
sg138
Vhttp://t.co/b81Mg0NHJJ
p232
sg140
I2874805857
sg141
VC0DEED
p233
sbsg143
I1
sg144
V<a href="http://bufferapp.com" rel="nofollow">Buffer</a>
p234
sg146
(lp235
g3
(g148
g5
Ntp236
Rp237
(dp238
g152
Vhttp://t.co/tIFz2cBGBm
p239
sg154
Vhttp://buff.ly/16m5VqD
p240
sbasg140
I544211744374403073
sbag3
(g4
g5
Ntp241
Rp242
(dp243
g9
I0
sg10
Nsg11
Nsg12
(lp244
g3
(g14
g5
Ntp245
Rp246
(dp247
g18
VE
p248
sbag3
(g14
g5
Ntp249
Rp250
(dp251
g18
Vxmaspresents
p252
sbasg24
I00
sg25
Nsg26
Nsg27
(lp253
(dp254
Vexpanded_url
p255
Vhttp://twitter.com/Ecigofferz/status/544209721037979648/photo/1
p256
sVdisplay_url
p257
Vpic.twitter.com/UhZMkiybmd
p258
sVurl
p259
Vhttp://t.co/UhZMkiybmd
p260
sVmedia_url_https
p261
Vhttps://pbs.twimg.com/media/B41r25vIIAANlHO.jpg
p262
sVid_str
p263
V544209720937291776
p264
sVsizes
p265
(dp266
Vsmall
p267
(dp268
Vh
p269
I191
sVresize
p270
Vfit
p271
sVw
p272
I340
ssVlarge
p273
(dp274
Vh
p275
I450
sVresize
p276
Vfit
p277
sVw
p278
I800
ssVmedium
p279
(dp280
Vh
p281
I337
sVresize
p282
Vfit
p283
sVw
p284
I600
ssVthumb
p285
(dp286
Vh
p287
I150
sVresize
p288
Vcrop
p289
sVw
p290
I150
sssVindices
p291
(lp292
I66
aI88
asVtype
p293
Vphoto
p294
sVid
p295
I544209720937291776
sVmedia_url
p296
Vhttp://pbs.twimg.com/media/B41r25vIIAANlHO.jpg
p297
sasg73
Nsg74
Nsg75
Nsg76
VSun Dec 14 19:18:03 +0000 2014
p298
sg78
Nsg79
I00
sg80
Nsg81
Nsg82
Nsg83
Nsg84
I00
sg85
Nsg86
(lp299
sg88
Nsg89
Nsg90
Nsg91
VLast Minute #E-CIG  #xmaspresents http://t.co/hMI3vcgUGz  Retweet http://t.co/UhZMkiybmd
p300
sg93
I00
sg94
Ven
p301
sg96
g3
(g97
g5
Ntp302
Rp303
(dp304
g10
g101
sg102
V333333
p305
sg104
Ven
p306
sg106
VLondon
p307
sg108
I2407
sg109
I2192
sg76
VThu Nov 13 08:51:55 +0000 2014
p308
sg111
I00
sg112
V#Ecigs #vape #offers #onedirection #zaynmalik #harrystyles
p309
sg114
Vhttps://pbs.twimg.com/profile_images/543363273631227904/DezF3iR8_normal.jpeg
p310
sg116
I2639
sg117
I5550
sg118
I0
sg119
Nsg120
I00
sg121
Vhttps://pbs.twimg.com/profile_banners/2874805857/1418304844
p311
sg123
I00
sg124
I00
sg125
V0084B4
p312
sg127
I00
sg128
I00
sg129
Vhttp://abs.twimg.com/images/themes/theme1/bg.png
p313
sg131
VEcigofferz
p314
sg133
I5
sg134
VE Cig Store
p315
sg136
VDDEEF6
p316
sg138
Vhttp://t.co/b81Mg0NHJJ
p317
sg140
I2874805857
sg141
VC0DEED
p318
sbsg143
I1
sg144
V<a href="http://bufferapp.com" rel="nofollow">Buffer</a>
p319
sg146
(lp320
g3
(g148
g5
Ntp321
Rp322
(dp323
g152
Vhttp://t.co/hMI3vcgUGz
p324
sg154
Vhttp://buff.ly/1DwS2oi
p325
sbasg140
I544209721037979648
sbag3
(g4
g5
Ntp326
Rp327
(dp328
g9
I0
sg10
Nsg11
Nsg12
(lp329
g3
(g14
g5
Ntp330
Rp331
(dp332
g18
VE
p333
sbag3
(g14
g5
Ntp334
Rp335
(dp336
g18
Vxmaspresents
p337
sbasg24
I00
sg25
Nsg26
Nsg27
(lp338
(dp339
Vexpanded_url
p340
Vhttp://twitter.com/Ecigofferz/status/544208263479586816/photo/1
p341
sVdisplay_url
p342
Vpic.twitter.com/rZT5Y2pGoh
p343
sVurl
p344
Vhttp://t.co/rZT5Y2pGoh
p345
sVmedia_url_https
p346
Vhttps://pbs.twimg.com/media/B41qiDzIIAEmWTo.jpg
p347
sVid_str
p348
V544208263349542913
p349
sVsizes
p350
(dp351
Vsmall
p352
(dp353
Vh
p354
I191
sVresize
p355
Vfit
p356
sVw
p357
I340
ssVlarge
p358
(dp359
Vh
p360
I450
sVresize
p361
Vfit
p362
sVw
p363
I800
ssVmedium
p364
(dp365
Vh
p366
I337
sVresize
p367
Vfit
p368
sVw
p369
I600
ssVthumb
p370
(dp371
Vh
p372
I150
sVresize
p373
Vcrop
p374
sVw
p375
I150
sssVindices
p376
(lp377
I61
aI83
asVtype
p378
Vphoto
p379
sVid
p380
I544208263349542913
sVmedia_url
p381
Vhttp://pbs.twimg.com/media/B41qiDzIIAEmWTo.jpg
p382
sasg73
Nsg74
Nsg75
Nsg76
VSun Dec 14 19:12:15 +0000 2014
p383
sg78
Nsg79
I00
sg80
Nsg81
Nsg82
Nsg83
Nsg84
I00
sg85
Nsg86
(lp384
sg88
Nsg89
Nsg90
Nsg91
VLast Minute #E-CIG  #xmaspresents http://t.co/HFBWOGsxWl  RT http://t.co/rZT5Y2pGoh
p385
sg93
I00
sg94
Ven
p386
sg96
g3
(g97
g5
Ntp387
Rp388
(dp389
g10
g101
sg102
V333333
p390
sg104
Ven
p391
sg106
VLondon
p392
sg108
I2407
sg109
I2192
sg76
VThu Nov 13 08:51:55 +0000 2014
p393
sg111
I00
sg112
V#Ecigs #vape #offers #onedirection #zaynmalik #harrystyles
p394
sg114
Vhttps://pbs.twimg.com/profile_images/543363273631227904/DezF3iR8_normal.jpeg
p395
sg116
I2639
sg117
I5550
sg118
I0
sg119
Nsg120
I00
sg121
Vhttps://pbs.twimg.com/profile_banners/2874805857/1418304844
p396
sg123
I00
sg124
I00
sg125
V0084B4
p397
sg127
I00
sg128
I00
sg129
Vhttp://abs.twimg.com/images/themes/theme1/bg.png
p398
sg131
VEcigofferz
p399
sg133
I5
sg134
VE Cig Store
p400
sg136
VDDEEF6
p401
sg138
Vhttp://t.co/b81Mg0NHJJ
p402
sg140
I2874805857
sg141
VC0DEED
p403
sbsg143
I0
sg144
V<a href="http://bufferapp.com" rel="nofollow">Buffer</a>
p404
sg146
(lp405
g3
(g148
g5
Ntp406
Rp407
(dp408
g152
Vhttp://t.co/HFBWOGsxWl
p409
sg154
Vhttp://buff.ly/16m5TiH
p410
sbasg140
I544208263479586816
sbag3
(g4
g5
Ntp411
Rp412
(dp413
g9
I0
sg10
Nsg11
Nsg12
(lp414
g3
(g14
g5
Ntp415
Rp416
(dp417
g18
VE
p418
sbag3
(g14
g5
Ntp419
Rp420
(dp421
g18
Vxmaspresents
p422
sbasg24
I00
sg25
Nsg26
Nsg27
(lp423
(dp424
Vexpanded_url
p425
Vhttp://twitter.com/Ecigofferz/status/544205265273651201/photo/1
p426
sVdisplay_url
p427
Vpic.twitter.com/WU7bRexGMU
p428
sVurl
p429
Vhttp://t.co/WU7bRexGMU
p430
sVmedia_url_https
p431
Vhttps://pbs.twimg.com/media/B41nzioIEAEpupJ.jpg
p432
sVid_str
p433
V544205265147793409
p434
sVsizes
p435
(dp436
Vsmall
p437
(dp438
Vh
p439
I191
sVresize
p440
Vfit
p441
sVw
p442
I340
ssVlarge
p443
(dp444
Vh
p445
I450
sVresize
p446
Vfit
p447
sVw
p448
I800
ssVmedium
p449
(dp450
Vh
p451
I337
sVresize
p452
Vfit
p453
sVw
p454
I600
ssVthumb
p455
(dp456
Vh
p457
I150
sVresize
p458
Vcrop
p459
sVw
p460
I150
sssVindices
p461
(lp462
I64
aI86
asVtype
p463
Vphoto
p464
sVid
p465
I544205265147793409
sVmedia_url
p466
Vhttp://pbs.twimg.com/media/B41nzioIEAEpupJ.jpg
p467
sasg73
Nsg74
Nsg75
Nsg76
VSun Dec 14 19:00:20 +0000 2014
p468
sg78
Nsg79
I00
sg80
Nsg81
Nsg82
Nsg83
Nsg84
I00
sg85
Nsg86
(lp469
sg88
Nsg89
Nsg90
Nsg91
VLast Minute #E-CIG  #xmaspresents http://t.co/3nSAQ5pmto  RT !! http://t.co/WU7bRexGMU
p470
sg93
I00
sg94
Ven
p471
sg96
g3
(g97
g5
Ntp472
Rp473
(dp474
g10
g101
sg102
V333333
p475
sg104
Ven
p476
sg106
VLondon
p477
sg108
I2407
sg109
I2192
sg76
VThu Nov 13 08:51:55 +0000 2014
p478
sg111
I00
sg112
V#Ecigs #vape #offers #onedirection #zaynmalik #harrystyles
p479
sg114
Vhttps://pbs.twimg.com/profile_images/543363273631227904/DezF3iR8_normal.jpeg
p480
sg116
I2639
sg117
I5550
sg118
I0
sg119
Nsg120
I00
sg121
Vhttps://pbs.twimg.com/profile_banners/2874805857/1418304844
p481
sg123
I00
sg124
I00
sg125
V0084B4
p482
sg127
I00
sg128
I00
sg129
Vhttp://abs.twimg.com/images/themes/theme1/bg.png
p483
sg131
VEcigofferz
p484
sg133
I5
sg134
VE Cig Store
p485
sg136
VDDEEF6
p486
sg138
Vhttp://t.co/b81Mg0NHJJ
p487
sg140
I2874805857
sg141
VC0DEED
p488
sbsg143
I0
sg144
V<a href="http://bufferapp.com" rel="nofollow">Buffer</a>
p489
sg146
(lp490
g3
(g148
g5
Ntp491
Rp492
(dp493
g152
Vhttp://t.co/3nSAQ5pmto
p494
sg154
Vhttp://buff.ly/1A8Xyb4
p495
sbasg140
I544205265273651201
sbag3
(g4
g5
Ntp496
Rp497
(dp498
g9
I0
sg10
Nsg11
Nsg12
(lp499
g3
(g14
g5
Ntp500
Rp501
(dp502
g18
VE
p503
sbag3
(g14
g5
Ntp504
Rp505
(dp506
g18
Vxmaspresents
p507
sbasg24
I00
sg25
Nsg26
Nsg27
(lp508
(dp509
Vexpanded_url
p510
Vhttp://twitter.com/Ecigofferz/status/544198930360463360/photo/1
p511
sVdisplay_url
p512
Vpic.twitter.com/I9u7uFk6mW
p513
sVurl
p514
Vhttp://t.co/I9u7uFk6mW
p515
sVmedia_url_https
p516
Vhttps://pbs.twimg.com/media/B41iCzHIIAAHPhx.jpg
p517
sVid_str
p518
V544198930201059328
p519
sVsizes
p520
(dp521
Vsmall
p522
(dp523
Vh
p524
I191
sVresize
p525
Vfit
p526
sVw
p527
I340
ssVlarge
p528
(dp529
Vh
p530
I450
sVresize
p531
Vfit
p532
sVw
p533
I800
ssVmedium
p534
(dp535
Vh
p536
I337
sVresize
p537
Vfit
p538
sVw
p539
I600
ssVthumb
p540
(dp541
Vh
p542
I150
sVresize
p543
Vcrop
p544
sVw
p545
I150
sssVindices
p546
(lp547
I61
aI83
asVtype
p548
Vphoto
p549
sVid
p550
I544198930201059328
sVmedia_url
p551
Vhttp://pbs.twimg.com/media/B41iCzHIIAAHPhx.jpg
p552
sasg73
Nsg74
Nsg75
Nsg76
VSun Dec 14 18:35:10 +0000 2014
p553
sg78
Nsg79
I00
sg80
Nsg81
Nsg82
Nsg83
Nsg84
I00
sg85
Nsg86
(lp554
sg88
Nsg89
Nsg90
Nsg91
VLast Minute #E-CIG  #xmaspresents http://t.co/UKG35Yf104  RT http://t.co/I9u7uFk6mW
p555
sg93
I00
sg94
Ven
p556
sg96
g3
(g97
g5
Ntp557
Rp558
(dp559
g10
g101
sg102
V333333
p560
sg104
Ven
p561
sg106
VLondon
p562
sg108
I2407
sg109
I2192
sg76
VThu Nov 13 08:51:55 +0000 2014
p563
sg111
I00
sg112
V#Ecigs #vape #offers #onedirection #zaynmalik #harrystyles
p564
sg114
Vhttps://pbs.twimg.com/profile_images/543363273631227904/DezF3iR8_normal.jpeg
p565
sg116
I2639
sg117
I5550
sg118
I0
sg119
Nsg120
I00
sg121
Vhttps://pbs.twimg.com/profile_banners/2874805857/1418304844
p566
sg123
I00
sg124
I00
sg125
V0084B4
p567
sg127
I00
sg128
I00
sg129
Vhttp://abs.twimg.com/images/themes/theme1/bg.png
p568
sg131
VEcigofferz
p569
sg133
I5
sg134
VE Cig Store
p570
sg136
VDDEEF6
p571
sg138
Vhttp://t.co/b81Mg0NHJJ
p572
sg140
I2874805857
sg141
VC0DEED
p573
sbsg143
I1
sg144
V<a href="http://bufferapp.com" rel="nofollow">Buffer</a>
p574
sg146
(lp575
g3
(g148
g5
Ntp576
Rp577
(dp578
g152
Vhttp://t.co/UKG35Yf104
p579
sg154
Vhttp://buff.ly/1yQB1SV
p580
sbasg140
I544198930360463360
sbag3
(g4
g5
Ntp581
Rp582
(dp583
g9
I0
sg10
Nsg11
Nsg12
(lp584
g3
(g14
g5
Ntp585
Rp586
(dp587
g18
VE
p588
sbag3
(g14
g5
Ntp589
Rp590
(dp591
g18
Vxmaspresents
p592
sbasg24
I00
sg25
Nsg26
Nsg27
(lp593
(dp594
Vexpanded_url
p595
Vhttp://twitter.com/Ecigofferz/status/544196122307473408/photo/1
p596
sVdisplay_url
p597
Vpic.twitter.com/4EoM1DUp1d
p598
sVurl
p599
Vhttp://t.co/4EoM1DUp1d
p600
sVmedia_url_https
p601
Vhttps://pbs.twimg.com/media/B41ffWaIgAAkHih.jpg
p602
sVid_str
p603
V544196122177470464
p604
sVsizes
p605
(dp606
Vsmall
p607
(dp608
Vh
p609
I191
sVresize
p610
Vfit
p611
sVw
p612
I340
ssVlarge
p613
(dp614
Vh
p615
I450
sVresize
p616
Vfit
p617
sVw
p618
I800
ssVmedium
p619
(dp620
Vh
p621
I337
sVresize
p622
Vfit
p623
sVw
p624
I600
ssVthumb
p625
(dp626
Vh
p627
I150
sVresize
p628
Vcrop
p629
sVw
p630
I150
sssVindices
p631
(lp632
I73
aI95
asVtype
p633
Vphoto
p634
sVid
p635
I544196122177470464
sVmedia_url
p636
Vhttp://pbs.twimg.com/media/B41ffWaIgAAkHih.jpg
p637
sasg73
Nsg74
Nsg75
Nsg76
VSun Dec 14 18:24:00 +0000 2014
p638
sg78
Nsg79
I00
sg80
Nsg81
Nsg82
Nsg83
Nsg84
I00
sg85
Nsg86
(lp639
g3
(g97
g5
Ntp640
Rp641
(dp642
g10
Nsg102
Nsg104
Nsg106
Nsg108
Nsg109
Nsg76
Nsg111
Nsg112
Nsg114
Nsg116
Nsg117
Nsg118
Nsg119
Nsg120
Nsg121
Nsg123
Nsg124
Nsg125
Nsg127
Nsg128
Nsg129
Nsg131
Vzaynemalik
p643
sg133
Nsg134
Vsabeka sabha
p644
sg136
Nsg138
Nsg140
I211599233
sg141
Nsbasg88
Nsg89
Nsg90
Nsg91
VLast Minute #E-CIG  #xmaspresents http://t.co/BkhfycPAxS  RT @zaynemalik http://t.co/4EoM1DUp1d
p645
sg93
I00
sg94
Ven
p646
sg96
g3
(g97
g5
Ntp647
Rp648
(dp649
g10
g101
sg102
V333333
p650
sg104
Ven
p651
sg106
VLondon
p652
sg108
I2407
sg109
I2192
sg76
VThu Nov 13 08:51:55 +0000 2014
p653
sg111
I00
sg112
V#Ecigs #vape #offers #onedirection #zaynmalik #harrystyles
p654
sg114
Vhttps://pbs.twimg.com/profile_images/543363273631227904/DezF3iR8_normal.jpeg
p655
sg116
I2639
sg117
I5550
sg118
I0
sg119
Nsg120
I00
sg121
Vhttps://pbs.twimg.com/profile_banners/2874805857/1418304844
p656
sg123
I00
sg124
I00
sg125
V0084B4
p657
sg127
I00
sg128
I00
sg129
Vhttp://abs.twimg.com/images/themes/theme1/bg.png
p658
sg131
VEcigofferz
p659
sg133
I5
sg134
VE Cig Store
p660
sg136
VDDEEF6
p661
sg138
Vhttp://t.co/b81Mg0NHJJ
p662
sg140
I2874805857
sg141
VC0DEED
p663
sbsg143
I1
sg144
V<a href="http://bufferapp.com" rel="nofollow">Buffer</a>
p664
sg146
(lp665
g3
(g148
g5
Ntp666
Rp667
(dp668
g152
Vhttp://t.co/BkhfycPAxS
p669
sg154
Vhttp://buff.ly/1yQAIYt
p670
sbasg140
I544196122307473408
sbag3
(g4
g5
Ntp671
Rp672
(dp673
g9
I0
sg10
Nsg11
Nsg12
(lp674
g3
(g14
g5
Ntp675
Rp676
(dp677
g18
VE
p678
sbag3
(g14
g5
Ntp679
Rp680
(dp681
g18
Vxmaspresents
p682
sbasg24
I00
sg25
Nsg26
Nsg27
(lp683
sg73
Nsg74
Nsg75
Nsg76
VSun Dec 14 18:12:14 +0000 2014
p684
sg78
Nsg79
I00
sg80
VEcigofferz
p685
sg81
Nsg82
I2874805857
sg83
Nsg84
I00
sg85
Nsg86
(lp686
g3
(g97
g5
Ntp687
Rp688
(dp689
g10
Nsg102
Nsg104
Nsg106
Nsg108
Nsg109
Nsg76
Nsg111
Nsg112
Nsg114
Nsg116
Nsg117
Nsg118
Nsg119
Nsg120
Nsg121
Nsg123
Nsg124
Nsg125
Nsg127
Nsg128
Nsg129
Nsg131
VEcigofferz
p690
sg133
Nsg134
VE Cig Store
p691
sg136
Nsg138
Nsg140
I2874805857
sg141
Nsbag3
(g97
g5
Ntp692
Rp693
(dp694
g10
Nsg102
Nsg104
Nsg106
Nsg108
Nsg109
Nsg76
Nsg111
Nsg112
Nsg114
Nsg116
Nsg117
Nsg118
Nsg119
Nsg120
Nsg121
Nsg123
Nsg124
Nsg125
Nsg127
Nsg128
Nsg129
Nsg131
Vzaynemalik
p695
sg133
Nsg134
Vsabeka sabha
p696
sg136
Nsg138
Nsg140
I211599233
sg141
Nsbag3
(g97
g5
Ntp697
Rp698
(dp699
g10
Nsg102
Nsg104
Nsg106
Nsg108
Nsg109
Nsg76
Nsg111
Nsg112
Nsg114
Nsg116
Nsg117
Nsg118
Nsg119
Nsg120
Nsg121
Nsg123
Nsg124
Nsg125
Nsg127
Nsg128
Nsg129
Nsg131
Vonedirection
p700
sg133
Nsg134
VOne Direction
p701
sg136
Nsg138
Nsg140
I209708391
sg141
Nsbasg88
Nsg89
Nsg90
Nsg91
V@Ecigofferz: Last Minute #E-CIG  #xmaspresents http://t.co/C0otNanvBi  RT @zaynemalik @onedirection
p702
sg93
I00
sg94
Ven
p703
sg96
g3
(g97
g5
Ntp704
Rp705
(dp706
g10
g101
sg102
V333333
p707
sg104
Ven
p708
sg106
VLondon
p709
sg108
I2407
sg109
I2192
sg76
VThu Nov 13 08:51:55 +0000 2014
p710
sg111
I00
sg112
V#Ecigs #vape #offers #onedirection #zaynmalik #harrystyles
p711
sg114
Vhttps://pbs.twimg.com/profile_images/543363273631227904/DezF3iR8_normal.jpeg
p712
sg116
I2639
sg117
I5550
sg118
I0
sg119
Nsg120
I00
sg121
Vhttps://pbs.twimg.com/profile_banners/2874805857/1418304844
p713
sg123
I00
sg124
I00
sg125
V0084B4
p714
sg127
I00
sg128
I00
sg129
Vhttp://abs.twimg.com/images/themes/theme1/bg.png
p715
sg131
VEcigofferz
p716
sg133
I5
sg134
VE Cig Store
p717
sg136
VDDEEF6
p718
sg138
Vhttp://t.co/b81Mg0NHJJ
p719
sg140
I2874805857
sg141
VC0DEED
p720
sbsg143
I0
sg144
V<a href="http://bufferapp.com" rel="nofollow">Buffer</a>
p721
sg146
(lp722
g3
(g148
g5
Ntp723
Rp724
(dp725
g152
Vhttp://t.co/C0otNanvBi
p726
sg154
Vhttp://buff.ly/1srapGz
p727
sbasg140
I544193159488872448
sbag3
(g4
g5
Ntp728
Rp729
(dp730
g9
I0
sg10
Nsg11
Nsg12
(lp731
g3
(g14
g5
Ntp732
Rp733
(dp734
g18
VE
p735
sbag3
(g14
g5
Ntp736
Rp737
(dp738
g18
Vxmaspresents
p739
sbasg24
I00
sg25
Nsg26
Nsg27
(lp740
sg73
Nsg74
Nsg75
Nsg76
VSun Dec 14 18:03:04 +0000 2014
p741
sg78
Nsg79
I00
sg80
VEcigofferz
p742
sg81
Nsg82
I2874805857
sg83
Nsg84
I00
sg85
Nsg86
(lp743
g3
(g97
g5
Ntp744
Rp745
(dp746
g10
Nsg102
Nsg104
Nsg106
Nsg108
Nsg109
Nsg76
Nsg111
Nsg112
Nsg114
Nsg116
Nsg117
Nsg118
Nsg119
Nsg120
Nsg121
Nsg123
Nsg124
Nsg125
Nsg127
Nsg128
Nsg129
Nsg131
VEcigofferz
p747
sg133
Nsg134
VE Cig Store
p748
sg136
Nsg138
Nsg140
I2874805857
sg141
Nsbag3
(g97
g5
Ntp749
Rp750
(dp751
g10
Nsg102
Nsg104
Nsg106
Nsg108
Nsg109
Nsg76
Nsg111
Nsg112
Nsg114
Nsg116
Nsg117
Nsg118
Nsg119
Nsg120
Nsg121
Nsg123
Nsg124
Nsg125
Nsg127
Nsg128
Nsg129
Nsg131
Vzaynemalik
p752
sg133
Nsg134
Vsabeka sabha
p753
sg136
Nsg138
Nsg140
I211599233
sg141
Nsbasg88
Nsg89
Nsg90
Nsg91
V@Ecigofferz: Last Minute #E-CIG  #xmaspresents http://t.co/STSAMahgqU  RT @zaynemalik
p754
sg93
I00
sg94
Ven
p755
sg96
g3
(g97
g5
Ntp756
Rp757
(dp758
g10
g101
sg102
V333333
p759
sg104
Ven
p760
sg106
VLondon
p761
sg108
I2407
sg109
I2192
sg76
VThu Nov 13 08:51:55 +0000 2014
p762
sg111
I00
sg112
V#Ecigs #vape #offers #onedirection #zaynmalik #harrystyles
p763
sg114
Vhttps://pbs.twimg.com/profile_images/543363273631227904/DezF3iR8_normal.jpeg
p764
sg116
I2639
sg117
I5550
sg118
I0
sg119
Nsg120
I00
sg121
Vhttps://pbs.twimg.com/profile_banners/2874805857/1418304844
p765
sg123
I00
sg124
I00
sg125
V0084B4
p766
sg127
I00
sg128
I00
sg129
Vhttp://abs.twimg.com/images/themes/theme1/bg.png
p767
sg131
VEcigofferz
p768
sg133
I5
sg134
VE Cig Store
p769
sg136
VDDEEF6
p770
sg138
Vhttp://t.co/b81Mg0NHJJ
p771
sg140
I2874805857
sg141
VC0DEED
p772
sbsg143
I0
sg144
V<a href="http://bufferapp.com" rel="nofollow">Buffer</a>
p773
sg146
(lp774
g3
(g148
g5
Ntp775
Rp776
(dp777
g152
Vhttp://t.co/STSAMahgqU
p778
sg154
Vhttp://buff.ly/1A8WOCD
p779
sbasg140
I544190853636706304
sbag3
(g4
g5
Ntp780
Rp781
(dp782
g9
I0
sg10
Nsg11
Nsg12
(lp783
g3
(g14
g5
Ntp784
Rp785
(dp786
g18
VE
p787
sbag3
(g14
g5
Ntp788
Rp789
(dp790
g18
Vxmaspresents
p791
sbasg24
I00
sg25
Nsg26
Nsg27
(lp792
(dp793
Vexpanded_url
p794
Vhttp://twitter.com/Ecigofferz/status/544177236656799744/photo/1
p795
sVdisplay_url
p796
Vpic.twitter.com/Xd2WCuQXdu
p797
sVurl
p798
Vhttp://t.co/Xd2WCuQXdu
p799
sVmedia_url_https
p800
Vhttps://pbs.twimg.com/media/B41OTupIcAADJ4f.jpg
p801
sVid_str
p802
V544177230826729472
p803
sVsizes
p804
(dp805
Vsmall
p806
(dp807
Vh
p808
I191
sVresize
p809
Vfit
p810
sVw
p811
I340
ssVlarge
p812
(dp813
Vh
p814
I576
sVresize
p815
Vfit
p816
sVw
p817
I1024
ssVmedium
p818
(dp819
Vh
p820
I337
sVresize
p821
Vfit
p822
sVw
p823
I600
ssVthumb
p824
(dp825
Vh
p826
I150
sVresize
p827
Vcrop
p828
sVw
p829
I150
sssVindices
p830
(lp831
I73
aI95
asVtype
p832
Vphoto
p833
sVid
p834
I544177230826729472
sVmedia_url
p835
Vhttp://pbs.twimg.com/media/B41OTupIcAADJ4f.jpg
p836
sasg73
Nsg74
Nsg75
Nsg76
VSun Dec 14 17:08:58 +0000 2014
p837
sg78
Nsg79
I00
sg80
VEcigofferz
p838
sg81
Nsg82
I2874805857
sg83
Nsg84
I00
sg85
Nsg86
(lp839
g3
(g97
g5
Ntp840
Rp841
(dp842
g10
Nsg102
Nsg104
Nsg106
Nsg108
Nsg109
Nsg76
Nsg111
Nsg112
Nsg114
Nsg116
Nsg117
Nsg118
Nsg119
Nsg120
Nsg121
Nsg123
Nsg124
Nsg125
Nsg127
Nsg128
Nsg129
Nsg131
Vzaynemalik
p843
sg133
Nsg134
Vsabeka sabha
p844
sg136
Nsg138
Nsg140
I211599233
sg141
Nsbasg88
Nsg89
Nsg90
I544165445893632000
sg91
VLast Minute #E-CIG  #xmaspresents http://t.co/n3gArZDr9x  RT @zaynemalik http://t.co/Xd2WCuQXdu
p845
sg93
I00
sg94
Ven
p846
sg96
g3
(g97
g5
Ntp847
Rp848
(dp849
g10
g101
sg102
V333333
p850
sg104
Ven
p851
sg106
VLondon
p852
sg108
I2407
sg109
I2192
sg76
VThu Nov 13 08:51:55 +0000 2014
p853
sg111
I00
sg112
V#Ecigs #vape #offers #onedirection #zaynmalik #harrystyles
p854
sg114
Vhttps://pbs.twimg.com/profile_images/543363273631227904/DezF3iR8_normal.jpeg
p855
sg116
I2639
sg117
I5550
sg118
I0
sg119
Nsg120
I00
sg121
Vhttps://pbs.twimg.com/profile_banners/2874805857/1418304844
p856
sg123
I00
sg124
I00
sg125
V0084B4
p857
sg127
I00
sg128
I00
sg129
Vhttp://abs.twimg.com/images/themes/theme1/bg.png
p858
sg131
VEcigofferz
p859
sg133
I5
sg134
VE Cig Store
p860
sg136
VDDEEF6
p861
sg138
Vhttp://t.co/b81Mg0NHJJ
p862
sg140
I2874805857
sg141
VC0DEED
p863
sbsg143
I1
sg144
V<a href="http://twitter.com/download/iphone" rel="nofollow">Twitter for iPhone</a>
p864
sg146
(lp865
g3
(g148
g5
Ntp866
Rp867
(dp868
g152
Vhttp://t.co/n3gArZDr9x
p869
sg154
Vhttp://buff.ly/1DvUETk
p870
sbasg140
I544177236656799744
sbag3
(g4
g5
Ntp871
Rp872
(dp873
g9
I0
sg10
Nsg11
Nsg12
(lp874
g3
(g14
g5
Ntp875
Rp876
(dp877
g18
VE
p878
sbag3
(g14
g5
Ntp879
Rp880
(dp881
g18
Vxmaspresents
p882
sbasg24
I00
sg25
Nsg26
Nsg27
(lp883
(dp884
Vexpanded_url
p885
Vhttp://twitter.com/Ecigofferz/status/544165445893632000/photo/1
p886
sVdisplay_url
p887
Vpic.twitter.com/sHXjWCCJHn
p888
sVurl
p889
Vhttp://t.co/sHXjWCCJHn
p890
sVmedia_url_https
p891
Vhttps://pbs.twimg.com/media/B41DlwAIgAAoVlM.jpg
p892
sVid_str
p893
V544165445801377792
p894
sVsizes
p895
(dp896
Vsmall
p897
(dp898
Vh
p899
I191
sVresize
p900
Vfit
p901
sVw
p902
I340
ssVlarge
p903
(dp904
Vh
p905
I450
sVresize
p906
Vfit
p907
sVw
p908
I800
ssVmedium
p909
(dp910
Vh
p911
I337
sVresize
p912
Vfit
p913
sVw
p914
I600
ssVthumb
p915
(dp916
Vh
p917
I150
sVresize
p918
Vcrop
p919
sVw
p920
I150
sssVindices
p921
(lp922
I73
aI95
asVtype
p923
Vphoto
p924
sVid
p925
I544165445801377792
sVmedia_url
p926
Vhttp://pbs.twimg.com/media/B41DlwAIgAAoVlM.jpg
p927
sasg73
Nsg74
Nsg75
Nsg76
VSun Dec 14 16:22:07 +0000 2014
p928
sg78
Nsg79
I00
sg80
Nsg81
Nsg82
Nsg83
Nsg84
I00
sg85
Nsg86
(lp929
g3
(g97
g5
Ntp930
Rp931
(dp932
g10
Nsg102
Nsg104
Nsg106
Nsg108
Nsg109
Nsg76
Nsg111
Nsg112
Nsg114
Nsg116
Nsg117
Nsg118
Nsg119
Nsg120
Nsg121
Nsg123
Nsg124
Nsg125
Nsg127
Nsg128
Nsg129
Nsg131
Vzaynemalik
p933
sg133
Nsg134
Vsabeka sabha
p934
sg136
Nsg138
Nsg140
I211599233
sg141
Nsbasg88
Nsg89
Nsg90
Nsg91
VLast Minute #E-CIG  #xmaspresents http://t.co/n3gArZDr9x  RT @zaynemalik http://t.co/sHXjWCCJHn
p935
sg93
I00
sg94
Ven
p936
sg96
g3
(g97
g5
Ntp937
Rp938
(dp939
g10
g101
sg102
V333333
p940
sg104
Ven
p941
sg106
VLondon
p942
sg108
I2407
sg109
I2192
sg76
VThu Nov 13 08:51:55 +0000 2014
p943
sg111
I00
sg112
V#Ecigs #vape #offers #onedirection #zaynmalik #harrystyles
p944
sg114
Vhttps://pbs.twimg.com/profile_images/543363273631227904/DezF3iR8_normal.jpeg
p945
sg116
I2639
sg117
I5550
sg118
I0
sg119
Nsg120
I00
sg121
Vhttps://pbs.twimg.com/profile_banners/2874805857/1418304844
p946
sg123
I00
sg124
I00
sg125
V0084B4
p947
sg127
I00
sg128
I00
sg129
Vhttp://abs.twimg.com/images/themes/theme1/bg.png
p948
sg131
VEcigofferz
p949
sg133
I5
sg134
VE Cig Store
p950
sg136
VDDEEF6
p951
sg138
Vhttp://t.co/b81Mg0NHJJ
p952
sg140
I2874805857
sg141
VC0DEED
p953
sbsg143
I1
sg144
V<a href="http://bufferapp.com" rel="nofollow">Buffer</a>
p954
sg146
(lp955
g3
(g148
g5
Ntp956
Rp957
(dp958
g152
Vhttp://t.co/n3gArZDr9x
p959
sg154
Vhttp://buff.ly/1DvUETk
p960
sbasg140
I544165445893632000
sbag3
(g4
g5
Ntp961
Rp962
(dp963
g9
I0
sg10
Nsg11
Nsg12
(lp964
g3
(g14
g5
Ntp965
Rp966
(dp967
g18
VE
p968
sbag3
(g14
g5
Ntp969
Rp970
(dp971
g18
Vxmaspresents
p972
sbasg24
I00
sg25
Nsg26
Nsg27
(lp973
(dp974
Vexpanded_url
p975
Vhttp://twitter.com/Ecigofferz/status/544159924608311296/photo/1
p976
sVdisplay_url
p977
Vpic.twitter.com/fNCEamkH6T
p978
sVurl
p979
Vhttp://t.co/fNCEamkH6T
p980
sVmedia_url_https
p981
Vhttps://pbs.twimg.com/media/B40-kXkIAAAytX5.jpg
p982
sVid_str
p983
V544159924503445504
p984
sVsizes
p985
(dp986
Vsmall
p987
(dp988
Vh
p989
I191
sVresize
p990
Vfit
p991
sVw
p992
I340
ssVlarge
p993
(dp994
Vh
p995
I450
sVresize
p996
Vfit
p997
sVw
p998
I800
ssVmedium
p999
(dp1000
Vh
p1001
I337
sVresize
p1002
Vfit
p1003
sVw
p1004
I600
ssVthumb
p1005
(dp1006
Vh
p1007
I150
sVresize
p1008
Vcrop
p1009
sVw
p1010
I150
sssVindices
p1011
(lp1012
I64
aI86
asVtype
p1013
Vphoto
p1014
sVid
p1015
I544159924503445504
sVmedia_url
p1016
Vhttp://pbs.twimg.com/media/B40-kXkIAAAytX5.jpg
p1017
sasg73
Nsg74
Nsg75
Nsg76
VSun Dec 14 16:00:10 +0000 2014
p1018
sg78
Nsg79
I00
sg80
Nsg81
Nsg82
Nsg83
Nsg84
I00
sg85
Nsg86
(lp1019
sg88
Nsg89
Nsg90
Nsg91
VLast Minute #E-CIG  #xmaspresents http://t.co/0keP0yxh0Z  RT !! http://t.co/fNCEamkH6T
p1020
sg93
I00
sg94
Ven
p1021
sg96
g3
(g97
g5
Ntp1022
Rp1023
(dp1024
g10
g101
sg102
V333333
p1025
sg104
Ven
p1026
sg106
VLondon
p1027
sg108
I2407
sg109
I2192
sg76
VThu Nov 13 08:51:55 +0000 2014
p1028
sg111
I00
sg112
V#Ecigs #vape #offers #onedirection #zaynmalik #harrystyles
p1029
sg114
Vhttps://pbs.twimg.com/profile_images/543363273631227904/DezF3iR8_normal.jpeg
p1030
sg116
I2639
sg117
I5550
sg118
I0
sg119
Nsg120
I00
sg121
Vhttps://pbs.twimg.com/profile_banners/2874805857/1418304844
p1031
sg123
I00
sg124
I00
sg125
V0084B4
p1032
sg127
I00
sg128
I00
sg129
Vhttp://abs.twimg.com/images/themes/theme1/bg.png
p1033
sg131
VEcigofferz
p1034
sg133
I5
sg134
VE Cig Store
p1035
sg136
VDDEEF6
p1036
sg138
Vhttp://t.co/b81Mg0NHJJ
p1037
sg140
I2874805857
sg141
VC0DEED
p1038
sbsg143
I1
sg144
V<a href="http://bufferapp.com" rel="nofollow">Buffer</a>
p1039
sg146
(lp1040
g3
(g148
g5
Ntp1041
Rp1042
(dp1043
g152
Vhttp://t.co/0keP0yxh0Z
p1044
sg154
Vhttp://buff.ly/1wPwHmZ
p1045
sbasg140
I544159924608311296
sbag3
(g4
g5
Ntp1046
Rp1047
(dp1048
g9
I0
sg10
Nsg11
Nsg12
(lp1049
g3
(g14
g5
Ntp1050
Rp1051
(dp1052
g18
VE
p1053
sbag3
(g14
g5
Ntp1054
Rp1055
(dp1056
g18
Vxmaspresents
p1057
sbasg24
I00
sg25
Nsg26
Nsg27
(lp1058
(dp1059
Vexpanded_url
p1060
Vhttp://twitter.com/Ecigofferz/status/544152360826982400/photo/1
p1061
sVdisplay_url
p1062
Vpic.twitter.com/tXbdCFInlh
p1063
sVurl
p1064
Vhttp://t.co/tXbdCFInlh
p1065
sVmedia_url_https
p1066
Vhttps://pbs.twimg.com/media/B403sGXIAAAUStq.jpg
p1067
sVid_str
p1068
V544152360743075840
p1069
sVsizes
p1070
(dp1071
Vsmall
p1072
(dp1073
Vh
p1074
I191
sVresize
p1075
Vfit
p1076
sVw
p1077
I340
ssVlarge
p1078
(dp1079
Vh
p1080
I450
sVresize
p1081
Vfit
p1082
sVw
p1083
I800
ssVmedium
p1084
(dp1085
Vh
p1086
I337
sVresize
p1087
Vfit
p1088
sVw
p1089
I600
ssVthumb
p1090
(dp1091
Vh
p1092
I150
sVresize
p1093
Vcrop
p1094
sVw
p1095
I150
sssVindices
p1096
(lp1097
I61
aI83
asVtype
p1098
Vphoto
p1099
sVid
p1100
I544152360743075840
sVmedia_url
p1101
Vhttp://pbs.twimg.com/media/B403sGXIAAAUStq.jpg
p1102
sasg73
Nsg74
Nsg75
Nsg76
VSun Dec 14 15:30:07 +0000 2014
p1103
sg78
Nsg79
I00
sg80
Nsg81
Nsg82
Nsg83
Nsg84
I00
sg85
Nsg86
(lp1104
sg88
Nsg89
Nsg90
Nsg91
VLast Minute #E-CIG  #xmaspresents http://t.co/8j5MkUfYUR  RT http://t.co/tXbdCFInlh
p1105
sg93
I00
sg94
Ven
p1106
sg96
g3
(g97
g5
Ntp1107
Rp1108
(dp1109
g10
g101
sg102
V333333
p1110
sg104
Ven
p1111
sg106
VLondon
p1112
sg108
I2407
sg109
I2192
sg76
VThu Nov 13 08:51:55 +0000 2014
p1113
sg111
I00
sg112
V#Ecigs #vape #offers #onedirection #zaynmalik #harrystyles
p1114
sg114
Vhttps://pbs.twimg.com/profile_images/543363273631227904/DezF3iR8_normal.jpeg
p1115
sg116
I2639
sg117
I5550
sg118
I0
sg119
Nsg120
I00
sg121
Vhttps://pbs.twimg.com/profile_banners/2874805857/1418304844
p1116
sg123
I00
sg124
I00
sg125
V0084B4
p1117
sg127
I00
sg128
I00
sg129
Vhttp://abs.twimg.com/images/themes/theme1/bg.png
p1118
sg131
VEcigofferz
p1119
sg133
I5
sg134
VE Cig Store
p1120
sg136
VDDEEF6
p1121
sg138
Vhttp://t.co/b81Mg0NHJJ
p1122
sg140
I2874805857
sg141
VC0DEED
p1123
sbsg143
I1
sg144
V<a href="http://bufferapp.com" rel="nofollow">Buffer</a>
p1124
sg146
(lp1125
g3
(g148
g5
Ntp1126
Rp1127
(dp1128
g152
Vhttp://t.co/8j5MkUfYUR
p1129
sg154
Vhttp://buff.ly/13msdYa
p1130
sbasg140
I544152360826982400
sbag3
(g4
g5
Ntp1131
Rp1132
(dp1133
g9
I0
sg10
Nsg11
Nsg12
(lp1134
g3
(g14
g5
Ntp1135
Rp1136
(dp1137
g18
VE
p1138
sbag3
(g14
g5
Ntp1139
Rp1140
(dp1141
g18
Vxmaspresents
p1142
sbasg24
I00
sg25
Nsg26
Nsg27
(lp1143
(dp1144
Vexpanded_url
p1145
Vhttp://twitter.com/Ecigofferz/status/544144928411230208/photo/1
p1146
sVdisplay_url
p1147
Vpic.twitter.com/RTcrZeC7xb
p1148
sVurl
p1149
Vhttp://t.co/RTcrZeC7xb
p1150
sVmedia_url_https
p1151
Vhttps://pbs.twimg.com/media/B40w7dOIQAAa0vQ.jpg
p1152
sVid_str
p1153
V544144927996002304
p1154
sVsizes
p1155
(dp1156
Vsmall
p1157
(dp1158
Vh
p1159
I191
sVresize
p1160
Vfit
p1161
sVw
p1162
I340
ssVlarge
p1163
(dp1164
Vh
p1165
I450
sVresize
p1166
Vfit
p1167
sVw
p1168
I800
ssVmedium
p1169
(dp1170
Vh
p1171
I337
sVresize
p1172
Vfit
p1173
sVw
p1174
I600
ssVthumb
p1175
(dp1176
Vh
p1177
I150
sVresize
p1178
Vcrop
p1179
sVw
p1180
I150
sssVindices
p1181
(lp1182
I66
aI88
asVtype
p1183
Vphoto
p1184
sVid
p1185
I544144927996002304
sVmedia_url
p1186
Vhttp://pbs.twimg.com/media/B40w7dOIQAAa0vQ.jpg
p1187
sasg73
Nsg74
Nsg75
Nsg76
VSun Dec 14 15:00:35 +0000 2014
p1188
sg78
Nsg79
I00
sg80
Nsg81
Nsg82
Nsg83
Nsg84
I00
sg85
Nsg86
(lp1189
sg88
Nsg89
Nsg90
Nsg91
VLast Minute #E-CIG  #xmaspresents http://t.co/SUzEyCMMM2  Retweet http://t.co/RTcrZeC7xb
p1190
sg93
I00
sg94
Ven
p1191
sg96
g3
(g97
g5
Ntp1192
Rp1193
(dp1194
g10
g101
sg102
V333333
p1195
sg104
Ven
p1196
sg106
VLondon
p1197
sg108
I2407
sg109
I2192
sg76
VThu Nov 13 08:51:55 +0000 2014
p1198
sg111
I00
sg112
V#Ecigs #vape #offers #onedirection #zaynmalik #harrystyles
p1199
sg114
Vhttps://pbs.twimg.com/profile_images/543363273631227904/DezF3iR8_normal.jpeg
p1200
sg116
I2639
sg117
I5550
sg118
I0
sg119
Nsg120
I00
sg121
Vhttps://pbs.twimg.com/profile_banners/2874805857/1418304844
p1201
sg123
I00
sg124
I00
sg125
V0084B4
p1202
sg127
I00
sg128
I00
sg129
Vhttp://abs.twimg.com/images/themes/theme1/bg.png
p1203
sg131
VEcigofferz
p1204
sg133
I5
sg134
VE Cig Store
p1205
sg136
VDDEEF6
p1206
sg138
Vhttp://t.co/b81Mg0NHJJ
p1207
sg140
I2874805857
sg141
VC0DEED
p1208
sbsg143
I1
sg144
V<a href="http://bufferapp.com" rel="nofollow">Buffer</a>
p1209
sg146
(lp1210
g3
(g148
g5
Ntp1211
Rp1212
(dp1213
g152
Vhttp://t.co/SUzEyCMMM2
p1214
sg154
Vhttp://buff.ly/1IP9CUA
p1215
sbasg140
I544144928411230208
sbag3
(g4
g5
Ntp1216
Rp1217
(dp1218
g9
I0
sg10
Nsg11
Nsg12
(lp1219
g3
(g14
g5
Ntp1220
Rp1221
(dp1222
g18
VE
p1223
sbag3
(g14
g5
Ntp1224
Rp1225
(dp1226
g18
Vxmaspresents
p1227
sbasg24
I00
sg25
Nsg26
Nsg27
(lp1228
(dp1229
Vexpanded_url
p1230
Vhttp://twitter.com/Ecigofferz/status/544137265224896513/photo/1
p1231
sVdisplay_url
p1232
Vpic.twitter.com/SwwvR39E0l
p1233
sVurl
p1234
Vhttp://t.co/SwwvR39E0l
p1235
sVmedia_url_https
p1236
Vhttps://pbs.twimg.com/media/B40p9azIAAElEEi.jpg
p1237
sVid_str
p1238
V544137265124212737
p1239
sVsizes
p1240
(dp1241
Vsmall
p1242
(dp1243
Vh
p1244
I191
sVresize
p1245
Vfit
p1246
sVw
p1247
I340
ssVlarge
p1248
(dp1249
Vh
p1250
I450
sVresize
p1251
Vfit
p1252
sVw
p1253
I800
ssVmedium
p1254
(dp1255
Vh
p1256
I337
sVresize
p1257
Vfit
p1258
sVw
p1259
I600
ssVthumb
p1260
(dp1261
Vh
p1262
I150
sVresize
p1263
Vcrop
p1264
sVw
p1265
I150
sssVindices
p1266
(lp1267
I61
aI83
asVtype
p1268
Vphoto
p1269
sVid
p1270
I544137265124212737
sVmedia_url
p1271
Vhttp://pbs.twimg.com/media/B40p9azIAAElEEi.jpg
p1272
sasg73
Nsg74
Nsg75
Nsg76
VSun Dec 14 14:30:08 +0000 2014
p1273
sg78
Nsg79
I00
sg80
Nsg81
Nsg82
Nsg83
Nsg84
I00
sg85
Nsg86
(lp1274
sg88
Nsg89
Nsg90
Nsg91
VLast Minute #E-CIG  #xmaspresents http://t.co/WPKmxNMMWn  RT http://t.co/SwwvR39E0l
p1275
sg93
I00
sg94
Ven
p1276
sg96
g3
(g97
g5
Ntp1277
Rp1278
(dp1279
g10
g101
sg102
V333333
p1280
sg104
Ven
p1281
sg106
VLondon
p1282
sg108
I2407
sg109
I2192
sg76
VThu Nov 13 08:51:55 +0000 2014
p1283
sg111
I00
sg112
V#Ecigs #vape #offers #onedirection #zaynmalik #harrystyles
p1284
sg114
Vhttps://pbs.twimg.com/profile_images/543363273631227904/DezF3iR8_normal.jpeg
p1285
sg116
I2639
sg117
I5550
sg118
I0
sg119
Nsg120
I00
sg121
Vhttps://pbs.twimg.com/profile_banners/2874805857/1418304844
p1286
sg123
I00
sg124
I00
sg125
V0084B4
p1287
sg127
I00
sg128
I00
sg129
Vhttp://abs.twimg.com/images/themes/theme1/bg.png
p1288
sg131
VEcigofferz
p1289
sg133
I5
sg134
VE Cig Store
p1290
sg136
VDDEEF6
p1291
sg138
Vhttp://t.co/b81Mg0NHJJ
p1292
sg140
I2874805857
sg141
VC0DEED
p1293
sbsg143
I1
sg144
V<a href="http://bufferapp.com" rel="nofollow">Buffer</a>
p1294
sg146
(lp1295
g3
(g148
g5
Ntp1296
Rp1297
(dp1298
g152
Vhttp://t.co/WPKmxNMMWn
p1299
sg154
Vhttp://buff.ly/1A7SL9J
p1300
sbasg140
I544137265224896513
sbag3
(g4
g5
Ntp1301
Rp1302
(dp1303
g9
I0
sg10
Nsg11
Nsg12
(lp1304
g3
(g14
g5
Ntp1305
Rp1306
(dp1307
g18
VE
p1308
sbag3
(g14
g5
Ntp1309
Rp1310
(dp1311
g18
Vxmaspresents
p1312
sbasg24
I00
sg25
Nsg26
Nsg27
(lp1313
(dp1314
Vexpanded_url
p1315
Vhttp://twitter.com/Ecigofferz/status/544129820826030080/photo/1
p1316
sVdisplay_url
p1317
Vpic.twitter.com/LWfhupNpnP
p1318
sVurl
p1319
Vhttp://t.co/LWfhupNpnP
p1320
sVmedia_url_https
p1321
Vhttps://pbs.twimg.com/media/B40jMGEIgAALIJT.jpg
p1322
sVid_str
p1323
V544129820675047424
p1324
sVsizes
p1325
(dp1326
Vsmall
p1327
(dp1328
Vh
p1329
I191
sVresize
p1330
Vfit
p1331
sVw
p1332
I340
ssVlarge
p1333
(dp1334
Vh
p1335
I450
sVresize
p1336
Vfit
p1337
sVw
p1338
I800
ssVmedium
p1339
(dp1340
Vh
p1341
I337
sVresize
p1342
Vfit
p1343
sVw
p1344
I600
ssVthumb
p1345
(dp1346
Vh
p1347
I150
sVresize
p1348
Vcrop
p1349
sVw
p1350
I150
sssVindices
p1351
(lp1352
I69
aI91
asVtype
p1353
Vphoto
p1354
sVid
p1355
I544129820675047424
sVmedia_url
p1356
Vhttp://pbs.twimg.com/media/B40jMGEIgAALIJT.jpg
p1357
sasg73
Nsg74
Nsg75
Nsg76
VSun Dec 14 14:00:33 +0000 2014
p1358
sg78
Nsg79
I00
sg80
Nsg81
Nsg82
Nsg83
Nsg84
I00
sg85
Nsg86
(lp1359
sg88
Nsg89
Nsg90
Nsg91
VLast Minute #E-CIG  #xmaspresents http://t.co/uffiT6snHl  Pass it On http://t.co/LWfhupNpnP
p1360
sg93
I00
sg94
Ven
p1361
sg96
g3
(g97
g5
Ntp1362
Rp1363
(dp1364
g10
g101
sg102
V333333
p1365
sg104
Ven
p1366
sg106
VLondon
p1367
sg108
I2407
sg109
I2192
sg76
VThu Nov 13 08:51:55 +0000 2014
p1368
sg111
I00
sg112
V#Ecigs #vape #offers #onedirection #zaynmalik #harrystyles
p1369
sg114
Vhttps://pbs.twimg.com/profile_images/543363273631227904/DezF3iR8_normal.jpeg
p1370
sg116
I2639
sg117
I5550
sg118
I0
sg119
Nsg120
I00
sg121
Vhttps://pbs.twimg.com/profile_banners/2874805857/1418304844
p1371
sg123
I00
sg124
I00
sg125
V0084B4
p1372
sg127
I00
sg128
I00
sg129
Vhttp://abs.twimg.com/images/themes/theme1/bg.png
p1373
sg131
VEcigofferz
p1374
sg133
I5
sg134
VE Cig Store
p1375
sg136
VDDEEF6
p1376
sg138
Vhttp://t.co/b81Mg0NHJJ
p1377
sg140
I2874805857
sg141
VC0DEED
p1378
sbsg143
I1
sg144
V<a href="http://bufferapp.com" rel="nofollow">Buffer</a>
p1379
sg146
(lp1380
g3
(g148
g5
Ntp1381
Rp1382
(dp1383
g152
Vhttp://t.co/uffiT6snHl
p1384
sg154
Vhttp://buff.ly/1IP9y7f
p1385
sbasg140
I544129820826030080
sbag3
(g4
g5
Ntp1386
Rp1387
(dp1388
g9
I0
sg10
Nsg11
Nsg12
(lp1389
g3
(g14
g5
Ntp1390
Rp1391
(dp1392
g18
VE
p1393
sbag3
(g14
g5
Ntp1394
Rp1395
(dp1396
g18
Vxmaspresents
p1397
sbasg24
I00
sg25
Nsg26
Nsg27
(lp1398
(dp1399
Vexpanded_url
p1400
Vhttp://twitter.com/Ecigofferz/status/544122153898364929/photo/1
p1401
sVdisplay_url
p1402
Vpic.twitter.com/CID3Kglz50
p1403
sVurl
p1404
Vhttp://t.co/CID3Kglz50
p1405
sVmedia_url_https
p1406
Vhttps://pbs.twimg.com/media/B40cN0kIcAARJhp.jpg
p1407
sVid_str
p1408
V544122153755766784
p1409
sVsizes
p1410
(dp1411
Vsmall
p1412
(dp1413
Vh
p1414
I191
sVresize
p1415
Vfit
p1416
sVw
p1417
I340
ssVlarge
p1418
(dp1419
Vh
p1420
I450
sVresize
p1421
Vfit
p1422
sVw
p1423
I800
ssVmedium
p1424
(dp1425
Vh
p1426
I337
sVresize
p1427
Vfit
p1428
sVw
p1429
I600
ssVthumb
p1430
(dp1431
Vh
p1432
I150
sVresize
p1433
Vcrop
p1434
sVw
p1435
I150
sssVindices
p1436
(lp1437
I61
aI83
asVtype
p1438
Vphoto
p1439
sVid
p1440
I544122153755766784
sVmedia_url
p1441
Vhttp://pbs.twimg.com/media/B40cN0kIcAARJhp.jpg
p1442
sasg73
Nsg74
Nsg75
Nsg76
VSun Dec 14 13:30:05 +0000 2014
p1443
sg78
Nsg79
I00
sg80
Nsg81
Nsg82
Nsg83
Nsg84
I00
sg85
Nsg86
(lp1444
sg88
Nsg89
Nsg90
Nsg91
VLast Minute #E-CIG  #xmaspresents http://t.co/4aMnOXwIkA  RT http://t.co/CID3Kglz50
p1445
sg93
I00
sg94
Ven
p1446
sg96
g3
(g97
g5
Ntp1447
Rp1448
(dp1449
g10
g101
sg102
V333333
p1450
sg104
Ven
p1451
sg106
VLondon
p1452
sg108
I2407
sg109
I2192
sg76
VThu Nov 13 08:51:55 +0000 2014
p1453
sg111
I00
sg112
V#Ecigs #vape #offers #onedirection #zaynmalik #harrystyles
p1454
sg114
Vhttps://pbs.twimg.com/profile_images/543363273631227904/DezF3iR8_normal.jpeg
p1455
sg116
I2639
sg117
I5550
sg118
I0
sg119
Nsg120
I00
sg121
Vhttps://pbs.twimg.com/profile_banners/2874805857/1418304844
p1456
sg123
I00
sg124
I00
sg125
V0084B4
p1457
sg127
I00
sg128
I00
sg129
Vhttp://abs.twimg.com/images/themes/theme1/bg.png
p1458
sg131
VEcigofferz
p1459
sg133
I5
sg134
VE Cig Store
p1460
sg136
VDDEEF6
p1461
sg138
Vhttp://t.co/b81Mg0NHJJ
p1462
sg140
I2874805857
sg141
VC0DEED
p1463
sbsg143
I1
sg144
V<a href="http://bufferapp.com" rel="nofollow">Buffer</a>
p1464
sg146
(lp1465
g3
(g148
g5
Ntp1466
Rp1467
(dp1468
g152
Vhttp://t.co/4aMnOXwIkA
p1469
sg154
Vhttp://buff.ly/1DvUcEG
p1470
sbasg140
I544122153898364929
sbag3
(g4
g5
Ntp1471
Rp1472
(dp1473
g9
I0
sg10
Nsg11
Nsg12
(lp1474
g3
(g14
g5
Ntp1475
Rp1476
(dp1477
g18
VE
p1478
sbag3
(g14
g5
Ntp1479
Rp1480
(dp1481
g18
Vxmaspresents
p1482
sbasg24
I00
sg25
Nsg26
Nsg27
(lp1483
(dp1484
Vexpanded_url
p1485
Vhttp://twitter.com/Ecigofferz/status/544114683796799488/photo/1
p1486
sVdisplay_url
p1487
Vpic.twitter.com/PEyj0qPBJT
p1488
sVurl
p1489
Vhttp://t.co/PEyj0qPBJT
p1490
sVmedia_url_https
p1491
Vhttps://pbs.twimg.com/media/B40VbAUIAAEeiD9.jpg
p1492
sVid_str
p1493
V544114683666759681
p1494
sVsizes
p1495
(dp1496
Vsmall
p1497
(dp1498
Vh
p1499
I191
sVresize
p1500
Vfit
p1501
sVw
p1502
I340
ssVlarge
p1503
(dp1504
Vh
p1505
I450
sVresize
p1506
Vfit
p1507
sVw
p1508
I800
ssVmedium
p1509
(dp1510
Vh
p1511
I337
sVresize
p1512
Vfit
p1513
sVw
p1514
I600
ssVthumb
p1515
(dp1516
Vh
p1517
I150
sVresize
p1518
Vcrop
p1519
sVw
p1520
I150
sssVindices
p1521
(lp1522
I57
aI79
asVtype
p1523
Vphoto
p1524
sVid
p1525
I544114683666759681
sVmedia_url
p1526
Vhttp://pbs.twimg.com/media/B40VbAUIAAEeiD9.jpg
p1527
sasg73
Nsg74
Nsg75
Nsg76
VSun Dec 14 13:00:24 +0000 2014
p1528
sg78
Nsg79
I00
sg80
Nsg81
Nsg82
Nsg83
Nsg84
I00
sg85
Nsg86
(lp1529
sg88
Nsg89
Nsg90
Nsg91
VLast Minute #E-CIG  #xmaspresents http://t.co/LtUwGEaq2R http://t.co/PEyj0qPBJT
p1530
sg93
I00
sg94
Ven
p1531
sg96
g3
(g97
g5
Ntp1532
Rp1533
(dp1534
g10
g101
sg102
V333333
p1535
sg104
Ven
p1536
sg106
VLondon
p1537
sg108
I2407
sg109
I2192
sg76
VThu Nov 13 08:51:55 +0000 2014
p1538
sg111
I00
sg112
V#Ecigs #vape #offers #onedirection #zaynmalik #harrystyles
p1539
sg114
Vhttps://pbs.twimg.com/profile_images/543363273631227904/DezF3iR8_normal.jpeg
p1540
sg116
I2639
sg117
I5550
sg118
I0
sg119
Nsg120
I00
sg121
Vhttps://pbs.twimg.com/profile_banners/2874805857/1418304844
p1541
sg123
I00
sg124
I00
sg125
V0084B4
p1542
sg127
I00
sg128
I00
sg129
Vhttp://abs.twimg.com/images/themes/theme1/bg.png
p1543
sg131
VEcigofferz
p1544
sg133
I5
sg134
VE Cig Store
p1545
sg136
VDDEEF6
p1546
sg138
Vhttp://t.co/b81Mg0NHJJ
p1547
sg140
I2874805857
sg141
VC0DEED
p1548
sbsg143
I1
sg144
V<a href="http://bufferapp.com" rel="nofollow">Buffer</a>
p1549
sg146
(lp1550
g3
(g148
g5
Ntp1551
Rp1552
(dp1553
g152
Vhttp://t.co/LtUwGEaq2R
p1554
sg154
Vhttp://buff.ly/1IP9sg8
p1555
sbasg140
I544114683796799488
sbag3
(g4
g5
Ntp1556
Rp1557
(dp1558
g9
I1
sg10
Nsg11
Nsg12
(lp1559
g3
(g14
g5
Ntp1560
Rp1561
(dp1562
g18
Vecigs
p1563
sbag3
(g14
g5
Ntp1564
Rp1565
(dp1566
g18
Vxmaspresents
p1567
sbasg24
I00
sg25
Nsg26
Nsg27
(lp1568
(dp1569
Vexpanded_url
p1570
Vhttp://twitter.com/Ecigofferz/status/544099242282082304/photo/1
p1571
sVdisplay_url
p1572
Vpic.twitter.com/qzV6jZoCBi
p1573
sVurl
p1574
Vhttp://t.co/qzV6jZoCBi
p1575
sVmedia_url_https
p1576
Vhttps://pbs.twimg.com/media/B40HYMKIYAA6BjB.jpg
p1577
sVid_str
p1578
V544099242143670272
p1579
sVsizes
p1580
(dp1581
Vsmall
p1582
(dp1583
Vh
p1584
I191
sVresize
p1585
Vfit
p1586
sVw
p1587
I340
ssVlarge
p1588
(dp1589
Vh
p1590
I450
sVresize
p1591
Vfit
p1592
sVw
p1593
I800
ssVmedium
p1594
(dp1595
Vh
p1596
I337
sVresize
p1597
Vfit
p1598
sVw
p1599
I600
ssVthumb
p1600
(dp1601
Vh
p1602
I150
sVresize
p1603
Vcrop
p1604
sVw
p1605
I150
sssVindices
p1606
(lp1607
I68
aI90
asVtype
p1608
Vphoto
p1609
sVid
p1610
I544099242143670272
sVmedia_url
p1611
Vhttp://pbs.twimg.com/media/B40HYMKIYAA6BjB.jpg
p1612
sasg73
Nsg74
Nsg75
Nsg76
VSun Dec 14 11:59:02 +0000 2014
p1613
sg78
Nsg79
I00
sg80
Nsg81
Nsg82
Nsg83
Nsg84
I00
sg85
Nsg86
(lp1614
g3
(g97
g5
Ntp1615
Rp1616
(dp1617
g10
Nsg102
Nsg104
Nsg106
Nsg108
Nsg109
Nsg76
Nsg111
Nsg112
Nsg114
Nsg116
Nsg117
Nsg118
Nsg119
Nsg120
Nsg121
Nsg123
Nsg124
Nsg125
Nsg127
Nsg128
Nsg129
Nsg131
Vzaynemalik
p1618
sg133
Nsg134
Vsabeka sabha
p1619
sg136
Nsg138
Nsg140
I211599233
sg141
Nsbasg88
Nsg89
Nsg90
Nsg91
VLast Minute #ecigs #xmaspresents http://t.co/kJK35LuH7a @zaynemalik http://t.co/qzV6jZoCBi
p1620
sg93
I00
sg94
Ven
p1621
sg96
g3
(g97
g5
Ntp1622
Rp1623
(dp1624
g10
g101
sg102
V333333
p1625
sg104
Ven
p1626
sg106
VLondon
p1627
sg108
I2407
sg109
I2192
sg76
VThu Nov 13 08:51:55 +0000 2014
p1628
sg111
I00
sg112
V#Ecigs #vape #offers #onedirection #zaynmalik #harrystyles
p1629
sg114
Vhttps://pbs.twimg.com/profile_images/543363273631227904/DezF3iR8_normal.jpeg
p1630
sg116
I2639
sg117
I5550
sg118
I0
sg119
Nsg120
I00
sg121
Vhttps://pbs.twimg.com/profile_banners/2874805857/1418304844
p1631
sg123
I00
sg124
I00
sg125
V0084B4
p1632
sg127
I00
sg128
I00
sg129
Vhttp://abs.twimg.com/images/themes/theme1/bg.png
p1633
sg131
VEcigofferz
p1634
sg133
I5
sg134
VE Cig Store
p1635
sg136
VDDEEF6
p1636
sg138
Vhttp://t.co/b81Mg0NHJJ
p1637
sg140
I2874805857
sg141
VC0DEED
p1638
sbsg143
I1
sg144
V<a href="http://bufferapp.com" rel="nofollow">Buffer</a>
p1639
sg146
(lp1640
g3
(g148
g5
Ntp1641
Rp1642
(dp1643
g152
Vhttp://t.co/kJK35LuH7a
p1644
sg154
Vhttp://buff.ly/1BB3F8Q
p1645
sbasg140
I544099242282082304
sbag3
(g4
g5
Ntp1646
Rp1647
(dp1648
g9
I0
sg10
Nsg11
Nsg12
(lp1649
g3
(g14
g5
Ntp1650
Rp1651
(dp1652
g18
Vecigs
p1653
sbag3
(g14
g5
Ntp1654
Rp1655
(dp1656
g18
Vxmaspresents
p1657
sbasg24
I00
sg25
Nsg26
Nsg27
(lp1658
sg73
Nsg74
Nsg75
Nsg76
VSun Dec 14 11:45:07 +0000 2014
p1659
sg78
Nsg79
I00
sg80
Nsg81
Nsg82
Nsg83
Nsg84
I00
sg85
Nsg86
(lp1660
g3
(g97
g5
Ntp1661
Rp1662
(dp1663
g10
Nsg102
Nsg104
Nsg106
Nsg108
Nsg109
Nsg76
Nsg111
Nsg112
Nsg114
Nsg116
Nsg117
Nsg118
Nsg119
Nsg120
Nsg121
Nsg123
Nsg124
Nsg125
Nsg127
Nsg128
Nsg129
Nsg131
Vzaynemalik
p1664
sg133
Nsg134
Vsabeka sabha
p1665
sg136
Nsg138
Nsg140
I211599233
sg141
Nsbasg88
Nsg89
Nsg90
Nsg91
VLast Minute #ecigs #xmaspresents http://t.co/xVS1pgl96W @zaynemalik RT!!
p1666
sg93
I00
sg94
Ven
p1667
sg96
g3
(g97
g5
Ntp1668
Rp1669
(dp1670
g10
g101
sg102
V333333
p1671
sg104
Ven
p1672
sg106
VLondon
p1673
sg108
I2407
sg109
I2192
sg76
VThu Nov 13 08:51:55 +0000 2014
p1674
sg111
I00
sg112
V#Ecigs #vape #offers #onedirection #zaynmalik #harrystyles
p1675
sg114
Vhttps://pbs.twimg.com/profile_images/543363273631227904/DezF3iR8_normal.jpeg
p1676
sg116
I2639
sg117
I5550
sg118
I0
sg119
Nsg120
I00
sg121
Vhttps://pbs.twimg.com/profile_banners/2874805857/1418304844
p1677
sg123
I00
sg124
I00
sg125
V0084B4
p1678
sg127
I00
sg128
I00
sg129
Vhttp://abs.twimg.com/images/themes/theme1/bg.png
p1679
sg131
VEcigofferz
p1680
sg133
I5
sg134
VE Cig Store
p1681
sg136
VDDEEF6
p1682
sg138
Vhttp://t.co/b81Mg0NHJJ
p1683
sg140
I2874805857
sg141
VC0DEED
p1684
sbsg143
I0
sg144
V<a href="http://bufferapp.com" rel="nofollow">Buffer</a>
p1685
sg146
(lp1686
g3
(g148
g5
Ntp1687
Rp1688
(dp1689
g152
Vhttp://t.co/xVS1pgl96W
p1690
sg154
Vhttp://buff.ly/1spIWoD
p1691
sbasg140
I544095737379057665
sbaa.