(lp0
S'amagmom'
p1
a(lp2
ccopy_reg
_reconstructor
p3
(ctwitter.status
Status
p4
c__builtin__
object
p5
Ntp6
Rp7
(dp8
S'_favorite_count'
p9
I0
sS'_location'
p10
NsS'_withheld_scope'
p11
NsS'hashtags'
p12
(lp13
g3
(ctwitter.hashtag
Hashtag
p14
g5
Ntp15
Rp16
(dp17
S'text'
p18
VStreamTeam
p19
sbasS'_truncated'
p20
I00
sS'_retweeted_status'
p21
NsS'_withheld_copyright'
p22
NsS'media'
p23
(lp24
sS'_place'
p25
NsS'_contributors'
p26
NsS'_current_user_retweet'
p27
NsS'_created_at'
p28
VFri Dec 12 20:16:54 +0000 2014
p29
sS'_scopes'
p30
NsS'_possibly_sensitive'
p31
I00
sS'_in_reply_to_screen_name'
p32
NsS'_coordinates'
p33
NsS'_in_reply_to_user_id'
p34
NsS'_geo'
p35
NsS'_favorited'
p36
I00
sS'_withheld_in_countries'
p37
NsS'user_mentions'
p38
(lp39
g3
(ctwitter.user
User
p40
g5
Ntp41
Rp42
(dp43
g10
NsS'_profile_text_color'
p44
NsS'_lang'
p45
NsS'_time_zone'
p46
NsS'_followers_count'
p47
NsS'_statuses_count'
p48
Nsg28
NsS'_verified'
p49
NsS'_description'
p50
NsS'_profile_image_url'
p51
NsS'_friends_count'
p52
NsS'_favourites_count'
p53
NsS'_utc_offset'
p54
NsS'_status'
p55
NsS'_protected'
p56
NsS'_profile_banner_url'
p57
NsS'_notifications'
p58
NsS'_profile_background_tile'
p59
NsS'_profile_link_color'
p60
NsS'_geo_enabled'
p61
NsS'_contributors_enabled'
p62
NsS'_profile_background_image_url'
p63
NsS'_screen_name'
p64
Vnetflix
p65
sS'_listed_count'
p66
NsS'_name'
p67
VNetflix US
p68
sS'_profile_sidebar_fill_color'
p69
NsS'_url'
p70
NsS'_id'
p71
I16573941
sS'_profile_background_color'
p72
Nsbag3
(g40
g5
Ntp73
Rp74
(dp75
g10
Nsg44
Nsg45
Nsg46
Nsg47
Nsg48
Nsg28
Nsg49
Nsg50
Nsg51
Nsg52
Nsg53
Nsg54
Nsg55
Nsg56
Nsg57
Nsg58
Nsg59
Nsg60
Nsg61
Nsg62
Nsg63
Nsg64
Vlovemykids009
p76
sg66
Nsg67
VIrina David
p77
sg69
Nsg70
Nsg71
I411275425
sg72
NsbasS'_now'
p78
NsS'_id_str'
p79
NsS'_in_reply_to_status_id'
p80
NsS'_text'
p81
VWin a FREE @Netflix 1-Year subscription streaming @lovemykids009 in time to GIVE for holidays #StreamTeam http://t.co/v5klHegdpu
p82
sS'_retweeted'
p83
I00
sS'lang'
p84
Ven
p85
sS'_user'
p86
g3
(g40
g5
Ntp87
Rp88
(dp89
g10
V
p90
sg44
V333333
p91
sg45
Ven
p92
sg46
Nsg47
I84
sg48
I1564
sg28
VTue Sep 03 02:54:37 +0000 2013
p93
sg49
I00
sg50
g90
sg51
Vhttps://pbs.twimg.com/profile_images/378800000666754958/f9816070041d7034484869a26cef4938_normal.jpeg
p94
sg52
I912
sg53
I4
sg54
Nsg55
Nsg56
I00
sg57
Vhttps://pbs.twimg.com/profile_banners/1724202949/1398291517
p95
sg58
I00
sg59
I00
sg60
V0084B4
p96
sg61
I00
sg62
I00
sg63
Vhttp://abs.twimg.com/images/themes/theme1/bg.png
p97
sg64
Vamagmom
p98
sg66
I1
sg67
VEmily Adams
p99
sg69
VDDEEF6
p100
sg70
Nsg71
I1724202949
sg72
VC0DEED
p101
sbsS'_retweet_count'
p102
I0
sS'_source'
p103
V<a href="https://dev.twitter.com/docs/tfw" rel="nofollow">Twitter for Websites</a>
p104
sS'urls'
p105
(lp106
g3
(ctwitter.url
Url
p107
g5
Ntp108
Rp109
(dp110
S'url'
p111
Vhttp://t.co/v5klHegdpu
p112
sS'expanded_url'
p113
Vhttp://ilovemykidsblog.net/2014/12/kids-christmas-movies-on-netflix.html?utm_source=feedburner&utm_medium=email&utm_campaign=Feed%3A+ILoveMyKids+%28I+Love+My+Kids%29
p114
sbasg71
I543499756719206400
sbag3
(g4
g5
Ntp115
Rp116
(dp117
g9
I0
sg10
Nsg11
Nsg12
(lp118
g3
(g14
g5
Ntp119
Rp120
(dp121
g18
Vgiveaway
p122
sbag3
(g14
g5
Ntp123
Rp124
(dp125
g18
Vwin
p126
sbasg20
I00
sg21
Nsg22
Nsg23
(lp127
sg25
Nsg26
Nsg27
Nsg28
VFri Dec 12 18:11:48 +0000 2014
p128
sg30
Nsg31
I00
sg32
Nsg33
Nsg34
Nsg35
Nsg36
I00
sg37
Nsg38
(lp129
g3
(g40
g5
Ntp130
Rp131
(dp132
g10
Nsg44
Nsg45
Nsg46
Nsg47
Nsg48
Nsg28
Nsg49
Nsg50
Nsg51
Nsg52
Nsg53
Nsg54
Nsg55
Nsg56
Nsg57
Nsg58
Nsg59
Nsg60
Nsg61
Nsg62
Nsg63
Nsg64
Vahelicoptermom
p133
sg66
Nsg67
Vmickey coutts
p134
sg69
Nsg70
Nsg71
I42819565
sg72
Nsbasg78
Nsg79
Nsg80
Nsg81
VEnter to win a $40 Amazon Gift Code! #giveaway @ahelicoptermom #win http://t.co/NQpeJjsF2c
p135
sg83
I00
sg84
Ven
p136
sg86
g3
(g40
g5
Ntp137
Rp138
(dp139
g10
g90
sg44
V333333
p140
sg45
Ven
p141
sg46
Nsg47
I84
sg48
I1564
sg28
VTue Sep 03 02:54:37 +0000 2013
p142
sg49
I00
sg50
g90
sg51
Vhttps://pbs.twimg.com/profile_images/378800000666754958/f9816070041d7034484869a26cef4938_normal.jpeg
p143
sg52
I912
sg53
I4
sg54
Nsg55
Nsg56
I00
sg57
Vhttps://pbs.twimg.com/profile_banners/1724202949/1398291517
p144
sg58
I00
sg59
I00
sg60
V0084B4
p145
sg61
I00
sg62
I00
sg63
Vhttp://abs.twimg.com/images/themes/theme1/bg.png
p146
sg64
Vamagmom
p147
sg66
I1
sg67
VEmily Adams
p148
sg69
VDDEEF6
p149
sg70
Nsg71
I1724202949
sg72
VC0DEED
p150
sbsg102
I0
sg103
V<a href="https://dev.twitter.com/docs/tfw" rel="nofollow">Twitter for Websites</a>
p151
sg105
(lp152
g3
(g107
g5
Ntp153
Rp154
(dp155
g111
Vhttp://t.co/NQpeJjsF2c
p156
sg113
Vhttp://ahelicoptermom.com/40-amazon-gift-code-giveaway
p157
sbasg71
I543468275317751808
sbag3
(g4
g5
Ntp158
Rp159
(dp160
g9
I0
sg10
Nsg11
Nsg12
(lp161
g3
(g14
g5
Ntp162
Rp163
(dp164
g18
VSupportSmallBusinesses
p165
sbasg20
I00
sg21
Nsg22
Nsg23
(lp166
sg25
Nsg26
Nsg27
Nsg28
VFri Dec 12 16:32:38 +0000 2014
p167
sg30
Nsg31
I00
sg32
Nsg33
Nsg34
Nsg35
Nsg36
I00
sg37
Nsg38
(lp168
g3
(g40
g5
Ntp169
Rp170
(dp171
g10
Nsg44
Nsg45
Nsg46
Nsg47
Nsg48
Nsg28
Nsg49
Nsg50
Nsg51
Nsg52
Nsg53
Nsg54
Nsg55
Nsg56
Nsg57
Nsg58
Nsg59
Nsg60
Nsg61
Nsg62
Nsg63
Nsg64
VThe_ModernMommy
p172
sg66
Nsg67
VThe Modern Mommy
p173
sg69
Nsg70
Nsg71
I2311948338
sg72
Nsbasg78
Nsg79
Nsg80
Nsg81
VI entered to win a $25 Etsy Gift Card from @The_ModernMommy and you can too! http://t.co/qkzkisQMkI #SupportSmallBusinesses
p174
sg83
I00
sg84
Ven
p175
sg86
g3
(g40
g5
Ntp176
Rp177
(dp178
g10
g90
sg44
V333333
p179
sg45
Ven
p180
sg46
Nsg47
I84
sg48
I1564
sg28
VTue Sep 03 02:54:37 +0000 2013
p181
sg49
I00
sg50
g90
sg51
Vhttps://pbs.twimg.com/profile_images/378800000666754958/f9816070041d7034484869a26cef4938_normal.jpeg
p182
sg52
I912
sg53
I4
sg54
Nsg55
Nsg56
I00
sg57
Vhttps://pbs.twimg.com/profile_banners/1724202949/1398291517
p183
sg58
I00
sg59
I00
sg60
V0084B4
p184
sg61
I00
sg62
I00
sg63
Vhttp://abs.twimg.com/images/themes/theme1/bg.png
p185
sg64
Vamagmom
p186
sg66
I1
sg67
VEmily Adams
p187
sg69
VDDEEF6
p188
sg70
Nsg71
I1724202949
sg72
VC0DEED
p189
sbsg102
I0
sg103
V<a href="https://dev.twitter.com/docs/tfw" rel="nofollow">Twitter for Websites</a>
p190
sg105
(lp191
g3
(g107
g5
Ntp192
Rp193
(dp194
g111
Vhttp://t.co/qkzkisQMkI
p195
sg113
Vhttp://themodernmommy.ca/win-25-etsy-giftcard/
p196
sbasg71
I543443318781132800
sbag3
(g4
g5
Ntp197
Rp198
(dp199
g9
I0
sg10
Nsg11
Nsg12
(lp200
g3
(g14
g5
Ntp201
Rp202
(dp203
g18
Vwin
p204
sbag3
(g14
g5
Ntp205
Rp206
(dp207
g18
Vgiveaway
p208
sbasg20
I00
sg21
Nsg22
Nsg23
(lp209
sg25
Nsg26
Nsg27
Nsg28
VFri Dec 12 15:24:32 +0000 2014
p210
sg30
Nsg31
I00
sg32
Nsg33
Nsg34
Nsg35
Nsg36
I00
sg37
Nsg38
(lp211
g3
(g40
g5
Ntp212
Rp213
(dp214
g10
Nsg44
Nsg45
Nsg46
Nsg47
Nsg48
Nsg28
Nsg49
Nsg50
Nsg51
Nsg52
Nsg53
Nsg54
Nsg55
Nsg56
Nsg57
Nsg58
Nsg59
Nsg60
Nsg61
Nsg62
Nsg63
Nsg64
VCrayola
p215
sg66
Nsg67
VCrayola
p216
sg69
Nsg70
Nsg71
I53172720
sg72
Nsbasg78
Nsg79
Nsg80
Nsg81
V10 WINNERS: Enter to #win a @Crayola Virtual Design Pro kit #giveaway (Car or Fashion) US only 12/14 http://t.co/BLynjuZ9DE
p217
sg83
I00
sg84
Ven
p218
sg86
g3
(g40
g5
Ntp219
Rp220
(dp221
g10
g90
sg44
V333333
p222
sg45
Ven
p223
sg46
Nsg47
I84
sg48
I1564
sg28
VTue Sep 03 02:54:37 +0000 2013
p224
sg49
I00
sg50
g90
sg51
Vhttps://pbs.twimg.com/profile_images/378800000666754958/f9816070041d7034484869a26cef4938_normal.jpeg
p225
sg52
I912
sg53
I4
sg54
Nsg55
Nsg56
I00
sg57
Vhttps://pbs.twimg.com/profile_banners/1724202949/1398291517
p226
sg58
I00
sg59
I00
sg60
V0084B4
p227
sg61
I00
sg62
I00
sg63
Vhttp://abs.twimg.com/images/themes/theme1/bg.png
p228
sg64
Vamagmom
p229
sg66
I1
sg67
VEmily Adams
p230
sg69
VDDEEF6
p231
sg70
Nsg71
I1724202949
sg72
VC0DEED
p232
sbsg102
I0
sg103
V<a href="https://dev.twitter.com/docs/tfw" rel="nofollow">Twitter for Websites</a>
p233
sg105
(lp234
g3
(g107
g5
Ntp235
Rp236
(dp237
g111
Vhttp://t.co/BLynjuZ9DE
p238
sg113
Vhttp://happystronghome.com/2014/12/kids-design-and-drive-with-crayola-virtual-design-pro-car-collection/
p239
sbasg71
I543426182226526209
sbag3
(g4
g5
Ntp240
Rp241
(dp242
g9
I0
sg10
Nsg11
Nsg12
(lp243
sg20
I00
sg21
Nsg22
Nsg23
(lp244
sg25
Nsg26
Nsg27
Nsg28
VFri Dec 12 14:35:14 +0000 2014
p245
sg30
Nsg31
I00
sg32
Nsg33
Nsg34
Nsg35
Nsg36
I00
sg37
Nsg38
(lp246
g3
(g40
g5
Ntp247
Rp248
(dp249
g10
Nsg44
Nsg45
Nsg46
Nsg47
Nsg48
Nsg28
Nsg49
Nsg50
Nsg51
Nsg52
Nsg53
Nsg54
Nsg55
Nsg56
Nsg57
Nsg58
Nsg59
Nsg60
Nsg61
Nsg62
Nsg63
Nsg64
VOldNavy
p250
sg66
Nsg67
VOld Navy Official
p251
sg69
Nsg70
Nsg71
I18462539
sg72
Nsbag3
(g40
g5
Ntp252
Rp253
(dp254
g10
Nsg44
Nsg45
Nsg46
Nsg47
Nsg48
Nsg28
Nsg49
Nsg50
Nsg51
Nsg52
Nsg53
Nsg54
Nsg55
Nsg56
Nsg57
Nsg58
Nsg59
Nsg60
Nsg61
Nsg62
Nsg63
Nsg64
VTheSBSociety
p255
sg66
Nsg67
VTheSBSociety
p256
sg69
Nsg70
Nsg71
I631300887
sg72
Nsbag3
(g40
g5
Ntp257
Rp258
(dp259
g10
Nsg44
Nsg45
Nsg46
Nsg47
Nsg48
Nsg28
Nsg49
Nsg50
Nsg51
Nsg52
Nsg53
Nsg54
Nsg55
Nsg56
Nsg57
Nsg58
Nsg59
Nsg60
Nsg61
Nsg62
Nsg63
Nsg64
VTheSWSociety
p260
sg66
Nsg67
VThe SW Blog Society
p261
sg69
Nsg70
Nsg71
I2374540501
sg72
Nsbasg78
Nsg79
Nsg80
Nsg81
VI entered to win a $100 @OldNavy gift card from @TheSBSociety &amp; @TheSWSociety click here to enter for yourself! &gt;&gt; http://t.co/UroDSqbpXY
p262
sg83
I00
sg84
Ven
p263
sg86
g3
(g40
g5
Ntp264
Rp265
(dp266
g10
g90
sg44
V333333
p267
sg45
Ven
p268
sg46
Nsg47
I84
sg48
I1564
sg28
VTue Sep 03 02:54:37 +0000 2013
p269
sg49
I00
sg50
g90
sg51
Vhttps://pbs.twimg.com/profile_images/378800000666754958/f9816070041d7034484869a26cef4938_normal.jpeg
p270
sg52
I912
sg53
I4
sg54
Nsg55
Nsg56
I00
sg57
Vhttps://pbs.twimg.com/profile_banners/1724202949/1398291517
p271
sg58
I00
sg59
I00
sg60
V0084B4
p272
sg61
I00
sg62
I00
sg63
Vhttp://abs.twimg.com/images/themes/theme1/bg.png
p273
sg64
Vamagmom
p274
sg66
I1
sg67
VEmily Adams
p275
sg69
VDDEEF6
p276
sg70
Nsg71
I1724202949
sg72
VC0DEED
p277
sbsg102
I0
sg103
V<a href="https://dev.twitter.com/docs/tfw" rel="nofollow">Twitter for Websites</a>
p278
sg105
(lp279
g3
(g107
g5
Ntp280
Rp281
(dp282
g111
Vhttp://t.co/UroDSqbpXY
p283
sg113
Vhttp://www.poorlittleitgirl.com/old-navy-giveaway/
p284
sbasg71
I543413775223627777
sbag3
(g4
g5
Ntp285
Rp286
(dp287
g9
I0
sg10
Nsg11
Nsg12
(lp288
g3
(g14
g5
Ntp289
Rp290
(dp291
g18
VHoliday
p292
sbag3
(g14
g5
Ntp293
Rp294
(dp295
g18
VGIVEAWAY
p296
sbag3
(g14
g5
Ntp297
Rp298
(dp299
g18
VWIN
p300
sbasg20
I00
sg21
Nsg22
Nsg23
(lp301
sg25
Nsg26
Nsg27
Nsg28
VFri Dec 12 14:26:54 +0000 2014
p302
sg30
Nsg31
I00
sg32
Nsg33
Nsg34
Nsg35
Nsg36
I00
sg37
Nsg38
(lp303
g3
(g40
g5
Ntp304
Rp305
(dp306
g10
Nsg44
Nsg45
Nsg46
Nsg47
Nsg48
Nsg28
Nsg49
Nsg50
Nsg51
Nsg52
Nsg53
Nsg54
Nsg55
Nsg56
Nsg57
Nsg58
Nsg59
Nsg60
Nsg61
Nsg62
Nsg63
Nsg64
Vsmartlabtoys
p307
sg66
Nsg67
VSmartLab Toys
p308
sg69
Nsg70
Nsg71
I209302291
sg72
Nsbag3
(g40
g5
Ntp309
Rp310
(dp311
g10
Nsg44
Nsg45
Nsg46
Nsg47
Nsg48
Nsg28
Nsg49
Nsg50
Nsg51
Nsg52
Nsg53
Nsg54
Nsg55
Nsg56
Nsg57
Nsg58
Nsg59
Nsg60
Nsg61
Nsg62
Nsg63
Nsg64
Vadventuresof8
p312
sg66
Nsg67
VMy Family of 8
p313
sg69
Nsg70
Nsg71
I238374108
sg72
Nsbasg78
Nsg79
Nsg80
Nsg81
VHot #Holiday #GIVEAWAY -Enter to #WIN a @smartlabtoys Prize Pkg on  @adventuresof8 http://t.co/tA4CQJNFsR
p314
sg83
I00
sg84
Ven
p315
sg86
g3
(g40
g5
Ntp316
Rp317
(dp318
g10
g90
sg44
V333333
p319
sg45
Ven
p320
sg46
Nsg47
I84
sg48
I1564
sg28
VTue Sep 03 02:54:37 +0000 2013
p321
sg49
I00
sg50
g90
sg51
Vhttps://pbs.twimg.com/profile_images/378800000666754958/f9816070041d7034484869a26cef4938_normal.jpeg
p322
sg52
I912
sg53
I4
sg54
Nsg55
Nsg56
I00
sg57
Vhttps://pbs.twimg.com/profile_banners/1724202949/1398291517
p323
sg58
I00
sg59
I00
sg60
V0084B4
p324
sg61
I00
sg62
I00
sg63
Vhttp://abs.twimg.com/images/themes/theme1/bg.png
p325
sg64
Vamagmom
p326
sg66
I1
sg67
VEmily Adams
p327
sg69
VDDEEF6
p328
sg70
Nsg71
I1724202949
sg72
VC0DEED
p329
sbsg102
I0
sg103
V<a href="http://giveawaytools.com" rel="nofollow">Giveaway Tools Confirmation</a>
p330
sg105
(lp331
g3
(g107
g5
Ntp332
Rp333
(dp334
g111
Vhttp://t.co/tA4CQJNFsR
p335
sg113
Vhttp://adventuresof8.com/2014/12/have-fun-with-science-smartlab-toys/
p336
sbasg71
I543411678608908288
sbag3
(g4
g5
Ntp337
Rp338
(dp339
g9
I0
sg10
Nsg11
Nsg12
(lp340
g3
(g14
g5
Ntp341
Rp342
(dp343
g18
VGIVEAWAY
p344
sbasg20
I00
sg21
Nsg22
Nsg23
(lp345
sg25
Nsg26
Nsg27
Nsg28
VFri Dec 12 14:23:48 +0000 2014
p346
sg30
Nsg31
I00
sg32
Nsg33
Nsg34
Nsg35
Nsg36
I00
sg37
Nsg38
(lp347
g3
(g40
g5
Ntp348
Rp349
(dp350
g10
Nsg44
Nsg45
Nsg46
Nsg47
Nsg48
Nsg28
Nsg49
Nsg50
Nsg51
Nsg52
Nsg53
Nsg54
Nsg55
Nsg56
Nsg57
Nsg58
Nsg59
Nsg60
Nsg61
Nsg62
Nsg63
Nsg64
Vmamasmoney
p351
sg66
Nsg67
VCher Kachelmuss
p352
sg69
Nsg70
Nsg71
I15585410
sg72
Nsbasg78
Nsg79
Nsg80
Nsg81
V#GIVEAWAY: Win a $50 CVS gift card &amp; Always Prize pack (Ends 12/12) @mamasmoney http://t.co/qjqnMaQxtu
p353
sg83
I00
sg84
Ven
p354
sg86
g3
(g40
g5
Ntp355
Rp356
(dp357
g10
g90
sg44
V333333
p358
sg45
Ven
p359
sg46
Nsg47
I84
sg48
I1564
sg28
VTue Sep 03 02:54:37 +0000 2013
p360
sg49
I00
sg50
g90
sg51
Vhttps://pbs.twimg.com/profile_images/378800000666754958/f9816070041d7034484869a26cef4938_normal.jpeg
p361
sg52
I912
sg53
I4
sg54
Nsg55
Nsg56
I00
sg57
Vhttps://pbs.twimg.com/profile_banners/1724202949/1398291517
p362
sg58
I00
sg59
I00
sg60
V0084B4
p363
sg61
I00
sg62
I00
sg63
Vhttp://abs.twimg.com/images/themes/theme1/bg.png
p364
sg64
Vamagmom
p365
sg66
I1
sg67
VEmily Adams
p366
sg69
VDDEEF6
p367
sg70
Nsg71
I1724202949
sg72
VC0DEED
p368
sbsg102
I0
sg103
V<a href="https://dev.twitter.com/docs/tfw" rel="nofollow">Twitter for Websites</a>
p369
sg105
(lp370
g3
(g107
g5
Ntp371
Rp372
(dp373
g111
Vhttp://t.co/qjqnMaQxtu
p374
sg113
Vhttp://momandmore.com/2014/11/bladder-leaks-always-discreet.html
p375
sbasg71
I543410895540346880
sbag3
(g4
g5
Ntp376
Rp377
(dp378
g9
I0
sg10
Nsg11
Nsg12
(lp379
g3
(g14
g5
Ntp380
Rp381
(dp382
g18
VHolidayGiftGuide
p383
sbag3
(g14
g5
Ntp384
Rp385
(dp386
g18
VAD
p387
sbasg20
I00
sg21
Nsg22
Nsg23
(lp388
sg25
Nsg26
Nsg27
Nsg28
VFri Dec 12 14:22:55 +0000 2014
p389
sg30
Nsg31
I00
sg32
Nsg33
Nsg34
Nsg35
Nsg36
I00
sg37
Nsg38
(lp390
g3
(g40
g5
Ntp391
Rp392
(dp393
g10
Nsg44
Nsg45
Nsg46
Nsg47
Nsg48
Nsg28
Nsg49
Nsg50
Nsg51
Nsg52
Nsg53
Nsg54
Nsg55
Nsg56
Nsg57
Nsg58
Nsg59
Nsg60
Nsg61
Nsg62
Nsg63
Nsg64
VFactoryCanvas
p394
sg66
Nsg67
VCanvas Factory
p395
sg69
Nsg70
Nsg71
I2516437338
sg72
Nsbag3
(g40
g5
Ntp396
Rp397
(dp398
g10
Nsg44
Nsg45
Nsg46
Nsg47
Nsg48
Nsg28
Nsg49
Nsg50
Nsg51
Nsg52
Nsg53
Nsg54
Nsg55
Nsg56
Nsg57
Nsg58
Nsg59
Nsg60
Nsg61
Nsg62
Nsg63
Nsg64
Vadventuresof8
p399
sg66
Nsg67
VMy Family of 8
p400
sg69
Nsg70
Nsg71
I238374108
sg72
Nsbasg78
Nsg79
Nsg80
Nsg81
V#HolidayGiftGuide - show off your holiday memories with a @FactoryCanvas Photo Canvas giveaway on @adventuresof8 #AD http://t.co/EZ2Wq5iIFJ
p401
sg83
I00
sg84
Ven
p402
sg86
g3
(g40
g5
Ntp403
Rp404
(dp405
g10
g90
sg44
V333333
p406
sg45
Ven
p407
sg46
Nsg47
I84
sg48
I1564
sg28
VTue Sep 03 02:54:37 +0000 2013
p408
sg49
I00
sg50
g90
sg51
Vhttps://pbs.twimg.com/profile_images/378800000666754958/f9816070041d7034484869a26cef4938_normal.jpeg
p409
sg52
I912
sg53
I4
sg54
Nsg55
Nsg56
I00
sg57
Vhttps://pbs.twimg.com/profile_banners/1724202949/1398291517
p410
sg58
I00
sg59
I00
sg60
V0084B4
p411
sg61
I00
sg62
I00
sg63
Vhttp://abs.twimg.com/images/themes/theme1/bg.png
p412
sg64
Vamagmom
p413
sg66
I1
sg67
VEmily Adams
p414
sg69
VDDEEF6
p415
sg70
Nsg71
I1724202949
sg72
VC0DEED
p416
sbsg102
I1
sg103
V<a href="http://giveawaytools.com" rel="nofollow">Giveaway Tools Confirmation</a>
p417
sg105
(lp418
g3
(g107
g5
Ntp419
Rp420
(dp421
g111
Vhttp://t.co/EZ2Wq5iIFJ
p422
sg113
Vhttp://is.gd/w6vhxe
p423
sbasg71
I543410672747311104
sbag3
(g4
g5
Ntp424
Rp425
(dp426
g9
I0
sg10
Nsg11
Nsg12
(lp427
g3
(g14
g5
Ntp428
Rp429
(dp430
g18
VGiveaway
p431
sbag3
(g14
g5
Ntp432
Rp433
(dp434
g18
VSoftsoap
p435
sbasg20
I00
sg21
Nsg22
Nsg23
(lp436
sg25
Nsg26
Nsg27
Nsg28
VFri Dec 12 14:22:00 +0000 2014
p437
sg30
Nsg31
I00
sg32
Nsg33
Nsg34
Nsg35
Nsg36
I00
sg37
Nsg38
(lp438
g3
(g40
g5
Ntp439
Rp440
(dp441
g10
Nsg44
Nsg45
Nsg46
Nsg47
Nsg48
Nsg28
Nsg49
Nsg50
Nsg51
Nsg52
Nsg53
Nsg54
Nsg55
Nsg56
Nsg57
Nsg58
Nsg59
Nsg60
Nsg61
Nsg62
Nsg63
Nsg64
VAidanAdisynsMOm
p442
sg66
Nsg67
VJessica Blankenship
p443
sg69
Nsg70
Nsg71
I63793643
sg72
Nsbasg78
Nsg79
Nsg80
Nsg81
VI just entered to win Holiday Collection Body Wash Gift Basket from @aidanadisynsmom #Giveaway #Softsoap http://t.co/0yNp1XwGl4
p444
sg83
I00
sg84
Ven
p445
sg86
g3
(g40
g5
Ntp446
Rp447
(dp448
g10
g90
sg44
V333333
p449
sg45
Ven
p450
sg46
Nsg47
I84
sg48
I1564
sg28
VTue Sep 03 02:54:37 +0000 2013
p451
sg49
I00
sg50
g90
sg51
Vhttps://pbs.twimg.com/profile_images/378800000666754958/f9816070041d7034484869a26cef4938_normal.jpeg
p452
sg52
I912
sg53
I4
sg54
Nsg55
Nsg56
I00
sg57
Vhttps://pbs.twimg.com/profile_banners/1724202949/1398291517
p453
sg58
I00
sg59
I00
sg60
V0084B4
p454
sg61
I00
sg62
I00
sg63
Vhttp://abs.twimg.com/images/themes/theme1/bg.png
p455
sg64
Vamagmom
p456
sg66
I1
sg67
VEmily Adams
p457
sg69
VDDEEF6
p458
sg70
Nsg71
I1724202949
sg72
VC0DEED
p459
sbsg102
I0
sg103
V<a href="http://giveawaytools.com" rel="nofollow">Giveaway Tools Confirmation</a>
p460
sg105
(lp461
g3
(g107
g5
Ntp462
Rp463
(dp464
g111
Vhttp://t.co/0yNp1XwGl4
p465
sg113
Vhttp://bit.ly/1zMOeJq
p466
sbasg71
I543410442719072256
sbag3
(g4
g5
Ntp467
Rp468
(dp469
g9
I0
sg10
Nsg11
Nsg12
(lp470
g3
(g14
g5
Ntp471
Rp472
(dp473
g18
VRudolph
p474
sbag3
(g14
g5
Ntp475
Rp476
(dp477
g18
VWin
p478
sbasg20
I00
sg21
Nsg22
Nsg23
(lp479
sg25
Nsg26
Nsg27
Nsg28
VFri Dec 12 14:19:31 +0000 2014
p480
sg30
Nsg31
I00
sg32
Nsg33
Nsg34
Nsg35
Nsg36
I00
sg37
Nsg38
(lp481
g3
(g40
g5
Ntp482
Rp483
(dp484
g10
Nsg44
Nsg45
Nsg46
Nsg47
Nsg48
Nsg28
Nsg49
Nsg50
Nsg51
Nsg52
Nsg53
Nsg54
Nsg55
Nsg56
Nsg57
Nsg58
Nsg59
Nsg60
Nsg61
Nsg62
Nsg63
Nsg64
VHallmark
p485
sg66
Nsg67
VHallmark Cards
p486
sg69
Nsg70
Nsg71
I26040944
sg72
Nsbag3
(g40
g5
Ntp487
Rp488
(dp489
g10
Nsg44
Nsg45
Nsg46
Nsg47
Nsg48
Nsg28
Nsg49
Nsg50
Nsg51
Nsg52
Nsg53
Nsg54
Nsg55
Nsg56
Nsg57
Nsg58
Nsg59
Nsg60
Nsg61
Nsg62
Nsg63
Nsg64
Vsavinsaidsimply
p490
sg66
Nsg67
VSaving Said Simply
p491
sg69
Nsg70
Nsg71
I516586981
sg72
Nsbasg78
Nsg79
Nsg80
Nsg81
VThe holidays are more festive w/ #Rudolph! #Win a @Hallmark Rudolph prize pack via @savinsaidsimply thru 12/18  http://t.co/xAo0oxj6JC
p492
sg83
I00
sg84
Ven
p493
sg86
g3
(g40
g5
Ntp494
Rp495
(dp496
g10
g90
sg44
V333333
p497
sg45
Ven
p498
sg46
Nsg47
I84
sg48
I1564
sg28
VTue Sep 03 02:54:37 +0000 2013
p499
sg49
I00
sg50
g90
sg51
Vhttps://pbs.twimg.com/profile_images/378800000666754958/f9816070041d7034484869a26cef4938_normal.jpeg
p500
sg52
I912
sg53
I4
sg54
Nsg55
Nsg56
I00
sg57
Vhttps://pbs.twimg.com/profile_banners/1724202949/1398291517
p501
sg58
I00
sg59
I00
sg60
V0084B4
p502
sg61
I00
sg62
I00
sg63
Vhttp://abs.twimg.com/images/themes/theme1/bg.png
p503
sg64
Vamagmom
p504
sg66
I1
sg67
VEmily Adams
p505
sg69
VDDEEF6
p506
sg70
Nsg71
I1724202949
sg72
VC0DEED
p507
sbsg102
I0
sg103
V<a href="https://dev.twitter.com/docs/tfw" rel="nofollow">Twitter for Websites</a>
p508
sg105
(lp509
g3
(g107
g5
Ntp510
Rp511
(dp512
g111
Vhttp://t.co/xAo0oxj6JC
p513
sg113
Vhttp://www.havingfunsaving.com/2014/12/hallmark-rudolph-red-nosed-reindeer-prize-pack-giveaway.html
p514
sbasg71
I543409817474179072
sbag3
(g4
g5
Ntp515
Rp516
(dp517
g9
I0
sg10
Nsg11
Nsg12
(lp518
g3
(g14
g5
Ntp519
Rp520
(dp521
g18
VRudolph
p522
sbag3
(g14
g5
Ntp523
Rp524
(dp525
g18
VWin
p526
sbasg20
I00
sg21
Nsg22
Nsg23
(lp527
sg25
Nsg26
Nsg27
Nsg28
VFri Dec 12 01:34:36 +0000 2014
p528
sg30
Nsg31
I00
sg32
Nsg33
Nsg34
Nsg35
Nsg36
I00
sg37
Nsg38
(lp529
g3
(g40
g5
Ntp530
Rp531
(dp532
g10
Nsg44
Nsg45
Nsg46
Nsg47
Nsg48
Nsg28
Nsg49
Nsg50
Nsg51
Nsg52
Nsg53
Nsg54
Nsg55
Nsg56
Nsg57
Nsg58
Nsg59
Nsg60
Nsg61
Nsg62
Nsg63
Nsg64
VHallmark
p533
sg66
Nsg67
VHallmark Cards
p534
sg69
Nsg70
Nsg71
I26040944
sg72
Nsbag3
(g40
g5
Ntp535
Rp536
(dp537
g10
Nsg44
Nsg45
Nsg46
Nsg47
Nsg48
Nsg28
Nsg49
Nsg50
Nsg51
Nsg52
Nsg53
Nsg54
Nsg55
Nsg56
Nsg57
Nsg58
Nsg59
Nsg60
Nsg61
Nsg62
Nsg63
Nsg64
Vsavinsaidsimply
p538
sg66
Nsg67
VSaving Said Simply
p539
sg69
Nsg70
Nsg71
I516586981
sg72
Nsbasg78
Nsg79
Nsg80
Nsg81
VThe holidays are more festive w/ #Rudolph! #Win a @Hallmark Rudolph prize pack via @savinsaidsimply thru 12/18  http://t.co/xAo0oxj6JC
p540
sg83
I00
sg84
Ven
p541
sg86
g3
(g40
g5
Ntp542
Rp543
(dp544
g10
g90
sg44
V333333
p545
sg45
Ven
p546
sg46
Nsg47
I84
sg48
I1564
sg28
VTue Sep 03 02:54:37 +0000 2013
p547
sg49
I00
sg50
g90
sg51
Vhttps://pbs.twimg.com/profile_images/378800000666754958/f9816070041d7034484869a26cef4938_normal.jpeg
p548
sg52
I912
sg53
I4
sg54
Nsg55
Nsg56
I00
sg57
Vhttps://pbs.twimg.com/profile_banners/1724202949/1398291517
p549
sg58
I00
sg59
I00
sg60
V0084B4
p550
sg61
I00
sg62
I00
sg63
Vhttp://abs.twimg.com/images/themes/theme1/bg.png
p551
sg64
Vamagmom
p552
sg66
I1
sg67
VEmily Adams
p553
sg69
VDDEEF6
p554
sg70
Nsg71
I1724202949
sg72
VC0DEED
p555
sbsg102
I0
sg103
V<a href="https://dev.twitter.com/docs/tfw" rel="nofollow">Twitter for Websites</a>
p556
sg105
(lp557
g3
(g107
g5
Ntp558
Rp559
(dp560
g111
Vhttp://t.co/xAo0oxj6JC
p561
sg113
Vhttp://www.havingfunsaving.com/2014/12/hallmark-rudolph-red-nosed-reindeer-prize-pack-giveaway.html
p562
sbasg71
I543217320840024064
sbag3
(g4
g5
Ntp563
Rp564
(dp565
g9
I0
sg10
Nsg11
Nsg12
(lp566
g3
(g14
g5
Ntp567
Rp568
(dp569
g18
Vgiveaway
p570
sbasg20
I00
sg21
Nsg22
Nsg23
(lp571
sg25
Nsg26
Nsg27
Nsg28
VThu Dec 11 23:55:23 +0000 2014
p572
sg30
Nsg31
I00
sg32
Nsg33
Nsg34
Nsg35
Nsg36
I00
sg37
Nsg38
(lp573
g3
(g40
g5
Ntp574
Rp575
(dp576
g10
Nsg44
Nsg45
Nsg46
Nsg47
Nsg48
Nsg28
Nsg49
Nsg50
Nsg51
Nsg52
Nsg53
Nsg54
Nsg55
Nsg56
Nsg57
Nsg58
Nsg59
Nsg60
Nsg61
Nsg62
Nsg63
Nsg64
Vqlshow
p577
sg66
Nsg67
VQueen Latifah Show
p578
sg69
Nsg70
Nsg71
I2207777527
sg72
Nsbasg78
Nsg79
Nsg80
Nsg81
VWant 15 of the top holiday toys for FREE? Enter this #giveaway from @QLShow! &gt; http://t.co/AAyUNyurbO
p579
sg83
I00
sg84
Ven
p580
sg86
g3
(g40
g5
Ntp581
Rp582
(dp583
g10
g90
sg44
V333333
p584
sg45
Ven
p585
sg46
Nsg47
I84
sg48
I1564
sg28
VTue Sep 03 02:54:37 +0000 2013
p586
sg49
I00
sg50
g90
sg51
Vhttps://pbs.twimg.com/profile_images/378800000666754958/f9816070041d7034484869a26cef4938_normal.jpeg
p587
sg52
I912
sg53
I4
sg54
Nsg55
Nsg56
I00
sg57
Vhttps://pbs.twimg.com/profile_banners/1724202949/1398291517
p588
sg58
I00
sg59
I00
sg60
V0084B4
p589
sg61
I00
sg62
I00
sg63
Vhttp://abs.twimg.com/images/themes/theme1/bg.png
p590
sg64
Vamagmom
p591
sg66
I1
sg67
VEmily Adams
p592
sg69
VDDEEF6
p593
sg70
Nsg71
I1724202949
sg72
VC0DEED
p594
sbsg102
I0
sg103
V<a href="https://dev.twitter.com/docs/tfw" rel="nofollow">Twitter for Websites</a>
p595
sg105
(lp596
g3
(g107
g5
Ntp597
Rp598
(dp599
g111
Vhttp://t.co/AAyUNyurbO
p600
sg113
Vhttp://virl.io/jHjARtR
p601
sbasg71
I543192351980519424
sbag3
(g4
g5
Ntp602
Rp603
(dp604
g9
I0
sg10
Nsg11
Nsg12
(lp605
g3
(g14
g5
Ntp606
Rp607
(dp608
g18
VWIN
p609
sbag3
(g14
g5
Ntp610
Rp611
(dp612
g18
VNuby
p613
sbasg20
I00
sg21
Nsg22
Nsg23
(lp614
sg25
Nsg26
Nsg27
Nsg28
VThu Dec 11 23:54:18 +0000 2014
p615
sg30
Nsg31
I00
sg32
Nsg33
Nsg34
Nsg35
Nsg36
I00
sg37
Nsg38
(lp616
g3
(g40
g5
Ntp617
Rp618
(dp619
g10
Nsg44
Nsg45
Nsg46
Nsg47
Nsg48
Nsg28
Nsg49
Nsg50
Nsg51
Nsg52
Nsg53
Nsg54
Nsg55
Nsg56
Nsg57
Nsg58
Nsg59
Nsg60
Nsg61
Nsg62
Nsg63
Nsg64
Vamazon
p620
sg66
Nsg67
VAmazon
p621
sg69
Nsg70
Nsg71
I20793816
sg72
Nsbasg78
Nsg79
Nsg80
Nsg81
VRT &amp;ENTER to #WIN a $10 @amazon Gift Card from #Nuby! Enter here: http://t.co/TUUTiGiUyY
p622
sg83
I00
sg84
Ven
p623
sg86
g3
(g40
g5
Ntp624
Rp625
(dp626
g10
g90
sg44
V333333
p627
sg45
Ven
p628
sg46
Nsg47
I84
sg48
I1564
sg28
VTue Sep 03 02:54:37 +0000 2013
p629
sg49
I00
sg50
g90
sg51
Vhttps://pbs.twimg.com/profile_images/378800000666754958/f9816070041d7034484869a26cef4938_normal.jpeg
p630
sg52
I912
sg53
I4
sg54
Nsg55
Nsg56
I00
sg57
Vhttps://pbs.twimg.com/profile_banners/1724202949/1398291517
p631
sg58
I00
sg59
I00
sg60
V0084B4
p632
sg61
I00
sg62
I00
sg63
Vhttp://abs.twimg.com/images/themes/theme1/bg.png
p633
sg64
Vamagmom
p634
sg66
I1
sg67
VEmily Adams
p635
sg69
VDDEEF6
p636
sg70
Nsg71
I1724202949
sg72
VC0DEED
p637
sbsg102
I0
sg103
V<a href="https://dev.twitter.com/docs/tfw" rel="nofollow">Twitter for Websites</a>
p638
sg105
(lp639
g3
(g107
g5
Ntp640
Rp641
(dp642
g111
Vhttp://t.co/TUUTiGiUyY
p643
sg113
Vhttp://is.gd/nr6EGr
p644
sbasg71
I543192080785219584
sbag3
(g4
g5
Ntp645
Rp646
(dp647
g9
I1
sg10
Nsg11
Nsg12
(lp648
g3
(g14
g5
Ntp649
Rp650
(dp651
g18
Vgiveaway
p652
sbag3
(g14
g5
Ntp653
Rp654
(dp655
g18
Vwin
p656
sbasg20
I00
sg21
Nsg22
Nsg23
(lp657
sg25
Nsg26
Nsg27
Nsg28
VThu Dec 11 14:57:33 +0000 2014
p658
sg30
Nsg31
I00
sg32
Nsg33
Nsg34
Nsg35
Nsg36
I00
sg37
Nsg38
(lp659
g3
(g40
g5
Ntp660
Rp661
(dp662
g10
Nsg44
Nsg45
Nsg46
Nsg47
Nsg48
Nsg28
Nsg49
Nsg50
Nsg51
Nsg52
Nsg53
Nsg54
Nsg55
Nsg56
Nsg57
Nsg58
Nsg59
Nsg60
Nsg61
Nsg62
Nsg63
Nsg64
Vahelicoptermom
p663
sg66
Nsg67
Vmickey coutts
p664
sg69
Nsg70
Nsg71
I42819565
sg72
Nsbasg78
Nsg79
Nsg80
Nsg81
VEnter to win a $40 Amazon Gift Code! #giveaway @ahelicoptermom #win http://t.co/NQpeJjsF2c
p665
sg83
I00
sg84
Ven
p666
sg86
g3
(g40
g5
Ntp667
Rp668
(dp669
g10
g90
sg44
V333333
p670
sg45
Ven
p671
sg46
Nsg47
I84
sg48
I1564
sg28
VTue Sep 03 02:54:37 +0000 2013
p672
sg49
I00
sg50
g90
sg51
Vhttps://pbs.twimg.com/profile_images/378800000666754958/f9816070041d7034484869a26cef4938_normal.jpeg
p673
sg52
I912
sg53
I4
sg54
Nsg55
Nsg56
I00
sg57
Vhttps://pbs.twimg.com/profile_banners/1724202949/1398291517
p674
sg58
I00
sg59
I00
sg60
V0084B4
p675
sg61
I00
sg62
I00
sg63
Vhttp://abs.twimg.com/images/themes/theme1/bg.png
p676
sg64
Vamagmom
p677
sg66
I1
sg67
VEmily Adams
p678
sg69
VDDEEF6
p679
sg70
Nsg71
I1724202949
sg72
VC0DEED
p680
sbsg102
I0
sg103
V<a href="https://dev.twitter.com/docs/tfw" rel="nofollow">Twitter for Websites</a>
p681
sg105
(lp682
g3
(g107
g5
Ntp683
Rp684
(dp685
g111
Vhttp://t.co/NQpeJjsF2c
p686
sg113
Vhttp://ahelicoptermom.com/40-amazon-gift-code-giveaway
p687
sbasg71
I543057002755158016
sbag3
(g4
g5
Ntp688
Rp689
(dp690
g9
I0
sg10
Nsg11
Nsg12
(lp691
sg20
I00
sg21
Nsg22
Nsg23
(lp692
sg25
Nsg26
Nsg27
Nsg28
VWed Dec 10 19:51:34 +0000 2014
p693
sg30
Nsg31
I00
sg32
Nsg33
Nsg34
Nsg35
Nsg36
I00
sg37
Nsg38
(lp694
g3
(g40
g5
Ntp695
Rp696
(dp697
g10
Nsg44
Nsg45
Nsg46
Nsg47
Nsg48
Nsg28
Nsg49
Nsg50
Nsg51
Nsg52
Nsg53
Nsg54
Nsg55
Nsg56
Nsg57
Nsg58
Nsg59
Nsg60
Nsg61
Nsg62
Nsg63
Nsg64
Vmamasmoney
p698
sg66
Nsg67
VCher Kachelmuss
p699
sg69
Nsg70
Nsg71
I15585410
sg72
Nsbasg78
Nsg79
Nsg80
Nsg81
VGIVEAWAY: Win a $25 Visa GC and Box of Brownie Brittle (Ends 12/19) @mamasmoney http://t.co/E3V4GMPG0W
p700
sg83
I00
sg84
Ven
p701
sg86
g3
(g40
g5
Ntp702
Rp703
(dp704
g10
g90
sg44
V333333
p705
sg45
Ven
p706
sg46
Nsg47
I84
sg48
I1564
sg28
VTue Sep 03 02:54:37 +0000 2013
p707
sg49
I00
sg50
g90
sg51
Vhttps://pbs.twimg.com/profile_images/378800000666754958/f9816070041d7034484869a26cef4938_normal.jpeg
p708
sg52
I912
sg53
I4
sg54
Nsg55
Nsg56
I00
sg57
Vhttps://pbs.twimg.com/profile_banners/1724202949/1398291517
p709
sg58
I00
sg59
I00
sg60
V0084B4
p710
sg61
I00
sg62
I00
sg63
Vhttp://abs.twimg.com/images/themes/theme1/bg.png
p711
sg64
Vamagmom
p712
sg66
I1
sg67
VEmily Adams
p713
sg69
VDDEEF6
p714
sg70
Nsg71
I1724202949
sg72
VC0DEED
p715
sbsg102
I0
sg103
V<a href="https://dev.twitter.com/docs/tfw" rel="nofollow">Twitter for Websites</a>
p716
sg105
(lp717
g3
(g107
g5
Ntp718
Rp719
(dp720
g111
Vhttp://t.co/E3V4GMPG0W
p721
sg113
Vhttp://is.gd/5rszMt
p722
sbasg71
I542768604236615680
sbag3
(g4
g5
Ntp723
Rp724
(dp725
g9
I0
sg10
Nsg11
Nsg12
(lp726
sg20
I00
sg21
Nsg22
Nsg23
(lp727
sg25
Nsg26
Nsg27
Nsg28
VWed Dec 10 19:46:46 +0000 2014
p728
sg30
Nsg31
I00
sg32
Nsg33
Nsg34
Nsg35
Nsg36
I00
sg37
Nsg38
(lp729
g3
(g40
g5
Ntp730
Rp731
(dp732
g10
Nsg44
Nsg45
Nsg46
Nsg47
Nsg48
Nsg28
Nsg49
Nsg50
Nsg51
Nsg52
Nsg53
Nsg54
Nsg55
Nsg56
Nsg57
Nsg58
Nsg59
Nsg60
Nsg61
Nsg62
Nsg63
Nsg64
VOldNavy
p733
sg66
Nsg67
VOld Navy Official
p734
sg69
Nsg70
Nsg71
I18462539
sg72
Nsbag3
(g40
g5
Ntp735
Rp736
(dp737
g10
Nsg44
Nsg45
Nsg46
Nsg47
Nsg48
Nsg28
Nsg49
Nsg50
Nsg51
Nsg52
Nsg53
Nsg54
Nsg55
Nsg56
Nsg57
Nsg58
Nsg59
Nsg60
Nsg61
Nsg62
Nsg63
Nsg64
VTheSBSociety
p738
sg66
Nsg67
VTheSBSociety
p739
sg69
Nsg70
Nsg71
I631300887
sg72
Nsbag3
(g40
g5
Ntp740
Rp741
(dp742
g10
Nsg44
Nsg45
Nsg46
Nsg47
Nsg48
Nsg28
Nsg49
Nsg50
Nsg51
Nsg52
Nsg53
Nsg54
Nsg55
Nsg56
Nsg57
Nsg58
Nsg59
Nsg60
Nsg61
Nsg62
Nsg63
Nsg64
VTheSWSociety
p743
sg66
Nsg67
VThe SW Blog Society
p744
sg69
Nsg70
Nsg71
I2374540501
sg72
Nsbasg78
Nsg79
Nsg80
Nsg81
VI entered to win a $100 @OldNavy gift card from @TheSBSociety &amp; @TheSWSociety click here to enter for yourself! &gt;&gt; http://t.co/UroDSqbpXY
p745
sg83
I00
sg84
Ven
p746
sg86
g3
(g40
g5
Ntp747
Rp748
(dp749
g10
g90
sg44
V333333
p750
sg45
Ven
p751
sg46
Nsg47
I84
sg48
I1564
sg28
VTue Sep 03 02:54:37 +0000 2013
p752
sg49
I00
sg50
g90
sg51
Vhttps://pbs.twimg.com/profile_images/378800000666754958/f9816070041d7034484869a26cef4938_normal.jpeg
p753
sg52
I912
sg53
I4
sg54
Nsg55
Nsg56
I00
sg57
Vhttps://pbs.twimg.com/profile_banners/1724202949/1398291517
p754
sg58
I00
sg59
I00
sg60
V0084B4
p755
sg61
I00
sg62
I00
sg63
Vhttp://abs.twimg.com/images/themes/theme1/bg.png
p756
sg64
Vamagmom
p757
sg66
I1
sg67
VEmily Adams
p758
sg69
VDDEEF6
p759
sg70
Nsg71
I1724202949
sg72
VC0DEED
p760
sbsg102
I0
sg103
V<a href="https://dev.twitter.com/docs/tfw" rel="nofollow">Twitter for Websites</a>
p761
sg105
(lp762
g3
(g107
g5
Ntp763
Rp764
(dp765
g111
Vhttp://t.co/UroDSqbpXY
p766
sg113
Vhttp://www.poorlittleitgirl.com/old-navy-giveaway/
p767
sbasg71
I542767400056152064
sbag3
(g4
g5
Ntp768
Rp769
(dp770
g9
I0
sg10
Nsg11
Nsg12
(lp771
g3
(g14
g5
Ntp772
Rp773
(dp774
g18
VGIVEAWAY
p775
sbag3
(g14
g5
Ntp776
Rp777
(dp778
g18
VWIN
p779
sbag3
(g14
g5
Ntp780
Rp781
(dp782
g18
VHolidayGiftGuide
p783
sbasg20
I00
sg21
Nsg22
Nsg23
(lp784
sg25
Nsg26
Nsg27
Nsg28
VWed Dec 10 19:43:34 +0000 2014
p785
sg30
Nsg31
I00
sg32
Nsg33
Nsg34
Nsg35
Nsg36
I00
sg37
Nsg38
(lp786
g3
(g40
g5
Ntp787
Rp788
(dp789
g10
Nsg44
Nsg45
Nsg46
Nsg47
Nsg48
Nsg28
Nsg49
Nsg50
Nsg51
Nsg52
Nsg53
Nsg54
Nsg55
Nsg56
Nsg57
Nsg58
Nsg59
Nsg60
Nsg61
Nsg62
Nsg63
Nsg64
Vsmartlabtoys
p790
sg66
Nsg67
VSmartLab Toys
p791
sg69
Nsg70
Nsg71
I209302291
sg72
Nsbag3
(g40
g5
Ntp792
Rp793
(dp794
g10
Nsg44
Nsg45
Nsg46
Nsg47
Nsg48
Nsg28
Nsg49
Nsg50
Nsg51
Nsg52
Nsg53
Nsg54
Nsg55
Nsg56
Nsg57
Nsg58
Nsg59
Nsg60
Nsg61
Nsg62
Nsg63
Nsg64
Vadventuresof8
p795
sg66
Nsg67
VMy Family of 8
p796
sg69
Nsg70
Nsg71
I238374108
sg72
Nsbasg78
Nsg79
Nsg80
Nsg81
V#GIVEAWAY -I want to #WIN a @smartlabtoys #HolidayGiftGuide Prize Pkg on @adventuresof8 http://t.co/C55erOLsV3
p797
sg83
I00
sg84
Ven
p798
sg86
g3
(g40
g5
Ntp799
Rp800
(dp801
g10
g90
sg44
V333333
p802
sg45
Ven
p803
sg46
Nsg47
I84
sg48
I1564
sg28
VTue Sep 03 02:54:37 +0000 2013
p804
sg49
I00
sg50
g90
sg51
Vhttps://pbs.twimg.com/profile_images/378800000666754958/f9816070041d7034484869a26cef4938_normal.jpeg
p805
sg52
I912
sg53
I4
sg54
Nsg55
Nsg56
I00
sg57
Vhttps://pbs.twimg.com/profile_banners/1724202949/1398291517
p806
sg58
I00
sg59
I00
sg60
V0084B4
p807
sg61
I00
sg62
I00
sg63
Vhttp://abs.twimg.com/images/themes/theme1/bg.png
p808
sg64
Vamagmom
p809
sg66
I1
sg67
VEmily Adams
p810
sg69
VDDEEF6
p811
sg70
Nsg71
I1724202949
sg72
VC0DEED
p812
sbsg102
I0
sg103
V<a href="http://giveawaytools.com" rel="nofollow">Giveaway Tools Confirmation</a>
p813
sg105
(lp814
g3
(g107
g5
Ntp815
Rp816
(dp817
g111
Vhttp://t.co/C55erOLsV3
p818
sg113
Vhttp://adventuresof8.com/2014/12/have-fun-with-science-smartlab-toys/
p819
sbasg71
I542766591742459904
sbag3
(g4
g5
Ntp820
Rp821
(dp822
g9
I0
sg10
Nsg11
Nsg12
(lp823
g3
(g14
g5
Ntp824
Rp825
(dp826
g18
VWIN
p827
sbag3
(g14
g5
Ntp828
Rp829
(dp830
g18
VHolidayGiftGuide
p831
sbag3
(g14
g5
Ntp832
Rp833
(dp834
g18
Vgiveaway
p835
sbasg20
I00
sg21
Nsg22
Nsg23
(lp836
sg25
Nsg26
Nsg27
Nsg28
VWed Dec 10 19:42:50 +0000 2014
p837
sg30
Nsg31
I00
sg32
Nsg33
Nsg34
Nsg35
Nsg36
I00
sg37
Nsg38
(lp838
g3
(g40
g5
Ntp839
Rp840
(dp841
g10
Nsg44
Nsg45
Nsg46
Nsg47
Nsg48
Nsg28
Nsg49
Nsg50
Nsg51
Nsg52
Nsg53
Nsg54
Nsg55
Nsg56
Nsg57
Nsg58
Nsg59
Nsg60
Nsg61
Nsg62
Nsg63
Nsg64
Vadventuresof8
p842
sg66
Nsg67
VMy Family of 8
p843
sg69
Nsg70
Nsg71
I238374108
sg72
Nsbag3
(g40
g5
Ntp844
Rp845
(dp846
g10
Nsg44
Nsg45
Nsg46
Nsg47
Nsg48
Nsg28
Nsg49
Nsg50
Nsg51
Nsg52
Nsg53
Nsg54
Nsg55
Nsg56
Nsg57
Nsg58
Nsg59
Nsg60
Nsg61
Nsg62
Nsg63
Nsg64
Vsmartlabtoys
p847
sg66
Nsg67
VSmartLab Toys
p848
sg69
Nsg70
Nsg71
I209302291
sg72
Nsbasg78
Nsg79
Nsg80
Nsg81
VVisit @adventuresof8 to Enter to #WIN a Prize Pkg from @smartlabtoys #HolidayGiftGuide #giveaway! http://t.co/tA4CQJNFsR
p849
sg83
I00
sg84
Ven
p850
sg86
g3
(g40
g5
Ntp851
Rp852
(dp853
g10
g90
sg44
V333333
p854
sg45
Ven
p855
sg46
Nsg47
I84
sg48
I1564
sg28
VTue Sep 03 02:54:37 +0000 2013
p856
sg49
I00
sg50
g90
sg51
Vhttps://pbs.twimg.com/profile_images/378800000666754958/f9816070041d7034484869a26cef4938_normal.jpeg
p857
sg52
I912
sg53
I4
sg54
Nsg55
Nsg56
I00
sg57
Vhttps://pbs.twimg.com/profile_banners/1724202949/1398291517
p858
sg58
I00
sg59
I00
sg60
V0084B4
p859
sg61
I00
sg62
I00
sg63
Vhttp://abs.twimg.com/images/themes/theme1/bg.png
p860
sg64
Vamagmom
p861
sg66
I1
sg67
VEmily Adams
p862
sg69
VDDEEF6
p863
sg70
Nsg71
I1724202949
sg72
VC0DEED
p864
sbsg102
I0
sg103
V<a href="http://giveawaytools.com" rel="nofollow">Giveaway Tools Confirmation</a>
p865
sg105
(lp866
g3
(g107
g5
Ntp867
Rp868
(dp869
g111
Vhttp://t.co/tA4CQJNFsR
p870
sg113
Vhttp://adventuresof8.com/2014/12/have-fun-with-science-smartlab-toys/
p871
sbasg71
I542766409844277249
sbag3
(g4
g5
Ntp872
Rp873
(dp874
g9
I0
sg10
Nsg11
Nsg12
(lp875
g3
(g14
g5
Ntp876
Rp877
(dp878
g18
VHolidayGiftGuide
p879
sbag3
(g14
g5
Ntp880
Rp881
(dp882
g18
VAD
p883
sbasg20
I00
sg21
Nsg22
Nsg23
(lp884
sg25
Nsg26
Nsg27
Nsg28
VWed Dec 10 19:37:45 +0000 2014
p885
sg30
Nsg31
I00
sg32
Nsg33
Nsg34
Nsg35
Nsg36
I00
sg37
Nsg38
(lp886
g3
(g40
g5
Ntp887
Rp888
(dp889
g10
Nsg44
Nsg45
Nsg46
Nsg47
Nsg48
Nsg28
Nsg49
Nsg50
Nsg51
Nsg52
Nsg53
Nsg54
Nsg55
Nsg56
Nsg57
Nsg58
Nsg59
Nsg60
Nsg61
Nsg62
Nsg63
Nsg64
VFactoryCanvas
p890
sg66
Nsg67
VCanvas Factory
p891
sg69
Nsg70
Nsg71
I2516437338
sg72
Nsbag3
(g40
g5
Ntp892
Rp893
(dp894
g10
Nsg44
Nsg45
Nsg46
Nsg47
Nsg48
Nsg28
Nsg49
Nsg50
Nsg51
Nsg52
Nsg53
Nsg54
Nsg55
Nsg56
Nsg57
Nsg58
Nsg59
Nsg60
Nsg61
Nsg62
Nsg63
Nsg64
Vadventuresof8
p895
sg66
Nsg67
VMy Family of 8
p896
sg69
Nsg70
Nsg71
I238374108
sg72
Nsbasg78
Nsg79
Nsg80
Nsg81
V#HolidayGiftGuide - show off your holiday memories with a @FactoryCanvas Photo Canvas giveaway on @adventuresof8 #AD http://t.co/EZ2Wq5iIFJ
p897
sg83
I00
sg84
Ven
p898
sg86
g3
(g40
g5
Ntp899
Rp900
(dp901
g10
g90
sg44
V333333
p902
sg45
Ven
p903
sg46
Nsg47
I84
sg48
I1564
sg28
VTue Sep 03 02:54:37 +0000 2013
p904
sg49
I00
sg50
g90
sg51
Vhttps://pbs.twimg.com/profile_images/378800000666754958/f9816070041d7034484869a26cef4938_normal.jpeg
p905
sg52
I912
sg53
I4
sg54
Nsg55
Nsg56
I00
sg57
Vhttps://pbs.twimg.com/profile_banners/1724202949/1398291517
p906
sg58
I00
sg59
I00
sg60
V0084B4
p907
sg61
I00
sg62
I00
sg63
Vhttp://abs.twimg.com/images/themes/theme1/bg.png
p908
sg64
Vamagmom
p909
sg66
I1
sg67
VEmily Adams
p910
sg69
VDDEEF6
p911
sg70
Nsg71
I1724202949
sg72
VC0DEED
p912
sbsg102
I0
sg103
V<a href="http://giveawaytools.com" rel="nofollow">Giveaway Tools Confirmation</a>
p913
sg105
(lp914
g3
(g107
g5
Ntp915
Rp916
(dp917
g111
Vhttp://t.co/EZ2Wq5iIFJ
p918
sg113
Vhttp://is.gd/w6vhxe
p919
sbasg71
I542765128379146240
sbag3
(g4
g5
Ntp920
Rp921
(dp922
g9
I0
sg10
Nsg11
Nsg12
(lp923
g3
(g14
g5
Ntp924
Rp925
(dp926
g18
Vwin
p927
sbag3
(g14
g5
Ntp928
Rp929
(dp930
g18
VGiveaway
p931
sbasg20
I00
sg21
Nsg22
Nsg23
(lp932
sg25
Nsg26
Nsg27
Nsg28
VWed Dec 10 19:36:48 +0000 2014
p933
sg30
Nsg31
I00
sg32
Nsg33
Nsg34
Nsg35
Nsg36
I00
sg37
Nsg38
(lp934
g3
(g40
g5
Ntp935
Rp936
(dp937
g10
Nsg44
Nsg45
Nsg46
Nsg47
Nsg48
Nsg28
Nsg49
Nsg50
Nsg51
Nsg52
Nsg53
Nsg54
Nsg55
Nsg56
Nsg57
Nsg58
Nsg59
Nsg60
Nsg61
Nsg62
Nsg63
Nsg64
VTrunkiUS
p938
sg66
Nsg67
VTrunki US
p939
sg69
Nsg70
Nsg71
I2229683778
sg72
Nsbag3
(g40
g5
Ntp940
Rp941
(dp942
g10
Nsg44
Nsg45
Nsg46
Nsg47
Nsg48
Nsg28
Nsg49
Nsg50
Nsg51
Nsg52
Nsg53
Nsg54
Nsg55
Nsg56
Nsg57
Nsg58
Nsg59
Nsg60
Nsg61
Nsg62
Nsg63
Nsg64
VMaking_of_a_Mom
p943
sg66
Nsg67
VMaking of a Mom
p944
sg69
Nsg70
Nsg71
I455958732
sg72
Nsbasg78
Nsg79
Nsg80
Nsg81
VI entered to #win a @TrunkiUS prize pack on @Making_of_a_Mom. #Giveaway ends 12/15 US  http://t.co/RuG1uLfBm6
p945
sg83
I00
sg84
Ven
p946
sg86
g3
(g40
g5
Ntp947
Rp948
(dp949
g10
g90
sg44
V333333
p950
sg45
Ven
p951
sg46
Nsg47
I84
sg48
I1564
sg28
VTue Sep 03 02:54:37 +0000 2013
p952
sg49
I00
sg50
g90
sg51
Vhttps://pbs.twimg.com/profile_images/378800000666754958/f9816070041d7034484869a26cef4938_normal.jpeg
p953
sg52
I912
sg53
I4
sg54
Nsg55
Nsg56
I00
sg57
Vhttps://pbs.twimg.com/profile_banners/1724202949/1398291517
p954
sg58
I00
sg59
I00
sg60
V0084B4
p955
sg61
I00
sg62
I00
sg63
Vhttp://abs.twimg.com/images/themes/theme1/bg.png
p956
sg64
Vamagmom
p957
sg66
I1
sg67
VEmily Adams
p958
sg69
VDDEEF6
p959
sg70
Nsg71
I1724202949
sg72
VC0DEED
p960
sbsg102
I0
sg103
V<a href="https://dev.twitter.com/docs/tfw" rel="nofollow">Twitter for Websites</a>
p961
sg105
(lp962
g3
(g107
g5
Ntp963
Rp964
(dp965
g111
Vhttp://t.co/RuG1uLfBm6
p966
sg113
Vhttp://www.savingyoudinero.com/2014/12/03/win-a-trunki-prize-pack/comment-page-1/
p967
sbasg71
I542764890520178688
sbaa.