(lp0
S'nshaikh6677'
p1
a(lp2
ccopy_reg
_reconstructor
p3
(ctwitter.status
Status
p4
c__builtin__
object
p5
Ntp6
Rp7
(dp8
S'_favorite_count'
p9
I0
sS'_location'
p10
NsS'_withheld_scope'
p11
NsS'hashtags'
p12
(lp13
g3
(ctwitter.hashtag
Hashtag
p14
g5
Ntp15
Rp16
(dp17
S'text'
p18
Vpeacocks
p19
sbag3
(g14
g5
Ntp20
Rp21
(dp22
g18
VBirds
p23
sbag3
(g14
g5
Ntp24
Rp25
(dp26
g18
VNikon
p27
sbasS'_truncated'
p28
I00
sS'_retweeted_status'
p29
g3
(g4
g5
Ntp30
Rp31
(dp32
g9
I3
sg10
Nsg11
Nsg12
(lp33
g3
(g14
g5
Ntp34
Rp35
(dp36
g18
Vpeacocks
p37
sbag3
(g14
g5
Ntp38
Rp39
(dp40
g18
VBirds
p41
sbag3
(g14
g5
Ntp42
Rp43
(dp44
g18
VNikon
p45
sbasg28
I00
sg29
NsS'_withheld_copyright'
p46
NsS'media'
p47
(lp48
(dp49
Vexpanded_url
p50
Vhttp://twitter.com/PhotoDiva19/status/536990449345761280/photo/1
p51
sVdisplay_url
p52
Vpic.twitter.com/5Y77a2g9wt
p53
sVurl
p54
Vhttp://t.co/5Y77a2g9wt
p55
sVmedia_url_https
p56
Vhttps://pbs.twimg.com/media/B3PF96DCYAA8OcL.jpg
p57
sVid_str
p58
V536990447931908096
p59
sVsizes
p60
(dp61
Vlarge
p62
(dp63
Vh
p64
I1152
sVresize
p65
Vfit
p66
sVw
p67
I1024
ssVsmall
p68
(dp69
Vh
p70
I382
sVresize
p71
Vfit
p72
sVw
p73
I340
ssVmedium
p74
(dp75
Vh
p76
I675
sVresize
p77
Vfit
p78
sVw
p79
I600
ssVthumb
p80
(dp81
Vh
p82
I150
sVresize
p83
Vcrop
p84
sVw
p85
I150
sssVindices
p86
(lp87
I113
aI135
asVtype
p88
Vphoto
p89
sVid
p90
I536990447931908096
sVmedia_url
p91
Vhttp://pbs.twimg.com/media/B3PF96DCYAA8OcL.jpg
p92
sasS'_place'
p93
NsS'_contributors'
p94
NsS'_current_user_retweet'
p95
NsS'_created_at'
p96
VMon Nov 24 21:11:14 +0000 2014
p97
sS'_scopes'
p98
NsS'_possibly_sensitive'
p99
I00
sS'_in_reply_to_screen_name'
p100
NsS'_coordinates'
p101
NsS'_in_reply_to_user_id'
p102
NsS'_geo'
p103
NsS'_favorited'
p104
I00
sS'_withheld_in_countries'
p105
NsS'user_mentions'
p106
(lp107
sS'_now'
p108
NsS'_id_str'
p109
NsS'_in_reply_to_status_id'
p110
NsS'_text'
p111
VThe collective name for a group of #peacocks is a party. A family of peacocks is    called a bevy. #Birds #Nikon http://t.co/5Y77a2g9wt
p112
sS'_retweeted'
p113
I00
sS'lang'
p114
Ven
p115
sS'_user'
p116
g3
(ctwitter.user
User
p117
g5
Ntp118
Rp119
(dp120
g10
VThe interweb
p121
sS'_profile_text_color'
p122
V000000
p123
sS'_lang'
p124
Ven
p125
sS'_time_zone'
p126
NsS'_followers_count'
p127
I123
sS'_statuses_count'
p128
I2976
sg96
VSat Aug 09 20:31:29 +0000 2014
p129
sS'_verified'
p130
I00
sS'_description'
p131
VA photographer who feeds people's obsession for bringing beauty into focus http://t.co/Y7GPuFXrdF http://t.co/XFmwhzrtiv
p132
sS'_profile_image_url'
p133
Vhttps://pbs.twimg.com/profile_images/498491006090629122/X7rI7lVI_normal.jpeg
p134
sS'_friends_count'
p135
I152
sS'_favourites_count'
p136
I155
sS'_utc_offset'
p137
NsS'_status'
p138
NsS'_protected'
p139
I00
sS'_profile_banner_url'
p140
Vhttps://pbs.twimg.com/profile_banners/2720124001/1407684642
p141
sS'_notifications'
p142
I00
sS'_profile_background_tile'
p143
I00
sS'_profile_link_color'
p144
V8C00B3
p145
sS'_geo_enabled'
p146
I00
sS'_contributors_enabled'
p147
I00
sS'_profile_background_image_url'
p148
Vhttp://abs.twimg.com/images/themes/theme1/bg.png
p149
sS'_screen_name'
p150
VPhotoDiva19
p151
sS'_listed_count'
p152
I2
sS'_name'
p153
VLeta Taklo Currier
p154
sS'_profile_sidebar_fill_color'
p155
V000000
p156
sS'_url'
p157
Vhttp://t.co/Z0gMHvSlpS
p158
sS'_id'
p159
I2720124001
sS'_profile_background_color'
p160
V000000
p161
sbsS'_retweet_count'
p162
I5
sS'_source'
p163
V<a href="http://twitter.com" rel="nofollow">Twitter Web Client</a>
p164
sS'urls'
p165
(lp166
sg159
I536990449345761280
sbsg46
Nsg47
(lp167
(dp168
Vsource_user_id
p169
I2720124001
sVsource_status_id_str
p170
V536990449345761280
p171
sVexpanded_url
p172
Vhttp://twitter.com/PhotoDiva19/status/536990449345761280/photo/1
p173
sVdisplay_url
p174
Vpic.twitter.com/5Y77a2g9wt
p175
sVurl
p176
Vhttp://t.co/5Y77a2g9wt
p177
sVmedia_url_https
p178
Vhttps://pbs.twimg.com/media/B3PF96DCYAA8OcL.jpg
p179
sVsource_user_id_str
p180
V2720124001
p181
sVsource_status_id
p182
I536990449345761280
sVid_str
p183
V536990447931908096
p184
sVsizes
p185
(dp186
Vlarge
p187
(dp188
Vh
p189
I1152
sVresize
p190
Vfit
p191
sVw
p192
I1024
ssVsmall
p193
(dp194
Vh
p195
I382
sVresize
p196
Vfit
p197
sVw
p198
I340
ssVmedium
p199
(dp200
Vh
p201
I675
sVresize
p202
Vfit
p203
sVw
p204
I600
ssVthumb
p205
(dp206
Vh
p207
I150
sVresize
p208
Vcrop
p209
sVw
p210
I150
sssVindices
p211
(lp212
I139
aI140
asVtype
p213
Vphoto
p214
sVid
p215
I536990447931908096
sVmedia_url
p216
Vhttp://pbs.twimg.com/media/B3PF96DCYAA8OcL.jpg
p217
sasg93
Nsg94
Nsg95
Nsg96
VSun Dec 14 19:01:43 +0000 2014
p218
sg98
Nsg99
I00
sg100
Nsg101
Nsg102
Nsg103
Nsg104
I00
sg105
Nsg106
(lp219
g3
(g117
g5
Ntp220
Rp221
(dp222
g10
Nsg122
Nsg124
Nsg126
Nsg127
Nsg128
Nsg96
Nsg130
Nsg131
Nsg133
Nsg135
Nsg136
Nsg137
Nsg138
Nsg139
Nsg140
Nsg142
Nsg143
Nsg144
Nsg146
Nsg147
Nsg148
Nsg150
VPhotoDiva19
p223
sg152
Nsg153
VLeta Taklo Currier
p224
sg155
Nsg157
Nsg159
I2720124001
sg160
Nsbasg108
Nsg109
Nsg110
Nsg111
VRT @PhotoDiva19: The collective name for a group of #peacocks is a party. A family of peacocks is    called a bevy. #Birds #Nikon http://t.\u2026
p225
sg113
I00
sg114
Ven
p226
sg116
g3
(g117
g5
Ntp227
Rp228
(dp229
g10
VKarachi
p230
sg122
V333333
p231
sg124
Ven
p232
sg126
Nsg127
I2236
sg128
I33444
sg96
VSun Oct 13 10:11:19 +0000 2013
p233
sg130
I00
sg131
V
p234
sg133
Vhttps://pbs.twimg.com/profile_images/424960110956650496/RzeO6zE3_normal.jpeg
p235
sg135
I1999
sg136
I41237
sg137
Nsg138
Nsg139
I00
sg140
Vhttps://pbs.twimg.com/profile_banners/712399965/1385041858
p236
sg142
I00
sg143
I00
sg144
V0084B4
p237
sg146
I01
sg147
I00
sg148
Vhttp://abs.twimg.com/images/themes/theme1/bg.png
p238
sg150
Vnshaikh6677
p239
sg152
I27
sg153
VNasrullah Shaikh
p240
sg155
VDDEEF6
p241
sg157
Nsg159
I712399965
sg160
VC0DEED
p242
sbsg162
I5
sg163
V<a href="http://twitter.com/download/android" rel="nofollow">Twitter for Android</a>
p243
sg165
(lp244
sg159
I544205610753875968
sbag3
(g4
g5
Ntp245
Rp246
(dp247
g9
I0
sg10
Nsg11
Nsg12
(lp248
g3
(g14
g5
Ntp249
Rp250
(dp251
g18
VSiraj4Pakistan
p252
sbasg28
I00
sg29
Nsg46
Nsg47
(lp253
sg93
(dp254
Vfull_name
p255
VKarachi
p256
sVurl
p257
Vhttps://api.twitter.com/1.1/geo/id/01aadce76841e2c5.json
p258
sVcountry
p259
VPakistan
p260
sVplace_type
p261
Vcity
p262
sVbounding_box
p263
(dp264
Vtype
p265
VPolygon
p266
sVcoordinates
p267
(lp268
(lp269
(lp270
F66.95121
aF24.8022385
aa(lp271
F67.1331787
aF24.8022385
aa(lp272
F67.1331787
aF25.0079118
aa(lp273
F66.95121
aF25.0079118
aaassVcontained_within
p274
(lp275
sVcountry_code
p276
VPK
p277
sVattributes
p278
(dp279
sVid
p280
V01aadce76841e2c5
p281
sVname
p282
VKarachi
p283
ssg94
Nsg95
Nsg96
VSun Dec 14 19:00:17 +0000 2014
p284
sg98
Nsg99
Nsg100
Nsg101
(dp285
Vtype
p286
VPoint
p287
sVcoordinates
p288
(lp289
F67.0466805
aF24.9569075
assg102
Nsg103
(dp290
Vtype
p291
VPoint
p292
sVcoordinates
p293
(lp294
F24.9569075
aF67.0466805
assg104
I00
sg105
Nsg106
(lp295
g3
(g117
g5
Ntp296
Rp297
(dp298
g10
Nsg122
Nsg124
Nsg126
Nsg127
Nsg128
Nsg96
Nsg130
Nsg131
Nsg133
Nsg135
Nsg136
Nsg137
Nsg138
Nsg139
Nsg140
Nsg142
Nsg143
Nsg144
Nsg146
Nsg147
Nsg148
Nsg150
Vasad_usama
p299
sg152
Nsg153
VUsama Asad
p300
sg155
Nsg157
Nsg159
I454020747
sg160
Nsbasg108
Nsg109
Nsg110
Nsg111
VRT "@asad_usama: #Siraj4Pakistan \u000a\u062c\u0628 \u0627\u06cc\u06a9 \u0648\u0632\u06cc\u0631 \u0627\u0639\u0644\u06cc \u0688\u0627\u0646\u0633 \u0645\u06cc\u06ba \u0645\u0635\u0631\u0648\u0641 \u062a\u06be\u0627 \u062a\u0628 \u0627\u06cc\u06a9 \u062f\u0631\u0648\u06cc\u0634 \u06a9\u06cc \u062c\u0645\u0627\u0639\u062a \u06a9\u06d2 \u0644\u0648\u06af \u067e\u0634\u0627\u0648\u0631 \u0628\u0627\u0631\u0634 \u0645\u062a\u0627\u062b\u0631\u06cc\u0646 \u06a9\u06d2 \u0633\u0627\u062a\u06be \u062a\u06be\u06d2"
p301
sg113
I00
sg114
Vur
p302
sg116
g3
(g117
g5
Ntp303
Rp304
(dp305
g10
VKarachi
p306
sg122
V333333
p307
sg124
Ven
p308
sg126
Nsg127
I2236
sg128
I33444
sg96
VSun Oct 13 10:11:19 +0000 2013
p309
sg130
I00
sg131
g234
sg133
Vhttps://pbs.twimg.com/profile_images/424960110956650496/RzeO6zE3_normal.jpeg
p310
sg135
I1999
sg136
I41237
sg137
Nsg138
Nsg139
I00
sg140
Vhttps://pbs.twimg.com/profile_banners/712399965/1385041858
p311
sg142
I00
sg143
I00
sg144
V0084B4
p312
sg146
I01
sg147
I00
sg148
Vhttp://abs.twimg.com/images/themes/theme1/bg.png
p313
sg150
Vnshaikh6677
p314
sg152
I27
sg153
VNasrullah Shaikh
p315
sg155
VDDEEF6
p316
sg157
Nsg159
I712399965
sg160
VC0DEED
p317
sbsg162
I0
sg163
V<a href="http://twitter.com/download/android" rel="nofollow">Twitter for Android</a>
p318
sg165
(lp319
sg159
I544205249905319936
sbag3
(g4
g5
Ntp320
Rp321
(dp322
g9
I0
sg10
Nsg11
Nsg12
(lp323
g3
(g14
g5
Ntp324
Rp325
(dp326
g18
VLove
p327
sbag3
(g14
g5
Ntp328
Rp329
(dp330
g18
VPakistan
p331
sbag3
(g14
g5
Ntp332
Rp333
(dp334
g18
VMyCountry
p335
sbag3
(g14
g5
Ntp336
Rp337
(dp338
g18
VMyPakistan
p339
sbag3
(g14
g5
Ntp340
Rp341
(dp342
g18
VIslamiPakistan
p343
sbasg28
I00
sg29
g3
(g4
g5
Ntp344
Rp345
(dp346
g9
I4
sg10
Nsg11
Nsg12
(lp347
g3
(g14
g5
Ntp348
Rp349
(dp350
g18
VLove
p351
sbag3
(g14
g5
Ntp352
Rp353
(dp354
g18
VPakistan
p355
sbag3
(g14
g5
Ntp356
Rp357
(dp358
g18
VMyCountry
p359
sbag3
(g14
g5
Ntp360
Rp361
(dp362
g18
VMyPakistan
p363
sbag3
(g14
g5
Ntp364
Rp365
(dp366
g18
VIslamiPakistan
p367
sbasg28
I00
sg29
Nsg46
Nsg47
(lp368
sg93
Nsg94
Nsg95
Nsg96
VSun Dec 14 18:47:01 +0000 2014
p369
sg98
Nsg99
Nsg100
Nsg101
Nsg102
Nsg103
Nsg104
I00
sg105
Nsg106
(lp370
g3
(g117
g5
Ntp371
Rp372
(dp373
g10
Nsg122
Nsg124
Nsg126
Nsg127
Nsg128
Nsg96
Nsg130
Nsg131
Nsg133
Nsg135
Nsg136
Nsg137
Nsg138
Nsg139
Nsg140
Nsg142
Nsg143
Nsg144
Nsg146
Nsg147
Nsg148
Nsg150
VSirajOfficial
p374
sg152
Nsg153
VSiraj ul Haq
p375
sg155
Nsg157
Nsg159
I549630210
sg160
Nsbag3
(g117
g5
Ntp376
Rp377
(dp378
g10
Nsg122
Nsg124
Nsg126
Nsg127
Nsg128
Nsg96
Nsg130
Nsg131
Nsg133
Nsg135
Nsg136
Nsg137
Nsg138
Nsg139
Nsg140
Nsg142
Nsg143
Nsg144
Nsg146
Nsg147
Nsg148
Nsg150
Vliaqatbalochji
p379
sg152
Nsg153
VLiaqat Baloch
p380
sg155
Nsg157
Nsg159
I456769589
sg160
Nsbag3
(g117
g5
Ntp381
Rp382
(dp383
g10
Nsg122
Nsg124
Nsg126
Nsg127
Nsg128
Nsg96
Nsg130
Nsg131
Nsg133
Nsg135
Nsg136
Nsg137
Nsg138
Nsg139
Nsg140
Nsg142
Nsg143
Nsg144
Nsg146
Nsg147
Nsg148
Nsg150
VShamsAmjadJI
p384
sg152
Nsg153
VShamsuddin Amjad
p385
sg155
Nsg157
Nsg159
I1305542004
sg160
Nsbag3
(g117
g5
Ntp386
Rp387
(dp388
g10
Nsg122
Nsg124
Nsg126
Nsg127
Nsg128
Nsg96
Nsg130
Nsg131
Nsg133
Nsg135
Nsg136
Nsg137
Nsg138
Nsg139
Nsg140
Nsg142
Nsg143
Nsg144
Nsg146
Nsg147
Nsg148
Nsg150
VSaadMaqsood2
p389
sg152
Nsg153
VSaad Maqsood
p390
sg155
Nsg157
Nsg159
I519419812
sg160
Nsbag3
(g117
g5
Ntp391
Rp392
(dp393
g10
Nsg122
Nsg124
Nsg126
Nsg127
Nsg128
Nsg96
Nsg130
Nsg131
Nsg133
Nsg135
Nsg136
Nsg137
Nsg138
Nsg139
Nsg140
Nsg142
Nsg143
Nsg144
Nsg146
Nsg147
Nsg148
Nsg150
Vuabas
p394
sg152
Nsg153
Vumer abbas 
p395
sg155
Nsg157
Nsg159
I123792883
sg160
Nsbag3
(g117
g5
Ntp396
Rp397
(dp398
g10
Nsg122
Nsg124
Nsg126
Nsg127
Nsg128
Nsg96
Nsg130
Nsg131
Nsg133
Nsg135
Nsg136
Nsg137
Nsg138
Nsg139
Nsg140
Nsg142
Nsg143
Nsg144
Nsg146
Nsg147
Nsg148
Nsg150
Vdrmerajs
p399
sg152
Nsg153
Vdr.meraj siddiqui
p400
sg155
Nsg157
Nsg159
I146353906
sg160
Nsbasg108
Nsg109
Nsg110
Nsg111
V#Love You #Pakistan\u000a#MyCountry #MyPakistan #IslamiPakistan \u000a@SirajOfficial @liaqatbalochji @ShamsAmjadJI @SaadMaqsood2 @uabas @drmerajs
p401
sg113
I00
sg114
Vund
p402
sg116
g3
(g117
g5
Ntp403
Rp404
(dp405
g10
g234
sg122
V333333
p406
sg124
Ven
p407
sg126
VIslamabad
p408
sg127
I404
sg128
I6489
sg96
VSat Jun 26 05:46:58 +0000 2010
p409
sg130
I00
sg131
VAn Telecom Engineer by profession, But first it is my responsibility to find, what is the purpose of my Life...?
p410
sg133
Vhttps://pbs.twimg.com/profile_images/542378017729699840/u-Bbsl68_normal.jpeg
p411
sg135
I762
sg136
I3390
sg137
I18000
sg138
Nsg139
I00
sg140
Vhttps://pbs.twimg.com/profile_banners/159736384/1380966661
p412
sg142
I00
sg143
I00
sg144
VCC3366
p413
sg146
I00
sg147
I00
sg148
Vhttp://abs.twimg.com/images/themes/theme17/bg.gif
p414
sg150
Vmeetzahid
p415
sg152
I0
sg153
VRana M Zahid
p416
sg155
VE6F6F9
p417
sg157
Nsg159
I159736384
sg160
VCC3366
p418
sbsg162
I3
sg163
V<a href="http://twitter.com" rel="nofollow">Twitter Web Client</a>
p419
sg165
(lp420
sg159
I544201912736690176
sbsg46
Nsg47
(lp421
sg93
Nsg94
Nsg95
Nsg96
VSun Dec 14 18:57:23 +0000 2014
p422
sg98
Nsg99
Nsg100
Nsg101
Nsg102
Nsg103
Nsg104
I00
sg105
Nsg106
(lp423
g3
(g117
g5
Ntp424
Rp425
(dp426
g10
Nsg122
Nsg124
Nsg126
Nsg127
Nsg128
Nsg96
Nsg130
Nsg131
Nsg133
Nsg135
Nsg136
Nsg137
Nsg138
Nsg139
Nsg140
Nsg142
Nsg143
Nsg144
Nsg146
Nsg147
Nsg148
Nsg150
Vmeetzahid
p427
sg152
Nsg153
VRana M Zahid
p428
sg155
Nsg157
Nsg159
I159736384
sg160
Nsbag3
(g117
g5
Ntp429
Rp430
(dp431
g10
Nsg122
Nsg124
Nsg126
Nsg127
Nsg128
Nsg96
Nsg130
Nsg131
Nsg133
Nsg135
Nsg136
Nsg137
Nsg138
Nsg139
Nsg140
Nsg142
Nsg143
Nsg144
Nsg146
Nsg147
Nsg148
Nsg150
VSirajOfficial
p432
sg152
Nsg153
VSiraj ul Haq
p433
sg155
Nsg157
Nsg159
I549630210
sg160
Nsbag3
(g117
g5
Ntp434
Rp435
(dp436
g10
Nsg122
Nsg124
Nsg126
Nsg127
Nsg128
Nsg96
Nsg130
Nsg131
Nsg133
Nsg135
Nsg136
Nsg137
Nsg138
Nsg139
Nsg140
Nsg142
Nsg143
Nsg144
Nsg146
Nsg147
Nsg148
Nsg150
Vliaqatbalochji
p437
sg152
Nsg153
VLiaqat Baloch
p438
sg155
Nsg157
Nsg159
I456769589
sg160
Nsbag3
(g117
g5
Ntp439
Rp440
(dp441
g10
Nsg122
Nsg124
Nsg126
Nsg127
Nsg128
Nsg96
Nsg130
Nsg131
Nsg133
Nsg135
Nsg136
Nsg137
Nsg138
Nsg139
Nsg140
Nsg142
Nsg143
Nsg144
Nsg146
Nsg147
Nsg148
Nsg150
VShamsAmjadJI
p442
sg152
Nsg153
VShamsuddin Amjad
p443
sg155
Nsg157
Nsg159
I1305542004
sg160
Nsbag3
(g117
g5
Ntp444
Rp445
(dp446
g10
Nsg122
Nsg124
Nsg126
Nsg127
Nsg128
Nsg96
Nsg130
Nsg131
Nsg133
Nsg135
Nsg136
Nsg137
Nsg138
Nsg139
Nsg140
Nsg142
Nsg143
Nsg144
Nsg146
Nsg147
Nsg148
Nsg150
VSaadMaqsood2
p447
sg152
Nsg153
VSaad Maqsood
p448
sg155
Nsg157
Nsg159
I519419812
sg160
Nsbag3
(g117
g5
Ntp449
Rp450
(dp451
g10
Nsg122
Nsg124
Nsg126
Nsg127
Nsg128
Nsg96
Nsg130
Nsg131
Nsg133
Nsg135
Nsg136
Nsg137
Nsg138
Nsg139
Nsg140
Nsg142
Nsg143
Nsg144
Nsg146
Nsg147
Nsg148
Nsg150
Vuabas
p452
sg152
Nsg153
Vumer abbas 
p453
sg155
Nsg157
Nsg159
I123792883
sg160
Nsbag3
(g117
g5
Ntp454
Rp455
(dp456
g10
Nsg122
Nsg124
Nsg126
Nsg127
Nsg128
Nsg96
Nsg130
Nsg131
Nsg133
Nsg135
Nsg136
Nsg137
Nsg138
Nsg139
Nsg140
Nsg142
Nsg143
Nsg144
Nsg146
Nsg147
Nsg148
Nsg150
Vdrmerajs
p457
sg152
Nsg153
Vdr.meraj siddiqui
p458
sg155
Nsg157
Nsg159
I146353906
sg160
Nsbasg108
Nsg109
Nsg110
Nsg111
VRT @meetzahid: #Love You #Pakistan\u000a#MyCountry #MyPakistan #IslamiPakistan \u000a@SirajOfficial @liaqatbalochji @ShamsAmjadJI @SaadMaqsood2 @uaba\u2026
p459
sg113
I00
sg114
Vund
p460
sg116
g3
(g117
g5
Ntp461
Rp462
(dp463
g10
VKarachi
p464
sg122
V333333
p465
sg124
Ven
p466
sg126
Nsg127
I2236
sg128
I33444
sg96
VSun Oct 13 10:11:19 +0000 2013
p467
sg130
I00
sg131
g234
sg133
Vhttps://pbs.twimg.com/profile_images/424960110956650496/RzeO6zE3_normal.jpeg
p468
sg135
I1999
sg136
I41237
sg137
Nsg138
Nsg139
I00
sg140
Vhttps://pbs.twimg.com/profile_banners/712399965/1385041858
p469
sg142
I00
sg143
I00
sg144
V0084B4
p470
sg146
I01
sg147
I00
sg148
Vhttp://abs.twimg.com/images/themes/theme1/bg.png
p471
sg150
Vnshaikh6677
p472
sg152
I27
sg153
VNasrullah Shaikh
p473
sg155
VDDEEF6
p474
sg157
Nsg159
I712399965
sg160
VC0DEED
p475
sbsg162
I3
sg163
V<a href="http://twitter.com/download/android" rel="nofollow">Twitter for Android</a>
p476
sg165
(lp477
sg159
I544204520167714816
sbag3
(g4
g5
Ntp478
Rp479
(dp480
g9
I0
sg10
Nsg11
Nsg12
(lp481
sg28
I00
sg29
g3
(g4
g5
Ntp482
Rp483
(dp484
g9
I23
sg10
Nsg11
Nsg12
(lp485
sg28
I00
sg29
Nsg46
Nsg47
(lp486
(dp487
Vsource_user_id
p488
I253003217
sVsource_status_id_str
p489
V428306667969576960
p490
sVexpanded_url
p491
Vhttp://twitter.com/CutestAnimalsPi/status/428306667969576960/photo/1
p492
sVdisplay_url
p493
Vpic.twitter.com/KjLo2miCkp
p494
sVurl
p495
Vhttp://t.co/KjLo2miCkp
p496
sVmedia_url_https
p497
Vhttps://pbs.twimg.com/media/BfGmpS_CAAAjXNj.jpg
p498
sVsource_user_id_str
p499
V253003217
p500
sVsource_status_id
p501
I428306667969576960
sVid_str
p502
V428306667977965568
p503
sVsizes
p504
(dp505
Vlarge
p506
(dp507
Vh
p508
I640
sVresize
p509
Vfit
p510
sVw
p511
I1024
ssVsmall
p512
(dp513
Vh
p514
I212
sVresize
p515
Vfit
p516
sVw
p517
I340
ssVmedium
p518
(dp519
Vh
p520
I375
sVresize
p521
Vfit
p522
sVw
p523
I600
ssVthumb
p524
(dp525
Vh
p526
I150
sVresize
p527
Vcrop
p528
sVw
p529
I150
sssVindices
p530
(lp531
I0
aI22
asVtype
p532
Vphoto
p533
sVid
p534
I428306667977965568
sVmedia_url
p535
Vhttp://pbs.twimg.com/media/BfGmpS_CAAAjXNj.jpg
p536
sasg93
Nsg94
Nsg95
Nsg96
VSun Dec 14 00:00:03 +0000 2014
p537
sg98
Nsg99
I00
sg100
Nsg101
Nsg102
Nsg103
Nsg104
I00
sg105
Nsg106
(lp538
sg108
Nsg109
Nsg110
Nsg111
Vhttp://t.co/KjLo2miCkp
p539
sg113
I00
sg114
Vund
p540
sg116
g3
(g117
g5
Ntp541
Rp542
(dp543
g10
g234
sg122
V333333
p544
sg124
Ven
p545
sg126
VCentral Time (US & Canada)
p546
sg127
I34422
sg128
I16813
sg96
VWed Feb 16 10:49:50 +0000 2011
p547
sg130
I00
sg131
g234
sg133
Vhttps://pbs.twimg.com/profile_images/428607162948919296/acIWGxG__normal.jpeg
p548
sg135
I24737
sg136
I0
sg137
I-21600
sg138
Nsg139
I00
sg140
Vhttps://pbs.twimg.com/profile_banners/253003190/1391023238
p549
sg142
I00
sg143
I00
sg144
VFF3300
p550
sg146
I00
sg147
I00
sg148
Vhttp://abs.twimg.com/images/themes/theme6/bg.gif
p551
sg150
VCutestAnimalsPh
p552
sg152
I145
sg153
VCutest Animals
p553
sg155
VA0C5C7
p554
sg157
Nsg159
I253003190
sg160
V709397
p555
sbsg162
I21
sg163
V<a href="http://www.kucukbeyin.com/" rel="nofollow">CutePuppyPhoto</a>
p556
sg165
(lp557
sg159
I543918302834085890
sbsg46
Nsg47
(lp558
(dp559
Vsource_user_id
p560
I253003217
sVsource_status_id_str
p561
V428306667969576960
p562
sVexpanded_url
p563
Vhttp://twitter.com/CutestAnimalsPi/status/428306667969576960/photo/1
p564
sVdisplay_url
p565
Vpic.twitter.com/KjLo2miCkp
p566
sVurl
p567
Vhttp://t.co/KjLo2miCkp
p568
sVmedia_url_https
p569
Vhttps://pbs.twimg.com/media/BfGmpS_CAAAjXNj.jpg
p570
sVsource_user_id_str
p571
V253003217
p572
sVsource_status_id
p573
I428306667969576960
sVid_str
p574
V428306667977965568
p575
sVsizes
p576
(dp577
Vlarge
p578
(dp579
Vh
p580
I640
sVresize
p581
Vfit
p582
sVw
p583
I1024
ssVsmall
p584
(dp585
Vh
p586
I212
sVresize
p587
Vfit
p588
sVw
p589
I340
ssVmedium
p590
(dp591
Vh
p592
I375
sVresize
p593
Vfit
p594
sVw
p595
I600
ssVthumb
p596
(dp597
Vh
p598
I150
sVresize
p599
Vcrop
p600
sVw
p601
I150
sssVindices
p602
(lp603
I21
aI43
asVtype
p604
Vphoto
p605
sVid
p606
I428306667977965568
sVmedia_url
p607
Vhttp://pbs.twimg.com/media/BfGmpS_CAAAjXNj.jpg
p608
sasg93
Nsg94
Nsg95
Nsg96
VSun Dec 14 18:49:54 +0000 2014
p609
sg98
Nsg99
I00
sg100
Nsg101
Nsg102
Nsg103
Nsg104
I00
sg105
Nsg106
(lp610
g3
(g117
g5
Ntp611
Rp612
(dp613
g10
Nsg122
Nsg124
Nsg126
Nsg127
Nsg128
Nsg96
Nsg130
Nsg131
Nsg133
Nsg135
Nsg136
Nsg137
Nsg138
Nsg139
Nsg140
Nsg142
Nsg143
Nsg144
Nsg146
Nsg147
Nsg148
Nsg150
VCutestAnimalsPh
p614
sg152
Nsg153
VCutest Animals
p615
sg155
Nsg157
Nsg159
I253003190
sg160
Nsbasg108
Nsg109
Nsg110
Nsg111
VRT @CutestAnimalsPh: http://t.co/KjLo2miCkp
p616
sg113
I00
sg114
Vund
p617
sg116
g3
(g117
g5
Ntp618
Rp619
(dp620
g10
VKarachi
p621
sg122
V333333
p622
sg124
Ven
p623
sg126
Nsg127
I2236
sg128
I33444
sg96
VSun Oct 13 10:11:19 +0000 2013
p624
sg130
I00
sg131
g234
sg133
Vhttps://pbs.twimg.com/profile_images/424960110956650496/RzeO6zE3_normal.jpeg
p625
sg135
I1999
sg136
I41237
sg137
Nsg138
Nsg139
I00
sg140
Vhttps://pbs.twimg.com/profile_banners/712399965/1385041858
p626
sg142
I00
sg143
I00
sg144
V0084B4
p627
sg146
I01
sg147
I00
sg148
Vhttp://abs.twimg.com/images/themes/theme1/bg.png
p628
sg150
Vnshaikh6677
p629
sg152
I27
sg153
VNasrullah Shaikh
p630
sg155
VDDEEF6
p631
sg157
Nsg159
I712399965
sg160
VC0DEED
p632
sbsg162
I21
sg163
V<a href="http://twitter.com/download/android" rel="nofollow">Twitter for Android</a>
p633
sg165
(lp634
sg159
I544202638737166337
sbag3
(g4
g5
Ntp635
Rp636
(dp637
g9
I0
sg10
Nsg11
Nsg12
(lp638
sg28
I00
sg29
g3
(g4
g5
Ntp639
Rp640
(dp641
g9
I31
sg10
Nsg11
Nsg12
(lp642
sg28
I00
sg29
Nsg46
Nsg47
(lp643
(dp644
Vsource_user_id
p645
I253003217
sVsource_status_id_str
p646
V428472545952538624
p647
sVexpanded_url
p648
Vhttp://twitter.com/CutestAnimalsPi/status/428472545952538624/photo/1
p649
sVdisplay_url
p650
Vpic.twitter.com/9XcDMZurIe
p651
sVurl
p652
Vhttp://t.co/9XcDMZurIe
p653
sVmedia_url_https
p654
Vhttps://pbs.twimg.com/media/BfI9gqnCIAAbpDs.jpg
p655
sVsource_user_id_str
p656
V253003217
p657
sVsource_status_id
p658
I428472545952538624
sVid_str
p659
V428472545956732928
p660
sVsizes
p661
(dp662
Vlarge
p663
(dp664
Vh
p665
I640
sVresize
p666
Vfit
p667
sVw
p668
I1024
ssVsmall
p669
(dp670
Vh
p671
I212
sVresize
p672
Vfit
p673
sVw
p674
I340
ssVmedium
p675
(dp676
Vh
p677
I375
sVresize
p678
Vfit
p679
sVw
p680
I600
ssVthumb
p681
(dp682
Vh
p683
I150
sVresize
p684
Vcrop
p685
sVw
p686
I150
sssVindices
p687
(lp688
I0
aI22
asVtype
p689
Vphoto
p690
sVid
p691
I428472545956732928
sVmedia_url
p692
Vhttp://pbs.twimg.com/media/BfI9gqnCIAAbpDs.jpg
p693
sasg93
Nsg94
Nsg95
Nsg96
VSun Dec 14 01:00:03 +0000 2014
p694
sg98
Nsg99
I00
sg100
Nsg101
Nsg102
Nsg103
Nsg104
I00
sg105
Nsg106
(lp695
sg108
Nsg109
Nsg110
Nsg111
Vhttp://t.co/9XcDMZurIe
p696
sg113
I00
sg114
Vund
p697
sg116
g3
(g117
g5
Ntp698
Rp699
(dp700
g10
g234
sg122
V333333
p701
sg124
Ven
p702
sg126
VCentral Time (US & Canada)
p703
sg127
I34422
sg128
I16813
sg96
VWed Feb 16 10:49:50 +0000 2011
p704
sg130
I00
sg131
g234
sg133
Vhttps://pbs.twimg.com/profile_images/428607162948919296/acIWGxG__normal.jpeg
p705
sg135
I24737
sg136
I0
sg137
I-21600
sg138
Nsg139
I00
sg140
Vhttps://pbs.twimg.com/profile_banners/253003190/1391023238
p706
sg142
I00
sg143
I00
sg144
VFF3300
p707
sg146
I00
sg147
I00
sg148
Vhttp://abs.twimg.com/images/themes/theme6/bg.gif
p708
sg150
VCutestAnimalsPh
p709
sg152
I145
sg153
VCutest Animals
p710
sg155
VA0C5C7
p711
sg157
Nsg159
I253003190
sg160
V709397
p712
sbsg162
I21
sg163
V<a href="http://www.kucukbeyin.com/" rel="nofollow">CutePuppyPhoto</a>
p713
sg165
(lp714
sg159
I543933401787428866
sbsg46
Nsg47
(lp715
(dp716
Vsource_user_id
p717
I253003217
sVsource_status_id_str
p718
V428472545952538624
p719
sVexpanded_url
p720
Vhttp://twitter.com/CutestAnimalsPi/status/428472545952538624/photo/1
p721
sVdisplay_url
p722
Vpic.twitter.com/9XcDMZurIe
p723
sVurl
p724
Vhttp://t.co/9XcDMZurIe
p725
sVmedia_url_https
p726
Vhttps://pbs.twimg.com/media/BfI9gqnCIAAbpDs.jpg
p727
sVsource_user_id_str
p728
V253003217
p729
sVsource_status_id
p730
I428472545952538624
sVid_str
p731
V428472545956732928
p732
sVsizes
p733
(dp734
Vlarge
p735
(dp736
Vh
p737
I640
sVresize
p738
Vfit
p739
sVw
p740
I1024
ssVsmall
p741
(dp742
Vh
p743
I212
sVresize
p744
Vfit
p745
sVw
p746
I340
ssVmedium
p747
(dp748
Vh
p749
I375
sVresize
p750
Vfit
p751
sVw
p752
I600
ssVthumb
p753
(dp754
Vh
p755
I150
sVresize
p756
Vcrop
p757
sVw
p758
I150
sssVindices
p759
(lp760
I21
aI43
asVtype
p761
Vphoto
p762
sVid
p763
I428472545956732928
sVmedia_url
p764
Vhttp://pbs.twimg.com/media/BfI9gqnCIAAbpDs.jpg
p765
sasg93
Nsg94
Nsg95
Nsg96
VSun Dec 14 18:49:51 +0000 2014
p766
sg98
Nsg99
I00
sg100
Nsg101
Nsg102
Nsg103
Nsg104
I00
sg105
Nsg106
(lp767
g3
(g117
g5
Ntp768
Rp769
(dp770
g10
Nsg122
Nsg124
Nsg126
Nsg127
Nsg128
Nsg96
Nsg130
Nsg131
Nsg133
Nsg135
Nsg136
Nsg137
Nsg138
Nsg139
Nsg140
Nsg142
Nsg143
Nsg144
Nsg146
Nsg147
Nsg148
Nsg150
VCutestAnimalsPh
p771
sg152
Nsg153
VCutest Animals
p772
sg155
Nsg157
Nsg159
I253003190
sg160
Nsbasg108
Nsg109
Nsg110
Nsg111
VRT @CutestAnimalsPh: http://t.co/9XcDMZurIe
p773
sg113
I00
sg114
Vund
p774
sg116
g3
(g117
g5
Ntp775
Rp776
(dp777
g10
VKarachi
p778
sg122
V333333
p779
sg124
Ven
p780
sg126
Nsg127
I2236
sg128
I33444
sg96
VSun Oct 13 10:11:19 +0000 2013
p781
sg130
I00
sg131
g234
sg133
Vhttps://pbs.twimg.com/profile_images/424960110956650496/RzeO6zE3_normal.jpeg
p782
sg135
I1999
sg136
I41237
sg137
Nsg138
Nsg139
I00
sg140
Vhttps://pbs.twimg.com/profile_banners/712399965/1385041858
p783
sg142
I00
sg143
I00
sg144
V0084B4
p784
sg146
I01
sg147
I00
sg148
Vhttp://abs.twimg.com/images/themes/theme1/bg.png
p785
sg150
Vnshaikh6677
p786
sg152
I27
sg153
VNasrullah Shaikh
p787
sg155
VDDEEF6
p788
sg157
Nsg159
I712399965
sg160
VC0DEED
p789
sbsg162
I21
sg163
V<a href="http://twitter.com/download/android" rel="nofollow">Twitter for Android</a>
p790
sg165
(lp791
sg159
I544202623964823554
sbag3
(g4
g5
Ntp792
Rp793
(dp794
g9
I0
sg10
Nsg11
Nsg12
(lp795
sg28
I00
sg29
g3
(g4
g5
Ntp796
Rp797
(dp798
g9
I47
sg10
Nsg11
Nsg12
(lp799
sg28
I00
sg29
Nsg46
Nsg47
(lp800
(dp801
Vsource_user_id
p802
I253003217
sVsource_status_id_str
p803
V428676585018118145
p804
sVexpanded_url
p805
Vhttp://twitter.com/CutestAnimalsPi/status/428676585018118145/photo/1
p806
sVdisplay_url
p807
Vpic.twitter.com/ZOcGZGyctD
p808
sVurl
p809
Vhttp://t.co/ZOcGZGyctD
p810
sVmedia_url_https
p811
Vhttps://pbs.twimg.com/media/BfL3FSuIcAAXIyJ.jpg
p812
sVsource_user_id_str
p813
V253003217
p814
sVsource_status_id
p815
I428676585018118145
sVid_str
p816
V428676584850354176
p817
sVsizes
p818
(dp819
Vlarge
p820
(dp821
Vh
p822
I433
sVresize
p823
Vfit
p824
sVw
p825
I500
ssVsmall
p826
(dp827
Vh
p828
I294
sVresize
p829
Vfit
p830
sVw
p831
I340
ssVmedium
p832
(dp833
Vh
p834
I433
sVresize
p835
Vfit
p836
sVw
p837
I500
ssVthumb
p838
(dp839
Vh
p840
I150
sVresize
p841
Vcrop
p842
sVw
p843
I150
sssVindices
p844
(lp845
I0
aI22
asVtype
p846
Vphoto
p847
sVid
p848
I428676584850354176
sVmedia_url
p849
Vhttp://pbs.twimg.com/media/BfL3FSuIcAAXIyJ.jpg
p850
sasg93
Nsg94
Nsg95
Nsg96
VSun Dec 14 01:30:03 +0000 2014
p851
sg98
Nsg99
I00
sg100
Nsg101
Nsg102
Nsg103
Nsg104
I00
sg105
Nsg106
(lp852
sg108
Nsg109
Nsg110
Nsg111
Vhttp://t.co/ZOcGZGyctD
p853
sg113
I00
sg114
Vund
p854
sg116
g3
(g117
g5
Ntp855
Rp856
(dp857
g10
g234
sg122
V333333
p858
sg124
Ven
p859
sg126
VCentral Time (US & Canada)
p860
sg127
I34422
sg128
I16813
sg96
VWed Feb 16 10:49:50 +0000 2011
p861
sg130
I00
sg131
g234
sg133
Vhttps://pbs.twimg.com/profile_images/428607162948919296/acIWGxG__normal.jpeg
p862
sg135
I24737
sg136
I0
sg137
I-21600
sg138
Nsg139
I00
sg140
Vhttps://pbs.twimg.com/profile_banners/253003190/1391023238
p863
sg142
I00
sg143
I00
sg144
VFF3300
p864
sg146
I00
sg147
I00
sg148
Vhttp://abs.twimg.com/images/themes/theme6/bg.gif
p865
sg150
VCutestAnimalsPh
p866
sg152
I145
sg153
VCutest Animals
p867
sg155
VA0C5C7
p868
sg157
Nsg159
I253003190
sg160
V709397
p869
sbsg162
I49
sg163
V<a href="http://www.kucukbeyin.com/" rel="nofollow">CutePuppyPhoto</a>
p870
sg165
(lp871
sg159
I543940952717402112
sbsg46
Nsg47
(lp872
(dp873
Vsource_user_id
p874
I253003217
sVsource_status_id_str
p875
V428676585018118145
p876
sVexpanded_url
p877
Vhttp://twitter.com/CutestAnimalsPi/status/428676585018118145/photo/1
p878
sVdisplay_url
p879
Vpic.twitter.com/ZOcGZGyctD
p880
sVurl
p881
Vhttp://t.co/ZOcGZGyctD
p882
sVmedia_url_https
p883
Vhttps://pbs.twimg.com/media/BfL3FSuIcAAXIyJ.jpg
p884
sVsource_user_id_str
p885
V253003217
p886
sVsource_status_id
p887
I428676585018118145
sVid_str
p888
V428676584850354176
p889
sVsizes
p890
(dp891
Vlarge
p892
(dp893
Vh
p894
I433
sVresize
p895
Vfit
p896
sVw
p897
I500
ssVsmall
p898
(dp899
Vh
p900
I294
sVresize
p901
Vfit
p902
sVw
p903
I340
ssVmedium
p904
(dp905
Vh
p906
I433
sVresize
p907
Vfit
p908
sVw
p909
I500
ssVthumb
p910
(dp911
Vh
p912
I150
sVresize
p913
Vcrop
p914
sVw
p915
I150
sssVindices
p916
(lp917
I21
aI43
asVtype
p918
Vphoto
p919
sVid
p920
I428676584850354176
sVmedia_url
p921
Vhttp://pbs.twimg.com/media/BfL3FSuIcAAXIyJ.jpg
p922
sasg93
Nsg94
Nsg95
Nsg96
VSun Dec 14 18:49:48 +0000 2014
p923
sg98
Nsg99
I00
sg100
Nsg101
Nsg102
Nsg103
Nsg104
I00
sg105
Nsg106
(lp924
g3
(g117
g5
Ntp925
Rp926
(dp927
g10
Nsg122
Nsg124
Nsg126
Nsg127
Nsg128
Nsg96
Nsg130
Nsg131
Nsg133
Nsg135
Nsg136
Nsg137
Nsg138
Nsg139
Nsg140
Nsg142
Nsg143
Nsg144
Nsg146
Nsg147
Nsg148
Nsg150
VCutestAnimalsPh
p928
sg152
Nsg153
VCutest Animals
p929
sg155
Nsg157
Nsg159
I253003190
sg160
Nsbasg108
Nsg109
Nsg110
Nsg111
VRT @CutestAnimalsPh: http://t.co/ZOcGZGyctD
p930
sg113
I00
sg114
Vund
p931
sg116
g3
(g117
g5
Ntp932
Rp933
(dp934
g10
VKarachi
p935
sg122
V333333
p936
sg124
Ven
p937
sg126
Nsg127
I2236
sg128
I33444
sg96
VSun Oct 13 10:11:19 +0000 2013
p938
sg130
I00
sg131
g234
sg133
Vhttps://pbs.twimg.com/profile_images/424960110956650496/RzeO6zE3_normal.jpeg
p939
sg135
I1999
sg136
I41237
sg137
Nsg138
Nsg139
I00
sg140
Vhttps://pbs.twimg.com/profile_banners/712399965/1385041858
p940
sg142
I00
sg143
I00
sg144
V0084B4
p941
sg146
I01
sg147
I00
sg148
Vhttp://abs.twimg.com/images/themes/theme1/bg.png
p942
sg150
Vnshaikh6677
p943
sg152
I27
sg153
VNasrullah Shaikh
p944
sg155
VDDEEF6
p945
sg157
Nsg159
I712399965
sg160
VC0DEED
p946
sbsg162
I49
sg163
V<a href="http://twitter.com/download/android" rel="nofollow">Twitter for Android</a>
p947
sg165
(lp948
sg159
I544202613256769537
sbag3
(g4
g5
Ntp949
Rp950
(dp951
g9
I0
sg10
Nsg11
Nsg12
(lp952
sg28
I00
sg29
g3
(g4
g5
Ntp953
Rp954
(dp955
g9
I42
sg10
Nsg11
Nsg12
(lp956
sg28
I00
sg29
Nsg46
Nsg47
(lp957
(dp958
Vsource_user_id
p959
I253003217
sVsource_status_id_str
p960
V428915011268796417
p961
sVexpanded_url
p962
Vhttp://twitter.com/CutestAnimalsPi/status/428915011268796417/photo/1
p963
sVdisplay_url
p964
Vpic.twitter.com/2WdApAdTZ9
p965
sVurl
p966
Vhttp://t.co/2WdApAdTZ9
p967
sVmedia_url_https
p968
Vhttps://pbs.twimg.com/media/BfPP7iYCYAAOhPS.jpg
p969
sVsource_user_id_str
p970
V253003217
p971
sVsource_status_id
p972
I428915011268796417
sVid_str
p973
V428915011277185024
p974
sVsizes
p975
(dp976
Vsmall
p977
(dp978
Vh
p979
I191
sVresize
p980
Vfit
p981
sVw
p982
I340
ssVlarge
p983
(dp984
Vh
p985
I576
sVresize
p986
Vfit
p987
sVw
p988
I1024
ssVmedium
p989
(dp990
Vh
p991
I337
sVresize
p992
Vfit
p993
sVw
p994
I600
ssVthumb
p995
(dp996
Vh
p997
I150
sVresize
p998
Vcrop
p999
sVw
p1000
I150
sssVindices
p1001
(lp1002
I0
aI22
asVtype
p1003
Vphoto
p1004
sVid
p1005
I428915011277185024
sVmedia_url
p1006
Vhttp://pbs.twimg.com/media/BfPP7iYCYAAOhPS.jpg
p1007
sasg93
Nsg94
Nsg95
Nsg96
VSun Dec 14 02:00:04 +0000 2014
p1008
sg98
Nsg99
I00
sg100
Nsg101
Nsg102
Nsg103
Nsg104
I00
sg105
Nsg106
(lp1009
sg108
Nsg109
Nsg110
Nsg111
Vhttp://t.co/2WdApAdTZ9
p1010
sg113
I00
sg114
Vund
p1011
sg116
g3
(g117
g5
Ntp1012
Rp1013
(dp1014
g10
g234
sg122
V333333
p1015
sg124
Ven
p1016
sg126
VCentral Time (US & Canada)
p1017
sg127
I34422
sg128
I16813
sg96
VWed Feb 16 10:49:50 +0000 2011
p1018
sg130
I00
sg131
g234
sg133
Vhttps://pbs.twimg.com/profile_images/428607162948919296/acIWGxG__normal.jpeg
p1019
sg135
I24737
sg136
I0
sg137
I-21600
sg138
Nsg139
I00
sg140
Vhttps://pbs.twimg.com/profile_banners/253003190/1391023238
p1020
sg142
I00
sg143
I00
sg144
VFF3300
p1021
sg146
I00
sg147
I00
sg148
Vhttp://abs.twimg.com/images/themes/theme6/bg.gif
p1022
sg150
VCutestAnimalsPh
p1023
sg152
I145
sg153
VCutest Animals
p1024
sg155
VA0C5C7
p1025
sg157
Nsg159
I253003190
sg160
V709397
p1026
sbsg162
I33
sg163
V<a href="http://www.kucukbeyin.com/" rel="nofollow">CutePuppyPhoto</a>
p1027
sg165
(lp1028
sg159
I543948504196870145
sbsg46
Nsg47
(lp1029
(dp1030
Vsource_user_id
p1031
I253003217
sVsource_status_id_str
p1032
V428915011268796417
p1033
sVexpanded_url
p1034
Vhttp://twitter.com/CutestAnimalsPi/status/428915011268796417/photo/1
p1035
sVdisplay_url
p1036
Vpic.twitter.com/2WdApAdTZ9
p1037
sVurl
p1038
Vhttp://t.co/2WdApAdTZ9
p1039
sVmedia_url_https
p1040
Vhttps://pbs.twimg.com/media/BfPP7iYCYAAOhPS.jpg
p1041
sVsource_user_id_str
p1042
V253003217
p1043
sVsource_status_id
p1044
I428915011268796417
sVid_str
p1045
V428915011277185024
p1046
sVsizes
p1047
(dp1048
Vsmall
p1049
(dp1050
Vh
p1051
I191
sVresize
p1052
Vfit
p1053
sVw
p1054
I340
ssVlarge
p1055
(dp1056
Vh
p1057
I576
sVresize
p1058
Vfit
p1059
sVw
p1060
I1024
ssVmedium
p1061
(dp1062
Vh
p1063
I337
sVresize
p1064
Vfit
p1065
sVw
p1066
I600
ssVthumb
p1067
(dp1068
Vh
p1069
I150
sVresize
p1070
Vcrop
p1071
sVw
p1072
I150
sssVindices
p1073
(lp1074
I21
aI43
asVtype
p1075
Vphoto
p1076
sVid
p1077
I428915011277185024
sVmedia_url
p1078
Vhttp://pbs.twimg.com/media/BfPP7iYCYAAOhPS.jpg
p1079
sasg93
Nsg94
Nsg95
Nsg96
VSun Dec 14 18:49:45 +0000 2014
p1080
sg98
Nsg99
I00
sg100
Nsg101
Nsg102
Nsg103
Nsg104
I00
sg105
Nsg106
(lp1081
g3
(g117
g5
Ntp1082
Rp1083
(dp1084
g10
Nsg122
Nsg124
Nsg126
Nsg127
Nsg128
Nsg96
Nsg130
Nsg131
Nsg133
Nsg135
Nsg136
Nsg137
Nsg138
Nsg139
Nsg140
Nsg142
Nsg143
Nsg144
Nsg146
Nsg147
Nsg148
Nsg150
VCutestAnimalsPh
p1085
sg152
Nsg153
VCutest Animals
p1086
sg155
Nsg157
Nsg159
I253003190
sg160
Nsbasg108
Nsg109
Nsg110
Nsg111
VRT @CutestAnimalsPh: http://t.co/2WdApAdTZ9
p1087
sg113
I00
sg114
Vund
p1088
sg116
g3
(g117
g5
Ntp1089
Rp1090
(dp1091
g10
VKarachi
p1092
sg122
V333333
p1093
sg124
Ven
p1094
sg126
Nsg127
I2236
sg128
I33444
sg96
VSun Oct 13 10:11:19 +0000 2013
p1095
sg130
I00
sg131
g234
sg133
Vhttps://pbs.twimg.com/profile_images/424960110956650496/RzeO6zE3_normal.jpeg
p1096
sg135
I1999
sg136
I41237
sg137
Nsg138
Nsg139
I00
sg140
Vhttps://pbs.twimg.com/profile_banners/712399965/1385041858
p1097
sg142
I00
sg143
I00
sg144
V0084B4
p1098
sg146
I01
sg147
I00
sg148
Vhttp://abs.twimg.com/images/themes/theme1/bg.png
p1099
sg150
Vnshaikh6677
p1100
sg152
I27
sg153
VNasrullah Shaikh
p1101
sg155
VDDEEF6
p1102
sg157
Nsg159
I712399965
sg160
VC0DEED
p1103
sbsg162
I33
sg163
V<a href="http://twitter.com/download/android" rel="nofollow">Twitter for Android</a>
p1104
sg165
(lp1105
sg159
I544202602271887360
sbag3
(g4
g5
Ntp1106
Rp1107
(dp1108
g9
I0
sg10
Nsg11
Nsg12
(lp1109
sg28
I00
sg29
g3
(g4
g5
Ntp1110
Rp1111
(dp1112
g9
I29
sg10
Nsg11
Nsg12
(lp1113
sg28
I00
sg29
Nsg46
Nsg47
(lp1114
(dp1115
Vsource_user_id
p1116
I253003217
sVsource_status_id_str
p1117
V429139662222143488
p1118
sVexpanded_url
p1119
Vhttp://twitter.com/CutestAnimalsPi/status/429139662222143488/photo/1
p1120
sVdisplay_url
p1121
Vpic.twitter.com/cHBGMZFzIs
p1122
sVurl
p1123
Vhttp://t.co/cHBGMZFzIs
p1124
sVmedia_url_https
p1125
Vhttps://pbs.twimg.com/media/BfScP72IMAAd9t3.jpg
p1126
sVsource_user_id_str
p1127
V253003217
p1128
sVsource_status_id
p1129
I429139662222143488
sVid_str
p1130
V429139662083731456
p1131
sVsizes
p1132
(dp1133
Vlarge
p1134
(dp1135
Vh
p1136
I640
sVresize
p1137
Vfit
p1138
sVw
p1139
I426
ssVsmall
p1140
(dp1141
Vh
p1142
I509
sVresize
p1143
Vfit
p1144
sVw
p1145
I340
ssVmedium
p1146
(dp1147
Vh
p1148
I640
sVresize
p1149
Vfit
p1150
sVw
p1151
I426
ssVthumb
p1152
(dp1153
Vh
p1154
I150
sVresize
p1155
Vcrop
p1156
sVw
p1157
I150
sssVindices
p1158
(lp1159
I0
aI22
asVtype
p1160
Vphoto
p1161
sVid
p1162
I429139662083731456
sVmedia_url
p1163
Vhttp://pbs.twimg.com/media/BfScP72IMAAd9t3.jpg
p1164
sasg93
Nsg94
Nsg95
Nsg96
VSun Dec 14 02:30:03 +0000 2014
p1165
sg98
Nsg99
I00
sg100
Nsg101
Nsg102
Nsg103
Nsg104
I00
sg105
Nsg106
(lp1166
sg108
Nsg109
Nsg110
Nsg111
Vhttp://t.co/cHBGMZFzIs
p1167
sg113
I00
sg114
Vund
p1168
sg116
g3
(g117
g5
Ntp1169
Rp1170
(dp1171
g10
g234
sg122
V333333
p1172
sg124
Ven
p1173
sg126
VCentral Time (US & Canada)
p1174
sg127
I34422
sg128
I16813
sg96
VWed Feb 16 10:49:50 +0000 2011
p1175
sg130
I00
sg131
g234
sg133
Vhttps://pbs.twimg.com/profile_images/428607162948919296/acIWGxG__normal.jpeg
p1176
sg135
I24737
sg136
I0
sg137
I-21600
sg138
Nsg139
I00
sg140
Vhttps://pbs.twimg.com/profile_banners/253003190/1391023238
p1177
sg142
I00
sg143
I00
sg144
VFF3300
p1178
sg146
I00
sg147
I00
sg148
Vhttp://abs.twimg.com/images/themes/theme6/bg.gif
p1179
sg150
VCutestAnimalsPh
p1180
sg152
I145
sg153
VCutest Animals
p1181
sg155
VA0C5C7
p1182
sg157
Nsg159
I253003190
sg160
V709397
p1183
sbsg162
I20
sg163
V<a href="http://www.kucukbeyin.com/" rel="nofollow">CutePuppyPhoto</a>
p1184
sg165
(lp1185
sg159
I543956052148908032
sbsg46
Nsg47
(lp1186
(dp1187
Vsource_user_id
p1188
I253003217
sVsource_status_id_str
p1189
V429139662222143488
p1190
sVexpanded_url
p1191
Vhttp://twitter.com/CutestAnimalsPi/status/429139662222143488/photo/1
p1192
sVdisplay_url
p1193
Vpic.twitter.com/cHBGMZFzIs
p1194
sVurl
p1195
Vhttp://t.co/cHBGMZFzIs
p1196
sVmedia_url_https
p1197
Vhttps://pbs.twimg.com/media/BfScP72IMAAd9t3.jpg
p1198
sVsource_user_id_str
p1199
V253003217
p1200
sVsource_status_id
p1201
I429139662222143488
sVid_str
p1202
V429139662083731456
p1203
sVsizes
p1204
(dp1205
Vlarge
p1206
(dp1207
Vh
p1208
I640
sVresize
p1209
Vfit
p1210
sVw
p1211
I426
ssVsmall
p1212
(dp1213
Vh
p1214
I509
sVresize
p1215
Vfit
p1216
sVw
p1217
I340
ssVmedium
p1218
(dp1219
Vh
p1220
I640
sVresize
p1221
Vfit
p1222
sVw
p1223
I426
ssVthumb
p1224
(dp1225
Vh
p1226
I150
sVresize
p1227
Vcrop
p1228
sVw
p1229
I150
sssVindices
p1230
(lp1231
I21
aI43
asVtype
p1232
Vphoto
p1233
sVid
p1234
I429139662083731456
sVmedia_url
p1235
Vhttp://pbs.twimg.com/media/BfScP72IMAAd9t3.jpg
p1236
sasg93
Nsg94
Nsg95
Nsg96
VSun Dec 14 18:49:43 +0000 2014
p1237
sg98
Nsg99
I00
sg100
Nsg101
Nsg102
Nsg103
Nsg104
I00
sg105
Nsg106
(lp1238
g3
(g117
g5
Ntp1239
Rp1240
(dp1241
g10
Nsg122
Nsg124
Nsg126
Nsg127
Nsg128
Nsg96
Nsg130
Nsg131
Nsg133
Nsg135
Nsg136
Nsg137
Nsg138
Nsg139
Nsg140
Nsg142
Nsg143
Nsg144
Nsg146
Nsg147
Nsg148
Nsg150
VCutestAnimalsPh
p1242
sg152
Nsg153
VCutest Animals
p1243
sg155
Nsg157
Nsg159
I253003190
sg160
Nsbasg108
Nsg109
Nsg110
Nsg111
VRT @CutestAnimalsPh: http://t.co/cHBGMZFzIs
p1244
sg113
I00
sg114
Vund
p1245
sg116
g3
(g117
g5
Ntp1246
Rp1247
(dp1248
g10
VKarachi
p1249
sg122
V333333
p1250
sg124
Ven
p1251
sg126
Nsg127
I2236
sg128
I33444
sg96
VSun Oct 13 10:11:19 +0000 2013
p1252
sg130
I00
sg131
g234
sg133
Vhttps://pbs.twimg.com/profile_images/424960110956650496/RzeO6zE3_normal.jpeg
p1253
sg135
I1999
sg136
I41237
sg137
Nsg138
Nsg139
I00
sg140
Vhttps://pbs.twimg.com/profile_banners/712399965/1385041858
p1254
sg142
I00
sg143
I00
sg144
V0084B4
p1255
sg146
I01
sg147
I00
sg148
Vhttp://abs.twimg.com/images/themes/theme1/bg.png
p1256
sg150
Vnshaikh6677
p1257
sg152
I27
sg153
VNasrullah Shaikh
p1258
sg155
VDDEEF6
p1259
sg157
Nsg159
I712399965
sg160
VC0DEED
p1260
sbsg162
I20
sg163
V<a href="http://twitter.com/download/android" rel="nofollow">Twitter for Android</a>
p1261
sg165
(lp1262
sg159
I544202591693844480
sbag3
(g4
g5
Ntp1263
Rp1264
(dp1265
g9
I0
sg10
Nsg11
Nsg12
(lp1266
sg28
I00
sg29
g3
(g4
g5
Ntp1267
Rp1268
(dp1269
g9
I28
sg10
Nsg11
Nsg12
(lp1270
sg28
I00
sg29
Nsg46
Nsg47
(lp1271
(dp1272
Vsource_user_id
p1273
I253003217
sVsource_status_id_str
p1274
V429132077238607872
p1275
sVexpanded_url
p1276
Vhttp://twitter.com/CutestAnimalsPi/status/429132077238607872/photo/1
p1277
sVdisplay_url
p1278
Vpic.twitter.com/lzm1AR46vt
p1279
sVurl
p1280
Vhttp://t.co/lzm1AR46vt
p1281
sVmedia_url_https
p1282
Vhttps://pbs.twimg.com/media/BfSVWbfIIAA09ne.jpg
p1283
sVsource_user_id_str
p1284
V253003217
p1285
sVsource_status_id
p1286
I429132077238607872
sVid_str
p1287
V429132077075013632
p1288
sVsizes
p1289
(dp1290
Vlarge
p1291
(dp1292
Vh
p1293
I640
sVresize
p1294
Vfit
p1295
sVw
p1296
I426
ssVsmall
p1297
(dp1298
Vh
p1299
I510
sVresize
p1300
Vfit
p1301
sVw
p1302
I340
ssVmedium
p1303
(dp1304
Vh
p1305
I640
sVresize
p1306
Vfit
p1307
sVw
p1308
I426
ssVthumb
p1309
(dp1310
Vh
p1311
I150
sVresize
p1312
Vcrop
p1313
sVw
p1314
I150
sssVindices
p1315
(lp1316
I0
aI22
asVtype
p1317
Vphoto
p1318
sVid
p1319
I429132077075013632
sVmedia_url
p1320
Vhttp://pbs.twimg.com/media/BfSVWbfIIAA09ne.jpg
p1321
sasg93
Nsg94
Nsg95
Nsg96
VSun Dec 14 04:00:03 +0000 2014
p1322
sg98
Nsg99
I00
sg100
Nsg101
Nsg102
Nsg103
Nsg104
I00
sg105
Nsg106
(lp1323
sg108
Nsg109
Nsg110
Nsg111
Vhttp://t.co/lzm1AR46vt
p1324
sg113
I00
sg114
Vund
p1325
sg116
g3
(g117
g5
Ntp1326
Rp1327
(dp1328
g10
g234
sg122
V333333
p1329
sg124
Ven
p1330
sg126
VCentral Time (US & Canada)
p1331
sg127
I34422
sg128
I16813
sg96
VWed Feb 16 10:49:50 +0000 2011
p1332
sg130
I00
sg131
g234
sg133
Vhttps://pbs.twimg.com/profile_images/428607162948919296/acIWGxG__normal.jpeg
p1333
sg135
I24737
sg136
I0
sg137
I-21600
sg138
Nsg139
I00
sg140
Vhttps://pbs.twimg.com/profile_banners/253003190/1391023238
p1334
sg142
I00
sg143
I00
sg144
VFF3300
p1335
sg146
I00
sg147
I00
sg148
Vhttp://abs.twimg.com/images/themes/theme6/bg.gif
p1336
sg150
VCutestAnimalsPh
p1337
sg152
I145
sg153
VCutest Animals
p1338
sg155
VA0C5C7
p1339
sg157
Nsg159
I253003190
sg160
V709397
p1340
sbsg162
I22
sg163
V<a href="http://www.kucukbeyin.com/" rel="nofollow">CutePuppyPhoto</a>
p1341
sg165
(lp1342
sg159
I543978700526460928
sbsg46
Nsg47
(lp1343
(dp1344
Vsource_user_id
p1345
I253003217
sVsource_status_id_str
p1346
V429132077238607872
p1347
sVexpanded_url
p1348
Vhttp://twitter.com/CutestAnimalsPi/status/429132077238607872/photo/1
p1349
sVdisplay_url
p1350
Vpic.twitter.com/lzm1AR46vt
p1351
sVurl
p1352
Vhttp://t.co/lzm1AR46vt
p1353
sVmedia_url_https
p1354
Vhttps://pbs.twimg.com/media/BfSVWbfIIAA09ne.jpg
p1355
sVsource_user_id_str
p1356
V253003217
p1357
sVsource_status_id
p1358
I429132077238607872
sVid_str
p1359
V429132077075013632
p1360
sVsizes
p1361
(dp1362
Vlarge
p1363
(dp1364
Vh
p1365
I640
sVresize
p1366
Vfit
p1367
sVw
p1368
I426
ssVsmall
p1369
(dp1370
Vh
p1371
I510
sVresize
p1372
Vfit
p1373
sVw
p1374
I340
ssVmedium
p1375
(dp1376
Vh
p1377
I640
sVresize
p1378
Vfit
p1379
sVw
p1380
I426
ssVthumb
p1381
(dp1382
Vh
p1383
I150
sVresize
p1384
Vcrop
p1385
sVw
p1386
I150
sssVindices
p1387
(lp1388
I21
aI43
asVtype
p1389
Vphoto
p1390
sVid
p1391
I429132077075013632
sVmedia_url
p1392
Vhttp://pbs.twimg.com/media/BfSVWbfIIAA09ne.jpg
p1393
sasg93
Nsg94
Nsg95
Nsg96
VSun Dec 14 18:49:38 +0000 2014
p1394
sg98
Nsg99
I00
sg100
Nsg101
Nsg102
Nsg103
Nsg104
I00
sg105
Nsg106
(lp1395
g3
(g117
g5
Ntp1396
Rp1397
(dp1398
g10
Nsg122
Nsg124
Nsg126
Nsg127
Nsg128
Nsg96
Nsg130
Nsg131
Nsg133
Nsg135
Nsg136
Nsg137
Nsg138
Nsg139
Nsg140
Nsg142
Nsg143
Nsg144
Nsg146
Nsg147
Nsg148
Nsg150
VCutestAnimalsPh
p1399
sg152
Nsg153
VCutest Animals
p1400
sg155
Nsg157
Nsg159
I253003190
sg160
Nsbasg108
Nsg109
Nsg110
Nsg111
VRT @CutestAnimalsPh: http://t.co/lzm1AR46vt
p1401
sg113
I00
sg114
Vund
p1402
sg116
g3
(g117
g5
Ntp1403
Rp1404
(dp1405
g10
VKarachi
p1406
sg122
V333333
p1407
sg124
Ven
p1408
sg126
Nsg127
I2236
sg128
I33444
sg96
VSun Oct 13 10:11:19 +0000 2013
p1409
sg130
I00
sg131
g234
sg133
Vhttps://pbs.twimg.com/profile_images/424960110956650496/RzeO6zE3_normal.jpeg
p1410
sg135
I1999
sg136
I41237
sg137
Nsg138
Nsg139
I00
sg140
Vhttps://pbs.twimg.com/profile_banners/712399965/1385041858
p1411
sg142
I00
sg143
I00
sg144
V0084B4
p1412
sg146
I01
sg147
I00
sg148
Vhttp://abs.twimg.com/images/themes/theme1/bg.png
p1413
sg150
Vnshaikh6677
p1414
sg152
I27
sg153
VNasrullah Shaikh
p1415
sg155
VDDEEF6
p1416
sg157
Nsg159
I712399965
sg160
VC0DEED
p1417
sbsg162
I22
sg163
V<a href="http://twitter.com/download/android" rel="nofollow">Twitter for Android</a>
p1418
sg165
(lp1419
sg159
I544202572609761280
sbag3
(g4
g5
Ntp1420
Rp1421
(dp1422
g9
I0
sg10
Nsg11
Nsg12
(lp1423
sg28
I00
sg29
g3
(g4
g5
Ntp1424
Rp1425
(dp1426
g9
I53
sg10
Nsg11
Nsg12
(lp1427
sg28
I00
sg29
Nsg46
Nsg47
(lp1428
(dp1429
Vsource_user_id
p1430
I253003217
sVsource_status_id_str
p1431
V429042114597765120
p1432
sVexpanded_url
p1433
Vhttp://twitter.com/CutestAnimalsPi/status/429042114597765120/photo/1
p1434
sVdisplay_url
p1435
Vpic.twitter.com/istoFyDY6a
p1436
sVurl
p1437
Vhttp://t.co/istoFyDY6a
p1438
sVmedia_url_https
p1439
Vhttps://pbs.twimg.com/media/BfRDh62IMAEsOKz.jpg
p1440
sVsource_user_id_str
p1441
V253003217
p1442
sVsource_status_id
p1443
I429042114597765120
sVid_str
p1444
V429042114518069249
p1445
sVsizes
p1446
(dp1447
Vsmall
p1448
(dp1449
Vh
p1450
I212
sVresize
p1451
Vfit
p1452
sVw
p1453
I340
ssVlarge
p1454
(dp1455
Vh
p1456
I375
sVresize
p1457
Vfit
p1458
sVw
p1459
I600
ssVmedium
p1460
(dp1461
Vh
p1462
I375
sVresize
p1463
Vfit
p1464
sVw
p1465
I600
ssVthumb
p1466
(dp1467
Vh
p1468
I150
sVresize
p1469
Vcrop
p1470
sVw
p1471
I150
sssVindices
p1472
(lp1473
I0
aI22
asVtype
p1474
Vphoto
p1475
sVid
p1476
I429042114518069249
sVmedia_url
p1477
Vhttp://pbs.twimg.com/media/BfRDh62IMAEsOKz.jpg
p1478
sasg93
Nsg94
Nsg95
Nsg96
VSun Dec 14 06:30:03 +0000 2014
p1479
sg98
Nsg99
I00
sg100
Nsg101
Nsg102
Nsg103
Nsg104
I00
sg105
Nsg106
(lp1480
sg108
Nsg109
Nsg110
Nsg111
Vhttp://t.co/istoFyDY6a
p1481
sg113
I00
sg114
Vund
p1482
sg116
g3
(g117
g5
Ntp1483
Rp1484
(dp1485
g10
g234
sg122
V333333
p1486
sg124
Ven
p1487
sg126
VCentral Time (US & Canada)
p1488
sg127
I34422
sg128
I16813
sg96
VWed Feb 16 10:49:50 +0000 2011
p1489
sg130
I00
sg131
g234
sg133
Vhttps://pbs.twimg.com/profile_images/428607162948919296/acIWGxG__normal.jpeg
p1490
sg135
I24737
sg136
I0
sg137
I-21600
sg138
Nsg139
I00
sg140
Vhttps://pbs.twimg.com/profile_banners/253003190/1391023238
p1491
sg142
I00
sg143
I00
sg144
VFF3300
p1492
sg146
I00
sg147
I00
sg148
Vhttp://abs.twimg.com/images/themes/theme6/bg.gif
p1493
sg150
VCutestAnimalsPh
p1494
sg152
I145
sg153
VCutest Animals
p1495
sg155
VA0C5C7
p1496
sg157
Nsg159
I253003190
sg160
V709397
p1497
sbsg162
I36
sg163
V<a href="http://www.kucukbeyin.com/" rel="nofollow">CutePuppyPhoto</a>
p1498
sg165
(lp1499
sg159
I544016449417650176
sbsg46
Nsg47
(lp1500
(dp1501
Vsource_user_id
p1502
I253003217
sVsource_status_id_str
p1503
V429042114597765120
p1504
sVexpanded_url
p1505
Vhttp://twitter.com/CutestAnimalsPi/status/429042114597765120/photo/1
p1506
sVdisplay_url
p1507
Vpic.twitter.com/istoFyDY6a
p1508
sVurl
p1509
Vhttp://t.co/istoFyDY6a
p1510
sVmedia_url_https
p1511
Vhttps://pbs.twimg.com/media/BfRDh62IMAEsOKz.jpg
p1512
sVsource_user_id_str
p1513
V253003217
p1514
sVsource_status_id
p1515
I429042114597765120
sVid_str
p1516
V429042114518069249
p1517
sVsizes
p1518
(dp1519
Vsmall
p1520
(dp1521
Vh
p1522
I212
sVresize
p1523
Vfit
p1524
sVw
p1525
I340
ssVlarge
p1526
(dp1527
Vh
p1528
I375
sVresize
p1529
Vfit
p1530
sVw
p1531
I600
ssVmedium
p1532
(dp1533
Vh
p1534
I375
sVresize
p1535
Vfit
p1536
sVw
p1537
I600
ssVthumb
p1538
(dp1539
Vh
p1540
I150
sVresize
p1541
Vcrop
p1542
sVw
p1543
I150
sssVindices
p1544
(lp1545
I21
aI43
asVtype
p1546
Vphoto
p1547
sVid
p1548
I429042114518069249
sVmedia_url
p1549
Vhttp://pbs.twimg.com/media/BfRDh62IMAEsOKz.jpg
p1550
sasg93
Nsg94
Nsg95
Nsg96
VSun Dec 14 18:49:32 +0000 2014
p1551
sg98
Nsg99
I00
sg100
Nsg101
Nsg102
Nsg103
Nsg104
I00
sg105
Nsg106
(lp1552
g3
(g117
g5
Ntp1553
Rp1554
(dp1555
g10
Nsg122
Nsg124
Nsg126
Nsg127
Nsg128
Nsg96
Nsg130
Nsg131
Nsg133
Nsg135
Nsg136
Nsg137
Nsg138
Nsg139
Nsg140
Nsg142
Nsg143
Nsg144
Nsg146
Nsg147
Nsg148
Nsg150
VCutestAnimalsPh
p1556
sg152
Nsg153
VCutest Animals
p1557
sg155
Nsg157
Nsg159
I253003190
sg160
Nsbasg108
Nsg109
Nsg110
Nsg111
VRT @CutestAnimalsPh: http://t.co/istoFyDY6a
p1558
sg113
I00
sg114
Vund
p1559
sg116
g3
(g117
g5
Ntp1560
Rp1561
(dp1562
g10
VKarachi
p1563
sg122
V333333
p1564
sg124
Ven
p1565
sg126
Nsg127
I2236
sg128
I33444
sg96
VSun Oct 13 10:11:19 +0000 2013
p1566
sg130
I00
sg131
g234
sg133
Vhttps://pbs.twimg.com/profile_images/424960110956650496/RzeO6zE3_normal.jpeg
p1567
sg135
I1999
sg136
I41237
sg137
Nsg138
Nsg139
I00
sg140
Vhttps://pbs.twimg.com/profile_banners/712399965/1385041858
p1568
sg142
I00
sg143
I00
sg144
V0084B4
p1569
sg146
I01
sg147
I00
sg148
Vhttp://abs.twimg.com/images/themes/theme1/bg.png
p1570
sg150
Vnshaikh6677
p1571
sg152
I27
sg153
VNasrullah Shaikh
p1572
sg155
VDDEEF6
p1573
sg157
Nsg159
I712399965
sg160
VC0DEED
p1574
sbsg162
I36
sg163
V<a href="http://twitter.com/download/android" rel="nofollow">Twitter for Android</a>
p1575
sg165
(lp1576
sg159
I544202544897982464
sbag3
(g4
g5
Ntp1577
Rp1578
(dp1579
g9
I0
sg10
Nsg11
Nsg12
(lp1580
sg28
I00
sg29
g3
(g4
g5
Ntp1581
Rp1582
(dp1583
g9
I28
sg10
Nsg11
Nsg12
(lp1584
sg28
I00
sg29
Nsg46
Nsg47
(lp1585
(dp1586
Vsource_user_id
p1587
I253003217
sVsource_status_id_str
p1588
V429175812081086464
p1589
sVexpanded_url
p1590
Vhttp://twitter.com/CutestAnimalsPi/status/429175812081086464/photo/1
p1591
sVdisplay_url
p1592
Vpic.twitter.com/jl74XUEhAf
p1593
sVurl
p1594
Vhttp://t.co/jl74XUEhAf
p1595
sVmedia_url_https
p1596
Vhttps://pbs.twimg.com/media/BfS9IIqIIAAqWvF.jpg
p1597
sVsource_user_id_str
p1598
V253003217
p1599
sVsource_status_id
p1600
I429175812081086464
sVid_str
p1601
V429175811967819776
p1602
sVsizes
p1603
(dp1604
Vsmall
p1605
(dp1606
Vh
p1607
I510
sVresize
p1608
Vfit
p1609
sVw
p1610
I340
ssVlarge
p1611
(dp1612
Vh
p1613
I870
sVresize
p1614
Vfit
p1615
sVw
p1616
I580
ssVmedium
p1617
(dp1618
Vh
p1619
I870
sVresize
p1620
Vfit
p1621
sVw
p1622
I580
ssVthumb
p1623
(dp1624
Vh
p1625
I150
sVresize
p1626
Vcrop
p1627
sVw
p1628
I150
sssVindices
p1629
(lp1630
I0
aI22
asVtype
p1631
Vphoto
p1632
sVid
p1633
I429175811967819776
sVmedia_url
p1634
Vhttp://pbs.twimg.com/media/BfS9IIqIIAAqWvF.jpg
p1635
sasg93
Nsg94
Nsg95
Nsg96
VSun Dec 14 07:00:04 +0000 2014
p1636
sg98
Nsg99
I00
sg100
Nsg101
Nsg102
Nsg103
Nsg104
I00
sg105
Nsg106
(lp1637
sg108
Nsg109
Nsg110
Nsg111
Vhttp://t.co/jl74XUEhAf
p1638
sg113
I00
sg114
Vund
p1639
sg116
g3
(g117
g5
Ntp1640
Rp1641
(dp1642
g10
g234
sg122
V333333
p1643
sg124
Ven
p1644
sg126
VCentral Time (US & Canada)
p1645
sg127
I34422
sg128
I16813
sg96
VWed Feb 16 10:49:50 +0000 2011
p1646
sg130
I00
sg131
g234
sg133
Vhttps://pbs.twimg.com/profile_images/428607162948919296/acIWGxG__normal.jpeg
p1647
sg135
I24737
sg136
I0
sg137
I-21600
sg138
Nsg139
I00
sg140
Vhttps://pbs.twimg.com/profile_banners/253003190/1391023238
p1648
sg142
I00
sg143
I00
sg144
VFF3300
p1649
sg146
I00
sg147
I00
sg148
Vhttp://abs.twimg.com/images/themes/theme6/bg.gif
p1650
sg150
VCutestAnimalsPh
p1651
sg152
I145
sg153
VCutest Animals
p1652
sg155
VA0C5C7
p1653
sg157
Nsg159
I253003190
sg160
V709397
p1654
sbsg162
I16
sg163
V<a href="http://www.kucukbeyin.com/" rel="nofollow">CutePuppyPhoto</a>
p1655
sg165
(lp1656
sg159
I544024001459138560
sbsg46
Nsg47
(lp1657
(dp1658
Vsource_user_id
p1659
I253003217
sVsource_status_id_str
p1660
V429175812081086464
p1661
sVexpanded_url
p1662
Vhttp://twitter.com/CutestAnimalsPi/status/429175812081086464/photo/1
p1663
sVdisplay_url
p1664
Vpic.twitter.com/jl74XUEhAf
p1665
sVurl
p1666
Vhttp://t.co/jl74XUEhAf
p1667
sVmedia_url_https
p1668
Vhttps://pbs.twimg.com/media/BfS9IIqIIAAqWvF.jpg
p1669
sVsource_user_id_str
p1670
V253003217
p1671
sVsource_status_id
p1672
I429175812081086464
sVid_str
p1673
V429175811967819776
p1674
sVsizes
p1675
(dp1676
Vsmall
p1677
(dp1678
Vh
p1679
I510
sVresize
p1680
Vfit
p1681
sVw
p1682
I340
ssVlarge
p1683
(dp1684
Vh
p1685
I870
sVresize
p1686
Vfit
p1687
sVw
p1688
I580
ssVmedium
p1689
(dp1690
Vh
p1691
I870
sVresize
p1692
Vfit
p1693
sVw
p1694
I580
ssVthumb
p1695
(dp1696
Vh
p1697
I150
sVresize
p1698
Vcrop
p1699
sVw
p1700
I150
sssVindices
p1701
(lp1702
I21
aI43
asVtype
p1703
Vphoto
p1704
sVid
p1705
I429175811967819776
sVmedia_url
p1706
Vhttp://pbs.twimg.com/media/BfS9IIqIIAAqWvF.jpg
p1707
sasg93
Nsg94
Nsg95
Nsg96
VSun Dec 14 18:49:28 +0000 2014
p1708
sg98
Nsg99
I00
sg100
Nsg101
Nsg102
Nsg103
Nsg104
I00
sg105
Nsg106
(lp1709
g3
(g117
g5
Ntp1710
Rp1711
(dp1712
g10
Nsg122
Nsg124
Nsg126
Nsg127
Nsg128
Nsg96
Nsg130
Nsg131
Nsg133
Nsg135
Nsg136
Nsg137
Nsg138
Nsg139
Nsg140
Nsg142
Nsg143
Nsg144
Nsg146
Nsg147
Nsg148
Nsg150
VCutestAnimalsPh
p1713
sg152
Nsg153
VCutest Animals
p1714
sg155
Nsg157
Nsg159
I253003190
sg160
Nsbasg108
Nsg109
Nsg110
Nsg111
VRT @CutestAnimalsPh: http://t.co/jl74XUEhAf
p1715
sg113
I00
sg114
Vund
p1716
sg116
g3
(g117
g5
Ntp1717
Rp1718
(dp1719
g10
VKarachi
p1720
sg122
V333333
p1721
sg124
Ven
p1722
sg126
Nsg127
I2236
sg128
I33444
sg96
VSun Oct 13 10:11:19 +0000 2013
p1723
sg130
I00
sg131
g234
sg133
Vhttps://pbs.twimg.com/profile_images/424960110956650496/RzeO6zE3_normal.jpeg
p1724
sg135
I1999
sg136
I41237
sg137
Nsg138
Nsg139
I00
sg140
Vhttps://pbs.twimg.com/profile_banners/712399965/1385041858
p1725
sg142
I00
sg143
I00
sg144
V0084B4
p1726
sg146
I01
sg147
I00
sg148
Vhttp://abs.twimg.com/images/themes/theme1/bg.png
p1727
sg150
Vnshaikh6677
p1728
sg152
I27
sg153
VNasrullah Shaikh
p1729
sg155
VDDEEF6
p1730
sg157
Nsg159
I712399965
sg160
VC0DEED
p1731
sbsg162
I16
sg163
V<a href="http://twitter.com/download/android" rel="nofollow">Twitter for Android</a>
p1732
sg165
(lp1733
sg159
I544202531090358272
sbag3
(g4
g5
Ntp1734
Rp1735
(dp1736
g9
I0
sg10
Nsg11
Nsg12
(lp1737
sg28
I00
sg29
g3
(g4
g5
Ntp1738
Rp1739
(dp1740
g9
I29
sg10
Nsg11
Nsg12
(lp1741
sg28
I00
sg29
Nsg46
Nsg47
(lp1742
(dp1743
Vsource_user_id
p1744
I253003217
sVsource_status_id_str
p1745
V424342610476429312
p1746
sVexpanded_url
p1747
Vhttp://twitter.com/CutestAnimalsPi/status/424342610476429312/photo/1
p1748
sVdisplay_url
p1749
Vpic.twitter.com/YiNZuUpXEt
p1750
sVurl
p1751
Vhttp://t.co/YiNZuUpXEt
p1752
sVmedia_url_https
p1753
Vhttps://pbs.twimg.com/media/BeORWyDCcAAgxS8.jpg
p1754
sVsource_user_id_str
p1755
V253003217
p1756
sVsource_status_id
p1757
I424342610476429312
sVid_str
p1758
V424342610480623616
p1759
sVsizes
p1760
(dp1761
Vlarge
p1762
(dp1763
Vh
p1764
I374
sVresize
p1765
Vfit
p1766
sVw
p1767
I598
ssVsmall
p1768
(dp1769
Vh
p1770
I212
sVresize
p1771
Vfit
p1772
sVw
p1773
I340
ssVmedium
p1774
(dp1775
Vh
p1776
I374
sVresize
p1777
Vfit
p1778
sVw
p1779
I598
ssVthumb
p1780
(dp1781
Vh
p1782
I150
sVresize
p1783
Vcrop
p1784
sVw
p1785
I150
sssVindices
p1786
(lp1787
I0
aI22
asVtype
p1788
Vphoto
p1789
sVid
p1790
I424342610480623616
sVmedia_url
p1791
Vhttp://pbs.twimg.com/media/BeORWyDCcAAgxS8.jpg
p1792
sasg93
Nsg94
Nsg95
Nsg96
VSun Dec 14 07:30:03 +0000 2014
p1793
sg98
Nsg99
I00
sg100
Nsg101
Nsg102
Nsg103
Nsg104
I00
sg105
Nsg106
(lp1794
sg108
Nsg109
Nsg110
Nsg111
Vhttp://t.co/YiNZuUpXEt
p1795
sg113
I00
sg114
Vund
p1796
sg116
g3
(g117
g5
Ntp1797
Rp1798
(dp1799
g10
g234
sg122
V333333
p1800
sg124
Ven
p1801
sg126
VCentral Time (US & Canada)
p1802
sg127
I34422
sg128
I16813
sg96
VWed Feb 16 10:49:50 +0000 2011
p1803
sg130
I00
sg131
g234
sg133
Vhttps://pbs.twimg.com/profile_images/428607162948919296/acIWGxG__normal.jpeg
p1804
sg135
I24737
sg136
I0
sg137
I-21600
sg138
Nsg139
I00
sg140
Vhttps://pbs.twimg.com/profile_banners/253003190/1391023238
p1805
sg142
I00
sg143
I00
sg144
VFF3300
p1806
sg146
I00
sg147
I00
sg148
Vhttp://abs.twimg.com/images/themes/theme6/bg.gif
p1807
sg150
VCutestAnimalsPh
p1808
sg152
I145
sg153
VCutest Animals
p1809
sg155
VA0C5C7
p1810
sg157
Nsg159
I253003190
sg160
V709397
p1811
sbsg162
I30
sg163
V<a href="http://www.kucukbeyin.com/" rel="nofollow">CutePuppyPhoto</a>
p1812
sg165
(lp1813
sg159
I544031550715596801
sbsg46
Nsg47
(lp1814
(dp1815
Vsource_user_id
p1816
I253003217
sVsource_status_id_str
p1817
V424342610476429312
p1818
sVexpanded_url
p1819
Vhttp://twitter.com/CutestAnimalsPi/status/424342610476429312/photo/1
p1820
sVdisplay_url
p1821
Vpic.twitter.com/YiNZuUpXEt
p1822
sVurl
p1823
Vhttp://t.co/YiNZuUpXEt
p1824
sVmedia_url_https
p1825
Vhttps://pbs.twimg.com/media/BeORWyDCcAAgxS8.jpg
p1826
sVsource_user_id_str
p1827
V253003217
p1828
sVsource_status_id
p1829
I424342610476429312
sVid_str
p1830
V424342610480623616
p1831
sVsizes
p1832
(dp1833
Vlarge
p1834
(dp1835
Vh
p1836
I374
sVresize
p1837
Vfit
p1838
sVw
p1839
I598
ssVsmall
p1840
(dp1841
Vh
p1842
I212
sVresize
p1843
Vfit
p1844
sVw
p1845
I340
ssVmedium
p1846
(dp1847
Vh
p1848
I374
sVresize
p1849
Vfit
p1850
sVw
p1851
I598
ssVthumb
p1852
(dp1853
Vh
p1854
I150
sVresize
p1855
Vcrop
p1856
sVw
p1857
I150
sssVindices
p1858
(lp1859
I21
aI43
asVtype
p1860
Vphoto
p1861
sVid
p1862
I424342610480623616
sVmedia_url
p1863
Vhttp://pbs.twimg.com/media/BeORWyDCcAAgxS8.jpg
p1864
sasg93
Nsg94
Nsg95
Nsg96
VSun Dec 14 18:49:26 +0000 2014
p1865
sg98
Nsg99
I00
sg100
Nsg101
Nsg102
Nsg103
Nsg104
I00
sg105
Nsg106
(lp1866
g3
(g117
g5
Ntp1867
Rp1868
(dp1869
g10
Nsg122
Nsg124
Nsg126
Nsg127
Nsg128
Nsg96
Nsg130
Nsg131
Nsg133
Nsg135
Nsg136
Nsg137
Nsg138
Nsg139
Nsg140
Nsg142
Nsg143
Nsg144
Nsg146
Nsg147
Nsg148
Nsg150
VCutestAnimalsPh
p1870
sg152
Nsg153
VCutest Animals
p1871
sg155
Nsg157
Nsg159
I253003190
sg160
Nsbasg108
Nsg109
Nsg110
Nsg111
VRT @CutestAnimalsPh: http://t.co/YiNZuUpXEt
p1872
sg113
I00
sg114
Vund
p1873
sg116
g3
(g117
g5
Ntp1874
Rp1875
(dp1876
g10
VKarachi
p1877
sg122
V333333
p1878
sg124
Ven
p1879
sg126
Nsg127
I2236
sg128
I33444
sg96
VSun Oct 13 10:11:19 +0000 2013
p1880
sg130
I00
sg131
g234
sg133
Vhttps://pbs.twimg.com/profile_images/424960110956650496/RzeO6zE3_normal.jpeg
p1881
sg135
I1999
sg136
I41237
sg137
Nsg138
Nsg139
I00
sg140
Vhttps://pbs.twimg.com/profile_banners/712399965/1385041858
p1882
sg142
I00
sg143
I00
sg144
V0084B4
p1883
sg146
I01
sg147
I00
sg148
Vhttp://abs.twimg.com/images/themes/theme1/bg.png
p1884
sg150
Vnshaikh6677
p1885
sg152
I27
sg153
VNasrullah Shaikh
p1886
sg155
VDDEEF6
p1887
sg157
Nsg159
I712399965
sg160
VC0DEED
p1888
sbsg162
I30
sg163
V<a href="http://twitter.com/download/android" rel="nofollow">Twitter for Android</a>
p1889
sg165
(lp1890
sg159
I544202520516513793
sbag3
(g4
g5
Ntp1891
Rp1892
(dp1893
g9
I0
sg10
Nsg11
Nsg12
(lp1894
sg28
I00
sg29
g3
(g4
g5
Ntp1895
Rp1896
(dp1897
g9
I34
sg10
Nsg11
Nsg12
(lp1898
sg28
I00
sg29
Nsg46
Nsg47
(lp1899
(dp1900
Vsource_user_id
p1901
I253003217
sVsource_status_id_str
p1902
V424342659784646656
p1903
sVexpanded_url
p1904
Vhttp://twitter.com/CutestAnimalsPi/status/424342659784646656/photo/1
p1905
sVdisplay_url
p1906
Vpic.twitter.com/5BLZsfy6N9
p1907
sVurl
p1908
Vhttp://t.co/5BLZsfy6N9
p1909
sVmedia_url_https
p1910
Vhttps://pbs.twimg.com/media/BeORZpvCIAAaWWz.jpg
p1911
sVsource_user_id_str
p1912
V253003217
p1913
sVsource_status_id
p1914
I424342659784646656
sVid_str
p1915
V424342659788840960
p1916
sVsizes
p1917
(dp1918
Vlarge
p1919
(dp1920
Vh
p1921
I885
sVresize
p1922
Vfit
p1923
sVw
p1924
I599
ssVsmall
p1925
(dp1926
Vh
p1927
I502
sVresize
p1928
Vfit
p1929
sVw
p1930
I340
ssVmedium
p1931
(dp1932
Vh
p1933
I885
sVresize
p1934
Vfit
p1935
sVw
p1936
I599
ssVthumb
p1937
(dp1938
Vh
p1939
I150
sVresize
p1940
Vcrop
p1941
sVw
p1942
I150
sssVindices
p1943
(lp1944
I0
aI22
asVtype
p1945
Vphoto
p1946
sVid
p1947
I424342659788840960
sVmedia_url
p1948
Vhttp://pbs.twimg.com/media/BeORZpvCIAAaWWz.jpg
p1949
sasg93
Nsg94
Nsg95
Nsg96
VSun Dec 14 08:00:03 +0000 2014
p1950
sg98
Nsg99
I00
sg100
Nsg101
Nsg102
Nsg103
Nsg104
I00
sg105
Nsg106
(lp1951
sg108
Nsg109
Nsg110
Nsg111
Vhttp://t.co/5BLZsfy6N9
p1952
sg113
I00
sg114
Vund
p1953
sg116
g3
(g117
g5
Ntp1954
Rp1955
(dp1956
g10
g234
sg122
V333333
p1957
sg124
Ven
p1958
sg126
VCentral Time (US & Canada)
p1959
sg127
I34422
sg128
I16813
sg96
VWed Feb 16 10:49:50 +0000 2011
p1960
sg130
I00
sg131
g234
sg133
Vhttps://pbs.twimg.com/profile_images/428607162948919296/acIWGxG__normal.jpeg
p1961
sg135
I24737
sg136
I0
sg137
I-21600
sg138
Nsg139
I00
sg140
Vhttps://pbs.twimg.com/profile_banners/253003190/1391023238
p1962
sg142
I00
sg143
I00
sg144
VFF3300
p1963
sg146
I00
sg147
I00
sg148
Vhttp://abs.twimg.com/images/themes/theme6/bg.gif
p1964
sg150
VCutestAnimalsPh
p1965
sg152
I145
sg153
VCutest Animals
p1966
sg155
VA0C5C7
p1967
sg157
Nsg159
I253003190
sg160
V709397
p1968
sbsg162
I31
sg163
V<a href="http://www.kucukbeyin.com/" rel="nofollow">CutePuppyPhoto</a>
p1969
sg165
(lp1970
sg159
I544039097518419969
sbsg46
Nsg47
(lp1971
(dp1972
Vsource_user_id
p1973
I253003217
sVsource_status_id_str
p1974
V424342659784646656
p1975
sVexpanded_url
p1976
Vhttp://twitter.com/CutestAnimalsPi/status/424342659784646656/photo/1
p1977
sVdisplay_url
p1978
Vpic.twitter.com/5BLZsfy6N9
p1979
sVurl
p1980
Vhttp://t.co/5BLZsfy6N9
p1981
sVmedia_url_https
p1982
Vhttps://pbs.twimg.com/media/BeORZpvCIAAaWWz.jpg
p1983
sVsource_user_id_str
p1984
V253003217
p1985
sVsource_status_id
p1986
I424342659784646656
sVid_str
p1987
V424342659788840960
p1988
sVsizes
p1989
(dp1990
Vlarge
p1991
(dp1992
Vh
p1993
I885
sVresize
p1994
Vfit
p1995
sVw
p1996
I599
ssVsmall
p1997
(dp1998
Vh
p1999
I502
sVresize
p2000
Vfit
p2001
sVw
p2002
I340
ssVmedium
p2003
(dp2004
Vh
p2005
I885
sVresize
p2006
Vfit
p2007
sVw
p2008
I599
ssVthumb
p2009
(dp2010
Vh
p2011
I150
sVresize
p2012
Vcrop
p2013
sVw
p2014
I150
sssVindices
p2015
(lp2016
I21
aI43
asVtype
p2017
Vphoto
p2018
sVid
p2019
I424342659788840960
sVmedia_url
p2020
Vhttp://pbs.twimg.com/media/BeORZpvCIAAaWWz.jpg
p2021
sasg93
Nsg94
Nsg95
Nsg96
VSun Dec 14 18:49:23 +0000 2014
p2022
sg98
Nsg99
I00
sg100
Nsg101
Nsg102
Nsg103
Nsg104
I00
sg105
Nsg106
(lp2023
g3
(g117
g5
Ntp2024
Rp2025
(dp2026
g10
Nsg122
Nsg124
Nsg126
Nsg127
Nsg128
Nsg96
Nsg130
Nsg131
Nsg133
Nsg135
Nsg136
Nsg137
Nsg138
Nsg139
Nsg140
Nsg142
Nsg143
Nsg144
Nsg146
Nsg147
Nsg148
Nsg150
VCutestAnimalsPh
p2027
sg152
Nsg153
VCutest Animals
p2028
sg155
Nsg157
Nsg159
I253003190
sg160
Nsbasg108
Nsg109
Nsg110
Nsg111
VRT @CutestAnimalsPh: http://t.co/5BLZsfy6N9
p2029
sg113
I00
sg114
Vund
p2030
sg116
g3
(g117
g5
Ntp2031
Rp2032
(dp2033
g10
VKarachi
p2034
sg122
V333333
p2035
sg124
Ven
p2036
sg126
Nsg127
I2236
sg128
I33444
sg96
VSun Oct 13 10:11:19 +0000 2013
p2037
sg130
I00
sg131
g234
sg133
Vhttps://pbs.twimg.com/profile_images/424960110956650496/RzeO6zE3_normal.jpeg
p2038
sg135
I1999
sg136
I41237
sg137
Nsg138
Nsg139
I00
sg140
Vhttps://pbs.twimg.com/profile_banners/712399965/1385041858
p2039
sg142
I00
sg143
I00
sg144
V0084B4
p2040
sg146
I01
sg147
I00
sg148
Vhttp://abs.twimg.com/images/themes/theme1/bg.png
p2041
sg150
Vnshaikh6677
p2042
sg152
I27
sg153
VNasrullah Shaikh
p2043
sg155
VDDEEF6
p2044
sg157
Nsg159
I712399965
sg160
VC0DEED
p2045
sbsg162
I31
sg163
V<a href="http://twitter.com/download/android" rel="nofollow">Twitter for Android</a>
p2046
sg165
(lp2047
sg159
I544202508575318016
sbag3
(g4
g5
Ntp2048
Rp2049
(dp2050
g9
I0
sg10
Nsg11
Nsg12
(lp2051
sg28
I00
sg29
g3
(g4
g5
Ntp2052
Rp2053
(dp2054
g9
I49
sg10
Nsg11
Nsg12
(lp2055
sg28
I00
sg29
Nsg46
Nsg47
(lp2056
(dp2057
Vsource_user_id
p2058
I253003217
sVsource_status_id_str
p2059
V424342754760462336
p2060
sVexpanded_url
p2061
Vhttp://twitter.com/CutestAnimalsPi/status/424342754760462336/photo/1
p2062
sVdisplay_url
p2063
Vpic.twitter.com/0nLA8svlDV
p2064
sVurl
p2065
Vhttp://t.co/0nLA8svlDV
p2066
sVmedia_url_https
p2067
Vhttps://pbs.twimg.com/media/BeORfLjCEAEIoXd.jpg
p2068
sVsource_user_id_str
p2069
V253003217
p2070
sVsource_status_id
p2071
I424342754760462336
sVid_str
p2072
V424342754764656641
p2073
sVsizes
p2074
(dp2075
Vsmall
p2076
(dp2077
Vh
p2078
I340
sVresize
p2079
Vfit
p2080
sVw
p2081
I340
ssVlarge
p2082
(dp2083
Vh
p2084
I447
sVresize
p2085
Vfit
p2086
sVw
p2087
I446
ssVmedium
p2088
(dp2089
Vh
p2090
I447
sVresize
p2091
Vfit
p2092
sVw
p2093
I446
ssVthumb
p2094
(dp2095
Vh
p2096
I150
sVresize
p2097
Vcrop
p2098
sVw
p2099
I150
sssVindices
p2100
(lp2101
I0
aI22
asVtype
p2102
Vphoto
p2103
sVid
p2104
I424342754764656641
sVmedia_url
p2105
Vhttp://pbs.twimg.com/media/BeORfLjCEAEIoXd.jpg
p2106
sasg93
Nsg94
Nsg95
Nsg96
VSun Dec 14 08:30:03 +0000 2014
p2107
sg98
Nsg99
I00
sg100
Nsg101
Nsg102
Nsg103
Nsg104
I00
sg105
Nsg106
(lp2108
sg108
Nsg109
Nsg110
Nsg111
Vhttp://t.co/0nLA8svlDV
p2109
sg113
I00
sg114
Vund
p2110
sg116
g3
(g117
g5
Ntp2111
Rp2112
(dp2113
g10
g234
sg122
V333333
p2114
sg124
Ven
p2115
sg126
VCentral Time (US & Canada)
p2116
sg127
I34422
sg128
I16813
sg96
VWed Feb 16 10:49:50 +0000 2011
p2117
sg130
I00
sg131
g234
sg133
Vhttps://pbs.twimg.com/profile_images/428607162948919296/acIWGxG__normal.jpeg
p2118
sg135
I24737
sg136
I0
sg137
I-21600
sg138
Nsg139
I00
sg140
Vhttps://pbs.twimg.com/profile_banners/253003190/1391023238
p2119
sg142
I00
sg143
I00
sg144
VFF3300
p2120
sg146
I00
sg147
I00
sg148
Vhttp://abs.twimg.com/images/themes/theme6/bg.gif
p2121
sg150
VCutestAnimalsPh
p2122
sg152
I145
sg153
VCutest Animals
p2123
sg155
VA0C5C7
p2124
sg157
Nsg159
I253003190
sg160
V709397
p2125
sbsg162
I31
sg163
V<a href="http://www.kucukbeyin.com/" rel="nofollow">CutePuppyPhoto</a>
p2126
sg165
(lp2127
sg159
I544046648490332160
sbsg46
Nsg47
(lp2128
(dp2129
Vsource_user_id
p2130
I253003217
sVsource_status_id_str
p2131
V424342754760462336
p2132
sVexpanded_url
p2133
Vhttp://twitter.com/CutestAnimalsPi/status/424342754760462336/photo/1
p2134
sVdisplay_url
p2135
Vpic.twitter.com/0nLA8svlDV
p2136
sVurl
p2137
Vhttp://t.co/0nLA8svlDV
p2138
sVmedia_url_https
p2139
Vhttps://pbs.twimg.com/media/BeORfLjCEAEIoXd.jpg
p2140
sVsource_user_id_str
p2141
V253003217
p2142
sVsource_status_id
p2143
I424342754760462336
sVid_str
p2144
V424342754764656641
p2145
sVsizes
p2146
(dp2147
Vsmall
p2148
(dp2149
Vh
p2150
I340
sVresize
p2151
Vfit
p2152
sVw
p2153
I340
ssVlarge
p2154
(dp2155
Vh
p2156
I447
sVresize
p2157
Vfit
p2158
sVw
p2159
I446
ssVmedium
p2160
(dp2161
Vh
p2162
I447
sVresize
p2163
Vfit
p2164
sVw
p2165
I446
ssVthumb
p2166
(dp2167
Vh
p2168
I150
sVresize
p2169
Vcrop
p2170
sVw
p2171
I150
sssVindices
p2172
(lp2173
I21
aI43
asVtype
p2174
Vphoto
p2175
sVid
p2176
I424342754764656641
sVmedia_url
p2177
Vhttp://pbs.twimg.com/media/BeORfLjCEAEIoXd.jpg
p2178
sasg93
Nsg94
Nsg95
Nsg96
VSun Dec 14 18:49:20 +0000 2014
p2179
sg98
Nsg99
I00
sg100
Nsg101
Nsg102
Nsg103
Nsg104
I00
sg105
Nsg106
(lp2180
g3
(g117
g5
Ntp2181
Rp2182
(dp2183
g10
Nsg122
Nsg124
Nsg126
Nsg127
Nsg128
Nsg96
Nsg130
Nsg131
Nsg133
Nsg135
Nsg136
Nsg137
Nsg138
Nsg139
Nsg140
Nsg142
Nsg143
Nsg144
Nsg146
Nsg147
Nsg148
Nsg150
VCutestAnimalsPh
p2184
sg152
Nsg153
VCutest Animals
p2185
sg155
Nsg157
Nsg159
I253003190
sg160
Nsbasg108
Nsg109
Nsg110
Nsg111
VRT @CutestAnimalsPh: http://t.co/0nLA8svlDV
p2186
sg113
I00
sg114
Vund
p2187
sg116
g3
(g117
g5
Ntp2188
Rp2189
(dp2190
g10
VKarachi
p2191
sg122
V333333
p2192
sg124
Ven
p2193
sg126
Nsg127
I2236
sg128
I33444
sg96
VSun Oct 13 10:11:19 +0000 2013
p2194
sg130
I00
sg131
g234
sg133
Vhttps://pbs.twimg.com/profile_images/424960110956650496/RzeO6zE3_normal.jpeg
p2195
sg135
I1999
sg136
I41237
sg137
Nsg138
Nsg139
I00
sg140
Vhttps://pbs.twimg.com/profile_banners/712399965/1385041858
p2196
sg142
I00
sg143
I00
sg144
V0084B4
p2197
sg146
I01
sg147
I00
sg148
Vhttp://abs.twimg.com/images/themes/theme1/bg.png
p2198
sg150
Vnshaikh6677
p2199
sg152
I27
sg153
VNasrullah Shaikh
p2200
sg155
VDDEEF6
p2201
sg157
Nsg159
I712399965
sg160
VC0DEED
p2202
sbsg162
I31
sg163
V<a href="http://twitter.com/download/android" rel="nofollow">Twitter for Android</a>
p2203
sg165
(lp2204
sg159
I544202494780248064
sbag3
(g4
g5
Ntp2205
Rp2206
(dp2207
g9
I0
sg10
Nsg11
Nsg12
(lp2208
sg28
I00
sg29
g3
(g4
g5
Ntp2209
Rp2210
(dp2211
g9
I54
sg10
Nsg11
Nsg12
(lp2212
sg28
I00
sg29
Nsg46
Nsg47
(lp2213
(dp2214
Vsource_user_id
p2215
I253003217
sVsource_status_id_str
p2216
V424343047099252736
p2217
sVexpanded_url
p2218
Vhttp://twitter.com/CutestAnimalsPi/status/424343047099252736/photo/1
p2219
sVdisplay_url
p2220
Vpic.twitter.com/ej94oLWinT
p2221
sVurl
p2222
Vhttp://t.co/ej94oLWinT
p2223
sVmedia_url_https
p2224
Vhttps://pbs.twimg.com/media/BeORwMmCAAAltP2.jpg
p2225
sVsource_user_id_str
p2226
V253003217
p2227
sVsource_status_id
p2228
I424343047099252736
sVid_str
p2229
V424343047103447040
p2230
sVsizes
p2231
(dp2232
Vsmall
p2233
(dp2234
Vh
p2235
I216
sVresize
p2236
Vfit
p2237
sVw
p2238
I340
ssVlarge
p2239
(dp2240
Vh
p2241
I380
sVresize
p2242
Vfit
p2243
sVw
p2244
I596
ssVmedium
p2245
(dp2246
Vh
p2247
I380
sVresize
p2248
Vfit
p2249
sVw
p2250
I596
ssVthumb
p2251
(dp2252
Vh
p2253
I150
sVresize
p2254
Vcrop
p2255
sVw
p2256
I150
sssVindices
p2257
(lp2258
I0
aI22
asVtype
p2259
Vphoto
p2260
sVid
p2261
I424343047103447040
sVmedia_url
p2262
Vhttp://pbs.twimg.com/media/BeORwMmCAAAltP2.jpg
p2263
sasg93
Nsg94
Nsg95
Nsg96
VSun Dec 14 11:00:04 +0000 2014
p2264
sg98
Nsg99
I00
sg100
Nsg101
Nsg102
Nsg103
Nsg104
I00
sg105
Nsg106
(lp2265
sg108
Nsg109
Nsg110
Nsg111
Vhttp://t.co/ej94oLWinT
p2266
sg113
I00
sg114
Vund
p2267
sg116
g3
(g117
g5
Ntp2268
Rp2269
(dp2270
g10
g234
sg122
V333333
p2271
sg124
Ven
p2272
sg126
VCentral Time (US & Canada)
p2273
sg127
I34422
sg128
I16813
sg96
VWed Feb 16 10:49:50 +0000 2011
p2274
sg130
I00
sg131
g234
sg133
Vhttps://pbs.twimg.com/profile_images/428607162948919296/acIWGxG__normal.jpeg
p2275
sg135
I24737
sg136
I0
sg137
I-21600
sg138
Nsg139
I00
sg140
Vhttps://pbs.twimg.com/profile_banners/253003190/1391023238
p2276
sg142
I00
sg143
I00
sg144
VFF3300
p2277
sg146
I00
sg147
I00
sg148
Vhttp://abs.twimg.com/images/themes/theme6/bg.gif
p2278
sg150
VCutestAnimalsPh
p2279
sg152
I145
sg153
VCutest Animals
p2280
sg155
VA0C5C7
p2281
sg157
Nsg159
I253003190
sg160
V709397
p2282
sbsg162
I26
sg163
V<a href="http://www.kucukbeyin.com/" rel="nofollow">CutePuppyPhoto</a>
p2283
sg165
(lp2284
sg159
I544084400309157888
sbsg46
Nsg47
(lp2285
(dp2286
Vsource_user_id
p2287
I253003217
sVsource_status_id_str
p2288
V424343047099252736
p2289
sVexpanded_url
p2290
Vhttp://twitter.com/CutestAnimalsPi/status/424343047099252736/photo/1
p2291
sVdisplay_url
p2292
Vpic.twitter.com/ej94oLWinT
p2293
sVurl
p2294
Vhttp://t.co/ej94oLWinT
p2295
sVmedia_url_https
p2296
Vhttps://pbs.twimg.com/media/BeORwMmCAAAltP2.jpg
p2297
sVsource_user_id_str
p2298
V253003217
p2299
sVsource_status_id
p2300
I424343047099252736
sVid_str
p2301
V424343047103447040
p2302
sVsizes
p2303
(dp2304
Vsmall
p2305
(dp2306
Vh
p2307
I216
sVresize
p2308
Vfit
p2309
sVw
p2310
I340
ssVlarge
p2311
(dp2312
Vh
p2313
I380
sVresize
p2314
Vfit
p2315
sVw
p2316
I596
ssVmedium
p2317
(dp2318
Vh
p2319
I380
sVresize
p2320
Vfit
p2321
sVw
p2322
I596
ssVthumb
p2323
(dp2324
Vh
p2325
I150
sVresize
p2326
Vcrop
p2327
sVw
p2328
I150
sssVindices
p2329
(lp2330
I21
aI43
asVtype
p2331
Vphoto
p2332
sVid
p2333
I424343047103447040
sVmedia_url
p2334
Vhttp://pbs.twimg.com/media/BeORwMmCAAAltP2.jpg
p2335
sasg93
Nsg94
Nsg95
Nsg96
VSun Dec 14 18:49:13 +0000 2014
p2336
sg98
Nsg99
I00
sg100
Nsg101
Nsg102
Nsg103
Nsg104
I00
sg105
Nsg106
(lp2337
g3
(g117
g5
Ntp2338
Rp2339
(dp2340
g10
Nsg122
Nsg124
Nsg126
Nsg127
Nsg128
Nsg96
Nsg130
Nsg131
Nsg133
Nsg135
Nsg136
Nsg137
Nsg138
Nsg139
Nsg140
Nsg142
Nsg143
Nsg144
Nsg146
Nsg147
Nsg148
Nsg150
VCutestAnimalsPh
p2341
sg152
Nsg153
VCutest Animals
p2342
sg155
Nsg157
Nsg159
I253003190
sg160
Nsbasg108
Nsg109
Nsg110
Nsg111
VRT @CutestAnimalsPh: http://t.co/ej94oLWinT
p2343
sg113
I00
sg114
Vund
p2344
sg116
g3
(g117
g5
Ntp2345
Rp2346
(dp2347
g10
VKarachi
p2348
sg122
V333333
p2349
sg124
Ven
p2350
sg126
Nsg127
I2236
sg128
I33444
sg96
VSun Oct 13 10:11:19 +0000 2013
p2351
sg130
I00
sg131
g234
sg133
Vhttps://pbs.twimg.com/profile_images/424960110956650496/RzeO6zE3_normal.jpeg
p2352
sg135
I1999
sg136
I41237
sg137
Nsg138
Nsg139
I00
sg140
Vhttps://pbs.twimg.com/profile_banners/712399965/1385041858
p2353
sg142
I00
sg143
I00
sg144
V0084B4
p2354
sg146
I01
sg147
I00
sg148
Vhttp://abs.twimg.com/images/themes/theme1/bg.png
p2355
sg150
Vnshaikh6677
p2356
sg152
I27
sg153
VNasrullah Shaikh
p2357
sg155
VDDEEF6
p2358
sg157
Nsg159
I712399965
sg160
VC0DEED
p2359
sbsg162
I26
sg163
V<a href="http://twitter.com/download/android" rel="nofollow">Twitter for Android</a>
p2360
sg165
(lp2361
sg159
I544202464656777216
sbag3
(g4
g5
Ntp2362
Rp2363
(dp2364
g9
I0
sg10
Nsg11
Nsg12
(lp2365
sg28
I00
sg29
g3
(g4
g5
Ntp2366
Rp2367
(dp2368
g9
I43
sg10
Nsg11
Nsg12
(lp2369
sg28
I00
sg29
Nsg46
Nsg47
(lp2370
(dp2371
Vsource_user_id
p2372
I253003217
sVsource_status_id_str
p2373
V424343097451888641
p2374
sVexpanded_url
p2375
Vhttp://twitter.com/CutestAnimalsPi/status/424343097451888641/photo/1
p2376
sVdisplay_url
p2377
Vpic.twitter.com/wL0ha8mooo
p2378
sVurl
p2379
Vhttp://t.co/wL0ha8mooo
p2380
sVmedia_url_https
p2381
Vhttps://pbs.twimg.com/media/BeORzIRCQAAacel.jpg
p2382
sVsource_user_id_str
p2383
V253003217
p2384
sVsource_status_id
p2385
I424343097451888641
sVid_str
p2386
V424343097481248768
p2387
sVsizes
p2388
(dp2389
Vsmall
p2390
(dp2391
Vh
p2392
I340
sVresize
p2393
Vfit
p2394
sVw
p2395
I340
ssVlarge
p2396
(dp2397
Vh
p2398
I420
sVresize
p2399
Vfit
p2400
sVw
p2401
I420
ssVmedium
p2402
(dp2403
Vh
p2404
I420
sVresize
p2405
Vfit
p2406
sVw
p2407
I420
ssVthumb
p2408
(dp2409
Vh
p2410
I150
sVresize
p2411
Vcrop
p2412
sVw
p2413
I150
sssVindices
p2414
(lp2415
I0
aI22
asVtype
p2416
Vphoto
p2417
sVid
p2418
I424343097481248768
sVmedia_url
p2419
Vhttp://pbs.twimg.com/media/BeORzIRCQAAacel.jpg
p2420
sasg93
Nsg94
Nsg95
Nsg96
VSun Dec 14 11:30:03 +0000 2014
p2421
sg98
Nsg99
I00
sg100
Nsg101
Nsg102
Nsg103
Nsg104
I00
sg105
Nsg106
(lp2422
sg108
Nsg109
Nsg110
Nsg111
Vhttp://t.co/wL0ha8mooo
p2423
sg113
I00
sg114
Vund
p2424
sg116
g3
(g117
g5
Ntp2425
Rp2426
(dp2427
g10
g234
sg122
V333333
p2428
sg124
Ven
p2429
sg126
VCentral Time (US & Canada)
p2430
sg127
I34422
sg128
I16813
sg96
VWed Feb 16 10:49:50 +0000 2011
p2431
sg130
I00
sg131
g234
sg133
Vhttps://pbs.twimg.com/profile_images/428607162948919296/acIWGxG__normal.jpeg
p2432
sg135
I24737
sg136
I0
sg137
I-21600
sg138
Nsg139
I00
sg140
Vhttps://pbs.twimg.com/profile_banners/253003190/1391023238
p2433
sg142
I00
sg143
I00
sg144
VFF3300
p2434
sg146
I00
sg147
I00
sg148
Vhttp://abs.twimg.com/images/themes/theme6/bg.gif
p2435
sg150
VCutestAnimalsPh
p2436
sg152
I145
sg153
VCutest Animals
p2437
sg155
VA0C5C7
p2438
sg157
Nsg159
I253003190
sg160
V709397
p2439
sbsg162
I36
sg163
V<a href="http://www.kucukbeyin.com/" rel="nofollow">CutePuppyPhoto</a>
p2440
sg165
(lp2441
sg159
I544091948642861057
sbsg46
Nsg47
(lp2442
(dp2443
Vsource_user_id
p2444
I253003217
sVsource_status_id_str
p2445
V424343097451888641
p2446
sVexpanded_url
p2447
Vhttp://twitter.com/CutestAnimalsPi/status/424343097451888641/photo/1
p2448
sVdisplay_url
p2449
Vpic.twitter.com/wL0ha8mooo
p2450
sVurl
p2451
Vhttp://t.co/wL0ha8mooo
p2452
sVmedia_url_https
p2453
Vhttps://pbs.twimg.com/media/BeORzIRCQAAacel.jpg
p2454
sVsource_user_id_str
p2455
V253003217
p2456
sVsource_status_id
p2457
I424343097451888641
sVid_str
p2458
V424343097481248768
p2459
sVsizes
p2460
(dp2461
Vsmall
p2462
(dp2463
Vh
p2464
I340
sVresize
p2465
Vfit
p2466
sVw
p2467
I340
ssVlarge
p2468
(dp2469
Vh
p2470
I420
sVresize
p2471
Vfit
p2472
sVw
p2473
I420
ssVmedium
p2474
(dp2475
Vh
p2476
I420
sVresize
p2477
Vfit
p2478
sVw
p2479
I420
ssVthumb
p2480
(dp2481
Vh
p2482
I150
sVresize
p2483
Vcrop
p2484
sVw
p2485
I150
sssVindices
p2486
(lp2487
I21
aI43
asVtype
p2488
Vphoto
p2489
sVid
p2490
I424343097481248768
sVmedia_url
p2491
Vhttp://pbs.twimg.com/media/BeORzIRCQAAacel.jpg
p2492
sasg93
Nsg94
Nsg95
Nsg96
VSun Dec 14 18:49:08 +0000 2014
p2493
sg98
Nsg99
I00
sg100
Nsg101
Nsg102
Nsg103
Nsg104
I00
sg105
Nsg106
(lp2494
g3
(g117
g5
Ntp2495
Rp2496
(dp2497
g10
Nsg122
Nsg124
Nsg126
Nsg127
Nsg128
Nsg96
Nsg130
Nsg131
Nsg133
Nsg135
Nsg136
Nsg137
Nsg138
Nsg139
Nsg140
Nsg142
Nsg143
Nsg144
Nsg146
Nsg147
Nsg148
Nsg150
VCutestAnimalsPh
p2498
sg152
Nsg153
VCutest Animals
p2499
sg155
Nsg157
Nsg159
I253003190
sg160
Nsbasg108
Nsg109
Nsg110
Nsg111
VRT @CutestAnimalsPh: http://t.co/wL0ha8mooo
p2500
sg113
I00
sg114
Vund
p2501
sg116
g3
(g117
g5
Ntp2502
Rp2503
(dp2504
g10
VKarachi
p2505
sg122
V333333
p2506
sg124
Ven
p2507
sg126
Nsg127
I2236
sg128
I33444
sg96
VSun Oct 13 10:11:19 +0000 2013
p2508
sg130
I00
sg131
g234
sg133
Vhttps://pbs.twimg.com/profile_images/424960110956650496/RzeO6zE3_normal.jpeg
p2509
sg135
I1999
sg136
I41237
sg137
Nsg138
Nsg139
I00
sg140
Vhttps://pbs.twimg.com/profile_banners/712399965/1385041858
p2510
sg142
I00
sg143
I00
sg144
V0084B4
p2511
sg146
I01
sg147
I00
sg148
Vhttp://abs.twimg.com/images/themes/theme1/bg.png
p2512
sg150
Vnshaikh6677
p2513
sg152
I27
sg153
VNasrullah Shaikh
p2514
sg155
VDDEEF6
p2515
sg157
Nsg159
I712399965
sg160
VC0DEED
p2516
sbsg162
I36
sg163
V<a href="http://twitter.com/download/android" rel="nofollow">Twitter for Android</a>
p2517
sg165
(lp2518
sg159
I544202444981297152
sbag3
(g4
g5
Ntp2519
Rp2520
(dp2521
g9
I0
sg10
Nsg11
Nsg12
(lp2522
sg28
I00
sg29
g3
(g4
g5
Ntp2523
Rp2524
(dp2525
g9
I42
sg10
Nsg11
Nsg12
(lp2526
sg28
I00
sg29
Nsg46
Nsg47
(lp2527
(dp2528
Vsource_user_id
p2529
I253003217
sVsource_status_id_str
p2530
V424343152074313728
p2531
sVexpanded_url
p2532
Vhttp://twitter.com/CutestAnimalsPi/status/424343152074313728/photo/1
p2533
sVdisplay_url
p2534
Vpic.twitter.com/ylUttRolC2
p2535
sVurl
p2536
Vhttp://t.co/ylUttRolC2
p2537
sVmedia_url_https
p2538
Vhttps://pbs.twimg.com/media/BeOR2TqCUAAgv-7.jpg
p2539
sVsource_user_id_str
p2540
V253003217
p2541
sVsource_status_id
p2542
I424343152074313728
sVid_str
p2543
V424343152078508032
p2544
sVsizes
p2545
(dp2546
Vsmall
p2547
(dp2548
Vh
p2549
I318
sVresize
p2550
Vfit
p2551
sVw
p2552
I340
ssVlarge
p2553
(dp2554
Vh
p2555
I319
sVresize
p2556
Vfit
p2557
sVw
p2558
I341
ssVmedium
p2559
(dp2560
Vh
p2561
I319
sVresize
p2562
Vfit
p2563
sVw
p2564
I341
ssVthumb
p2565
(dp2566
Vh
p2567
I150
sVresize
p2568
Vcrop
p2569
sVw
p2570
I150
sssVindices
p2571
(lp2572
I0
aI22
asVtype
p2573
Vphoto
p2574
sVid
p2575
I424343152078508032
sVmedia_url
p2576
Vhttp://pbs.twimg.com/media/BeOR2TqCUAAgv-7.jpg
p2577
sasg93
Nsg94
Nsg95
Nsg96
VSun Dec 14 12:00:03 +0000 2014
p2578
sg98
Nsg99
I00
sg100
Nsg101
Nsg102
Nsg103
Nsg104
I00
sg105
Nsg106
(lp2579
sg108
Nsg109
Nsg110
Nsg111
Vhttp://t.co/ylUttRolC2
p2580
sg113
I00
sg114
Vund
p2581
sg116
g3
(g117
g5
Ntp2582
Rp2583
(dp2584
g10
g234
sg122
V333333
p2585
sg124
Ven
p2586
sg126
VCentral Time (US & Canada)
p2587
sg127
I34422
sg128
I16813
sg96
VWed Feb 16 10:49:50 +0000 2011
p2588
sg130
I00
sg131
g234
sg133
Vhttps://pbs.twimg.com/profile_images/428607162948919296/acIWGxG__normal.jpeg
p2589
sg135
I24737
sg136
I0
sg137
I-21600
sg138
Nsg139
I00
sg140
Vhttps://pbs.twimg.com/profile_banners/253003190/1391023238
p2590
sg142
I00
sg143
I00
sg144
VFF3300
p2591
sg146
I00
sg147
I00
sg148
Vhttp://abs.twimg.com/images/themes/theme6/bg.gif
p2592
sg150
VCutestAnimalsPh
p2593
sg152
I145
sg153
VCutest Animals
p2594
sg155
VA0C5C7
p2595
sg157
Nsg159
I253003190
sg160
V709397
p2596
sbsg162
I24
sg163
V<a href="http://www.kucukbeyin.com/" rel="nofollow">CutePuppyPhoto</a>
p2597
sg165
(lp2598
sg159
I544099495663767552
sbsg46
Nsg47
(lp2599
(dp2600
Vsource_user_id
p2601
I253003217
sVsource_status_id_str
p2602
V424343152074313728
p2603
sVexpanded_url
p2604
Vhttp://twitter.com/CutestAnimalsPi/status/424343152074313728/photo/1
p2605
sVdisplay_url
p2606
Vpic.twitter.com/ylUttRolC2
p2607
sVurl
p2608
Vhttp://t.co/ylUttRolC2
p2609
sVmedia_url_https
p2610
Vhttps://pbs.twimg.com/media/BeOR2TqCUAAgv-7.jpg
p2611
sVsource_user_id_str
p2612
V253003217
p2613
sVsource_status_id
p2614
I424343152074313728
sVid_str
p2615
V424343152078508032
p2616
sVsizes
p2617
(dp2618
Vsmall
p2619
(dp2620
Vh
p2621
I318
sVresize
p2622
Vfit
p2623
sVw
p2624
I340
ssVlarge
p2625
(dp2626
Vh
p2627
I319
sVresize
p2628
Vfit
p2629
sVw
p2630
I341
ssVmedium
p2631
(dp2632
Vh
p2633
I319
sVresize
p2634
Vfit
p2635
sVw
p2636
I341
ssVthumb
p2637
(dp2638
Vh
p2639
I150
sVresize
p2640
Vcrop
p2641
sVw
p2642
I150
sssVindices
p2643
(lp2644
I21
aI43
asVtype
p2645
Vphoto
p2646
sVid
p2647
I424343152078508032
sVmedia_url
p2648
Vhttp://pbs.twimg.com/media/BeOR2TqCUAAgv-7.jpg
p2649
sasg93
Nsg94
Nsg95
Nsg96
VSun Dec 14 18:49:05 +0000 2014
p2650
sg98
Nsg99
I00
sg100
Nsg101
Nsg102
Nsg103
Nsg104
I00
sg105
Nsg106
(lp2651
g3
(g117
g5
Ntp2652
Rp2653
(dp2654
g10
Nsg122
Nsg124
Nsg126
Nsg127
Nsg128
Nsg96
Nsg130
Nsg131
Nsg133
Nsg135
Nsg136
Nsg137
Nsg138
Nsg139
Nsg140
Nsg142
Nsg143
Nsg144
Nsg146
Nsg147
Nsg148
Nsg150
VCutestAnimalsPh
p2655
sg152
Nsg153
VCutest Animals
p2656
sg155
Nsg157
Nsg159
I253003190
sg160
Nsbasg108
Nsg109
Nsg110
Nsg111
VRT @CutestAnimalsPh: http://t.co/ylUttRolC2
p2657
sg113
I00
sg114
Vund
p2658
sg116
g3
(g117
g5
Ntp2659
Rp2660
(dp2661
g10
VKarachi
p2662
sg122
V333333
p2663
sg124
Ven
p2664
sg126
Nsg127
I2236
sg128
I33444
sg96
VSun Oct 13 10:11:19 +0000 2013
p2665
sg130
I00
sg131
g234
sg133
Vhttps://pbs.twimg.com/profile_images/424960110956650496/RzeO6zE3_normal.jpeg
p2666
sg135
I1999
sg136
I41237
sg137
Nsg138
Nsg139
I00
sg140
Vhttps://pbs.twimg.com/profile_banners/712399965/1385041858
p2667
sg142
I00
sg143
I00
sg144
V0084B4
p2668
sg146
I01
sg147
I00
sg148
Vhttp://abs.twimg.com/images/themes/theme1/bg.png
p2669
sg150
Vnshaikh6677
p2670
sg152
I27
sg153
VNasrullah Shaikh
p2671
sg155
VDDEEF6
p2672
sg157
Nsg159
I712399965
sg160
VC0DEED
p2673
sbsg162
I24
sg163
V<a href="http://twitter.com/download/android" rel="nofollow">Twitter for Android</a>
p2674
sg165
(lp2675
sg159
I544202433916698624
sbag3
(g4
g5
Ntp2676
Rp2677
(dp2678
g9
I0
sg10
Nsg11
Nsg12
(lp2679
sg28
I00
sg29
g3
(g4
g5
Ntp2680
Rp2681
(dp2682
g9
I30
sg10
Nsg11
Nsg12
(lp2683
sg28
I00
sg29
Nsg46
Nsg47
(lp2684
(dp2685
Vsource_user_id
p2686
I253003217
sVsource_status_id_str
p2687
V424343250397184001
p2688
sVexpanded_url
p2689
Vhttp://twitter.com/CutestAnimalsPi/status/424343250397184001/photo/1
p2690
sVdisplay_url
p2691
Vpic.twitter.com/oZemdyBKEi
p2692
sVurl
p2693
Vhttp://t.co/oZemdyBKEi
p2694
sVmedia_url_https
p2695
Vhttps://pbs.twimg.com/media/BeOR8B8CQAAZHPt.jpg
p2696
sVsource_user_id_str
p2697
V253003217
p2698
sVsource_status_id
p2699
I424343250397184001
sVid_str
p2700
V424343250401378304
p2701
sVsizes
p2702
(dp2703
Vsmall
p2704
(dp2705
Vh
p2706
I255
sVresize
p2707
Vfit
p2708
sVw
p2709
I340
ssVlarge
p2710
(dp2711
Vh
p2712
I350
sVresize
p2713
Vfit
p2714
sVw
p2715
I466
ssVmedium
p2716
(dp2717
Vh
p2718
I350
sVresize
p2719
Vfit
p2720
sVw
p2721
I466
ssVthumb
p2722
(dp2723
Vh
p2724
I150
sVresize
p2725
Vcrop
p2726
sVw
p2727
I150
sssVindices
p2728
(lp2729
I0
aI22
asVtype
p2730
Vphoto
p2731
sVid
p2732
I424343250401378304
sVmedia_url
p2733
Vhttp://pbs.twimg.com/media/BeOR8B8CQAAZHPt.jpg
p2734
sasg93
Nsg94
Nsg95
Nsg96
VSun Dec 14 13:00:03 +0000 2014
p2735
sg98
Nsg99
I00
sg100
Nsg101
Nsg102
Nsg103
Nsg104
I00
sg105
Nsg106
(lp2736
sg108
Nsg109
Nsg110
Nsg111
Vhttp://t.co/oZemdyBKEi
p2737
sg113
I00
sg114
Vund
p2738
sg116
g3
(g117
g5
Ntp2739
Rp2740
(dp2741
g10
g234
sg122
V333333
p2742
sg124
Ven
p2743
sg126
VCentral Time (US & Canada)
p2744
sg127
I34422
sg128
I16813
sg96
VWed Feb 16 10:49:50 +0000 2011
p2745
sg130
I00
sg131
g234
sg133
Vhttps://pbs.twimg.com/profile_images/428607162948919296/acIWGxG__normal.jpeg
p2746
sg135
I24737
sg136
I0
sg137
I-21600
sg138
Nsg139
I00
sg140
Vhttps://pbs.twimg.com/profile_banners/253003190/1391023238
p2747
sg142
I00
sg143
I00
sg144
VFF3300
p2748
sg146
I00
sg147
I00
sg148
Vhttp://abs.twimg.com/images/themes/theme6/bg.gif
p2749
sg150
VCutestAnimalsPh
p2750
sg152
I145
sg153
VCutest Animals
p2751
sg155
VA0C5C7
p2752
sg157
Nsg159
I253003190
sg160
V709397
p2753
sbsg162
I20
sg163
V<a href="http://www.kucukbeyin.com/" rel="nofollow">CutePuppyPhoto</a>
p2754
sg165
(lp2755
sg159
I544114595233689601
sbsg46
Nsg47
(lp2756
(dp2757
Vsource_user_id
p2758
I253003217
sVsource_status_id_str
p2759
V424343250397184001
p2760
sVexpanded_url
p2761
Vhttp://twitter.com/CutestAnimalsPi/status/424343250397184001/photo/1
p2762
sVdisplay_url
p2763
Vpic.twitter.com/oZemdyBKEi
p2764
sVurl
p2765
Vhttp://t.co/oZemdyBKEi
p2766
sVmedia_url_https
p2767
Vhttps://pbs.twimg.com/media/BeOR8B8CQAAZHPt.jpg
p2768
sVsource_user_id_str
p2769
V253003217
p2770
sVsource_status_id
p2771
I424343250397184001
sVid_str
p2772
V424343250401378304
p2773
sVsizes
p2774
(dp2775
Vsmall
p2776
(dp2777
Vh
p2778
I255
sVresize
p2779
Vfit
p2780
sVw
p2781
I340
ssVlarge
p2782
(dp2783
Vh
p2784
I350
sVresize
p2785
Vfit
p2786
sVw
p2787
I466
ssVmedium
p2788
(dp2789
Vh
p2790
I350
sVresize
p2791
Vfit
p2792
sVw
p2793
I466
ssVthumb
p2794
(dp2795
Vh
p2796
I150
sVresize
p2797
Vcrop
p2798
sVw
p2799
I150
sssVindices
p2800
(lp2801
I21
aI43
asVtype
p2802
Vphoto
p2803
sVid
p2804
I424343250401378304
sVmedia_url
p2805
Vhttp://pbs.twimg.com/media/BeOR8B8CQAAZHPt.jpg
p2806
sasg93
Nsg94
Nsg95
Nsg96
VSun Dec 14 18:49:02 +0000 2014
p2807
sg98
Nsg99
I00
sg100
Nsg101
Nsg102
Nsg103
Nsg104
I00
sg105
Nsg106
(lp2808
g3
(g117
g5
Ntp2809
Rp2810
(dp2811
g10
Nsg122
Nsg124
Nsg126
Nsg127
Nsg128
Nsg96
Nsg130
Nsg131
Nsg133
Nsg135
Nsg136
Nsg137
Nsg138
Nsg139
Nsg140
Nsg142
Nsg143
Nsg144
Nsg146
Nsg147
Nsg148
Nsg150
VCutestAnimalsPh
p2812
sg152
Nsg153
VCutest Animals
p2813
sg155
Nsg157
Nsg159
I253003190
sg160
Nsbasg108
Nsg109
Nsg110
Nsg111
VRT @CutestAnimalsPh: http://t.co/oZemdyBKEi
p2814
sg113
I00
sg114
Vund
p2815
sg116
g3
(g117
g5
Ntp2816
Rp2817
(dp2818
g10
VKarachi
p2819
sg122
V333333
p2820
sg124
Ven
p2821
sg126
Nsg127
I2236
sg128
I33444
sg96
VSun Oct 13 10:11:19 +0000 2013
p2822
sg130
I00
sg131
g234
sg133
Vhttps://pbs.twimg.com/profile_images/424960110956650496/RzeO6zE3_normal.jpeg
p2823
sg135
I1999
sg136
I41237
sg137
Nsg138
Nsg139
I00
sg140
Vhttps://pbs.twimg.com/profile_banners/712399965/1385041858
p2824
sg142
I00
sg143
I00
sg144
V0084B4
p2825
sg146
I01
sg147
I00
sg148
Vhttp://abs.twimg.com/images/themes/theme1/bg.png
p2826
sg150
Vnshaikh6677
p2827
sg152
I27
sg153
VNasrullah Shaikh
p2828
sg155
VDDEEF6
p2829
sg157
Nsg159
I712399965
sg160
VC0DEED
p2830
sbsg162
I20
sg163
V<a href="http://twitter.com/download/android" rel="nofollow">Twitter for Android</a>
p2831
sg165
(lp2832
sg159
I544202419052498945
sbag3
(g4
g5
Ntp2833
Rp2834
(dp2835
g9
I0
sg10
Nsg11
Nsg12
(lp2836
sg28
I00
sg29
g3
(g4
g5
Ntp2837
Rp2838
(dp2839
g9
I39
sg10
Nsg11
Nsg12
(lp2840
sg28
I00
sg29
Nsg46
Nsg47
(lp2841
(dp2842
Vsource_user_id
p2843
I253003217
sVsource_status_id_str
p2844
V424343296907825152
p2845
sVexpanded_url
p2846
Vhttp://twitter.com/CutestAnimalsPi/status/424343296907825152/photo/1
p2847
sVdisplay_url
p2848
Vpic.twitter.com/kFb3u3BpPT
p2849
sVurl
p2850
Vhttp://t.co/kFb3u3BpPT
p2851
sVmedia_url_https
p2852
Vhttps://pbs.twimg.com/media/BeOR-vNCUAAu0a3.jpg
p2853
sVsource_user_id_str
p2854
V253003217
p2855
sVsource_status_id
p2856
I424343296907825152
sVid_str
p2857
V424343296912019456
p2858
sVsizes
p2859
(dp2860
Vlarge
p2861
(dp2862
Vh
p2863
I371
sVresize
p2864
Vfit
p2865
sVw
p2866
I661
ssVsmall
p2867
(dp2868
Vh
p2869
I190
sVresize
p2870
Vfit
p2871
sVw
p2872
I340
ssVmedium
p2873
(dp2874
Vh
p2875
I336
sVresize
p2876
Vfit
p2877
sVw
p2878
I600
ssVthumb
p2879
(dp2880
Vh
p2881
I150
sVresize
p2882
Vcrop
p2883
sVw
p2884
I150
sssVindices
p2885
(lp2886
I0
aI22
asVtype
p2887
Vphoto
p2888
sVid
p2889
I424343296912019456
sVmedia_url
p2890
Vhttp://pbs.twimg.com/media/BeOR-vNCUAAu0a3.jpg
p2891
sasg93
Nsg94
Nsg95
Nsg96
VSun Dec 14 13:30:03 +0000 2014
p2892
sg98
Nsg99
I00
sg100
Nsg101
Nsg102
Nsg103
Nsg104
I00
sg105
Nsg106
(lp2893
sg108
Nsg109
Nsg110
Nsg111
Vhttp://t.co/kFb3u3BpPT
p2894
sg113
I00
sg114
Vund
p2895
sg116
g3
(g117
g5
Ntp2896
Rp2897
(dp2898
g10
g234
sg122
V333333
p2899
sg124
Ven
p2900
sg126
VCentral Time (US & Canada)
p2901
sg127
I34422
sg128
I16813
sg96
VWed Feb 16 10:49:50 +0000 2011
p2902
sg130
I00
sg131
g234
sg133
Vhttps://pbs.twimg.com/profile_images/428607162948919296/acIWGxG__normal.jpeg
p2903
sg135
I24737
sg136
I0
sg137
I-21600
sg138
Nsg139
I00
sg140
Vhttps://pbs.twimg.com/profile_banners/253003190/1391023238
p2904
sg142
I00
sg143
I00
sg144
VFF3300
p2905
sg146
I00
sg147
I00
sg148
Vhttp://abs.twimg.com/images/themes/theme6/bg.gif
p2906
sg150
VCutestAnimalsPh
p2907
sg152
I145
sg153
VCutest Animals
p2908
sg155
VA0C5C7
p2909
sg157
Nsg159
I253003190
sg160
V709397
p2910
sbsg162
I34
sg163
V<a href="http://www.kucukbeyin.com/" rel="nofollow">CutePuppyPhoto</a>
p2911
sg165
(lp2912
sg159
I544122147002523648
sbsg46
Nsg47
(lp2913
(dp2914
Vsource_user_id
p2915
I253003217
sVsource_status_id_str
p2916
V424343296907825152
p2917
sVexpanded_url
p2918
Vhttp://twitter.com/CutestAnimalsPi/status/424343296907825152/photo/1
p2919
sVdisplay_url
p2920
Vpic.twitter.com/kFb3u3BpPT
p2921
sVurl
p2922
Vhttp://t.co/kFb3u3BpPT
p2923
sVmedia_url_https
p2924
Vhttps://pbs.twimg.com/media/BeOR-vNCUAAu0a3.jpg
p2925
sVsource_user_id_str
p2926
V253003217
p2927
sVsource_status_id
p2928
I424343296907825152
sVid_str
p2929
V424343296912019456
p2930
sVsizes
p2931
(dp2932
Vlarge
p2933
(dp2934
Vh
p2935
I371
sVresize
p2936
Vfit
p2937
sVw
p2938
I661
ssVsmall
p2939
(dp2940
Vh
p2941
I190
sVresize
p2942
Vfit
p2943
sVw
p2944
I340
ssVmedium
p2945
(dp2946
Vh
p2947
I336
sVresize
p2948
Vfit
p2949
sVw
p2950
I600
ssVthumb
p2951
(dp2952
Vh
p2953
I150
sVresize
p2954
Vcrop
p2955
sVw
p2956
I150
sssVindices
p2957
(lp2958
I21
aI43
asVtype
p2959
Vphoto
p2960
sVid
p2961
I424343296912019456
sVmedia_url
p2962
Vhttp://pbs.twimg.com/media/BeOR-vNCUAAu0a3.jpg
p2963
sasg93
Nsg94
Nsg95
Nsg96
VSun Dec 14 18:48:57 +0000 2014
p2964
sg98
Nsg99
I00
sg100
Nsg101
Nsg102
Nsg103
Nsg104
I00
sg105
Nsg106
(lp2965
g3
(g117
g5
Ntp2966
Rp2967
(dp2968
g10
Nsg122
Nsg124
Nsg126
Nsg127
Nsg128
Nsg96
Nsg130
Nsg131
Nsg133
Nsg135
Nsg136
Nsg137
Nsg138
Nsg139
Nsg140
Nsg142
Nsg143
Nsg144
Nsg146
Nsg147
Nsg148
Nsg150
VCutestAnimalsPh
p2969
sg152
Nsg153
VCutest Animals
p2970
sg155
Nsg157
Nsg159
I253003190
sg160
Nsbasg108
Nsg109
Nsg110
Nsg111
VRT @CutestAnimalsPh: http://t.co/kFb3u3BpPT
p2971
sg113
I00
sg114
Vund
p2972
sg116
g3
(g117
g5
Ntp2973
Rp2974
(dp2975
g10
VKarachi
p2976
sg122
V333333
p2977
sg124
Ven
p2978
sg126
Nsg127
I2236
sg128
I33444
sg96
VSun Oct 13 10:11:19 +0000 2013
p2979
sg130
I00
sg131
g234
sg133
Vhttps://pbs.twimg.com/profile_images/424960110956650496/RzeO6zE3_normal.jpeg
p2980
sg135
I1999
sg136
I41237
sg137
Nsg138
Nsg139
I00
sg140
Vhttps://pbs.twimg.com/profile_banners/712399965/1385041858
p2981
sg142
I00
sg143
I00
sg144
V0084B4
p2982
sg146
I01
sg147
I00
sg148
Vhttp://abs.twimg.com/images/themes/theme1/bg.png
p2983
sg150
Vnshaikh6677
p2984
sg152
I27
sg153
VNasrullah Shaikh
p2985
sg155
VDDEEF6
p2986
sg157
Nsg159
I712399965
sg160
VC0DEED
p2987
sbsg162
I34
sg163
V<a href="http://twitter.com/download/android" rel="nofollow">Twitter for Android</a>
p2988
sg165
(lp2989
sg159
I544202401385689089
sbag3
(g4
g5
Ntp2990
Rp2991
(dp2992
g9
I0
sg10
Nsg11
Nsg12
(lp2993
sg28
I00
sg29
g3
(g4
g5
Ntp2994
Rp2995
(dp2996
g9
I36
sg10
Nsg11
Nsg12
(lp2997
sg28
I00
sg29
Nsg46
Nsg47
(lp2998
(dp2999
Vsource_user_id
p3000
I253003217
sVsource_status_id_str
p3001
V424671923688071168
p3002
sVexpanded_url
p3003
Vhttp://twitter.com/CutestAnimalsPi/status/424671923688071168/photo/1
p3004
sVdisplay_url
p3005
Vpic.twitter.com/b8kjbegeMv
p3006
sVurl
p3007
Vhttp://t.co/b8kjbegeMv
p3008
sVmedia_url_https
p3009
Vhttps://pbs.twimg.com/media/BeS83U1CUAEBMqn.jpg
p3010
sVsource_user_id_str
p3011
V253003217
p3012
sVsource_status_id
p3013
I424671923688071168
sVid_str
p3014
V424671923549655041
p3015
sVsizes
p3016
(dp3017
Vsmall
p3018
(dp3019
Vh
p3020
I453
sVresize
p3021
Vfit
p3022
sVw
p3023
I340
ssVlarge
p3024
(dp3025
Vh
p3026
I667
sVresize
p3027
Vfit
p3028
sVw
p3029
I500
ssVmedium
p3030
(dp3031
Vh
p3032
I667
sVresize
p3033
Vfit
p3034
sVw
p3035
I500
ssVthumb
p3036
(dp3037
Vh
p3038
I150
sVresize
p3039
Vcrop
p3040
sVw
p3041
I150
sssVindices
p3042
(lp3043
I0
aI22
asVtype
p3044
Vphoto
p3045
sVid
p3046
I424671923549655041
sVmedia_url
p3047
Vhttp://pbs.twimg.com/media/BeS83U1CUAEBMqn.jpg
p3048
sasg93
Nsg94
Nsg95
Nsg96
VSun Dec 14 14:30:03 +0000 2014
p3049
sg98
Nsg99
I00
sg100
Nsg101
Nsg102
Nsg103
Nsg104
I00
sg105
Nsg106
(lp3050
sg108
Nsg109
Nsg110
Nsg111
Vhttp://t.co/b8kjbegeMv
p3051
sg113
I00
sg114
Vund
p3052
sg116
g3
(g117
g5
Ntp3053
Rp3054
(dp3055
g10
g234
sg122
V333333
p3056
sg124
Ven
p3057
sg126
VCentral Time (US & Canada)
p3058
sg127
I34422
sg128
I16813
sg96
VWed Feb 16 10:49:50 +0000 2011
p3059
sg130
I00
sg131
g234
sg133
Vhttps://pbs.twimg.com/profile_images/428607162948919296/acIWGxG__normal.jpeg
p3060
sg135
I24737
sg136
I0
sg137
I-21600
sg138
Nsg139
I00
sg140
Vhttps://pbs.twimg.com/profile_banners/253003190/1391023238
p3061
sg142
I00
sg143
I00
sg144
VFF3300
p3062
sg146
I00
sg147
I00
sg148
Vhttp://abs.twimg.com/images/themes/theme6/bg.gif
p3063
sg150
VCutestAnimalsPh
p3064
sg152
I145
sg153
VCutest Animals
p3065
sg155
VA0C5C7
p3066
sg157
Nsg159
I253003190
sg160
V709397
p3067
sbsg162
I30
sg163
V<a href="http://www.kucukbeyin.com/" rel="nofollow">CutePuppyPhoto</a>
p3068
sg165
(lp3069
sg159
I544137245268402177
sbsg46
Nsg47
(lp3070
(dp3071
Vsource_user_id
p3072
I253003217
sVsource_status_id_str
p3073
V424671923688071168
p3074
sVexpanded_url
p3075
Vhttp://twitter.com/CutestAnimalsPi/status/424671923688071168/photo/1
p3076
sVdisplay_url
p3077
Vpic.twitter.com/b8kjbegeMv
p3078
sVurl
p3079
Vhttp://t.co/b8kjbegeMv
p3080
sVmedia_url_https
p3081
Vhttps://pbs.twimg.com/media/BeS83U1CUAEBMqn.jpg
p3082
sVsource_user_id_str
p3083
V253003217
p3084
sVsource_status_id
p3085
I424671923688071168
sVid_str
p3086
V424671923549655041
p3087
sVsizes
p3088
(dp3089
Vsmall
p3090
(dp3091
Vh
p3092
I453
sVresize
p3093
Vfit
p3094
sVw
p3095
I340
ssVlarge
p3096
(dp3097
Vh
p3098
I667
sVresize
p3099
Vfit
p3100
sVw
p3101
I500
ssVmedium
p3102
(dp3103
Vh
p3104
I667
sVresize
p3105
Vfit
p3106
sVw
p3107
I500
ssVthumb
p3108
(dp3109
Vh
p3110
I150
sVresize
p3111
Vcrop
p3112
sVw
p3113
I150
sssVindices
p3114
(lp3115
I21
aI43
asVtype
p3116
Vphoto
p3117
sVid
p3118
I424671923549655041
sVmedia_url
p3119
Vhttp://pbs.twimg.com/media/BeS83U1CUAEBMqn.jpg
p3120
sasg93
Nsg94
Nsg95
Nsg96
VSun Dec 14 18:48:54 +0000 2014
p3121
sg98
Nsg99
I00
sg100
Nsg101
Nsg102
Nsg103
Nsg104
I00
sg105
Nsg106
(lp3122
g3
(g117
g5
Ntp3123
Rp3124
(dp3125
g10
Nsg122
Nsg124
Nsg126
Nsg127
Nsg128
Nsg96
Nsg130
Nsg131
Nsg133
Nsg135
Nsg136
Nsg137
Nsg138
Nsg139
Nsg140
Nsg142
Nsg143
Nsg144
Nsg146
Nsg147
Nsg148
Nsg150
VCutestAnimalsPh
p3126
sg152
Nsg153
VCutest Animals
p3127
sg155
Nsg157
Nsg159
I253003190
sg160
Nsbasg108
Nsg109
Nsg110
Nsg111
VRT @CutestAnimalsPh: http://t.co/b8kjbegeMv
p3128
sg113
I00
sg114
Vund
p3129
sg116
g3
(g117
g5
Ntp3130
Rp3131
(dp3132
g10
VKarachi
p3133
sg122
V333333
p3134
sg124
Ven
p3135
sg126
Nsg127
I2236
sg128
I33444
sg96
VSun Oct 13 10:11:19 +0000 2013
p3136
sg130
I00
sg131
g234
sg133
Vhttps://pbs.twimg.com/profile_images/424960110956650496/RzeO6zE3_normal.jpeg
p3137
sg135
I1999
sg136
I41237
sg137
Nsg138
Nsg139
I00
sg140
Vhttps://pbs.twimg.com/profile_banners/712399965/1385041858
p3138
sg142
I00
sg143
I00
sg144
V0084B4
p3139
sg146
I01
sg147
I00
sg148
Vhttp://abs.twimg.com/images/themes/theme1/bg.png
p3140
sg150
Vnshaikh6677
p3141
sg152
I27
sg153
VNasrullah Shaikh
p3142
sg155
VDDEEF6
p3143
sg157
Nsg159
I712399965
sg160
VC0DEED
p3144
sbsg162
I30
sg163
V<a href="http://twitter.com/download/android" rel="nofollow">Twitter for Android</a>
p3145
sg165
(lp3146
sg159
I544202386206519296
sbaa.