(lp0
S'Greennesian'
p1
a(lp2
ccopy_reg
_reconstructor
p3
(ctwitter
Status
p4
c__builtin__
object
p5
Ntp6
Rp7
(dp8
S'_favorite_count'
p9
I0
sS'_location'
p10
NsS'_withheld_scope'
p11
NsS'hashtags'
p12
(lp13
g3
(ctwitter
Hashtag
p14
g5
Ntp15
Rp16
(dp17
S'text'
p18
Vafcvnufc
p19
sbasS'_truncated'
p20
I00
sS'_retweeted_status'
p21
NsS'_withheld_copyright'
p22
NsS'media'
p23
(lp24
sS'_place'
p25
NsS'_contributors'
p26
NsS'_current_user_retweet'
p27
NsS'_created_at'
p28
VSat Dec 13 18:50:32 +0000 2014
p29
sS'_scopes'
p30
NsS'_possibly_sensitive'
p31
I00
sS'_in_reply_to_screen_name'
p32
NsS'_coordinates'
p33
NsS'_in_reply_to_user_id'
p34
NsS'_geo'
p35
NsS'_favorited'
p36
I00
sS'_withheld_in_countries'
p37
NsS'user_mentions'
p38
(lp39
sS'_now'
p40
NsS'_id_str'
p41
V543840409755987968
p42
sS'_in_reply_to_status_id'
p43
NsS'_text'
p44
VWatch Watch Arsenal vs Newcastle United Live Streaming Here =&gt; http://t.co/reMcGnb3rG #afcvnufc tv221 ch916
p45
sS'_retweeted'
p46
I00
sS'lang'
p47
Ven
p48
sS'_user'
p49
g3
(ctwitter
User
p50
g5
Ntp51
Rp52
(dp53
g10
V
p54
sS'_profile_text_color'
p55
V333333
p56
sS'_lang'
p57
Ven
p58
sS'_time_zone'
p59
NsS'_followers_count'
p60
I139
sS'_statuses_count'
p61
I120984
sg28
VFri Mar 22 16:07:59 +0000 2013
p62
sS'_verified'
p63
I00
sS'_description'
p64
g54
sS'_profile_image_url'
p65
Vhttps://pbs.twimg.com/profile_images/3414397001/9b4c95d877e83427faf247075e0a6151_normal.jpeg
p66
sS'_friends_count'
p67
I13
sS'_favourites_count'
p68
I0
sS'_utc_offset'
p69
NsS'_status'
p70
NsS'_protected'
p71
I00
sS'_profile_banner_url'
p72
NsS'_notifications'
p73
I00
sS'_profile_background_tile'
p74
I00
sS'_profile_link_color'
p75
V0084B4
p76
sS'_geo_enabled'
p77
I00
sS'_contributors_enabled'
p78
I00
sS'_profile_background_image_url'
p79
Vhttp://abs.twimg.com/images/themes/theme1/bg.png
p80
sS'_screen_name'
p81
VGreennesian
p82
sS'_listed_count'
p83
I1
sS'_name'
p84
VGreennesian
p85
sS'_profile_sidebar_fill_color'
p86
VDDEEF6
p87
sS'_url'
p88
NsS'_id'
p89
I1289047398
sS'_profile_background_color'
p90
VC0DEED
p91
sbsS'_retweet_count'
p92
I0
sS'_source'
p93
V<a href="http://www.blogger.com" rel="nofollow">Greennesian4tewt</a>
p94
sS'urls'
p95
(lp96
g3
(ctwitter
Url
p97
g5
Ntp98
Rp99
(dp100
S'url'
p101
Vhttp://t.co/reMcGnb3rG
p102
sS'expanded_url'
p103
Vhttp://tinyurl.com/nn3clg4
p104
sbasg89
I543840409755987968
sbag3
(g4
g5
Ntp105
Rp106
(dp107
g9
I0
sg10
Nsg11
Nsg12
(lp108
sg20
I00
sg21
Nsg22
Nsg23
(lp109
sg25
Nsg26
Nsg27
Nsg28
VSat Dec 13 18:49:46 +0000 2014
p110
sg30
Nsg31
I00
sg32
Nsg33
Nsg34
Nsg35
Nsg36
I00
sg37
Nsg38
(lp111
sg40
Nsg41
V543840217245818880
p112
sg43
Nsg44
VWatch Watch Arsenal vs Newcastle United Live Streaming Here =&gt; http://t.co/reMcGnb3rG tv989 ch297
p113
sg46
I00
sg47
Ven
p114
sg49
g3
(g50
g5
Ntp115
Rp116
(dp117
g10
g54
sg55
V333333
p118
sg57
Ven
p119
sg59
Nsg60
I139
sg61
I120984
sg28
VFri Mar 22 16:07:59 +0000 2013
p120
sg63
I00
sg64
g54
sg65
Vhttps://pbs.twimg.com/profile_images/3414397001/9b4c95d877e83427faf247075e0a6151_normal.jpeg
p121
sg67
I13
sg68
I0
sg69
Nsg70
Nsg71
I00
sg72
Nsg73
I00
sg74
I00
sg75
V0084B4
p122
sg77
I00
sg78
I00
sg79
Vhttp://abs.twimg.com/images/themes/theme1/bg.png
p123
sg81
VGreennesian
p124
sg83
I1
sg84
VGreennesian
p125
sg86
VDDEEF6
p126
sg88
Nsg89
I1289047398
sg90
VC0DEED
p127
sbsg92
I0
sg93
V<a href="http://www.blogger.com" rel="nofollow">Greennesian4tewt</a>
p128
sg95
(lp129
g3
(g97
g5
Ntp130
Rp131
(dp132
g101
Vhttp://t.co/reMcGnb3rG
p133
sg103
Vhttp://tinyurl.com/nn3clg4
p134
sbasg89
I543840217245818880
sbag3
(g4
g5
Ntp135
Rp136
(dp137
g9
I0
sg10
Nsg11
Nsg12
(lp138
g3
(g14
g5
Ntp139
Rp140
(dp141
g18
Vafcvnufc
p142
sbasg20
I00
sg21
Nsg22
Nsg23
(lp143
sg25
Nsg26
Nsg27
Nsg28
VSat Dec 13 18:48:51 +0000 2014
p144
sg30
Nsg31
I00
sg32
Nsg33
Nsg34
Nsg35
Nsg36
I00
sg37
Nsg38
(lp145
sg40
Nsg41
V543839986525560832
p146
sg43
Nsg44
VWatch Newcastle United vs Arsenal Live Online Stream =&gt; http://t.co/gcQ5cmlxJ9 #afcvnufc tv573 ch625
p147
sg46
I00
sg47
Ven
p148
sg49
g3
(g50
g5
Ntp149
Rp150
(dp151
g10
g54
sg55
V333333
p152
sg57
Ven
p153
sg59
Nsg60
I139
sg61
I120984
sg28
VFri Mar 22 16:07:59 +0000 2013
p154
sg63
I00
sg64
g54
sg65
Vhttps://pbs.twimg.com/profile_images/3414397001/9b4c95d877e83427faf247075e0a6151_normal.jpeg
p155
sg67
I13
sg68
I0
sg69
Nsg70
Nsg71
I00
sg72
Nsg73
I00
sg74
I00
sg75
V0084B4
p156
sg77
I00
sg78
I00
sg79
Vhttp://abs.twimg.com/images/themes/theme1/bg.png
p157
sg81
VGreennesian
p158
sg83
I1
sg84
VGreennesian
p159
sg86
VDDEEF6
p160
sg88
Nsg89
I1289047398
sg90
VC0DEED
p161
sbsg92
I0
sg93
V<a href="http://www.blogger.com" rel="nofollow">Greennesian4tewt</a>
p162
sg95
(lp163
g3
(g97
g5
Ntp164
Rp165
(dp166
g101
Vhttp://t.co/gcQ5cmlxJ9
p167
sg103
Vhttp://tinyurl.com/q9rpqz3
p168
sbasg89
I543839986525560832
sbag3
(g4
g5
Ntp169
Rp170
(dp171
g9
I0
sg10
Nsg11
Nsg12
(lp172
g3
(g14
g5
Ntp173
Rp174
(dp175
g18
VAFCvNUFC
p176
sbasg20
I00
sg21
Nsg22
Nsg23
(lp177
sg25
Nsg26
Nsg27
Nsg28
VSat Dec 13 18:47:55 +0000 2014
p178
sg30
Nsg31
I00
sg32
Nsg33
Nsg34
Nsg35
Nsg36
I00
sg37
Nsg38
(lp179
sg40
Nsg41
V543839752676327424
p180
sg43
Nsg44
VWatch Arsenal vs Newcastle United Live Stream =&gt; http://t.co/reMcGnb3rG #AFCvNUFC tv143 ch894
p181
sg46
I00
sg47
Ven
p182
sg49
g3
(g50
g5
Ntp183
Rp184
(dp185
g10
g54
sg55
V333333
p186
sg57
Ven
p187
sg59
Nsg60
I139
sg61
I120984
sg28
VFri Mar 22 16:07:59 +0000 2013
p188
sg63
I00
sg64
g54
sg65
Vhttps://pbs.twimg.com/profile_images/3414397001/9b4c95d877e83427faf247075e0a6151_normal.jpeg
p189
sg67
I13
sg68
I0
sg69
Nsg70
Nsg71
I00
sg72
Nsg73
I00
sg74
I00
sg75
V0084B4
p190
sg77
I00
sg78
I00
sg79
Vhttp://abs.twimg.com/images/themes/theme1/bg.png
p191
sg81
VGreennesian
p192
sg83
I1
sg84
VGreennesian
p193
sg86
VDDEEF6
p194
sg88
Nsg89
I1289047398
sg90
VC0DEED
p195
sbsg92
I0
sg93
V<a href="http://www.blogger.com" rel="nofollow">Greennesian4tewt</a>
p196
sg95
(lp197
g3
(g97
g5
Ntp198
Rp199
(dp200
g101
Vhttp://t.co/reMcGnb3rG
p201
sg103
Vhttp://tinyurl.com/nn3clg4
p202
sbasg89
I543839752676327424
sbag3
(g4
g5
Ntp203
Rp204
(dp205
g9
I0
sg10
Nsg11
Nsg12
(lp206
g3
(g14
g5
Ntp207
Rp208
(dp209
g18
VAFCvNUFC
p210
sbasg20
I00
sg21
Nsg22
Nsg23
(lp211
sg25
Nsg26
Nsg27
Nsg28
VSat Dec 13 18:46:51 +0000 2014
p212
sg30
Nsg31
I00
sg32
Nsg33
Nsg34
Nsg35
Nsg36
I00
sg37
Nsg38
(lp213
sg40
Nsg41
V543839484349923328
p214
sg43
Nsg44
VWatch Arsenal vs Newcastle United Live Online Full HDTV =&gt; http://t.co/rsamKVyfA8 #AFCvNUFC tv707 ch962
p215
sg46
I00
sg47
Ven
p216
sg49
g3
(g50
g5
Ntp217
Rp218
(dp219
g10
g54
sg55
V333333
p220
sg57
Ven
p221
sg59
Nsg60
I139
sg61
I120984
sg28
VFri Mar 22 16:07:59 +0000 2013
p222
sg63
I00
sg64
g54
sg65
Vhttps://pbs.twimg.com/profile_images/3414397001/9b4c95d877e83427faf247075e0a6151_normal.jpeg
p223
sg67
I13
sg68
I0
sg69
Nsg70
Nsg71
I00
sg72
Nsg73
I00
sg74
I00
sg75
V0084B4
p224
sg77
I00
sg78
I00
sg79
Vhttp://abs.twimg.com/images/themes/theme1/bg.png
p225
sg81
VGreennesian
p226
sg83
I1
sg84
VGreennesian
p227
sg86
VDDEEF6
p228
sg88
Nsg89
I1289047398
sg90
VC0DEED
p229
sbsg92
I0
sg93
V<a href="http://www.blogger.com" rel="nofollow">Greennesian4tewt</a>
p230
sg95
(lp231
g3
(g97
g5
Ntp232
Rp233
(dp234
g101
Vhttp://t.co/rsamKVyfA8
p235
sg103
Vhttp://tinyurl.com/ntvo8mt
p236
sbasg89
I543839484349923328
sbag3
(g4
g5
Ntp237
Rp238
(dp239
g9
I0
sg10
Nsg11
Nsg12
(lp240
sg20
I00
sg21
Nsg22
Nsg23
(lp241
sg25
Nsg26
Nsg27
Nsg28
VSat Dec 13 18:45:58 +0000 2014
p242
sg30
Nsg31
I00
sg32
Nsg33
Nsg34
Nsg35
Nsg36
I00
sg37
Nsg38
(lp243
sg40
Nsg41
V543839262068592641
p244
sg43
Nsg44
VToday Watch Newcastle United vs Arsenal Live Online Stream =&gt; http://t.co/gcQ5cmlxJ9 tv812 ch869
p245
sg46
I00
sg47
Ven
p246
sg49
g3
(g50
g5
Ntp247
Rp248
(dp249
g10
g54
sg55
V333333
p250
sg57
Ven
p251
sg59
Nsg60
I139
sg61
I120984
sg28
VFri Mar 22 16:07:59 +0000 2013
p252
sg63
I00
sg64
g54
sg65
Vhttps://pbs.twimg.com/profile_images/3414397001/9b4c95d877e83427faf247075e0a6151_normal.jpeg
p253
sg67
I13
sg68
I0
sg69
Nsg70
Nsg71
I00
sg72
Nsg73
I00
sg74
I00
sg75
V0084B4
p254
sg77
I00
sg78
I00
sg79
Vhttp://abs.twimg.com/images/themes/theme1/bg.png
p255
sg81
VGreennesian
p256
sg83
I1
sg84
VGreennesian
p257
sg86
VDDEEF6
p258
sg88
Nsg89
I1289047398
sg90
VC0DEED
p259
sbsg92
I0
sg93
V<a href="http://www.blogger.com" rel="nofollow">Greennesian4tewt</a>
p260
sg95
(lp261
g3
(g97
g5
Ntp262
Rp263
(dp264
g101
Vhttp://t.co/gcQ5cmlxJ9
p265
sg103
Vhttp://tinyurl.com/q9rpqz3
p266
sbasg89
I543839262068592641
sbag3
(g4
g5
Ntp267
Rp268
(dp269
g9
I0
sg10
Nsg11
Nsg12
(lp270
g3
(g14
g5
Ntp271
Rp272
(dp273
g18
VAFCvNUFC
p274
sbasg20
I00
sg21
Nsg22
Nsg23
(lp275
sg25
Nsg26
Nsg27
Nsg28
VSat Dec 13 18:45:07 +0000 2014
p276
sg30
Nsg31
I00
sg32
Nsg33
Nsg34
Nsg35
Nsg36
I00
sg37
Nsg38
(lp277
sg40
Nsg41
V543839048586907648
p278
sg43
Nsg44
VWatch Arsenal vs Newcastle United Live Stream =&gt; http://t.co/reMcGnb3rG #AFCvNUFC tv805 ch460
p279
sg46
I00
sg47
Ven
p280
sg49
g3
(g50
g5
Ntp281
Rp282
(dp283
g10
g54
sg55
V333333
p284
sg57
Ven
p285
sg59
Nsg60
I139
sg61
I120984
sg28
VFri Mar 22 16:07:59 +0000 2013
p286
sg63
I00
sg64
g54
sg65
Vhttps://pbs.twimg.com/profile_images/3414397001/9b4c95d877e83427faf247075e0a6151_normal.jpeg
p287
sg67
I13
sg68
I0
sg69
Nsg70
Nsg71
I00
sg72
Nsg73
I00
sg74
I00
sg75
V0084B4
p288
sg77
I00
sg78
I00
sg79
Vhttp://abs.twimg.com/images/themes/theme1/bg.png
p289
sg81
VGreennesian
p290
sg83
I1
sg84
VGreennesian
p291
sg86
VDDEEF6
p292
sg88
Nsg89
I1289047398
sg90
VC0DEED
p293
sbsg92
I0
sg93
V<a href="http://www.blogger.com" rel="nofollow">Greennesian4tewt</a>
p294
sg95
(lp295
g3
(g97
g5
Ntp296
Rp297
(dp298
g101
Vhttp://t.co/reMcGnb3rG
p299
sg103
Vhttp://tinyurl.com/nn3clg4
p300
sbasg89
I543839048586907648
sbag3
(g4
g5
Ntp301
Rp302
(dp303
g9
I0
sg10
Nsg11
Nsg12
(lp304
g3
(g14
g5
Ntp305
Rp306
(dp307
g18
VVideo
p308
sbag3
(g14
g5
Ntp309
Rp310
(dp311
g18
VUpdate
p312
sbasg20
I00
sg21
Nsg22
Nsg23
(lp313
sg25
Nsg26
Nsg27
Nsg28
VSat Dec 13 18:45:06 +0000 2014
p314
sg30
Nsg31
I00
sg32
Nsg33
Nsg34
Nsg35
Nsg36
I00
sg37
Nsg38
(lp315
sg40
Nsg41
V543839044338061312
p316
sg43
Nsg44
V#Video Kericuhan Suporter Persija, The Jakmania, dengan Petugas Pengawal Mobil Tahanan http://t.co/mswboMkaZA #Update
p317
sg46
I00
sg47
Vin
p318
sg49
g3
(g50
g5
Ntp319
Rp320
(dp321
g10
g54
sg55
V333333
p322
sg57
Ven
p323
sg59
Nsg60
I139
sg61
I120984
sg28
VFri Mar 22 16:07:59 +0000 2013
p324
sg63
I00
sg64
g54
sg65
Vhttps://pbs.twimg.com/profile_images/3414397001/9b4c95d877e83427faf247075e0a6151_normal.jpeg
p325
sg67
I13
sg68
I0
sg69
Nsg70
Nsg71
I00
sg72
Nsg73
I00
sg74
I00
sg75
V0084B4
p326
sg77
I00
sg78
I00
sg79
Vhttp://abs.twimg.com/images/themes/theme1/bg.png
p327
sg81
VGreennesian
p328
sg83
I1
sg84
VGreennesian
p329
sg86
VDDEEF6
p330
sg88
Nsg89
I1289047398
sg90
VC0DEED
p331
sbsg92
I0
sg93
V<a href="http://www.blogger.com" rel="nofollow">Greennesian4tewt</a>
p332
sg95
(lp333
g3
(g97
g5
Ntp334
Rp335
(dp336
g101
Vhttp://t.co/mswboMkaZA
p337
sg103
Vhttp://www.youtube.com/watch?v=eLNxiYlqKTU&feature=c4-overview&list=UUTRW3tiFJyhf0hG0doOml0g
p338
sbasg89
I543839044338061312
sbag3
(g4
g5
Ntp339
Rp340
(dp341
g9
I0
sg10
Nsg11
Nsg12
(lp342
g3
(g14
g5
Ntp343
Rp344
(dp345
g18
VAFCvNUFC
p346
sbasg20
I00
sg21
Nsg22
Nsg23
(lp347
sg25
Nsg26
Nsg27
Nsg28
VSat Dec 13 18:44:25 +0000 2014
p348
sg30
Nsg31
I00
sg32
Nsg33
Nsg34
Nsg35
Nsg36
I00
sg37
Nsg38
(lp349
sg40
Nsg41
V543838869188136960
p350
sg43
Nsg44
VWatch Arsenal vs Newcastle United Live Streaming HDTV =&gt; http://t.co/reMcGnb3rG #AFCvNUFC tv220 ch428
p351
sg46
I00
sg47
Ven
p352
sg49
g3
(g50
g5
Ntp353
Rp354
(dp355
g10
g54
sg55
V333333
p356
sg57
Ven
p357
sg59
Nsg60
I139
sg61
I120984
sg28
VFri Mar 22 16:07:59 +0000 2013
p358
sg63
I00
sg64
g54
sg65
Vhttps://pbs.twimg.com/profile_images/3414397001/9b4c95d877e83427faf247075e0a6151_normal.jpeg
p359
sg67
I13
sg68
I0
sg69
Nsg70
Nsg71
I00
sg72
Nsg73
I00
sg74
I00
sg75
V0084B4
p360
sg77
I00
sg78
I00
sg79
Vhttp://abs.twimg.com/images/themes/theme1/bg.png
p361
sg81
VGreennesian
p362
sg83
I1
sg84
VGreennesian
p363
sg86
VDDEEF6
p364
sg88
Nsg89
I1289047398
sg90
VC0DEED
p365
sbsg92
I0
sg93
V<a href="http://www.blogger.com" rel="nofollow">Greennesian4tewt</a>
p366
sg95
(lp367
g3
(g97
g5
Ntp368
Rp369
(dp370
g101
Vhttp://t.co/reMcGnb3rG
p371
sg103
Vhttp://tinyurl.com/nn3clg4
p372
sbasg89
I543838869188136960
sbag3
(g4
g5
Ntp373
Rp374
(dp375
g9
I0
sg10
Nsg11
Nsg12
(lp376
sg20
I00
sg21
Nsg22
Nsg23
(lp377
sg25
Nsg26
Nsg27
Nsg28
VSat Dec 13 18:43:37 +0000 2014
p378
sg30
Nsg31
I00
sg32
Nsg33
Nsg34
Nsg35
Nsg36
I00
sg37
Nsg38
(lp379
sg40
Nsg41
V543838668192903168
p380
sg43
Nsg44
VWatch Valencia vs Rayo Vallecano Live Online Stream TV =&gt; http://t.co/Y5OzB3tG6X tv83 ch864
p381
sg46
I00
sg47
Ven
p382
sg49
g3
(g50
g5
Ntp383
Rp384
(dp385
g10
g54
sg55
V333333
p386
sg57
Ven
p387
sg59
Nsg60
I139
sg61
I120984
sg28
VFri Mar 22 16:07:59 +0000 2013
p388
sg63
I00
sg64
g54
sg65
Vhttps://pbs.twimg.com/profile_images/3414397001/9b4c95d877e83427faf247075e0a6151_normal.jpeg
p389
sg67
I13
sg68
I0
sg69
Nsg70
Nsg71
I00
sg72
Nsg73
I00
sg74
I00
sg75
V0084B4
p390
sg77
I00
sg78
I00
sg79
Vhttp://abs.twimg.com/images/themes/theme1/bg.png
p391
sg81
VGreennesian
p392
sg83
I1
sg84
VGreennesian
p393
sg86
VDDEEF6
p394
sg88
Nsg89
I1289047398
sg90
VC0DEED
p395
sbsg92
I0
sg93
V<a href="http://www.blogger.com" rel="nofollow">Greennesian4tewt</a>
p396
sg95
(lp397
g3
(g97
g5
Ntp398
Rp399
(dp400
g101
Vhttp://t.co/Y5OzB3tG6X
p401
sg103
Vhttp://tinyurl.com/lpp864d
p402
sbasg89
I543838668192903168
sbag3
(g4
g5
Ntp403
Rp404
(dp405
g9
I0
sg10
Nsg11
Nsg12
(lp406
g3
(g14
g5
Ntp407
Rp408
(dp409
g18
VAFCvNUFC
p410
sbasg20
I00
sg21
Nsg22
Nsg23
(lp411
sg25
Nsg26
Nsg27
Nsg28
VSat Dec 13 18:42:54 +0000 2014
p412
sg30
Nsg31
I00
sg32
Nsg33
Nsg34
Nsg35
Nsg36
I00
sg37
Nsg38
(lp413
sg40
Nsg41
V543838490069188608
p414
sg43
Nsg44
VWatch Newcastle United vs Arsenal Live Online Stream =&gt; http://t.co/gcQ5cmlxJ9 #AFCvNUFC tv292 ch661
p415
sg46
I00
sg47
Ven
p416
sg49
g3
(g50
g5
Ntp417
Rp418
(dp419
g10
g54
sg55
V333333
p420
sg57
Ven
p421
sg59
Nsg60
I139
sg61
I120984
sg28
VFri Mar 22 16:07:59 +0000 2013
p422
sg63
I00
sg64
g54
sg65
Vhttps://pbs.twimg.com/profile_images/3414397001/9b4c95d877e83427faf247075e0a6151_normal.jpeg
p423
sg67
I13
sg68
I0
sg69
Nsg70
Nsg71
I00
sg72
Nsg73
I00
sg74
I00
sg75
V0084B4
p424
sg77
I00
sg78
I00
sg79
Vhttp://abs.twimg.com/images/themes/theme1/bg.png
p425
sg81
VGreennesian
p426
sg83
I1
sg84
VGreennesian
p427
sg86
VDDEEF6
p428
sg88
Nsg89
I1289047398
sg90
VC0DEED
p429
sbsg92
I0
sg93
V<a href="http://www.blogger.com" rel="nofollow">Greennesian4tewt</a>
p430
sg95
(lp431
g3
(g97
g5
Ntp432
Rp433
(dp434
g101
Vhttp://t.co/gcQ5cmlxJ9
p435
sg103
Vhttp://tinyurl.com/q9rpqz3
p436
sbasg89
I543838490069188608
sbag3
(g4
g5
Ntp437
Rp438
(dp439
g9
I0
sg10
Nsg11
Nsg12
(lp440
g3
(g14
g5
Ntp441
Rp442
(dp443
g18
VMovie
p444
sbag3
(g14
g5
Ntp445
Rp446
(dp447
g18
VWatch
p448
sbag3
(g14
g5
Ntp449
Rp450
(dp451
g18
VStream
p452
sbag3
(g14
g5
Ntp453
Rp454
(dp455
g18
VBoxOffice
p456
sbasg20
I00
sg21
Nsg22
Nsg23
(lp457
sg25
Nsg26
Nsg27
Nsg28
VSat Dec 13 18:42:02 +0000 2014
p458
sg30
Nsg31
I00
sg32
Nsg33
Nsg34
Nsg35
Nsg36
I00
sg37
Nsg38
(lp459
sg40
Nsg41
V543838270975508480
p460
sg43
Nsg44
VWatch Transformers 2014 Age of Extinction Movie Instantly =&gt; http://t.co/VvQKLinlqz #Movie #Watch #Stream #BoxOffice
p461
sg46
I00
sg47
Ven
p462
sg49
g3
(g50
g5
Ntp463
Rp464
(dp465
g10
g54
sg55
V333333
p466
sg57
Ven
p467
sg59
Nsg60
I139
sg61
I120984
sg28
VFri Mar 22 16:07:59 +0000 2013
p468
sg63
I00
sg64
g54
sg65
Vhttps://pbs.twimg.com/profile_images/3414397001/9b4c95d877e83427faf247075e0a6151_normal.jpeg
p469
sg67
I13
sg68
I0
sg69
Nsg70
Nsg71
I00
sg72
Nsg73
I00
sg74
I00
sg75
V0084B4
p470
sg77
I00
sg78
I00
sg79
Vhttp://abs.twimg.com/images/themes/theme1/bg.png
p471
sg81
VGreennesian
p472
sg83
I1
sg84
VGreennesian
p473
sg86
VDDEEF6
p474
sg88
Nsg89
I1289047398
sg90
VC0DEED
p475
sbsg92
I0
sg93
V<a href="http://www.blogger.com" rel="nofollow">Greennesian4tewt</a>
p476
sg95
(lp477
g3
(g97
g5
Ntp478
Rp479
(dp480
g101
Vhttp://t.co/VvQKLinlqz
p481
sg103
Vhttp://tinyurl.com/m7428kj
p482
sbasg89
I543838270975508480
sbag3
(g4
g5
Ntp483
Rp484
(dp485
g9
I0
sg10
Nsg11
Nsg12
(lp486
sg20
I00
sg21
Nsg22
Nsg23
(lp487
sg25
Nsg26
Nsg27
Nsg28
VSat Dec 13 18:41:11 +0000 2014
p488
sg30
Nsg31
I00
sg32
Nsg33
Nsg34
Nsg35
Nsg36
I00
sg37
Nsg38
(lp489
sg40
Nsg41
V543838058773098498
p490
sg43
Nsg44
VWatch Valencia vs Rayo Vallecano Live Online Stream Click =&gt; http://t.co/Y5OzB3tG6X tv186 ch910
p491
sg46
I00
sg47
Ven
p492
sg49
g3
(g50
g5
Ntp493
Rp494
(dp495
g10
g54
sg55
V333333
p496
sg57
Ven
p497
sg59
Nsg60
I139
sg61
I120984
sg28
VFri Mar 22 16:07:59 +0000 2013
p498
sg63
I00
sg64
g54
sg65
Vhttps://pbs.twimg.com/profile_images/3414397001/9b4c95d877e83427faf247075e0a6151_normal.jpeg
p499
sg67
I13
sg68
I0
sg69
Nsg70
Nsg71
I00
sg72
Nsg73
I00
sg74
I00
sg75
V0084B4
p500
sg77
I00
sg78
I00
sg79
Vhttp://abs.twimg.com/images/themes/theme1/bg.png
p501
sg81
VGreennesian
p502
sg83
I1
sg84
VGreennesian
p503
sg86
VDDEEF6
p504
sg88
Nsg89
I1289047398
sg90
VC0DEED
p505
sbsg92
I0
sg93
V<a href="http://www.blogger.com" rel="nofollow">Greennesian4tewt</a>
p506
sg95
(lp507
g3
(g97
g5
Ntp508
Rp509
(dp510
g101
Vhttp://t.co/Y5OzB3tG6X
p511
sg103
Vhttp://tinyurl.com/lpp864d
p512
sbasg89
I543838058773098498
sbag3
(g4
g5
Ntp513
Rp514
(dp515
g9
I0
sg10
Nsg11
Nsg12
(lp516
g3
(g14
g5
Ntp517
Rp518
(dp519
g18
VAFCvNUFC
p520
sbasg20
I00
sg21
Nsg22
Nsg23
(lp521
sg25
Nsg26
Nsg27
Nsg28
VSat Dec 13 18:40:17 +0000 2014
p522
sg30
Nsg31
I00
sg32
Nsg33
Nsg34
Nsg35
Nsg36
I00
sg37
Nsg38
(lp523
sg40
Nsg41
V543837832138067969
p524
sg43
Nsg44
VWatch Newcastle United vs Arsenal Live Online Stream =&gt; http://t.co/gcQ5cmlxJ9 #AFCvNUFC tv29 ch92
p525
sg46
I00
sg47
Ven
p526
sg49
g3
(g50
g5
Ntp527
Rp528
(dp529
g10
g54
sg55
V333333
p530
sg57
Ven
p531
sg59
Nsg60
I139
sg61
I120984
sg28
VFri Mar 22 16:07:59 +0000 2013
p532
sg63
I00
sg64
g54
sg65
Vhttps://pbs.twimg.com/profile_images/3414397001/9b4c95d877e83427faf247075e0a6151_normal.jpeg
p533
sg67
I13
sg68
I0
sg69
Nsg70
Nsg71
I00
sg72
Nsg73
I00
sg74
I00
sg75
V0084B4
p534
sg77
I00
sg78
I00
sg79
Vhttp://abs.twimg.com/images/themes/theme1/bg.png
p535
sg81
VGreennesian
p536
sg83
I1
sg84
VGreennesian
p537
sg86
VDDEEF6
p538
sg88
Nsg89
I1289047398
sg90
VC0DEED
p539
sbsg92
I0
sg93
V<a href="http://www.blogger.com" rel="nofollow">Greennesian4tewt</a>
p540
sg95
(lp541
g3
(g97
g5
Ntp542
Rp543
(dp544
g101
Vhttp://t.co/gcQ5cmlxJ9
p545
sg103
Vhttp://tinyurl.com/q9rpqz3
p546
sbasg89
I543837832138067969
sbag3
(g4
g5
Ntp547
Rp548
(dp549
g9
I0
sg10
Nsg11
Nsg12
(lp550
g3
(g14
g5
Ntp551
Rp552
(dp553
g18
VVideo
p554
sbag3
(g14
g5
Ntp555
Rp556
(dp557
g18
VTV
p558
sbasg20
I00
sg21
Nsg22
Nsg23
(lp559
sg25
Nsg26
Nsg27
Nsg28
VSat Dec 13 18:40:04 +0000 2014
p560
sg30
Nsg31
I00
sg32
Nsg33
Nsg34
Nsg35
Nsg36
I00
sg37
Nsg38
(lp561
sg40
Nsg41
V543837775351402496
p562
sg43
Nsg44
V#Video Inilah Mobil Listrik yang Mewah dan Ramah Lingkungan http://t.co/xCcJ1tHHXx #TV
p563
sg46
I00
sg47
Vin
p564
sg49
g3
(g50
g5
Ntp565
Rp566
(dp567
g10
g54
sg55
V333333
p568
sg57
Ven
p569
sg59
Nsg60
I139
sg61
I120984
sg28
VFri Mar 22 16:07:59 +0000 2013
p570
sg63
I00
sg64
g54
sg65
Vhttps://pbs.twimg.com/profile_images/3414397001/9b4c95d877e83427faf247075e0a6151_normal.jpeg
p571
sg67
I13
sg68
I0
sg69
Nsg70
Nsg71
I00
sg72
Nsg73
I00
sg74
I00
sg75
V0084B4
p572
sg77
I00
sg78
I00
sg79
Vhttp://abs.twimg.com/images/themes/theme1/bg.png
p573
sg81
VGreennesian
p574
sg83
I1
sg84
VGreennesian
p575
sg86
VDDEEF6
p576
sg88
Nsg89
I1289047398
sg90
VC0DEED
p577
sbsg92
I0
sg93
V<a href="http://www.blogger.com" rel="nofollow">Greennesian4tewt</a>
p578
sg95
(lp579
g3
(g97
g5
Ntp580
Rp581
(dp582
g101
Vhttp://t.co/xCcJ1tHHXx
p583
sg103
Vhttp://www.youtube.com/watch?v=CwBTY5m-c-c&feature=c4-overview&list=UUTRW3tiFJyhf0hG0doOml0g
p584
sbasg89
I543837775351402496
sbag3
(g4
g5
Ntp585
Rp586
(dp587
g9
I0
sg10
Nsg11
Nsg12
(lp588
g3
(g14
g5
Ntp589
Rp590
(dp591
g18
Vafcvnufc
p592
sbasg20
I00
sg21
Nsg22
Nsg23
(lp593
sg25
Nsg26
Nsg27
Nsg28
VSat Dec 13 18:39:30 +0000 2014
p594
sg30
Nsg31
I00
sg32
Nsg33
Nsg34
Nsg35
Nsg36
I00
sg37
Nsg38
(lp595
sg40
Nsg41
V543837632426278912
p596
sg43
Nsg44
VNow Watch Newcastle United vs Arsenal Live Online Stream =&gt; http://t.co/gcQ5cmlxJ9 #afcvnufc tv868 ch82
p597
sg46
I00
sg47
Ven
p598
sg49
g3
(g50
g5
Ntp599
Rp600
(dp601
g10
g54
sg55
V333333
p602
sg57
Ven
p603
sg59
Nsg60
I139
sg61
I120984
sg28
VFri Mar 22 16:07:59 +0000 2013
p604
sg63
I00
sg64
g54
sg65
Vhttps://pbs.twimg.com/profile_images/3414397001/9b4c95d877e83427faf247075e0a6151_normal.jpeg
p605
sg67
I13
sg68
I0
sg69
Nsg70
Nsg71
I00
sg72
Nsg73
I00
sg74
I00
sg75
V0084B4
p606
sg77
I00
sg78
I00
sg79
Vhttp://abs.twimg.com/images/themes/theme1/bg.png
p607
sg81
VGreennesian
p608
sg83
I1
sg84
VGreennesian
p609
sg86
VDDEEF6
p610
sg88
Nsg89
I1289047398
sg90
VC0DEED
p611
sbsg92
I0
sg93
V<a href="http://www.blogger.com" rel="nofollow">Greennesian4tewt</a>
p612
sg95
(lp613
g3
(g97
g5
Ntp614
Rp615
(dp616
g101
Vhttp://t.co/gcQ5cmlxJ9
p617
sg103
Vhttp://tinyurl.com/q9rpqz3
p618
sbasg89
I543837632426278912
sbag3
(g4
g5
Ntp619
Rp620
(dp621
g9
I0
sg10
Nsg11
Nsg12
(lp622
sg20
I00
sg21
Nsg22
Nsg23
(lp623
sg25
Nsg26
Nsg27
Nsg28
VSat Dec 13 18:38:38 +0000 2014
p624
sg30
Nsg31
I00
sg32
Nsg33
Nsg34
Nsg35
Nsg36
I00
sg37
Nsg38
(lp625
sg40
Nsg41
V543837414083420160
p626
sg43
Nsg44
VNow Watch Valencia vs Rayo Vallecano Live Online Stream TV =&gt; http://t.co/Y5OzB3tG6X tv941 ch873
p627
sg46
I00
sg47
Ven
p628
sg49
g3
(g50
g5
Ntp629
Rp630
(dp631
g10
g54
sg55
V333333
p632
sg57
Ven
p633
sg59
Nsg60
I139
sg61
I120984
sg28
VFri Mar 22 16:07:59 +0000 2013
p634
sg63
I00
sg64
g54
sg65
Vhttps://pbs.twimg.com/profile_images/3414397001/9b4c95d877e83427faf247075e0a6151_normal.jpeg
p635
sg67
I13
sg68
I0
sg69
Nsg70
Nsg71
I00
sg72
Nsg73
I00
sg74
I00
sg75
V0084B4
p636
sg77
I00
sg78
I00
sg79
Vhttp://abs.twimg.com/images/themes/theme1/bg.png
p637
sg81
VGreennesian
p638
sg83
I1
sg84
VGreennesian
p639
sg86
VDDEEF6
p640
sg88
Nsg89
I1289047398
sg90
VC0DEED
p641
sbsg92
I0
sg93
V<a href="http://www.blogger.com" rel="nofollow">Greennesian4tewt</a>
p642
sg95
(lp643
g3
(g97
g5
Ntp644
Rp645
(dp646
g101
Vhttp://t.co/Y5OzB3tG6X
p647
sg103
Vhttp://tinyurl.com/lpp864d
p648
sbasg89
I543837414083420160
sbag3
(g4
g5
Ntp649
Rp650
(dp651
g9
I0
sg10
Nsg11
Nsg12
(lp652
g3
(g14
g5
Ntp653
Rp654
(dp655
g18
VAFCvNUFC
p656
sbasg20
I00
sg21
Nsg22
Nsg23
(lp657
sg25
Nsg26
Nsg27
Nsg28
VSat Dec 13 18:37:56 +0000 2014
p658
sg30
Nsg31
I00
sg32
Nsg33
Nsg34
Nsg35
Nsg36
I00
sg37
Nsg38
(lp659
sg40
Nsg41
V543837237243174912
p660
sg43
Nsg44
VWatch Arsenal vs Newcastle United Live Online Full HDTV =&gt; http://t.co/rsamKVyfA8 #AFCvNUFC tv603 ch400
p661
sg46
I00
sg47
Ven
p662
sg49
g3
(g50
g5
Ntp663
Rp664
(dp665
g10
g54
sg55
V333333
p666
sg57
Ven
p667
sg59
Nsg60
I139
sg61
I120984
sg28
VFri Mar 22 16:07:59 +0000 2013
p668
sg63
I00
sg64
g54
sg65
Vhttps://pbs.twimg.com/profile_images/3414397001/9b4c95d877e83427faf247075e0a6151_normal.jpeg
p669
sg67
I13
sg68
I0
sg69
Nsg70
Nsg71
I00
sg72
Nsg73
I00
sg74
I00
sg75
V0084B4
p670
sg77
I00
sg78
I00
sg79
Vhttp://abs.twimg.com/images/themes/theme1/bg.png
p671
sg81
VGreennesian
p672
sg83
I1
sg84
VGreennesian
p673
sg86
VDDEEF6
p674
sg88
Nsg89
I1289047398
sg90
VC0DEED
p675
sbsg92
I0
sg93
V<a href="http://www.blogger.com" rel="nofollow">Greennesian4tewt</a>
p676
sg95
(lp677
g3
(g97
g5
Ntp678
Rp679
(dp680
g101
Vhttp://t.co/rsamKVyfA8
p681
sg103
Vhttp://tinyurl.com/ntvo8mt
p682
sbasg89
I543837237243174912
sbag3
(g4
g5
Ntp683
Rp684
(dp685
g9
I0
sg10
Nsg11
Nsg12
(lp686
sg20
I00
sg21
Nsg22
Nsg23
(lp687
sg25
Nsg26
Nsg27
Nsg28
VSat Dec 13 18:37:08 +0000 2014
p688
sg30
Nsg31
I00
sg32
Nsg33
Nsg34
Nsg35
Nsg36
I00
sg37
Nsg38
(lp689
sg40
Nsg41
V543837038588338176
p690
sg43
Nsg44
VWatch Arsenal vs Newcastle United Live Streaming HDTV =&gt; http://t.co/reMcGnb3rG tv160 ch343
p691
sg46
I00
sg47
Ven
p692
sg49
g3
(g50
g5
Ntp693
Rp694
(dp695
g10
g54
sg55
V333333
p696
sg57
Ven
p697
sg59
Nsg60
I139
sg61
I120984
sg28
VFri Mar 22 16:07:59 +0000 2013
p698
sg63
I00
sg64
g54
sg65
Vhttps://pbs.twimg.com/profile_images/3414397001/9b4c95d877e83427faf247075e0a6151_normal.jpeg
p699
sg67
I13
sg68
I0
sg69
Nsg70
Nsg71
I00
sg72
Nsg73
I00
sg74
I00
sg75
V0084B4
p700
sg77
I00
sg78
I00
sg79
Vhttp://abs.twimg.com/images/themes/theme1/bg.png
p701
sg81
VGreennesian
p702
sg83
I1
sg84
VGreennesian
p703
sg86
VDDEEF6
p704
sg88
Nsg89
I1289047398
sg90
VC0DEED
p705
sbsg92
I0
sg93
V<a href="http://www.blogger.com" rel="nofollow">Greennesian4tewt</a>
p706
sg95
(lp707
g3
(g97
g5
Ntp708
Rp709
(dp710
g101
Vhttp://t.co/reMcGnb3rG
p711
sg103
Vhttp://tinyurl.com/nn3clg4
p712
sbasg89
I543837038588338176
sbag3
(g4
g5
Ntp713
Rp714
(dp715
g9
I0
sg10
Nsg11
Nsg12
(lp716
sg20
I00
sg21
Nsg22
Nsg23
(lp717
sg25
Nsg26
Nsg27
Nsg28
VSat Dec 13 18:36:29 +0000 2014
p718
sg30
Nsg31
I00
sg32
Nsg33
Nsg34
Nsg35
Nsg36
I00
sg37
Nsg38
(lp719
sg40
Nsg41
V543836872326148096
p720
sg43
Nsg44
VToday Watch Valencia vs Rayo Vallecano Live Online Stream =&gt; http://t.co/Y5OzB3tG6X tv619 ch495
p721
sg46
I00
sg47
Ven
p722
sg49
g3
(g50
g5
Ntp723
Rp724
(dp725
g10
g54
sg55
V333333
p726
sg57
Ven
p727
sg59
Nsg60
I139
sg61
I120984
sg28
VFri Mar 22 16:07:59 +0000 2013
p728
sg63
I00
sg64
g54
sg65
Vhttps://pbs.twimg.com/profile_images/3414397001/9b4c95d877e83427faf247075e0a6151_normal.jpeg
p729
sg67
I13
sg68
I0
sg69
Nsg70
Nsg71
I00
sg72
Nsg73
I00
sg74
I00
sg75
V0084B4
p730
sg77
I00
sg78
I00
sg79
Vhttp://abs.twimg.com/images/themes/theme1/bg.png
p731
sg81
VGreennesian
p732
sg83
I1
sg84
VGreennesian
p733
sg86
VDDEEF6
p734
sg88
Nsg89
I1289047398
sg90
VC0DEED
p735
sbsg92
I0
sg93
V<a href="http://www.blogger.com" rel="nofollow">Greennesian4tewt</a>
p736
sg95
(lp737
g3
(g97
g5
Ntp738
Rp739
(dp740
g101
Vhttp://t.co/Y5OzB3tG6X
p741
sg103
Vhttp://tinyurl.com/lpp864d
p742
sbasg89
I543836872326148096
sbaa.