(lp0
S'GirlFriendspix'
p1
a(lp2
ccopy_reg
_reconstructor
p3
(ctwitter
Status
p4
c__builtin__
object
p5
Ntp6
Rp7
(dp8
S'_favorite_count'
p9
I0
sS'_location'
p10
NsS'_withheld_scope'
p11
NsS'hashtags'
p12
(lp13
sS'_truncated'
p14
I00
sS'_retweeted_status'
p15
g3
(g4
g5
Ntp16
Rp17
(dp18
g9
I29
sg10
Nsg11
Nsg12
(lp19
sg14
I00
sg15
NsS'_withheld_copyright'
p20
NsS'media'
p21
(lp22
(dp23
Vexpanded_url
p24
Vhttp://twitter.com/onlygirltips/status/543407448476762114/photo/1
p25
sVdisplay_url
p26
Vpic.twitter.com/fQkaFaUfTr
p27
sVurl
p28
Vhttp://t.co/fQkaFaUfTr
p29
sVmedia_url_https
p30
Vhttps://pbs.twimg.com/media/B4qSMU8CYAM8cRH.jpg
p31
sVid_str
p32
V543407445528174595
p33
sVsizes
p34
(dp35
Vsmall
p36
(dp37
Vh
p38
I238
sVresize
p39
Vfit
p40
sVw
p41
I340
ssVlarge
p42
(dp43
Vh
p44
I420
sVresize
p45
Vfit
p46
sVw
p47
I599
ssVmedium
p48
(dp49
Vh
p50
I420
sVresize
p51
Vfit
p52
sVw
p53
I599
ssVthumb
p54
(dp55
Vh
p56
I150
sVresize
p57
Vcrop
p58
sVw
p59
I150
sssVindices
p60
(lp61
I108
aI130
asVtype
p62
Vphoto
p63
sVid
p64
I543407445528174595
sVmedia_url
p65
Vhttp://pbs.twimg.com/media/B4qSMU8CYAM8cRH.jpg
p66
sasS'_place'
p67
NsS'_contributors'
p68
NsS'_current_user_retweet'
p69
NsS'_created_at'
p70
VFri Dec 12 14:10:06 +0000 2014
p71
sS'_scopes'
p72
NsS'_possibly_sensitive'
p73
I00
sS'_in_reply_to_screen_name'
p74
NsS'_coordinates'
p75
NsS'_in_reply_to_user_id'
p76
NsS'_geo'
p77
NsS'_favorited'
p78
I00
sS'_withheld_in_countries'
p79
NsS'user_mentions'
p80
(lp81
sS'_now'
p82
NsS'_id_str'
p83
V543407448476762114
p84
sS'_in_reply_to_status_id'
p85
NsS'_text'
p86
VThe Miley Cyrus Bangers Tour is Grosser Than You Think\u000a\u000asee more&gt;&gt;&gt;&gt;&gt; http://t.co/wo46TvHHYh http://t.co/fQkaFaUfTr
p87
sS'_retweeted'
p88
I00
sS'lang'
p89
Ven
p90
sS'_user'
p91
g3
(ctwitter
User
p92
g5
Ntp93
Rp94
(dp95
g10
VU.S.A
p96
sS'_profile_text_color'
p97
V333333
p98
sS'_lang'
p99
Ven
p100
sS'_time_zone'
p101
VIndiana (East)
p102
sS'_followers_count'
p103
I78072
sS'_statuses_count'
p104
I634
sg70
VFri Apr 05 09:13:12 +0000 2013
p105
sS'_verified'
p106
I00
sS'_description'
p107
Vplease like my tweet and please follow me
p108
sS'_profile_image_url'
p109
Vhttps://pbs.twimg.com/profile_images/542746024557547520/iPkR7hBq_normal.jpeg
p110
sS'_friends_count'
p111
I83205
sS'_favourites_count'
p112
I3
sS'_utc_offset'
p113
I-18000
sS'_status'
p114
NsS'_protected'
p115
I00
sS'_profile_banner_url'
p116
Vhttps://pbs.twimg.com/profile_banners/1328750544/1413448427
p117
sS'_notifications'
p118
I00
sS'_profile_background_tile'
p119
I00
sS'_profile_link_color'
p120
V0099CC
p121
sS'_geo_enabled'
p122
I00
sS'_contributors_enabled'
p123
I00
sS'_profile_background_image_url'
p124
Vhttp://abs.twimg.com/images/themes/theme19/bg.gif
p125
sS'_screen_name'
p126
Vonlygirltips
p127
sS'_listed_count'
p128
I165
sS'_name'
p129
VCommon White Girl
p130
sS'_profile_sidebar_fill_color'
p131
VF6FFD1
p132
sS'_url'
p133
Vhttp://t.co/vdM1rZ5ra7
p134
sS'_id'
p135
I1328750544
sS'_profile_background_color'
p136
VFFF04D
p137
sbsS'_retweet_count'
p138
I10
sS'_source'
p139
V<a href="http://twitter.com" rel="nofollow">Twitter Web Client</a>
p140
sS'urls'
p141
(lp142
g3
(ctwitter
Url
p143
g5
Ntp144
Rp145
(dp146
S'url'
p147
Vhttp://t.co/wo46TvHHYh
p148
sS'expanded_url'
p149
Vhttp://bit.ly/1x9MufW
p150
sbasg135
I543407448476762114
sbsg20
Nsg21
(lp151
(dp152
Vsource_user_id
p153
I1328750544
sVsource_status_id_str
p154
V543407448476762114
p155
sVexpanded_url
p156
Vhttp://twitter.com/onlygirltips/status/543407448476762114/photo/1
p157
sVdisplay_url
p158
Vpic.twitter.com/fQkaFaUfTr
p159
sVurl
p160
Vhttp://t.co/fQkaFaUfTr
p161
sVmedia_url_https
p162
Vhttps://pbs.twimg.com/media/B4qSMU8CYAM8cRH.jpg
p163
sVsource_user_id_str
p164
V1328750544
p165
sVsource_status_id
p166
I543407448476762114
sVid_str
p167
V543407445528174595
p168
sVsizes
p169
(dp170
Vsmall
p171
(dp172
Vh
p173
I238
sVresize
p174
Vfit
p175
sVw
p176
I340
ssVlarge
p177
(dp178
Vh
p179
I420
sVresize
p180
Vfit
p181
sVw
p182
I599
ssVmedium
p183
(dp184
Vh
p185
I420
sVresize
p186
Vfit
p187
sVw
p188
I599
ssVthumb
p189
(dp190
Vh
p191
I150
sVresize
p192
Vcrop
p193
sVw
p194
I150
sssVindices
p195
(lp196
I126
aI148
asVtype
p197
Vphoto
p198
sVid
p199
I543407445528174595
sVmedia_url
p200
Vhttp://pbs.twimg.com/media/B4qSMU8CYAM8cRH.jpg
p201
sasg67
Nsg68
Nsg69
Nsg70
VFri Dec 12 17:41:07 +0000 2014
p202
sg72
Nsg73
I00
sg74
Nsg75
Nsg76
Nsg77
Nsg78
I00
sg79
Nsg80
(lp203
g3
(g92
g5
Ntp204
Rp205
(dp206
g10
Nsg97
Nsg99
Nsg101
Nsg103
Nsg104
Nsg70
Nsg106
Nsg107
Nsg109
Nsg111
Nsg112
Nsg113
Nsg114
Nsg115
Nsg116
Nsg118
Nsg119
Nsg120
Nsg122
Nsg123
Nsg124
Nsg126
Vonlygirltips
p207
sg128
Nsg129
VCommon White Girl
p208
sg131
Nsg133
Nsg135
I1328750544
sg136
Nsbasg82
Nsg83
V543460551666302976
p209
sg85
Nsg86
VRT @onlygirltips: The Miley Cyrus Bangers Tour is Grosser Than You Think\u000a\u000asee more&gt;&gt;&gt;&gt;&gt; http://t.co/wo46TvHHYh http://t.co/fQkaFaUfTr
p210
sg88
I00
sg89
Ven
p211
sg91
g3
(g92
g5
Ntp212
Rp213
(dp214
g10
V
p215
sg97
V634047
p216
sg99
Ven
p217
sg101
VNew Delhi
p218
sg103
I60219
sg104
I387
sg70
VThu Jun 12 16:03:34 +0000 2014
p219
sg106
I00
sg107
Vplease like my tweet and please follow me
p220
sg109
Vhttps://pbs.twimg.com/profile_images/542751895970795521/RFYMlNtA_normal.jpeg
p221
sg111
I54569
sg112
I3
sg113
I19800
sg114
Nsg115
I00
sg116
Vhttps://pbs.twimg.com/profile_banners/2563676017/1415192413
p222
sg118
I00
sg119
I00
sg120
V9266CC
p223
sg122
I00
sg123
I00
sg124
Vhttp://abs.twimg.com/images/themes/theme3/bg.gif
p224
sg126
VGirlFriendspix
p225
sg128
I88
sg129
V GirlFriends
p226
sg131
VE3E2DE
p227
sg133
Nsg135
I2563676017
sg136
VEDECE9
p228
sbsg138
I10
sg139
V<a href="https://about.twitter.com/products/tweetdeck" rel="nofollow">TweetDeck</a>
p229
sg141
(lp230
g3
(g143
g5
Ntp231
Rp232
(dp233
g147
Vhttp://t.co/wo46TvHHYh
p234
sg149
Vhttp://bit.ly/1x9MufW
p235
sbasg135
I543460551666302976
sbag3
(g4
g5
Ntp236
Rp237
(dp238
g9
I0
sg10
Nsg11
Nsg12
(lp239
sg14
I00
sg15
g3
(g4
g5
Ntp240
Rp241
(dp242
g9
I24
sg10
Nsg11
Nsg12
(lp243
sg14
I00
sg15
Nsg20
Nsg21
(lp244
(dp245
Vexpanded_url
p246
Vhttp://twitter.com/onlygirltips/status/543407700885778432/photo/1
p247
sVdisplay_url
p248
Vpic.twitter.com/u4mw7OwxG8
p249
sVurl
p250
Vhttp://t.co/u4mw7OwxG8
p251
sVmedia_url_https
p252
Vhttps://pbs.twimg.com/media/B4qSbD-CQAAid96.jpg
p253
sVid_str
p254
V543407698671190016
p255
sVsizes
p256
(dp257
Vsmall
p258
(dp259
Vh
p260
I236
sVresize
p261
Vfit
p262
sVw
p263
I340
ssVlarge
p264
(dp265
Vh
p266
I627
sVresize
p267
Vfit
p268
sVw
p269
I900
ssVmedium
p270
(dp271
Vh
p272
I418
sVresize
p273
Vfit
p274
sVw
p275
I600
ssVthumb
p276
(dp277
Vh
p278
I150
sVresize
p279
Vcrop
p280
sVw
p281
I150
sssVindices
p282
(lp283
I85
aI107
asVtype
p284
Vphoto
p285
sVid
p286
I543407698671190016
sVmedia_url
p287
Vhttp://pbs.twimg.com/media/B4qSbD-CQAAid96.jpg
p288
sasg67
Nsg68
Nsg69
Nsg70
VFri Dec 12 14:11:06 +0000 2014
p289
sg72
Nsg73
I00
sg74
Nsg75
Nsg76
Nsg77
Nsg78
I00
sg79
Nsg80
(lp290
sg82
Nsg83
V543407700885778432
p291
sg85
Nsg86
VNFL Wardrobe Malfunctions Fails !!\u000a\u000asee more &gt;&gt;&gt;&gt; http://t.co/wo46TvHHYh http://t.co/u4mw7OwxG8
p292
sg88
I00
sg89
Ven
p293
sg91
g3
(g92
g5
Ntp294
Rp295
(dp296
g10
VU.S.A
p297
sg97
V333333
p298
sg99
Ven
p299
sg101
VIndiana (East)
p300
sg103
I78072
sg104
I634
sg70
VFri Apr 05 09:13:12 +0000 2013
p301
sg106
I00
sg107
Vplease like my tweet and please follow me
p302
sg109
Vhttps://pbs.twimg.com/profile_images/542746024557547520/iPkR7hBq_normal.jpeg
p303
sg111
I83205
sg112
I3
sg113
I-18000
sg114
Nsg115
I00
sg116
Vhttps://pbs.twimg.com/profile_banners/1328750544/1413448427
p304
sg118
I00
sg119
I00
sg120
V0099CC
p305
sg122
I00
sg123
I00
sg124
Vhttp://abs.twimg.com/images/themes/theme19/bg.gif
p306
sg126
Vonlygirltips
p307
sg128
I165
sg129
VCommon White Girl
p308
sg131
VF6FFD1
p309
sg133
Vhttp://t.co/vdM1rZ5ra7
p310
sg135
I1328750544
sg136
VFFF04D
p311
sbsg138
I9
sg139
V<a href="http://twitter.com" rel="nofollow">Twitter Web Client</a>
p312
sg141
(lp313
g3
(g143
g5
Ntp314
Rp315
(dp316
g147
Vhttp://t.co/wo46TvHHYh
p317
sg149
Vhttp://bit.ly/1x9MufW
p318
sbasg135
I543407700885778432
sbsg20
Nsg21
(lp319
(dp320
Vsource_user_id
p321
I1328750544
sVsource_status_id_str
p322
V543407700885778432
p323
sVexpanded_url
p324
Vhttp://twitter.com/onlygirltips/status/543407700885778432/photo/1
p325
sVdisplay_url
p326
Vpic.twitter.com/u4mw7OwxG8
p327
sVurl
p328
Vhttp://t.co/u4mw7OwxG8
p329
sVmedia_url_https
p330
Vhttps://pbs.twimg.com/media/B4qSbD-CQAAid96.jpg
p331
sVsource_user_id_str
p332
V1328750544
p333
sVsource_status_id
p334
I543407700885778432
sVid_str
p335
V543407698671190016
p336
sVsizes
p337
(dp338
Vsmall
p339
(dp340
Vh
p341
I236
sVresize
p342
Vfit
p343
sVw
p344
I340
ssVlarge
p345
(dp346
Vh
p347
I627
sVresize
p348
Vfit
p349
sVw
p350
I900
ssVmedium
p351
(dp352
Vh
p353
I418
sVresize
p354
Vfit
p355
sVw
p356
I600
ssVthumb
p357
(dp358
Vh
p359
I150
sVresize
p360
Vcrop
p361
sVw
p362
I150
sssVindices
p363
(lp364
I103
aI125
asVtype
p365
Vphoto
p366
sVid
p367
I543407698671190016
sVmedia_url
p368
Vhttp://pbs.twimg.com/media/B4qSbD-CQAAid96.jpg
p369
sasg67
Nsg68
Nsg69
Nsg70
VFri Dec 12 17:41:00 +0000 2014
p370
sg72
Nsg73
I00
sg74
Nsg75
Nsg76
Nsg77
Nsg78
I00
sg79
Nsg80
(lp371
g3
(g92
g5
Ntp372
Rp373
(dp374
g10
Nsg97
Nsg99
Nsg101
Nsg103
Nsg104
Nsg70
Nsg106
Nsg107
Nsg109
Nsg111
Nsg112
Nsg113
Nsg114
Nsg115
Nsg116
Nsg118
Nsg119
Nsg120
Nsg122
Nsg123
Nsg124
Nsg126
Vonlygirltips
p375
sg128
Nsg129
VCommon White Girl
p376
sg131
Nsg133
Nsg135
I1328750544
sg136
Nsbasg82
Nsg83
V543460523669352448
p377
sg85
Nsg86
VRT @onlygirltips: NFL Wardrobe Malfunctions Fails !!\u000a\u000asee more &gt;&gt;&gt;&gt; http://t.co/wo46TvHHYh http://t.co/u4mw7OwxG8
p378
sg88
I00
sg89
Ven
p379
sg91
g3
(g92
g5
Ntp380
Rp381
(dp382
g10
g215
sg97
V634047
p383
sg99
Ven
p384
sg101
VNew Delhi
p385
sg103
I60219
sg104
I387
sg70
VThu Jun 12 16:03:34 +0000 2014
p386
sg106
I00
sg107
Vplease like my tweet and please follow me
p387
sg109
Vhttps://pbs.twimg.com/profile_images/542751895970795521/RFYMlNtA_normal.jpeg
p388
sg111
I54569
sg112
I3
sg113
I19800
sg114
Nsg115
I00
sg116
Vhttps://pbs.twimg.com/profile_banners/2563676017/1415192413
p389
sg118
I00
sg119
I00
sg120
V9266CC
p390
sg122
I00
sg123
I00
sg124
Vhttp://abs.twimg.com/images/themes/theme3/bg.gif
p391
sg126
VGirlFriendspix
p392
sg128
I88
sg129
V GirlFriends
p393
sg131
VE3E2DE
p394
sg133
Nsg135
I2563676017
sg136
VEDECE9
p395
sbsg138
I9
sg139
V<a href="https://about.twitter.com/products/tweetdeck" rel="nofollow">TweetDeck</a>
p396
sg141
(lp397
g3
(g143
g5
Ntp398
Rp399
(dp400
g147
Vhttp://t.co/wo46TvHHYh
p401
sg149
Vhttp://bit.ly/1x9MufW
p402
sbasg135
I543460523669352448
sbag3
(g4
g5
Ntp403
Rp404
(dp405
g9
I0
sg10
Nsg11
Nsg12
(lp406
sg14
I00
sg15
g3
(g4
g5
Ntp407
Rp408
(dp409
g9
I6
sg10
Nsg11
Nsg12
(lp410
sg14
I00
sg15
Nsg20
Nsg21
(lp411
(dp412
Vexpanded_url
p413
Vhttp://twitter.com/itsfactbook/status/543413375204458496/photo/1
p414
sVdisplay_url
p415
Vpic.twitter.com/vyNKbS8wlP
p416
sVurl
p417
Vhttp://t.co/vyNKbS8wlP
p418
sVmedia_url_https
p419
Vhttps://pbs.twimg.com/media/B4qXlDaCMAATY-w.jpg
p420
sVid_str
p421
V543413367877021696
p422
sVsizes
p423
(dp424
Vlarge
p425
(dp426
Vh
p427
I190
sVresize
p428
Vfit
p429
sVw
p430
I265
ssVsmall
p431
(dp432
Vh
p433
I190
sVresize
p434
Vfit
p435
sVw
p436
I265
ssVmedium
p437
(dp438
Vh
p439
I190
sVresize
p440
Vfit
p441
sVw
p442
I265
ssVthumb
p443
(dp444
Vh
p445
I150
sVresize
p446
Vcrop
p447
sVw
p448
I150
sssVindices
p449
(lp450
I124
aI146
asVtype
p451
Vphoto
p452
sVid
p453
I543413367877021696
sVmedia_url
p454
Vhttp://pbs.twimg.com/media/B4qXlDaCMAATY-w.jpg
p455
sasg67
Nsg68
Nsg69
Nsg70
VFri Dec 12 14:33:39 +0000 2014
p456
sg72
Nsg73
I00
sg74
Nsg75
Nsg76
Nsg77
Nsg78
I00
sg79
Nsg80
(lp457
sg82
Nsg83
V543413375204458496
p458
sg85
Nsg86
VSelfies That Got People Arrested. You Won't Believe How ... to see full story click here&gt;&gt;&gt; http://t.co/eT0fxoXxdl http://t.co/vyNKbS8wlP
p459
sg88
I00
sg89
Ven
p460
sg91
g3
(g92
g5
Ntp461
Rp462
(dp463
g10
Vworldwide
p464
sg97
V3D1957
p465
sg99
Ven
p466
sg101
VNew Delhi
p467
sg103
I39312
sg104
I279
sg70
VSun Jul 13 16:23:40 +0000 2014
p468
sg106
I00
sg107
g215
sg109
Vhttps://pbs.twimg.com/profile_images/542742703201452032/AeftW-1b_normal.jpeg
p469
sg111
I39022
sg112
I3
sg113
I19800
sg114
Nsg115
I00
sg116
Vhttps://pbs.twimg.com/profile_banners/2637944947/1405269017
p470
sg118
I00
sg119
I01
sg120
VFF0000
p471
sg122
I00
sg123
I00
sg124
Vhttp://abs.twimg.com/images/themes/theme10/bg.gif
p472
sg126
Vitsfactbook
p473
sg128
I49
sg129
Vfacts
p474
sg131
V7AC3EE
p475
sg133
Nsg135
I2637944947
sg136
V642D8B
p476
sbsg138
I5
sg139
V<a href="http://twitter.com" rel="nofollow">Twitter Web Client</a>
p477
sg141
(lp478
g3
(g143
g5
Ntp479
Rp480
(dp481
g147
Vhttp://t.co/eT0fxoXxdl
p482
sg149
Vhttp://bit.ly/1x9MufW
p483
sbasg135
I543413375204458496
sbsg20
Nsg21
(lp484
(dp485
Vsource_user_id
p486
I2637944947
sVsource_status_id_str
p487
V543413375204458496
p488
sVexpanded_url
p489
Vhttp://twitter.com/itsfactbook/status/543413375204458496/photo/1
p490
sVdisplay_url
p491
Vpic.twitter.com/vyNKbS8wlP
p492
sVurl
p493
Vhttp://t.co/vyNKbS8wlP
p494
sVmedia_url_https
p495
Vhttps://pbs.twimg.com/media/B4qXlDaCMAATY-w.jpg
p496
sVsource_user_id_str
p497
V2637944947
p498
sVsource_status_id
p499
I543413375204458496
sVid_str
p500
V543413367877021696
p501
sVsizes
p502
(dp503
Vlarge
p504
(dp505
Vh
p506
I190
sVresize
p507
Vfit
p508
sVw
p509
I265
ssVsmall
p510
(dp511
Vh
p512
I190
sVresize
p513
Vfit
p514
sVw
p515
I265
ssVmedium
p516
(dp517
Vh
p518
I190
sVresize
p519
Vfit
p520
sVw
p521
I265
ssVthumb
p522
(dp523
Vh
p524
I150
sVresize
p525
Vcrop
p526
sVw
p527
I150
sssVindices
p528
(lp529
I148
aI149
asVtype
p530
Vphoto
p531
sVid
p532
I543413367877021696
sVmedia_url
p533
Vhttp://pbs.twimg.com/media/B4qXlDaCMAATY-w.jpg
p534
sasg67
Nsg68
Nsg69
Nsg70
VFri Dec 12 17:40:49 +0000 2014
p535
sg72
Nsg73
I00
sg74
Nsg75
Nsg76
Nsg77
Nsg78
I00
sg79
Nsg80
(lp536
g3
(g92
g5
Ntp537
Rp538
(dp539
g10
Nsg97
Nsg99
Nsg101
Nsg103
Nsg104
Nsg70
Nsg106
Nsg107
Nsg109
Nsg111
Nsg112
Nsg113
Nsg114
Nsg115
Nsg116
Nsg118
Nsg119
Nsg120
Nsg122
Nsg123
Nsg124
Nsg126
Vitsfactbook
p540
sg128
Nsg129
Vfacts
p541
sg131
Nsg133
Nsg135
I2637944947
sg136
Nsbasg82
Nsg83
V543460476659568640
p542
sg85
Nsg86
VRT @itsfactbook: Selfies That Got People Arrested. You Won't Believe How ... to see full story click here&gt;&gt;&gt; http://t.co/eT0fxoXxdl http://\u2026
p543
sg88
I00
sg89
Ven
p544
sg91
g3
(g92
g5
Ntp545
Rp546
(dp547
g10
g215
sg97
V634047
p548
sg99
Ven
p549
sg101
VNew Delhi
p550
sg103
I60219
sg104
I387
sg70
VThu Jun 12 16:03:34 +0000 2014
p551
sg106
I00
sg107
Vplease like my tweet and please follow me
p552
sg109
Vhttps://pbs.twimg.com/profile_images/542751895970795521/RFYMlNtA_normal.jpeg
p553
sg111
I54569
sg112
I3
sg113
I19800
sg114
Nsg115
I00
sg116
Vhttps://pbs.twimg.com/profile_banners/2563676017/1415192413
p554
sg118
I00
sg119
I00
sg120
V9266CC
p555
sg122
I00
sg123
I00
sg124
Vhttp://abs.twimg.com/images/themes/theme3/bg.gif
p556
sg126
VGirlFriendspix
p557
sg128
I88
sg129
V GirlFriends
p558
sg131
VE3E2DE
p559
sg133
Nsg135
I2563676017
sg136
VEDECE9
p560
sbsg138
I5
sg139
V<a href="https://about.twitter.com/products/tweetdeck" rel="nofollow">TweetDeck</a>
p561
sg141
(lp562
g3
(g143
g5
Ntp563
Rp564
(dp565
g147
Vhttp://t.co/eT0fxoXxdl
p566
sg149
Vhttp://bit.ly/1x9MufW
p567
sbasg135
I543460476659568640
sbag3
(g4
g5
Ntp568
Rp569
(dp570
g9
I13
sg10
Nsg11
Nsg12
(lp571
sg14
I00
sg15
Nsg20
Nsg21
(lp572
(dp573
Vexpanded_url
p574
Vhttp://twitter.com/GirlFriendspix/status/543408791786512384/photo/1
p575
sVdisplay_url
p576
Vpic.twitter.com/jbCxWphzXs
p577
sVurl
p578
Vhttp://t.co/jbCxWphzXs
p579
sVmedia_url_https
p580
Vhttps://pbs.twimg.com/media/B4qTahWCcAAKXlf.png
p581
sVid_str
p582
V543408788888252416
p583
sVsizes
p584
(dp585
Vlarge
p586
(dp587
Vh
p588
I246
sVresize
p589
Vfit
p590
sVw
p591
I470
ssVsmall
p592
(dp593
Vh
p594
I177
sVresize
p595
Vfit
p596
sVw
p597
I340
ssVmedium
p598
(dp599
Vh
p600
I246
sVresize
p601
Vfit
p602
sVw
p603
I470
ssVthumb
p604
(dp605
Vh
p606
I150
sVresize
p607
Vcrop
p608
sVw
p609
I150
sssVindices
p610
(lp611
I93
aI115
asVtype
p612
Vphoto
p613
sVid
p614
I543408788888252416
sVmedia_url
p615
Vhttp://pbs.twimg.com/media/B4qTahWCcAAKXlf.png
p616
sasg67
Nsg68
Nsg69
Nsg70
VFri Dec 12 14:15:26 +0000 2014
p617
sg72
Nsg73
I00
sg74
Nsg75
Nsg76
Nsg77
Nsg78
I00
sg79
Nsg80
(lp618
sg82
Nsg83
V543408791786512384
p619
sg85
Nsg86
VCraziest places to Have S3X (13 Images)\u000a\u000asee more&gt;&gt;&gt;&gt;&gt; http://t.co/lchhJifeto http://t.co/jbCxWphzXs
p620
sg88
I00
sg89
Ven
p621
sg91
g3
(g92
g5
Ntp622
Rp623
(dp624
g10
g215
sg97
V634047
p625
sg99
Ven
p626
sg101
VNew Delhi
p627
sg103
I60219
sg104
I387
sg70
VThu Jun 12 16:03:34 +0000 2014
p628
sg106
I00
sg107
Vplease like my tweet and please follow me
p629
sg109
Vhttps://pbs.twimg.com/profile_images/542751895970795521/RFYMlNtA_normal.jpeg
p630
sg111
I54569
sg112
I3
sg113
I19800
sg114
Nsg115
I00
sg116
Vhttps://pbs.twimg.com/profile_banners/2563676017/1415192413
p631
sg118
I00
sg119
I00
sg120
V9266CC
p632
sg122
I00
sg123
I00
sg124
Vhttp://abs.twimg.com/images/themes/theme3/bg.gif
p633
sg126
VGirlFriendspix
p634
sg128
I88
sg129
V GirlFriends
p635
sg131
VE3E2DE
p636
sg133
Nsg135
I2563676017
sg136
VEDECE9
p637
sbsg138
I13
sg139
V<a href="http://twitter.com" rel="nofollow">Twitter Web Client</a>
p638
sg141
(lp639
g3
(g143
g5
Ntp640
Rp641
(dp642
g147
Vhttp://t.co/lchhJifeto
p643
sg149
Vhttp://bit.ly/1x9MufW
p644
sbasg135
I543408791786512384
sbag3
(g4
g5
Ntp645
Rp646
(dp647
g9
I14
sg10
Nsg11
Nsg12
(lp648
sg14
I00
sg15
Nsg20
Nsg21
(lp649
sg67
Nsg68
Nsg69
Nsg70
VFri Dec 05 10:22:14 +0000 2014
p650
sg72
Nsg73
I00
sg74
Nsg75
Nsg76
Nsg77
Nsg78
I00
sg79
Nsg80
(lp651
sg82
Nsg83
V540813389446914048
p652
sg85
Nsg86
VMost Insanely Tragic Divorce Ever http://t.co/4Dfue558oD
p653
sg88
I00
sg89
Ven
p654
sg91
g3
(g92
g5
Ntp655
Rp656
(dp657
g10
g215
sg97
V634047
p658
sg99
Ven
p659
sg101
VNew Delhi
p660
sg103
I60219
sg104
I387
sg70
VThu Jun 12 16:03:34 +0000 2014
p661
sg106
I00
sg107
Vplease like my tweet and please follow me
p662
sg109
Vhttps://pbs.twimg.com/profile_images/542751895970795521/RFYMlNtA_normal.jpeg
p663
sg111
I54569
sg112
I3
sg113
I19800
sg114
Nsg115
I00
sg116
Vhttps://pbs.twimg.com/profile_banners/2563676017/1415192413
p664
sg118
I00
sg119
I00
sg120
V9266CC
p665
sg122
I00
sg123
I00
sg124
Vhttp://abs.twimg.com/images/themes/theme3/bg.gif
p666
sg126
VGirlFriendspix
p667
sg128
I88
sg129
V GirlFriends
p668
sg131
VE3E2DE
p669
sg133
Nsg135
I2563676017
sg136
VEDECE9
p670
sbsg138
I2
sg139
V<a href="http://mylikes.com" rel="nofollow">MyLikes Network</a>
p671
sg141
(lp672
g3
(g143
g5
Ntp673
Rp674
(dp675
g147
Vhttp://t.co/4Dfue558oD
p676
sg149
Vhttp://jpn111.viralphotos.net/most-insanely-tragic-divorce-ever-1
p677
sbasg135
I540813389446914048
sbag3
(g4
g5
Ntp678
Rp679
(dp680
g9
I13
sg10
Nsg11
Nsg12
(lp681
sg14
I00
sg15
Nsg20
Nsg21
(lp682
sg67
Nsg68
Nsg69
Nsg70
VFri Dec 05 10:21:35 +0000 2014
p683
sg72
Nsg73
I00
sg74
Nsg75
Nsg76
Nsg77
Nsg78
I00
sg79
Nsg80
(lp684
sg82
Nsg83
V540813225046990848
p685
sg85
Nsg86
VMegan Fox in Yoga Pants!!\u000a\u000aSee More Clik Link&gt;&gt;&gt;&gt;&gt;&gt;&gt; http://t.co/keB7n4OdMF http://t.co/TdrDCvAqyq
p686
sg88
I00
sg89
Ven
p687
sg91
g3
(g92
g5
Ntp688
Rp689
(dp690
g10
g215
sg97
V634047
p691
sg99
Ven
p692
sg101
VNew Delhi
p693
sg103
I60219
sg104
I387
sg70
VThu Jun 12 16:03:34 +0000 2014
p694
sg106
I00
sg107
Vplease like my tweet and please follow me
p695
sg109
Vhttps://pbs.twimg.com/profile_images/542751895970795521/RFYMlNtA_normal.jpeg
p696
sg111
I54569
sg112
I3
sg113
I19800
sg114
Nsg115
I00
sg116
Vhttps://pbs.twimg.com/profile_banners/2563676017/1415192413
p697
sg118
I00
sg119
I00
sg120
V9266CC
p698
sg122
I00
sg123
I00
sg124
Vhttp://abs.twimg.com/images/themes/theme3/bg.gif
p699
sg126
VGirlFriendspix
p700
sg128
I88
sg129
V GirlFriends
p701
sg131
VE3E2DE
p702
sg133
Nsg135
I2563676017
sg136
VEDECE9
p703
sbsg138
I3
sg139
V<a href="http://twitter.com" rel="nofollow">Twitter Web Client</a>
p704
sg141
(lp705
g3
(g143
g5
Ntp706
Rp707
(dp708
g147
Vhttp://t.co/keB7n4OdMF
p709
sg149
Vhttp://bit.ly/1vVgqKR
p710
sbag3
(g143
g5
Ntp711
Rp712
(dp713
g147
Vhttp://t.co/TdrDCvAqyq
p714
sg149
Vhttp://twitter.com/GirlFriendspix/status/540813225046990848/photo/1
p715
sbasg135
I540813225046990848
sbag3
(g4
g5
Ntp716
Rp717
(dp718
g9
I22
sg10
Nsg11
Nsg12
(lp719
sg14
I00
sg15
Nsg20
Nsg21
(lp720
(dp721
Vexpanded_url
p722
Vhttp://twitter.com/GirlFriendspix/status/540811600827920384/photo/1
p723
sVdisplay_url
p724
Vpic.twitter.com/05az1K8T7o
p725
sVurl
p726
Vhttp://t.co/05az1K8T7o
p727
sVmedia_url_https
p728
Vhttps://pbs.twimg.com/media/B4FZSIhCEAA6njY.jpg
p729
sVid_str
p730
V540811598319718400
p731
sVsizes
p732
(dp733
Vlarge
p734
(dp735
Vh
p736
I772
sVresize
p737
Vfit
p738
sVw
p739
I634
ssVsmall
p740
(dp741
Vh
p742
I414
sVresize
p743
Vfit
p744
sVw
p745
I340
ssVmedium
p746
(dp747
Vh
p748
I730
sVresize
p749
Vfit
p750
sVw
p751
I600
ssVthumb
p752
(dp753
Vh
p754
I150
sVresize
p755
Vcrop
p756
sVw
p757
I150
sssVindices
p758
(lp759
I124
aI146
asVtype
p760
Vphoto
p761
sVid
p762
I540811598319718400
sVmedia_url
p763
Vhttp://pbs.twimg.com/media/B4FZSIhCEAA6njY.jpg
p764
sasg67
Nsg68
Nsg69
Nsg70
VFri Dec 05 10:15:08 +0000 2014
p765
sg72
Nsg73
I00
sg74
Nsg75
Nsg76
Nsg77
Nsg78
I00
sg79
Nsg80
(lp766
sg82
Nsg83
V540811600827920384
p767
sg85
Nsg86
VSign up and get more likes and followers than instagram \u000a\u000aSee More Clik Link&gt;&gt;&gt;&gt;&gt;&gt; http://t.co/JhBpzyPddC http://t.co/05az1K8T7o
p768
sg88
I00
sg89
Ven
p769
sg91
g3
(g92
g5
Ntp770
Rp771
(dp772
g10
g215
sg97
V634047
p773
sg99
Ven
p774
sg101
VNew Delhi
p775
sg103
I60219
sg104
I387
sg70
VThu Jun 12 16:03:34 +0000 2014
p776
sg106
I00
sg107
Vplease like my tweet and please follow me
p777
sg109
Vhttps://pbs.twimg.com/profile_images/542751895970795521/RFYMlNtA_normal.jpeg
p778
sg111
I54569
sg112
I3
sg113
I19800
sg114
Nsg115
I00
sg116
Vhttps://pbs.twimg.com/profile_banners/2563676017/1415192413
p779
sg118
I00
sg119
I00
sg120
V9266CC
p780
sg122
I00
sg123
I00
sg124
Vhttp://abs.twimg.com/images/themes/theme3/bg.gif
p781
sg126
VGirlFriendspix
p782
sg128
I88
sg129
V GirlFriends
p783
sg131
VE3E2DE
p784
sg133
Nsg135
I2563676017
sg136
VEDECE9
p785
sbsg138
I5
sg139
V<a href="http://twitter.com" rel="nofollow">Twitter Web Client</a>
p786
sg141
(lp787
g3
(g143
g5
Ntp788
Rp789
(dp790
g147
Vhttp://t.co/JhBpzyPddC
p791
sg149
Vhttp://bit.ly/1I8ck7g
p792
sbasg135
I540811600827920384
sbag3
(g4
g5
Ntp793
Rp794
(dp795
g9
I166
sg10
Nsg11
Nsg12
(lp796
sg14
I00
sg15
Nsg20
Nsg21
(lp797
(dp798
Vexpanded_url
p799
Vhttp://twitter.com/GirlFriendspix/status/539713475140784128/photo/1
p800
sVdisplay_url
p801
Vpic.twitter.com/MCn5kC7nDq
p802
sVurl
p803
Vhttp://t.co/MCn5kC7nDq
p804
sVmedia_url_https
p805
Vhttps://pbs.twimg.com/media/B31yi1jCMAA9ArR.jpg
p806
sVid_str
p807
V539713473169469440
p808
sVsizes
p809
(dp810
Vsmall
p811
(dp812
Vh
p813
I238
sVresize
p814
Vfit
p815
sVw
p816
I340
ssVlarge
p817
(dp818
Vh
p819
I420
sVresize
p820
Vfit
p821
sVw
p822
I599
ssVmedium
p823
(dp824
Vh
p825
I420
sVresize
p826
Vfit
p827
sVw
p828
I599
ssVthumb
p829
(dp830
Vh
p831
I150
sVresize
p832
Vcrop
p833
sVw
p834
I150
sssVindices
p835
(lp836
I93
aI115
asVtype
p837
Vphoto
p838
sVid
p839
I539713473169469440
sVmedia_url
p840
Vhttp://pbs.twimg.com/media/B31yi1jCMAA9ArR.jpg
p841
sasg67
Nsg68
Nsg69
Nsg70
VTue Dec 02 09:31:34 +0000 2014
p842
sg72
Nsg73
I00
sg74
Nsg75
Nsg76
Nsg77
Nsg78
I00
sg79
Nsg80
(lp843
sg82
Nsg83
V539713475140784128
p844
sg85
Nsg86
VMind Blowing Facts About Dreams\u000a\u000asee more&gt;&gt;&gt;&gt;&gt;&gt;&gt; http://t.co/OzlAX2eOwH http://t.co/MCn5kC7nDq
p845
sg88
I00
sg89
Ven
p846
sg91
g3
(g92
g5
Ntp847
Rp848
(dp849
g10
g215
sg97
V634047
p850
sg99
Ven
p851
sg101
VNew Delhi
p852
sg103
I60219
sg104
I387
sg70
VThu Jun 12 16:03:34 +0000 2014
p853
sg106
I00
sg107
Vplease like my tweet and please follow me
p854
sg109
Vhttps://pbs.twimg.com/profile_images/542751895970795521/RFYMlNtA_normal.jpeg
p855
sg111
I54569
sg112
I3
sg113
I19800
sg114
Nsg115
I00
sg116
Vhttps://pbs.twimg.com/profile_banners/2563676017/1415192413
p856
sg118
I00
sg119
I00
sg120
V9266CC
p857
sg122
I00
sg123
I00
sg124
Vhttp://abs.twimg.com/images/themes/theme3/bg.gif
p858
sg126
VGirlFriendspix
p859
sg128
I88
sg129
V GirlFriends
p860
sg131
VE3E2DE
p861
sg133
Nsg135
I2563676017
sg136
VEDECE9
p862
sbsg138
I85
sg139
V<a href="http://twitter.com" rel="nofollow">Twitter Web Client</a>
p863
sg141
(lp864
g3
(g143
g5
Ntp865
Rp866
(dp867
g147
Vhttp://t.co/OzlAX2eOwH
p868
sg149
Vhttp://bit.ly/15Nqb48
p869
sbasg135
I539713475140784128
sbag3
(g4
g5
Ntp870
Rp871
(dp872
g9
I59
sg10
Nsg11
Nsg12
(lp873
sg14
I00
sg15
Nsg20
Nsg21
(lp874
(dp875
Vexpanded_url
p876
Vhttp://twitter.com/GirlFriendspix/status/539712698565791745/photo/1
p877
sVdisplay_url
p878
Vpic.twitter.com/1DFW9dPsUi
p879
sVurl
p880
Vhttp://t.co/1DFW9dPsUi
p881
sVmedia_url_https
p882
Vhttps://pbs.twimg.com/media/B31x1nxCYAALdQ2.jpg
p883
sVid_str
p884
V539712696375992320
p885
sVsizes
p886
(dp887
Vlarge
p888
(dp889
Vh
p890
I516
sVresize
p891
Vfit
p892
sVw
p893
I700
ssVsmall
p894
(dp895
Vh
p896
I250
sVresize
p897
Vfit
p898
sVw
p899
I340
ssVmedium
p900
(dp901
Vh
p902
I442
sVresize
p903
Vfit
p904
sVw
p905
I600
ssVthumb
p906
(dp907
Vh
p908
I150
sVresize
p909
Vcrop
p910
sVw
p911
I150
sssVindices
p912
(lp913
I111
aI133
asVtype
p914
Vphoto
p915
sVid
p916
I539712696375992320
sVmedia_url
p917
Vhttp://pbs.twimg.com/media/B31x1nxCYAALdQ2.jpg
p918
sasg67
Nsg68
Nsg69
Nsg70
VTue Dec 02 09:28:29 +0000 2014
p919
sg72
Nsg73
I00
sg74
Nsg75
Nsg76
Nsg77
Nsg78
I00
sg79
Nsg80
(lp920
sg82
Nsg83
V539712698565791745
p921
sg85
Nsg86
VPregnancy Problems: it can be very funny.\u000a\u000asee more&gt;&gt;&gt;&gt;&gt;&gt;&gt;&gt;&gt; http://t.co/9VWq4chJse http://t.co/1DFW9dPsUi
p922
sg88
I00
sg89
Ven
p923
sg91
g3
(g92
g5
Ntp924
Rp925
(dp926
g10
g215
sg97
V634047
p927
sg99
Ven
p928
sg101
VNew Delhi
p929
sg103
I60219
sg104
I387
sg70
VThu Jun 12 16:03:34 +0000 2014
p930
sg106
I00
sg107
Vplease like my tweet and please follow me
p931
sg109
Vhttps://pbs.twimg.com/profile_images/542751895970795521/RFYMlNtA_normal.jpeg
p932
sg111
I54569
sg112
I3
sg113
I19800
sg114
Nsg115
I00
sg116
Vhttps://pbs.twimg.com/profile_banners/2563676017/1415192413
p933
sg118
I00
sg119
I00
sg120
V9266CC
p934
sg122
I00
sg123
I00
sg124
Vhttp://abs.twimg.com/images/themes/theme3/bg.gif
p935
sg126
VGirlFriendspix
p936
sg128
I88
sg129
V GirlFriends
p937
sg131
VE3E2DE
p938
sg133
Nsg135
I2563676017
sg136
VEDECE9
p939
sbsg138
I18
sg139
V<a href="http://twitter.com" rel="nofollow">Twitter Web Client</a>
p940
sg141
(lp941
g3
(g143
g5
Ntp942
Rp943
(dp944
g147
Vhttp://t.co/9VWq4chJse
p945
sg149
Vhttp://bit.ly/1CAT6XI
p946
sbasg135
I539712698565791745
sbag3
(g4
g5
Ntp947
Rp948
(dp949
g9
I135
sg10
Nsg11
Nsg12
(lp950
sg14
I00
sg15
Nsg20
Nsg21
(lp951
(dp952
Vexpanded_url
p953
Vhttp://twitter.com/GirlFriendspix/status/539710842908839936/photo/1
p954
sVdisplay_url
p955
Vpic.twitter.com/XZn4Bdv4rY
p956
sVurl
p957
Vhttp://t.co/XZn4Bdv4rY
p958
sVmedia_url_https
p959
Vhttps://pbs.twimg.com/media/B31wJhACAAI2Jmn.jpg
p960
sVid_str
p961
V539710839133962242
p962
sVsizes
p963
(dp964
Vsmall
p965
(dp966
Vh
p967
I236
sVresize
p968
Vfit
p969
sVw
p970
I340
ssVlarge
p971
(dp972
Vh
p973
I627
sVresize
p974
Vfit
p975
sVw
p976
I900
ssVmedium
p977
(dp978
Vh
p979
I418
sVresize
p980
Vfit
p981
sVw
p982
I600
ssVthumb
p983
(dp984
Vh
p985
I150
sVresize
p986
Vcrop
p987
sVw
p988
I150
sssVindices
p989
(lp990
I91
aI113
asVtype
p991
Vphoto
p992
sVid
p993
I539710839133962242
sVmedia_url
p994
Vhttp://pbs.twimg.com/media/B31wJhACAAI2Jmn.jpg
p995
sasg67
Nsg68
Nsg69
Nsg70
VTue Dec 02 09:21:06 +0000 2014
p996
sg72
Nsg73
I00
sg74
Nsg75
Nsg76
Nsg77
Nsg78
I00
sg79
Nsg80
(lp997
sg82
Nsg83
V539710842908839936
p998
sg85
Nsg86
VNFL Wardrobe Malfunctions Fails !\u000a\u000asee more&gt;&gt;&gt;&gt;&gt;&gt; http://t.co/IhSe8WaxHD http://t.co/XZn4Bdv4rY
p999
sg88
I00
sg89
Ven
p1000
sg91
g3
(g92
g5
Ntp1001
Rp1002
(dp1003
g10
g215
sg97
V634047
p1004
sg99
Ven
p1005
sg101
VNew Delhi
p1006
sg103
I60219
sg104
I387
sg70
VThu Jun 12 16:03:34 +0000 2014
p1007
sg106
I00
sg107
Vplease like my tweet and please follow me
p1008
sg109
Vhttps://pbs.twimg.com/profile_images/542751895970795521/RFYMlNtA_normal.jpeg
p1009
sg111
I54569
sg112
I3
sg113
I19800
sg114
Nsg115
I00
sg116
Vhttps://pbs.twimg.com/profile_banners/2563676017/1415192413
p1010
sg118
I00
sg119
I00
sg120
V9266CC
p1011
sg122
I00
sg123
I00
sg124
Vhttp://abs.twimg.com/images/themes/theme3/bg.gif
p1012
sg126
VGirlFriendspix
p1013
sg128
I88
sg129
V GirlFriends
p1014
sg131
VE3E2DE
p1015
sg133
Nsg135
I2563676017
sg136
VEDECE9
p1016
sbsg138
I74
sg139
V<a href="http://twitter.com" rel="nofollow">Twitter Web Client</a>
p1017
sg141
(lp1018
g3
(g143
g5
Ntp1019
Rp1020
(dp1021
g147
Vhttp://t.co/IhSe8WaxHD
p1022
sg149
Vhttp://bit.ly/1tyv4TR
p1023
sbasg135
I539710842908839936
sbag3
(g4
g5
Ntp1024
Rp1025
(dp1026
g9
I6
sg10
Nsg11
Nsg12
(lp1027
sg14
I00
sg15
Nsg20
Nsg21
(lp1028
sg67
Nsg68
Nsg69
Nsg70
VSat Nov 29 09:49:35 +0000 2014
p1029
sg72
Nsg73
I00
sg74
Nsg75
Nsg76
Nsg77
Nsg78
I00
sg79
Nsg80
(lp1030
sg82
Nsg83
V538630847054630913
p1031
sg85
Nsg86
VThese Extreme Athletes Gave a Stray Dog a Meatball. They Didn't Expect What Would Happen Next. http://t.co/8mSHHpCjWp
p1032
sg88
I00
sg89
Ven
p1033
sg91
g3
(g92
g5
Ntp1034
Rp1035
(dp1036
g10
g215
sg97
V634047
p1037
sg99
Ven
p1038
sg101
VNew Delhi
p1039
sg103
I60219
sg104
I387
sg70
VThu Jun 12 16:03:34 +0000 2014
p1040
sg106
I00
sg107
Vplease like my tweet and please follow me
p1041
sg109
Vhttps://pbs.twimg.com/profile_images/542751895970795521/RFYMlNtA_normal.jpeg
p1042
sg111
I54569
sg112
I3
sg113
I19800
sg114
Nsg115
I00
sg116
Vhttps://pbs.twimg.com/profile_banners/2563676017/1415192413
p1043
sg118
I00
sg119
I00
sg120
V9266CC
p1044
sg122
I00
sg123
I00
sg124
Vhttp://abs.twimg.com/images/themes/theme3/bg.gif
p1045
sg126
VGirlFriendspix
p1046
sg128
I88
sg129
V GirlFriends
p1047
sg131
VE3E2DE
p1048
sg133
Nsg135
I2563676017
sg136
VEDECE9
p1049
sbsg138
I1
sg139
V<a href="http://mylikes.com" rel="nofollow">MyLikes Network</a>
p1050
sg141
(lp1051
g3
(g143
g5
Ntp1052
Rp1053
(dp1054
g147
Vhttp://t.co/8mSHHpCjWp
p1055
sg149
Vhttp://jpn111.viralphotos.net/these-extreme-athletes-gave-a-stray-dog-a-meatball-they-didn-t-expect-what-would-happen-next
p1056
sbasg135
I538630847054630913
sbag3
(g4
g5
Ntp1057
Rp1058
(dp1059
g9
I4
sg10
Nsg11
Nsg12
(lp1060
sg14
I00
sg15
Nsg20
Nsg21
(lp1061
sg67
Nsg68
Nsg69
Nsg70
VSat Nov 29 09:47:50 +0000 2014
p1062
sg72
Nsg73
I00
sg74
Nsg75
Nsg76
Nsg77
Nsg78
I00
sg79
Nsg80
(lp1063
sg82
Nsg83
V538630406170345472
p1064
sg85
Nsg86
VFunniest Demotivational Posters http://t.co/ujLtoWGaDm
p1065
sg88
I00
sg89
Ven
p1066
sg91
g3
(g92
g5
Ntp1067
Rp1068
(dp1069
g10
g215
sg97
V634047
p1070
sg99
Ven
p1071
sg101
VNew Delhi
p1072
sg103
I60219
sg104
I387
sg70
VThu Jun 12 16:03:34 +0000 2014
p1073
sg106
I00
sg107
Vplease like my tweet and please follow me
p1074
sg109
Vhttps://pbs.twimg.com/profile_images/542751895970795521/RFYMlNtA_normal.jpeg
p1075
sg111
I54569
sg112
I3
sg113
I19800
sg114
Nsg115
I00
sg116
Vhttps://pbs.twimg.com/profile_banners/2563676017/1415192413
p1076
sg118
I00
sg119
I00
sg120
V9266CC
p1077
sg122
I00
sg123
I00
sg124
Vhttp://abs.twimg.com/images/themes/theme3/bg.gif
p1078
sg126
VGirlFriendspix
p1079
sg128
I88
sg129
V GirlFriends
p1080
sg131
VE3E2DE
p1081
sg133
Nsg135
I2563676017
sg136
VEDECE9
p1082
sbsg138
I1
sg139
V<a href="http://mylikes.com" rel="nofollow">MyLikes Network</a>
p1083
sg141
(lp1084
g3
(g143
g5
Ntp1085
Rp1086
(dp1087
g147
Vhttp://t.co/ujLtoWGaDm
p1088
sg149
Vhttp://jpn111.viralphotos.net/funniest-demotivational-posters-1
p1089
sbasg135
I538630406170345472
sbag3
(g4
g5
Ntp1090
Rp1091
(dp1092
g9
I3
sg10
Nsg11
Nsg12
(lp1093
sg14
I00
sg15
Nsg20
Nsg21
(lp1094
sg67
Nsg68
Nsg69
Nsg70
VSat Nov 29 09:46:13 +0000 2014
p1095
sg72
Nsg73
I00
sg74
Nsg75
Nsg76
Nsg77
Nsg78
I00
sg79
Nsg80
(lp1096
sg82
Nsg83
V538629998895046656
p1097
sg85
Nsg86
V16 Times You Realized You And Your BFF Have No Boundaries http://t.co/5py6bxEF42
p1098
sg88
I00
sg89
Ven
p1099
sg91
g3
(g92
g5
Ntp1100
Rp1101
(dp1102
g10
g215
sg97
V634047
p1103
sg99
Ven
p1104
sg101
VNew Delhi
p1105
sg103
I60219
sg104
I387
sg70
VThu Jun 12 16:03:34 +0000 2014
p1106
sg106
I00
sg107
Vplease like my tweet and please follow me
p1107
sg109
Vhttps://pbs.twimg.com/profile_images/542751895970795521/RFYMlNtA_normal.jpeg
p1108
sg111
I54569
sg112
I3
sg113
I19800
sg114
Nsg115
I00
sg116
Vhttps://pbs.twimg.com/profile_banners/2563676017/1415192413
p1109
sg118
I00
sg119
I00
sg120
V9266CC
p1110
sg122
I00
sg123
I00
sg124
Vhttp://abs.twimg.com/images/themes/theme3/bg.gif
p1111
sg126
VGirlFriendspix
p1112
sg128
I88
sg129
V GirlFriends
p1113
sg131
VE3E2DE
p1114
sg133
Nsg135
I2563676017
sg136
VEDECE9
p1115
sbsg138
I0
sg139
V<a href="http://mylikes.com" rel="nofollow">MyLikes Network</a>
p1116
sg141
(lp1117
g3
(g143
g5
Ntp1118
Rp1119
(dp1120
g147
Vhttp://t.co/5py6bxEF42
p1121
sg149
Vhttp://jpn111.viralphotos.net/16-times-you-realized-you-and-your-bff-have-no-boundaries
p1122
sbasg135
I538629998895046656
sbag3
(g4
g5
Ntp1123
Rp1124
(dp1125
g9
I1
sg10
Nsg11
Nsg12
(lp1126
sg14
I00
sg15
Nsg20
Nsg21
(lp1127
sg67
Nsg68
Nsg69
Nsg70
VSat Nov 29 09:42:16 +0000 2014
p1128
sg72
Nsg73
I00
sg74
Nsg75
Nsg76
Nsg77
Nsg78
I00
sg79
Nsg80
(lp1129
sg82
Nsg83
V538629004706594816
p1130
sg85
Nsg86
VGirls' Night Out http://t.co/yT0gJSZMfE
p1131
sg88
I00
sg89
Ven
p1132
sg91
g3
(g92
g5
Ntp1133
Rp1134
(dp1135
g10
g215
sg97
V634047
p1136
sg99
Ven
p1137
sg101
VNew Delhi
p1138
sg103
I60219
sg104
I387
sg70
VThu Jun 12 16:03:34 +0000 2014
p1139
sg106
I00
sg107
Vplease like my tweet and please follow me
p1140
sg109
Vhttps://pbs.twimg.com/profile_images/542751895970795521/RFYMlNtA_normal.jpeg
p1141
sg111
I54569
sg112
I3
sg113
I19800
sg114
Nsg115
I00
sg116
Vhttps://pbs.twimg.com/profile_banners/2563676017/1415192413
p1142
sg118
I00
sg119
I00
sg120
V9266CC
p1143
sg122
I00
sg123
I00
sg124
Vhttp://abs.twimg.com/images/themes/theme3/bg.gif
p1144
sg126
VGirlFriendspix
p1145
sg128
I88
sg129
V GirlFriends
p1146
sg131
VE3E2DE
p1147
sg133
Nsg135
I2563676017
sg136
VEDECE9
p1148
sbsg138
I1
sg139
V<a href="http://mylikes.com" rel="nofollow">MyLikes Network</a>
p1149
sg141
(lp1150
g3
(g143
g5
Ntp1151
Rp1152
(dp1153
g147
Vhttp://t.co/yT0gJSZMfE
p1154
sg149
Vhttp://jpn111.viralphotos.net/girls-night-out-1
p1155
sbasg135
I538629004706594816
sbag3
(g4
g5
Ntp1156
Rp1157
(dp1158
g9
I1
sg10
Nsg11
Nsg12
(lp1159
sg14
I00
sg15
Nsg20
Nsg21
(lp1160
sg67
Nsg68
Nsg69
Nsg70
VSat Nov 29 08:48:55 +0000 2014
p1161
sg72
Nsg73
I00
sg74
Nsg75
Nsg76
Nsg77
Nsg78
I00
sg79
Nsg80
(lp1162
sg82
Nsg83
V538615576193544194
p1163
sg85
Nsg86
VFunny Pictures And Selfies - Way More Fun Than Instagram http://t.co/xig52odJVj
p1164
sg88
I00
sg89
Ven
p1165
sg91
g3
(g92
g5
Ntp1166
Rp1167
(dp1168
g10
g215
sg97
V634047
p1169
sg99
Ven
p1170
sg101
VNew Delhi
p1171
sg103
I60219
sg104
I387
sg70
VThu Jun 12 16:03:34 +0000 2014
p1172
sg106
I00
sg107
Vplease like my tweet and please follow me
p1173
sg109
Vhttps://pbs.twimg.com/profile_images/542751895970795521/RFYMlNtA_normal.jpeg
p1174
sg111
I54569
sg112
I3
sg113
I19800
sg114
Nsg115
I00
sg116
Vhttps://pbs.twimg.com/profile_banners/2563676017/1415192413
p1175
sg118
I00
sg119
I00
sg120
V9266CC
p1176
sg122
I00
sg123
I00
sg124
Vhttp://abs.twimg.com/images/themes/theme3/bg.gif
p1177
sg126
VGirlFriendspix
p1178
sg128
I88
sg129
V GirlFriends
p1179
sg131
VE3E2DE
p1180
sg133
Nsg135
I2563676017
sg136
VEDECE9
p1181
sbsg138
I1
sg139
V<a href="http://mylikes.com" rel="nofollow">MyLikes Network</a>
p1182
sg141
(lp1183
g3
(g143
g5
Ntp1184
Rp1185
(dp1186
g147
Vhttp://t.co/xig52odJVj
p1187
sg149
Vhttp://jpn111.viralphotos.net/funny-pictures-and-selfies-way-more-fun-than-instagram
p1188
sbasg135
I538615576193544194
sbag3
(g4
g5
Ntp1189
Rp1190
(dp1191
g9
I1
sg10
Nsg11
Nsg12
(lp1192
sg14
I00
sg15
Nsg20
Nsg21
(lp1193
sg67
Nsg68
Nsg69
Nsg70
VThu Nov 27 17:36:54 +0000 2014
p1194
sg72
Nsg73
I00
sg74
Nsg75
Nsg76
Nsg77
Nsg78
I00
sg79
Nsg80
(lp1195
sg82
Nsg83
V538023672309497856
p1196
sg85
Nsg86
VYou have gotta try this... you won't regret it. http://t.co/3qcjHx06PF
p1197
sg88
I00
sg89
Ven
p1198
sg91
g3
(g92
g5
Ntp1199
Rp1200
(dp1201
g10
g215
sg97
V634047
p1202
sg99
Ven
p1203
sg101
VNew Delhi
p1204
sg103
I60219
sg104
I387
sg70
VThu Jun 12 16:03:34 +0000 2014
p1205
sg106
I00
sg107
Vplease like my tweet and please follow me
p1206
sg109
Vhttps://pbs.twimg.com/profile_images/542751895970795521/RFYMlNtA_normal.jpeg
p1207
sg111
I54569
sg112
I3
sg113
I19800
sg114
Nsg115
I00
sg116
Vhttps://pbs.twimg.com/profile_banners/2563676017/1415192413
p1208
sg118
I00
sg119
I00
sg120
V9266CC
p1209
sg122
I00
sg123
I00
sg124
Vhttp://abs.twimg.com/images/themes/theme3/bg.gif
p1210
sg126
VGirlFriendspix
p1211
sg128
I88
sg129
V GirlFriends
p1212
sg131
VE3E2DE
p1213
sg133
Nsg135
I2563676017
sg136
VEDECE9
p1214
sbsg138
I0
sg139
V<a href="http://mylikes.com" rel="nofollow">MyLikes Network</a>
p1215
sg141
(lp1216
g3
(g143
g5
Ntp1217
Rp1218
(dp1219
g147
Vhttp://t.co/3qcjHx06PF
p1220
sg149
Vhttp://jpn111.viralphotos.net/way-more-fun-than-snapchat-or-kik-1
p1221
sbasg135
I538023672309497856
sbag3
(g4
g5
Ntp1222
Rp1223
(dp1224
g9
I3
sg10
Nsg11
Nsg12
(lp1225
sg14
I00
sg15
Nsg20
Nsg21
(lp1226
sg67
Nsg68
Nsg69
Nsg70
VThu Nov 27 08:06:53 +0000 2014
p1227
sg72
Nsg73
I00
sg74
Nsg75
Nsg76
Nsg77
Nsg78
I00
sg79
Nsg80
(lp1228
sg82
Nsg83
V537880224684179456
p1229
sg85
Nsg86
VThe Miley Cyrus Bangers Tour is Grosser Than You Think http://t.co/v6UFkuI0cc
p1230
sg88
I00
sg89
Ven
p1231
sg91
g3
(g92
g5
Ntp1232
Rp1233
(dp1234
g10
g215
sg97
V634047
p1235
sg99
Ven
p1236
sg101
VNew Delhi
p1237
sg103
I60219
sg104
I387
sg70
VThu Jun 12 16:03:34 +0000 2014
p1238
sg106
I00
sg107
Vplease like my tweet and please follow me
p1239
sg109
Vhttps://pbs.twimg.com/profile_images/542751895970795521/RFYMlNtA_normal.jpeg
p1240
sg111
I54569
sg112
I3
sg113
I19800
sg114
Nsg115
I00
sg116
Vhttps://pbs.twimg.com/profile_banners/2563676017/1415192413
p1241
sg118
I00
sg119
I00
sg120
V9266CC
p1242
sg122
I00
sg123
I00
sg124
Vhttp://abs.twimg.com/images/themes/theme3/bg.gif
p1243
sg126
VGirlFriendspix
p1244
sg128
I88
sg129
V GirlFriends
p1245
sg131
VE3E2DE
p1246
sg133
Nsg135
I2563676017
sg136
VEDECE9
p1247
sbsg138
I1
sg139
V<a href="http://mylikes.com" rel="nofollow">MyLikes Network</a>
p1248
sg141
(lp1249
g3
(g143
g5
Ntp1250
Rp1251
(dp1252
g147
Vhttp://t.co/v6UFkuI0cc
p1253
sg149
Vhttp://jpn111.viralphotos.net/the-miley-cyrus-bangers-tour-is-grosser-than-you-think
p1254
sbasg135
I537880224684179456
sbag3
(g4
g5
Ntp1255
Rp1256
(dp1257
g9
I1
sg10
Nsg11
Nsg12
(lp1258
sg14
I00
sg15
Nsg20
Nsg21
(lp1259
sg67
Nsg68
Nsg69
Nsg70
VThu Nov 27 07:36:13 +0000 2014
p1260
sg72
Nsg73
I00
sg74
Nsg75
Nsg76
Nsg77
Nsg78
I00
sg79
Nsg80
(lp1261
sg82
Nsg83
V537872506619576320
p1262
sg85
Nsg86
VThe Truth About Instagram http://t.co/cszhLHqCJs
p1263
sg88
I00
sg89
Ven
p1264
sg91
g3
(g92
g5
Ntp1265
Rp1266
(dp1267
g10
g215
sg97
V634047
p1268
sg99
Ven
p1269
sg101
VNew Delhi
p1270
sg103
I60219
sg104
I387
sg70
VThu Jun 12 16:03:34 +0000 2014
p1271
sg106
I00
sg107
Vplease like my tweet and please follow me
p1272
sg109
Vhttps://pbs.twimg.com/profile_images/542751895970795521/RFYMlNtA_normal.jpeg
p1273
sg111
I54569
sg112
I3
sg113
I19800
sg114
Nsg115
I00
sg116
Vhttps://pbs.twimg.com/profile_banners/2563676017/1415192413
p1274
sg118
I00
sg119
I00
sg120
V9266CC
p1275
sg122
I00
sg123
I00
sg124
Vhttp://abs.twimg.com/images/themes/theme3/bg.gif
p1276
sg126
VGirlFriendspix
p1277
sg128
I88
sg129
V GirlFriends
p1278
sg131
VE3E2DE
p1279
sg133
Nsg135
I2563676017
sg136
VEDECE9
p1280
sbsg138
I1
sg139
V<a href="http://mylikes.com" rel="nofollow">MyLikes Network</a>
p1281
sg141
(lp1282
g3
(g143
g5
Ntp1283
Rp1284
(dp1285
g147
Vhttp://t.co/cszhLHqCJs
p1286
sg149
Vhttp://jpn111.inspireworthy.com/the-truth-about-instagram
p1287
sbasg135
I537872506619576320
sbag3
(g4
g5
Ntp1288
Rp1289
(dp1290
g9
I3
sg10
Nsg11
Nsg12
(lp1291
sg14
I00
sg15
Nsg20
Nsg21
(lp1292
sg67
Nsg68
Nsg69
Nsg70
VThu Nov 27 07:35:40 +0000 2014
p1293
sg72
Nsg73
I00
sg74
Nsg75
Nsg76
Nsg77
Nsg78
I00
sg79
Nsg80
(lp1294
sg82
Nsg83
V537872368639553537
p1295
sg85
Nsg86
VBetter Than Instagram and Pinterest - GET MORE LIKES AND FOLLOWERS http://t.co/RtHtTbOhNB
p1296
sg88
I00
sg89
Ven
p1297
sg91
g3
(g92
g5
Ntp1298
Rp1299
(dp1300
g10
g215
sg97
V634047
p1301
sg99
Ven
p1302
sg101
VNew Delhi
p1303
sg103
I60219
sg104
I387
sg70
VThu Jun 12 16:03:34 +0000 2014
p1304
sg106
I00
sg107
Vplease like my tweet and please follow me
p1305
sg109
Vhttps://pbs.twimg.com/profile_images/542751895970795521/RFYMlNtA_normal.jpeg
p1306
sg111
I54569
sg112
I3
sg113
I19800
sg114
Nsg115
I00
sg116
Vhttps://pbs.twimg.com/profile_banners/2563676017/1415192413
p1307
sg118
I00
sg119
I00
sg120
V9266CC
p1308
sg122
I00
sg123
I00
sg124
Vhttp://abs.twimg.com/images/themes/theme3/bg.gif
p1309
sg126
VGirlFriendspix
p1310
sg128
I88
sg129
V GirlFriends
p1311
sg131
VE3E2DE
p1312
sg133
Nsg135
I2563676017
sg136
VEDECE9
p1313
sbsg138
I2
sg139
V<a href="http://mylikes.com" rel="nofollow">MyLikes Network</a>
p1314
sg141
(lp1315
g3
(g143
g5
Ntp1316
Rp1317
(dp1318
g147
Vhttp://t.co/RtHtTbOhNB
p1319
sg149
Vhttp://jpn111.inspireworthy.com/better-than-instagram-and-pinterest-get-more-likes-and-followers
p1320
sbasg135
I537872368639553537
sbag3
(g4
g5
Ntp1321
Rp1322
(dp1323
g9
I20
sg10
Nsg11
Nsg12
(lp1324
sg14
I00
sg15
Nsg20
Nsg21
(lp1325
sg67
Nsg68
Nsg69
Nsg70
VWed Nov 26 18:39:40 +0000 2014
p1326
sg72
Nsg73
Nsg74
Nsg75
Nsg76
Nsg77
Nsg78
I00
sg79
Nsg80
(lp1327
sg82
Nsg83
V537677083800264704
p1328
sg85
Nsg86
VYou\u2019re a Bitch\u000aYou\u2019re a Bit\u000aYou\u2019re a\u000aYou\u2019re\u000aYou\u000aYo\u000aY\u000aYo\u000aYou\u000aYou\u2019re\u000aYou\u2019re a\u000aYou\u2019re a Bit\u000aYou\u2019re a Bitch\u000aOh look ,You\u2019re still a Bitch
p1329
sg88
I00
sg89
Ven
p1330
sg91
g3
(g92
g5
Ntp1331
Rp1332
(dp1333
g10
g215
sg97
V634047
p1334
sg99
Ven
p1335
sg101
VNew Delhi
p1336
sg103
I60219
sg104
I387
sg70
VThu Jun 12 16:03:34 +0000 2014
p1337
sg106
I00
sg107
Vplease like my tweet and please follow me
p1338
sg109
Vhttps://pbs.twimg.com/profile_images/542751895970795521/RFYMlNtA_normal.jpeg
p1339
sg111
I54569
sg112
I3
sg113
I19800
sg114
Nsg115
I00
sg116
Vhttps://pbs.twimg.com/profile_banners/2563676017/1415192413
p1340
sg118
I00
sg119
I00
sg120
V9266CC
p1341
sg122
I00
sg123
I00
sg124
Vhttp://abs.twimg.com/images/themes/theme3/bg.gif
p1342
sg126
VGirlFriendspix
p1343
sg128
I88
sg129
V GirlFriends
p1344
sg131
VE3E2DE
p1345
sg133
Nsg135
I2563676017
sg136
VEDECE9
p1346
sbsg138
I20
sg139
V<a href="http://twitter.com" rel="nofollow">Twitter Web Client</a>
p1347
sg141
(lp1348
sg135
I537677083800264704
sbaa.