(lp0
S'pcnky'
p1
a(lp2
ccopy_reg
_reconstructor
p3
(ctwitter.status
Status
p4
c__builtin__
object
p5
Ntp6
Rp7
(dp8
S'_favorite_count'
p9
I0
sS'_location'
p10
NsS'_withheld_scope'
p11
NsS'hashtags'
p12
(lp13
sS'_truncated'
p14
I00
sS'_retweeted_status'
p15
NsS'_withheld_copyright'
p16
NsS'media'
p17
(lp18
sS'_place'
p19
NsS'_contributors'
p20
NsS'_current_user_retweet'
p21
NsS'_created_at'
p22
VWed Dec 10 19:46:52 +0000 2014
p23
sS'_scopes'
p24
NsS'_possibly_sensitive'
p25
I00
sS'_in_reply_to_screen_name'
p26
NsS'_coordinates'
p27
NsS'_in_reply_to_user_id'
p28
NsS'_geo'
p29
NsS'_favorited'
p30
I00
sS'_withheld_in_countries'
p31
NsS'user_mentions'
p32
(lp33
g3
(ctwitter.user
User
p34
g5
Ntp35
Rp36
(dp37
g10
NsS'_profile_text_color'
p38
NsS'_lang'
p39
NsS'_time_zone'
p40
NsS'_followers_count'
p41
NsS'_statuses_count'
p42
Nsg22
NsS'_verified'
p43
NsS'_description'
p44
NsS'_profile_image_url'
p45
NsS'_friends_count'
p46
NsS'_favourites_count'
p47
NsS'_utc_offset'
p48
NsS'_status'
p49
NsS'_protected'
p50
NsS'_profile_banner_url'
p51
NsS'_notifications'
p52
NsS'_profile_background_tile'
p53
NsS'_profile_link_color'
p54
NsS'_geo_enabled'
p55
NsS'_contributors_enabled'
p56
NsS'_profile_background_image_url'
p57
NsS'_screen_name'
p58
VKnitPicks
p59
sS'_listed_count'
p60
NsS'_name'
p61
VKnit Picks staff
p62
sS'_profile_sidebar_fill_color'
p63
NsS'_url'
p64
NsS'_id'
p65
I44473771
sS'_profile_background_color'
p66
NsbasS'_now'
p67
NsS'_id_str'
p68
NsS'_in_reply_to_status_id'
p69
NsS'_text'
p70
VI just entered the @KnitPicks Facebook Fan contest! I hope I win ! Click here to enter too: http://t.co/w0fFeMgbHR
p71
sS'_retweeted'
p72
I00
sS'lang'
p73
Ven
p74
sS'_user'
p75
g3
(g34
g5
Ntp76
Rp77
(dp78
g10
V
p79
sg38
V739E9F
p80
sg39
Ven
p81
sg40
VEastern Time (US & Canada)
p82
sg41
I26
sg42
I281
sg22
VSat Apr 11 22:32:42 +0000 2009
p83
sg43
I00
sg44
g79
sg45
Vhttps://pbs.twimg.com/profile_images/1261843354/16_normal.jpg
p84
sg46
I162
sg47
I8
sg48
I-18000
sg49
Nsg50
I00
sg51
Vhttps://pbs.twimg.com/profile_banners/30540892/1399488363
p85
sg52
I00
sg53
I00
sg54
VB4D9AD
p86
sg55
I01
sg56
I00
sg57
Vhttp://pbs.twimg.com/profile_background_images/212994939/x30f70f89e111fe4a532e1a19a6625a4.jpg
p87
sg58
Vpcnky
p88
sg60
I1
sg61
VSelena
p89
sg63
V3B615D
p90
sg64
Vhttp://t.co/01YkRuJ9YK
p91
sg65
I30540892
sg66
V214542
p92
sbsS'_retweet_count'
p93
I0
sS'_source'
p94
V<a href="https://dev.twitter.com/docs/tfw" rel="nofollow">Twitter for Websites</a>
p95
sS'urls'
p96
(lp97
g3
(ctwitter.url
Url
p98
g5
Ntp99
Rp100
(dp101
S'url'
p102
Vhttp://t.co/w0fFeMgbHR
p103
sS'expanded_url'
p104
Vhttp://woobox.com/myiq94/cieeb8
p105
sbasg65
I542767421962981376
sbag3
(g4
g5
Ntp106
Rp107
(dp108
g9
I0
sg10
Nsg11
Nsg12
(lp109
sg14
I00
sg15
Nsg16
Nsg17
(lp110
sg19
Nsg20
Nsg21
Nsg22
VThu Oct 16 13:00:27 +0000 2014
p111
sg24
Nsg25
I00
sg26
Nsg27
Nsg28
Nsg29
Nsg30
I00
sg31
Nsg32
(lp112
g3
(g34
g5
Ntp113
Rp114
(dp115
g10
Nsg38
Nsg39
Nsg40
Nsg41
Nsg42
Nsg22
Nsg43
Nsg44
Nsg45
Nsg46
Nsg47
Nsg48
Nsg49
Nsg50
Nsg51
Nsg52
Nsg53
Nsg54
Nsg55
Nsg56
Nsg57
Nsg58
Vsitepointdotcom
p116
sg60
Nsg61
VSitePoint
p117
sg63
Nsg64
Nsg65
I15743570
sg66
Nsbag3
(g34
g5
Ntp118
Rp119
(dp120
g10
Nsg38
Nsg39
Nsg40
Nsg41
Nsg42
Nsg22
Nsg43
Nsg44
Nsg45
Nsg46
Nsg47
Nsg48
Nsg49
Nsg50
Nsg51
Nsg52
Nsg53
Nsg54
Nsg55
Nsg56
Nsg57
Nsg58
VLearnableHQ
p121
sg60
Nsg61
VLearnable
p122
sg63
Nsg64
Nsg65
I199919619
sg66
Nsbasg67
Nsg68
Nsg69
Nsg70
VThanks @sitepointdotcom for giving me the chance to win an annual membership to your @learnablehq platform http://t.co/TV4fDOPLKx
p123
sg72
I00
sg73
Ven
p124
sg75
g3
(g34
g5
Ntp125
Rp126
(dp127
g10
g79
sg38
V739E9F
p128
sg39
Ven
p129
sg40
VEastern Time (US & Canada)
p130
sg41
I26
sg42
I281
sg22
VSat Apr 11 22:32:42 +0000 2009
p131
sg43
I00
sg44
g79
sg45
Vhttps://pbs.twimg.com/profile_images/1261843354/16_normal.jpg
p132
sg46
I162
sg47
I8
sg48
I-18000
sg49
Nsg50
I00
sg51
Vhttps://pbs.twimg.com/profile_banners/30540892/1399488363
p133
sg52
I00
sg53
I00
sg54
VB4D9AD
p134
sg55
I01
sg56
I00
sg57
Vhttp://pbs.twimg.com/profile_background_images/212994939/x30f70f89e111fe4a532e1a19a6625a4.jpg
p135
sg58
Vpcnky
p136
sg60
I1
sg61
VSelena
p137
sg63
V3B615D
p138
sg64
Vhttp://t.co/01YkRuJ9YK
p139
sg65
I30540892
sg66
V214542
p140
sbsg93
I0
sg94
V<a href="https://dev.twitter.com/docs/tfw" rel="nofollow">Twitter for Websites</a>
p141
sg96
(lp142
g3
(g98
g5
Ntp143
Rp144
(dp145
g102
Vhttp://t.co/TV4fDOPLKx
p146
sg104
Vhttp://sitepoint.com/Competition
p147
sbasg65
I522733814229901312
sbag3
(g4
g5
Ntp148
Rp149
(dp150
g9
I0
sg10
Nsg11
Nsg12
(lp151
g3
(ctwitter.hashtag
Hashtag
p152
g5
Ntp153
Rp154
(dp155
S'text'
p156
VDallas
p157
sbag3
(g152
g5
Ntp158
Rp159
(dp160
g156
VNetFlix
p161
sbag3
(g152
g5
Ntp162
Rp163
(dp164
g156
VNetflix
p165
sbag3
(g152
g5
Ntp166
Rp167
(dp168
g156
VStreamDallas
p169
sbag3
(g152
g5
Ntp170
Rp171
(dp172
g156
VSaveDallas
p173
sbasg14
I00
sg15
g3
(g4
g5
Ntp174
Rp175
(dp176
g9
I79
sg10
Nsg11
Nsg12
(lp177
g3
(g152
g5
Ntp178
Rp179
(dp180
g156
VDallas
p181
sbag3
(g152
g5
Ntp182
Rp183
(dp184
g156
VNetFlix
p185
sbag3
(g152
g5
Ntp186
Rp187
(dp188
g156
VNetflix
p189
sbag3
(g152
g5
Ntp190
Rp191
(dp192
g156
VStreamDallas
p193
sbag3
(g152
g5
Ntp194
Rp195
(dp196
g156
VSaveDallas
p197
sbasg14
I00
sg15
Nsg16
Nsg17
(lp198
sg19
Nsg20
Nsg21
Nsg22
VSun Oct 05 22:56:23 +0000 2014
p199
sg24
Nsg25
Nsg26
Nsg27
Nsg28
Nsg29
Nsg30
I00
sg31
Nsg32
(lp200
sg67
Nsg68
Nsg69
Nsg70
VGet our #Dallas fix on #NetFlix - What do you think? Would you watch the show on #Netflix ? #StreamDallas #SaveDallas
p201
sg72
I00
sg73
Ven
p202
sg75
g3
(g34
g5
Ntp203
Rp204
(dp205
g10
VSouthfork Ranch
p206
sg38
V333333
p207
sg39
Ven
p208
sg40
VLondon
p209
sg41
I12967
sg42
I4523
sg22
VSat Apr 18 09:56:19 +0000 2009
p210
sg43
I00
sg44
VThe official fans website for the tv series Dallas with Larry Hagman as JR Ewing lauched in 1997
p211
sg45
Vhttps://pbs.twimg.com/profile_images/1238835658/icontwitter_normal.png
p212
sg46
I308
sg47
I485
sg48
I0
sg49
Nsg50
I00
sg51
Vhttps://pbs.twimg.com/profile_banners/32844932/1398715702
p213
sg52
I00
sg53
I00
sg54
VB4000D
p214
sg55
I00
sg56
I00
sg57
Vhttp://pbs.twimg.com/profile_background_images/378800000083091794/72dd53a9b58eeff7cc15b5b198caf773.jpeg
p215
sg58
VUltimateDallas
p216
sg60
I120
sg61
VUltimate Dallas
p217
sg63
VFCE00D
p218
sg64
Vhttp://t.co/QtOfFipjOQ
p219
sg65
I32844932
sg66
VC64809
p220
sbsg93
I61
sg94
V<a href="http://twitter.com" rel="nofollow">Twitter Web Client</a>
p221
sg96
(lp222
sg65
I518897519364169728
sbsg16
Nsg17
(lp223
sg19
Nsg20
Nsg21
Nsg22
VMon Oct 06 00:59:55 +0000 2014
p224
sg24
Nsg25
Nsg26
Nsg27
Nsg28
Nsg29
Nsg30
I00
sg31
Nsg32
(lp225
g3
(g34
g5
Ntp226
Rp227
(dp228
g10
Nsg38
Nsg39
Nsg40
Nsg41
Nsg42
Nsg22
Nsg43
Nsg44
Nsg45
Nsg46
Nsg47
Nsg48
Nsg49
Nsg50
Nsg51
Nsg52
Nsg53
Nsg54
Nsg55
Nsg56
Nsg57
Nsg58
VUltimateDallas
p229
sg60
Nsg61
VUltimate Dallas
p230
sg63
Nsg64
Nsg65
I32844932
sg66
Nsbasg67
Nsg68
Nsg69
Nsg70
VRT @UltimateDallas: Get our #Dallas fix on #NetFlix - What do you think? Would you watch the show on #Netflix ? #StreamDallas #SaveDallas
p231
sg72
I00
sg73
Ven
p232
sg75
g3
(g34
g5
Ntp233
Rp234
(dp235
g10
g79
sg38
V739E9F
p236
sg39
Ven
p237
sg40
VEastern Time (US & Canada)
p238
sg41
I26
sg42
I281
sg22
VSat Apr 11 22:32:42 +0000 2009
p239
sg43
I00
sg44
g79
sg45
Vhttps://pbs.twimg.com/profile_images/1261843354/16_normal.jpg
p240
sg46
I162
sg47
I8
sg48
I-18000
sg49
Nsg50
I00
sg51
Vhttps://pbs.twimg.com/profile_banners/30540892/1399488363
p241
sg52
I00
sg53
I00
sg54
VB4D9AD
p242
sg55
I01
sg56
I00
sg57
Vhttp://pbs.twimg.com/profile_background_images/212994939/x30f70f89e111fe4a532e1a19a6625a4.jpg
p243
sg58
Vpcnky
p244
sg60
I1
sg61
VSelena
p245
sg63
V3B615D
p246
sg64
Vhttp://t.co/01YkRuJ9YK
p247
sg65
I30540892
sg66
V214542
p248
sbsg93
I61
sg94
V<a href="http://twitter.com/download/iphone" rel="nofollow">Twitter for iPhone</a>
p249
sg96
(lp250
sg65
I518928605842120704
sbag3
(g4
g5
Ntp251
Rp252
(dp253
g9
I0
sg10
Nsg11
Nsg12
(lp254
sg14
I00
sg15
Nsg16
Nsg17
(lp255
sg19
Nsg20
Nsg21
Nsg22
VThu Aug 28 16:26:32 +0000 2014
p256
sg24
Nsg25
Nsg26
VYarnHarlot
p257
sg27
Nsg28
I19471361
sg29
Nsg30
I00
sg31
Nsg32
(lp258
g3
(g34
g5
Ntp259
Rp260
(dp261
g10
Nsg38
Nsg39
Nsg40
Nsg41
Nsg42
Nsg22
Nsg43
Nsg44
Nsg45
Nsg46
Nsg47
Nsg48
Nsg49
Nsg50
Nsg51
Nsg52
Nsg53
Nsg54
Nsg55
Nsg56
Nsg57
Nsg58
VYarnHarlot
p262
sg60
Nsg61
VSteph Pearl-McPhee
p263
sg63
Nsg64
Nsg65
I19471361
sg66
Nsbasg67
Nsg68
Nsg69
I503903278527426560
sg70
V@YarnHarlot Voted (and looks like a lot of other people did too!)
p264
sg72
I00
sg73
Ven
p265
sg75
g3
(g34
g5
Ntp266
Rp267
(dp268
g10
g79
sg38
V739E9F
p269
sg39
Ven
p270
sg40
VEastern Time (US & Canada)
p271
sg41
I26
sg42
I281
sg22
VSat Apr 11 22:32:42 +0000 2009
p272
sg43
I00
sg44
g79
sg45
Vhttps://pbs.twimg.com/profile_images/1261843354/16_normal.jpg
p273
sg46
I162
sg47
I8
sg48
I-18000
sg49
Nsg50
I00
sg51
Vhttps://pbs.twimg.com/profile_banners/30540892/1399488363
p274
sg52
I00
sg53
I00
sg54
VB4D9AD
p275
sg55
I01
sg56
I00
sg57
Vhttp://pbs.twimg.com/profile_background_images/212994939/x30f70f89e111fe4a532e1a19a6625a4.jpg
p276
sg58
Vpcnky
p277
sg60
I1
sg61
VSelena
p278
sg63
V3B615D
p279
sg64
Vhttp://t.co/01YkRuJ9YK
p280
sg65
I30540892
sg66
V214542
p281
sbsg93
I0
sg94
V<a href="http://twitter.com" rel="nofollow">Twitter Web Client</a>
p282
sg96
(lp283
sg65
I505028668629221376
sbag3
(g4
g5
Ntp284
Rp285
(dp286
g9
I0
sg10
Nsg11
Nsg12
(lp287
sg14
I00
sg15
g3
(g4
g5
Ntp288
Rp289
(dp290
g9
I36
sg10
Nsg11
Nsg12
(lp291
sg14
I00
sg15
Nsg16
Nsg17
(lp292
sg19
Nsg20
Nsg21
Nsg22
VSun Aug 24 02:27:51 +0000 2014
p293
sg24
Nsg25
Nsg26
Nsg27
Nsg28
Nsg29
Nsg30
I00
sg31
Nsg32
(lp294
sg67
Nsg68
Nsg69
Nsg70
VRT if you love Bristol,  baby!
p295
sg72
I00
sg73
Ven
p296
sg75
g3
(g34
g5
Ntp297
Rp298
(dp299
g10
VPit entrance 
p300
sg38
V333333
p301
sg39
Ven
p302
sg40
VEastern Time (US & Canada)
p303
sg41
I61176
sg42
I146190
sg22
VSun Jul 31 00:13:56 +0000 2011
p304
sg43
I00
sg44
VI am an orange traffic cone, living the NASCAR dream one race at a time
p305
sg45
Vhttps://pbs.twimg.com/profile_images/534787044107493377/Qd48E6TH_normal.jpeg
p306
sg46
I2304
sg47
I6615
sg48
I-18000
sg49
Nsg50
I00
sg51
Vhttps://pbs.twimg.com/profile_banners/345669698/1355241054
p307
sg52
I00
sg53
I00
sg54
V0084B4
p308
sg55
I00
sg56
I00
sg57
Vhttp://abs.twimg.com/images/themes/theme1/bg.png
p309
sg58
VTheOrangeCone
p310
sg60
I1183
sg61
VTop Five Champ Cone
p311
sg63
VDDEEF6
p312
sg64
Nsg65
I345669698
sg66
VC0DEED
p313
sbsg93
I120
sg94
V<a href="http://www.hootsuite.com" rel="nofollow">Hootsuite</a>
p314
sg96
(lp315
sg65
I503368057499049984
sbsg16
Nsg17
(lp316
sg19
Nsg20
Nsg21
Nsg22
VSun Aug 24 02:28:18 +0000 2014
p317
sg24
Nsg25
Nsg26
Nsg27
Nsg28
Nsg29
Nsg30
I00
sg31
Nsg32
(lp318
g3
(g34
g5
Ntp319
Rp320
(dp321
g10
Nsg38
Nsg39
Nsg40
Nsg41
Nsg42
Nsg22
Nsg43
Nsg44
Nsg45
Nsg46
Nsg47
Nsg48
Nsg49
Nsg50
Nsg51
Nsg52
Nsg53
Nsg54
Nsg55
Nsg56
Nsg57
Nsg58
VTheOrangeCone
p322
sg60
Nsg61
VTop Five Champ Cone
p323
sg63
Nsg64
Nsg65
I345669698
sg66
Nsbasg67
Nsg68
Nsg69
Nsg70
VRT @TheOrangeCone: RT if you love Bristol,  baby!
p324
sg72
I00
sg73
Ven
p325
sg75
g3
(g34
g5
Ntp326
Rp327
(dp328
g10
g79
sg38
V739E9F
p329
sg39
Ven
p330
sg40
VEastern Time (US & Canada)
p331
sg41
I26
sg42
I281
sg22
VSat Apr 11 22:32:42 +0000 2009
p332
sg43
I00
sg44
g79
sg45
Vhttps://pbs.twimg.com/profile_images/1261843354/16_normal.jpg
p333
sg46
I162
sg47
I8
sg48
I-18000
sg49
Nsg50
I00
sg51
Vhttps://pbs.twimg.com/profile_banners/30540892/1399488363
p334
sg52
I00
sg53
I00
sg54
VB4D9AD
p335
sg55
I01
sg56
I00
sg57
Vhttp://pbs.twimg.com/profile_background_images/212994939/x30f70f89e111fe4a532e1a19a6625a4.jpg
p336
sg58
Vpcnky
p337
sg60
I1
sg61
VSelena
p338
sg63
V3B615D
p339
sg64
Vhttp://t.co/01YkRuJ9YK
p340
sg65
I30540892
sg66
V214542
p341
sbsg93
I120
sg94
V<a href="http://twitter.com/download/iphone" rel="nofollow">Twitter for iPhone</a>
p342
sg96
(lp343
sg65
I503368170074550272
sbag3
(g4
g5
Ntp344
Rp345
(dp346
g9
I0
sg10
Nsg11
Nsg12
(lp347
sg14
I00
sg15
Nsg16
Nsg17
(lp348
sg19
Nsg20
Nsg21
Nsg22
VWed Aug 20 15:02:10 +0000 2014
p349
sg24
Nsg25
I00
sg26
Nsg27
Nsg28
Nsg29
Nsg30
I00
sg31
Nsg32
(lp350
g3
(g34
g5
Ntp351
Rp352
(dp353
g10
Nsg38
Nsg39
Nsg40
Nsg41
Nsg42
Nsg22
Nsg43
Nsg44
Nsg45
Nsg46
Nsg47
Nsg48
Nsg49
Nsg50
Nsg51
Nsg52
Nsg53
Nsg54
Nsg55
Nsg56
Nsg57
Nsg58
VBingRewards
p354
sg60
Nsg61
VBing Rewards
p355
sg63
Nsg64
Nsg65
I197134784
sg66
Nsbasg67
Nsg68
Nsg69
Nsg70
VI've earned Gold status with @BingRewards! Bing helps me get things done and earn great rewards too! http://t.co/XCaPELV6E6
p356
sg72
I00
sg73
Ven
p357
sg75
g3
(g34
g5
Ntp358
Rp359
(dp360
g10
g79
sg38
V739E9F
p361
sg39
Ven
p362
sg40
VEastern Time (US & Canada)
p363
sg41
I26
sg42
I281
sg22
VSat Apr 11 22:32:42 +0000 2009
p364
sg43
I00
sg44
g79
sg45
Vhttps://pbs.twimg.com/profile_images/1261843354/16_normal.jpg
p365
sg46
I162
sg47
I8
sg48
I-18000
sg49
Nsg50
I00
sg51
Vhttps://pbs.twimg.com/profile_banners/30540892/1399488363
p366
sg52
I00
sg53
I00
sg54
VB4D9AD
p367
sg55
I01
sg56
I00
sg57
Vhttp://pbs.twimg.com/profile_background_images/212994939/x30f70f89e111fe4a532e1a19a6625a4.jpg
p368
sg58
Vpcnky
p369
sg60
I1
sg61
VSelena
p370
sg63
V3B615D
p371
sg64
Vhttp://t.co/01YkRuJ9YK
p372
sg65
I30540892
sg66
V214542
p373
sbsg93
I0
sg94
V<a href="https://dev.twitter.com/docs/tfw" rel="nofollow">Twitter for Websites</a>
p374
sg96
(lp375
g3
(g98
g5
Ntp376
Rp377
(dp378
g102
Vhttp://t.co/XCaPELV6E6
p379
sg104
Vhttp://binged.it/vKYNc1
p380
sbasg65
I502108336121057281
sbag3
(g4
g5
Ntp381
Rp382
(dp383
g9
I1
sg10
Nsg11
Nsg12
(lp384
g3
(g152
g5
Ntp385
Rp386
(dp387
g156
Vsounds4work
p388
sbasg14
I00
sg15
Nsg16
Nsg17
(lp389
sg19
Nsg20
Nsg21
Nsg22
VThu Aug 14 14:23:29 +0000 2014
p390
sg24
Nsg25
I00
sg26
Nsg27
Nsg28
Nsg29
Nsg30
I00
sg31
Nsg32
(lp391
g3
(g34
g5
Ntp392
Rp393
(dp394
g10
Nsg38
Nsg39
Nsg40
Nsg41
Nsg42
Nsg22
Nsg43
Nsg44
Nsg45
Nsg46
Nsg47
Nsg48
Nsg49
Nsg50
Nsg51
Nsg52
Nsg53
Nsg54
Nsg55
Nsg56
Nsg57
Nsg58
VCoffitivity
p395
sg60
Nsg61
VCoffitivity
p396
sg63
Nsg64
Nsg65
I1244241391
sg66
Nsbasg67
Nsg68
Nsg69
Nsg70
VPlugging in to work with new features from @Coffitivity http://t.co/KpbLrwPsCz #sounds4work
p397
sg72
I00
sg73
Ven
p398
sg75
g3
(g34
g5
Ntp399
Rp400
(dp401
g10
g79
sg38
V739E9F
p402
sg39
Ven
p403
sg40
VEastern Time (US & Canada)
p404
sg41
I26
sg42
I281
sg22
VSat Apr 11 22:32:42 +0000 2009
p405
sg43
I00
sg44
g79
sg45
Vhttps://pbs.twimg.com/profile_images/1261843354/16_normal.jpg
p406
sg46
I162
sg47
I8
sg48
I-18000
sg49
Nsg50
I00
sg51
Vhttps://pbs.twimg.com/profile_banners/30540892/1399488363
p407
sg52
I00
sg53
I00
sg54
VB4D9AD
p408
sg55
I01
sg56
I00
sg57
Vhttp://pbs.twimg.com/profile_background_images/212994939/x30f70f89e111fe4a532e1a19a6625a4.jpg
p409
sg58
Vpcnky
p410
sg60
I1
sg61
VSelena
p411
sg63
V3B615D
p412
sg64
Vhttp://t.co/01YkRuJ9YK
p413
sg65
I30540892
sg66
V214542
p414
sbsg93
I0
sg94
V<a href="https://dev.twitter.com/docs/tfw" rel="nofollow">Twitter for Websites</a>
p415
sg96
(lp416
g3
(g98
g5
Ntp417
Rp418
(dp419
g102
Vhttp://t.co/KpbLrwPsCz
p420
sg104
Vhttp://coffitivity.com
p421
sbasg65
I499924273180311553
sbag3
(g4
g5
Ntp422
Rp423
(dp424
g9
I0
sg10
Nsg11
Nsg12
(lp425
sg14
I00
sg15
g3
(g4
g5
Ntp426
Rp427
(dp428
g9
I5
sg10
Nsg11
Nsg12
(lp429
sg14
I00
sg15
Nsg16
Nsg17
(lp430
sg19
Nsg20
Nsg21
Nsg22
VThu May 22 17:12:56 +0000 2014
p431
sg24
Nsg25
Nsg26
Nsg27
Nsg28
Nsg29
Nsg30
I00
sg31
Nsg32
(lp432
g3
(g34
g5
Ntp433
Rp434
(dp435
g10
Nsg38
Nsg39
Nsg40
Nsg41
Nsg42
Nsg22
Nsg43
Nsg44
Nsg45
Nsg46
Nsg47
Nsg48
Nsg49
Nsg50
Nsg51
Nsg52
Nsg53
Nsg54
Nsg55
Nsg56
Nsg57
Nsg58
VNASCARHall
p436
sg60
Nsg61
VNASCAR Hall of Fame
p437
sg63
Nsg64
Nsg65
I17052328
sg66
Nsbasg67
Nsg68
Nsg69
Nsg70
VRT if you agree that Wendell Scott should be in @NASCARHall, Favorite if you disagree.
p438
sg72
I00
sg73
Ven
p439
sg75
g3
(g34
g5
Ntp440
Rp441
(dp442
g10
VPit entrance 
p443
sg38
V333333
p444
sg39
Ven
p445
sg40
VEastern Time (US & Canada)
p446
sg41
I61176
sg42
I146190
sg22
VSun Jul 31 00:13:56 +0000 2011
p447
sg43
I00
sg44
VI am an orange traffic cone, living the NASCAR dream one race at a time
p448
sg45
Vhttps://pbs.twimg.com/profile_images/534787044107493377/Qd48E6TH_normal.jpeg
p449
sg46
I2304
sg47
I6615
sg48
I-18000
sg49
Nsg50
I00
sg51
Vhttps://pbs.twimg.com/profile_banners/345669698/1355241054
p450
sg52
I00
sg53
I00
sg54
V0084B4
p451
sg55
I00
sg56
I00
sg57
Vhttp://abs.twimg.com/images/themes/theme1/bg.png
p452
sg58
VTheOrangeCone
p453
sg60
I1183
sg61
VTop Five Champ Cone
p454
sg63
VDDEEF6
p455
sg64
Nsg65
I345669698
sg66
VC0DEED
p456
sbsg93
I77
sg94
V<a href="https://about.twitter.com/products/tweetdeck" rel="nofollow">TweetDeck</a>
p457
sg96
(lp458
sg65
I469526334683619329
sbsg16
Nsg17
(lp459
sg19
Nsg20
Nsg21
Nsg22
VThu May 22 17:13:29 +0000 2014
p460
sg24
Nsg25
Nsg26
Nsg27
Nsg28
Nsg29
Nsg30
I00
sg31
Nsg32
(lp461
g3
(g34
g5
Ntp462
Rp463
(dp464
g10
Nsg38
Nsg39
Nsg40
Nsg41
Nsg42
Nsg22
Nsg43
Nsg44
Nsg45
Nsg46
Nsg47
Nsg48
Nsg49
Nsg50
Nsg51
Nsg52
Nsg53
Nsg54
Nsg55
Nsg56
Nsg57
Nsg58
VTheOrangeCone
p465
sg60
Nsg61
VTop Five Champ Cone
p466
sg63
Nsg64
Nsg65
I345669698
sg66
Nsbag3
(g34
g5
Ntp467
Rp468
(dp469
g10
Nsg38
Nsg39
Nsg40
Nsg41
Nsg42
Nsg22
Nsg43
Nsg44
Nsg45
Nsg46
Nsg47
Nsg48
Nsg49
Nsg50
Nsg51
Nsg52
Nsg53
Nsg54
Nsg55
Nsg56
Nsg57
Nsg58
VNASCARHall
p470
sg60
Nsg61
VNASCAR Hall of Fame
p471
sg63
Nsg64
Nsg65
I17052328
sg66
Nsbasg67
Nsg68
Nsg69
Nsg70
VRT @TheOrangeCone: RT if you agree that Wendell Scott should be in @NASCARHall, Favorite if you disagree.
p472
sg72
I00
sg73
Ven
p473
sg75
g3
(g34
g5
Ntp474
Rp475
(dp476
g10
g79
sg38
V739E9F
p477
sg39
Ven
p478
sg40
VEastern Time (US & Canada)
p479
sg41
I26
sg42
I281
sg22
VSat Apr 11 22:32:42 +0000 2009
p480
sg43
I00
sg44
g79
sg45
Vhttps://pbs.twimg.com/profile_images/1261843354/16_normal.jpg
p481
sg46
I162
sg47
I8
sg48
I-18000
sg49
Nsg50
I00
sg51
Vhttps://pbs.twimg.com/profile_banners/30540892/1399488363
p482
sg52
I00
sg53
I00
sg54
VB4D9AD
p483
sg55
I01
sg56
I00
sg57
Vhttp://pbs.twimg.com/profile_background_images/212994939/x30f70f89e111fe4a532e1a19a6625a4.jpg
p484
sg58
Vpcnky
p485
sg60
I1
sg61
VSelena
p486
sg63
V3B615D
p487
sg64
Vhttp://t.co/01YkRuJ9YK
p488
sg65
I30540892
sg66
V214542
p489
sbsg93
I77
sg94
V<a href="http://twitter.com/#!/download/ipad" rel="nofollow">Twitter for iPad</a>
p490
sg96
(lp491
sg65
I469526475796795393
sbag3
(g4
g5
Ntp492
Rp493
(dp494
g9
I0
sg10
Nsg11
Nsg12
(lp495
g3
(g152
g5
Ntp496
Rp497
(dp498
g156
Vinvisiontee
p499
sbasg14
I00
sg15
Nsg16
Nsg17
(lp500
sg19
Nsg20
Nsg21
Nsg22
VMon May 19 14:46:38 +0000 2014
p501
sg24
Nsg25
I00
sg26
Nsg27
Nsg28
Nsg29
Nsg30
I00
sg31
Nsg32
(lp502
g3
(g34
g5
Ntp503
Rp504
(dp505
g10
Nsg38
Nsg39
Nsg40
Nsg41
Nsg42
Nsg22
Nsg43
Nsg44
Nsg45
Nsg46
Nsg47
Nsg48
Nsg49
Nsg50
Nsg51
Nsg52
Nsg53
Nsg54
Nsg55
Nsg56
Nsg57
Nsg58
VInVisionApp
p506
sg60
Nsg61
VInVision
p507
sg63
Nsg64
Nsg65
I256093789
sg66
Nsbag3
(g34
g5
Ntp508
Rp509
(dp510
g10
Nsg38
Nsg39
Nsg40
Nsg41
Nsg42
Nsg22
Nsg43
Nsg44
Nsg45
Nsg46
Nsg47
Nsg48
Nsg49
Nsg50
Nsg51
Nsg52
Nsg53
Nsg54
Nsg55
Nsg56
Nsg57
Nsg58
Vkylesteed
p511
sg60
Nsg61
VKyle Steed
p512
sg63
Nsg64
Nsg65
I1572601
sg66
Nsbasg67
Nsg68
Nsg69
Nsg70
V"Design Makes Everything Possible." - @invisionapp Win this cool t-shirt designed by @kylesteed http://t.co/A6ThVgbLP6 #invisiontee
p513
sg72
I00
sg73
Ven
p514
sg75
g3
(g34
g5
Ntp515
Rp516
(dp517
g10
g79
sg38
V739E9F
p518
sg39
Ven
p519
sg40
VEastern Time (US & Canada)
p520
sg41
I26
sg42
I281
sg22
VSat Apr 11 22:32:42 +0000 2009
p521
sg43
I00
sg44
g79
sg45
Vhttps://pbs.twimg.com/profile_images/1261843354/16_normal.jpg
p522
sg46
I162
sg47
I8
sg48
I-18000
sg49
Nsg50
I00
sg51
Vhttps://pbs.twimg.com/profile_banners/30540892/1399488363
p523
sg52
I00
sg53
I00
sg54
VB4D9AD
p524
sg55
I01
sg56
I00
sg57
Vhttp://pbs.twimg.com/profile_background_images/212994939/x30f70f89e111fe4a532e1a19a6625a4.jpg
p525
sg58
Vpcnky
p526
sg60
I1
sg61
VSelena
p527
sg63
V3B615D
p528
sg64
Vhttp://t.co/01YkRuJ9YK
p529
sg65
I30540892
sg66
V214542
p530
sbsg93
I0
sg94
V<a href="https://dev.twitter.com/docs/tfw" rel="nofollow">Twitter for Websites</a>
p531
sg96
(lp532
g3
(g98
g5
Ntp533
Rp534
(dp535
g102
Vhttp://t.co/A6ThVgbLP6
p536
sg104
Vhttp://bit.ly/invisiontee
p537
sbasg65
I468402352722964480
sbag3
(g4
g5
Ntp538
Rp539
(dp540
g9
I0
sg10
Nsg11
Nsg12
(lp541
g3
(g152
g5
Ntp542
Rp543
(dp544
g156
VMadMen
p545
sbasg14
I00
sg15
Nsg16
Nsg17
(lp546
sg19
Nsg20
Nsg21
Nsg22
VWed Apr 16 01:08:17 +0000 2014
p547
sg24
Nsg25
Nsg26
Nsg27
Nsg28
Nsg29
Nsg30
I00
sg31
Nsg32
(lp548
g3
(g34
g5
Ntp549
Rp550
(dp551
g10
Nsg38
Nsg39
Nsg40
Nsg41
Nsg42
Nsg22
Nsg43
Nsg44
Nsg45
Nsg46
Nsg47
Nsg48
Nsg49
Nsg50
Nsg51
Nsg52
Nsg53
Nsg54
Nsg55
Nsg56
Nsg57
Nsg58
VHarryCrane
p552
sg60
Nsg61
VHarry Crane
p553
sg63
Nsg64
Nsg65
I16010299
sg66
Nsbasg67
Nsg68
Nsg69
Nsg70
VWhere's @HarryCrane ? #MadMen
p554
sg72
I00
sg73
Ven
p555
sg75
g3
(g34
g5
Ntp556
Rp557
(dp558
g10
g79
sg38
V739E9F
p559
sg39
Ven
p560
sg40
VEastern Time (US & Canada)
p561
sg41
I26
sg42
I281
sg22
VSat Apr 11 22:32:42 +0000 2009
p562
sg43
I00
sg44
g79
sg45
Vhttps://pbs.twimg.com/profile_images/1261843354/16_normal.jpg
p563
sg46
I162
sg47
I8
sg48
I-18000
sg49
Nsg50
I00
sg51
Vhttps://pbs.twimg.com/profile_banners/30540892/1399488363
p564
sg52
I00
sg53
I00
sg54
VB4D9AD
p565
sg55
I01
sg56
I00
sg57
Vhttp://pbs.twimg.com/profile_background_images/212994939/x30f70f89e111fe4a532e1a19a6625a4.jpg
p566
sg58
Vpcnky
p567
sg60
I1
sg61
VSelena
p568
sg63
V3B615D
p569
sg64
Vhttp://t.co/01YkRuJ9YK
p570
sg65
I30540892
sg66
V214542
p571
sbsg93
I0
sg94
V<a href="http://twitter.com/download/iphone" rel="nofollow">Twitter for iPhone</a>
p572
sg96
(lp573
sg65
I456237612064190464
sbag3
(g4
g5
Ntp574
Rp575
(dp576
g9
I0
sg10
Nsg11
Nsg12
(lp577
sg14
I00
sg15
g3
(g4
g5
Ntp578
Rp579
(dp580
g9
I348
sg10
Nsg11
Nsg12
(lp581
sg14
I00
sg15
Nsg16
Nsg17
(lp582
(dp583
Vexpanded_url
p584
Vhttp://twitter.com/NASCAR/status/455174322009542658/photo/1
p585
sVdisplay_url
p586
Vpic.twitter.com/2HY6kAkIyo
p587
sVurl
p588
Vhttp://t.co/2HY6kAkIyo
p589
sVmedia_url_https
p590
Vhttps://pbs.twimg.com/media/BlEaojwCYAAh6Yf.jpg
p591
sVid_str
p592
V455174321434943488
p593
sVsizes
p594
(dp595
Vlarge
p596
(dp597
Vh
p598
I673
sVresize
p599
Vfit
p600
sVw
p601
I1024
ssVsmall
p602
(dp603
Vh
p604
I223
sVresize
p605
Vfit
p606
sVw
p607
I340
ssVmedium
p608
(dp609
Vh
p610
I394
sVresize
p611
Vfit
p612
sVw
p613
I600
ssVthumb
p614
(dp615
Vh
p616
I150
sVresize
p617
Vcrop
p618
sVw
p619
I150
sssVindices
p620
(lp621
I118
aI140
asVtype
p622
Vphoto
p623
sVid
p624
I455174321434943488
sVmedia_url
p625
Vhttp://pbs.twimg.com/media/BlEaojwCYAAh6Yf.jpg
p626
sasg19
Nsg20
Nsg21
Nsg22
VSun Apr 13 02:43:09 +0000 2014
p627
sg24
Nsg25
I00
sg26
Nsg27
Nsg28
Nsg29
Nsg30
I00
sg31
Nsg32
(lp628
g3
(g34
g5
Ntp629
Rp630
(dp631
g10
Nsg38
Nsg39
Nsg40
Nsg41
Nsg42
Nsg22
Nsg43
Nsg44
Nsg45
Nsg46
Nsg47
Nsg48
Nsg49
Nsg50
Nsg51
Nsg52
Nsg53
Nsg54
Nsg55
Nsg56
Nsg57
Nsg58
VKevinHarvick
p632
sg60
Nsg61
VKevin Harvick
p633
sg63
Nsg64
Nsg65
I22450947
sg66
Nsbasg67
Nsg68
Nsg69
Nsg70
VRetweet to congratulate @KevinHarvick on his 2nd win of '14. If he finishes in the top 30 in pts, he makes the Chase! http://t.co/2HY6kAkIyo
p634
sg72
I00
sg73
Ven
p635
sg75
g3
(g34
g5
Ntp636
Rp637
(dp638
g10
g79
sg38
V333333
p639
sg39
Ven
p640
sg40
VEastern Time (US & Canada)
p641
sg41
I1624877
sg42
I66231
sg22
VSat Jun 20 23:13:52 +0000 2009
p642
sg43
I01
sg44
VFast. Really fast.
p643
sg45
Vhttps://pbs.twimg.com/profile_images/540699997243596800/Qb2MONi2_normal.jpeg
p644
sg46
I389
sg47
I185
sg48
I-18000
sg49
Nsg50
I00
sg51
Vhttps://pbs.twimg.com/profile_banners/49153854/1416190756
p645
sg52
I00
sg53
I00
sg54
V0084B4
p646
sg55
I00
sg56
I00
sg57
Vhttp://pbs.twimg.com/profile_background_images/453909347995631617/qUkGbbcz.jpeg
p647
sg58
VNASCAR
p648
sg60
I9778
sg61
VNASCAR
p649
sg63
VF7EC73
p650
sg64
Vhttp://t.co/jOopgyLjpS
p651
sg65
I49153854
sg66
V000000
p652
sbsg93
I1091
sg94
V<a href="https://about.twitter.com/products/tweetdeck" rel="nofollow">TweetDeck</a>
p653
sg96
(lp654
sg65
I455174322009542658
sbsg16
Nsg17
(lp655
(dp656
Vsource_user_id
p657
I49153854
sVsource_status_id_str
p658
V455174322009542658
p659
sVexpanded_url
p660
Vhttp://twitter.com/NASCAR/status/455174322009542658/photo/1
p661
sVdisplay_url
p662
Vpic.twitter.com/2HY6kAkIyo
p663
sVurl
p664
Vhttp://t.co/2HY6kAkIyo
p665
sVmedia_url_https
p666
Vhttps://pbs.twimg.com/media/BlEaojwCYAAh6Yf.jpg
p667
sVsource_user_id_str
p668
V49153854
p669
sVsource_status_id
p670
I455174322009542658
sVid_str
p671
V455174321434943488
p672
sVsizes
p673
(dp674
Vlarge
p675
(dp676
Vh
p677
I673
sVresize
p678
Vfit
p679
sVw
p680
I1024
ssVsmall
p681
(dp682
Vh
p683
I223
sVresize
p684
Vfit
p685
sVw
p686
I340
ssVmedium
p687
(dp688
Vh
p689
I394
sVresize
p690
Vfit
p691
sVw
p692
I600
ssVthumb
p693
(dp694
Vh
p695
I150
sVresize
p696
Vcrop
p697
sVw
p698
I150
sssVindices
p699
(lp700
I139
aI140
asVtype
p701
Vphoto
p702
sVid
p703
I455174321434943488
sVmedia_url
p704
Vhttp://pbs.twimg.com/media/BlEaojwCYAAh6Yf.jpg
p705
sasg19
Nsg20
Nsg21
Nsg22
VSun Apr 13 03:19:05 +0000 2014
p706
sg24
Nsg25
I00
sg26
Nsg27
Nsg28
Nsg29
Nsg30
I00
sg31
Nsg32
(lp707
g3
(g34
g5
Ntp708
Rp709
(dp710
g10
Nsg38
Nsg39
Nsg40
Nsg41
Nsg42
Nsg22
Nsg43
Nsg44
Nsg45
Nsg46
Nsg47
Nsg48
Nsg49
Nsg50
Nsg51
Nsg52
Nsg53
Nsg54
Nsg55
Nsg56
Nsg57
Nsg58
VNASCAR
p711
sg60
Nsg61
VNASCAR
p712
sg63
Nsg64
Nsg65
I49153854
sg66
Nsbag3
(g34
g5
Ntp713
Rp714
(dp715
g10
Nsg38
Nsg39
Nsg40
Nsg41
Nsg42
Nsg22
Nsg43
Nsg44
Nsg45
Nsg46
Nsg47
Nsg48
Nsg49
Nsg50
Nsg51
Nsg52
Nsg53
Nsg54
Nsg55
Nsg56
Nsg57
Nsg58
VKevinHarvick
p716
sg60
Nsg61
VKevin Harvick
p717
sg63
Nsg64
Nsg65
I22450947
sg66
Nsbasg67
Nsg68
Nsg69
Nsg70
VRT @NASCAR: Retweet to congratulate @KevinHarvick on his 2nd win of '14. If he finishes in the top 30 in pts, he makes the Chase! http://t.\u2026
p718
sg72
I00
sg73
Ven
p719
sg75
g3
(g34
g5
Ntp720
Rp721
(dp722
g10
g79
sg38
V739E9F
p723
sg39
Ven
p724
sg40
VEastern Time (US & Canada)
p725
sg41
I26
sg42
I281
sg22
VSat Apr 11 22:32:42 +0000 2009
p726
sg43
I00
sg44
g79
sg45
Vhttps://pbs.twimg.com/profile_images/1261843354/16_normal.jpg
p727
sg46
I162
sg47
I8
sg48
I-18000
sg49
Nsg50
I00
sg51
Vhttps://pbs.twimg.com/profile_banners/30540892/1399488363
p728
sg52
I00
sg53
I00
sg54
VB4D9AD
p729
sg55
I01
sg56
I00
sg57
Vhttp://pbs.twimg.com/profile_background_images/212994939/x30f70f89e111fe4a532e1a19a6625a4.jpg
p730
sg58
Vpcnky
p731
sg60
I1
sg61
VSelena
p732
sg63
V3B615D
p733
sg64
Vhttp://t.co/01YkRuJ9YK
p734
sg65
I30540892
sg66
V214542
p735
sbsg93
I1091
sg94
V<a href="http://twitter.com/download/iphone" rel="nofollow">Twitter for iPhone</a>
p736
sg96
(lp737
sg65
I455183363439992832
sbag3
(g4
g5
Ntp738
Rp739
(dp740
g9
I0
sg10
Nsg11
Nsg12
(lp741
g3
(g152
g5
Ntp742
Rp743
(dp744
g156
VBojanglesSo500
p745
sbag3
(g152
g5
Ntp746
Rp747
(dp748
g156
VNASCAR
p749
sbasg14
I00
sg15
Nsg16
Nsg17
(lp750
sg19
Nsg20
Nsg21
Nsg22
VSat Apr 12 22:41:21 +0000 2014
p751
sg24
Nsg25
Nsg26
VNASCAR
p752
sg27
Nsg28
I49153854
sg29
Nsg30
I00
sg31
Nsg32
(lp753
g3
(g34
g5
Ntp754
Rp755
(dp756
g10
Nsg38
Nsg39
Nsg40
Nsg41
Nsg42
Nsg22
Nsg43
Nsg44
Nsg45
Nsg46
Nsg47
Nsg48
Nsg49
Nsg50
Nsg51
Nsg52
Nsg53
Nsg54
Nsg55
Nsg56
Nsg57
Nsg58
VNASCAR
p757
sg60
Nsg61
VNASCAR
p758
sg63
Nsg64
Nsg65
I49153854
sg66
Nsbag3
(g34
g5
Ntp759
Rp760
(dp761
g10
Nsg38
Nsg39
Nsg40
Nsg41
Nsg42
Nsg22
Nsg43
Nsg44
Nsg45
Nsg46
Nsg47
Nsg48
Nsg49
Nsg50
Nsg51
Nsg52
Nsg53
Nsg54
Nsg55
Nsg56
Nsg57
Nsg58
VKevinHarvick
p762
sg60
Nsg61
VKevin Harvick
p763
sg63
Nsg64
Nsg65
I22450947
sg66
Nsbasg67
Nsg68
Nsg69
I455111699490934784
sg70
V\u201c@NASCAR: RT and fill in the blank:\u000a\u000a@KevinHarvick will win the #BojanglesSo500 #NASCAR\u201d
p764
sg72
I00
sg73
Ven
p765
sg75
g3
(g34
g5
Ntp766
Rp767
(dp768
g10
g79
sg38
V739E9F
p769
sg39
Ven
p770
sg40
VEastern Time (US & Canada)
p771
sg41
I26
sg42
I281
sg22
VSat Apr 11 22:32:42 +0000 2009
p772
sg43
I00
sg44
g79
sg45
Vhttps://pbs.twimg.com/profile_images/1261843354/16_normal.jpg
p773
sg46
I162
sg47
I8
sg48
I-18000
sg49
Nsg50
I00
sg51
Vhttps://pbs.twimg.com/profile_banners/30540892/1399488363
p774
sg52
I00
sg53
I00
sg54
VB4D9AD
p775
sg55
I01
sg56
I00
sg57
Vhttp://pbs.twimg.com/profile_background_images/212994939/x30f70f89e111fe4a532e1a19a6625a4.jpg
p776
sg58
Vpcnky
p777
sg60
I1
sg61
VSelena
p778
sg63
V3B615D
p779
sg64
Vhttp://t.co/01YkRuJ9YK
p780
sg65
I30540892
sg66
V214542
p781
sbsg93
I0
sg94
V<a href="http://twitter.com/download/iphone" rel="nofollow">Twitter for iPhone</a>
p782
sg96
(lp783
sg65
I455113471567228928
sbag3
(g4
g5
Ntp784
Rp785
(dp786
g9
I0
sg10
Nsg11
Nsg12
(lp787
g3
(g152
g5
Ntp788
Rp789
(dp790
g156
VLilySugarnCream
p791
sbag3
(g152
g5
Ntp792
Rp793
(dp794
g156
Vyarn
p795
sbasg14
I00
sg15
Nsg16
Nsg17
(lp796
sg19
Nsg20
Nsg21
Nsg22
VThu Apr 03 16:23:00 +0000 2014
p797
sg24
Nsg25
I00
sg26
Nsg27
Nsg28
Nsg29
Nsg30
I00
sg31
Nsg32
(lp798
g3
(g34
g5
Ntp799
Rp800
(dp801
g10
Nsg38
Nsg39
Nsg40
Nsg41
Nsg42
Nsg22
Nsg43
Nsg44
Nsg45
Nsg46
Nsg47
Nsg48
Nsg49
Nsg50
Nsg51
Nsg52
Nsg53
Nsg54
Nsg55
Nsg56
Nsg57
Nsg58
VYarnspirations1
p802
sg60
Nsg61
VYarnspirations
p803
sg63
Nsg64
Nsg65
I1415806926
sg66
Nsbasg67
Nsg68
Nsg69
Nsg70
VI just entered to win the entire #LilySugarnCream #yarn collection from @Yarnspirations1! http://t.co/SSIp8zKN69
p804
sg72
I00
sg73
Ven
p805
sg75
g3
(g34
g5
Ntp806
Rp807
(dp808
g10
g79
sg38
V739E9F
p809
sg39
Ven
p810
sg40
VEastern Time (US & Canada)
p811
sg41
I26
sg42
I281
sg22
VSat Apr 11 22:32:42 +0000 2009
p812
sg43
I00
sg44
g79
sg45
Vhttps://pbs.twimg.com/profile_images/1261843354/16_normal.jpg
p813
sg46
I162
sg47
I8
sg48
I-18000
sg49
Nsg50
I00
sg51
Vhttps://pbs.twimg.com/profile_banners/30540892/1399488363
p814
sg52
I00
sg53
I00
sg54
VB4D9AD
p815
sg55
I01
sg56
I00
sg57
Vhttp://pbs.twimg.com/profile_background_images/212994939/x30f70f89e111fe4a532e1a19a6625a4.jpg
p816
sg58
Vpcnky
p817
sg60
I1
sg61
VSelena
p818
sg63
V3B615D
p819
sg64
Vhttp://t.co/01YkRuJ9YK
p820
sg65
I30540892
sg66
V214542
p821
sbsg93
I0
sg94
V<a href="http://woobox.com" rel="nofollow">Woobox</a>
p822
sg96
(lp823
g3
(g98
g5
Ntp824
Rp825
(dp826
g102
Vhttp://t.co/SSIp8zKN69
p827
sg104
Vhttp://bit.ly/Pafvo2
p828
sbasg65
I451756763310985216
sbag3
(g4
g5
Ntp829
Rp830
(dp831
g9
I0
sg10
Nsg11
Nsg12
(lp832
g3
(g152
g5
Ntp833
Rp834
(dp835
g156
Vinvisiontee
p836
sbasg14
I00
sg15
Nsg16
Nsg17
(lp837
sg19
Nsg20
Nsg21
Nsg22
VTue Apr 01 17:11:33 +0000 2014
p838
sg24
Nsg25
I00
sg26
Nsg27
Nsg28
Nsg29
Nsg30
I00
sg31
Nsg32
(lp839
g3
(g34
g5
Ntp840
Rp841
(dp842
g10
Nsg38
Nsg39
Nsg40
Nsg41
Nsg42
Nsg22
Nsg43
Nsg44
Nsg45
Nsg46
Nsg47
Nsg48
Nsg49
Nsg50
Nsg51
Nsg52
Nsg53
Nsg54
Nsg55
Nsg56
Nsg57
Nsg58
VInVisionApp
p843
sg60
Nsg61
VInVision
p844
sg63
Nsg64
Nsg65
I256093789
sg66
Nsbag3
(g34
g5
Ntp845
Rp846
(dp847
g10
Nsg38
Nsg39
Nsg40
Nsg41
Nsg42
Nsg22
Nsg43
Nsg44
Nsg45
Nsg46
Nsg47
Nsg48
Nsg49
Nsg50
Nsg51
Nsg52
Nsg53
Nsg54
Nsg55
Nsg56
Nsg57
Nsg58
Vkylesteed
p848
sg60
Nsg61
VKyle Steed
p849
sg63
Nsg64
Nsg65
I1572601
sg66
Nsbasg67
Nsg68
Nsg69
Nsg70
V"Design Makes Everything Possible." - @invisionapp Win this cool t-shirt designed by @kylesteed http://t.co/A6ThVgbLP6 #invisiontee
p850
sg72
I00
sg73
Ven
p851
sg75
g3
(g34
g5
Ntp852
Rp853
(dp854
g10
g79
sg38
V739E9F
p855
sg39
Ven
p856
sg40
VEastern Time (US & Canada)
p857
sg41
I26
sg42
I281
sg22
VSat Apr 11 22:32:42 +0000 2009
p858
sg43
I00
sg44
g79
sg45
Vhttps://pbs.twimg.com/profile_images/1261843354/16_normal.jpg
p859
sg46
I162
sg47
I8
sg48
I-18000
sg49
Nsg50
I00
sg51
Vhttps://pbs.twimg.com/profile_banners/30540892/1399488363
p860
sg52
I00
sg53
I00
sg54
VB4D9AD
p861
sg55
I01
sg56
I00
sg57
Vhttp://pbs.twimg.com/profile_background_images/212994939/x30f70f89e111fe4a532e1a19a6625a4.jpg
p862
sg58
Vpcnky
p863
sg60
I1
sg61
VSelena
p864
sg63
V3B615D
p865
sg64
Vhttp://t.co/01YkRuJ9YK
p866
sg65
I30540892
sg66
V214542
p867
sbsg93
I0
sg94
V<a href="https://dev.twitter.com/docs/tfw" rel="nofollow">Twitter for Websites</a>
p868
sg96
(lp869
g3
(g98
g5
Ntp870
Rp871
(dp872
g102
Vhttp://t.co/A6ThVgbLP6
p873
sg104
Vhttp://bit.ly/invisiontee
p874
sbasg65
I451044206966874112
sbag3
(g4
g5
Ntp875
Rp876
(dp877
g9
I0
sg10
Nsg11
Nsg12
(lp878
g3
(g152
g5
Ntp879
Rp880
(dp881
g156
VOneDrive
p882
sbasg14
I00
sg15
Nsg16
Nsg17
(lp883
sg19
Nsg20
Nsg21
Nsg22
VMon Feb 24 14:37:10 +0000 2014
p884
sg24
Nsg25
I00
sg26
Nsg27
Nsg28
Nsg29
Nsg30
I00
sg31
Nsg32
(lp885
sg67
Nsg68
Nsg69
Nsg70
V#OneDrive is here! It's the one place for everything in your life. Sign up and get 7 GB free. https://t.co/rJXmMEzgZe
p886
sg72
I00
sg73
Ven
p887
sg75
g3
(g34
g5
Ntp888
Rp889
(dp890
g10
g79
sg38
V739E9F
p891
sg39
Ven
p892
sg40
VEastern Time (US & Canada)
p893
sg41
I26
sg42
I281
sg22
VSat Apr 11 22:32:42 +0000 2009
p894
sg43
I00
sg44
g79
sg45
Vhttps://pbs.twimg.com/profile_images/1261843354/16_normal.jpg
p895
sg46
I162
sg47
I8
sg48
I-18000
sg49
Nsg50
I00
sg51
Vhttps://pbs.twimg.com/profile_banners/30540892/1399488363
p896
sg52
I00
sg53
I00
sg54
VB4D9AD
p897
sg55
I01
sg56
I00
sg57
Vhttp://pbs.twimg.com/profile_background_images/212994939/x30f70f89e111fe4a532e1a19a6625a4.jpg
p898
sg58
Vpcnky
p899
sg60
I1
sg61
VSelena
p900
sg63
V3B615D
p901
sg64
Vhttp://t.co/01YkRuJ9YK
p902
sg65
I30540892
sg66
V214542
p903
sbsg93
I0
sg94
V<a href="https://dev.twitter.com/docs/tfw" rel="nofollow">Twitter for Websites</a>
p904
sg96
(lp905
g3
(g98
g5
Ntp906
Rp907
(dp908
g102
Vhttps://t.co/rJXmMEzgZe
p909
sg104
Vhttps://onedrive.live.com?invref=f60e6efdff7b2c78&invsrc=91
p910
sbasg65
I437959393053667329
sbag3
(g4
g5
Ntp911
Rp912
(dp913
g9
I0
sg10
Nsg11
Nsg12
(lp914
g3
(g152
g5
Ntp915
Rp916
(dp917
g156
Vinvisiontee
p918
sbasg14
I00
sg15
Nsg16
Nsg17
(lp919
sg19
Nsg20
Nsg21
Nsg22
VTue Feb 18 15:35:58 +0000 2014
p920
sg24
Nsg25
I00
sg26
Nsg27
Nsg28
Nsg29
Nsg30
I00
sg31
Nsg32
(lp921
g3
(g34
g5
Ntp922
Rp923
(dp924
g10
Nsg38
Nsg39
Nsg40
Nsg41
Nsg42
Nsg22
Nsg43
Nsg44
Nsg45
Nsg46
Nsg47
Nsg48
Nsg49
Nsg50
Nsg51
Nsg52
Nsg53
Nsg54
Nsg55
Nsg56
Nsg57
Nsg58
VInVisionApp
p925
sg60
Nsg61
VInVision
p926
sg63
Nsg64
Nsg65
I256093789
sg66
Nsbag3
(g34
g5
Ntp927
Rp928
(dp929
g10
Nsg38
Nsg39
Nsg40
Nsg41
Nsg42
Nsg22
Nsg43
Nsg44
Nsg45
Nsg46
Nsg47
Nsg48
Nsg49
Nsg50
Nsg51
Nsg52
Nsg53
Nsg54
Nsg55
Nsg56
Nsg57
Nsg58
Vkylesteed
p930
sg60
Nsg61
VKyle Steed
p931
sg63
Nsg64
Nsg65
I1572601
sg66
Nsbasg67
Nsg68
Nsg69
Nsg70
V"Design Makes Everything Possible." - @invisionapp Win this cool t-shirt designed by @kylesteed http://t.co/A6ThVgsOR6 #invisiontee
p932
sg72
I00
sg73
Ven
p933
sg75
g3
(g34
g5
Ntp934
Rp935
(dp936
g10
g79
sg38
V739E9F
p937
sg39
Ven
p938
sg40
VEastern Time (US & Canada)
p939
sg41
I26
sg42
I281
sg22
VSat Apr 11 22:32:42 +0000 2009
p940
sg43
I00
sg44
g79
sg45
Vhttps://pbs.twimg.com/profile_images/1261843354/16_normal.jpg
p941
sg46
I162
sg47
I8
sg48
I-18000
sg49
Nsg50
I00
sg51
Vhttps://pbs.twimg.com/profile_banners/30540892/1399488363
p942
sg52
I00
sg53
I00
sg54
VB4D9AD
p943
sg55
I01
sg56
I00
sg57
Vhttp://pbs.twimg.com/profile_background_images/212994939/x30f70f89e111fe4a532e1a19a6625a4.jpg
p944
sg58
Vpcnky
p945
sg60
I1
sg61
VSelena
p946
sg63
V3B615D
p947
sg64
Vhttp://t.co/01YkRuJ9YK
p948
sg65
I30540892
sg66
V214542
p949
sbsg93
I0
sg94
V<a href="https://dev.twitter.com/docs/tfw" rel="nofollow">Twitter for Websites</a>
p950
sg96
(lp951
g3
(g98
g5
Ntp952
Rp953
(dp954
g102
Vhttp://t.co/A6ThVgsOR6
p955
sg104
Vhttp://bit.ly/invisiontee
p956
sbasg65
I435799860382425088
sbag3
(g4
g5
Ntp957
Rp958
(dp959
g9
I0
sg10
Nsg11
Nsg12
(lp960
sg14
I00
sg15
Nsg16
Nsg17
(lp961
sg19
Nsg20
Nsg21
Nsg22
VFri Jan 17 20:32:08 +0000 2014
p962
sg24
Nsg25
Nsg26
VCAPAColumbus
p963
sg27
Nsg28
I29481989
sg29
Nsg30
I00
sg31
Nsg32
(lp964
g3
(g34
g5
Ntp965
Rp966
(dp967
g10
Nsg38
Nsg39
Nsg40
Nsg41
Nsg42
Nsg22
Nsg43
Nsg44
Nsg45
Nsg46
Nsg47
Nsg48
Nsg49
Nsg50
Nsg51
Nsg52
Nsg53
Nsg54
Nsg55
Nsg56
Nsg57
Nsg58
VCAPAColumbus
p968
sg60
Nsg61
VCAPA
p969
sg63
Nsg64
Nsg65
I29481989
sg66
Nsbasg67
Nsg68
Nsg69
I424277849831649280
sg70
V@CAPAColumbus awesome!! Can't wait \U0001f603
p970
sg72
I00
sg73
Ven
p971
sg75
g3
(g34
g5
Ntp972
Rp973
(dp974
g10
g79
sg38
V739E9F
p975
sg39
Ven
p976
sg40
VEastern Time (US & Canada)
p977
sg41
I26
sg42
I281
sg22
VSat Apr 11 22:32:42 +0000 2009
p978
sg43
I00
sg44
g79
sg45
Vhttps://pbs.twimg.com/profile_images/1261843354/16_normal.jpg
p979
sg46
I162
sg47
I8
sg48
I-18000
sg49
Nsg50
I00
sg51
Vhttps://pbs.twimg.com/profile_banners/30540892/1399488363
p980
sg52
I00
sg53
I00
sg54
VB4D9AD
p981
sg55
I01
sg56
I00
sg57
Vhttp://pbs.twimg.com/profile_background_images/212994939/x30f70f89e111fe4a532e1a19a6625a4.jpg
p982
sg58
Vpcnky
p983
sg60
I1
sg61
VSelena
p984
sg63
V3B615D
p985
sg64
Vhttp://t.co/01YkRuJ9YK
p986
sg65
I30540892
sg66
V214542
p987
sbsg93
I0
sg94
V<a href="http://twitter.com/download/iphone" rel="nofollow">Twitter for iPhone</a>
p988
sg96
(lp989
sg65
I424277984686907392
sbag3
(g4
g5
Ntp990
Rp991
(dp992
g9
I0
sg10
Nsg11
Nsg12
(lp993
sg14
I00
sg15
Nsg16
Nsg17
(lp994
sg19
Nsg20
Nsg21
Nsg22
VFri Jan 17 18:03:05 +0000 2014
p995
sg24
Nsg25
Nsg26
VCAPAColumbus
p996
sg27
Nsg28
I29481989
sg29
Nsg30
I00
sg31
Nsg32
(lp997
g3
(g34
g5
Ntp998
Rp999
(dp1000
g10
Nsg38
Nsg39
Nsg40
Nsg41
Nsg42
Nsg22
Nsg43
Nsg44
Nsg45
Nsg46
Nsg47
Nsg48
Nsg49
Nsg50
Nsg51
Nsg52
Nsg53
Nsg54
Nsg55
Nsg56
Nsg57
Nsg58
VCAPAColumbus
p1001
sg60
Nsg61
VCAPA
p1002
sg63
Nsg64
Nsg65
I29481989
sg66
Nsbasg67
Nsg68
Nsg69
I424196775360995328
sg70
V@CAPAColumbus Do you think the show will be cancelled due to the weather?
p1003
sg72
I00
sg73
Ven
p1004
sg75
g3
(g34
g5
Ntp1005
Rp1006
(dp1007
g10
g79
sg38
V739E9F
p1008
sg39
Ven
p1009
sg40
VEastern Time (US & Canada)
p1010
sg41
I26
sg42
I281
sg22
VSat Apr 11 22:32:42 +0000 2009
p1011
sg43
I00
sg44
g79
sg45
Vhttps://pbs.twimg.com/profile_images/1261843354/16_normal.jpg
p1012
sg46
I162
sg47
I8
sg48
I-18000
sg49
Nsg50
I00
sg51
Vhttps://pbs.twimg.com/profile_banners/30540892/1399488363
p1013
sg52
I00
sg53
I00
sg54
VB4D9AD
p1014
sg55
I01
sg56
I00
sg57
Vhttp://pbs.twimg.com/profile_background_images/212994939/x30f70f89e111fe4a532e1a19a6625a4.jpg
p1015
sg58
Vpcnky
p1016
sg60
I1
sg61
VSelena
p1017
sg63
V3B615D
p1018
sg64
Vhttp://t.co/01YkRuJ9YK
p1019
sg65
I30540892
sg66
V214542
p1020
sbsg93
I0
sg94
V<a href="http://twitter.com" rel="nofollow">Twitter Web Client</a>
p1021
sg96
(lp1022
sg65
I424240473713025024
sbag3
(g4
g5
Ntp1023
Rp1024
(dp1025
g9
I0
sg10
Nsg11
Nsg12
(lp1026
sg14
I00
sg15
Nsg16
Nsg17
(lp1027
sg19
Nsg20
Nsg21
Nsg22
VThu Dec 12 14:00:56 +0000 2013
p1028
sg24
Nsg25
I00
sg26
Nsg27
Nsg28
Nsg29
Nsg30
I00
sg31
Nsg32
(lp1029
g3
(g34
g5
Ntp1030
Rp1031
(dp1032
g10
Nsg38
Nsg39
Nsg40
Nsg41
Nsg42
Nsg22
Nsg43
Nsg44
Nsg45
Nsg46
Nsg47
Nsg48
Nsg49
Nsg50
Nsg51
Nsg52
Nsg53
Nsg54
Nsg55
Nsg56
Nsg57
Nsg58
VBingRewards
p1033
sg60
Nsg61
VBing Rewards
p1034
sg63
Nsg64
Nsg65
I197134784
sg66
Nsbasg67
Nsg68
Nsg69
Nsg70
V1 year with @BingRewards, and it couldn't be better! Best results, awesome gifts, quick to earn. Get in on this. http://t.co/859vaCLawu
p1035
sg72
I00
sg73
Ven
p1036
sg75
g3
(g34
g5
Ntp1037
Rp1038
(dp1039
g10
g79
sg38
V739E9F
p1040
sg39
Ven
p1041
sg40
VEastern Time (US & Canada)
p1042
sg41
I26
sg42
I281
sg22
VSat Apr 11 22:32:42 +0000 2009
p1043
sg43
I00
sg44
g79
sg45
Vhttps://pbs.twimg.com/profile_images/1261843354/16_normal.jpg
p1044
sg46
I162
sg47
I8
sg48
I-18000
sg49
Nsg50
I00
sg51
Vhttps://pbs.twimg.com/profile_banners/30540892/1399488363
p1045
sg52
I00
sg53
I00
sg54
VB4D9AD
p1046
sg55
I01
sg56
I00
sg57
Vhttp://pbs.twimg.com/profile_background_images/212994939/x30f70f89e111fe4a532e1a19a6625a4.jpg
p1047
sg58
Vpcnky
p1048
sg60
I1
sg61
VSelena
p1049
sg63
V3B615D
p1050
sg64
Vhttp://t.co/01YkRuJ9YK
p1051
sg65
I30540892
sg66
V214542
p1052
sbsg93
I0
sg94
V<a href="https://dev.twitter.com/docs/tfw" rel="nofollow">Twitter for Websites</a>
p1053
sg96
(lp1054
g3
(g98
g5
Ntp1055
Rp1056
(dp1057
g102
Vhttp://t.co/859vaCLawu
p1058
sg104
Vhttp://binged.it/VJv0nE
p1059
sbasg65
I411133572171325440
sbag3
(g4
g5
Ntp1060
Rp1061
(dp1062
g9
I0
sg10
Nsg11
Nsg12
(lp1063
g3
(g152
g5
Ntp1064
Rp1065
(dp1066
g156
VBingHouseOfHorror
p1067
sbasg14
I00
sg15
Nsg16
Nsg17
(lp1068
sg19
Nsg20
Nsg21
Nsg22
VThu Oct 31 12:33:08 +0000 2013
p1069
sg24
Nsg25
I00
sg26
Nsg27
Nsg28
Nsg29
Nsg30
I00
sg31
Nsg32
(lp1070
sg67
Nsg68
Nsg69
Nsg70
VEnter if you dare. http://t.co/hqL0RKCbPJ #BingHouseOfHorror
p1071
sg72
I00
sg73
Ven
p1072
sg75
g3
(g34
g5
Ntp1073
Rp1074
(dp1075
g10
g79
sg38
V739E9F
p1076
sg39
Ven
p1077
sg40
VEastern Time (US & Canada)
p1078
sg41
I26
sg42
I281
sg22
VSat Apr 11 22:32:42 +0000 2009
p1079
sg43
I00
sg44
g79
sg45
Vhttps://pbs.twimg.com/profile_images/1261843354/16_normal.jpg
p1080
sg46
I162
sg47
I8
sg48
I-18000
sg49
Nsg50
I00
sg51
Vhttps://pbs.twimg.com/profile_banners/30540892/1399488363
p1081
sg52
I00
sg53
I00
sg54
VB4D9AD
p1082
sg55
I01
sg56
I00
sg57
Vhttp://pbs.twimg.com/profile_background_images/212994939/x30f70f89e111fe4a532e1a19a6625a4.jpg
p1083
sg58
Vpcnky
p1084
sg60
I1
sg61
VSelena
p1085
sg63
V3B615D
p1086
sg64
Vhttp://t.co/01YkRuJ9YK
p1087
sg65
I30540892
sg66
V214542
p1088
sbsg93
I0
sg94
V<a href="https://dev.twitter.com/docs/tfw" rel="nofollow">Twitter for Websites</a>
p1089
sg96
(lp1090
g3
(g98
g5
Ntp1091
Rp1092
(dp1093
g102
Vhttp://t.co/hqL0RKCbPJ
p1094
sg104
Vhttp://binged.it/17gt7nC
p1095
sbasg65
I395891186977607680
sbaa.