(lp0
S'NinjaRealtor1'
p1
a(lp2
ccopy_reg
_reconstructor
p3
(ctwitter
Status
p4
c__builtin__
object
p5
Ntp6
Rp7
(dp8
S'_favorite_count'
p9
I0
sS'_location'
p10
NsS'_withheld_scope'
p11
NsS'hashtags'
p12
(lp13
sS'_truncated'
p14
I00
sS'_retweeted_status'
p15
NsS'_withheld_copyright'
p16
NsS'media'
p17
(lp18
sS'_place'
p19
NsS'_contributors'
p20
NsS'_current_user_retweet'
p21
NsS'_created_at'
p22
VSun Dec 14 20:04:09 +0000 2014
p23
sS'_scopes'
p24
NsS'_possibly_sensitive'
p25
I00
sS'_in_reply_to_screen_name'
p26
NsS'_coordinates'
p27
NsS'_in_reply_to_user_id'
p28
NsS'_geo'
p29
NsS'_favorited'
p30
I00
sS'_withheld_in_countries'
p31
NsS'user_mentions'
p32
(lp33
sS'_now'
p34
NsS'_id_str'
p35
V544221326014427136
p36
sS'_in_reply_to_status_id'
p37
NsS'_text'
p38
VGET A FREE LIST OF BANK OWNED HOMES NOW! http://t.co/DqWnjZLy6V
p39
sS'_retweeted'
p40
I00
sS'lang'
p41
Ven
p42
sS'_user'
p43
g3
(ctwitter
User
p44
g5
Ntp45
Rp46
(dp47
g10
VMissouri
p48
sS'_profile_text_color'
p49
V5E412F
p50
sS'_lang'
p51
Ven
p52
sS'_time_zone'
p53
VCentral Time (US & Canada)
p54
sS'_followers_count'
p55
I452
sS'_statuses_count'
p56
I821
sg22
VThu Mar 26 02:49:08 +0000 2009
p57
sS'_verified'
p58
I00
sS'_description'
p59
VYOUR REALTOR FOR LIFE!
p60
sS'_profile_image_url'
p61
Vhttps://pbs.twimg.com/profile_images/501759529306959872/LF3kNyYE_normal.jpeg
p62
sS'_friends_count'
p63
I656
sS'_favourites_count'
p64
I2
sS'_utc_offset'
p65
I-21600
sS'_status'
p66
NsS'_protected'
p67
I00
sS'_profile_banner_url'
p68
Vhttps://pbs.twimg.com/profile_banners/26670961/1356980187
p69
sS'_notifications'
p70
I00
sS'_profile_background_tile'
p71
I01
sS'_profile_link_color'
p72
VCE7734
p73
sS'_geo_enabled'
p74
I00
sS'_contributors_enabled'
p75
I00
sS'_profile_background_image_url'
p76
Vhttp://pbs.twimg.com/profile_background_images/655824261/x44519636f7df4a920b9929a76726d8e.png
p77
sS'_screen_name'
p78
VNinjaRealtor1
p79
sS'_listed_count'
p80
I7
sS'_name'
p81
VAmanda Alejandro
p82
sS'_profile_sidebar_fill_color'
p83
V78C0A8
p84
sS'_url'
p85
Vhttp://t.co/7nGnxrIxm2
p86
sS'_id'
p87
I26670961
sS'_profile_background_color'
p88
VFCEBB6
p89
sbsS'_retweet_count'
p90
I0
sS'_source'
p91
V<a href="http://www.upsidesocialtoolkit.com" rel="nofollow">Social Network Toolkit</a>
p92
sS'urls'
p93
(lp94
g3
(ctwitter
Url
p95
g5
Ntp96
Rp97
(dp98
S'url'
p99
Vhttp://t.co/DqWnjZLy6V
p100
sS'expanded_url'
p101
Vhttp://soctk.com/2Wh
p102
sbasg87
I544221326014427136
sbag3
(g4
g5
Ntp103
Rp104
(dp105
g9
I0
sg10
Nsg11
Nsg12
(lp106
sg14
I00
sg15
Nsg16
Nsg17
(lp107
sg19
Nsg20
Nsg21
Nsg22
VSun Dec 14 18:17:04 +0000 2014
p108
sg24
Nsg25
I00
sg26
Nsg27
Nsg28
Nsg29
Nsg30
I00
sg31
Nsg32
(lp109
sg34
Nsg35
V544194377586081792
p110
sg37
Nsg38
VWant to know your homes value free CLICK HERE! http://t.co/xDSMIYV0ZT
p111
sg40
I00
sg41
Ven
p112
sg43
g3
(g44
g5
Ntp113
Rp114
(dp115
g10
VMissouri
p116
sg49
V5E412F
p117
sg51
Ven
p118
sg53
VCentral Time (US & Canada)
p119
sg55
I452
sg56
I821
sg22
VThu Mar 26 02:49:08 +0000 2009
p120
sg58
I00
sg59
VYOUR REALTOR FOR LIFE!
p121
sg61
Vhttps://pbs.twimg.com/profile_images/501759529306959872/LF3kNyYE_normal.jpeg
p122
sg63
I656
sg64
I2
sg65
I-21600
sg66
Nsg67
I00
sg68
Vhttps://pbs.twimg.com/profile_banners/26670961/1356980187
p123
sg70
I00
sg71
I01
sg72
VCE7734
p124
sg74
I00
sg75
I00
sg76
Vhttp://pbs.twimg.com/profile_background_images/655824261/x44519636f7df4a920b9929a76726d8e.png
p125
sg78
VNinjaRealtor1
p126
sg80
I7
sg81
VAmanda Alejandro
p127
sg83
V78C0A8
p128
sg85
Vhttp://t.co/7nGnxrIxm2
p129
sg87
I26670961
sg88
VFCEBB6
p130
sbsg90
I0
sg91
V<a href="http://www.upsidesocialtoolkit.com" rel="nofollow">Social Network Toolkit</a>
p131
sg93
(lp132
g3
(g95
g5
Ntp133
Rp134
(dp135
g99
Vhttp://t.co/xDSMIYV0ZT
p136
sg101
Vhttp://soctk.com/2VZ
p137
sbasg87
I544194377586081792
sbag3
(g4
g5
Ntp138
Rp139
(dp140
g9
I0
sg10
Nsg11
Nsg12
(lp141
sg14
I00
sg15
Nsg16
Nsg17
(lp142
sg19
Nsg20
Nsg21
Nsg22
VSat Dec 13 18:44:18 +0000 2014
p143
sg24
Nsg25
I00
sg26
Nsg27
Nsg28
Nsg29
Nsg30
I00
sg31
Nsg32
(lp144
sg34
Nsg35
V543838842051379200
p145
sg37
Nsg38
VWant to know what your home is worth FREE CLICK HERE! http://t.co/do7E6GLIoG
p146
sg40
I00
sg41
Ven
p147
sg43
g3
(g44
g5
Ntp148
Rp149
(dp150
g10
VMissouri
p151
sg49
V5E412F
p152
sg51
Ven
p153
sg53
VCentral Time (US & Canada)
p154
sg55
I452
sg56
I821
sg22
VThu Mar 26 02:49:08 +0000 2009
p155
sg58
I00
sg59
VYOUR REALTOR FOR LIFE!
p156
sg61
Vhttps://pbs.twimg.com/profile_images/501759529306959872/LF3kNyYE_normal.jpeg
p157
sg63
I656
sg64
I2
sg65
I-21600
sg66
Nsg67
I00
sg68
Vhttps://pbs.twimg.com/profile_banners/26670961/1356980187
p158
sg70
I00
sg71
I01
sg72
VCE7734
p159
sg74
I00
sg75
I00
sg76
Vhttp://pbs.twimg.com/profile_background_images/655824261/x44519636f7df4a920b9929a76726d8e.png
p160
sg78
VNinjaRealtor1
p161
sg80
I7
sg81
VAmanda Alejandro
p162
sg83
V78C0A8
p163
sg85
Vhttp://t.co/7nGnxrIxm2
p164
sg87
I26670961
sg88
VFCEBB6
p165
sbsg90
I0
sg91
V<a href="http://www.upsidesocialtoolkit.com" rel="nofollow">Social Network Toolkit</a>
p166
sg93
(lp167
g3
(g95
g5
Ntp168
Rp169
(dp170
g99
Vhttp://t.co/do7E6GLIoG
p171
sg101
Vhttp://soctk.com/2Vy
p172
sbasg87
I543838842051379200
sbag3
(g4
g5
Ntp173
Rp174
(dp175
g9
I0
sg10
Nsg11
Nsg12
(lp176
sg14
I00
sg15
Nsg16
Nsg17
(lp177
sg19
Nsg20
Nsg21
Nsg22
VFri Dec 12 20:03:17 +0000 2014
p178
sg24
Nsg25
I00
sg26
Nsg27
Nsg28
Nsg29
Nsg30
I00
sg31
Nsg32
(lp179
sg34
Nsg35
V543496330401021954
p180
sg37
Nsg38
VGET A FREE LIST OF BANK OWNED HOMES NOW! http://t.co/DqWnjZLy6V
p181
sg40
I00
sg41
Ven
p182
sg43
g3
(g44
g5
Ntp183
Rp184
(dp185
g10
VMissouri
p186
sg49
V5E412F
p187
sg51
Ven
p188
sg53
VCentral Time (US & Canada)
p189
sg55
I452
sg56
I821
sg22
VThu Mar 26 02:49:08 +0000 2009
p190
sg58
I00
sg59
VYOUR REALTOR FOR LIFE!
p191
sg61
Vhttps://pbs.twimg.com/profile_images/501759529306959872/LF3kNyYE_normal.jpeg
p192
sg63
I656
sg64
I2
sg65
I-21600
sg66
Nsg67
I00
sg68
Vhttps://pbs.twimg.com/profile_banners/26670961/1356980187
p193
sg70
I00
sg71
I01
sg72
VCE7734
p194
sg74
I00
sg75
I00
sg76
Vhttp://pbs.twimg.com/profile_background_images/655824261/x44519636f7df4a920b9929a76726d8e.png
p195
sg78
VNinjaRealtor1
p196
sg80
I7
sg81
VAmanda Alejandro
p197
sg83
V78C0A8
p198
sg85
Vhttp://t.co/7nGnxrIxm2
p199
sg87
I26670961
sg88
VFCEBB6
p200
sbsg90
I0
sg91
V<a href="http://www.upsidesocialtoolkit.com" rel="nofollow">Social Network Toolkit</a>
p201
sg93
(lp202
g3
(g95
g5
Ntp203
Rp204
(dp205
g99
Vhttp://t.co/DqWnjZLy6V
p206
sg101
Vhttp://soctk.com/2Wh
p207
sbasg87
I543496330401021954
sbag3
(g4
g5
Ntp208
Rp209
(dp210
g9
I0
sg10
Nsg11
Nsg12
(lp211
sg14
I00
sg15
Nsg16
Nsg17
(lp212
sg19
Nsg20
Nsg21
Nsg22
VFri Dec 12 18:20:03 +0000 2014
p213
sg24
Nsg25
I00
sg26
Nsg27
Nsg28
Nsg29
Nsg30
I00
sg31
Nsg32
(lp214
sg34
Nsg35
V543470350827552768
p215
sg37
Nsg38
VWant to know your homes value free CLICK HERE! http://t.co/xDSMIYV0ZT
p216
sg40
I00
sg41
Ven
p217
sg43
g3
(g44
g5
Ntp218
Rp219
(dp220
g10
VMissouri
p221
sg49
V5E412F
p222
sg51
Ven
p223
sg53
VCentral Time (US & Canada)
p224
sg55
I452
sg56
I821
sg22
VThu Mar 26 02:49:08 +0000 2009
p225
sg58
I00
sg59
VYOUR REALTOR FOR LIFE!
p226
sg61
Vhttps://pbs.twimg.com/profile_images/501759529306959872/LF3kNyYE_normal.jpeg
p227
sg63
I656
sg64
I2
sg65
I-21600
sg66
Nsg67
I00
sg68
Vhttps://pbs.twimg.com/profile_banners/26670961/1356980187
p228
sg70
I00
sg71
I01
sg72
VCE7734
p229
sg74
I00
sg75
I00
sg76
Vhttp://pbs.twimg.com/profile_background_images/655824261/x44519636f7df4a920b9929a76726d8e.png
p230
sg78
VNinjaRealtor1
p231
sg80
I7
sg81
VAmanda Alejandro
p232
sg83
V78C0A8
p233
sg85
Vhttp://t.co/7nGnxrIxm2
p234
sg87
I26670961
sg88
VFCEBB6
p235
sbsg90
I0
sg91
V<a href="http://www.upsidesocialtoolkit.com" rel="nofollow">Social Network Toolkit</a>
p236
sg93
(lp237
g3
(g95
g5
Ntp238
Rp239
(dp240
g99
Vhttp://t.co/xDSMIYV0ZT
p241
sg101
Vhttp://soctk.com/2VZ
p242
sbasg87
I543470350827552768
sbag3
(g4
g5
Ntp243
Rp244
(dp245
g9
I0
sg10
Nsg11
Nsg12
(lp246
sg14
I00
sg15
Nsg16
Nsg17
(lp247
sg19
Nsg20
Nsg21
Nsg22
VThu Dec 11 20:06:05 +0000 2014
p248
sg24
Nsg25
I00
sg26
Nsg27
Nsg28
Nsg29
Nsg30
I00
sg31
Nsg32
(lp249
sg34
Nsg35
V543134645932797952
p250
sg37
Nsg38
VGET A FREE LIST OF BANK OWNED HOMES NOW! http://t.co/DqWnjZLy6V
p251
sg40
I00
sg41
Ven
p252
sg43
g3
(g44
g5
Ntp253
Rp254
(dp255
g10
VMissouri
p256
sg49
V5E412F
p257
sg51
Ven
p258
sg53
VCentral Time (US & Canada)
p259
sg55
I452
sg56
I821
sg22
VThu Mar 26 02:49:08 +0000 2009
p260
sg58
I00
sg59
VYOUR REALTOR FOR LIFE!
p261
sg61
Vhttps://pbs.twimg.com/profile_images/501759529306959872/LF3kNyYE_normal.jpeg
p262
sg63
I656
sg64
I2
sg65
I-21600
sg66
Nsg67
I00
sg68
Vhttps://pbs.twimg.com/profile_banners/26670961/1356980187
p263
sg70
I00
sg71
I01
sg72
VCE7734
p264
sg74
I00
sg75
I00
sg76
Vhttp://pbs.twimg.com/profile_background_images/655824261/x44519636f7df4a920b9929a76726d8e.png
p265
sg78
VNinjaRealtor1
p266
sg80
I7
sg81
VAmanda Alejandro
p267
sg83
V78C0A8
p268
sg85
Vhttp://t.co/7nGnxrIxm2
p269
sg87
I26670961
sg88
VFCEBB6
p270
sbsg90
I0
sg91
V<a href="http://www.upsidesocialtoolkit.com" rel="nofollow">Social Network Toolkit</a>
p271
sg93
(lp272
g3
(g95
g5
Ntp273
Rp274
(dp275
g99
Vhttp://t.co/DqWnjZLy6V
p276
sg101
Vhttp://soctk.com/2Wh
p277
sbasg87
I543134645932797952
sbag3
(g4
g5
Ntp278
Rp279
(dp280
g9
I0
sg10
Nsg11
Nsg12
(lp281
sg14
I00
sg15
Nsg16
Nsg17
(lp282
sg19
Nsg20
Nsg21
Nsg22
VThu Dec 11 18:42:11 +0000 2014
p283
sg24
Nsg25
I00
sg26
Nsg27
Nsg28
Nsg29
Nsg30
I00
sg31
Nsg32
(lp284
sg34
Nsg35
V543113534629236736
p285
sg37
Nsg38
VWant to know what your home is worth FREE CLICK HERE! http://t.co/do7E6GLIoG
p286
sg40
I00
sg41
Ven
p287
sg43
g3
(g44
g5
Ntp288
Rp289
(dp290
g10
VMissouri
p291
sg49
V5E412F
p292
sg51
Ven
p293
sg53
VCentral Time (US & Canada)
p294
sg55
I452
sg56
I821
sg22
VThu Mar 26 02:49:08 +0000 2009
p295
sg58
I00
sg59
VYOUR REALTOR FOR LIFE!
p296
sg61
Vhttps://pbs.twimg.com/profile_images/501759529306959872/LF3kNyYE_normal.jpeg
p297
sg63
I656
sg64
I2
sg65
I-21600
sg66
Nsg67
I00
sg68
Vhttps://pbs.twimg.com/profile_banners/26670961/1356980187
p298
sg70
I00
sg71
I01
sg72
VCE7734
p299
sg74
I00
sg75
I00
sg76
Vhttp://pbs.twimg.com/profile_background_images/655824261/x44519636f7df4a920b9929a76726d8e.png
p300
sg78
VNinjaRealtor1
p301
sg80
I7
sg81
VAmanda Alejandro
p302
sg83
V78C0A8
p303
sg85
Vhttp://t.co/7nGnxrIxm2
p304
sg87
I26670961
sg88
VFCEBB6
p305
sbsg90
I0
sg91
V<a href="http://www.upsidesocialtoolkit.com" rel="nofollow">Social Network Toolkit</a>
p306
sg93
(lp307
g3
(g95
g5
Ntp308
Rp309
(dp310
g99
Vhttp://t.co/do7E6GLIoG
p311
sg101
Vhttp://soctk.com/2Vy
p312
sbasg87
I543113534629236736
sbag3
(g4
g5
Ntp313
Rp314
(dp315
g9
I0
sg10
Nsg11
Nsg12
(lp316
sg14
I00
sg15
Nsg16
Nsg17
(lp317
sg19
Nsg20
Nsg21
Nsg22
VThu Dec 11 17:19:02 +0000 2014
p318
sg24
Nsg25
I00
sg26
Nsg27
Nsg28
Nsg29
Nsg30
I00
sg31
Nsg32
(lp319
sg34
Nsg35
V543092609741512704
p320
sg37
Nsg38
Vhttp://t.co/491H0aMZtt http://t.co/WasMjwty23
p321
sg40
I00
sg41
Vund
p322
sg43
g3
(g44
g5
Ntp323
Rp324
(dp325
g10
VMissouri
p326
sg49
V5E412F
p327
sg51
Ven
p328
sg53
VCentral Time (US & Canada)
p329
sg55
I452
sg56
I821
sg22
VThu Mar 26 02:49:08 +0000 2009
p330
sg58
I00
sg59
VYOUR REALTOR FOR LIFE!
p331
sg61
Vhttps://pbs.twimg.com/profile_images/501759529306959872/LF3kNyYE_normal.jpeg
p332
sg63
I656
sg64
I2
sg65
I-21600
sg66
Nsg67
I00
sg68
Vhttps://pbs.twimg.com/profile_banners/26670961/1356980187
p333
sg70
I00
sg71
I01
sg72
VCE7734
p334
sg74
I00
sg75
I00
sg76
Vhttp://pbs.twimg.com/profile_background_images/655824261/x44519636f7df4a920b9929a76726d8e.png
p335
sg78
VNinjaRealtor1
p336
sg80
I7
sg81
VAmanda Alejandro
p337
sg83
V78C0A8
p338
sg85
Vhttp://t.co/7nGnxrIxm2
p339
sg87
I26670961
sg88
VFCEBB6
p340
sbsg90
I0
sg91
V<a href="http://www.facebook.com/twitter" rel="nofollow">Facebook</a>
p341
sg93
(lp342
g3
(g95
g5
Ntp343
Rp344
(dp345
g99
Vhttp://t.co/491H0aMZtt
p346
sg101
Vhttp://www.searchallproperties.com/listings/2000787/7024-ST.-LOUIS-MISSOURI
p347
sbag3
(g95
g5
Ntp348
Rp349
(dp350
g99
Vhttp://t.co/WasMjwty23
p351
sg101
Vhttp://fb.me/1No67tJK5
p352
sbasg87
I543092609741512704
sbag3
(g4
g5
Ntp353
Rp354
(dp355
g9
I0
sg10
Nsg11
Nsg12
(lp356
sg14
I00
sg15
Nsg16
Nsg17
(lp357
sg19
Nsg20
Nsg21
Nsg22
VWed Dec 10 20:11:03 +0000 2014
p358
sg24
Nsg25
I00
sg26
Nsg27
Nsg28
Nsg29
Nsg30
I00
sg31
Nsg32
(lp359
sg34
Nsg35
V542773508456316929
p360
sg37
Nsg38
VWant to know your homes value free CLICK HERE! http://t.co/xDSMIYV0ZT
p361
sg40
I00
sg41
Ven
p362
sg43
g3
(g44
g5
Ntp363
Rp364
(dp365
g10
VMissouri
p366
sg49
V5E412F
p367
sg51
Ven
p368
sg53
VCentral Time (US & Canada)
p369
sg55
I452
sg56
I821
sg22
VThu Mar 26 02:49:08 +0000 2009
p370
sg58
I00
sg59
VYOUR REALTOR FOR LIFE!
p371
sg61
Vhttps://pbs.twimg.com/profile_images/501759529306959872/LF3kNyYE_normal.jpeg
p372
sg63
I656
sg64
I2
sg65
I-21600
sg66
Nsg67
I00
sg68
Vhttps://pbs.twimg.com/profile_banners/26670961/1356980187
p373
sg70
I00
sg71
I01
sg72
VCE7734
p374
sg74
I00
sg75
I00
sg76
Vhttp://pbs.twimg.com/profile_background_images/655824261/x44519636f7df4a920b9929a76726d8e.png
p375
sg78
VNinjaRealtor1
p376
sg80
I7
sg81
VAmanda Alejandro
p377
sg83
V78C0A8
p378
sg85
Vhttp://t.co/7nGnxrIxm2
p379
sg87
I26670961
sg88
VFCEBB6
p380
sbsg90
I0
sg91
V<a href="http://www.upsidesocialtoolkit.com" rel="nofollow">Social Network Toolkit</a>
p381
sg93
(lp382
g3
(g95
g5
Ntp383
Rp384
(dp385
g99
Vhttp://t.co/xDSMIYV0ZT
p386
sg101
Vhttp://soctk.com/2VZ
p387
sbasg87
I542773508456316929
sbag3
(g4
g5
Ntp388
Rp389
(dp390
g9
I0
sg10
Nsg11
Nsg12
(lp391
sg14
I00
sg15
Nsg16
Nsg17
(lp392
sg19
Nsg20
Nsg21
Nsg22
VTue Dec 09 21:52:05 +0000 2014
p393
sg24
Nsg25
I00
sg26
Nsg27
Nsg28
Nsg29
Nsg30
I00
sg31
Nsg32
(lp394
sg34
Nsg35
V542436546918363136
p395
sg37
Nsg38
VGET A FREE LIST OF BANK OWNED HOMES NOW! http://t.co/qXo5UJD7Uy
p396
sg40
I00
sg41
Ven
p397
sg43
g3
(g44
g5
Ntp398
Rp399
(dp400
g10
VMissouri
p401
sg49
V5E412F
p402
sg51
Ven
p403
sg53
VCentral Time (US & Canada)
p404
sg55
I452
sg56
I821
sg22
VThu Mar 26 02:49:08 +0000 2009
p405
sg58
I00
sg59
VYOUR REALTOR FOR LIFE!
p406
sg61
Vhttps://pbs.twimg.com/profile_images/501759529306959872/LF3kNyYE_normal.jpeg
p407
sg63
I656
sg64
I2
sg65
I-21600
sg66
Nsg67
I00
sg68
Vhttps://pbs.twimg.com/profile_banners/26670961/1356980187
p408
sg70
I00
sg71
I01
sg72
VCE7734
p409
sg74
I00
sg75
I00
sg76
Vhttp://pbs.twimg.com/profile_background_images/655824261/x44519636f7df4a920b9929a76726d8e.png
p410
sg78
VNinjaRealtor1
p411
sg80
I7
sg81
VAmanda Alejandro
p412
sg83
V78C0A8
p413
sg85
Vhttp://t.co/7nGnxrIxm2
p414
sg87
I26670961
sg88
VFCEBB6
p415
sbsg90
I0
sg91
V<a href="http://www.upsidesocialtoolkit.com" rel="nofollow">Social Network Toolkit</a>
p416
sg93
(lp417
g3
(g95
g5
Ntp418
Rp419
(dp420
g99
Vhttp://t.co/qXo5UJD7Uy
p421
sg101
Vhttp://soctk.com/2Wh
p422
sbasg87
I542436546918363136
sbag3
(g4
g5
Ntp423
Rp424
(dp425
g9
I0
sg10
Nsg11
Nsg12
(lp426
sg14
I00
sg15
Nsg16
Nsg17
(lp427
sg19
Nsg20
Nsg21
Nsg22
VTue Dec 09 20:28:12 +0000 2014
p428
sg24
Nsg25
I00
sg26
Nsg27
Nsg28
Nsg29
Nsg30
I00
sg31
Nsg32
(lp429
sg34
Nsg35
V542415439150596096
p430
sg37
Nsg38
VWant to know what your home is worth FREE CLICK HERE! http://t.co/7K4Us1elnJ
p431
sg40
I00
sg41
Ven
p432
sg43
g3
(g44
g5
Ntp433
Rp434
(dp435
g10
VMissouri
p436
sg49
V5E412F
p437
sg51
Ven
p438
sg53
VCentral Time (US & Canada)
p439
sg55
I452
sg56
I821
sg22
VThu Mar 26 02:49:08 +0000 2009
p440
sg58
I00
sg59
VYOUR REALTOR FOR LIFE!
p441
sg61
Vhttps://pbs.twimg.com/profile_images/501759529306959872/LF3kNyYE_normal.jpeg
p442
sg63
I656
sg64
I2
sg65
I-21600
sg66
Nsg67
I00
sg68
Vhttps://pbs.twimg.com/profile_banners/26670961/1356980187
p443
sg70
I00
sg71
I01
sg72
VCE7734
p444
sg74
I00
sg75
I00
sg76
Vhttp://pbs.twimg.com/profile_background_images/655824261/x44519636f7df4a920b9929a76726d8e.png
p445
sg78
VNinjaRealtor1
p446
sg80
I7
sg81
VAmanda Alejandro
p447
sg83
V78C0A8
p448
sg85
Vhttp://t.co/7nGnxrIxm2
p449
sg87
I26670961
sg88
VFCEBB6
p450
sbsg90
I0
sg91
V<a href="http://www.upsidesocialtoolkit.com" rel="nofollow">Social Network Toolkit</a>
p451
sg93
(lp452
g3
(g95
g5
Ntp453
Rp454
(dp455
g99
Vhttp://t.co/7K4Us1elnJ
p456
sg101
Vhttp://soctk.com/2Vy
p457
sbasg87
I542415439150596096
sbag3
(g4
g5
Ntp458
Rp459
(dp460
g9
I0
sg10
Nsg11
Nsg12
(lp461
sg14
I00
sg15
Nsg16
Nsg17
(lp462
sg19
Nsg20
Nsg21
Nsg22
VMon Dec 08 20:10:40 +0000 2014
p463
sg24
Nsg25
I00
sg26
Nsg27
Nsg28
Nsg29
Nsg30
I00
sg31
Nsg32
(lp464
sg34
Nsg35
V542048638701408256
p465
sg37
Nsg38
VWant to know your homes value free CLICK HERE! http://t.co/xDSMIYV0ZT
p466
sg40
I00
sg41
Ven
p467
sg43
g3
(g44
g5
Ntp468
Rp469
(dp470
g10
VMissouri
p471
sg49
V5E412F
p472
sg51
Ven
p473
sg53
VCentral Time (US & Canada)
p474
sg55
I452
sg56
I821
sg22
VThu Mar 26 02:49:08 +0000 2009
p475
sg58
I00
sg59
VYOUR REALTOR FOR LIFE!
p476
sg61
Vhttps://pbs.twimg.com/profile_images/501759529306959872/LF3kNyYE_normal.jpeg
p477
sg63
I656
sg64
I2
sg65
I-21600
sg66
Nsg67
I00
sg68
Vhttps://pbs.twimg.com/profile_banners/26670961/1356980187
p478
sg70
I00
sg71
I01
sg72
VCE7734
p479
sg74
I00
sg75
I00
sg76
Vhttp://pbs.twimg.com/profile_background_images/655824261/x44519636f7df4a920b9929a76726d8e.png
p480
sg78
VNinjaRealtor1
p481
sg80
I7
sg81
VAmanda Alejandro
p482
sg83
V78C0A8
p483
sg85
Vhttp://t.co/7nGnxrIxm2
p484
sg87
I26670961
sg88
VFCEBB6
p485
sbsg90
I0
sg91
V<a href="http://www.upsidesocialtoolkit.com" rel="nofollow">Social Network Toolkit</a>
p486
sg93
(lp487
g3
(g95
g5
Ntp488
Rp489
(dp490
g99
Vhttp://t.co/xDSMIYV0ZT
p491
sg101
Vhttp://soctk.com/2VZ
p492
sbasg87
I542048638701408256
sbag3
(g4
g5
Ntp493
Rp494
(dp495
g9
I0
sg10
Nsg11
Nsg12
(lp496
sg14
I00
sg15
Nsg16
Nsg17
(lp497
sg19
Nsg20
Nsg21
Nsg22
VSun Dec 07 21:14:05 +0000 2014
p498
sg24
Nsg25
I00
sg26
Nsg27
Nsg28
Nsg29
Nsg30
I00
sg31
Nsg32
(lp499
sg34
Nsg35
V541702206878416896
p500
sg37
Nsg38
VGET A FREE LIST OF BANK OWNED HOMES NOW! http://t.co/DqWnjZLy6V
p501
sg40
I00
sg41
Ven
p502
sg43
g3
(g44
g5
Ntp503
Rp504
(dp505
g10
VMissouri
p506
sg49
V5E412F
p507
sg51
Ven
p508
sg53
VCentral Time (US & Canada)
p509
sg55
I452
sg56
I821
sg22
VThu Mar 26 02:49:08 +0000 2009
p510
sg58
I00
sg59
VYOUR REALTOR FOR LIFE!
p511
sg61
Vhttps://pbs.twimg.com/profile_images/501759529306959872/LF3kNyYE_normal.jpeg
p512
sg63
I656
sg64
I2
sg65
I-21600
sg66
Nsg67
I00
sg68
Vhttps://pbs.twimg.com/profile_banners/26670961/1356980187
p513
sg70
I00
sg71
I01
sg72
VCE7734
p514
sg74
I00
sg75
I00
sg76
Vhttp://pbs.twimg.com/profile_background_images/655824261/x44519636f7df4a920b9929a76726d8e.png
p515
sg78
VNinjaRealtor1
p516
sg80
I7
sg81
VAmanda Alejandro
p517
sg83
V78C0A8
p518
sg85
Vhttp://t.co/7nGnxrIxm2
p519
sg87
I26670961
sg88
VFCEBB6
p520
sbsg90
I0
sg91
V<a href="http://www.upsidesocialtoolkit.com" rel="nofollow">Social Network Toolkit</a>
p521
sg93
(lp522
g3
(g95
g5
Ntp523
Rp524
(dp525
g99
Vhttp://t.co/DqWnjZLy6V
p526
sg101
Vhttp://soctk.com/2Wh
p527
sbasg87
I541702206878416896
sbag3
(g4
g5
Ntp528
Rp529
(dp530
g9
I0
sg10
Nsg11
Nsg12
(lp531
sg14
I00
sg15
Nsg16
Nsg17
(lp532
sg19
Nsg20
Nsg21
Nsg22
VSun Dec 07 19:32:28 +0000 2014
p533
sg24
Nsg25
I00
sg26
Nsg27
Nsg28
Nsg29
Nsg30
I00
sg31
Nsg32
(lp534
sg34
Nsg35
V541676634039132160
p535
sg37
Nsg38
VWant to know your homes value free CLICK HERE! http://t.co/xDSMIYV0ZT
p536
sg40
I00
sg41
Ven
p537
sg43
g3
(g44
g5
Ntp538
Rp539
(dp540
g10
VMissouri
p541
sg49
V5E412F
p542
sg51
Ven
p543
sg53
VCentral Time (US & Canada)
p544
sg55
I452
sg56
I821
sg22
VThu Mar 26 02:49:08 +0000 2009
p545
sg58
I00
sg59
VYOUR REALTOR FOR LIFE!
p546
sg61
Vhttps://pbs.twimg.com/profile_images/501759529306959872/LF3kNyYE_normal.jpeg
p547
sg63
I656
sg64
I2
sg65
I-21600
sg66
Nsg67
I00
sg68
Vhttps://pbs.twimg.com/profile_banners/26670961/1356980187
p548
sg70
I00
sg71
I01
sg72
VCE7734
p549
sg74
I00
sg75
I00
sg76
Vhttp://pbs.twimg.com/profile_background_images/655824261/x44519636f7df4a920b9929a76726d8e.png
p550
sg78
VNinjaRealtor1
p551
sg80
I7
sg81
VAmanda Alejandro
p552
sg83
V78C0A8
p553
sg85
Vhttp://t.co/7nGnxrIxm2
p554
sg87
I26670961
sg88
VFCEBB6
p555
sbsg90
I0
sg91
V<a href="http://www.upsidesocialtoolkit.com" rel="nofollow">Social Network Toolkit</a>
p556
sg93
(lp557
g3
(g95
g5
Ntp558
Rp559
(dp560
g99
Vhttp://t.co/xDSMIYV0ZT
p561
sg101
Vhttp://soctk.com/2VZ
p562
sbasg87
I541676634039132160
sbag3
(g4
g5
Ntp563
Rp564
(dp565
g9
I0
sg10
Nsg11
Nsg12
(lp566
sg14
I00
sg15
Nsg16
Nsg17
(lp567
sg19
Nsg20
Nsg21
Nsg22
VSat Dec 06 22:47:24 +0000 2014
p568
sg24
Nsg25
Nsg26
Nsg27
Nsg28
Nsg29
Nsg30
I00
sg31
Nsg32
(lp569
sg34
Nsg35
V541363304497569792
p570
sg37
Nsg38
VYes I am are you looking at my biz pic
p571
sg40
I00
sg41
Ven
p572
sg43
g3
(g44
g5
Ntp573
Rp574
(dp575
g10
VMissouri
p576
sg49
V5E412F
p577
sg51
Ven
p578
sg53
VCentral Time (US & Canada)
p579
sg55
I452
sg56
I821
sg22
VThu Mar 26 02:49:08 +0000 2009
p580
sg58
I00
sg59
VYOUR REALTOR FOR LIFE!
p581
sg61
Vhttps://pbs.twimg.com/profile_images/501759529306959872/LF3kNyYE_normal.jpeg
p582
sg63
I656
sg64
I2
sg65
I-21600
sg66
Nsg67
I00
sg68
Vhttps://pbs.twimg.com/profile_banners/26670961/1356980187
p583
sg70
I00
sg71
I01
sg72
VCE7734
p584
sg74
I00
sg75
I00
sg76
Vhttp://pbs.twimg.com/profile_background_images/655824261/x44519636f7df4a920b9929a76726d8e.png
p585
sg78
VNinjaRealtor1
p586
sg80
I7
sg81
VAmanda Alejandro
p587
sg83
V78C0A8
p588
sg85
Vhttp://t.co/7nGnxrIxm2
p589
sg87
I26670961
sg88
VFCEBB6
p590
sbsg90
I0
sg91
V<a href="http://www.cloudhopper.com/" rel="nofollow">Cloudhopper</a>
p591
sg93
(lp592
sg87
I541363304497569792
sbag3
(g4
g5
Ntp593
Rp594
(dp595
g9
I0
sg10
Nsg11
Nsg12
(lp596
sg14
I00
sg15
Nsg16
Nsg17
(lp597
sg19
Nsg20
Nsg21
Nsg22
VSat Dec 06 19:44:21 +0000 2014
p598
sg24
Nsg25
I00
sg26
Nsg27
Nsg28
Nsg29
Nsg30
I00
sg31
Nsg32
(lp599
sg34
Nsg35
V541317236531953664
p600
sg37
Nsg38
VWant to know what your home is worth FREE CLICK HERE! http://t.co/do7E6GLIoG
p601
sg40
I00
sg41
Ven
p602
sg43
g3
(g44
g5
Ntp603
Rp604
(dp605
g10
VMissouri
p606
sg49
V5E412F
p607
sg51
Ven
p608
sg53
VCentral Time (US & Canada)
p609
sg55
I452
sg56
I821
sg22
VThu Mar 26 02:49:08 +0000 2009
p610
sg58
I00
sg59
VYOUR REALTOR FOR LIFE!
p611
sg61
Vhttps://pbs.twimg.com/profile_images/501759529306959872/LF3kNyYE_normal.jpeg
p612
sg63
I656
sg64
I2
sg65
I-21600
sg66
Nsg67
I00
sg68
Vhttps://pbs.twimg.com/profile_banners/26670961/1356980187
p613
sg70
I00
sg71
I01
sg72
VCE7734
p614
sg74
I00
sg75
I00
sg76
Vhttp://pbs.twimg.com/profile_background_images/655824261/x44519636f7df4a920b9929a76726d8e.png
p615
sg78
VNinjaRealtor1
p616
sg80
I7
sg81
VAmanda Alejandro
p617
sg83
V78C0A8
p618
sg85
Vhttp://t.co/7nGnxrIxm2
p619
sg87
I26670961
sg88
VFCEBB6
p620
sbsg90
I0
sg91
V<a href="http://www.upsidesocialtoolkit.com" rel="nofollow">Social Network Toolkit</a>
p621
sg93
(lp622
g3
(g95
g5
Ntp623
Rp624
(dp625
g99
Vhttp://t.co/do7E6GLIoG
p626
sg101
Vhttp://soctk.com/2Vy
p627
sbasg87
I541317236531953664
sbag3
(g4
g5
Ntp628
Rp629
(dp630
g9
I0
sg10
Nsg11
Nsg12
(lp631
sg14
I00
sg15
Nsg16
Nsg17
(lp632
sg19
Nsg20
Nsg21
Nsg22
VSat Dec 06 17:20:31 +0000 2014
p633
sg24
Nsg25
I00
sg26
Nsg27
Nsg28
Nsg29
Nsg30
I00
sg31
Nsg32
(lp634
sg34
Nsg35
V541281042016251905
p635
sg37
Nsg38
VLOOKING TO SELL FOR MORE FREE EVALUATION NO SALES PRESSURE  http://t.co/8SFwB3iSer
p636
sg40
I00
sg41
Ven
p637
sg43
g3
(g44
g5
Ntp638
Rp639
(dp640
g10
VMissouri
p641
sg49
V5E412F
p642
sg51
Ven
p643
sg53
VCentral Time (US & Canada)
p644
sg55
I452
sg56
I821
sg22
VThu Mar 26 02:49:08 +0000 2009
p645
sg58
I00
sg59
VYOUR REALTOR FOR LIFE!
p646
sg61
Vhttps://pbs.twimg.com/profile_images/501759529306959872/LF3kNyYE_normal.jpeg
p647
sg63
I656
sg64
I2
sg65
I-21600
sg66
Nsg67
I00
sg68
Vhttps://pbs.twimg.com/profile_banners/26670961/1356980187
p648
sg70
I00
sg71
I01
sg72
VCE7734
p649
sg74
I00
sg75
I00
sg76
Vhttp://pbs.twimg.com/profile_background_images/655824261/x44519636f7df4a920b9929a76726d8e.png
p650
sg78
VNinjaRealtor1
p651
sg80
I7
sg81
VAmanda Alejandro
p652
sg83
V78C0A8
p653
sg85
Vhttp://t.co/7nGnxrIxm2
p654
sg87
I26670961
sg88
VFCEBB6
p655
sbsg90
I0
sg91
V<a href="http://www.facebook.com/twitter" rel="nofollow">Facebook</a>
p656
sg93
(lp657
g3
(g95
g5
Ntp658
Rp659
(dp660
g99
Vhttp://t.co/8SFwB3iSer
p661
sg101
Vhttp://soctk.com/2X4
p662
sbasg87
I541281042016251905
sbag3
(g4
g5
Ntp663
Rp664
(dp665
g9
I0
sg10
Nsg11
Nsg12
(lp666
sg14
I00
sg15
Nsg16
Nsg17
(lp667
sg19
Nsg20
Nsg21
Nsg22
VSat Dec 06 04:03:03 +0000 2014
p668
sg24
Nsg25
I00
sg26
Nsg27
Nsg28
Nsg29
Nsg30
I00
sg31
Nsg32
(lp669
sg34
Nsg35
V541080354346778625
p670
sg37
Nsg38
VPOOL TWO TIER DECK GREAT ST. LOUIS LOCATION  http://t.co/Yr87o4CVtT
p671
sg40
I00
sg41
Ven
p672
sg43
g3
(g44
g5
Ntp673
Rp674
(dp675
g10
VMissouri
p676
sg49
V5E412F
p677
sg51
Ven
p678
sg53
VCentral Time (US & Canada)
p679
sg55
I452
sg56
I821
sg22
VThu Mar 26 02:49:08 +0000 2009
p680
sg58
I00
sg59
VYOUR REALTOR FOR LIFE!
p681
sg61
Vhttps://pbs.twimg.com/profile_images/501759529306959872/LF3kNyYE_normal.jpeg
p682
sg63
I656
sg64
I2
sg65
I-21600
sg66
Nsg67
I00
sg68
Vhttps://pbs.twimg.com/profile_banners/26670961/1356980187
p683
sg70
I00
sg71
I01
sg72
VCE7734
p684
sg74
I00
sg75
I00
sg76
Vhttp://pbs.twimg.com/profile_background_images/655824261/x44519636f7df4a920b9929a76726d8e.png
p685
sg78
VNinjaRealtor1
p686
sg80
I7
sg81
VAmanda Alejandro
p687
sg83
V78C0A8
p688
sg85
Vhttp://t.co/7nGnxrIxm2
p689
sg87
I26670961
sg88
VFCEBB6
p690
sbsg90
I0
sg91
V<a href="http://www.facebook.com/twitter" rel="nofollow">Facebook</a>
p691
sg93
(lp692
g3
(g95
g5
Ntp693
Rp694
(dp695
g99
Vhttp://t.co/Yr87o4CVtT
p696
sg101
Vhttp://soctk.com/2Xv
p697
sbasg87
I541080354346778625
sbag3
(g4
g5
Ntp698
Rp699
(dp700
g9
I0
sg10
Nsg11
Nsg12
(lp701
sg14
I00
sg15
Nsg16
Nsg17
(lp702
sg19
Nsg20
Nsg21
Nsg22
VSat Dec 06 03:54:33 +0000 2014
p703
sg24
Nsg25
I00
sg26
Nsg27
Nsg28
Nsg29
Nsg30
I00
sg31
Nsg32
(lp704
sg34
Nsg35
V541078213204930560
p705
sg37
Nsg38
VWHY ARE YOU SEARCHING OTHER SITES FOR HOME STILL. 100 percent accurate and free! http://t.co/ocsuvOj7bJ
p706
sg40
I00
sg41
Ven
p707
sg43
g3
(g44
g5
Ntp708
Rp709
(dp710
g10
VMissouri
p711
sg49
V5E412F
p712
sg51
Ven
p713
sg53
VCentral Time (US & Canada)
p714
sg55
I452
sg56
I821
sg22
VThu Mar 26 02:49:08 +0000 2009
p715
sg58
I00
sg59
VYOUR REALTOR FOR LIFE!
p716
sg61
Vhttps://pbs.twimg.com/profile_images/501759529306959872/LF3kNyYE_normal.jpeg
p717
sg63
I656
sg64
I2
sg65
I-21600
sg66
Nsg67
I00
sg68
Vhttps://pbs.twimg.com/profile_banners/26670961/1356980187
p718
sg70
I00
sg71
I01
sg72
VCE7734
p719
sg74
I00
sg75
I00
sg76
Vhttp://pbs.twimg.com/profile_background_images/655824261/x44519636f7df4a920b9929a76726d8e.png
p720
sg78
VNinjaRealtor1
p721
sg80
I7
sg81
VAmanda Alejandro
p722
sg83
V78C0A8
p723
sg85
Vhttp://t.co/7nGnxrIxm2
p724
sg87
I26670961
sg88
VFCEBB6
p725
sbsg90
I0
sg91
V<a href="http://www.facebook.com/twitter" rel="nofollow">Facebook</a>
p726
sg93
(lp727
g3
(g95
g5
Ntp728
Rp729
(dp730
g99
Vhttp://t.co/ocsuvOj7bJ
p731
sg101
Vhttp://soctk.com/2VU
p732
sbasg87
I541078213204930560
sbag3
(g4
g5
Ntp733
Rp734
(dp735
g9
I0
sg10
Nsg11
Nsg12
(lp736
sg14
I00
sg15
Nsg16
Nsg17
(lp737
sg19
Nsg20
Nsg21
Nsg22
VSat Dec 06 03:45:31 +0000 2014
p738
sg24
Nsg25
I00
sg26
Nsg27
Nsg28
Nsg29
Nsg30
I00
sg31
Nsg32
(lp739
sg34
Nsg35
V541075941351751682
p740
sg37
Nsg38
VSee what our clients are saying... http://t.co/qIknDel2ma
p741
sg40
I00
sg41
Ven
p742
sg43
g3
(g44
g5
Ntp743
Rp744
(dp745
g10
VMissouri
p746
sg49
V5E412F
p747
sg51
Ven
p748
sg53
VCentral Time (US & Canada)
p749
sg55
I452
sg56
I821
sg22
VThu Mar 26 02:49:08 +0000 2009
p750
sg58
I00
sg59
VYOUR REALTOR FOR LIFE!
p751
sg61
Vhttps://pbs.twimg.com/profile_images/501759529306959872/LF3kNyYE_normal.jpeg
p752
sg63
I656
sg64
I2
sg65
I-21600
sg66
Nsg67
I00
sg68
Vhttps://pbs.twimg.com/profile_banners/26670961/1356980187
p753
sg70
I00
sg71
I01
sg72
VCE7734
p754
sg74
I00
sg75
I00
sg76
Vhttp://pbs.twimg.com/profile_background_images/655824261/x44519636f7df4a920b9929a76726d8e.png
p755
sg78
VNinjaRealtor1
p756
sg80
I7
sg81
VAmanda Alejandro
p757
sg83
V78C0A8
p758
sg85
Vhttp://t.co/7nGnxrIxm2
p759
sg87
I26670961
sg88
VFCEBB6
p760
sbsg90
I0
sg91
V<a href="http://www.facebook.com/twitter" rel="nofollow">Facebook</a>
p761
sg93
(lp762
g3
(g95
g5
Ntp763
Rp764
(dp765
g99
Vhttp://t.co/qIknDel2ma
p766
sg101
Vhttp://soctk.com/2Wf
p767
sbasg87
I541075941351751682
sbaa.