(lp0
S'EARTHPlX'
p1
a(lp2
ccopy_reg
_reconstructor
p3
(ctwitter.status
Status
p4
c__builtin__
object
p5
Ntp6
Rp7
(dp8
S'_favorite_count'
p9
I34
sS'_location'
p10
NsS'_withheld_scope'
p11
NsS'hashtags'
p12
(lp13
sS'_truncated'
p14
I00
sS'_retweeted_status'
p15
NsS'_withheld_copyright'
p16
NsS'media'
p17
(lp18
(dp19
Vexpanded_url
p20
Vhttp://twitter.com/EARTHPlX/status/544122327349202944/photo/1
p21
sVdisplay_url
p22
Vpic.twitter.com/08oHqFrNRa
p23
sVurl
p24
Vhttp://t.co/08oHqFrNRa
p25
sVmedia_url_https
p26
Vhttps://pbs.twimg.com/media/B40cX7CCMAAFCTW.jpg
p27
sVid_str
p28
V544122327290490880
p29
sVsizes
p30
(dp31
Vlarge
p32
(dp33
Vh
p34
I300
sVresize
p35
Vfit
p36
sVw
p37
I300
ssVsmall
p38
(dp39
Vh
p40
I300
sVresize
p41
Vfit
p42
sVw
p43
I300
ssVmedium
p44
(dp45
Vh
p46
I300
sVresize
p47
Vfit
p48
sVw
p49
I300
ssVthumb
p50
(dp51
Vh
p52
I150
sVresize
p53
Vcrop
p54
sVw
p55
I150
sssVindices
p56
(lp57
I99
aI121
asVtype
p58
Vphoto
p59
sVid
p60
I544122327290490880
sVmedia_url
p61
Vhttp://pbs.twimg.com/media/B40cX7CCMAAFCTW.jpg
p62
sasS'_place'
p63
NsS'_contributors'
p64
NsS'_current_user_retweet'
p65
NsS'_created_at'
p66
VSun Dec 14 13:30:46 +0000 2014
p67
sS'_scopes'
p68
NsS'_possibly_sensitive'
p69
I00
sS'_in_reply_to_screen_name'
p70
NsS'_coordinates'
p71
NsS'_in_reply_to_user_id'
p72
NsS'_geo'
p73
NsS'_favorited'
p74
I00
sS'_withheld_in_countries'
p75
NsS'user_mentions'
p76
(lp77
sS'_now'
p78
NsS'_id_str'
p79
NsS'_in_reply_to_status_id'
p80
NsS'_text'
p81
VIf Disney Princesses Had Realistic Waistline\u000a\u000aSee More Story Here==&gt;&gt; http://t.co/eWoR8mjttL http://t.co/08oHqFrNRa
p82
sS'_retweeted'
p83
I00
sS'lang'
p84
Ven
p85
sS'_user'
p86
g3
(ctwitter.user
User
p87
g5
Ntp88
Rp89
(dp90
g10
VSydney
p91
sS'_profile_text_color'
p92
V333333
p93
sS'_lang'
p94
Ven
p95
sS'_time_zone'
p96
VNew Delhi
p97
sS'_followers_count'
p98
I116467
sS'_statuses_count'
p99
I1776
sg66
VFri Aug 08 09:41:19 +0000 2014
p100
sS'_verified'
p101
I00
sS'_description'
p102
VAmazing Pictures of Places,People,Animals, and Nature. World Wide
p103
sS'_profile_image_url'
p104
Vhttps://pbs.twimg.com/profile_images/516896284255322112/pPgesN52_normal.jpeg
p105
sS'_friends_count'
p106
I106642
sS'_favourites_count'
p107
I5
sS'_utc_offset'
p108
I19800
sS'_status'
p109
NsS'_protected'
p110
I00
sS'_profile_banner_url'
p111
Vhttps://pbs.twimg.com/profile_banners/2716721012/1412074836
p112
sS'_notifications'
p113
I00
sS'_profile_background_tile'
p114
I01
sS'_profile_link_color'
p115
VDE16C0
p116
sS'_geo_enabled'
p117
I01
sS'_contributors_enabled'
p118
I00
sS'_profile_background_image_url'
p119
Vhttp://abs.twimg.com/images/themes/theme14/bg.gif
p120
sS'_screen_name'
p121
VEARTHPlX
p122
sS'_listed_count'
p123
I307
sS'_name'
p124
VEarth Pics
p125
sS'_profile_sidebar_fill_color'
p126
VDDEEF6
p127
sS'_url'
p128
NsS'_id'
p129
I2716721012
sS'_profile_background_color'
p130
V131516
p131
sbsS'_retweet_count'
p132
I106
sS'_source'
p133
V<a href="http://twitter.com/download/android" rel="nofollow">Twitter for Android</a>
p134
sS'urls'
p135
(lp136
g3
(ctwitter.url
Url
p137
g5
Ntp138
Rp139
(dp140
S'url'
p141
Vhttp://t.co/eWoR8mjttL
p142
sS'expanded_url'
p143
Vhttp://bit.ly/1uDVdQz
p144
sbasg129
I544122327349202944
sbag3
(g4
g5
Ntp145
Rp146
(dp147
g9
I20
sg10
Nsg11
Nsg12
(lp148
g3
(ctwitter.hashtag
Hashtag
p149
g5
Ntp150
Rp151
(dp152
S'text'
p153
Vopenfollow
p154
sbasg14
I00
sg15
Nsg16
Nsg17
(lp155
(dp156
Vexpanded_url
p157
Vhttp://twitter.com/EARTHPlX/status/544121086141411329/photo/1
p158
sVdisplay_url
p159
Vpic.twitter.com/y6X8G0xEx2
p160
sVurl
p161
Vhttp://t.co/y6X8G0xEx2
p162
sVmedia_url_https
p163
Vhttps://pbs.twimg.com/media/B40bPrHCUAEvWHm.jpg
p164
sVid_str
p165
V544121086065922049
p166
sVsizes
p167
(dp168
Vlarge
p169
(dp170
Vh
p171
I530
sVresize
p172
Vfit
p173
sVw
p174
I599
ssVsmall
p175
(dp176
Vh
p177
I300
sVresize
p178
Vfit
p179
sVw
p180
I340
ssVmedium
p181
(dp182
Vh
p183
I530
sVresize
p184
Vfit
p185
sVw
p186
I599
ssVthumb
p187
(dp188
Vh
p189
I150
sVresize
p190
Vcrop
p191
sVw
p192
I150
sssVindices
p193
(lp194
I108
aI130
asVtype
p195
Vphoto
p196
sVid
p197
I544121086065922049
sVmedia_url
p198
Vhttp://pbs.twimg.com/media/B40bPrHCUAEvWHm.jpg
p199
sasg63
Nsg64
Nsg65
Nsg66
VSun Dec 14 13:25:50 +0000 2014
p200
sg68
Nsg69
I00
sg70
Nsg71
Nsg72
Nsg73
Nsg74
I00
sg75
Nsg76
(lp201
sg78
Nsg79
Nsg80
Nsg81
VPrepare to Have Your Mind Blown!!\u000a\u000a#openfollow for rp\u000a\u000aSee More Story Here==&gt;&gt; http://t.co/yabUrF1Kfe http://t.co/y6X8G0xEx2
p202
sg83
I00
sg84
Ven
p203
sg86
g3
(g87
g5
Ntp204
Rp205
(dp206
g10
VSydney
p207
sg92
V333333
p208
sg94
Ven
p209
sg96
VNew Delhi
p210
sg98
I116467
sg99
I1776
sg66
VFri Aug 08 09:41:19 +0000 2014
p211
sg101
I00
sg102
VAmazing Pictures of Places,People,Animals, and Nature. World Wide
p212
sg104
Vhttps://pbs.twimg.com/profile_images/516896284255322112/pPgesN52_normal.jpeg
p213
sg106
I106642
sg107
I5
sg108
I19800
sg109
Nsg110
I00
sg111
Vhttps://pbs.twimg.com/profile_banners/2716721012/1412074836
p214
sg113
I00
sg114
I01
sg115
VDE16C0
p215
sg117
I01
sg118
I00
sg119
Vhttp://abs.twimg.com/images/themes/theme14/bg.gif
p216
sg121
VEARTHPlX
p217
sg123
I307
sg124
VEarth Pics
p218
sg126
VDDEEF6
p219
sg128
Nsg129
I2716721012
sg130
V131516
p220
sbsg132
I127
sg133
V<a href="http://twitter.com/download/android" rel="nofollow">Twitter for Android</a>
p221
sg135
(lp222
g3
(g137
g5
Ntp223
Rp224
(dp225
g141
Vhttp://t.co/yabUrF1Kfe
p226
sg143
Vhttp://bit.ly/1srxhA7
p227
sbasg129
I544121086141411329
sbag3
(g4
g5
Ntp228
Rp229
(dp230
g9
I58
sg10
Nsg11
Nsg12
(lp231
g3
(g149
g5
Ntp232
Rp233
(dp234
g153
Vopenfollow
p235
sbasg14
I00
sg15
Nsg16
Nsg17
(lp236
(dp237
Vexpanded_url
p238
Vhttp://twitter.com/EARTHPlX/status/544120953857249280/photo/1
p239
sVdisplay_url
p240
Vpic.twitter.com/xYqH6u8D2x
p241
sVurl
p242
Vhttp://t.co/xYqH6u8D2x
p243
sVmedia_url_https
p244
Vhttps://pbs.twimg.com/media/B40bH-OCAAEye8F.jpg
p245
sVid_str
p246
V544120953756581889
p247
sVsizes
p248
(dp249
Vlarge
p250
(dp251
Vh
p252
I203
sVresize
p253
Vfit
p254
sVw
p255
I469
ssVsmall
p256
(dp257
Vh
p258
I147
sVresize
p259
Vfit
p260
sVw
p261
I340
ssVmedium
p262
(dp263
Vh
p264
I203
sVresize
p265
Vfit
p266
sVw
p267
I469
ssVthumb
p268
(dp269
Vh
p270
I150
sVresize
p271
Vcrop
p272
sVw
p273
I150
sssVindices
p274
(lp275
I122
aI144
asVtype
p276
Vphoto
p277
sVid
p278
I544120953756581889
sVmedia_url
p279
Vhttp://pbs.twimg.com/media/B40bH-OCAAEye8F.jpg
p280
sasg63
Nsg64
Nsg65
Nsg66
VSun Dec 14 13:25:19 +0000 2014
p281
sg68
Nsg69
I00
sg70
Nsg71
Nsg72
Nsg73
Nsg74
I00
sg75
Nsg76
(lp282
sg78
Nsg79
Nsg80
Nsg81
VHe is suffering from Cancer \U0001f614\u000a\u000aRT TO SUPPORT HIM\u000a\u000a#openfollow for rp\u000aClick for full story=&gt;&gt; http://t.co/yabUrF1Kfe http://t.co/xYqH6u8D2x
p283
sg83
I00
sg84
Ven
p284
sg86
g3
(g87
g5
Ntp285
Rp286
(dp287
g10
VSydney
p288
sg92
V333333
p289
sg94
Ven
p290
sg96
VNew Delhi
p291
sg98
I116467
sg99
I1776
sg66
VFri Aug 08 09:41:19 +0000 2014
p292
sg101
I00
sg102
VAmazing Pictures of Places,People,Animals, and Nature. World Wide
p293
sg104
Vhttps://pbs.twimg.com/profile_images/516896284255322112/pPgesN52_normal.jpeg
p294
sg106
I106642
sg107
I5
sg108
I19800
sg109
Nsg110
I00
sg111
Vhttps://pbs.twimg.com/profile_banners/2716721012/1412074836
p295
sg113
I00
sg114
I01
sg115
VDE16C0
p296
sg117
I01
sg118
I00
sg119
Vhttp://abs.twimg.com/images/themes/theme14/bg.gif
p297
sg121
VEARTHPlX
p298
sg123
I307
sg124
VEarth Pics
p299
sg126
VDDEEF6
p300
sg128
Nsg129
I2716721012
sg130
V131516
p301
sbsg132
I233
sg133
V<a href="http://twitter.com/download/android" rel="nofollow">Twitter for Android</a>
p302
sg135
(lp303
g3
(g137
g5
Ntp304
Rp305
(dp306
g141
Vhttp://t.co/yabUrF1Kfe
p307
sg143
Vhttp://bit.ly/1srxhA7
p308
sbasg129
I544120953857249280
sbag3
(g4
g5
Ntp309
Rp310
(dp311
g9
I21
sg10
Nsg11
Nsg12
(lp312
sg14
I00
sg15
Nsg16
Nsg17
(lp313
(dp314
Vsource_user_id
p315
I1152279248
sVsource_status_id_str
p316
V543909627252178944
p317
sVexpanded_url
p318
Vhttp://twitter.com/EarthPix/status/543909627252178944/photo/1
p319
sVdisplay_url
p320
Vpic.twitter.com/9Qp7s0ScEy
p321
sVurl
p322
Vhttp://t.co/9Qp7s0ScEy
p323
sVmedia_url_https
p324
Vhttps://pbs.twimg.com/media/B4xa7JVIAAICloz.jpg
p325
sVsource_user_id_str
p326
V1152279248
p327
sVsource_status_id
p328
I543909627252178944
sVid_str
p329
V543909627168292866
p330
sVsizes
p331
(dp332
Vlarge
p333
(dp334
Vh
p335
I847
sVresize
p336
Vfit
p337
sVw
p338
I600
ssVsmall
p339
(dp340
Vh
p341
I479
sVresize
p342
Vfit
p343
sVw
p344
I340
ssVmedium
p345
(dp346
Vh
p347
I847
sVresize
p348
Vfit
p349
sVw
p350
I600
ssVthumb
p351
(dp352
Vh
p353
I150
sVresize
p354
Vcrop
p355
sVw
p356
I150
sssVindices
p357
(lp358
I14
aI36
asVtype
p359
Vphoto
p360
sVid
p361
I543909627168292866
sVmedia_url
p362
Vhttp://pbs.twimg.com/media/B4xa7JVIAAICloz.jpg
p363
sasg63
Nsg64
Nsg65
Nsg66
VSun Dec 14 07:09:53 +0000 2014
p364
sg68
Nsg69
I00
sg70
Nsg71
Nsg72
Nsg73
Nsg74
I00
sg75
Nsg76
(lp365
sg78
Nsg79
Nsg80
Nsg81
VVenice, Italy http://t.co/9Qp7s0ScEy
p366
sg83
I00
sg84
Ven
p367
sg86
g3
(g87
g5
Ntp368
Rp369
(dp370
g10
VSydney
p371
sg92
V333333
p372
sg94
Ven
p373
sg96
VNew Delhi
p374
sg98
I116467
sg99
I1776
sg66
VFri Aug 08 09:41:19 +0000 2014
p375
sg101
I00
sg102
VAmazing Pictures of Places,People,Animals, and Nature. World Wide
p376
sg104
Vhttps://pbs.twimg.com/profile_images/516896284255322112/pPgesN52_normal.jpeg
p377
sg106
I106642
sg107
I5
sg108
I19800
sg109
Nsg110
I00
sg111
Vhttps://pbs.twimg.com/profile_banners/2716721012/1412074836
p378
sg113
I00
sg114
I01
sg115
VDE16C0
p379
sg117
I01
sg118
I00
sg119
Vhttp://abs.twimg.com/images/themes/theme14/bg.gif
p380
sg121
VEARTHPlX
p381
sg123
I307
sg124
VEarth Pics
p382
sg126
VDDEEF6
p383
sg128
Nsg129
I2716721012
sg130
V131516
p384
sbsg132
I17
sg133
V<a href="http://twitter.com/download/android" rel="nofollow">Twitter for Android</a>
p385
sg135
(lp386
sg129
I544026471925166081
sbag3
(g4
g5
Ntp387
Rp388
(dp389
g9
I101
sg10
Nsg11
Nsg12
(lp390
sg14
I00
sg15
Nsg16
Nsg17
(lp391
(dp392
Vsource_user_id
p393
I1152279248
sVsource_status_id_str
p394
V524998155566596096
p395
sVexpanded_url
p396
Vhttp://twitter.com/EarthPix/status/524998155566596096/photo/1
p397
sVdisplay_url
p398
Vpic.twitter.com/GJyGVVQuWA
p399
sVurl
p400
Vhttp://t.co/GJyGVVQuWA
p401
sVmedia_url_https
p402
Vhttps://pbs.twimg.com/media/B0krCnNIAAAhepd.jpg
p403
sVsource_user_id_str
p404
V1152279248
p405
sVsource_status_id
p406
I524998155566596096
sVid_str
p407
V524998155449139200
p408
sVsizes
p409
(dp410
Vsmall
p411
(dp412
Vh
p413
I225
sVresize
p414
Vfit
p415
sVw
p416
I340
ssVlarge
p417
(dp418
Vh
p419
I390
sVresize
p420
Vfit
p421
sVw
p422
I588
ssVmedium
p423
(dp424
Vh
p425
I390
sVresize
p426
Vfit
p427
sVw
p428
I588
ssVthumb
p429
(dp430
Vh
p431
I150
sVresize
p432
Vcrop
p433
sVw
p434
I150
sssVindices
p435
(lp436
I18
aI40
asVtype
p437
Vphoto
p438
sVid
p439
I524998155449139200
sVmedia_url
p440
Vhttp://pbs.twimg.com/media/B0krCnNIAAAhepd.jpg
p441
sasg63
Nsg64
Nsg65
Nsg66
VSat Dec 13 18:25:57 +0000 2014
p442
sg68
Nsg69
I00
sg70
Nsg71
Nsg72
Nsg73
Nsg74
I00
sg75
Nsg76
(lp443
sg78
Nsg79
Nsg80
Nsg81
VThis is SPARTA!!! http://t.co/GJyGVVQuWA
p444
sg83
I00
sg84
Ven
p445
sg86
g3
(g87
g5
Ntp446
Rp447
(dp448
g10
VSydney
p449
sg92
V333333
p450
sg94
Ven
p451
sg96
VNew Delhi
p452
sg98
I116467
sg99
I1776
sg66
VFri Aug 08 09:41:19 +0000 2014
p453
sg101
I00
sg102
VAmazing Pictures of Places,People,Animals, and Nature. World Wide
p454
sg104
Vhttps://pbs.twimg.com/profile_images/516896284255322112/pPgesN52_normal.jpeg
p455
sg106
I106642
sg107
I5
sg108
I19800
sg109
Nsg110
I00
sg111
Vhttps://pbs.twimg.com/profile_banners/2716721012/1412074836
p456
sg113
I00
sg114
I01
sg115
VDE16C0
p457
sg117
I01
sg118
I00
sg119
Vhttp://abs.twimg.com/images/themes/theme14/bg.gif
p458
sg121
VEARTHPlX
p459
sg123
I307
sg124
VEarth Pics
p460
sg126
VDDEEF6
p461
sg128
Nsg129
I2716721012
sg130
V131516
p462
sbsg132
I92
sg133
V<a href="http://twitter.com/download/android" rel="nofollow">Twitter for Android</a>
p463
sg135
(lp464
sg129
I543834224386899968
sbag3
(g4
g5
Ntp465
Rp466
(dp467
g9
I37
sg10
Nsg11
Nsg12
(lp468
sg14
I00
sg15
Nsg16
Nsg17
(lp469
(dp470
Vsource_user_id
p471
I1152279248
sVsource_status_id_str
p472
V540040744527228928
p473
sVexpanded_url
p474
Vhttp://twitter.com/EarthPix/status/540040744527228928/photo/1
p475
sVdisplay_url
p476
Vpic.twitter.com/9lJynzwjWh
p477
sVurl
p478
Vhttp://t.co/9lJynzwjWh
p479
sVmedia_url_https
p480
Vhttps://pbs.twimg.com/media/B36cMh7IUAAtrGU.png
p481
sVsource_user_id_str
p482
V1152279248
p483
sVsource_status_id
p484
I540040744527228928
sVid_str
p485
V540040744409780224
p486
sVsizes
p487
(dp488
Vsmall
p489
(dp490
Vh
p491
I228
sVresize
p492
Vfit
p493
sVw
p494
I340
ssVlarge
p495
(dp496
Vh
p497
I317
sVresize
p498
Vfit
p499
sVw
p500
I471
ssVmedium
p501
(dp502
Vh
p503
I317
sVresize
p504
Vfit
p505
sVw
p506
I471
ssVthumb
p507
(dp508
Vh
p509
I150
sVresize
p510
Vcrop
p511
sVw
p512
I150
sssVindices
p513
(lp514
I103
aI125
asVtype
p515
Vphoto
p516
sVid
p517
I540040744409780224
sVmedia_url
p518
Vhttp://pbs.twimg.com/media/B36cMh7IUAAtrGU.png
p519
sasg63
Nsg64
Nsg65
Nsg66
VFri Dec 12 17:27:08 +0000 2014
p520
sg68
Nsg69
I00
sg70
Nsg71
Nsg72
Nsg73
Nsg74
I00
sg75
Nsg76
(lp521
sg78
Nsg79
Nsg80
Nsg81
VI don't know, sometimes I feel like there's more to life than eating honey and stealing picnic baskets http://t.co/9lJynzwjWh
p522
sg83
I00
sg84
Ven
p523
sg86
g3
(g87
g5
Ntp524
Rp525
(dp526
g10
VSydney
p527
sg92
V333333
p528
sg94
Ven
p529
sg96
VNew Delhi
p530
sg98
I116467
sg99
I1776
sg66
VFri Aug 08 09:41:19 +0000 2014
p531
sg101
I00
sg102
VAmazing Pictures of Places,People,Animals, and Nature. World Wide
p532
sg104
Vhttps://pbs.twimg.com/profile_images/516896284255322112/pPgesN52_normal.jpeg
p533
sg106
I106642
sg107
I5
sg108
I19800
sg109
Nsg110
I00
sg111
Vhttps://pbs.twimg.com/profile_banners/2716721012/1412074836
p534
sg113
I00
sg114
I01
sg115
VDE16C0
p535
sg117
I01
sg118
I00
sg119
Vhttp://abs.twimg.com/images/themes/theme14/bg.gif
p536
sg121
VEARTHPlX
p537
sg123
I307
sg124
VEarth Pics
p538
sg126
VDDEEF6
p539
sg128
Nsg129
I2716721012
sg130
V131516
p540
sbsg132
I35
sg133
V<a href="http://twitter.com/download/android" rel="nofollow">Twitter for Android</a>
p541
sg135
(lp542
sg129
I543457032624287744
sbag3
(g4
g5
Ntp543
Rp544
(dp545
g9
I25
sg10
Nsg11
Nsg12
(lp546
sg14
I00
sg15
Nsg16
Nsg17
(lp547
sg63
Nsg64
Nsg65
Nsg66
VTue Dec 09 15:01:07 +0000 2014
p548
sg68
Nsg69
Nsg70
Nsg71
Nsg72
Nsg73
Nsg74
I00
sg75
Nsg76
(lp549
sg78
Nsg79
Nsg80
Nsg81
VTop 10 Lies: \u000a- I'm sorry\u000a- I hate you\u000a- I love you\u000a- I'm over him/her\u000a- I'm fine\u000a- I'm sorry\u000a- it doesn't matter\u000a- nothing\u000a- I don't care
p550
sg83
I00
sg84
Ven
p551
sg86
g3
(g87
g5
Ntp552
Rp553
(dp554
g10
VSydney
p555
sg92
V333333
p556
sg94
Ven
p557
sg96
VNew Delhi
p558
sg98
I116467
sg99
I1776
sg66
VFri Aug 08 09:41:19 +0000 2014
p559
sg101
I00
sg102
VAmazing Pictures of Places,People,Animals, and Nature. World Wide
p560
sg104
Vhttps://pbs.twimg.com/profile_images/516896284255322112/pPgesN52_normal.jpeg
p561
sg106
I106642
sg107
I5
sg108
I19800
sg109
Nsg110
I00
sg111
Vhttps://pbs.twimg.com/profile_banners/2716721012/1412074836
p562
sg113
I00
sg114
I01
sg115
VDE16C0
p563
sg117
I01
sg118
I00
sg119
Vhttp://abs.twimg.com/images/themes/theme14/bg.gif
p564
sg121
VEARTHPlX
p565
sg123
I307
sg124
VEarth Pics
p566
sg126
VDDEEF6
p567
sg128
Nsg129
I2716721012
sg130
V131516
p568
sbsg132
I27
sg133
V<a href="http://twitter.com/download/android" rel="nofollow">Twitter for Android</a>
p569
sg135
(lp570
sg129
I542333125787799552
sbag3
(g4
g5
Ntp571
Rp572
(dp573
g9
I41
sg10
Nsg11
Nsg12
(lp574
sg14
I00
sg15
Nsg16
Nsg17
(lp575
(dp576
Vsource_user_id
p577
I2602973341
sVsource_status_id_str
p578
V542093677850398720
p579
sVexpanded_url
p580
Vhttp://twitter.com/HiddenWorId/status/542093677850398720/photo/1
p581
sVdisplay_url
p582
Vpic.twitter.com/dItmjtVA2Y
p583
sVurl
p584
Vhttp://t.co/dItmjtVA2Y
p585
sVmedia_url_https
p586
Vhttps://pbs.twimg.com/media/B4XnU-wCEAAOqw-.jpg
p587
sVsource_user_id_str
p588
V2602973341
p589
sVsource_status_id
p590
I542093677850398720
sVid_str
p591
V542093677795872768
p592
sVsizes
p593
(dp594
Vlarge
p595
(dp596
Vh
p597
I782
sVresize
p598
Vfit
p599
sVw
p600
I547
ssVsmall
p601
(dp602
Vh
p603
I486
sVresize
p604
Vfit
p605
sVw
p606
I340
ssVmedium
p607
(dp608
Vh
p609
I782
sVresize
p610
Vfit
p611
sVw
p612
I547
ssVthumb
p613
(dp614
Vh
p615
I150
sVresize
p616
Vcrop
p617
sVw
p618
I150
sssVindices
p619
(lp620
I23
aI45
asVtype
p621
Vphoto
p622
sVid
p623
I542093677795872768
sVmedia_url
p624
Vhttp://pbs.twimg.com/media/B4XnU-wCEAAOqw-.jpg
p625
sasg63
Nsg64
Nsg65
Nsg66
VTue Dec 09 00:49:51 +0000 2014
p626
sg68
Nsg69
I00
sg70
Nsg71
Nsg72
Nsg73
Nsg74
I00
sg75
Nsg76
(lp627
sg78
Nsg79
Nsg80
Nsg81
VOne can make a change. http://t.co/dItmjtVA2Y
p628
sg83
I00
sg84
Ven
p629
sg86
g3
(g87
g5
Ntp630
Rp631
(dp632
g10
VSydney
p633
sg92
V333333
p634
sg94
Ven
p635
sg96
VNew Delhi
p636
sg98
I116467
sg99
I1776
sg66
VFri Aug 08 09:41:19 +0000 2014
p637
sg101
I00
sg102
VAmazing Pictures of Places,People,Animals, and Nature. World Wide
p638
sg104
Vhttps://pbs.twimg.com/profile_images/516896284255322112/pPgesN52_normal.jpeg
p639
sg106
I106642
sg107
I5
sg108
I19800
sg109
Nsg110
I00
sg111
Vhttps://pbs.twimg.com/profile_banners/2716721012/1412074836
p640
sg113
I00
sg114
I01
sg115
VDE16C0
p641
sg117
I01
sg118
I00
sg119
Vhttp://abs.twimg.com/images/themes/theme14/bg.gif
p642
sg121
VEARTHPlX
p643
sg123
I307
sg124
VEarth Pics
p644
sg126
VDDEEF6
p645
sg128
Nsg129
I2716721012
sg130
V131516
p646
sbsg132
I43
sg133
V<a href="http://twitter.com/download/android" rel="nofollow">Twitter for Android</a>
p647
sg135
(lp648
sg129
I542118897055309824
sbag3
(g4
g5
Ntp649
Rp650
(dp651
g9
I33
sg10
Nsg11
Nsg12
(lp652
sg14
I00
sg15
Nsg16
Nsg17
(lp653
sg63
Nsg64
Nsg65
Nsg66
VSun Dec 07 03:40:57 +0000 2014
p654
sg68
Nsg69
Nsg70
Nsg71
Nsg72
Nsg73
Nsg74
I00
sg75
Nsg76
(lp655
sg78
Nsg79
Nsg80
Nsg81
VTEENS NOWADAYS:\u000a\u25cfsmoking\U0001f6ac\u000a\u25cfdrinking\U0001f37a\u000a\u25cfpregnant\U0001f6bc\u000a\u25cfdrugs\U0001f48a\u000a\u000aME:\u000a\u25cbTWITTER\U0001f426\u000a\u25cbFOOD\U0001f374\u000a\u25cbSLEEP\U0001f4a4\u000a\u25cbHANGOUT\u000a\u000aMy parents should be proud
p656
sg83
I00
sg84
Ven
p657
sg86
g3
(g87
g5
Ntp658
Rp659
(dp660
g10
VSydney
p661
sg92
V333333
p662
sg94
Ven
p663
sg96
VNew Delhi
p664
sg98
I116467
sg99
I1776
sg66
VFri Aug 08 09:41:19 +0000 2014
p665
sg101
I00
sg102
VAmazing Pictures of Places,People,Animals, and Nature. World Wide
p666
sg104
Vhttps://pbs.twimg.com/profile_images/516896284255322112/pPgesN52_normal.jpeg
p667
sg106
I106642
sg107
I5
sg108
I19800
sg109
Nsg110
I00
sg111
Vhttps://pbs.twimg.com/profile_banners/2716721012/1412074836
p668
sg113
I00
sg114
I01
sg115
VDE16C0
p669
sg117
I01
sg118
I00
sg119
Vhttp://abs.twimg.com/images/themes/theme14/bg.gif
p670
sg121
VEARTHPlX
p671
sg123
I307
sg124
VEarth Pics
p672
sg126
VDDEEF6
p673
sg128
Nsg129
I2716721012
sg130
V131516
p674
sbsg132
I46
sg133
V<a href="http://twitter.com/download/android" rel="nofollow">Twitter for Android</a>
p675
sg135
(lp676
sg129
I541437179751190528
sbag3
(g4
g5
Ntp677
Rp678
(dp679
g9
I38
sg10
Nsg11
Nsg12
(lp680
sg14
I00
sg15
Nsg16
Nsg17
(lp681
sg63
Nsg64
Nsg65
Nsg66
VTue Dec 02 07:56:33 +0000 2014
p682
sg68
Nsg69
Nsg70
Nsg71
Nsg72
Nsg73
Nsg74
I00
sg75
Nsg76
(lp683
sg78
Nsg79
Nsg80
Nsg81
VLove+Care = Mother\u000aLove+Fear = Father\u000aLove+Help = Sister\u000aLove+Fight = Brother\u000aLove+Life = Spouse\u000aLove+Care+Fear+Help+Fight+Life = Friend
p684
sg83
I00
sg84
Ven
p685
sg86
g3
(g87
g5
Ntp686
Rp687
(dp688
g10
VSydney
p689
sg92
V333333
p690
sg94
Ven
p691
sg96
VNew Delhi
p692
sg98
I116467
sg99
I1776
sg66
VFri Aug 08 09:41:19 +0000 2014
p693
sg101
I00
sg102
VAmazing Pictures of Places,People,Animals, and Nature. World Wide
p694
sg104
Vhttps://pbs.twimg.com/profile_images/516896284255322112/pPgesN52_normal.jpeg
p695
sg106
I106642
sg107
I5
sg108
I19800
sg109
Nsg110
I00
sg111
Vhttps://pbs.twimg.com/profile_banners/2716721012/1412074836
p696
sg113
I00
sg114
I01
sg115
VDE16C0
p697
sg117
I01
sg118
I00
sg119
Vhttp://abs.twimg.com/images/themes/theme14/bg.gif
p698
sg121
VEARTHPlX
p699
sg123
I307
sg124
VEarth Pics
p700
sg126
VDDEEF6
p701
sg128
Nsg129
I2716721012
sg130
V131516
p702
sbsg132
I44
sg133
V<a href="http://twitter.com" rel="nofollow">Twitter Web Client</a>
p703
sg135
(lp704
sg129
I539689564432908289
sbag3
(g4
g5
Ntp705
Rp706
(dp707
g9
I77
sg10
Nsg11
Nsg12
(lp708
sg14
I00
sg15
Nsg16
Nsg17
(lp709
sg63
Nsg64
Nsg65
Nsg66
VSun Nov 30 06:19:53 +0000 2014
p710
sg68
Nsg69
Nsg70
Nsg71
Nsg72
Nsg73
Nsg74
I00
sg75
Nsg76
(lp711
sg78
Nsg79
Nsg80
Nsg81
VI \u000aDON'T \u000aWANNA \u000aWAKE \u000aUP \u000a\u000aI \u000aDONT \u000aWANNA \u000aGO \u000aTO \u000aSCHOOL \u000a\u000aI \u000aDONT \u000aWANNA \u000aSEE \u000aYOU \u000aPEOPLE \u000a\u000aOR \u000aYOU \u000aTEACHERS \u000a\u000aI \u000aJUST \u000aWANNA \u000aSLEEP
p712
sg83
I00
sg84
Ven
p713
sg86
g3
(g87
g5
Ntp714
Rp715
(dp716
g10
VSydney
p717
sg92
V333333
p718
sg94
Ven
p719
sg96
VNew Delhi
p720
sg98
I116467
sg99
I1776
sg66
VFri Aug 08 09:41:19 +0000 2014
p721
sg101
I00
sg102
VAmazing Pictures of Places,People,Animals, and Nature. World Wide
p722
sg104
Vhttps://pbs.twimg.com/profile_images/516896284255322112/pPgesN52_normal.jpeg
p723
sg106
I106642
sg107
I5
sg108
I19800
sg109
Nsg110
I00
sg111
Vhttps://pbs.twimg.com/profile_banners/2716721012/1412074836
p724
sg113
I00
sg114
I01
sg115
VDE16C0
p725
sg117
I01
sg118
I00
sg119
Vhttp://abs.twimg.com/images/themes/theme14/bg.gif
p726
sg121
VEARTHPlX
p727
sg123
I307
sg124
VEarth Pics
p728
sg126
VDDEEF6
p729
sg128
Nsg129
I2716721012
sg130
V131516
p730
sbsg132
I97
sg133
V<a href="http://twitter.com/download/android" rel="nofollow">Twitter for Android</a>
p731
sg135
(lp732
sg129
I538940460484411394
sbag3
(g4
g5
Ntp733
Rp734
(dp735
g9
I56
sg10
Nsg11
Nsg12
(lp736
sg14
I00
sg15
Nsg16
Nsg17
(lp737
sg63
Nsg64
Nsg65
Nsg66
VSun Nov 30 06:19:34 +0000 2014
p738
sg68
Nsg69
Nsg70
Nsg71
Nsg72
Nsg73
Nsg74
I00
sg75
Nsg76
(lp739
sg78
Nsg79
Nsg80
Nsg81
VGod &gt; My worries\u000aGod &gt; My regrets\u000aGod &gt; My failures\u000aGod &gt; My insecurities\u000aGod &gt; My fears\u000aGod &gt; My problems\u000aGod &gt; My everything
p740
sg83
I00
sg84
Ven
p741
sg86
g3
(g87
g5
Ntp742
Rp743
(dp744
g10
VSydney
p745
sg92
V333333
p746
sg94
Ven
p747
sg96
VNew Delhi
p748
sg98
I116467
sg99
I1776
sg66
VFri Aug 08 09:41:19 +0000 2014
p749
sg101
I00
sg102
VAmazing Pictures of Places,People,Animals, and Nature. World Wide
p750
sg104
Vhttps://pbs.twimg.com/profile_images/516896284255322112/pPgesN52_normal.jpeg
p751
sg106
I106642
sg107
I5
sg108
I19800
sg109
Nsg110
I00
sg111
Vhttps://pbs.twimg.com/profile_banners/2716721012/1412074836
p752
sg113
I00
sg114
I01
sg115
VDE16C0
p753
sg117
I01
sg118
I00
sg119
Vhttp://abs.twimg.com/images/themes/theme14/bg.gif
p754
sg121
VEARTHPlX
p755
sg123
I307
sg124
VEarth Pics
p756
sg126
VDDEEF6
p757
sg128
Nsg129
I2716721012
sg130
V131516
p758
sbsg132
I58
sg133
V<a href="http://twitter.com/download/android" rel="nofollow">Twitter for Android</a>
p759
sg135
(lp760
sg129
I538940382172573696
sbag3
(g4
g5
Ntp761
Rp762
(dp763
g9
I95
sg10
Nsg11
Nsg12
(lp764
sg14
I00
sg15
Nsg16
Nsg17
(lp765
(dp766
Vsource_user_id
p767
I1152279248
sVsource_status_id_str
p768
V527897254078971904
p769
sVexpanded_url
p770
Vhttp://twitter.com/EarthPix/status/527897254078971904/photo/1
p771
sVdisplay_url
p772
Vpic.twitter.com/cVevtNiBSS
p773
sVurl
p774
Vhttp://t.co/cVevtNiBSS
p775
sVmedia_url_https
p776
Vhttps://pbs.twimg.com/media/B1N3wWmIIAAfF8a.jpg
p777
sVsource_user_id_str
p778
V1152279248
p779
sVsource_status_id
p780
I527897254078971904
sVid_str
p781
V527897253915402240
p782
sVsizes
p783
(dp784
Vlarge
p785
(dp786
Vh
p787
I650
sVresize
p788
Vfit
p789
sVw
p790
I500
ssVsmall
p791
(dp792
Vh
p793
I442
sVresize
p794
Vfit
p795
sVw
p796
I340
ssVmedium
p797
(dp798
Vh
p799
I650
sVresize
p800
Vfit
p801
sVw
p802
I500
ssVthumb
p803
(dp804
Vh
p805
I150
sVresize
p806
Vcrop
p807
sVw
p808
I150
sssVindices
p809
(lp810
I23
aI45
asVtype
p811
Vphoto
p812
sVid
p813
I527897253915402240
sVmedia_url
p814
Vhttp://pbs.twimg.com/media/B1N3wWmIIAAfF8a.jpg
p815
sasg63
Nsg64
Nsg65
Nsg66
VTue Nov 25 17:27:59 +0000 2014
p816
sg68
Nsg69
I00
sg70
Nsg71
Nsg72
Nsg73
Nsg74
I00
sg75
Nsg76
(lp817
sg78
Nsg79
Nsg80
Nsg81
VGood Morning in Venice http://t.co/cVevtNiBSS
p818
sg83
I00
sg84
Ven
p819
sg86
g3
(g87
g5
Ntp820
Rp821
(dp822
g10
VSydney
p823
sg92
V333333
p824
sg94
Ven
p825
sg96
VNew Delhi
p826
sg98
I116467
sg99
I1776
sg66
VFri Aug 08 09:41:19 +0000 2014
p827
sg101
I00
sg102
VAmazing Pictures of Places,People,Animals, and Nature. World Wide
p828
sg104
Vhttps://pbs.twimg.com/profile_images/516896284255322112/pPgesN52_normal.jpeg
p829
sg106
I106642
sg107
I5
sg108
I19800
sg109
Nsg110
I00
sg111
Vhttps://pbs.twimg.com/profile_banners/2716721012/1412074836
p830
sg113
I00
sg114
I01
sg115
VDE16C0
p831
sg117
I01
sg118
I00
sg119
Vhttp://abs.twimg.com/images/themes/theme14/bg.gif
p832
sg121
VEARTHPlX
p833
sg123
I307
sg124
VEarth Pics
p834
sg126
VDDEEF6
p835
sg128
Nsg129
I2716721012
sg130
V131516
p836
sbsg132
I65
sg133
V<a href="http://twitter.com/download/android" rel="nofollow">Twitter for Android</a>
p837
sg135
(lp838
sg129
I537296653389025281
sbag3
(g4
g5
Ntp839
Rp840
(dp841
g9
I111
sg10
Nsg11
Nsg12
(lp842
sg14
I00
sg15
Nsg16
Nsg17
(lp843
(dp844
Vsource_user_id
p845
I1152279248
sVsource_status_id_str
p846
V528277314531233792
p847
sVexpanded_url
p848
Vhttp://twitter.com/EarthPix/status/528277314531233792/photo/1
p849
sVdisplay_url
p850
Vpic.twitter.com/o0EM11O4nR
p851
sVurl
p852
Vhttp://t.co/o0EM11O4nR
p853
sVmedia_url_https
p854
Vhttps://pbs.twimg.com/media/B1TRayGIYAAUE0S.jpg
p855
sVsource_user_id_str
p856
V1152279248
p857
sVsource_status_id
p858
I528277314531233792
sVid_str
p859
V528277314363482112
p860
sVsizes
p861
(dp862
Vlarge
p863
(dp864
Vh
p865
I1104
sVresize
p866
Vfit
p867
sVw
p868
I736
ssVsmall
p869
(dp870
Vh
p871
I510
sVresize
p872
Vfit
p873
sVw
p874
I340
ssVmedium
p875
(dp876
Vh
p877
I900
sVresize
p878
Vfit
p879
sVw
p880
I600
ssVthumb
p881
(dp882
Vh
p883
I150
sVresize
p884
Vcrop
p885
sVw
p886
I150
sssVindices
p887
(lp888
I16
aI38
asVtype
p889
Vphoto
p890
sVid
p891
I528277314363482112
sVmedia_url
p892
Vhttp://pbs.twimg.com/media/B1TRayGIYAAUE0S.jpg
p893
sasg63
Nsg64
Nsg65
Nsg66
VTue Nov 25 17:27:19 +0000 2014
p894
sg68
Nsg69
I00
sg70
Nsg71
Nsg72
Nsg73
Nsg74
I00
sg75
Nsg76
(lp895
sg78
Nsg79
Nsg80
Nsg81
VLondon, England http://t.co/o0EM11O4nR
p896
sg83
I00
sg84
Ven
p897
sg86
g3
(g87
g5
Ntp898
Rp899
(dp900
g10
VSydney
p901
sg92
V333333
p902
sg94
Ven
p903
sg96
VNew Delhi
p904
sg98
I116467
sg99
I1776
sg66
VFri Aug 08 09:41:19 +0000 2014
p905
sg101
I00
sg102
VAmazing Pictures of Places,People,Animals, and Nature. World Wide
p906
sg104
Vhttps://pbs.twimg.com/profile_images/516896284255322112/pPgesN52_normal.jpeg
p907
sg106
I106642
sg107
I5
sg108
I19800
sg109
Nsg110
I00
sg111
Vhttps://pbs.twimg.com/profile_banners/2716721012/1412074836
p908
sg113
I00
sg114
I01
sg115
VDE16C0
p909
sg117
I01
sg118
I00
sg119
Vhttp://abs.twimg.com/images/themes/theme14/bg.gif
p910
sg121
VEARTHPlX
p911
sg123
I307
sg124
VEarth Pics
p912
sg126
VDDEEF6
p913
sg128
Nsg129
I2716721012
sg130
V131516
p914
sbsg132
I93
sg133
V<a href="http://twitter.com/download/android" rel="nofollow">Twitter for Android</a>
p915
sg135
(lp916
sg129
I537296487042916352
sbag3
(g4
g5
Ntp917
Rp918
(dp919
g9
I111
sg10
Nsg11
Nsg12
(lp920
sg14
I00
sg15
Nsg16
Nsg17
(lp921
(dp922
Vsource_user_id
p923
I1152279248
sVsource_status_id_str
p924
V534542800067756033
p925
sVexpanded_url
p926
Vhttp://twitter.com/EarthPix/status/534542800067756033/photo/1
p927
sVdisplay_url
p928
Vpic.twitter.com/aHxlglYTP7
p929
sVurl
p930
Vhttp://t.co/aHxlglYTP7
p931
sVmedia_url_https
p932
Vhttps://pbs.twimg.com/media/B2sT2CKIEAAbO8_.jpg
p933
sVsource_user_id_str
p934
V1152279248
p935
sVsource_status_id
p936
I534542800067756033
sVid_str
p937
V534542799786741760
p938
sVsizes
p939
(dp940
Vsmall
p941
(dp942
Vh
p943
I226
sVresize
p944
Vfit
p945
sVw
p946
I340
ssVlarge
p947
(dp948
Vh
p949
I682
sVresize
p950
Vfit
p951
sVw
p952
I1024
ssVmedium
p953
(dp954
Vh
p955
I400
sVresize
p956
Vfit
p957
sVw
p958
I600
ssVthumb
p959
(dp960
Vh
p961
I150
sVresize
p962
Vcrop
p963
sVw
p964
I150
sssVindices
p965
(lp966
I10
aI32
asVtype
p967
Vphoto
p968
sVid
p969
I534542799786741760
sVmedia_url
p970
Vhttp://pbs.twimg.com/media/B2sT2CKIEAAbO8_.jpg
p971
sasg63
Nsg64
Nsg65
Nsg66
VTue Nov 25 09:48:57 +0000 2014
p972
sg68
Nsg69
I00
sg70
Nsg71
Nsg72
Nsg73
Nsg74
I00
sg75
Nsg76
(lp973
sg78
Nsg79
Nsg80
Nsg81
VBora Bora http://t.co/aHxlglYTP7
p974
sg83
I00
sg84
Vpt
p975
sg86
g3
(g87
g5
Ntp976
Rp977
(dp978
g10
VSydney
p979
sg92
V333333
p980
sg94
Ven
p981
sg96
VNew Delhi
p982
sg98
I116467
sg99
I1776
sg66
VFri Aug 08 09:41:19 +0000 2014
p983
sg101
I00
sg102
VAmazing Pictures of Places,People,Animals, and Nature. World Wide
p984
sg104
Vhttps://pbs.twimg.com/profile_images/516896284255322112/pPgesN52_normal.jpeg
p985
sg106
I106642
sg107
I5
sg108
I19800
sg109
Nsg110
I00
sg111
Vhttps://pbs.twimg.com/profile_banners/2716721012/1412074836
p986
sg113
I00
sg114
I01
sg115
VDE16C0
p987
sg117
I01
sg118
I00
sg119
Vhttp://abs.twimg.com/images/themes/theme14/bg.gif
p988
sg121
VEARTHPlX
p989
sg123
I307
sg124
VEarth Pics
p990
sg126
VDDEEF6
p991
sg128
Nsg129
I2716721012
sg130
V131516
p992
sbsg132
I81
sg133
V<a href="http://twitter.com/download/android" rel="nofollow">Twitter for Android</a>
p993
sg135
(lp994
sg129
I537181134040215552
sbag3
(g4
g5
Ntp995
Rp996
(dp997
g9
I152
sg10
Nsg11
Nsg12
(lp998
sg14
I00
sg15
Nsg16
Nsg17
(lp999
(dp1000
Vsource_user_id
p1001
I1152279248
sVsource_status_id_str
p1002
V536026694558048256
p1003
sVexpanded_url
p1004
Vhttp://twitter.com/EarthPix/status/536026694558048256/photo/1
p1005
sVdisplay_url
p1006
Vpic.twitter.com/7CehWjO1xd
p1007
sVurl
p1008
Vhttp://t.co/7CehWjO1xd
p1009
sVmedia_url_https
p1010
Vhttps://pbs.twimg.com/media/B3BZcERCEAAbk_h.png
p1011
sVsource_user_id_str
p1012
V1152279248
p1013
sVsource_status_id
p1014
I536026694558048256
sVid_str
p1015
V536026694373478400
p1016
sVsizes
p1017
(dp1018
Vsmall
p1019
(dp1020
Vh
p1021
I339
sVresize
p1022
Vfit
p1023
sVw
p1024
I340
ssVlarge
p1025
(dp1026
Vh
p1027
I610
sVresize
p1028
Vfit
p1029
sVw
p1030
I611
ssVmedium
p1031
(dp1032
Vh
p1033
I599
sVresize
p1034
Vfit
p1035
sVw
p1036
I600
ssVthumb
p1037
(dp1038
Vh
p1039
I150
sVresize
p1040
Vcrop
p1041
sVw
p1042
I150
sssVindices
p1043
(lp1044
I18
aI40
asVtype
p1045
Vphoto
p1046
sVid
p1047
I536026694373478400
sVmedia_url
p1048
Vhttp://pbs.twimg.com/media/B3BZcERCEAAbk_h.png
p1049
sasg63
Nsg64
Nsg65
Nsg66
VSat Nov 22 17:47:19 +0000 2014
p1050
sg68
Nsg69
I00
sg70
Nsg71
Nsg72
Nsg73
Nsg74
I00
sg75
Nsg76
(lp1051
sg78
Nsg79
Nsg80
Nsg81
VSea Turtle Selfie http://t.co/7CehWjO1xd
p1052
sg83
I00
sg84
Vet
p1053
sg86
g3
(g87
g5
Ntp1054
Rp1055
(dp1056
g10
VSydney
p1057
sg92
V333333
p1058
sg94
Ven
p1059
sg96
VNew Delhi
p1060
sg98
I116467
sg99
I1776
sg66
VFri Aug 08 09:41:19 +0000 2014
p1061
sg101
I00
sg102
VAmazing Pictures of Places,People,Animals, and Nature. World Wide
p1062
sg104
Vhttps://pbs.twimg.com/profile_images/516896284255322112/pPgesN52_normal.jpeg
p1063
sg106
I106642
sg107
I5
sg108
I19800
sg109
Nsg110
I00
sg111
Vhttps://pbs.twimg.com/profile_banners/2716721012/1412074836
p1064
sg113
I00
sg114
I01
sg115
VDE16C0
p1065
sg117
I01
sg118
I00
sg119
Vhttp://abs.twimg.com/images/themes/theme14/bg.gif
p1066
sg121
VEARTHPlX
p1067
sg123
I307
sg124
VEarth Pics
p1068
sg126
VDDEEF6
p1069
sg128
Nsg129
I2716721012
sg130
V131516
p1070
sbsg132
I105
sg133
V<a href="http://twitter.com/download/android" rel="nofollow">Twitter for Android</a>
p1071
sg135
(lp1072
sg129
I536214357567238144
sbag3
(g4
g5
Ntp1073
Rp1074
(dp1075
g9
I136
sg10
Nsg11
Nsg12
(lp1076
sg14
I00
sg15
Nsg16
Nsg17
(lp1077
(dp1078
Vsource_user_id
p1079
I1152279248
sVsource_status_id_str
p1080
V532917648200581120
p1081
sVexpanded_url
p1082
Vhttp://twitter.com/EarthPix/status/532917648200581120/photo/1
p1083
sVdisplay_url
p1084
Vpic.twitter.com/SMQyOV9PHG
p1085
sVurl
p1086
Vhttp://t.co/SMQyOV9PHG
p1087
sVmedia_url_https
p1088
Vhttps://pbs.twimg.com/media/B2VNxvAIUAA-vux.jpg
p1089
sVsource_user_id_str
p1090
V1152279248
p1091
sVsource_status_id
p1092
I532917648200581120
sVid_str
p1093
V532917647739211776
p1094
sVsizes
p1095
(dp1096
Vlarge
p1097
(dp1098
Vh
p1099
I750
sVresize
p1100
Vfit
p1101
sVw
p1102
I500
ssVsmall
p1103
(dp1104
Vh
p1105
I510
sVresize
p1106
Vfit
p1107
sVw
p1108
I340
ssVmedium
p1109
(dp1110
Vh
p1111
I750
sVresize
p1112
Vfit
p1113
sVw
p1114
I500
ssVthumb
p1115
(dp1116
Vh
p1117
I150
sVresize
p1118
Vcrop
p1119
sVw
p1120
I150
sssVindices
p1121
(lp1122
I34
aI56
asVtype
p1123
Vphoto
p1124
sVid
p1125
I532917647739211776
sVmedia_url
p1126
Vhttp://pbs.twimg.com/media/B2VNxvAIUAA-vux.jpg
p1127
sasg63
Nsg64
Nsg65
Nsg66
VFri Nov 21 17:49:51 +0000 2014
p1128
sg68
Nsg69
I00
sg70
Nsg71
Nsg72
Nsg73
Nsg74
I00
sg75
Nsg76
(lp1129
sg78
Nsg79
Nsg80
Nsg81
VGolden Gate Bridge, San Francisco http://t.co/SMQyOV9PHG
p1130
sg83
I00
sg84
Ven
p1131
sg86
g3
(g87
g5
Ntp1132
Rp1133
(dp1134
g10
VSydney
p1135
sg92
V333333
p1136
sg94
Ven
p1137
sg96
VNew Delhi
p1138
sg98
I116467
sg99
I1776
sg66
VFri Aug 08 09:41:19 +0000 2014
p1139
sg101
I00
sg102
VAmazing Pictures of Places,People,Animals, and Nature. World Wide
p1140
sg104
Vhttps://pbs.twimg.com/profile_images/516896284255322112/pPgesN52_normal.jpeg
p1141
sg106
I106642
sg107
I5
sg108
I19800
sg109
Nsg110
I00
sg111
Vhttps://pbs.twimg.com/profile_banners/2716721012/1412074836
p1142
sg113
I00
sg114
I01
sg115
VDE16C0
p1143
sg117
I01
sg118
I00
sg119
Vhttp://abs.twimg.com/images/themes/theme14/bg.gif
p1144
sg121
VEARTHPlX
p1145
sg123
I307
sg124
VEarth Pics
p1146
sg126
VDDEEF6
p1147
sg128
Nsg129
I2716721012
sg130
V131516
p1148
sbsg132
I128
sg133
V<a href="http://twitter.com/download/android" rel="nofollow">Twitter for Android</a>
p1149
sg135
(lp1150
sg129
I535852604685692928
sbag3
(g4
g5
Ntp1151
Rp1152
(dp1153
g9
I117
sg10
Nsg11
Nsg12
(lp1154
sg14
I00
sg15
Nsg16
Nsg17
(lp1155
(dp1156
Vsource_user_id
p1157
I1152279248
sVsource_status_id_str
p1158
V533572666561937408
p1159
sVexpanded_url
p1160
Vhttp://twitter.com/EarthPix/status/533572666561937408/photo/1
p1161
sVdisplay_url
p1162
Vpic.twitter.com/otcG9wQcSh
p1163
sVurl
p1164
Vhttp://t.co/otcG9wQcSh
p1165
sVmedia_url_https
p1166
Vhttps://pbs.twimg.com/media/B2ehg1yIUAAeN5e.jpg
p1167
sVsource_user_id_str
p1168
V1152279248
p1169
sVsource_status_id
p1170
I533572666561937408
sVid_str
p1171
V533572666431918080
p1172
sVsizes
p1173
(dp1174
Vlarge
p1175
(dp1176
Vh
p1177
I971
sVresize
p1178
Vfit
p1179
sVw
p1180
I553
ssVsmall
p1181
(dp1182
Vh
p1183
I596
sVresize
p1184
Vfit
p1185
sVw
p1186
I340
ssVmedium
p1187
(dp1188
Vh
p1189
I971
sVresize
p1190
Vfit
p1191
sVw
p1192
I553
ssVthumb
p1193
(dp1194
Vh
p1195
I150
sVresize
p1196
Vcrop
p1197
sVw
p1198
I150
sssVindices
p1199
(lp1200
I22
aI44
asVtype
p1201
Vphoto
p1202
sVid
p1203
I533572666431918080
sVmedia_url
p1204
Vhttp://pbs.twimg.com/media/B2ehg1yIUAAeN5e.jpg
p1205
sasg63
Nsg64
Nsg65
Nsg66
VFri Nov 21 17:49:01 +0000 2014
p1206
sg68
Nsg69
I00
sg70
Nsg71
Nsg72
Nsg73
Nsg74
I00
sg75
Nsg76
(lp1207
sg78
Nsg79
Nsg80
Nsg81
VThe beauty of Iceland http://t.co/otcG9wQcSh
p1208
sg83
I00
sg84
Ven
p1209
sg86
g3
(g87
g5
Ntp1210
Rp1211
(dp1212
g10
VSydney
p1213
sg92
V333333
p1214
sg94
Ven
p1215
sg96
VNew Delhi
p1216
sg98
I116467
sg99
I1776
sg66
VFri Aug 08 09:41:19 +0000 2014
p1217
sg101
I00
sg102
VAmazing Pictures of Places,People,Animals, and Nature. World Wide
p1218
sg104
Vhttps://pbs.twimg.com/profile_images/516896284255322112/pPgesN52_normal.jpeg
p1219
sg106
I106642
sg107
I5
sg108
I19800
sg109
Nsg110
I00
sg111
Vhttps://pbs.twimg.com/profile_banners/2716721012/1412074836
p1220
sg113
I00
sg114
I01
sg115
VDE16C0
p1221
sg117
I01
sg118
I00
sg119
Vhttp://abs.twimg.com/images/themes/theme14/bg.gif
p1222
sg121
VEARTHPlX
p1223
sg123
I307
sg124
VEarth Pics
p1224
sg126
VDDEEF6
p1225
sg128
Nsg129
I2716721012
sg130
V131516
p1226
sbsg132
I93
sg133
V<a href="http://twitter.com/download/android" rel="nofollow">Twitter for Android</a>
p1227
sg135
(lp1228
sg129
I535852393879986176
sbag3
(g4
g5
Ntp1229
Rp1230
(dp1231
g9
I75
sg10
Nsg11
Nsg12
(lp1232
sg14
I00
sg15
Nsg16
Nsg17
(lp1233
(dp1234
Vsource_user_id
p1235
I1152279248
sVsource_status_id_str
p1236
V533229420778389504
p1237
sVexpanded_url
p1238
Vhttp://twitter.com/EarthPix/status/533229420778389504/photo/1
p1239
sVdisplay_url
p1240
Vpic.twitter.com/LHm9IGZ3wP
p1241
sVurl
p1242
Vhttp://t.co/LHm9IGZ3wP
p1243
sVmedia_url_https
p1244
Vhttps://pbs.twimg.com/media/B2ZpVTjIcAApEo6.jpg
p1245
sVsource_user_id_str
p1246
V1152279248
p1247
sVsource_status_id
p1248
I533229420778389504
sVid_str
p1249
V533229420635779072
p1250
sVsizes
p1251
(dp1252
Vsmall
p1253
(dp1254
Vh
p1255
I510
sVresize
p1256
Vfit
p1257
sVw
p1258
I340
ssVlarge
p1259
(dp1260
Vh
p1261
I899
sVresize
p1262
Vfit
p1263
sVw
p1264
I599
ssVmedium
p1265
(dp1266
Vh
p1267
I899
sVresize
p1268
Vfit
p1269
sVw
p1270
I599
ssVthumb
p1271
(dp1272
Vh
p1273
I150
sVresize
p1274
Vcrop
p1275
sVw
p1276
I150
sssVindices
p1277
(lp1278
I29
aI51
asVtype
p1279
Vphoto
p1280
sVid
p1281
I533229420635779072
sVmedia_url
p1282
Vhttp://pbs.twimg.com/media/B2ZpVTjIcAApEo6.jpg
p1283
sasg63
Nsg64
Nsg65
Nsg66
VFri Nov 21 17:48:32 +0000 2014
p1284
sg68
Nsg69
I00
sg70
Nsg71
Nsg72
Nsg73
Nsg74
I00
sg75
Nsg76
(lp1285
sg78
Nsg79
Nsg80
Nsg81
VFestival of Lights, Thailand http://t.co/LHm9IGZ3wP
p1286
sg83
I00
sg84
Ven
p1287
sg86
g3
(g87
g5
Ntp1288
Rp1289
(dp1290
g10
VSydney
p1291
sg92
V333333
p1292
sg94
Ven
p1293
sg96
VNew Delhi
p1294
sg98
I116467
sg99
I1776
sg66
VFri Aug 08 09:41:19 +0000 2014
p1295
sg101
I00
sg102
VAmazing Pictures of Places,People,Animals, and Nature. World Wide
p1296
sg104
Vhttps://pbs.twimg.com/profile_images/516896284255322112/pPgesN52_normal.jpeg
p1297
sg106
I106642
sg107
I5
sg108
I19800
sg109
Nsg110
I00
sg111
Vhttps://pbs.twimg.com/profile_banners/2716721012/1412074836
p1298
sg113
I00
sg114
I01
sg115
VDE16C0
p1299
sg117
I01
sg118
I00
sg119
Vhttp://abs.twimg.com/images/themes/theme14/bg.gif
p1300
sg121
VEARTHPlX
p1301
sg123
I307
sg124
VEarth Pics
p1302
sg126
VDDEEF6
p1303
sg128
Nsg129
I2716721012
sg130
V131516
p1304
sbsg132
I68
sg133
V<a href="http://twitter.com/download/android" rel="nofollow">Twitter for Android</a>
p1305
sg135
(lp1306
sg129
I535852276342992896
sbag3
(g4
g5
Ntp1307
Rp1308
(dp1309
g9
I102
sg10
Nsg11
Nsg12
(lp1310
sg14
I00
sg15
Nsg16
Nsg17
(lp1311
(dp1312
Vsource_user_id
p1313
I1152279248
sVsource_status_id_str
p1314
V535606787857469440
p1315
sVexpanded_url
p1316
Vhttp://twitter.com/EarthPix/status/535606787857469440/photo/1
p1317
sVdisplay_url
p1318
Vpic.twitter.com/IjNY2EV9vw
p1319
sVurl
p1320
Vhttp://t.co/IjNY2EV9vw
p1321
sVmedia_url_https
p1322
Vhttps://pbs.twimg.com/media/B27biRtIYAA4ZO_.png
p1323
sVsource_user_id_str
p1324
V1152279248
p1325
sVsource_status_id
p1326
I535606787857469440
sVid_str
p1327
V535606787618398208
p1328
sVsizes
p1329
(dp1330
Vsmall
p1331
(dp1332
Vh
p1333
I510
sVresize
p1334
Vfit
p1335
sVw
p1336
I340
ssVlarge
p1337
(dp1338
Vh
p1339
I750
sVresize
p1340
Vfit
p1341
sVw
p1342
I500
ssVmedium
p1343
(dp1344
Vh
p1345
I750
sVresize
p1346
Vfit
p1347
sVw
p1348
I500
ssVthumb
p1349
(dp1350
Vh
p1351
I150
sVresize
p1352
Vcrop
p1353
sVw
p1354
I150
sssVindices
p1355
(lp1356
I31
aI53
asVtype
p1357
Vphoto
p1358
sVid
p1359
I535606787618398208
sVmedia_url
p1360
Vhttp://pbs.twimg.com/media/B27biRtIYAA4ZO_.png
p1361
sasg63
Nsg64
Nsg65
Nsg66
VFri Nov 21 08:31:43 +0000 2014
p1362
sg68
Nsg69
I00
sg70
Nsg71
Nsg72
Nsg73
Nsg74
I00
sg75
Nsg76
(lp1363
sg78
Nsg79
Nsg80
Nsg81
VBoat House in Obersee, Germany http://t.co/IjNY2EV9vw
p1364
sg83
I00
sg84
Ven
p1365
sg86
g3
(g87
g5
Ntp1366
Rp1367
(dp1368
g10
VSydney
p1369
sg92
V333333
p1370
sg94
Ven
p1371
sg96
VNew Delhi
p1372
sg98
I116467
sg99
I1776
sg66
VFri Aug 08 09:41:19 +0000 2014
p1373
sg101
I00
sg102
VAmazing Pictures of Places,People,Animals, and Nature. World Wide
p1374
sg104
Vhttps://pbs.twimg.com/profile_images/516896284255322112/pPgesN52_normal.jpeg
p1375
sg106
I106642
sg107
I5
sg108
I19800
sg109
Nsg110
I00
sg111
Vhttps://pbs.twimg.com/profile_banners/2716721012/1412074836
p1376
sg113
I00
sg114
I01
sg115
VDE16C0
p1377
sg117
I01
sg118
I00
sg119
Vhttp://abs.twimg.com/images/themes/theme14/bg.gif
p1378
sg121
VEARTHPlX
p1379
sg123
I307
sg124
VEarth Pics
p1380
sg126
VDDEEF6
p1381
sg128
Nsg129
I2716721012
sg130
V131516
p1382
sbsg132
I76
sg133
V<a href="http://twitter.com/download/android" rel="nofollow">Twitter for Android</a>
p1383
sg135
(lp1384
sg129
I535712148874207232
sbaa.