(lp0
S'DolickVilla'
p1
a(lp2
ccopy_reg
_reconstructor
p3
(ctwitter.status
Status
p4
c__builtin__
object
p5
Ntp6
Rp7
(dp8
S'_favorite_count'
p9
I0
sS'_location'
p10
NsS'_withheld_scope'
p11
NsS'hashtags'
p12
(lp13
sS'_truncated'
p14
I00
sS'_retweeted_status'
p15
g3
(g4
g5
Ntp16
Rp17
(dp18
g9
I197
sg10
Nsg11
Nsg12
(lp19
sg14
I00
sg15
NsS'_withheld_copyright'
p20
NsS'media'
p21
(lp22
(dp23
Vexpanded_url
p24
Vhttp://twitter.com/ThatBucketList/status/544016514119380993/photo/1
p25
sVdisplay_url
p26
Vpic.twitter.com/Tu5c6fGWDA
p27
sVurl
p28
Vhttp://t.co/Tu5c6fGWDA
p29
sVmedia_url_https
p30
Vhttps://pbs.twimg.com/media/B4y8IxyIMAA4Ev3.jpg
p31
sVid_str
p32
V544016513993551872
p33
sVsizes
p34
(dp35
Vsmall
p36
(dp37
Vh
p38
I340
sVresize
p39
Vfit
p40
sVw
p41
I340
ssVlarge
p42
(dp43
Vh
p44
I500
sVresize
p45
Vfit
p46
sVw
p47
I500
ssVmedium
p48
(dp49
Vh
p50
I500
sVresize
p51
Vfit
p52
sVw
p53
I500
ssVthumb
p54
(dp55
Vh
p56
I150
sVresize
p57
Vcrop
p58
sVw
p59
I150
sssVindices
p60
(lp61
I28
aI50
asVtype
p62
Vphoto
p63
sVid
p64
I544016513993551872
sVmedia_url
p65
Vhttp://pbs.twimg.com/media/B4y8IxyIMAA4Ev3.jpg
p66
sasS'_place'
p67
NsS'_contributors'
p68
NsS'_current_user_retweet'
p69
NsS'_created_at'
p70
VSun Dec 14 06:30:18 +0000 2014
p71
sS'_scopes'
p72
NsS'_possibly_sensitive'
p73
I00
sS'_in_reply_to_screen_name'
p74
NsS'_coordinates'
p75
NsS'_in_reply_to_user_id'
p76
NsS'_geo'
p77
NsS'_favorited'
p78
I00
sS'_withheld_in_countries'
p79
NsS'user_mentions'
p80
(lp81
sS'_now'
p82
NsS'_id_str'
p83
NsS'_in_reply_to_status_id'
p84
NsS'_text'
p85
VLoving the Creed Notre-Dame http://t.co/Tu5c6fGWDA
p86
sS'_retweeted'
p87
I00
sS'lang'
p88
Ven
p89
sS'_user'
p90
g3
(ctwitter.user
User
p91
g5
Ntp92
Rp93
(dp94
g10
V
p95
sS'_profile_text_color'
p96
V333333
p97
sS'_lang'
p98
Ven
p99
sS'_time_zone'
p100
VMumbai
p101
sS'_followers_count'
p102
I1020629
sS'_statuses_count'
p103
I2788
sg70
VTue Jun 28 09:42:09 +0000 2011
p104
sS'_verified'
p105
I00
sS'_description'
p106
V\u2665 Whats on your bucket list? \u2665
p107
sS'_profile_image_url'
p108
Vhttps://pbs.twimg.com/profile_images/539132741543931904/11gJCxyO_normal.png
p109
sS'_friends_count'
p110
I161
sS'_favourites_count'
p111
I836
sS'_utc_offset'
p112
I19800
sS'_status'
p113
NsS'_protected'
p114
I00
sS'_profile_banner_url'
p115
Vhttps://pbs.twimg.com/profile_banners/325451111/1417374267
p116
sS'_notifications'
p117
I00
sS'_profile_background_tile'
p118
I00
sS'_profile_link_color'
p119
V43BFC7
p120
sS'_geo_enabled'
p121
I00
sS'_contributors_enabled'
p122
I00
sS'_profile_background_image_url'
p123
Vhttp://pbs.twimg.com/profile_background_images/668979824/b86ac03239092adcd85972c625f626d1.jpeg
p124
sS'_screen_name'
p125
VThatBucketList
p126
sS'_listed_count'
p127
I1343
sS'_name'
p128
VThe Bucket List
p129
sS'_profile_sidebar_fill_color'
p130
VFFFFFF
p131
sS'_url'
p132
NsS'_id'
p133
I325451111
sS'_profile_background_color'
p134
VB2DFDA
p135
sbsS'_retweet_count'
p136
I93
sS'_source'
p137
V<a href="http://bufferapp.com" rel="nofollow">Buffer</a>
p138
sS'urls'
p139
(lp140
sg133
I544016514119380993
sbsg20
Nsg21
(lp141
(dp142
Vsource_user_id
p143
I325451111
sVsource_status_id_str
p144
V544016514119380993
p145
sVexpanded_url
p146
Vhttp://twitter.com/ThatBucketList/status/544016514119380993/photo/1
p147
sVdisplay_url
p148
Vpic.twitter.com/Tu5c6fGWDA
p149
sVurl
p150
Vhttp://t.co/Tu5c6fGWDA
p151
sVmedia_url_https
p152
Vhttps://pbs.twimg.com/media/B4y8IxyIMAA4Ev3.jpg
p153
sVsource_user_id_str
p154
V325451111
p155
sVsource_status_id
p156
I544016514119380993
sVid_str
p157
V544016513993551872
p158
sVsizes
p159
(dp160
Vsmall
p161
(dp162
Vh
p163
I340
sVresize
p164
Vfit
p165
sVw
p166
I340
ssVlarge
p167
(dp168
Vh
p169
I500
sVresize
p170
Vfit
p171
sVw
p172
I500
ssVmedium
p173
(dp174
Vh
p175
I500
sVresize
p176
Vfit
p177
sVw
p178
I500
ssVthumb
p179
(dp180
Vh
p181
I150
sVresize
p182
Vcrop
p183
sVw
p184
I150
sssVindices
p185
(lp186
I48
aI70
asVtype
p187
Vphoto
p188
sVid
p189
I544016513993551872
sVmedia_url
p190
Vhttp://pbs.twimg.com/media/B4y8IxyIMAA4Ev3.jpg
p191
sasg67
Nsg68
Nsg69
Nsg70
VSun Dec 14 11:32:15 +0000 2014
p192
sg72
Nsg73
I00
sg74
Nsg75
Nsg76
Nsg77
Nsg78
I00
sg79
Nsg80
(lp193
g3
(g91
g5
Ntp194
Rp195
(dp196
g10
Nsg96
Nsg98
Nsg100
Nsg102
Nsg103
Nsg70
Nsg105
Nsg106
Nsg108
Nsg110
Nsg111
Nsg112
Nsg113
Nsg114
Nsg115
Nsg117
Nsg118
Nsg119
Nsg121
Nsg122
Nsg123
Nsg125
VThatBucketList
p197
sg127
Nsg128
VThe Bucket List
p198
sg130
Nsg132
Nsg133
I325451111
sg134
Nsbasg82
Nsg83
Nsg84
Nsg85
VRT @ThatBucketList: Loving the Creed Notre-Dame http://t.co/Tu5c6fGWDA
p199
sg87
I00
sg88
Ven
p200
sg90
g3
(g91
g5
Ntp201
Rp202
(dp203
g10
g95
sg96
V333333
p204
sg98
Ven
p205
sg100
Nsg102
I186
sg103
I1167
sg70
VSun Sep 21 03:33:45 +0000 2014
p206
sg105
I00
sg106
g95
sg108
Vhttps://abs.twimg.com/sticky/default_profile_images/default_profile_5_normal.png
p207
sg110
I1163
sg111
I2473
sg112
Nsg113
Nsg114
I00
sg115
Nsg117
I00
sg118
I00
sg119
V0084B4
p208
sg121
I00
sg122
I00
sg123
Vhttp://abs.twimg.com/images/themes/theme1/bg.png
p209
sg125
VDolickVilla
p210
sg127
I1
sg128
VDolick Villa
p211
sg130
VDDEEF6
p212
sg132
Nsg133
I2823346195
sg134
VC0DEED
p213
sbsg136
I93
sg137
V<a href="http://twitter.com/download/iphone" rel="nofollow">Twitter for iPhone</a>
p214
sg139
(lp215
sg133
I544092500080607232
sbag3
(g4
g5
Ntp216
Rp217
(dp218
g9
I0
sg10
Nsg11
Nsg12
(lp219
sg14
I00
sg15
g3
(g4
g5
Ntp220
Rp221
(dp222
g9
I187
sg10
Nsg11
Nsg12
(lp223
sg14
I00
sg15
Nsg20
Nsg21
(lp224
sg67
Nsg68
Nsg69
Nsg70
VSun Dec 14 06:30:20 +0000 2014
p225
sg72
Nsg73
Nsg74
Nsg75
Nsg76
Nsg77
Nsg78
I00
sg79
Nsg80
(lp226
sg82
Nsg83
Nsg84
Nsg85
VAfter reading this tweet you will realize that the the brain doesn\u2019t recognize a second \u201cthe\u201d\u201d
p227
sg87
I00
sg88
Ven
p228
sg90
g3
(g91
g5
Ntp229
Rp230
(dp231
g10
g95
sg96
V333333
p232
sg98
Ven
p233
sg100
VChennai
p234
sg102
I167716
sg103
I7735
sg70
VSat Jan 26 06:45:31 +0000 2013
p235
sg105
I00
sg106
VFacts which will blow your mind off\u000a         lalli.sukh@gmail.com
p236
sg108
Vhttps://pbs.twimg.com/profile_images/540114467938258944/JqqA6__n_normal.jpeg
p237
sg110
I149
sg111
I61
sg112
I19800
sg113
Nsg114
I00
sg115
Vhttps://pbs.twimg.com/profile_banners/1121163822/1417022349
p238
sg117
I00
sg118
I00
sg119
VFF3300
p239
sg121
I00
sg122
I00
sg123
Vhttp://abs.twimg.com/images/themes/theme6/bg.gif
p240
sg125
Vclassifiedfact
p241
sg127
I286
sg128
VClassified Facts
p242
sg130
VA0C5C7
p243
sg132
Nsg133
I1121163822
sg134
V709397
p244
sbsg136
I257
sg137
V<a href="http://www.hootsuite.com" rel="nofollow">Hootsuite</a>
p245
sg139
(lp246
sg133
I544016521136443394
sbsg20
Nsg21
(lp247
sg67
Nsg68
Nsg69
Nsg70
VSun Dec 14 11:32:08 +0000 2014
p248
sg72
Nsg73
Nsg74
Nsg75
Nsg76
Nsg77
Nsg78
I00
sg79
Nsg80
(lp249
g3
(g91
g5
Ntp250
Rp251
(dp252
g10
Nsg96
Nsg98
Nsg100
Nsg102
Nsg103
Nsg70
Nsg105
Nsg106
Nsg108
Nsg110
Nsg111
Nsg112
Nsg113
Nsg114
Nsg115
Nsg117
Nsg118
Nsg119
Nsg121
Nsg122
Nsg123
Nsg125
Vclassifiedfact
p253
sg127
Nsg128
VClassified Facts
p254
sg130
Nsg132
Nsg133
I1121163822
sg134
Nsbasg82
Nsg83
Nsg84
Nsg85
VRT @classifiedfact: After reading this tweet you will realize that the the brain doesn\u2019t recognize a second \u201cthe\u201d\u201d
p255
sg87
I00
sg88
Ven
p256
sg90
g3
(g91
g5
Ntp257
Rp258
(dp259
g10
g95
sg96
V333333
p260
sg98
Ven
p261
sg100
Nsg102
I186
sg103
I1167
sg70
VSun Sep 21 03:33:45 +0000 2014
p262
sg105
I00
sg106
g95
sg108
Vhttps://abs.twimg.com/sticky/default_profile_images/default_profile_5_normal.png
p263
sg110
I1163
sg111
I2473
sg112
Nsg113
Nsg114
I00
sg115
Nsg117
I00
sg118
I00
sg119
V0084B4
p264
sg121
I00
sg122
I00
sg123
Vhttp://abs.twimg.com/images/themes/theme1/bg.png
p265
sg125
VDolickVilla
p266
sg127
I1
sg128
VDolick Villa
p267
sg130
VDDEEF6
p268
sg132
Nsg133
I2823346195
sg134
VC0DEED
p269
sbsg136
I257
sg137
V<a href="http://twitter.com/download/iphone" rel="nofollow">Twitter for iPhone</a>
p270
sg139
(lp271
sg133
I544092472188469248
sbag3
(g4
g5
Ntp272
Rp273
(dp274
g9
I0
sg10
Nsg11
Nsg12
(lp275
sg14
I00
sg15
g3
(g4
g5
Ntp276
Rp277
(dp278
g9
I98
sg10
Nsg11
Nsg12
(lp279
sg14
I00
sg15
Nsg20
Nsg21
(lp280
sg67
Nsg68
Nsg69
Nsg70
VSun Dec 14 06:30:21 +0000 2014
p281
sg72
Nsg73
Nsg74
Nsg75
Nsg76
Nsg77
Nsg78
I00
sg79
Nsg80
(lp282
sg82
Nsg83
Nsg84
Nsg85
VChinese police increasingly use geese instead of police dogs because of their aggressiveness and superior vision.
p283
sg87
I00
sg88
Ven
p284
sg90
g3
(g91
g5
Ntp285
Rp286
(dp287
g10
VINDIA (Delhi)
p288
sg96
V333333
p289
sg98
Ven
p290
sg100
VChennai
p291
sg102
I1515312
sg103
I47249
sg70
VThu Mar 15 05:25:17 +0000 2012
p292
sg105
I00
sg106
VFollow us & enjoy the Secret Facts that u are not aware.You won't be leaving this page without learning something new Trust me #Contact nickoberoi2007@gmail.com
p293
sg108
Vhttps://pbs.twimg.com/profile_images/536868343970426880/mxBIdwGL_normal.jpeg
p294
sg110
I165
sg111
I336
sg112
I19800
sg113
Nsg114
I00
sg115
Vhttps://pbs.twimg.com/profile_banners/525060895/1416518363
p295
sg117
I00
sg118
I00
sg119
V0084B4
p296
sg121
I00
sg122
I00
sg123
Vhttp://abs.twimg.com/images/themes/theme15/bg.png
p297
sg125
VUnusualFactPage
p298
sg127
I2753
sg128
VPsychological TRUTH\u2122
p299
sg130
VC0DFEC
p300
sg132
Vhttps://t.co/TZ8AQbq0wD
p301
sg133
I525060895
sg134
V022330
p302
sbsg136
I47
sg137
V<a href="http://bufferapp.com" rel="nofollow">Buffer</a>
p303
sg139
(lp304
sg133
I544016524017938432
sbsg20
Nsg21
(lp305
sg67
Nsg68
Nsg69
Nsg70
VSun Dec 14 11:31:40 +0000 2014
p306
sg72
Nsg73
Nsg74
Nsg75
Nsg76
Nsg77
Nsg78
I00
sg79
Nsg80
(lp307
g3
(g91
g5
Ntp308
Rp309
(dp310
g10
Nsg96
Nsg98
Nsg100
Nsg102
Nsg103
Nsg70
Nsg105
Nsg106
Nsg108
Nsg110
Nsg111
Nsg112
Nsg113
Nsg114
Nsg115
Nsg117
Nsg118
Nsg119
Nsg121
Nsg122
Nsg123
Nsg125
VUnusualFactPage
p311
sg127
Nsg128
VPsychological TRUTH\u2122
p312
sg130
Nsg132
Nsg133
I525060895
sg134
Nsbasg82
Nsg83
Nsg84
Nsg85
VRT @UnusualFactPage: Chinese police increasingly use geese instead of police dogs because of their aggressiveness and superior vision.
p313
sg87
I00
sg88
Ven
p314
sg90
g3
(g91
g5
Ntp315
Rp316
(dp317
g10
g95
sg96
V333333
p318
sg98
Ven
p319
sg100
Nsg102
I186
sg103
I1167
sg70
VSun Sep 21 03:33:45 +0000 2014
p320
sg105
I00
sg106
g95
sg108
Vhttps://abs.twimg.com/sticky/default_profile_images/default_profile_5_normal.png
p321
sg110
I1163
sg111
I2473
sg112
Nsg113
Nsg114
I00
sg115
Nsg117
I00
sg118
I00
sg119
V0084B4
p322
sg121
I00
sg122
I00
sg123
Vhttp://abs.twimg.com/images/themes/theme1/bg.png
p323
sg125
VDolickVilla
p324
sg127
I1
sg128
VDolick Villa
p325
sg130
VDDEEF6
p326
sg132
Nsg133
I2823346195
sg134
VC0DEED
p327
sbsg136
I47
sg137
V<a href="http://twitter.com/download/iphone" rel="nofollow">Twitter for iPhone</a>
p328
sg139
(lp329
sg133
I544092353850380288
sbag3
(g4
g5
Ntp330
Rp331
(dp332
g9
I0
sg10
Nsg11
Nsg12
(lp333
sg14
I00
sg15
g3
(g4
g5
Ntp334
Rp335
(dp336
g9
I292
sg10
Nsg11
Nsg12
(lp337
sg14
I00
sg15
Nsg20
Nsg21
(lp338
sg67
Nsg68
Nsg69
Nsg70
VSun Dec 14 06:30:30 +0000 2014
p339
sg72
Nsg73
Nsg74
Nsg75
Nsg76
Nsg77
Nsg78
I00
sg79
Nsg80
(lp340
sg82
Nsg83
Nsg84
Nsg85
VThe person who tries to keep everyone happy is the most 'lonely' person.
p341
sg87
I00
sg88
Ven
p342
sg90
g3
(g91
g5
Ntp343
Rp344
(dp345
g10
g95
sg96
V333333
p346
sg98
Ven
p347
sg100
VAsia/Kolkata
p348
sg102
I1732950
sg103
I43157
sg70
VSat Jul 07 07:07:07 +0000 2012
p349
sg105
I00
sg106
VGeneral Knowledge, Interesting Facts, Amazing facts, Latest facts. Known is a drop and Unknown is an Ocean.  #Contact - neverknownfactz@gmail.com |
p350
sg108
Vhttps://pbs.twimg.com/profile_images/433727047899168768/EHTGMaaQ_normal.jpeg
p351
sg110
I150
sg111
I559
sg112
I19800
sg113
Nsg114
I00
sg115
Vhttps://pbs.twimg.com/profile_banners/629097517/1393084143
p352
sg117
I00
sg118
I00
sg119
VF01616
p353
sg121
I00
sg122
I00
sg123
Vhttp://pbs.twimg.com/profile_background_images/435228401796804608/WDoI2D4p.jpeg
p354
sg125
Vneverknownfacts
p355
sg127
I3081
sg128
VInteresting Facts
p356
sg130
VEFEFEF
p357
sg132
Vhttp://t.co/HvUwXn3DQ0
p358
sg133
I629097517
sg134
VFFFFFF
p359
sbsg136
I277
sg137
V<a href="http://bufferapp.com" rel="nofollow">Buffer</a>
p360
sg139
(lp361
sg133
I544016561699577857
sbsg20
Nsg21
(lp362
sg67
Nsg68
Nsg69
Nsg70
VSun Dec 14 11:31:24 +0000 2014
p363
sg72
Nsg73
Nsg74
Nsg75
Nsg76
Nsg77
Nsg78
I00
sg79
Nsg80
(lp364
g3
(g91
g5
Ntp365
Rp366
(dp367
g10
Nsg96
Nsg98
Nsg100
Nsg102
Nsg103
Nsg70
Nsg105
Nsg106
Nsg108
Nsg110
Nsg111
Nsg112
Nsg113
Nsg114
Nsg115
Nsg117
Nsg118
Nsg119
Nsg121
Nsg122
Nsg123
Nsg125
Vneverknownfacts
p368
sg127
Nsg128
VInteresting Facts
p369
sg130
Nsg132
Nsg133
I629097517
sg134
Nsbasg82
Nsg83
Nsg84
Nsg85
VRT @neverknownfacts: The person who tries to keep everyone happy is the most 'lonely' person.
p370
sg87
I00
sg88
Ven
p371
sg90
g3
(g91
g5
Ntp372
Rp373
(dp374
g10
g95
sg96
V333333
p375
sg98
Ven
p376
sg100
Nsg102
I186
sg103
I1167
sg70
VSun Sep 21 03:33:45 +0000 2014
p377
sg105
I00
sg106
g95
sg108
Vhttps://abs.twimg.com/sticky/default_profile_images/default_profile_5_normal.png
p378
sg110
I1163
sg111
I2473
sg112
Nsg113
Nsg114
I00
sg115
Nsg117
I00
sg118
I00
sg119
V0084B4
p379
sg121
I00
sg122
I00
sg123
Vhttp://abs.twimg.com/images/themes/theme1/bg.png
p380
sg125
VDolickVilla
p381
sg127
I1
sg128
VDolick Villa
p382
sg130
VDDEEF6
p383
sg132
Nsg133
I2823346195
sg134
VC0DEED
p384
sbsg136
I277
sg137
V<a href="http://twitter.com/download/iphone" rel="nofollow">Twitter for iPhone</a>
p385
sg139
(lp386
sg133
I544092286930259968
sbag3
(g4
g5
Ntp387
Rp388
(dp389
g9
I0
sg10
Nsg11
Nsg12
(lp390
sg14
I00
sg15
g3
(g4
g5
Ntp391
Rp392
(dp393
g9
I5
sg10
Nsg11
Nsg12
(lp394
sg14
I00
sg15
Nsg20
Nsg21
(lp395
(dp396
Vexpanded_url
p397
Vhttp://twitter.com/onanygirl/status/544016570188435456/photo/1
p398
sVdisplay_url
p399
Vpic.twitter.com/ASSMU7MtwR
p400
sVurl
p401
Vhttp://t.co/ASSMU7MtwR
p402
sVmedia_url_https
p403
Vhttps://pbs.twimg.com/media/B4y8MC6CIAAp2_M.jpg
p404
sVid_str
p405
V544016570129719296
p406
sVsizes
p407
(dp408
Vsmall
p409
(dp410
Vh
p411
I510
sVresize
p412
Vfit
p413
sVw
p414
I340
ssVlarge
p415
(dp416
Vh
p417
I901
sVresize
p418
Vfit
p419
sVw
p420
I600
ssVmedium
p421
(dp422
Vh
p423
I901
sVresize
p424
Vfit
p425
sVw
p426
I600
ssVthumb
p427
(dp428
Vh
p429
I150
sVresize
p430
Vcrop
p431
sVw
p432
I150
sssVindices
p433
(lp434
I12
aI34
asVtype
p435
Vphoto
p436
sVid
p437
I544016570129719296
sVmedia_url
p438
Vhttp://pbs.twimg.com/media/B4y8MC6CIAAp2_M.jpg
p439
sasg67
Nsg68
Nsg69
Nsg70
VSun Dec 14 06:30:32 +0000 2014
p440
sg72
Nsg73
I00
sg74
Nsg75
Nsg76
Nsg77
Nsg78
I00
sg79
Nsg80
(lp441
sg82
Nsg83
Nsg84
Nsg85
V\u30a8\u30ed\u3044\u3068\u601d\u3063\u305f\u3089RT\u266a http://t.co/ASSMU7MtwR
p442
sg87
I00
sg88
Vja
p443
sg90
g3
(g91
g5
Ntp444
Rp445
(dp446
g10
g95
sg96
V333333
p447
sg98
Vja
p448
sg100
Nsg102
I8680
sg103
I5953
sg70
VSat Jul 06 08:03:45 +0000 2013
p449
sg105
I00
sg106
V\u6c99\u7e54\u307f\u307f\u3067\uff5e\u3059\u2605\u304a\u30ca\u30cb\u30fc\u5973\u5b50\u3067\uff5e\u3059\u2605\u2605\u6bce\u65e5\u8cb4\u65b9\u306e\u304a\u304b\u305a\u753b\u50cf\u3092\u30c4\u30a4\uff5e\u30c8\u3057\u307e\uff5e\u3059\u2606\u2606\u000a\u30a8\u30c3\u30c1\u304b\u3063\u305f\u3089RT\u304a\u9858\u3044\u3057\u307e\u3059\u306d\uff5e\u2661
p450
sg108
Vhttps://pbs.twimg.com/profile_images/378800000103459145/2c24399f884074fdad117bb7c32f1de9_normal.jpeg
p451
sg110
I5403
sg111
I0
sg112
Nsg113
Nsg114
I00
sg115
Vhttps://pbs.twimg.com/profile_banners/1572285655/1405108721
p452
sg117
I00
sg118
I01
sg119
V93A644
p453
sg121
I00
sg122
I00
sg123
Vhttp://pbs.twimg.com/profile_background_images/487687637138825216/QReZjjiY.png
p454
sg125
Vonanygirl
p455
sg127
I30
sg128
V\u2661\u5927\u4eba\u306e\u304a\u304b\u305a\u2661\u753b\u50cf
p456
sg130
VFFFFFF
p457
sg132
Nsg133
I1572285655
sg134
VB2DFDA
p458
sbsg136
I5
sg137
V<a href="https://twitter.com/onanygirl" rel="nofollow">onanygirl4</a>
p459
sg139
(lp460
sg133
I544016570188435456
sbsg20
Nsg21
(lp461
(dp462
Vsource_user_id
p463
I1572285655
sVsource_status_id_str
p464
V544016570188435456
p465
sVexpanded_url
p466
Vhttp://twitter.com/onanygirl/status/544016570188435456/photo/1
p467
sVdisplay_url
p468
Vpic.twitter.com/ASSMU7MtwR
p469
sVurl
p470
Vhttp://t.co/ASSMU7MtwR
p471
sVmedia_url_https
p472
Vhttps://pbs.twimg.com/media/B4y8MC6CIAAp2_M.jpg
p473
sVsource_user_id_str
p474
V1572285655
p475
sVsource_status_id
p476
I544016570188435456
sVid_str
p477
V544016570129719296
p478
sVsizes
p479
(dp480
Vsmall
p481
(dp482
Vh
p483
I510
sVresize
p484
Vfit
p485
sVw
p486
I340
ssVlarge
p487
(dp488
Vh
p489
I901
sVresize
p490
Vfit
p491
sVw
p492
I600
ssVmedium
p493
(dp494
Vh
p495
I901
sVresize
p496
Vfit
p497
sVw
p498
I600
ssVthumb
p499
(dp500
Vh
p501
I150
sVresize
p502
Vcrop
p503
sVw
p504
I150
sssVindices
p505
(lp506
I27
aI49
asVtype
p507
Vphoto
p508
sVid
p509
I544016570129719296
sVmedia_url
p510
Vhttp://pbs.twimg.com/media/B4y8MC6CIAAp2_M.jpg
p511
sasg67
Nsg68
Nsg69
Nsg70
VSun Dec 14 11:31:15 +0000 2014
p512
sg72
Nsg73
I00
sg74
Nsg75
Nsg76
Nsg77
Nsg78
I00
sg79
Nsg80
(lp513
g3
(g91
g5
Ntp514
Rp515
(dp516
g10
Nsg96
Nsg98
Nsg100
Nsg102
Nsg103
Nsg70
Nsg105
Nsg106
Nsg108
Nsg110
Nsg111
Nsg112
Nsg113
Nsg114
Nsg115
Nsg117
Nsg118
Nsg119
Nsg121
Nsg122
Nsg123
Nsg125
Vonanygirl
p517
sg127
Nsg128
V\u2661\u5927\u4eba\u306e\u304a\u304b\u305a\u2661\u753b\u50cf
p518
sg130
Nsg132
Nsg133
I1572285655
sg134
Nsbasg82
Nsg83
Nsg84
Nsg85
VRT @onanygirl: \u30a8\u30ed\u3044\u3068\u601d\u3063\u305f\u3089RT\u266a http://t.co/ASSMU7MtwR
p519
sg87
I00
sg88
Vja
p520
sg90
g3
(g91
g5
Ntp521
Rp522
(dp523
g10
g95
sg96
V333333
p524
sg98
Ven
p525
sg100
Nsg102
I186
sg103
I1167
sg70
VSun Sep 21 03:33:45 +0000 2014
p526
sg105
I00
sg106
g95
sg108
Vhttps://abs.twimg.com/sticky/default_profile_images/default_profile_5_normal.png
p527
sg110
I1163
sg111
I2473
sg112
Nsg113
Nsg114
I00
sg115
Nsg117
I00
sg118
I00
sg119
V0084B4
p528
sg121
I00
sg122
I00
sg123
Vhttp://abs.twimg.com/images/themes/theme1/bg.png
p529
sg125
VDolickVilla
p530
sg127
I1
sg128
VDolick Villa
p531
sg130
VDDEEF6
p532
sg132
Nsg133
I2823346195
sg134
VC0DEED
p533
sbsg136
I5
sg137
V<a href="http://twitter.com/download/iphone" rel="nofollow">Twitter for iPhone</a>
p534
sg139
(lp535
sg133
I544092248032288768
sbag3
(g4
g5
Ntp536
Rp537
(dp538
g9
I0
sg10
Nsg11
Nsg12
(lp539
sg14
I00
sg15
g3
(g4
g5
Ntp540
Rp541
(dp542
g9
I884
sg10
Nsg11
Nsg12
(lp543
sg14
I00
sg15
Nsg20
Nsg21
(lp544
sg67
Nsg68
Nsg69
Nsg70
VSun Dec 14 06:32:01 +0000 2014
p545
sg72
Nsg73
Nsg74
Nsg75
Nsg76
Nsg77
Nsg78
I00
sg79
Nsg80
(lp546
sg82
Nsg83
Nsg84
Nsg85
VSurround yourself with those who see greatness in you, even when you don't see it in yourself.
p547
sg87
I00
sg88
Ven
p548
sg90
g3
(g91
g5
Ntp549
Rp550
(dp551
g10
g95
sg96
V333333
p552
sg98
Ven
p553
sg100
VNew Delhi
p554
sg102
I3103066
sg103
I40175
sg70
VSun Mar 28 15:27:07 +0000 2010
p555
sg105
I00
sg106
VChange your thoughts and you change your world. A daily dose of wisdom. IG: http://t.co/j23jLsQ5Y1
p556
sg108
Vhttps://pbs.twimg.com/profile_images/476416284117049345/vJnf1um3_normal.jpeg
p557
sg110
I111
sg111
I9485
sg112
I19800
sg113
Nsg114
I00
sg115
Vhttps://pbs.twimg.com/profile_banners/127245578/1404306813
p558
sg117
I00
sg118
I00
sg119
V0084B4
p559
sg121
I00
sg122
I00
sg123
Vhttp://pbs.twimg.com/profile_background_images/441005691050786818/VV4YTCU4.png
p560
sg125
Vfunnyortruth
p561
sg127
I8460
sg128
VPhilosophy
p562
sg130
VEADEAA
p563
sg132
Vhttp://t.co/yVbBJ09L1j
p564
sg133
I127245578
sg134
VABB8C2
p565
sbsg136
I976
sg137
V<a href="http://bufferapp.com" rel="nofollow">Buffer</a>
p566
sg139
(lp567
sg133
I544016945667145728
sbsg20
Nsg21
(lp568
sg67
Nsg68
Nsg69
Nsg70
VSun Dec 14 11:29:49 +0000 2014
p569
sg72
Nsg73
Nsg74
Nsg75
Nsg76
Nsg77
Nsg78
I00
sg79
Nsg80
(lp570
g3
(g91
g5
Ntp571
Rp572
(dp573
g10
Nsg96
Nsg98
Nsg100
Nsg102
Nsg103
Nsg70
Nsg105
Nsg106
Nsg108
Nsg110
Nsg111
Nsg112
Nsg113
Nsg114
Nsg115
Nsg117
Nsg118
Nsg119
Nsg121
Nsg122
Nsg123
Nsg125
Vfunnyortruth
p574
sg127
Nsg128
VPhilosophy
p575
sg130
Nsg132
Nsg133
I127245578
sg134
Nsbasg82
Nsg83
Nsg84
Nsg85
VRT @funnyortruth: Surround yourself with those who see greatness in you, even when you don't see it in yourself.
p576
sg87
I00
sg88
Ven
p577
sg90
g3
(g91
g5
Ntp578
Rp579
(dp580
g10
g95
sg96
V333333
p581
sg98
Ven
p582
sg100
Nsg102
I186
sg103
I1167
sg70
VSun Sep 21 03:33:45 +0000 2014
p583
sg105
I00
sg106
g95
sg108
Vhttps://abs.twimg.com/sticky/default_profile_images/default_profile_5_normal.png
p584
sg110
I1163
sg111
I2473
sg112
Nsg113
Nsg114
I00
sg115
Nsg117
I00
sg118
I00
sg119
V0084B4
p585
sg121
I00
sg122
I00
sg123
Vhttp://abs.twimg.com/images/themes/theme1/bg.png
p586
sg125
VDolickVilla
p587
sg127
I1
sg128
VDolick Villa
p588
sg130
VDDEEF6
p589
sg132
Nsg133
I2823346195
sg134
VC0DEED
p590
sbsg136
I976
sg137
V<a href="http://twitter.com/download/iphone" rel="nofollow">Twitter for iPhone</a>
p591
sg139
(lp592
sg133
I544091889184415745
sbag3
(g4
g5
Ntp593
Rp594
(dp595
g9
I0
sg10
Nsg11
Nsg12
(lp596
sg14
I00
sg15
g3
(g4
g5
Ntp597
Rp598
(dp599
g9
I509
sg10
Nsg11
Nsg12
(lp600
sg14
I00
sg15
Nsg20
Nsg21
(lp601
sg67
Nsg68
Nsg69
Nsg70
VSun Dec 14 06:32:04 +0000 2014
p602
sg72
Nsg73
Nsg74
Nsg75
Nsg76
Nsg77
Nsg78
I00
sg79
Nsg80
(lp603
sg82
Nsg83
Nsg84
Nsg85
VA person will hate you for 3 main reasons: They see you as a threat, They hate themselves, and they want to be you.
p604
sg87
I00
sg88
Ven
p605
sg90
g3
(g91
g5
Ntp606
Rp607
(dp608
g10
VWorld
p609
sg96
V333333
p610
sg98
Ven
p611
sg100
VMumbai
p612
sg102
I1868210
sg103
I16893
sg70
VSat Sep 12 07:20:45 +0000 2009
p613
sg105
I00
sg106
VThe #1 Source for Unique Facts you might never heard before. All Facts are from Verified Source. Email: TheFacts101@live.com
p614
sg108
Vhttps://pbs.twimg.com/profile_images/438391349012729856/Ga1MNISw_normal.png
p615
sg110
I864
sg111
I1095
sg112
I19800
sg113
Nsg114
I00
sg115
Vhttps://pbs.twimg.com/profile_banners/73593143/1393355674
p616
sg117
I00
sg118
I00
sg119
V0099CC
p617
sg121
I00
sg122
I00
sg123
Vhttp://pbs.twimg.com/profile_background_images/432589156414267392/liXvfcpD.jpeg
p618
sg125
VTheKnowledge
p619
sg127
I4276
sg128
VKnowledge
p620
sg130
VF6FFD1
p621
sg132
Nsg133
I73593143
sg134
VFFF04D
p622
sbsg136
I525
sg137
V<a href="http://bufferapp.com" rel="nofollow">Buffer</a>
p623
sg139
(lp624
sg133
I544016954739400704
sbsg20
Nsg21
(lp625
sg67
Nsg68
Nsg69
Nsg70
VSun Dec 14 11:29:21 +0000 2014
p626
sg72
Nsg73
Nsg74
Nsg75
Nsg76
Nsg77
Nsg78
I00
sg79
Nsg80
(lp627
g3
(g91
g5
Ntp628
Rp629
(dp630
g10
Nsg96
Nsg98
Nsg100
Nsg102
Nsg103
Nsg70
Nsg105
Nsg106
Nsg108
Nsg110
Nsg111
Nsg112
Nsg113
Nsg114
Nsg115
Nsg117
Nsg118
Nsg119
Nsg121
Nsg122
Nsg123
Nsg125
VTheKnowledge
p631
sg127
Nsg128
VKnowledge
p632
sg130
Nsg132
Nsg133
I73593143
sg134
Nsbasg82
Nsg83
Nsg84
Nsg85
VRT @TheKnowledge: A person will hate you for 3 main reasons: They see you as a threat, They hate themselves, and they want to be you.
p633
sg87
I00
sg88
Ven
p634
sg90
g3
(g91
g5
Ntp635
Rp636
(dp637
g10
g95
sg96
V333333
p638
sg98
Ven
p639
sg100
Nsg102
I186
sg103
I1167
sg70
VSun Sep 21 03:33:45 +0000 2014
p640
sg105
I00
sg106
g95
sg108
Vhttps://abs.twimg.com/sticky/default_profile_images/default_profile_5_normal.png
p641
sg110
I1163
sg111
I2473
sg112
Nsg113
Nsg114
I00
sg115
Nsg117
I00
sg118
I00
sg119
V0084B4
p642
sg121
I00
sg122
I00
sg123
Vhttp://abs.twimg.com/images/themes/theme1/bg.png
p643
sg125
VDolickVilla
p644
sg127
I1
sg128
VDolick Villa
p645
sg130
VDDEEF6
p646
sg132
Nsg133
I2823346195
sg134
VC0DEED
p647
sbsg136
I525
sg137
V<a href="http://twitter.com/download/iphone" rel="nofollow">Twitter for iPhone</a>
p648
sg139
(lp649
sg133
I544091769885827072
sbag3
(g4
g5
Ntp650
Rp651
(dp652
g9
I0
sg10
Nsg11
Nsg12
(lp653
sg14
I00
sg15
g3
(g4
g5
Ntp654
Rp655
(dp656
g9
I203
sg10
Nsg11
Nsg12
(lp657
sg14
I00
sg15
Nsg20
Nsg21
(lp658
(dp659
Vexpanded_url
p660
Vhttp://twitter.com/ThislsAmazing/status/542339480053485569/photo/1
p661
sVdisplay_url
p662
Vpic.twitter.com/WYyASufgfH
p663
sVurl
p664
Vhttp://t.co/WYyASufgfH
p665
sVmedia_url_https
p666
Vhttps://pbs.twimg.com/media/B4bG3sVCcAAEBy4.jpg
p667
sVid_str
p668
V542339465239228416
p669
sVsizes
p670
(dp671
Vsmall
p672
(dp673
Vh
p674
I232
sVresize
p675
Vfit
p676
sVw
p677
I340
ssVlarge
p678
(dp679
Vh
p680
I615
sVresize
p681
Vfit
p682
sVw
p683
I900
ssVmedium
p684
(dp685
Vh
p686
I410
sVresize
p687
Vfit
p688
sVw
p689
I600
ssVthumb
p690
(dp691
Vh
p692
I150
sVresize
p693
Vcrop
p694
sVw
p695
I150
sssVindices
p696
(lp697
I85
aI107
asVtype
p698
Vphoto
p699
sVid
p700
I542339465239228416
sVmedia_url
p701
Vhttp://pbs.twimg.com/media/B4bG3sVCcAAEBy4.jpg
p702
sasg67
Nsg68
Nsg69
Nsg70
VTue Dec 09 15:26:22 +0000 2014
p703
sg72
Nsg73
I01
sg74
Nsg75
Nsg76
Nsg77
Nsg78
I00
sg79
Nsg80
(lp704
sg82
Nsg83
Nsg84
Nsg85
VMarilyn Monroe and Clark Gable on the set of the film Misfits, 1960 by Cornell Capa. http://t.co/WYyASufgfH
p705
sg87
I00
sg88
Ven
p706
sg90
g3
(g91
g5
Ntp707
Rp708
(dp709
g10
g95
sg96
V666666
p710
sg98
Ven
p711
sg100
VPacific Time (US & Canada)
p712
sg102
I3303394
sg103
I58202
sg70
VSun May 30 04:33:13 +0000 2010
p713
sg105
I00
sg106
VHistory is fun. Learn today. Be learnt tomorrow.  Contact: livingthehistorylife@gmail.com
p714
sg108
Vhttps://pbs.twimg.com/profile_images/542596647134318592/a3O3n8nw_normal.jpeg
p715
sg110
I13353
sg111
I443
sg112
I-28800
sg113
Nsg114
I00
sg115
Vhttps://pbs.twimg.com/profile_banners/149760844/1417429169
p716
sg117
I00
sg118
I00
sg119
VFFCC4D
p717
sg121
I01
sg122
I00
sg123
Vhttp://pbs.twimg.com/profile_background_images/472703723232182273/0X5Itz8E.jpeg
p718
sg125
VThislsAmazing
p719
sg127
I5107
sg128
VLost In History
p720
sg130
V252429
p721
sg132
Nsg133
I149760844
sg134
VDBE9ED
p722
sbsg136
I87
sg137
V<a href="http://twitter.com" rel="nofollow">Twitter Web Client</a>
p723
sg139
(lp724
sg133
I542339480053485569
sbsg20
Nsg21
(lp725
(dp726
Vsource_user_id
p727
I149760844
sVsource_status_id_str
p728
V542339480053485569
p729
sVexpanded_url
p730
Vhttp://twitter.com/ThislsAmazing/status/542339480053485569/photo/1
p731
sVdisplay_url
p732
Vpic.twitter.com/WYyASufgfH
p733
sVurl
p734
Vhttp://t.co/WYyASufgfH
p735
sVmedia_url_https
p736
Vhttps://pbs.twimg.com/media/B4bG3sVCcAAEBy4.jpg
p737
sVsource_user_id_str
p738
V149760844
p739
sVsource_status_id
p740
I542339480053485569
sVid_str
p741
V542339465239228416
p742
sVsizes
p743
(dp744
Vsmall
p745
(dp746
Vh
p747
I232
sVresize
p748
Vfit
p749
sVw
p750
I340
ssVlarge
p751
(dp752
Vh
p753
I615
sVresize
p754
Vfit
p755
sVw
p756
I900
ssVmedium
p757
(dp758
Vh
p759
I410
sVresize
p760
Vfit
p761
sVw
p762
I600
ssVthumb
p763
(dp764
Vh
p765
I150
sVresize
p766
Vcrop
p767
sVw
p768
I150
sssVindices
p769
(lp770
I104
aI126
asVtype
p771
Vphoto
p772
sVid
p773
I542339465239228416
sVmedia_url
p774
Vhttp://pbs.twimg.com/media/B4bG3sVCcAAEBy4.jpg
p775
sasg67
Nsg68
Nsg69
Nsg70
VSun Dec 14 11:28:21 +0000 2014
p776
sg72
Nsg73
I00
sg74
Nsg75
Nsg76
Nsg77
Nsg78
I00
sg79
Nsg80
(lp777
g3
(g91
g5
Ntp778
Rp779
(dp780
g10
Nsg96
Nsg98
Nsg100
Nsg102
Nsg103
Nsg70
Nsg105
Nsg106
Nsg108
Nsg110
Nsg111
Nsg112
Nsg113
Nsg114
Nsg115
Nsg117
Nsg118
Nsg119
Nsg121
Nsg122
Nsg123
Nsg125
VThislsAmazing
p781
sg127
Nsg128
VLost In History
p782
sg130
Nsg132
Nsg133
I149760844
sg134
Nsbasg82
Nsg83
Nsg84
Nsg85
VRT @ThislsAmazing: Marilyn Monroe and Clark Gable on the set of the film Misfits, 1960 by Cornell Capa. http://t.co/WYyASufgfH
p783
sg87
I00
sg88
Ven
p784
sg90
g3
(g91
g5
Ntp785
Rp786
(dp787
g10
g95
sg96
V333333
p788
sg98
Ven
p789
sg100
Nsg102
I186
sg103
I1167
sg70
VSun Sep 21 03:33:45 +0000 2014
p790
sg105
I00
sg106
g95
sg108
Vhttps://abs.twimg.com/sticky/default_profile_images/default_profile_5_normal.png
p791
sg110
I1163
sg111
I2473
sg112
Nsg113
Nsg114
I00
sg115
Nsg117
I00
sg118
I00
sg119
V0084B4
p792
sg121
I00
sg122
I00
sg123
Vhttp://abs.twimg.com/images/themes/theme1/bg.png
p793
sg125
VDolickVilla
p794
sg127
I1
sg128
VDolick Villa
p795
sg130
VDDEEF6
p796
sg132
Nsg133
I2823346195
sg134
VC0DEED
p797
sbsg136
I87
sg137
V<a href="http://twitter.com/download/iphone" rel="nofollow">Twitter for iPhone</a>
p798
sg139
(lp799
sg133
I544091518458290176
sbag3
(g4
g5
Ntp800
Rp801
(dp802
g9
I0
sg10
Nsg11
Nsg12
(lp803
sg14
I00
sg15
g3
(g4
g5
Ntp804
Rp805
(dp806
g9
I204
sg10
Nsg11
Nsg12
(lp807
sg14
I00
sg15
Nsg20
Nsg21
(lp808
(dp809
Vexpanded_url
p810
Vhttp://twitter.com/ThislsAmazing/status/542539397631971328/photo/1
p811
sVdisplay_url
p812
Vpic.twitter.com/5he3IEpEdj
p813
sVurl
p814
Vhttp://t.co/5he3IEpEdj
p815
sVmedia_url_https
p816
Vhttps://pbs.twimg.com/media/B4d8tLJCAAAUy8d.jpg
p817
sVid_str
p818
V542539395648061440
p819
sVsizes
p820
(dp821
Vlarge
p822
(dp823
Vh
p824
I590
sVresize
p825
Vfit
p826
sVw
p827
I834
ssVsmall
p828
(dp829
Vh
p830
I240
sVresize
p831
Vfit
p832
sVw
p833
I340
ssVmedium
p834
(dp835
Vh
p836
I424
sVresize
p837
Vfit
p838
sVw
p839
I600
ssVthumb
p840
(dp841
Vh
p842
I150
sVresize
p843
Vcrop
p844
sVw
p845
I150
sssVindices
p846
(lp847
I45
aI67
asVtype
p848
Vphoto
p849
sVid
p850
I542539395648061440
sVmedia_url
p851
Vhttp://pbs.twimg.com/media/B4d8tLJCAAAUy8d.jpg
p852
sasg67
Nsg68
Nsg69
Nsg70
VWed Dec 10 04:40:46 +0000 2014
p853
sg72
Nsg73
I01
sg74
Nsg75
Nsg76
Nsg77
Nsg78
I00
sg79
Nsg80
(lp854
sg82
Nsg83
Nsg84
Nsg85
V"Flying Octopus" - an early helicopter, 1923 http://t.co/5he3IEpEdj
p855
sg87
I00
sg88
Ven
p856
sg90
g3
(g91
g5
Ntp857
Rp858
(dp859
g10
g95
sg96
V666666
p860
sg98
Ven
p861
sg100
VPacific Time (US & Canada)
p862
sg102
I3303394
sg103
I58202
sg70
VSun May 30 04:33:13 +0000 2010
p863
sg105
I00
sg106
VHistory is fun. Learn today. Be learnt tomorrow.  Contact: livingthehistorylife@gmail.com
p864
sg108
Vhttps://pbs.twimg.com/profile_images/542596647134318592/a3O3n8nw_normal.jpeg
p865
sg110
I13353
sg111
I443
sg112
I-28800
sg113
Nsg114
I00
sg115
Vhttps://pbs.twimg.com/profile_banners/149760844/1417429169
p866
sg117
I00
sg118
I00
sg119
VFFCC4D
p867
sg121
I01
sg122
I00
sg123
Vhttp://pbs.twimg.com/profile_background_images/472703723232182273/0X5Itz8E.jpeg
p868
sg125
VThislsAmazing
p869
sg127
I5107
sg128
VLost In History
p870
sg130
V252429
p871
sg132
Nsg133
I149760844
sg134
VDBE9ED
p872
sbsg136
I87
sg137
V<a href="http://twitter.com" rel="nofollow">Twitter Web Client</a>
p873
sg139
(lp874
sg133
I542539397631971328
sbsg20
Nsg21
(lp875
(dp876
Vsource_user_id
p877
I149760844
sVsource_status_id_str
p878
V542539397631971328
p879
sVexpanded_url
p880
Vhttp://twitter.com/ThislsAmazing/status/542539397631971328/photo/1
p881
sVdisplay_url
p882
Vpic.twitter.com/5he3IEpEdj
p883
sVurl
p884
Vhttp://t.co/5he3IEpEdj
p885
sVmedia_url_https
p886
Vhttps://pbs.twimg.com/media/B4d8tLJCAAAUy8d.jpg
p887
sVsource_user_id_str
p888
V149760844
p889
sVsource_status_id
p890
I542539397631971328
sVid_str
p891
V542539395648061440
p892
sVsizes
p893
(dp894
Vlarge
p895
(dp896
Vh
p897
I590
sVresize
p898
Vfit
p899
sVw
p900
I834
ssVsmall
p901
(dp902
Vh
p903
I240
sVresize
p904
Vfit
p905
sVw
p906
I340
ssVmedium
p907
(dp908
Vh
p909
I424
sVresize
p910
Vfit
p911
sVw
p912
I600
ssVthumb
p913
(dp914
Vh
p915
I150
sVresize
p916
Vcrop
p917
sVw
p918
I150
sssVindices
p919
(lp920
I64
aI86
asVtype
p921
Vphoto
p922
sVid
p923
I542539395648061440
sVmedia_url
p924
Vhttp://pbs.twimg.com/media/B4d8tLJCAAAUy8d.jpg
p925
sasg67
Nsg68
Nsg69
Nsg70
VSun Dec 14 11:27:22 +0000 2014
p926
sg72
Nsg73
I00
sg74
Nsg75
Nsg76
Nsg77
Nsg78
I00
sg79
Nsg80
(lp927
g3
(g91
g5
Ntp928
Rp929
(dp930
g10
Nsg96
Nsg98
Nsg100
Nsg102
Nsg103
Nsg70
Nsg105
Nsg106
Nsg108
Nsg110
Nsg111
Nsg112
Nsg113
Nsg114
Nsg115
Nsg117
Nsg118
Nsg119
Nsg121
Nsg122
Nsg123
Nsg125
VThislsAmazing
p931
sg127
Nsg128
VLost In History
p932
sg130
Nsg132
Nsg133
I149760844
sg134
Nsbasg82
Nsg83
Nsg84
Nsg85
VRT @ThislsAmazing: "Flying Octopus" - an early helicopter, 1923 http://t.co/5he3IEpEdj
p933
sg87
I00
sg88
Ven
p934
sg90
g3
(g91
g5
Ntp935
Rp936
(dp937
g10
g95
sg96
V333333
p938
sg98
Ven
p939
sg100
Nsg102
I186
sg103
I1167
sg70
VSun Sep 21 03:33:45 +0000 2014
p940
sg105
I00
sg106
g95
sg108
Vhttps://abs.twimg.com/sticky/default_profile_images/default_profile_5_normal.png
p941
sg110
I1163
sg111
I2473
sg112
Nsg113
Nsg114
I00
sg115
Nsg117
I00
sg118
I00
sg119
V0084B4
p942
sg121
I00
sg122
I00
sg123
Vhttp://abs.twimg.com/images/themes/theme1/bg.png
p943
sg125
VDolickVilla
p944
sg127
I1
sg128
VDolick Villa
p945
sg130
VDDEEF6
p946
sg132
Nsg133
I2823346195
sg134
VC0DEED
p947
sbsg136
I87
sg137
V<a href="http://twitter.com/download/iphone" rel="nofollow">Twitter for iPhone</a>
p948
sg139
(lp949
sg133
I544091272017739776
sbag3
(g4
g5
Ntp950
Rp951
(dp952
g9
I0
sg10
Nsg11
Nsg12
(lp953
sg14
I00
sg15
g3
(g4
g5
Ntp954
Rp955
(dp956
g9
I1652
sg10
Nsg11
Nsg12
(lp957
sg14
I00
sg15
Nsg20
Nsg21
(lp958
(dp959
Vexpanded_url
p960
Vhttp://twitter.com/ThislsAmazing/status/542560038288519169/photo/1
p961
sVdisplay_url
p962
Vpic.twitter.com/BTLVHxR2II
p963
sVurl
p964
Vhttp://t.co/BTLVHxR2II
p965
sVmedia_url_https
p966
Vhttps://pbs.twimg.com/media/B4ePemRCcAEmNG_.jpg
p967
sVid_str
p968
V542560035952291841
p969
sVsizes
p970
(dp971
Vsmall
p972
(dp973
Vh
p974
I111
sVresize
p975
Vfit
p976
sVw
p977
I340
ssVlarge
p978
(dp979
Vh
p980
I334
sVresize
p981
Vfit
p982
sVw
p983
I1015
ssVmedium
p984
(dp985
Vh
p986
I197
sVresize
p987
Vfit
p988
sVw
p989
I600
ssVthumb
p990
(dp991
Vh
p992
I150
sVresize
p993
Vcrop
p994
sVw
p995
I150
sssVindices
p996
(lp997
I57
aI79
asVtype
p998
Vphoto
p999
sVid
p1000
I542560035952291841
sVmedia_url
p1001
Vhttp://pbs.twimg.com/media/B4ePemRCcAEmNG_.jpg
p1002
sasg67
Nsg68
Nsg69
Nsg70
VWed Dec 10 06:02:48 +0000 2014
p1003
sg72
Nsg73
I01
sg74
Nsg75
Nsg76
Nsg77
Nsg78
I00
sg79
Nsg80
(lp1004
sg82
Nsg83
Nsg84
Nsg85
VThe construction of the Eiffel Tower in Paris. 1887-1889 http://t.co/BTLVHxR2II
p1005
sg87
I00
sg88
Ven
p1006
sg90
g3
(g91
g5
Ntp1007
Rp1008
(dp1009
g10
g95
sg96
V666666
p1010
sg98
Ven
p1011
sg100
VPacific Time (US & Canada)
p1012
sg102
I3303394
sg103
I58202
sg70
VSun May 30 04:33:13 +0000 2010
p1013
sg105
I00
sg106
VHistory is fun. Learn today. Be learnt tomorrow.  Contact: livingthehistorylife@gmail.com
p1014
sg108
Vhttps://pbs.twimg.com/profile_images/542596647134318592/a3O3n8nw_normal.jpeg
p1015
sg110
I13353
sg111
I443
sg112
I-28800
sg113
Nsg114
I00
sg115
Vhttps://pbs.twimg.com/profile_banners/149760844/1417429169
p1016
sg117
I00
sg118
I00
sg119
VFFCC4D
p1017
sg121
I01
sg122
I00
sg123
Vhttp://pbs.twimg.com/profile_background_images/472703723232182273/0X5Itz8E.jpeg
p1018
sg125
VThislsAmazing
p1019
sg127
I5107
sg128
VLost In History
p1020
sg130
V252429
p1021
sg132
Nsg133
I149760844
sg134
VDBE9ED
p1022
sbsg136
I1234
sg137
V<a href="http://twitter.com" rel="nofollow">Twitter Web Client</a>
p1023
sg139
(lp1024
sg133
I542560038288519169
sbsg20
Nsg21
(lp1025
(dp1026
Vsource_user_id
p1027
I149760844
sVsource_status_id_str
p1028
V542560038288519169
p1029
sVexpanded_url
p1030
Vhttp://twitter.com/ThislsAmazing/status/542560038288519169/photo/1
p1031
sVdisplay_url
p1032
Vpic.twitter.com/BTLVHxR2II
p1033
sVurl
p1034
Vhttp://t.co/BTLVHxR2II
p1035
sVmedia_url_https
p1036
Vhttps://pbs.twimg.com/media/B4ePemRCcAEmNG_.jpg
p1037
sVsource_user_id_str
p1038
V149760844
p1039
sVsource_status_id
p1040
I542560038288519169
sVid_str
p1041
V542560035952291841
p1042
sVsizes
p1043
(dp1044
Vsmall
p1045
(dp1046
Vh
p1047
I111
sVresize
p1048
Vfit
p1049
sVw
p1050
I340
ssVlarge
p1051
(dp1052
Vh
p1053
I334
sVresize
p1054
Vfit
p1055
sVw
p1056
I1015
ssVmedium
p1057
(dp1058
Vh
p1059
I197
sVresize
p1060
Vfit
p1061
sVw
p1062
I600
ssVthumb
p1063
(dp1064
Vh
p1065
I150
sVresize
p1066
Vcrop
p1067
sVw
p1068
I150
sssVindices
p1069
(lp1070
I76
aI98
asVtype
p1071
Vphoto
p1072
sVid
p1073
I542560035952291841
sVmedia_url
p1074
Vhttp://pbs.twimg.com/media/B4ePemRCcAEmNG_.jpg
p1075
sasg67
Nsg68
Nsg69
Nsg70
VSun Dec 14 11:27:03 +0000 2014
p1076
sg72
Nsg73
I00
sg74
Nsg75
Nsg76
Nsg77
Nsg78
I00
sg79
Nsg80
(lp1077
g3
(g91
g5
Ntp1078
Rp1079
(dp1080
g10
Nsg96
Nsg98
Nsg100
Nsg102
Nsg103
Nsg70
Nsg105
Nsg106
Nsg108
Nsg110
Nsg111
Nsg112
Nsg113
Nsg114
Nsg115
Nsg117
Nsg118
Nsg119
Nsg121
Nsg122
Nsg123
Nsg125
VThislsAmazing
p1081
sg127
Nsg128
VLost In History
p1082
sg130
Nsg132
Nsg133
I149760844
sg134
Nsbasg82
Nsg83
Nsg84
Nsg85
VRT @ThislsAmazing: The construction of the Eiffel Tower in Paris. 1887-1889 http://t.co/BTLVHxR2II
p1083
sg87
I00
sg88
Ven
p1084
sg90
g3
(g91
g5
Ntp1085
Rp1086
(dp1087
g10
g95
sg96
V333333
p1088
sg98
Ven
p1089
sg100
Nsg102
I186
sg103
I1167
sg70
VSun Sep 21 03:33:45 +0000 2014
p1090
sg105
I00
sg106
g95
sg108
Vhttps://abs.twimg.com/sticky/default_profile_images/default_profile_5_normal.png
p1091
sg110
I1163
sg111
I2473
sg112
Nsg113
Nsg114
I00
sg115
Nsg117
I00
sg118
I00
sg119
V0084B4
p1092
sg121
I00
sg122
I00
sg123
Vhttp://abs.twimg.com/images/themes/theme1/bg.png
p1093
sg125
VDolickVilla
p1094
sg127
I1
sg128
VDolick Villa
p1095
sg130
VDDEEF6
p1096
sg132
Nsg133
I2823346195
sg134
VC0DEED
p1097
sbsg136
I1234
sg137
V<a href="http://twitter.com/download/iphone" rel="nofollow">Twitter for iPhone</a>
p1098
sg139
(lp1099
sg133
I544091193181605888
sbag3
(g4
g5
Ntp1100
Rp1101
(dp1102
g9
I0
sg10
Nsg11
Nsg12
(lp1103
sg14
I00
sg15
g3
(g4
g5
Ntp1104
Rp1105
(dp1106
g9
I326
sg10
Nsg11
Nsg12
(lp1107
sg14
I00
sg15
Nsg20
Nsg21
(lp1108
(dp1109
Vexpanded_url
p1110
Vhttp://twitter.com/ThislsAmazing/status/542580611190226945/photo/1
p1111
sVdisplay_url
p1112
Vpic.twitter.com/sUXy3kFIOV
p1113
sVurl
p1114
Vhttp://t.co/sUXy3kFIOV
p1115
sVmedia_url_https
p1116
Vhttps://pbs.twimg.com/media/B4eiMEoCUAAEH9a.jpg
p1117
sVid_str
p1118
V542580608405229568
p1119
sVsizes
p1120
(dp1121
Vlarge
p1122
(dp1123
Vh
p1124
I2048
sVresize
p1125
Vfit
p1126
sVw
p1127
I1007
ssVsmall
p1128
(dp1129
Vh
p1130
I680
sVresize
p1131
Vfit
p1132
sVw
p1133
I334
ssVmedium
p1134
(dp1135
Vh
p1136
I1200
sVresize
p1137
Vfit
p1138
sVw
p1139
I590
ssVthumb
p1140
(dp1141
Vh
p1142
I150
sVresize
p1143
Vcrop
p1144
sVw
p1145
I150
sssVindices
p1146
(lp1147
I117
aI139
asVtype
p1148
Vphoto
p1149
sVid
p1150
I542580608405229568
sVmedia_url
p1151
Vhttp://pbs.twimg.com/media/B4eiMEoCUAAEH9a.jpg
p1152
sasg67
Nsg68
Nsg69
Nsg70
VWed Dec 10 07:24:33 +0000 2014
p1153
sg72
Nsg73
I01
sg74
Nsg75
Nsg76
Nsg77
Nsg78
I00
sg79
Nsg80
(lp1154
sg82
Nsg83
Nsg84
Nsg85
VPeople sliding down an icy snow-covered mound at the base of the American Falls in Niagara Falls, New York, c. 1883. http://t.co/sUXy3kFIOV
p1155
sg87
I00
sg88
Ven
p1156
sg90
g3
(g91
g5
Ntp1157
Rp1158
(dp1159
g10
g95
sg96
V666666
p1160
sg98
Ven
p1161
sg100
VPacific Time (US & Canada)
p1162
sg102
I3303394
sg103
I58202
sg70
VSun May 30 04:33:13 +0000 2010
p1163
sg105
I00
sg106
VHistory is fun. Learn today. Be learnt tomorrow.  Contact: livingthehistorylife@gmail.com
p1164
sg108
Vhttps://pbs.twimg.com/profile_images/542596647134318592/a3O3n8nw_normal.jpeg
p1165
sg110
I13353
sg111
I443
sg112
I-28800
sg113
Nsg114
I00
sg115
Vhttps://pbs.twimg.com/profile_banners/149760844/1417429169
p1166
sg117
I00
sg118
I00
sg119
VFFCC4D
p1167
sg121
I01
sg122
I00
sg123
Vhttp://pbs.twimg.com/profile_background_images/472703723232182273/0X5Itz8E.jpeg
p1168
sg125
VThislsAmazing
p1169
sg127
I5107
sg128
VLost In History
p1170
sg130
V252429
p1171
sg132
Nsg133
I149760844
sg134
VDBE9ED
p1172
sbsg136
I202
sg137
V<a href="https://about.twitter.com/products/tweetdeck" rel="nofollow">TweetDeck</a>
p1173
sg139
(lp1174
sg133
I542580611190226945
sbsg20
Nsg21
(lp1175
(dp1176
Vsource_user_id
p1177
I149760844
sVsource_status_id_str
p1178
V542580611190226945
p1179
sVexpanded_url
p1180
Vhttp://twitter.com/ThislsAmazing/status/542580611190226945/photo/1
p1181
sVdisplay_url
p1182
Vpic.twitter.com/sUXy3kFIOV
p1183
sVurl
p1184
Vhttp://t.co/sUXy3kFIOV
p1185
sVmedia_url_https
p1186
Vhttps://pbs.twimg.com/media/B4eiMEoCUAAEH9a.jpg
p1187
sVsource_user_id_str
p1188
V149760844
p1189
sVsource_status_id
p1190
I542580611190226945
sVid_str
p1191
V542580608405229568
p1192
sVsizes
p1193
(dp1194
Vlarge
p1195
(dp1196
Vh
p1197
I2048
sVresize
p1198
Vfit
p1199
sVw
p1200
I1007
ssVsmall
p1201
(dp1202
Vh
p1203
I680
sVresize
p1204
Vfit
p1205
sVw
p1206
I334
ssVmedium
p1207
(dp1208
Vh
p1209
I1200
sVresize
p1210
Vfit
p1211
sVw
p1212
I590
ssVthumb
p1213
(dp1214
Vh
p1215
I150
sVresize
p1216
Vcrop
p1217
sVw
p1218
I150
sssVindices
p1219
(lp1220
I139
aI140
asVtype
p1221
Vphoto
p1222
sVid
p1223
I542580608405229568
sVmedia_url
p1224
Vhttp://pbs.twimg.com/media/B4eiMEoCUAAEH9a.jpg
p1225
sasg67
Nsg68
Nsg69
Nsg70
VSun Dec 14 11:26:49 +0000 2014
p1226
sg72
Nsg73
I00
sg74
Nsg75
Nsg76
Nsg77
Nsg78
I00
sg79
Nsg80
(lp1227
g3
(g91
g5
Ntp1228
Rp1229
(dp1230
g10
Nsg96
Nsg98
Nsg100
Nsg102
Nsg103
Nsg70
Nsg105
Nsg106
Nsg108
Nsg110
Nsg111
Nsg112
Nsg113
Nsg114
Nsg115
Nsg117
Nsg118
Nsg119
Nsg121
Nsg122
Nsg123
Nsg125
VThislsAmazing
p1231
sg127
Nsg128
VLost In History
p1232
sg130
Nsg132
Nsg133
I149760844
sg134
Nsbasg82
Nsg83
Nsg84
Nsg85
VRT @ThislsAmazing: People sliding down an icy snow-covered mound at the base of the American Falls in Niagara Falls, New York, c. 1883. htt\u2026
p1233
sg87
I00
sg88
Ven
p1234
sg90
g3
(g91
g5
Ntp1235
Rp1236
(dp1237
g10
g95
sg96
V333333
p1238
sg98
Ven
p1239
sg100
Nsg102
I186
sg103
I1167
sg70
VSun Sep 21 03:33:45 +0000 2014
p1240
sg105
I00
sg106
g95
sg108
Vhttps://abs.twimg.com/sticky/default_profile_images/default_profile_5_normal.png
p1241
sg110
I1163
sg111
I2473
sg112
Nsg113
Nsg114
I00
sg115
Nsg117
I00
sg118
I00
sg119
V0084B4
p1242
sg121
I00
sg122
I00
sg123
Vhttp://abs.twimg.com/images/themes/theme1/bg.png
p1243
sg125
VDolickVilla
p1244
sg127
I1
sg128
VDolick Villa
p1245
sg130
VDDEEF6
p1246
sg132
Nsg133
I2823346195
sg134
VC0DEED
p1247
sbsg136
I202
sg137
V<a href="http://twitter.com/download/iphone" rel="nofollow">Twitter for iPhone</a>
p1248
sg139
(lp1249
sg133
I544091132934619136
sbag3
(g4
g5
Ntp1250
Rp1251
(dp1252
g9
I0
sg10
Nsg11
Nsg12
(lp1253
sg14
I00
sg15
g3
(g4
g5
Ntp1254
Rp1255
(dp1256
g9
I1082
sg10
Nsg11
Nsg12
(lp1257
sg14
I00
sg15
Nsg20
Nsg21
(lp1258
(dp1259
Vexpanded_url
p1260
Vhttp://twitter.com/ThislsAmazing/status/542752166163656706/photo/1
p1261
sVdisplay_url
p1262
Vpic.twitter.com/yZ04cftlym
p1263
sVurl
p1264
Vhttp://t.co/yZ04cftlym
p1265
sVmedia_url_https
p1266
Vhttps://pbs.twimg.com/media/B4g-OC4CIAA5AST.jpg
p1267
sVid_str
p1268
V542752166109126656
p1269
sVsizes
p1270
(dp1271
Vlarge
p1272
(dp1273
Vh
p1274
I598
sVresize
p1275
Vfit
p1276
sVw
p1277
I600
ssVsmall
p1278
(dp1279
Vh
p1280
I338
sVresize
p1281
Vfit
p1282
sVw
p1283
I340
ssVmedium
p1284
(dp1285
Vh
p1286
I598
sVresize
p1287
Vfit
p1288
sVw
p1289
I600
ssVthumb
p1290
(dp1291
Vh
p1292
I150
sVresize
p1293
Vcrop
p1294
sVw
p1295
I150
sssVindices
p1296
(lp1297
I36
aI58
asVtype
p1298
Vphoto
p1299
sVid
p1300
I542752166109126656
sVmedia_url
p1301
Vhttp://pbs.twimg.com/media/B4g-OC4CIAA5AST.jpg
p1302
sasg67
Nsg68
Nsg69
Nsg70
VWed Dec 10 18:46:14 +0000 2014
p1303
sg72
Nsg73
I01
sg74
Nsg75
Nsg76
Nsg77
Nsg78
I00
sg79
Nsg80
(lp1304
sg82
Nsg83
Nsg84
Nsg85
VWomen's Bathing Suits in the 1950's http://t.co/yZ04cftlym
p1305
sg87
I00
sg88
Ven
p1306
sg90
g3
(g91
g5
Ntp1307
Rp1308
(dp1309
g10
g95
sg96
V666666
p1310
sg98
Ven
p1311
sg100
VPacific Time (US & Canada)
p1312
sg102
I3303394
sg103
I58202
sg70
VSun May 30 04:33:13 +0000 2010
p1313
sg105
I00
sg106
VHistory is fun. Learn today. Be learnt tomorrow.  Contact: livingthehistorylife@gmail.com
p1314
sg108
Vhttps://pbs.twimg.com/profile_images/542596647134318592/a3O3n8nw_normal.jpeg
p1315
sg110
I13353
sg111
I443
sg112
I-28800
sg113
Nsg114
I00
sg115
Vhttps://pbs.twimg.com/profile_banners/149760844/1417429169
p1316
sg117
I00
sg118
I00
sg119
VFFCC4D
p1317
sg121
I01
sg122
I00
sg123
Vhttp://pbs.twimg.com/profile_background_images/472703723232182273/0X5Itz8E.jpeg
p1318
sg125
VThislsAmazing
p1319
sg127
I5107
sg128
VLost In History
p1320
sg130
V252429
p1321
sg132
Nsg133
I149760844
sg134
VDBE9ED
p1322
sbsg136
I407
sg137
V<a href="http://tapbots.com/tweetbot" rel="nofollow">Tweetbot for i\u039fS</a>
p1323
sg139
(lp1324
sg133
I542752166163656706
sbsg20
Nsg21
(lp1325
(dp1326
Vsource_user_id
p1327
I149760844
sVsource_status_id_str
p1328
V542752166163656706
p1329
sVexpanded_url
p1330
Vhttp://twitter.com/ThislsAmazing/status/542752166163656706/photo/1
p1331
sVdisplay_url
p1332
Vpic.twitter.com/yZ04cftlym
p1333
sVurl
p1334
Vhttp://t.co/yZ04cftlym
p1335
sVmedia_url_https
p1336
Vhttps://pbs.twimg.com/media/B4g-OC4CIAA5AST.jpg
p1337
sVsource_user_id_str
p1338
V149760844
p1339
sVsource_status_id
p1340
I542752166163656706
sVid_str
p1341
V542752166109126656
p1342
sVsizes
p1343
(dp1344
Vlarge
p1345
(dp1346
Vh
p1347
I598
sVresize
p1348
Vfit
p1349
sVw
p1350
I600
ssVsmall
p1351
(dp1352
Vh
p1353
I338
sVresize
p1354
Vfit
p1355
sVw
p1356
I340
ssVmedium
p1357
(dp1358
Vh
p1359
I598
sVresize
p1360
Vfit
p1361
sVw
p1362
I600
ssVthumb
p1363
(dp1364
Vh
p1365
I150
sVresize
p1366
Vcrop
p1367
sVw
p1368
I150
sssVindices
p1369
(lp1370
I55
aI77
asVtype
p1371
Vphoto
p1372
sVid
p1373
I542752166109126656
sVmedia_url
p1374
Vhttp://pbs.twimg.com/media/B4g-OC4CIAA5AST.jpg
p1375
sasg67
Nsg68
Nsg69
Nsg70
VSun Dec 14 11:26:09 +0000 2014
p1376
sg72
Nsg73
I00
sg74
Nsg75
Nsg76
Nsg77
Nsg78
I00
sg79
Nsg80
(lp1377
g3
(g91
g5
Ntp1378
Rp1379
(dp1380
g10
Nsg96
Nsg98
Nsg100
Nsg102
Nsg103
Nsg70
Nsg105
Nsg106
Nsg108
Nsg110
Nsg111
Nsg112
Nsg113
Nsg114
Nsg115
Nsg117
Nsg118
Nsg119
Nsg121
Nsg122
Nsg123
Nsg125
VThislsAmazing
p1381
sg127
Nsg128
VLost In History
p1382
sg130
Nsg132
Nsg133
I149760844
sg134
Nsbasg82
Nsg83
Nsg84
Nsg85
VRT @ThislsAmazing: Women's Bathing Suits in the 1950's http://t.co/yZ04cftlym
p1383
sg87
I00
sg88
Ven
p1384
sg90
g3
(g91
g5
Ntp1385
Rp1386
(dp1387
g10
g95
sg96
V333333
p1388
sg98
Ven
p1389
sg100
Nsg102
I186
sg103
I1167
sg70
VSun Sep 21 03:33:45 +0000 2014
p1390
sg105
I00
sg106
g95
sg108
Vhttps://abs.twimg.com/sticky/default_profile_images/default_profile_5_normal.png
p1391
sg110
I1163
sg111
I2473
sg112
Nsg113
Nsg114
I00
sg115
Nsg117
I00
sg118
I00
sg119
V0084B4
p1392
sg121
I00
sg122
I00
sg123
Vhttp://abs.twimg.com/images/themes/theme1/bg.png
p1393
sg125
VDolickVilla
p1394
sg127
I1
sg128
VDolick Villa
p1395
sg130
VDDEEF6
p1396
sg132
Nsg133
I2823346195
sg134
VC0DEED
p1397
sbsg136
I407
sg137
V<a href="http://twitter.com/download/iphone" rel="nofollow">Twitter for iPhone</a>
p1398
sg139
(lp1399
sg133
I544090965535776769
sbag3
(g4
g5
Ntp1400
Rp1401
(dp1402
g9
I0
sg10
Nsg11
Nsg12
(lp1403
sg14
I00
sg15
g3
(g4
g5
Ntp1404
Rp1405
(dp1406
g9
I3119
sg10
Nsg11
Nsg12
(lp1407
sg14
I00
sg15
Nsg20
Nsg21
(lp1408
(dp1409
Vexpanded_url
p1410
Vhttp://twitter.com/ThislsAmazing/status/542762880358035456/photo/1
p1411
sVdisplay_url
p1412
Vpic.twitter.com/Irr7P1HfiT
p1413
sVurl
p1414
Vhttp://t.co/Irr7P1HfiT
p1415
sVmedia_url_https
p1416
Vhttps://pbs.twimg.com/media/B4hH9sYCcAARCm1.jpg
p1417
sVid_str
p1418
V542762880307720192
p1419
sVsizes
p1420
(dp1421
Vlarge
p1422
(dp1423
Vh
p1424
I428
sVresize
p1425
Vfit
p1426
sVw
p1427
I599
ssVsmall
p1428
(dp1429
Vh
p1430
I242
sVresize
p1431
Vfit
p1432
sVw
p1433
I340
ssVmedium
p1434
(dp1435
Vh
p1436
I428
sVresize
p1437
Vfit
p1438
sVw
p1439
I599
ssVthumb
p1440
(dp1441
Vh
p1442
I150
sVresize
p1443
Vcrop
p1444
sVw
p1445
I150
sssVindices
p1446
(lp1447
I45
aI67
asVtype
p1448
Vphoto
p1449
sVid
p1450
I542762880307720192
sVmedia_url
p1451
Vhttp://pbs.twimg.com/media/B4hH9sYCcAARCm1.jpg
p1452
sasg67
Nsg68
Nsg69
Nsg70
VWed Dec 10 19:28:49 +0000 2014
p1453
sg72
Nsg73
I01
sg74
Nsg75
Nsg76
Nsg77
Nsg78
I00
sg79
Nsg80
(lp1454
sg82
Nsg83
Nsg84
Nsg85
VBritney Spears and Christina Aguilera, 1994. http://t.co/Irr7P1HfiT
p1455
sg87
I00
sg88
Ven
p1456
sg90
g3
(g91
g5
Ntp1457
Rp1458
(dp1459
g10
g95
sg96
V666666
p1460
sg98
Ven
p1461
sg100
VPacific Time (US & Canada)
p1462
sg102
I3303394
sg103
I58202
sg70
VSun May 30 04:33:13 +0000 2010
p1463
sg105
I00
sg106
VHistory is fun. Learn today. Be learnt tomorrow.  Contact: livingthehistorylife@gmail.com
p1464
sg108
Vhttps://pbs.twimg.com/profile_images/542596647134318592/a3O3n8nw_normal.jpeg
p1465
sg110
I13353
sg111
I443
sg112
I-28800
sg113
Nsg114
I00
sg115
Vhttps://pbs.twimg.com/profile_banners/149760844/1417429169
p1466
sg117
I00
sg118
I00
sg119
VFFCC4D
p1467
sg121
I01
sg122
I00
sg123
Vhttp://pbs.twimg.com/profile_background_images/472703723232182273/0X5Itz8E.jpeg
p1468
sg125
VThislsAmazing
p1469
sg127
I5107
sg128
VLost In History
p1470
sg130
V252429
p1471
sg132
Nsg133
I149760844
sg134
VDBE9ED
p1472
sbsg136
I1552
sg137
V<a href="http://tapbots.com/tweetbot" rel="nofollow">Tweetbot for i\u039fS</a>
p1473
sg139
(lp1474
sg133
I542762880358035456
sbsg20
Nsg21
(lp1475
(dp1476
Vsource_user_id
p1477
I149760844
sVsource_status_id_str
p1478
V542762880358035456
p1479
sVexpanded_url
p1480
Vhttp://twitter.com/ThislsAmazing/status/542762880358035456/photo/1
p1481
sVdisplay_url
p1482
Vpic.twitter.com/Irr7P1HfiT
p1483
sVurl
p1484
Vhttp://t.co/Irr7P1HfiT
p1485
sVmedia_url_https
p1486
Vhttps://pbs.twimg.com/media/B4hH9sYCcAARCm1.jpg
p1487
sVsource_user_id_str
p1488
V149760844
p1489
sVsource_status_id
p1490
I542762880358035456
sVid_str
p1491
V542762880307720192
p1492
sVsizes
p1493
(dp1494
Vlarge
p1495
(dp1496
Vh
p1497
I428
sVresize
p1498
Vfit
p1499
sVw
p1500
I599
ssVsmall
p1501
(dp1502
Vh
p1503
I242
sVresize
p1504
Vfit
p1505
sVw
p1506
I340
ssVmedium
p1507
(dp1508
Vh
p1509
I428
sVresize
p1510
Vfit
p1511
sVw
p1512
I599
ssVthumb
p1513
(dp1514
Vh
p1515
I150
sVresize
p1516
Vcrop
p1517
sVw
p1518
I150
sssVindices
p1519
(lp1520
I64
aI86
asVtype
p1521
Vphoto
p1522
sVid
p1523
I542762880307720192
sVmedia_url
p1524
Vhttp://pbs.twimg.com/media/B4hH9sYCcAARCm1.jpg
p1525
sasg67
Nsg68
Nsg69
Nsg70
VSun Dec 14 11:25:59 +0000 2014
p1526
sg72
Nsg73
I00
sg74
Nsg75
Nsg76
Nsg77
Nsg78
I00
sg79
Nsg80
(lp1527
g3
(g91
g5
Ntp1528
Rp1529
(dp1530
g10
Nsg96
Nsg98
Nsg100
Nsg102
Nsg103
Nsg70
Nsg105
Nsg106
Nsg108
Nsg110
Nsg111
Nsg112
Nsg113
Nsg114
Nsg115
Nsg117
Nsg118
Nsg119
Nsg121
Nsg122
Nsg123
Nsg125
VThislsAmazing
p1531
sg127
Nsg128
VLost In History
p1532
sg130
Nsg132
Nsg133
I149760844
sg134
Nsbasg82
Nsg83
Nsg84
Nsg85
VRT @ThislsAmazing: Britney Spears and Christina Aguilera, 1994. http://t.co/Irr7P1HfiT
p1533
sg87
I00
sg88
Ven
p1534
sg90
g3
(g91
g5
Ntp1535
Rp1536
(dp1537
g10
g95
sg96
V333333
p1538
sg98
Ven
p1539
sg100
Nsg102
I186
sg103
I1167
sg70
VSun Sep 21 03:33:45 +0000 2014
p1540
sg105
I00
sg106
g95
sg108
Vhttps://abs.twimg.com/sticky/default_profile_images/default_profile_5_normal.png
p1541
sg110
I1163
sg111
I2473
sg112
Nsg113
Nsg114
I00
sg115
Nsg117
I00
sg118
I00
sg119
V0084B4
p1542
sg121
I00
sg122
I00
sg123
Vhttp://abs.twimg.com/images/themes/theme1/bg.png
p1543
sg125
VDolickVilla
p1544
sg127
I1
sg128
VDolick Villa
p1545
sg130
VDDEEF6
p1546
sg132
Nsg133
I2823346195
sg134
VC0DEED
p1547
sbsg136
I1552
sg137
V<a href="http://twitter.com/download/iphone" rel="nofollow">Twitter for iPhone</a>
p1548
sg139
(lp1549
sg133
I544090924943290368
sbag3
(g4
g5
Ntp1550
Rp1551
(dp1552
g9
I0
sg10
Nsg11
Nsg12
(lp1553
sg14
I00
sg15
g3
(g4
g5
Ntp1554
Rp1555
(dp1556
g9
I1712
sg10
Nsg11
Nsg12
(lp1557
sg14
I00
sg15
Nsg20
Nsg21
(lp1558
(dp1559
Vexpanded_url
p1560
Vhttp://twitter.com/ThislsAmazing/status/542925691897933825/photo/1
p1561
sVdisplay_url
p1562
Vpic.twitter.com/L22PasZNXC
p1563
sVurl
p1564
Vhttp://t.co/L22PasZNXC
p1565
sVmedia_url_https
p1566
Vhttps://pbs.twimg.com/media/B4jcCMxCIAEaZgZ.jpg
p1567
sVid_str
p1568
V542925685442879489
p1569
sVsizes
p1570
(dp1571
Vsmall
p1572
(dp1573
Vh
p1574
I485
sVresize
p1575
Vfit
p1576
sVw
p1577
I340
ssVlarge
p1578
(dp1579
Vh
p1580
I1462
sVresize
p1581
Vfit
p1582
sVw
p1583
I1024
ssVmedium
p1584
(dp1585
Vh
p1586
I857
sVresize
p1587
Vfit
p1588
sVw
p1589
I600
ssVthumb
p1590
(dp1591
Vh
p1592
I150
sVresize
p1593
Vcrop
p1594
sVw
p1595
I150
sssVindices
p1596
(lp1597
I68
aI90
asVtype
p1598
Vphoto
p1599
sVid
p1600
I542925685442879489
sVmedia_url
p1601
Vhttp://pbs.twimg.com/media/B4jcCMxCIAEaZgZ.jpg
p1602
sasg67
Nsg68
Nsg69
Nsg70
VThu Dec 11 06:15:46 +0000 2014
p1603
sg72
Nsg73
I01
sg74
Nsg75
Nsg76
Nsg77
Nsg78
I00
sg79
Nsg80
(lp1604
sg82
Nsg83
Nsg84
Nsg85
VBeastie Boys chasing Madonna around on stage with squirt guns, 1985 http://t.co/L22PasZNXC
p1605
sg87
I00
sg88
Ven
p1606
sg90
g3
(g91
g5
Ntp1607
Rp1608
(dp1609
g10
g95
sg96
V666666
p1610
sg98
Ven
p1611
sg100
VPacific Time (US & Canada)
p1612
sg102
I3303394
sg103
I58202
sg70
VSun May 30 04:33:13 +0000 2010
p1613
sg105
I00
sg106
VHistory is fun. Learn today. Be learnt tomorrow.  Contact: livingthehistorylife@gmail.com
p1614
sg108
Vhttps://pbs.twimg.com/profile_images/542596647134318592/a3O3n8nw_normal.jpeg
p1615
sg110
I13353
sg111
I443
sg112
I-28800
sg113
Nsg114
I00
sg115
Vhttps://pbs.twimg.com/profile_banners/149760844/1417429169
p1616
sg117
I00
sg118
I00
sg119
VFFCC4D
p1617
sg121
I01
sg122
I00
sg123
Vhttp://pbs.twimg.com/profile_background_images/472703723232182273/0X5Itz8E.jpeg
p1618
sg125
VThislsAmazing
p1619
sg127
I5107
sg128
VLost In History
p1620
sg130
V252429
p1621
sg132
Nsg133
I149760844
sg134
VDBE9ED
p1622
sbsg136
I888
sg137
V<a href="http://twitter.com" rel="nofollow">Twitter Web Client</a>
p1623
sg139
(lp1624
sg133
I542925691897933825
sbsg20
Nsg21
(lp1625
(dp1626
Vsource_user_id
p1627
I149760844
sVsource_status_id_str
p1628
V542925691897933825
p1629
sVexpanded_url
p1630
Vhttp://twitter.com/ThislsAmazing/status/542925691897933825/photo/1
p1631
sVdisplay_url
p1632
Vpic.twitter.com/L22PasZNXC
p1633
sVurl
p1634
Vhttp://t.co/L22PasZNXC
p1635
sVmedia_url_https
p1636
Vhttps://pbs.twimg.com/media/B4jcCMxCIAEaZgZ.jpg
p1637
sVsource_user_id_str
p1638
V149760844
p1639
sVsource_status_id
p1640
I542925691897933825
sVid_str
p1641
V542925685442879489
p1642
sVsizes
p1643
(dp1644
Vsmall
p1645
(dp1646
Vh
p1647
I485
sVresize
p1648
Vfit
p1649
sVw
p1650
I340
ssVlarge
p1651
(dp1652
Vh
p1653
I1462
sVresize
p1654
Vfit
p1655
sVw
p1656
I1024
ssVmedium
p1657
(dp1658
Vh
p1659
I857
sVresize
p1660
Vfit
p1661
sVw
p1662
I600
ssVthumb
p1663
(dp1664
Vh
p1665
I150
sVresize
p1666
Vcrop
p1667
sVw
p1668
I150
sssVindices
p1669
(lp1670
I87
aI109
asVtype
p1671
Vphoto
p1672
sVid
p1673
I542925685442879489
sVmedia_url
p1674
Vhttp://pbs.twimg.com/media/B4jcCMxCIAEaZgZ.jpg
p1675
sasg67
Nsg68
Nsg69
Nsg70
VSun Dec 14 11:25:32 +0000 2014
p1676
sg72
Nsg73
I00
sg74
Nsg75
Nsg76
Nsg77
Nsg78
I00
sg79
Nsg80
(lp1677
g3
(g91
g5
Ntp1678
Rp1679
(dp1680
g10
Nsg96
Nsg98
Nsg100
Nsg102
Nsg103
Nsg70
Nsg105
Nsg106
Nsg108
Nsg110
Nsg111
Nsg112
Nsg113
Nsg114
Nsg115
Nsg117
Nsg118
Nsg119
Nsg121
Nsg122
Nsg123
Nsg125
VThislsAmazing
p1681
sg127
Nsg128
VLost In History
p1682
sg130
Nsg132
Nsg133
I149760844
sg134
Nsbasg82
Nsg83
Nsg84
Nsg85
VRT @ThislsAmazing: Beastie Boys chasing Madonna around on stage with squirt guns, 1985 http://t.co/L22PasZNXC
p1683
sg87
I00
sg88
Ven
p1684
sg90
g3
(g91
g5
Ntp1685
Rp1686
(dp1687
g10
g95
sg96
V333333
p1688
sg98
Ven
p1689
sg100
Nsg102
I186
sg103
I1167
sg70
VSun Sep 21 03:33:45 +0000 2014
p1690
sg105
I00
sg106
g95
sg108
Vhttps://abs.twimg.com/sticky/default_profile_images/default_profile_5_normal.png
p1691
sg110
I1163
sg111
I2473
sg112
Nsg113
Nsg114
I00
sg115
Nsg117
I00
sg118
I00
sg119
V0084B4
p1692
sg121
I00
sg122
I00
sg123
Vhttp://abs.twimg.com/images/themes/theme1/bg.png
p1693
sg125
VDolickVilla
p1694
sg127
I1
sg128
VDolick Villa
p1695
sg130
VDDEEF6
p1696
sg132
Nsg133
I2823346195
sg134
VC0DEED
p1697
sbsg136
I888
sg137
V<a href="http://twitter.com/download/iphone" rel="nofollow">Twitter for iPhone</a>
p1698
sg139
(lp1699
sg133
I544090808404549633
sbag3
(g4
g5
Ntp1700
Rp1701
(dp1702
g9
I0
sg10
Nsg11
Nsg12
(lp1703
sg14
I00
sg15
g3
(g4
g5
Ntp1704
Rp1705
(dp1706
g9
I367
sg10
Nsg11
Nsg12
(lp1707
sg14
I00
sg15
Nsg20
Nsg21
(lp1708
(dp1709
Vexpanded_url
p1710
Vhttp://twitter.com/ThislsAmazing/status/542948267013595137/photo/1
p1711
sVdisplay_url
p1712
Vpic.twitter.com/mbqPNkivTR
p1713
sVurl
p1714
Vhttp://t.co/mbqPNkivTR
p1715
sVmedia_url_https
p1716
Vhttps://pbs.twimg.com/media/B4jwkgcCAAEEpzV.jpg
p1717
sVid_str
p1718
V542948265071607809
p1719
sVsizes
p1720
(dp1721
Vsmall
p1722
(dp1723
Vh
p1724
I544
sVresize
p1725
Vfit
p1726
sVw
p1727
I340
ssVlarge
p1728
(dp1729
Vh
p1730
I1000
sVresize
p1731
Vfit
p1732
sVw
p1733
I625
ssVmedium
p1734
(dp1735
Vh
p1736
I960
sVresize
p1737
Vfit
p1738
sVw
p1739
I600
ssVthumb
p1740
(dp1741
Vh
p1742
I150
sVresize
p1743
Vcrop
p1744
sVw
p1745
I150
sssVindices
p1746
(lp1747
I71
aI93
asVtype
p1748
Vphoto
p1749
sVid
p1750
I542948265071607809
sVmedia_url
p1751
Vhttp://pbs.twimg.com/media/B4jwkgcCAAEEpzV.jpg
p1752
sasg67
Nsg68
Nsg69
Nsg70
VThu Dec 11 07:45:29 +0000 2014
p1753
sg72
Nsg73
I01
sg74
Nsg75
Nsg76
Nsg77
Nsg78
I00
sg79
Nsg80
(lp1754
sg82
Nsg83
Nsg84
Nsg85
VA 17 year old Fidel Castro plays basketball at his High School in 1943 http://t.co/mbqPNkivTR
p1755
sg87
I00
sg88
Ven
p1756
sg90
g3
(g91
g5
Ntp1757
Rp1758
(dp1759
g10
g95
sg96
V666666
p1760
sg98
Ven
p1761
sg100
VPacific Time (US & Canada)
p1762
sg102
I3303394
sg103
I58202
sg70
VSun May 30 04:33:13 +0000 2010
p1763
sg105
I00
sg106
VHistory is fun. Learn today. Be learnt tomorrow.  Contact: livingthehistorylife@gmail.com
p1764
sg108
Vhttps://pbs.twimg.com/profile_images/542596647134318592/a3O3n8nw_normal.jpeg
p1765
sg110
I13353
sg111
I443
sg112
I-28800
sg113
Nsg114
I00
sg115
Vhttps://pbs.twimg.com/profile_banners/149760844/1417429169
p1766
sg117
I00
sg118
I00
sg119
VFFCC4D
p1767
sg121
I01
sg122
I00
sg123
Vhttp://pbs.twimg.com/profile_background_images/472703723232182273/0X5Itz8E.jpeg
p1768
sg125
VThislsAmazing
p1769
sg127
I5107
sg128
VLost In History
p1770
sg130
V252429
p1771
sg132
Nsg133
I149760844
sg134
VDBE9ED
p1772
sbsg136
I216
sg137
V<a href="http://twitter.com" rel="nofollow">Twitter Web Client</a>
p1773
sg139
(lp1774
sg133
I542948267013595137
sbsg20
Nsg21
(lp1775
(dp1776
Vsource_user_id
p1777
I149760844
sVsource_status_id_str
p1778
V542948267013595137
p1779
sVexpanded_url
p1780
Vhttp://twitter.com/ThislsAmazing/status/542948267013595137/photo/1
p1781
sVdisplay_url
p1782
Vpic.twitter.com/mbqPNkivTR
p1783
sVurl
p1784
Vhttp://t.co/mbqPNkivTR
p1785
sVmedia_url_https
p1786
Vhttps://pbs.twimg.com/media/B4jwkgcCAAEEpzV.jpg
p1787
sVsource_user_id_str
p1788
V149760844
p1789
sVsource_status_id
p1790
I542948267013595137
sVid_str
p1791
V542948265071607809
p1792
sVsizes
p1793
(dp1794
Vsmall
p1795
(dp1796
Vh
p1797
I544
sVresize
p1798
Vfit
p1799
sVw
p1800
I340
ssVlarge
p1801
(dp1802
Vh
p1803
I1000
sVresize
p1804
Vfit
p1805
sVw
p1806
I625
ssVmedium
p1807
(dp1808
Vh
p1809
I960
sVresize
p1810
Vfit
p1811
sVw
p1812
I600
ssVthumb
p1813
(dp1814
Vh
p1815
I150
sVresize
p1816
Vcrop
p1817
sVw
p1818
I150
sssVindices
p1819
(lp1820
I90
aI112
asVtype
p1821
Vphoto
p1822
sVid
p1823
I542948265071607809
sVmedia_url
p1824
Vhttp://pbs.twimg.com/media/B4jwkgcCAAEEpzV.jpg
p1825
sasg67
Nsg68
Nsg69
Nsg70
VSun Dec 14 11:25:04 +0000 2014
p1826
sg72
Nsg73
I00
sg74
Nsg75
Nsg76
Nsg77
Nsg78
I00
sg79
Nsg80
(lp1827
g3
(g91
g5
Ntp1828
Rp1829
(dp1830
g10
Nsg96
Nsg98
Nsg100
Nsg102
Nsg103
Nsg70
Nsg105
Nsg106
Nsg108
Nsg110
Nsg111
Nsg112
Nsg113
Nsg114
Nsg115
Nsg117
Nsg118
Nsg119
Nsg121
Nsg122
Nsg123
Nsg125
VThislsAmazing
p1831
sg127
Nsg128
VLost In History
p1832
sg130
Nsg132
Nsg133
I149760844
sg134
Nsbasg82
Nsg83
Nsg84
Nsg85
VRT @ThislsAmazing: A 17 year old Fidel Castro plays basketball at his High School in 1943 http://t.co/mbqPNkivTR
p1833
sg87
I00
sg88
Ven
p1834
sg90
g3
(g91
g5
Ntp1835
Rp1836
(dp1837
g10
g95
sg96
V333333
p1838
sg98
Ven
p1839
sg100
Nsg102
I186
sg103
I1167
sg70
VSun Sep 21 03:33:45 +0000 2014
p1840
sg105
I00
sg106
g95
sg108
Vhttps://abs.twimg.com/sticky/default_profile_images/default_profile_5_normal.png
p1841
sg110
I1163
sg111
I2473
sg112
Nsg113
Nsg114
I00
sg115
Nsg117
I00
sg118
I00
sg119
V0084B4
p1842
sg121
I00
sg122
I00
sg123
Vhttp://abs.twimg.com/images/themes/theme1/bg.png
p1843
sg125
VDolickVilla
p1844
sg127
I1
sg128
VDolick Villa
p1845
sg130
VDDEEF6
p1846
sg132
Nsg133
I2823346195
sg134
VC0DEED
p1847
sbsg136
I216
sg137
V<a href="http://twitter.com/download/iphone" rel="nofollow">Twitter for iPhone</a>
p1848
sg139
(lp1849
sg133
I544090692306206721
sbag3
(g4
g5
Ntp1850
Rp1851
(dp1852
g9
I0
sg10
Nsg11
Nsg12
(lp1853
sg14
I00
sg15
g3
(g4
g5
Ntp1854
Rp1855
(dp1856
g9
I144
sg10
Nsg11
Nsg12
(lp1857
sg14
I00
sg15
Nsg20
Nsg21
(lp1858
(dp1859
Vexpanded_url
p1860
Vhttp://twitter.com/ThislsAmazing/status/542962354778955777/photo/1
p1861
sVdisplay_url
p1862
Vpic.twitter.com/7AgBVV9ycu
p1863
sVurl
p1864
Vhttp://t.co/7AgBVV9ycu
p1865
sVmedia_url_https
p1866
Vhttps://pbs.twimg.com/media/B4j9YhECUAAie_B.jpg
p1867
sVid_str
p1868
V542962352732131328
p1869
sVsizes
p1870
(dp1871
Vlarge
p1872
(dp1873
Vh
p1874
I899
sVresize
p1875
Vfit
p1876
sVw
p1877
I634
ssVsmall
p1878
(dp1879
Vh
p1880
I482
sVresize
p1881
Vfit
p1882
sVw
p1883
I340
ssVmedium
p1884
(dp1885
Vh
p1886
I850
sVresize
p1887
Vfit
p1888
sVw
p1889
I600
ssVthumb
p1890
(dp1891
Vh
p1892
I150
sVresize
p1893
Vcrop
p1894
sVw
p1895
I150
sssVindices
p1896
(lp1897
I60
aI82
asVtype
p1898
Vphoto
p1899
sVid
p1900
I542962352732131328
sVmedia_url
p1901
Vhttp://pbs.twimg.com/media/B4j9YhECUAAie_B.jpg
p1902
sasg67
Nsg68
Nsg69
Nsg70
VThu Dec 11 08:41:27 +0000 2014
p1903
sg72
Nsg73
I01
sg74
Nsg75
Nsg76
Nsg77
Nsg78
I00
sg79
Nsg80
(lp1904
sg82
Nsg83
Nsg84
Nsg85
VHitler's mistress Eva Braun in blackface as Al Jolson, 1937 http://t.co/7AgBVV9ycu
p1905
sg87
I00
sg88
Ven
p1906
sg90
g3
(g91
g5
Ntp1907
Rp1908
(dp1909
g10
g95
sg96
V666666
p1910
sg98
Ven
p1911
sg100
VPacific Time (US & Canada)
p1912
sg102
I3303394
sg103
I58202
sg70
VSun May 30 04:33:13 +0000 2010
p1913
sg105
I00
sg106
VHistory is fun. Learn today. Be learnt tomorrow.  Contact: livingthehistorylife@gmail.com
p1914
sg108
Vhttps://pbs.twimg.com/profile_images/542596647134318592/a3O3n8nw_normal.jpeg
p1915
sg110
I13353
sg111
I443
sg112
I-28800
sg113
Nsg114
I00
sg115
Vhttps://pbs.twimg.com/profile_banners/149760844/1417429169
p1916
sg117
I00
sg118
I00
sg119
VFFCC4D
p1917
sg121
I01
sg122
I00
sg123
Vhttp://pbs.twimg.com/profile_background_images/472703723232182273/0X5Itz8E.jpeg
p1918
sg125
VThislsAmazing
p1919
sg127
I5107
sg128
VLost In History
p1920
sg130
V252429
p1921
sg132
Nsg133
I149760844
sg134
VDBE9ED
p1922
sbsg136
I83
sg137
V<a href="http://twitter.com" rel="nofollow">Twitter Web Client</a>
p1923
sg139
(lp1924
sg133
I542962354778955777
sbsg20
Nsg21
(lp1925
(dp1926
Vsource_user_id
p1927
I149760844
sVsource_status_id_str
p1928
V542962354778955777
p1929
sVexpanded_url
p1930
Vhttp://twitter.com/ThislsAmazing/status/542962354778955777/photo/1
p1931
sVdisplay_url
p1932
Vpic.twitter.com/7AgBVV9ycu
p1933
sVurl
p1934
Vhttp://t.co/7AgBVV9ycu
p1935
sVmedia_url_https
p1936
Vhttps://pbs.twimg.com/media/B4j9YhECUAAie_B.jpg
p1937
sVsource_user_id_str
p1938
V149760844
p1939
sVsource_status_id
p1940
I542962354778955777
sVid_str
p1941
V542962352732131328
p1942
sVsizes
p1943
(dp1944
Vlarge
p1945
(dp1946
Vh
p1947
I899
sVresize
p1948
Vfit
p1949
sVw
p1950
I634
ssVsmall
p1951
(dp1952
Vh
p1953
I482
sVresize
p1954
Vfit
p1955
sVw
p1956
I340
ssVmedium
p1957
(dp1958
Vh
p1959
I850
sVresize
p1960
Vfit
p1961
sVw
p1962
I600
ssVthumb
p1963
(dp1964
Vh
p1965
I150
sVresize
p1966
Vcrop
p1967
sVw
p1968
I150
sssVindices
p1969
(lp1970
I79
aI101
asVtype
p1971
Vphoto
p1972
sVid
p1973
I542962352732131328
sVmedia_url
p1974
Vhttp://pbs.twimg.com/media/B4j9YhECUAAie_B.jpg
p1975
sasg67
Nsg68
Nsg69
Nsg70
VSun Dec 14 11:24:50 +0000 2014
p1976
sg72
Nsg73
I00
sg74
Nsg75
Nsg76
Nsg77
Nsg78
I00
sg79
Nsg80
(lp1977
g3
(g91
g5
Ntp1978
Rp1979
(dp1980
g10
Nsg96
Nsg98
Nsg100
Nsg102
Nsg103
Nsg70
Nsg105
Nsg106
Nsg108
Nsg110
Nsg111
Nsg112
Nsg113
Nsg114
Nsg115
Nsg117
Nsg118
Nsg119
Nsg121
Nsg122
Nsg123
Nsg125
VThislsAmazing
p1981
sg127
Nsg128
VLost In History
p1982
sg130
Nsg132
Nsg133
I149760844
sg134
Nsbasg82
Nsg83
Nsg84
Nsg85
VRT @ThislsAmazing: Hitler's mistress Eva Braun in blackface as Al Jolson, 1937 http://t.co/7AgBVV9ycu
p1983
sg87
I00
sg88
Ven
p1984
sg90
g3
(g91
g5
Ntp1985
Rp1986
(dp1987
g10
g95
sg96
V333333
p1988
sg98
Ven
p1989
sg100
Nsg102
I186
sg103
I1167
sg70
VSun Sep 21 03:33:45 +0000 2014
p1990
sg105
I00
sg106
g95
sg108
Vhttps://abs.twimg.com/sticky/default_profile_images/default_profile_5_normal.png
p1991
sg110
I1163
sg111
I2473
sg112
Nsg113
Nsg114
I00
sg115
Nsg117
I00
sg118
I00
sg119
V0084B4
p1992
sg121
I00
sg122
I00
sg123
Vhttp://abs.twimg.com/images/themes/theme1/bg.png
p1993
sg125
VDolickVilla
p1994
sg127
I1
sg128
VDolick Villa
p1995
sg130
VDDEEF6
p1996
sg132
Nsg133
I2823346195
sg134
VC0DEED
p1997
sbsg136
I83
sg137
V<a href="http://twitter.com/download/iphone" rel="nofollow">Twitter for iPhone</a>
p1998
sg139
(lp1999
sg133
I544090635146248192
sbag3
(g4
g5
Ntp2000
Rp2001
(dp2002
g9
I0
sg10
Nsg11
Nsg12
(lp2003
sg14
I00
sg15
g3
(g4
g5
Ntp2004
Rp2005
(dp2006
g9
I156
sg10
Nsg11
Nsg12
(lp2007
sg14
I00
sg15
Nsg20
Nsg21
(lp2008
(dp2009
Vexpanded_url
p2010
Vhttp://twitter.com/ThislsAmazing/status/542981850990247936/photo/1
p2011
sVdisplay_url
p2012
Vpic.twitter.com/ooIOrMF7RV
p2013
sVurl
p2014
Vhttp://t.co/ooIOrMF7RV
p2015
sVmedia_url_https
p2016
Vhttps://pbs.twimg.com/media/B4kPHWICEAAmEKS.png
p2017
sVid_str
p2018
V542981848947625984
p2019
sVsizes
p2020
(dp2021
Vlarge
p2022
(dp2023
Vh
p2024
I786
sVresize
p2025
Vfit
p2026
sVw
p2027
I1024
ssVsmall
p2028
(dp2029
Vh
p2030
I261
sVresize
p2031
Vfit
p2032
sVw
p2033
I340
ssVmedium
p2034
(dp2035
Vh
p2036
I460
sVresize
p2037
Vfit
p2038
sVw
p2039
I600
ssVthumb
p2040
(dp2041
Vh
p2042
I150
sVresize
p2043
Vcrop
p2044
sVw
p2045
I150
sssVindices
p2046
(lp2047
I51
aI73
asVtype
p2048
Vphoto
p2049
sVid
p2050
I542981848947625984
sVmedia_url
p2051
Vhttp://pbs.twimg.com/media/B4kPHWICEAAmEKS.png
p2052
sasg67
Nsg68
Nsg69
Nsg70
VThu Dec 11 09:58:56 +0000 2014
p2053
sg72
Nsg73
I01
sg74
Nsg75
Nsg76
Nsg77
Nsg78
I00
sg79
Nsg80
(lp2054
sg82
Nsg83
Nsg84
Nsg85
VA woman lies amid the rubble of Dessau, April 1945 http://t.co/ooIOrMF7RV
p2055
sg87
I00
sg88
Ven
p2056
sg90
g3
(g91
g5
Ntp2057
Rp2058
(dp2059
g10
g95
sg96
V666666
p2060
sg98
Ven
p2061
sg100
VPacific Time (US & Canada)
p2062
sg102
I3303394
sg103
I58202
sg70
VSun May 30 04:33:13 +0000 2010
p2063
sg105
I00
sg106
VHistory is fun. Learn today. Be learnt tomorrow.  Contact: livingthehistorylife@gmail.com
p2064
sg108
Vhttps://pbs.twimg.com/profile_images/542596647134318592/a3O3n8nw_normal.jpeg
p2065
sg110
I13353
sg111
I443
sg112
I-28800
sg113
Nsg114
I00
sg115
Vhttps://pbs.twimg.com/profile_banners/149760844/1417429169
p2066
sg117
I00
sg118
I00
sg119
VFFCC4D
p2067
sg121
I01
sg122
I00
sg123
Vhttp://pbs.twimg.com/profile_background_images/472703723232182273/0X5Itz8E.jpeg
p2068
sg125
VThislsAmazing
p2069
sg127
I5107
sg128
VLost In History
p2070
sg130
V252429
p2071
sg132
Nsg133
I149760844
sg134
VDBE9ED
p2072
sbsg136
I78
sg137
V<a href="http://twitter.com" rel="nofollow">Twitter Web Client</a>
p2073
sg139
(lp2074
sg133
I542981850990247936
sbsg20
Nsg21
(lp2075
(dp2076
Vsource_user_id
p2077
I149760844
sVsource_status_id_str
p2078
V542981850990247936
p2079
sVexpanded_url
p2080
Vhttp://twitter.com/ThislsAmazing/status/542981850990247936/photo/1
p2081
sVdisplay_url
p2082
Vpic.twitter.com/ooIOrMF7RV
p2083
sVurl
p2084
Vhttp://t.co/ooIOrMF7RV
p2085
sVmedia_url_https
p2086
Vhttps://pbs.twimg.com/media/B4kPHWICEAAmEKS.png
p2087
sVsource_user_id_str
p2088
V149760844
p2089
sVsource_status_id
p2090
I542981850990247936
sVid_str
p2091
V542981848947625984
p2092
sVsizes
p2093
(dp2094
Vlarge
p2095
(dp2096
Vh
p2097
I786
sVresize
p2098
Vfit
p2099
sVw
p2100
I1024
ssVsmall
p2101
(dp2102
Vh
p2103
I261
sVresize
p2104
Vfit
p2105
sVw
p2106
I340
ssVmedium
p2107
(dp2108
Vh
p2109
I460
sVresize
p2110
Vfit
p2111
sVw
p2112
I600
ssVthumb
p2113
(dp2114
Vh
p2115
I150
sVresize
p2116
Vcrop
p2117
sVw
p2118
I150
sssVindices
p2119
(lp2120
I70
aI92
asVtype
p2121
Vphoto
p2122
sVid
p2123
I542981848947625984
sVmedia_url
p2124
Vhttp://pbs.twimg.com/media/B4kPHWICEAAmEKS.png
p2125
sasg67
Nsg68
Nsg69
Nsg70
VSun Dec 14 11:24:44 +0000 2014
p2126
sg72
Nsg73
I00
sg74
Nsg75
Nsg76
Nsg77
Nsg78
I00
sg79
Nsg80
(lp2127
g3
(g91
g5
Ntp2128
Rp2129
(dp2130
g10
Nsg96
Nsg98
Nsg100
Nsg102
Nsg103
Nsg70
Nsg105
Nsg106
Nsg108
Nsg110
Nsg111
Nsg112
Nsg113
Nsg114
Nsg115
Nsg117
Nsg118
Nsg119
Nsg121
Nsg122
Nsg123
Nsg125
VThislsAmazing
p2131
sg127
Nsg128
VLost In History
p2132
sg130
Nsg132
Nsg133
I149760844
sg134
Nsbasg82
Nsg83
Nsg84
Nsg85
VRT @ThislsAmazing: A woman lies amid the rubble of Dessau, April 1945 http://t.co/ooIOrMF7RV
p2133
sg87
I00
sg88
Ven
p2134
sg90
g3
(g91
g5
Ntp2135
Rp2136
(dp2137
g10
g95
sg96
V333333
p2138
sg98
Ven
p2139
sg100
Nsg102
I186
sg103
I1167
sg70
VSun Sep 21 03:33:45 +0000 2014
p2140
sg105
I00
sg106
g95
sg108
Vhttps://abs.twimg.com/sticky/default_profile_images/default_profile_5_normal.png
p2141
sg110
I1163
sg111
I2473
sg112
Nsg113
Nsg114
I00
sg115
Nsg117
I00
sg118
I00
sg119
V0084B4
p2142
sg121
I00
sg122
I00
sg123
Vhttp://abs.twimg.com/images/themes/theme1/bg.png
p2143
sg125
VDolickVilla
p2144
sg127
I1
sg128
VDolick Villa
p2145
sg130
VDDEEF6
p2146
sg132
Nsg133
I2823346195
sg134
VC0DEED
p2147
sbsg136
I78
sg137
V<a href="http://twitter.com/download/iphone" rel="nofollow">Twitter for iPhone</a>
p2148
sg139
(lp2149
sg133
I544090608055226370
sbag3
(g4
g5
Ntp2150
Rp2151
(dp2152
g9
I0
sg10
Nsg11
Nsg12
(lp2153
sg14
I00
sg15
g3
(g4
g5
Ntp2154
Rp2155
(dp2156
g9
I417
sg10
Nsg11
Nsg12
(lp2157
sg14
I00
sg15
Nsg20
Nsg21
(lp2158
(dp2159
Vexpanded_url
p2160
Vhttp://twitter.com/ThislsAmazing/status/543047344963346432/photo/1
p2161
sVdisplay_url
p2162
Vpic.twitter.com/dpVxJHf2Q2
p2163
sVurl
p2164
Vhttp://t.co/dpVxJHf2Q2
p2165
sVmedia_url_https
p2166
Vhttps://pbs.twimg.com/media/B4lKrh4CYAAgyxu.jpg
p2167
sVid_str
p2168
V543047341763092480
p2169
sVsizes
p2170
(dp2171
Vsmall
p2172
(dp2173
Vh
p2174
I270
sVresize
p2175
Vfit
p2176
sVw
p2177
I340
ssVlarge
p2178
(dp2179
Vh
p2180
I815
sVresize
p2181
Vfit
p2182
sVw
p2183
I1024
ssVmedium
p2184
(dp2185
Vh
p2186
I477
sVresize
p2187
Vfit
p2188
sVw
p2189
I600
ssVthumb
p2190
(dp2191
Vh
p2192
I150
sVresize
p2193
Vcrop
p2194
sVw
p2195
I150
sssVindices
p2196
(lp2197
I34
aI56
asVtype
p2198
Vphoto
p2199
sVid
p2200
I543047341763092480
sVmedia_url
p2201
Vhttp://pbs.twimg.com/media/B4lKrh4CYAAgyxu.jpg
p2202
sasg67
Nsg68
Nsg69
Nsg70
VThu Dec 11 14:19:11 +0000 2014
p2203
sg72
Nsg73
I01
sg74
Nsg75
Nsg76
Nsg77
Nsg78
I00
sg79
Nsg80
(lp2204
sg82
Nsg83
Nsg84
Nsg85
VIndian snake charmers circa 1880. http://t.co/dpVxJHf2Q2
p2205
sg87
I00
sg88
Ven
p2206
sg90
g3
(g91
g5
Ntp2207
Rp2208
(dp2209
g10
g95
sg96
V666666
p2210
sg98
Ven
p2211
sg100
VPacific Time (US & Canada)
p2212
sg102
I3303394
sg103
I58202
sg70
VSun May 30 04:33:13 +0000 2010
p2213
sg105
I00
sg106
VHistory is fun. Learn today. Be learnt tomorrow.  Contact: livingthehistorylife@gmail.com
p2214
sg108
Vhttps://pbs.twimg.com/profile_images/542596647134318592/a3O3n8nw_normal.jpeg
p2215
sg110
I13353
sg111
I443
sg112
I-28800
sg113
Nsg114
I00
sg115
Vhttps://pbs.twimg.com/profile_banners/149760844/1417429169
p2216
sg117
I00
sg118
I00
sg119
VFFCC4D
p2217
sg121
I01
sg122
I00
sg123
Vhttp://pbs.twimg.com/profile_background_images/472703723232182273/0X5Itz8E.jpeg
p2218
sg125
VThislsAmazing
p2219
sg127
I5107
sg128
VLost In History
p2220
sg130
V252429
p2221
sg132
Nsg133
I149760844
sg134
VDBE9ED
p2222
sbsg136
I269
sg137
V<a href="http://twitter.com" rel="nofollow">Twitter Web Client</a>
p2223
sg139
(lp2224
sg133
I543047344963346432
sbsg20
Nsg21
(lp2225
(dp2226
Vsource_user_id
p2227
I149760844
sVsource_status_id_str
p2228
V543047344963346432
p2229
sVexpanded_url
p2230
Vhttp://twitter.com/ThislsAmazing/status/543047344963346432/photo/1
p2231
sVdisplay_url
p2232
Vpic.twitter.com/dpVxJHf2Q2
p2233
sVurl
p2234
Vhttp://t.co/dpVxJHf2Q2
p2235
sVmedia_url_https
p2236
Vhttps://pbs.twimg.com/media/B4lKrh4CYAAgyxu.jpg
p2237
sVsource_user_id_str
p2238
V149760844
p2239
sVsource_status_id
p2240
I543047344963346432
sVid_str
p2241
V543047341763092480
p2242
sVsizes
p2243
(dp2244
Vsmall
p2245
(dp2246
Vh
p2247
I270
sVresize
p2248
Vfit
p2249
sVw
p2250
I340
ssVlarge
p2251
(dp2252
Vh
p2253
I815
sVresize
p2254
Vfit
p2255
sVw
p2256
I1024
ssVmedium
p2257
(dp2258
Vh
p2259
I477
sVresize
p2260
Vfit
p2261
sVw
p2262
I600
ssVthumb
p2263
(dp2264
Vh
p2265
I150
sVresize
p2266
Vcrop
p2267
sVw
p2268
I150
sssVindices
p2269
(lp2270
I53
aI75
asVtype
p2271
Vphoto
p2272
sVid
p2273
I543047341763092480
sVmedia_url
p2274
Vhttp://pbs.twimg.com/media/B4lKrh4CYAAgyxu.jpg
p2275
sasg67
Nsg68
Nsg69
Nsg70
VSun Dec 14 11:24:14 +0000 2014
p2276
sg72
Nsg73
I00
sg74
Nsg75
Nsg76
Nsg77
Nsg78
I00
sg79
Nsg80
(lp2277
g3
(g91
g5
Ntp2278
Rp2279
(dp2280
g10
Nsg96
Nsg98
Nsg100
Nsg102
Nsg103
Nsg70
Nsg105
Nsg106
Nsg108
Nsg110
Nsg111
Nsg112
Nsg113
Nsg114
Nsg115
Nsg117
Nsg118
Nsg119
Nsg121
Nsg122
Nsg123
Nsg125
VThislsAmazing
p2281
sg127
Nsg128
VLost In History
p2282
sg130
Nsg132
Nsg133
I149760844
sg134
Nsbasg82
Nsg83
Nsg84
Nsg85
VRT @ThislsAmazing: Indian snake charmers circa 1880. http://t.co/dpVxJHf2Q2
p2283
sg87
I00
sg88
Ven
p2284
sg90
g3
(g91
g5
Ntp2285
Rp2286
(dp2287
g10
g95
sg96
V333333
p2288
sg98
Ven
p2289
sg100
Nsg102
I186
sg103
I1167
sg70
VSun Sep 21 03:33:45 +0000 2014
p2290
sg105
I00
sg106
g95
sg108
Vhttps://abs.twimg.com/sticky/default_profile_images/default_profile_5_normal.png
p2291
sg110
I1163
sg111
I2473
sg112
Nsg113
Nsg114
I00
sg115
Nsg117
I00
sg118
I00
sg119
V0084B4
p2292
sg121
I00
sg122
I00
sg123
Vhttp://abs.twimg.com/images/themes/theme1/bg.png
p2293
sg125
VDolickVilla
p2294
sg127
I1
sg128
VDolick Villa
p2295
sg130
VDDEEF6
p2296
sg132
Nsg133
I2823346195
sg134
VC0DEED
p2297
sbsg136
I269
sg137
V<a href="http://twitter.com/download/iphone" rel="nofollow">Twitter for iPhone</a>
p2298
sg139
(lp2299
sg133
I544090484893700097
sbag3
(g4
g5
Ntp2300
Rp2301
(dp2302
g9
I0
sg10
Nsg11
Nsg12
(lp2303
sg14
I00
sg15
g3
(g4
g5
Ntp2304
Rp2305
(dp2306
g9
I1080
sg10
Nsg11
Nsg12
(lp2307
sg14
I00
sg15
Nsg20
Nsg21
(lp2308
(dp2309
Vexpanded_url
p2310
Vhttp://twitter.com/ThislsAmazing/status/543248982600728576/photo/1
p2311
sVdisplay_url
p2312
Vpic.twitter.com/ZwWEjfP0q4
p2313
sVurl
p2314
Vhttp://t.co/ZwWEjfP0q4
p2315
sVmedia_url_https
p2316
Vhttps://pbs.twimg.com/media/B4oCEa4CYAIehjx.jpg
p2317
sVid_str
p2318
V543248980008656898
p2319
sVsizes
p2320
(dp2321
Vlarge
p2322
(dp2323
Vh
p2324
I817
sVresize
p2325
Vfit
p2326
sVw
p2327
I640
ssVsmall
p2328
(dp2329
Vh
p2330
I434
sVresize
p2331
Vfit
p2332
sVw
p2333
I340
ssVmedium
p2334
(dp2335
Vh
p2336
I765
sVresize
p2337
Vfit
p2338
sVw
p2339
I600
ssVthumb
p2340
(dp2341
Vh
p2342
I150
sVresize
p2343
Vcrop
p2344
sVw
p2345
I150
sssVindices
p2346
(lp2347
I110
aI132
asVtype
p2348
Vphoto
p2349
sVid
p2350
I543248980008656898
sVmedia_url
p2351
Vhttp://pbs.twimg.com/media/B4oCEa4CYAIehjx.jpg
p2352
sasg67
Nsg68
Nsg69
Nsg70
VFri Dec 12 03:40:25 +0000 2014
p2353
sg72
Nsg73
I01
sg74
Nsg75
Nsg76
Nsg77
Nsg78
I00
sg79
Nsg80
(lp2354
sg82
Nsg83
Nsg84
Nsg85
VKennedy selfie -- John F. Kennedy, his wife Jackie with the camera and his sister in-law Ethel Kennedy, 1954. http://t.co/ZwWEjfP0q4
p2355
sg87
I00
sg88
Ven
p2356
sg90
g3
(g91
g5
Ntp2357
Rp2358
(dp2359
g10
g95
sg96
V666666
p2360
sg98
Ven
p2361
sg100
VPacific Time (US & Canada)
p2362
sg102
I3303394
sg103
I58202
sg70
VSun May 30 04:33:13 +0000 2010
p2363
sg105
I00
sg106
VHistory is fun. Learn today. Be learnt tomorrow.  Contact: livingthehistorylife@gmail.com
p2364
sg108
Vhttps://pbs.twimg.com/profile_images/542596647134318592/a3O3n8nw_normal.jpeg
p2365
sg110
I13353
sg111
I443
sg112
I-28800
sg113
Nsg114
I00
sg115
Vhttps://pbs.twimg.com/profile_banners/149760844/1417429169
p2366
sg117
I00
sg118
I00
sg119
VFFCC4D
p2367
sg121
I01
sg122
I00
sg123
Vhttp://pbs.twimg.com/profile_background_images/472703723232182273/0X5Itz8E.jpeg
p2368
sg125
VThislsAmazing
p2369
sg127
I5107
sg128
VLost In History
p2370
sg130
V252429
p2371
sg132
Nsg133
I149760844
sg134
VDBE9ED
p2372
sbsg136
I558
sg137
V<a href="http://twitter.com" rel="nofollow">Twitter Web Client</a>
p2373
sg139
(lp2374
sg133
I543248982600728576
sbsg20
Nsg21
(lp2375
(dp2376
Vsource_user_id
p2377
I149760844
sVsource_status_id_str
p2378
V543248982600728576
p2379
sVexpanded_url
p2380
Vhttp://twitter.com/ThislsAmazing/status/543248982600728576/photo/1
p2381
sVdisplay_url
p2382
Vpic.twitter.com/ZwWEjfP0q4
p2383
sVurl
p2384
Vhttp://t.co/ZwWEjfP0q4
p2385
sVmedia_url_https
p2386
Vhttps://pbs.twimg.com/media/B4oCEa4CYAIehjx.jpg
p2387
sVsource_user_id_str
p2388
V149760844
p2389
sVsource_status_id
p2390
I543248982600728576
sVid_str
p2391
V543248980008656898
p2392
sVsizes
p2393
(dp2394
Vlarge
p2395
(dp2396
Vh
p2397
I817
sVresize
p2398
Vfit
p2399
sVw
p2400
I640
ssVsmall
p2401
(dp2402
Vh
p2403
I434
sVresize
p2404
Vfit
p2405
sVw
p2406
I340
ssVmedium
p2407
(dp2408
Vh
p2409
I765
sVresize
p2410
Vfit
p2411
sVw
p2412
I600
ssVthumb
p2413
(dp2414
Vh
p2415
I150
sVresize
p2416
Vcrop
p2417
sVw
p2418
I150
sssVindices
p2419
(lp2420
I139
aI140
asVtype
p2421
Vphoto
p2422
sVid
p2423
I543248980008656898
sVmedia_url
p2424
Vhttp://pbs.twimg.com/media/B4oCEa4CYAIehjx.jpg
p2425
sasg67
Nsg68
Nsg69
Nsg70
VSun Dec 14 11:23:24 +0000 2014
p2426
sg72
Nsg73
I00
sg74
Nsg75
Nsg76
Nsg77
Nsg78
I00
sg79
Nsg80
(lp2427
g3
(g91
g5
Ntp2428
Rp2429
(dp2430
g10
Nsg96
Nsg98
Nsg100
Nsg102
Nsg103
Nsg70
Nsg105
Nsg106
Nsg108
Nsg110
Nsg111
Nsg112
Nsg113
Nsg114
Nsg115
Nsg117
Nsg118
Nsg119
Nsg121
Nsg122
Nsg123
Nsg125
VThislsAmazing
p2431
sg127
Nsg128
VLost In History
p2432
sg130
Nsg132
Nsg133
I149760844
sg134
Nsbasg82
Nsg83
Nsg84
Nsg85
VRT @ThislsAmazing: Kennedy selfie -- John F. Kennedy, his wife Jackie with the camera and his sister in-law Ethel Kennedy, 1954. http://t.c\u2026
p2433
sg87
I00
sg88
Ven
p2434
sg90
g3
(g91
g5
Ntp2435
Rp2436
(dp2437
g10
g95
sg96
V333333
p2438
sg98
Ven
p2439
sg100
Nsg102
I186
sg103
I1167
sg70
VSun Sep 21 03:33:45 +0000 2014
p2440
sg105
I00
sg106
g95
sg108
Vhttps://abs.twimg.com/sticky/default_profile_images/default_profile_5_normal.png
p2441
sg110
I1163
sg111
I2473
sg112
Nsg113
Nsg114
I00
sg115
Nsg117
I00
sg118
I00
sg119
V0084B4
p2442
sg121
I00
sg122
I00
sg123
Vhttp://abs.twimg.com/images/themes/theme1/bg.png
p2443
sg125
VDolickVilla
p2444
sg127
I1
sg128
VDolick Villa
p2445
sg130
VDDEEF6
p2446
sg132
Nsg133
I2823346195
sg134
VC0DEED
p2447
sbsg136
I558
sg137
V<a href="http://twitter.com/download/iphone" rel="nofollow">Twitter for iPhone</a>
p2448
sg139
(lp2449
sg133
I544090272825475072
sbag3
(g4
g5
Ntp2450
Rp2451
(dp2452
g9
I0
sg10
Nsg11
Nsg12
(lp2453
sg14
I00
sg15
g3
(g4
g5
Ntp2454
Rp2455
(dp2456
g9
I1665
sg10
Nsg11
Nsg12
(lp2457
sg14
I00
sg15
Nsg20
Nsg21
(lp2458
(dp2459
Vexpanded_url
p2460
Vhttp://twitter.com/ThislsAmazing/status/543274023887851521/photo/1
p2461
sVdisplay_url
p2462
Vpic.twitter.com/JJwgrC2UOi
p2463
sVurl
p2464
Vhttp://t.co/JJwgrC2UOi
p2465
sVmedia_url_https
p2466
Vhttps://pbs.twimg.com/media/B4oY2KPIgAAe-XI.jpg
p2467
sVid_str
p2468
V543274023791394816
p2469
sVsizes
p2470
(dp2471
Vlarge
p2472
(dp2473
Vh
p2474
I763
sVresize
p2475
Vfit
p2476
sVw
p2477
I600
ssVsmall
p2478
(dp2479
Vh
p2480
I432
sVresize
p2481
Vfit
p2482
sVw
p2483
I340
ssVmedium
p2484
(dp2485
Vh
p2486
I763
sVresize
p2487
Vfit
p2488
sVw
p2489
I600
ssVthumb
p2490
(dp2491
Vh
p2492
I150
sVresize
p2493
Vcrop
p2494
sVw
p2495
I150
sssVindices
p2496
(lp2497
I21
aI43
asVtype
p2498
Vphoto
p2499
sVid
p2500
I543274023791394816
sVmedia_url
p2501
Vhttp://pbs.twimg.com/media/B4oY2KPIgAAe-XI.jpg
p2502
sasg67
Nsg68
Nsg69
Nsg70
VFri Dec 12 05:19:55 +0000 2014
p2503
sg72
Nsg73
I01
sg74
Nsg75
Nsg76
Nsg77
Nsg78
I00
sg79
Nsg80
(lp2504
sg82
Nsg83
Nsg84
Nsg85
VSnow in Paris, 1948. http://t.co/JJwgrC2UOi
p2505
sg87
I00
sg88
Ven
p2506
sg90
g3
(g91
g5
Ntp2507
Rp2508
(dp2509
g10
g95
sg96
V666666
p2510
sg98
Ven
p2511
sg100
VPacific Time (US & Canada)
p2512
sg102
I3303394
sg103
I58202
sg70
VSun May 30 04:33:13 +0000 2010
p2513
sg105
I00
sg106
VHistory is fun. Learn today. Be learnt tomorrow.  Contact: livingthehistorylife@gmail.com
p2514
sg108
Vhttps://pbs.twimg.com/profile_images/542596647134318592/a3O3n8nw_normal.jpeg
p2515
sg110
I13353
sg111
I443
sg112
I-28800
sg113
Nsg114
I00
sg115
Vhttps://pbs.twimg.com/profile_banners/149760844/1417429169
p2516
sg117
I00
sg118
I00
sg119
VFFCC4D
p2517
sg121
I01
sg122
I00
sg123
Vhttp://pbs.twimg.com/profile_background_images/472703723232182273/0X5Itz8E.jpeg
p2518
sg125
VThislsAmazing
p2519
sg127
I5107
sg128
VLost In History
p2520
sg130
V252429
p2521
sg132
Nsg133
I149760844
sg134
VDBE9ED
p2522
sbsg136
I860
sg137
V<a href="http://tapbots.com/tweetbot" rel="nofollow">Tweetbot for i\u039fS</a>
p2523
sg139
(lp2524
sg133
I543274023887851521
sbsg20
Nsg21
(lp2525
(dp2526
Vsource_user_id
p2527
I149760844
sVsource_status_id_str
p2528
V543274023887851521
p2529
sVexpanded_url
p2530
Vhttp://twitter.com/ThislsAmazing/status/543274023887851521/photo/1
p2531
sVdisplay_url
p2532
Vpic.twitter.com/JJwgrC2UOi
p2533
sVurl
p2534
Vhttp://t.co/JJwgrC2UOi
p2535
sVmedia_url_https
p2536
Vhttps://pbs.twimg.com/media/B4oY2KPIgAAe-XI.jpg
p2537
sVsource_user_id_str
p2538
V149760844
p2539
sVsource_status_id
p2540
I543274023887851521
sVid_str
p2541
V543274023791394816
p2542
sVsizes
p2543
(dp2544
Vlarge
p2545
(dp2546
Vh
p2547
I763
sVresize
p2548
Vfit
p2549
sVw
p2550
I600
ssVsmall
p2551
(dp2552
Vh
p2553
I432
sVresize
p2554
Vfit
p2555
sVw
p2556
I340
ssVmedium
p2557
(dp2558
Vh
p2559
I763
sVresize
p2560
Vfit
p2561
sVw
p2562
I600
ssVthumb
p2563
(dp2564
Vh
p2565
I150
sVresize
p2566
Vcrop
p2567
sVw
p2568
I150
sssVindices
p2569
(lp2570
I40
aI62
asVtype
p2571
Vphoto
p2572
sVid
p2573
I543274023791394816
sVmedia_url
p2574
Vhttp://pbs.twimg.com/media/B4oY2KPIgAAe-XI.jpg
p2575
sasg67
Nsg68
Nsg69
Nsg70
VSun Dec 14 11:22:56 +0000 2014
p2576
sg72
Nsg73
I00
sg74
Nsg75
Nsg76
Nsg77
Nsg78
I00
sg79
Nsg80
(lp2577
g3
(g91
g5
Ntp2578
Rp2579
(dp2580
g10
Nsg96
Nsg98
Nsg100
Nsg102
Nsg103
Nsg70
Nsg105
Nsg106
Nsg108
Nsg110
Nsg111
Nsg112
Nsg113
Nsg114
Nsg115
Nsg117
Nsg118
Nsg119
Nsg121
Nsg122
Nsg123
Nsg125
VThislsAmazing
p2581
sg127
Nsg128
VLost In History
p2582
sg130
Nsg132
Nsg133
I149760844
sg134
Nsbasg82
Nsg83
Nsg84
Nsg85
VRT @ThislsAmazing: Snow in Paris, 1948. http://t.co/JJwgrC2UOi
p2583
sg87
I00
sg88
Ven
p2584
sg90
g3
(g91
g5
Ntp2585
Rp2586
(dp2587
g10
g95
sg96
V333333
p2588
sg98
Ven
p2589
sg100
Nsg102
I186
sg103
I1167
sg70
VSun Sep 21 03:33:45 +0000 2014
p2590
sg105
I00
sg106
g95
sg108
Vhttps://abs.twimg.com/sticky/default_profile_images/default_profile_5_normal.png
p2591
sg110
I1163
sg111
I2473
sg112
Nsg113
Nsg114
I00
sg115
Nsg117
I00
sg118
I00
sg119
V0084B4
p2592
sg121
I00
sg122
I00
sg123
Vhttp://abs.twimg.com/images/themes/theme1/bg.png
p2593
sg125
VDolickVilla
p2594
sg127
I1
sg128
VDolick Villa
p2595
sg130
VDDEEF6
p2596
sg132
Nsg133
I2823346195
sg134
VC0DEED
p2597
sbsg136
I860
sg137
V<a href="http://twitter.com/download/iphone" rel="nofollow">Twitter for iPhone</a>
p2598
sg139
(lp2599
sg133
I544090155561144322
sbaa.