(lp0
S'lolitalover23'
p1
a(lp2
ccopy_reg
_reconstructor
p3
(ctwitter.status
Status
p4
c__builtin__
object
p5
Ntp6
Rp7
(dp8
S'_favorite_count'
p9
I0
sS'_location'
p10
NsS'_withheld_scope'
p11
NsS'hashtags'
p12
(lp13
g3
(ctwitter.hashtag
Hashtag
p14
g5
Ntp15
Rp16
(dp17
S'text'
p18
VDynasty_game
p19
sbasS'_truncated'
p20
I00
sS'_retweeted_status'
p21
NsS'_withheld_copyright'
p22
NsS'media'
p23
(lp24
(dp25
Vexpanded_url
p26
Vhttp://twitter.com/lolitalover23/status/543949258278174720/photo/1
p27
sVdisplay_url
p28
Vpic.twitter.com/oNuvoYUqds
p29
sVurl
p30
Vhttp://t.co/oNuvoYUqds
p31
sVmedia_url_https
p32
Vhttps://pbs.twimg.com/media/B4x-9-QCQAIFlwf.png
p33
sVid_str
p34
V543949258152361986
p35
sVsizes
p36
(dp37
Vsmall
p38
(dp39
Vh
p40
I165
sVresize
p41
Vfit
p42
sVw
p43
I340
ssVlarge
p44
(dp45
Vh
p46
I255
sVresize
p47
Vfit
p48
sVw
p49
I525
ssVmedium
p50
(dp51
Vh
p52
I255
sVresize
p53
Vfit
p54
sVw
p55
I525
ssVthumb
p56
(dp57
Vh
p58
I150
sVresize
p59
Vcrop
p60
sVw
p61
I150
sssVindices
p62
(lp63
I85
aI107
asVtype
p64
Vphoto
p65
sVid
p66
I543949258152361986
sVmedia_url
p67
Vhttp://pbs.twimg.com/media/B4x-9-QCQAIFlwf.png
p68
sasS'_place'
p69
NsS'_contributors'
p70
NsS'_current_user_retweet'
p71
NsS'_created_at'
p72
VSun Dec 14 02:03:03 +0000 2014
p73
sS'_scopes'
p74
NsS'_possibly_sensitive'
p75
I00
sS'_in_reply_to_screen_name'
p76
NsS'_coordinates'
p77
NsS'_in_reply_to_user_id'
p78
NsS'_geo'
p79
NsS'_favorited'
p80
I00
sS'_withheld_in_countries'
p81
NsS'user_mentions'
p82
(lp83
sS'_now'
p84
NsS'_id_str'
p85
NsS'_in_reply_to_status_id'
p86
NsS'_text'
p87
VNew quest: Ferris wheel! Click here to get it: http://t.co/EZlVCr6jov\u000a #Dynasty_game http://t.co/oNuvoYUqds
p88
sS'_retweeted'
p89
I00
sS'lang'
p90
Ven
p91
sS'_user'
p92
g3
(ctwitter.user
User
p93
g5
Ntp94
Rp95
(dp96
g10
V
p97
sS'_profile_text_color'
p98
V333333
p99
sS'_lang'
p100
Ven
p101
sS'_time_zone'
p102
NsS'_followers_count'
p103
I2
sS'_statuses_count'
p104
I173
sg72
VTue Feb 18 08:34:36 +0000 2014
p105
sS'_verified'
p106
I00
sS'_description'
p107
g97
sS'_profile_image_url'
p108
Vhttps://abs.twimg.com/sticky/default_profile_images/default_profile_6_normal.png
p109
sS'_friends_count'
p110
I1
sS'_favourites_count'
p111
I0
sS'_utc_offset'
p112
NsS'_status'
p113
NsS'_protected'
p114
I00
sS'_profile_banner_url'
p115
NsS'_notifications'
p116
I00
sS'_profile_background_tile'
p117
I00
sS'_profile_link_color'
p118
V0084B4
p119
sS'_geo_enabled'
p120
I00
sS'_contributors_enabled'
p121
I00
sS'_profile_background_image_url'
p122
Vhttp://abs.twimg.com/images/themes/theme1/bg.png
p123
sS'_screen_name'
p124
Vlolitalover23
p125
sS'_listed_count'
p126
I0
sS'_name'
p127
VWheelgirl89
p128
sS'_profile_sidebar_fill_color'
p129
VDDEEF6
p130
sS'_url'
p131
NsS'_id'
p132
I2349788888
sS'_profile_background_color'
p133
VC0DEED
p134
sbsS'_retweet_count'
p135
I0
sS'_source'
p136
V<a href="http://www.apple.com" rel="nofollow">iOS</a>
p137
sS'urls'
p138
(lp139
g3
(ctwitter.url
Url
p140
g5
Ntp141
Rp142
(dp143
S'url'
p144
Vhttp://t.co/EZlVCr6jov
p145
sS'expanded_url'
p146
Vhttp://bit.ly/1BII1Cw
p147
sbasg132
I543949258278174720
sbag3
(g4
g5
Ntp148
Rp149
(dp150
g9
I0
sg10
Nsg11
Nsg12
(lp151
g3
(g14
g5
Ntp152
Rp153
(dp154
g18
VDynasty_game
p155
sbasg20
I00
sg21
Nsg22
Nsg23
(lp156
(dp157
Vexpanded_url
p158
Vhttp://twitter.com/lolitalover23/status/543854014706630656/photo/1
p159
sVdisplay_url
p160
Vpic.twitter.com/czVPOZf20B
p161
sVurl
p162
Vhttp://t.co/czVPOZf20B
p163
sVmedia_url_https
p164
Vhttps://pbs.twimg.com/media/B4woWEiCMAEV10j.png
p165
sVid_str
p166
V543854014643712001
p167
sVsizes
p168
(dp169
Vsmall
p170
(dp171
Vh
p172
I165
sVresize
p173
Vfit
p174
sVw
p175
I340
ssVlarge
p176
(dp177
Vh
p178
I255
sVresize
p179
Vfit
p180
sVw
p181
I525
ssVmedium
p182
(dp183
Vh
p184
I255
sVresize
p185
Vfit
p186
sVw
p187
I525
ssVthumb
p188
(dp189
Vh
p190
I150
sVresize
p191
Vcrop
p192
sVw
p193
I150
sssVindices
p194
(lp195
I96
aI118
asVtype
p196
Vphoto
p197
sVid
p198
I543854014643712001
sVmedia_url
p199
Vhttp://pbs.twimg.com/media/B4woWEiCMAEV10j.png
p200
sasg69
Nsg70
Nsg71
Nsg72
VSat Dec 13 19:44:36 +0000 2014
p201
sg74
Nsg75
I00
sg76
Nsg77
Nsg78
Nsg79
Nsg80
I00
sg81
Nsg82
(lp202
sg84
Nsg85
Nsg86
Nsg87
VNew quest: The Beauty of the North! Click here to get it: http://t.co/KjaEM45YAE\u000a #Dynasty_game http://t.co/czVPOZf20B
p203
sg89
I00
sg90
Ven
p204
sg92
g3
(g93
g5
Ntp205
Rp206
(dp207
g10
g97
sg98
V333333
p208
sg100
Ven
p209
sg102
Nsg103
I2
sg104
I173
sg72
VTue Feb 18 08:34:36 +0000 2014
p210
sg106
I00
sg107
g97
sg108
Vhttps://abs.twimg.com/sticky/default_profile_images/default_profile_6_normal.png
p211
sg110
I1
sg111
I0
sg112
Nsg113
Nsg114
I00
sg115
Nsg116
I00
sg117
I00
sg118
V0084B4
p212
sg120
I00
sg121
I00
sg122
Vhttp://abs.twimg.com/images/themes/theme1/bg.png
p213
sg124
Vlolitalover23
p214
sg126
I0
sg127
VWheelgirl89
p215
sg129
VDDEEF6
p216
sg131
Nsg132
I2349788888
sg133
VC0DEED
p217
sbsg135
I0
sg136
V<a href="http://www.apple.com" rel="nofollow">iOS</a>
p218
sg138
(lp219
g3
(g140
g5
Ntp220
Rp221
(dp222
g144
Vhttp://t.co/KjaEM45YAE
p223
sg146
Vhttp://bit.ly/1313nvR
p224
sbasg132
I543854014706630656
sbag3
(g4
g5
Ntp225
Rp226
(dp227
g9
I0
sg10
Nsg11
Nsg12
(lp228
g3
(g14
g5
Ntp229
Rp230
(dp231
g18
VDynasty_game
p232
sbasg20
I00
sg21
Nsg22
Nsg23
(lp233
(dp234
Vexpanded_url
p235
Vhttp://twitter.com/lolitalover23/status/543812965762211840/photo/1
p236
sVdisplay_url
p237
Vpic.twitter.com/kAZ8vXkyVk
p238
sVurl
p239
Vhttp://t.co/kAZ8vXkyVk
p240
sVmedia_url_https
p241
Vhttps://pbs.twimg.com/media/B4wDAtSCQAEu2xr.png
p242
sVid_str
p243
V543812965695111169
p244
sVsizes
p245
(dp246
Vsmall
p247
(dp248
Vh
p249
I165
sVresize
p250
Vfit
p251
sVw
p252
I340
ssVlarge
p253
(dp254
Vh
p255
I255
sVresize
p256
Vfit
p257
sVw
p258
I525
ssVmedium
p259
(dp260
Vh
p261
I255
sVresize
p262
Vfit
p263
sVw
p264
I525
ssVthumb
p265
(dp266
Vh
p267
I150
sVresize
p268
Vcrop
p269
sVw
p270
I150
sssVindices
p271
(lp272
I86
aI108
asVtype
p273
Vphoto
p274
sVid
p275
I543812965695111169
sVmedia_url
p276
Vhttp://pbs.twimg.com/media/B4wDAtSCQAEu2xr.png
p277
sasg69
Nsg70
Nsg71
Nsg72
VSat Dec 13 17:01:29 +0000 2014
p278
sg74
Nsg75
I00
sg76
Nsg77
Nsg78
Nsg79
Nsg80
I00
sg81
Nsg82
(lp279
sg84
Nsg85
Nsg86
Nsg87
VNew quest: Edged weapons! Click here to get it: http://t.co/Bl6im6FSkA\u000a #Dynasty_game http://t.co/kAZ8vXkyVk
p280
sg89
I00
sg90
Ven
p281
sg92
g3
(g93
g5
Ntp282
Rp283
(dp284
g10
g97
sg98
V333333
p285
sg100
Ven
p286
sg102
Nsg103
I2
sg104
I173
sg72
VTue Feb 18 08:34:36 +0000 2014
p287
sg106
I00
sg107
g97
sg108
Vhttps://abs.twimg.com/sticky/default_profile_images/default_profile_6_normal.png
p288
sg110
I1
sg111
I0
sg112
Nsg113
Nsg114
I00
sg115
Nsg116
I00
sg117
I00
sg118
V0084B4
p289
sg120
I00
sg121
I00
sg122
Vhttp://abs.twimg.com/images/themes/theme1/bg.png
p290
sg124
Vlolitalover23
p291
sg126
I0
sg127
VWheelgirl89
p292
sg129
VDDEEF6
p293
sg131
Nsg132
I2349788888
sg133
VC0DEED
p294
sbsg135
I0
sg136
V<a href="http://www.apple.com" rel="nofollow">iOS</a>
p295
sg138
(lp296
g3
(g140
g5
Ntp297
Rp298
(dp299
g144
Vhttp://t.co/Bl6im6FSkA
p300
sg146
Vhttp://bit.ly/1yMW9ts
p301
sbasg132
I543812965762211840
sbag3
(g4
g5
Ntp302
Rp303
(dp304
g9
I0
sg10
Nsg11
Nsg12
(lp305
g3
(g14
g5
Ntp306
Rp307
(dp308
g18
VDynasty_game
p309
sbasg20
I00
sg21
Nsg22
Nsg23
(lp310
(dp311
Vexpanded_url
p312
Vhttp://twitter.com/lolitalover23/status/543680039493971968/photo/1
p313
sVdisplay_url
p314
Vpic.twitter.com/24n0UlmcXg
p315
sVurl
p316
Vhttp://t.co/24n0UlmcXg
p317
sVmedia_url_https
p318
Vhttps://pbs.twimg.com/media/B4uKHYaCAAA5hOE.png
p319
sVid_str
p320
V543680039443628032
p321
sVsizes
p322
(dp323
Vsmall
p324
(dp325
Vh
p326
I165
sVresize
p327
Vfit
p328
sVw
p329
I340
ssVlarge
p330
(dp331
Vh
p332
I255
sVresize
p333
Vfit
p334
sVw
p335
I525
ssVmedium
p336
(dp337
Vh
p338
I255
sVresize
p339
Vfit
p340
sVw
p341
I525
ssVthumb
p342
(dp343
Vh
p344
I150
sVresize
p345
Vcrop
p346
sVw
p347
I150
sssVindices
p348
(lp349
I102
aI124
asVtype
p350
Vphoto
p351
sVid
p352
I543680039443628032
sVmedia_url
p353
Vhttp://pbs.twimg.com/media/B4uKHYaCAAA5hOE.png
p354
sasg69
Nsg70
Nsg71
Nsg72
VSat Dec 13 08:13:17 +0000 2014
p355
sg74
Nsg75
I00
sg76
Nsg77
Nsg78
Nsg79
Nsg80
I00
sg81
Nsg82
(lp356
sg84
Nsg85
Nsg86
Nsg87
VNew collection: Ferris wheel operator! Click here to gather it: http://t.co/qFUnmZiVU9\u000a #Dynasty_game http://t.co/24n0UlmcXg
p357
sg89
I00
sg90
Ven
p358
sg92
g3
(g93
g5
Ntp359
Rp360
(dp361
g10
g97
sg98
V333333
p362
sg100
Ven
p363
sg102
Nsg103
I2
sg104
I173
sg72
VTue Feb 18 08:34:36 +0000 2014
p364
sg106
I00
sg107
g97
sg108
Vhttps://abs.twimg.com/sticky/default_profile_images/default_profile_6_normal.png
p365
sg110
I1
sg111
I0
sg112
Nsg113
Nsg114
I00
sg115
Nsg116
I00
sg117
I00
sg118
V0084B4
p366
sg120
I00
sg121
I00
sg122
Vhttp://abs.twimg.com/images/themes/theme1/bg.png
p367
sg124
Vlolitalover23
p368
sg126
I0
sg127
VWheelgirl89
p369
sg129
VDDEEF6
p370
sg131
Nsg132
I2349788888
sg133
VC0DEED
p371
sbsg135
I0
sg136
V<a href="http://www.apple.com" rel="nofollow">iOS</a>
p372
sg138
(lp373
g3
(g140
g5
Ntp374
Rp375
(dp376
g144
Vhttp://t.co/qFUnmZiVU9
p377
sg146
Vhttp://bit.ly/1wlx8Dm
p378
sbasg132
I543680039493971968
sbag3
(g4
g5
Ntp379
Rp380
(dp381
g9
I0
sg10
Nsg11
Nsg12
(lp382
g3
(g14
g5
Ntp383
Rp384
(dp385
g18
VDynasty_game
p386
sbasg20
I00
sg21
Nsg22
Nsg23
(lp387
(dp388
Vexpanded_url
p389
Vhttp://twitter.com/lolitalover23/status/543678944809996288/photo/1
p390
sVdisplay_url
p391
Vpic.twitter.com/oYXlUJSe5d
p392
sVurl
p393
Vhttp://t.co/oYXlUJSe5d
p394
sVmedia_url_https
p395
Vhttps://pbs.twimg.com/media/B4uJHqNCQAAyM5K.png
p396
sVid_str
p397
V543678944709328896
p398
sVsizes
p399
(dp400
Vsmall
p401
(dp402
Vh
p403
I165
sVresize
p404
Vfit
p405
sVw
p406
I340
ssVlarge
p407
(dp408
Vh
p409
I255
sVresize
p410
Vfit
p411
sVw
p412
I525
ssVmedium
p413
(dp414
Vh
p415
I255
sVresize
p416
Vfit
p417
sVw
p418
I525
ssVthumb
p419
(dp420
Vh
p421
I150
sVresize
p422
Vcrop
p423
sVw
p424
I150
sssVindices
p425
(lp426
I89
aI111
asVtype
p427
Vphoto
p428
sVid
p429
I543678944709328896
sVmedia_url
p430
Vhttp://pbs.twimg.com/media/B4uJHqNCQAAyM5K.png
p431
sasg69
Nsg70
Nsg71
Nsg72
VSat Dec 13 08:08:56 +0000 2014
p432
sg74
Nsg75
I00
sg76
Nsg77
Nsg78
Nsg79
Nsg80
I00
sg81
Nsg82
(lp433
sg84
Nsg85
Nsg86
Nsg87
VNew achievement: 35 level! Click here to level-up: http://t.co/czFqSEpTpe\u000a #Dynasty_game http://t.co/oYXlUJSe5d
p434
sg89
I00
sg90
Ven
p435
sg92
g3
(g93
g5
Ntp436
Rp437
(dp438
g10
g97
sg98
V333333
p439
sg100
Ven
p440
sg102
Nsg103
I2
sg104
I173
sg72
VTue Feb 18 08:34:36 +0000 2014
p441
sg106
I00
sg107
g97
sg108
Vhttps://abs.twimg.com/sticky/default_profile_images/default_profile_6_normal.png
p442
sg110
I1
sg111
I0
sg112
Nsg113
Nsg114
I00
sg115
Nsg116
I00
sg117
I00
sg118
V0084B4
p443
sg120
I00
sg121
I00
sg122
Vhttp://abs.twimg.com/images/themes/theme1/bg.png
p444
sg124
Vlolitalover23
p445
sg126
I0
sg127
VWheelgirl89
p446
sg129
VDDEEF6
p447
sg131
Nsg132
I2349788888
sg133
VC0DEED
p448
sbsg135
I0
sg136
V<a href="http://www.apple.com" rel="nofollow">iOS</a>
p449
sg138
(lp450
g3
(g140
g5
Ntp451
Rp452
(dp453
g144
Vhttp://t.co/czFqSEpTpe
p454
sg146
Vhttp://bit.ly/1A2k4Co
p455
sbasg132
I543678944809996288
sbag3
(g4
g5
Ntp456
Rp457
(dp458
g9
I0
sg10
Nsg11
Nsg12
(lp459
g3
(g14
g5
Ntp460
Rp461
(dp462
g18
VDynasty_game
p463
sbasg20
I00
sg21
Nsg22
Nsg23
(lp464
(dp465
Vexpanded_url
p466
Vhttp://twitter.com/lolitalover23/status/543678944667369472/photo/1
p467
sVdisplay_url
p468
Vpic.twitter.com/KOlTHghWDh
p469
sVurl
p470
Vhttp://t.co/KOlTHghWDh
p471
sVmedia_url_https
p472
Vhttps://pbs.twimg.com/media/B4uJHpzCAAAdJlz.png
p473
sVid_str
p474
V543678944600260608
p475
sVsizes
p476
(dp477
Vsmall
p478
(dp479
Vh
p480
I165
sVresize
p481
Vfit
p482
sVw
p483
I340
ssVlarge
p484
(dp485
Vh
p486
I255
sVresize
p487
Vfit
p488
sVw
p489
I525
ssVmedium
p490
(dp491
Vh
p492
I255
sVresize
p493
Vfit
p494
sVw
p495
I525
ssVthumb
p496
(dp497
Vh
p498
I150
sVresize
p499
Vcrop
p500
sVw
p501
I150
sssVindices
p502
(lp503
I82
aI104
asVtype
p504
Vphoto
p505
sVid
p506
I543678944600260608
sVmedia_url
p507
Vhttp://pbs.twimg.com/media/B4uJHpzCAAAdJlz.png
p508
sasg69
Nsg70
Nsg71
Nsg72
VSat Dec 13 08:08:56 +0000 2014
p509
sg74
Nsg75
I00
sg76
Nsg77
Nsg78
Nsg79
Nsg80
I00
sg81
Nsg82
(lp510
sg84
Nsg85
Nsg86
Nsg87
VNew quest: Gunpowder! Click here to get it: http://t.co/IxDChGoXdk\u000a #Dynasty_game http://t.co/KOlTHghWDh
p511
sg89
I00
sg90
Ven
p512
sg92
g3
(g93
g5
Ntp513
Rp514
(dp515
g10
g97
sg98
V333333
p516
sg100
Ven
p517
sg102
Nsg103
I2
sg104
I173
sg72
VTue Feb 18 08:34:36 +0000 2014
p518
sg106
I00
sg107
g97
sg108
Vhttps://abs.twimg.com/sticky/default_profile_images/default_profile_6_normal.png
p519
sg110
I1
sg111
I0
sg112
Nsg113
Nsg114
I00
sg115
Nsg116
I00
sg117
I00
sg118
V0084B4
p520
sg120
I00
sg121
I00
sg122
Vhttp://abs.twimg.com/images/themes/theme1/bg.png
p521
sg124
Vlolitalover23
p522
sg126
I0
sg127
VWheelgirl89
p523
sg129
VDDEEF6
p524
sg131
Nsg132
I2349788888
sg133
VC0DEED
p525
sbsg135
I0
sg136
V<a href="http://www.apple.com" rel="nofollow">iOS</a>
p526
sg138
(lp527
g3
(g140
g5
Ntp528
Rp529
(dp530
g144
Vhttp://t.co/IxDChGoXdk
p531
sg146
Vhttp://bit.ly/1A2k3hM
p532
sbasg132
I543678944667369472
sbag3
(g4
g5
Ntp533
Rp534
(dp535
g9
I0
sg10
Nsg11
Nsg12
(lp536
g3
(g14
g5
Ntp537
Rp538
(dp539
g18
VDynasty_game
p540
sbasg20
I00
sg21
Nsg22
Nsg23
(lp541
(dp542
Vexpanded_url
p543
Vhttp://twitter.com/lolitalover23/status/543678110655201281/photo/1
p544
sVdisplay_url
p545
Vpic.twitter.com/cVxiSGq7g0
p546
sVurl
p547
Vhttp://t.co/cVxiSGq7g0
p548
sVmedia_url_https
p549
Vhttps://pbs.twimg.com/media/B4uIXGqCEAA8YEJ.png
p550
sVid_str
p551
V543678110533554176
p552
sVsizes
p553
(dp554
Vsmall
p555
(dp556
Vh
p557
I165
sVresize
p558
Vfit
p559
sVw
p560
I340
ssVlarge
p561
(dp562
Vh
p563
I255
sVresize
p564
Vfit
p565
sVw
p566
I525
ssVmedium
p567
(dp568
Vh
p569
I255
sVresize
p570
Vfit
p571
sVw
p572
I525
ssVthumb
p573
(dp574
Vh
p575
I150
sVresize
p576
Vcrop
p577
sVw
p578
I150
sssVindices
p579
(lp580
I87
aI109
asVtype
p581
Vphoto
p582
sVid
p583
I543678110533554176
sVmedia_url
p584
Vhttp://pbs.twimg.com/media/B4uIXGqCEAA8YEJ.png
p585
sasg69
Nsg70
Nsg71
Nsg72
VSat Dec 13 08:05:37 +0000 2014
p586
sg74
Nsg75
I00
sg76
Nsg77
Nsg78
Nsg79
Nsg80
I00
sg81
Nsg82
(lp587
sg84
Nsg85
Nsg86
Nsg87
VNew quest: Produce whisky! Click here to get it: http://t.co/0p15ralEAU\u000a #Dynasty_game http://t.co/cVxiSGq7g0
p588
sg89
I00
sg90
Ven
p589
sg92
g3
(g93
g5
Ntp590
Rp591
(dp592
g10
g97
sg98
V333333
p593
sg100
Ven
p594
sg102
Nsg103
I2
sg104
I173
sg72
VTue Feb 18 08:34:36 +0000 2014
p595
sg106
I00
sg107
g97
sg108
Vhttps://abs.twimg.com/sticky/default_profile_images/default_profile_6_normal.png
p596
sg110
I1
sg111
I0
sg112
Nsg113
Nsg114
I00
sg115
Nsg116
I00
sg117
I00
sg118
V0084B4
p597
sg120
I00
sg121
I00
sg122
Vhttp://abs.twimg.com/images/themes/theme1/bg.png
p598
sg124
Vlolitalover23
p599
sg126
I0
sg127
VWheelgirl89
p600
sg129
VDDEEF6
p601
sg131
Nsg132
I2349788888
sg133
VC0DEED
p602
sbsg135
I0
sg136
V<a href="http://www.apple.com" rel="nofollow">iOS</a>
p603
sg138
(lp604
g3
(g140
g5
Ntp605
Rp606
(dp607
g144
Vhttp://t.co/0p15ralEAU
p608
sg146
Vhttp://bit.ly/1wlvOAl
p609
sbasg132
I543678110655201281
sbag3
(g4
g5
Ntp610
Rp611
(dp612
g9
I0
sg10
Nsg11
Nsg12
(lp613
g3
(g14
g5
Ntp614
Rp615
(dp616
g18
VDynasty_game
p617
sbasg20
I00
sg21
Nsg22
Nsg23
(lp618
(dp619
Vexpanded_url
p620
Vhttp://twitter.com/lolitalover23/status/543571793508700160/photo/1
p621
sVdisplay_url
p622
Vpic.twitter.com/ibOc0LL1hG
p623
sVurl
p624
Vhttp://t.co/ibOc0LL1hG
p625
sVmedia_url_https
p626
Vhttps://pbs.twimg.com/media/B4snqoqCYAA_QRm.png
p627
sVid_str
p628
V543571793450000384
p629
sVsizes
p630
(dp631
Vsmall
p632
(dp633
Vh
p634
I165
sVresize
p635
Vfit
p636
sVw
p637
I340
ssVlarge
p638
(dp639
Vh
p640
I255
sVresize
p641
Vfit
p642
sVw
p643
I525
ssVmedium
p644
(dp645
Vh
p646
I255
sVresize
p647
Vfit
p648
sVw
p649
I525
ssVthumb
p650
(dp651
Vh
p652
I150
sVresize
p653
Vcrop
p654
sVw
p655
I150
sssVindices
p656
(lp657
I97
aI119
asVtype
p658
Vphoto
p659
sVid
p660
I543571793450000384
sVmedia_url
p661
Vhttp://pbs.twimg.com/media/B4snqoqCYAA_QRm.png
p662
sasg69
Nsg70
Nsg71
Nsg72
VSat Dec 13 01:03:09 +0000 2014
p663
sg74
Nsg75
I00
sg76
Nsg77
Nsg78
Nsg79
Nsg80
I00
sg81
Nsg82
(lp664
sg84
Nsg85
Nsg86
Nsg87
VNew collection: Furniture Vendor! Click here to gather it: http://t.co/EJLg7LJxsK\u000a #Dynasty_game http://t.co/ibOc0LL1hG
p665
sg89
I00
sg90
Ven
p666
sg92
g3
(g93
g5
Ntp667
Rp668
(dp669
g10
g97
sg98
V333333
p670
sg100
Ven
p671
sg102
Nsg103
I2
sg104
I173
sg72
VTue Feb 18 08:34:36 +0000 2014
p672
sg106
I00
sg107
g97
sg108
Vhttps://abs.twimg.com/sticky/default_profile_images/default_profile_6_normal.png
p673
sg110
I1
sg111
I0
sg112
Nsg113
Nsg114
I00
sg115
Nsg116
I00
sg117
I00
sg118
V0084B4
p674
sg120
I00
sg121
I00
sg122
Vhttp://abs.twimg.com/images/themes/theme1/bg.png
p675
sg124
Vlolitalover23
p676
sg126
I0
sg127
VWheelgirl89
p677
sg129
VDDEEF6
p678
sg131
Nsg132
I2349788888
sg133
VC0DEED
p679
sbsg135
I0
sg136
V<a href="http://www.apple.com" rel="nofollow">iOS</a>
p680
sg138
(lp681
g3
(g140
g5
Ntp682
Rp683
(dp684
g144
Vhttp://t.co/EJLg7LJxsK
p685
sg146
Vhttp://bit.ly/1AtdXH9
p686
sbasg132
I543571793508700160
sbag3
(g4
g5
Ntp687
Rp688
(dp689
g9
I0
sg10
Nsg11
Nsg12
(lp690
g3
(g14
g5
Ntp691
Rp692
(dp693
g18
VDynasty_game
p694
sbasg20
I00
sg21
Nsg22
Nsg23
(lp695
(dp696
Vexpanded_url
p697
Vhttp://twitter.com/lolitalover23/status/543561749127901184/photo/1
p698
sVdisplay_url
p699
Vpic.twitter.com/b9WieGjIdv
p700
sVurl
p701
Vhttp://t.co/b9WieGjIdv
p702
sVmedia_url_https
p703
Vhttps://pbs.twimg.com/media/B4seh-PCYAAzNjs.png
p704
sVid_str
p705
V543561749018861568
p706
sVsizes
p707
(dp708
Vsmall
p709
(dp710
Vh
p711
I165
sVresize
p712
Vfit
p713
sVw
p714
I340
ssVlarge
p715
(dp716
Vh
p717
I255
sVresize
p718
Vfit
p719
sVw
p720
I525
ssVmedium
p721
(dp722
Vh
p723
I255
sVresize
p724
Vfit
p725
sVw
p726
I525
ssVthumb
p727
(dp728
Vh
p729
I150
sVresize
p730
Vcrop
p731
sVw
p732
I150
sssVindices
p733
(lp734
I93
aI115
asVtype
p735
Vphoto
p736
sVid
p737
I543561749018861568
sVmedia_url
p738
Vhttp://pbs.twimg.com/media/B4seh-PCYAAzNjs.png
p739
sasg69
Nsg70
Nsg71
Nsg72
VSat Dec 13 00:23:14 +0000 2014
p740
sg74
Nsg75
I00
sg76
Nsg77
Nsg78
Nsg79
Nsg80
I00
sg81
Nsg82
(lp741
sg84
Nsg85
Nsg86
Nsg87
VNew quest: Cellar with barrells! Click here to get it: http://t.co/O10FqyMwsg\u000a #Dynasty_game http://t.co/b9WieGjIdv
p742
sg89
I00
sg90
Ven
p743
sg92
g3
(g93
g5
Ntp744
Rp745
(dp746
g10
g97
sg98
V333333
p747
sg100
Ven
p748
sg102
Nsg103
I2
sg104
I173
sg72
VTue Feb 18 08:34:36 +0000 2014
p749
sg106
I00
sg107
g97
sg108
Vhttps://abs.twimg.com/sticky/default_profile_images/default_profile_6_normal.png
p750
sg110
I1
sg111
I0
sg112
Nsg113
Nsg114
I00
sg115
Nsg116
I00
sg117
I00
sg118
V0084B4
p751
sg120
I00
sg121
I00
sg122
Vhttp://abs.twimg.com/images/themes/theme1/bg.png
p752
sg124
Vlolitalover23
p753
sg126
I0
sg127
VWheelgirl89
p754
sg129
VDDEEF6
p755
sg131
Nsg132
I2349788888
sg133
VC0DEED
p756
sbsg135
I0
sg136
V<a href="http://www.apple.com" rel="nofollow">iOS</a>
p757
sg138
(lp758
g3
(g140
g5
Ntp759
Rp760
(dp761
g144
Vhttp://t.co/O10FqyMwsg
p762
sg146
Vhttp://bit.ly/1qGhmCk
p763
sbasg132
I543561749127901184
sbag3
(g4
g5
Ntp764
Rp765
(dp766
g9
I0
sg10
Nsg11
Nsg12
(lp767
g3
(g14
g5
Ntp768
Rp769
(dp770
g18
VDynasty_game
p771
sbasg20
I00
sg21
Nsg22
Nsg23
(lp772
(dp773
Vexpanded_url
p774
Vhttp://twitter.com/lolitalover23/status/543537014830673920/photo/1
p775
sVdisplay_url
p776
Vpic.twitter.com/sOlJxDCipp
p777
sVurl
p778
Vhttp://t.co/sOlJxDCipp
p779
sVmedia_url_https
p780
Vhttps://pbs.twimg.com/media/B4sICPxCEAA0Ycz.png
p781
sVid_str
p782
V543537014713225216
p783
sVsizes
p784
(dp785
Vsmall
p786
(dp787
Vh
p788
I165
sVresize
p789
Vfit
p790
sVw
p791
I340
ssVlarge
p792
(dp793
Vh
p794
I255
sVresize
p795
Vfit
p796
sVw
p797
I525
ssVmedium
p798
(dp799
Vh
p800
I255
sVresize
p801
Vfit
p802
sVw
p803
I525
ssVthumb
p804
(dp805
Vh
p806
I150
sVresize
p807
Vcrop
p808
sVw
p809
I150
sssVindices
p810
(lp811
I101
aI123
asVtype
p812
Vphoto
p813
sVid
p814
I543537014713225216
sVmedia_url
p815
Vhttp://pbs.twimg.com/media/B4sICPxCEAA0Ycz.png
p816
sasg69
Nsg70
Nsg71
Nsg72
VFri Dec 12 22:44:57 +0000 2014
p817
sg74
Nsg75
I00
sg76
Nsg77
Nsg78
Nsg79
Nsg80
I00
sg81
Nsg82
(lp818
sg84
Nsg85
Nsg86
Nsg87
VNew collection: Barrel cellar keeper! Click here to gather it: http://t.co/ZACNqEs6b0\u000a #Dynasty_game http://t.co/sOlJxDCipp
p819
sg89
I00
sg90
Ven
p820
sg92
g3
(g93
g5
Ntp821
Rp822
(dp823
g10
g97
sg98
V333333
p824
sg100
Ven
p825
sg102
Nsg103
I2
sg104
I173
sg72
VTue Feb 18 08:34:36 +0000 2014
p826
sg106
I00
sg107
g97
sg108
Vhttps://abs.twimg.com/sticky/default_profile_images/default_profile_6_normal.png
p827
sg110
I1
sg111
I0
sg112
Nsg113
Nsg114
I00
sg115
Nsg116
I00
sg117
I00
sg118
V0084B4
p828
sg120
I00
sg121
I00
sg122
Vhttp://abs.twimg.com/images/themes/theme1/bg.png
p829
sg124
Vlolitalover23
p830
sg126
I0
sg127
VWheelgirl89
p831
sg129
VDDEEF6
p832
sg131
Nsg132
I2349788888
sg133
VC0DEED
p833
sbsg135
I0
sg136
V<a href="http://www.apple.com" rel="nofollow">iOS</a>
p834
sg138
(lp835
g3
(g140
g5
Ntp836
Rp837
(dp838
g144
Vhttp://t.co/ZACNqEs6b0
p839
sg146
Vhttp://bit.ly/1wKaiaF
p840
sbasg132
I543537014830673920
sbag3
(g4
g5
Ntp841
Rp842
(dp843
g9
I0
sg10
Nsg11
Nsg12
(lp844
g3
(g14
g5
Ntp845
Rp846
(dp847
g18
VDynasty_game
p848
sbasg20
I00
sg21
Nsg22
Nsg23
(lp849
(dp850
Vexpanded_url
p851
Vhttp://twitter.com/lolitalover23/status/543496850976669697/photo/1
p852
sVdisplay_url
p853
Vpic.twitter.com/ulydnSya4v
p854
sVurl
p855
Vhttp://t.co/ulydnSya4v
p856
sVmedia_url_https
p857
Vhttps://pbs.twimg.com/media/B4rjgZyCQAAZv1W.png
p858
sVid_str
p859
V543496850867634176
p860
sVsizes
p861
(dp862
Vsmall
p863
(dp864
Vh
p865
I165
sVresize
p866
Vfit
p867
sVw
p868
I340
ssVlarge
p869
(dp870
Vh
p871
I255
sVresize
p872
Vfit
p873
sVw
p874
I525
ssVmedium
p875
(dp876
Vh
p877
I255
sVresize
p878
Vfit
p879
sVw
p880
I525
ssVthumb
p881
(dp882
Vh
p883
I150
sVresize
p884
Vcrop
p885
sVw
p886
I150
sssVindices
p887
(lp888
I93
aI115
asVtype
p889
Vphoto
p890
sVid
p891
I543496850867634176
sVmedia_url
p892
Vhttp://pbs.twimg.com/media/B4rjgZyCQAAZv1W.png
p893
sasg69
Nsg70
Nsg71
Nsg72
VFri Dec 12 20:05:21 +0000 2014
p894
sg74
Nsg75
I00
sg76
Nsg77
Nsg78
Nsg79
Nsg80
I00
sg81
Nsg82
(lp895
sg84
Nsg85
Nsg86
Nsg87
VNew quest: Cast iron production! Click here to get it: http://t.co/qdXVUiJjif\u000a #Dynasty_game http://t.co/ulydnSya4v
p896
sg89
I00
sg90
Ven
p897
sg92
g3
(g93
g5
Ntp898
Rp899
(dp900
g10
g97
sg98
V333333
p901
sg100
Ven
p902
sg102
Nsg103
I2
sg104
I173
sg72
VTue Feb 18 08:34:36 +0000 2014
p903
sg106
I00
sg107
g97
sg108
Vhttps://abs.twimg.com/sticky/default_profile_images/default_profile_6_normal.png
p904
sg110
I1
sg111
I0
sg112
Nsg113
Nsg114
I00
sg115
Nsg116
I00
sg117
I00
sg118
V0084B4
p905
sg120
I00
sg121
I00
sg122
Vhttp://abs.twimg.com/images/themes/theme1/bg.png
p906
sg124
Vlolitalover23
p907
sg126
I0
sg127
VWheelgirl89
p908
sg129
VDDEEF6
p909
sg131
Nsg132
I2349788888
sg133
VC0DEED
p910
sbsg135
I0
sg136
V<a href="http://www.apple.com" rel="nofollow">iOS</a>
p911
sg138
(lp912
g3
(g140
g5
Ntp913
Rp914
(dp915
g144
Vhttp://t.co/qdXVUiJjif
p916
sg146
Vhttp://bit.ly/1yJJFTs
p917
sbasg132
I543496850976669697
sbag3
(g4
g5
Ntp918
Rp919
(dp920
g9
I0
sg10
Nsg11
Nsg12
(lp921
g3
(g14
g5
Ntp922
Rp923
(dp924
g18
VDynasty_game
p925
sbasg20
I00
sg21
Nsg22
Nsg23
(lp926
(dp927
Vexpanded_url
p928
Vhttp://twitter.com/lolitalover23/status/543496719397179392/photo/1
p929
sVdisplay_url
p930
Vpic.twitter.com/qRprJgQPx9
p931
sVurl
p932
Vhttp://t.co/qRprJgQPx9
p933
sVmedia_url_https
p934
Vhttps://pbs.twimg.com/media/B4rjYvkCcAA-wPm.png
p935
sVid_str
p936
V543496719275552768
p937
sVsizes
p938
(dp939
Vsmall
p940
(dp941
Vh
p942
I165
sVresize
p943
Vfit
p944
sVw
p945
I340
ssVlarge
p946
(dp947
Vh
p948
I255
sVresize
p949
Vfit
p950
sVw
p951
I525
ssVmedium
p952
(dp953
Vh
p954
I255
sVresize
p955
Vfit
p956
sVw
p957
I525
ssVthumb
p958
(dp959
Vh
p960
I150
sVresize
p961
Vcrop
p962
sVw
p963
I150
sssVindices
p964
(lp965
I83
aI105
asVtype
p966
Vphoto
p967
sVid
p968
I543496719275552768
sVmedia_url
p969
Vhttp://pbs.twimg.com/media/B4rjYvkCcAA-wPm.png
p970
sasg69
Nsg70
Nsg71
Nsg72
VFri Dec 12 20:04:50 +0000 2014
p971
sg74
Nsg75
I00
sg76
Nsg77
Nsg78
Nsg79
Nsg80
I00
sg81
Nsg82
(lp972
sg84
Nsg85
Nsg86
Nsg87
VNew quest: Movie time! Click here to get it: http://t.co/sJKIFDL6H8\u000a #Dynasty_game http://t.co/qRprJgQPx9
p973
sg89
I00
sg90
Ven
p974
sg92
g3
(g93
g5
Ntp975
Rp976
(dp977
g10
g97
sg98
V333333
p978
sg100
Ven
p979
sg102
Nsg103
I2
sg104
I173
sg72
VTue Feb 18 08:34:36 +0000 2014
p980
sg106
I00
sg107
g97
sg108
Vhttps://abs.twimg.com/sticky/default_profile_images/default_profile_6_normal.png
p981
sg110
I1
sg111
I0
sg112
Nsg113
Nsg114
I00
sg115
Nsg116
I00
sg117
I00
sg118
V0084B4
p982
sg120
I00
sg121
I00
sg122
Vhttp://abs.twimg.com/images/themes/theme1/bg.png
p983
sg124
Vlolitalover23
p984
sg126
I0
sg127
VWheelgirl89
p985
sg129
VDDEEF6
p986
sg131
Nsg132
I2349788888
sg133
VC0DEED
p987
sbsg135
I0
sg136
V<a href="http://www.apple.com" rel="nofollow">iOS</a>
p988
sg138
(lp989
g3
(g140
g5
Ntp990
Rp991
(dp992
g144
Vhttp://t.co/sJKIFDL6H8
p993
sg146
Vhttp://bit.ly/1yHpv7m
p994
sbasg132
I543496719397179392
sbag3
(g4
g5
Ntp995
Rp996
(dp997
g9
I0
sg10
Nsg11
Nsg12
(lp998
g3
(g14
g5
Ntp999
Rp1000
(dp1001
g18
VDynasty_game
p1002
sbasg20
I00
sg21
Nsg22
Nsg23
(lp1003
(dp1004
Vexpanded_url
p1005
Vhttp://twitter.com/lolitalover23/status/543320241342652416/photo/1
p1006
sVdisplay_url
p1007
Vpic.twitter.com/lngO1V9q1T
p1008
sVurl
p1009
Vhttp://t.co/lngO1V9q1T
p1010
sVmedia_url_https
p1011
Vhttps://pbs.twimg.com/media/B4pC4X1CQAAgybc.png
p1012
sVid_str
p1013
V543320241288134656
p1014
sVsizes
p1015
(dp1016
Vsmall
p1017
(dp1018
Vh
p1019
I165
sVresize
p1020
Vfit
p1021
sVw
p1022
I340
ssVlarge
p1023
(dp1024
Vh
p1025
I255
sVresize
p1026
Vfit
p1027
sVw
p1028
I525
ssVmedium
p1029
(dp1030
Vh
p1031
I255
sVresize
p1032
Vfit
p1033
sVw
p1034
I525
ssVthumb
p1035
(dp1036
Vh
p1037
I150
sVresize
p1038
Vcrop
p1039
sVw
p1040
I150
sssVindices
p1041
(lp1042
I88
aI110
asVtype
p1043
Vphoto
p1044
sVid
p1045
I543320241288134656
sVmedia_url
p1046
Vhttp://pbs.twimg.com/media/B4pC4X1CQAAgybc.png
p1047
sasg69
Nsg70
Nsg71
Nsg72
VFri Dec 12 08:23:34 +0000 2014
p1048
sg74
Nsg75
I00
sg76
Nsg77
Nsg78
Nsg79
Nsg80
I00
sg81
Nsg82
(lp1049
sg84
Nsg85
Nsg86
Nsg87
VNew collection: Pioneer! Click here to gather it: http://t.co/TA4rfeAuur\u000a #Dynasty_game http://t.co/lngO1V9q1T
p1050
sg89
I00
sg90
Ven
p1051
sg92
g3
(g93
g5
Ntp1052
Rp1053
(dp1054
g10
g97
sg98
V333333
p1055
sg100
Ven
p1056
sg102
Nsg103
I2
sg104
I173
sg72
VTue Feb 18 08:34:36 +0000 2014
p1057
sg106
I00
sg107
g97
sg108
Vhttps://abs.twimg.com/sticky/default_profile_images/default_profile_6_normal.png
p1058
sg110
I1
sg111
I0
sg112
Nsg113
Nsg114
I00
sg115
Nsg116
I00
sg117
I00
sg118
V0084B4
p1059
sg120
I00
sg121
I00
sg122
Vhttp://abs.twimg.com/images/themes/theme1/bg.png
p1060
sg124
Vlolitalover23
p1061
sg126
I0
sg127
VWheelgirl89
p1062
sg129
VDDEEF6
p1063
sg131
Nsg132
I2349788888
sg133
VC0DEED
p1064
sbsg135
I0
sg136
V<a href="http://www.apple.com" rel="nofollow">iOS</a>
p1065
sg138
(lp1066
g3
(g140
g5
Ntp1067
Rp1068
(dp1069
g144
Vhttp://t.co/TA4rfeAuur
p1070
sg146
Vhttp://bit.ly/1vXJDVN
p1071
sbasg132
I543320241342652416
sbag3
(g4
g5
Ntp1072
Rp1073
(dp1074
g9
I0
sg10
Nsg11
Nsg12
(lp1075
g3
(g14
g5
Ntp1076
Rp1077
(dp1078
g18
VDynasty_game
p1079
sbasg20
I00
sg21
Nsg22
Nsg23
(lp1080
(dp1081
Vexpanded_url
p1082
Vhttp://twitter.com/lolitalover23/status/543320238045921280/photo/1
p1083
sVdisplay_url
p1084
Vpic.twitter.com/ITLCDiUjSU
p1085
sVurl
p1086
Vhttp://t.co/ITLCDiUjSU
p1087
sVmedia_url_https
p1088
Vhttps://pbs.twimg.com/media/B4pC4LjCQAAkL12.png
p1089
sVid_str
p1090
V543320237991411712
p1091
sVsizes
p1092
(dp1093
Vsmall
p1094
(dp1095
Vh
p1096
I165
sVresize
p1097
Vfit
p1098
sVw
p1099
I340
ssVlarge
p1100
(dp1101
Vh
p1102
I255
sVresize
p1103
Vfit
p1104
sVw
p1105
I525
ssVmedium
p1106
(dp1107
Vh
p1108
I255
sVresize
p1109
Vfit
p1110
sVw
p1111
I525
ssVthumb
p1112
(dp1113
Vh
p1114
I150
sVresize
p1115
Vcrop
p1116
sVw
p1117
I150
sssVindices
p1118
(lp1119
I88
aI110
asVtype
p1120
Vphoto
p1121
sVid
p1122
I543320237991411712
sVmedia_url
p1123
Vhttp://pbs.twimg.com/media/B4pC4LjCQAAkL12.png
p1124
sasg69
Nsg70
Nsg71
Nsg72
VFri Dec 12 08:23:33 +0000 2014
p1125
sg74
Nsg75
I00
sg76
Nsg77
Nsg78
Nsg79
Nsg80
I00
sg81
Nsg82
(lp1126
sg84
Nsg85
Nsg86
Nsg87
VNew collection: Pioneer! Click here to gather it: http://t.co/unwuCvsnYh\u000a #Dynasty_game http://t.co/ITLCDiUjSU
p1127
sg89
I00
sg90
Ven
p1128
sg92
g3
(g93
g5
Ntp1129
Rp1130
(dp1131
g10
g97
sg98
V333333
p1132
sg100
Ven
p1133
sg102
Nsg103
I2
sg104
I173
sg72
VTue Feb 18 08:34:36 +0000 2014
p1134
sg106
I00
sg107
g97
sg108
Vhttps://abs.twimg.com/sticky/default_profile_images/default_profile_6_normal.png
p1135
sg110
I1
sg111
I0
sg112
Nsg113
Nsg114
I00
sg115
Nsg116
I00
sg117
I00
sg118
V0084B4
p1136
sg120
I00
sg121
I00
sg122
Vhttp://abs.twimg.com/images/themes/theme1/bg.png
p1137
sg124
Vlolitalover23
p1138
sg126
I0
sg127
VWheelgirl89
p1139
sg129
VDDEEF6
p1140
sg131
Nsg132
I2349788888
sg133
VC0DEED
p1141
sbsg135
I0
sg136
V<a href="http://www.apple.com" rel="nofollow">iOS</a>
p1142
sg138
(lp1143
g3
(g140
g5
Ntp1144
Rp1145
(dp1146
g144
Vhttp://t.co/unwuCvsnYh
p1147
sg146
Vhttp://bit.ly/1vXJB0f
p1148
sbasg132
I543320238045921280
sbag3
(g4
g5
Ntp1149
Rp1150
(dp1151
g9
I0
sg10
Nsg11
Nsg12
(lp1152
g3
(g14
g5
Ntp1153
Rp1154
(dp1155
g18
VDynasty_game
p1156
sbasg20
I00
sg21
Nsg22
Nsg23
(lp1157
(dp1158
Vexpanded_url
p1159
Vhttp://twitter.com/lolitalover23/status/542909404123643904/photo/1
p1160
sVdisplay_url
p1161
Vpic.twitter.com/izevjOOXQu
p1162
sVurl
p1163
Vhttp://t.co/izevjOOXQu
p1164
sVmedia_url_https
p1165
Vhttps://pbs.twimg.com/media/B4jNOf5CQAAGbSJ.png
p1166
sVid_str
p1167
V542909404060729344
p1168
sVsizes
p1169
(dp1170
Vsmall
p1171
(dp1172
Vh
p1173
I165
sVresize
p1174
Vfit
p1175
sVw
p1176
I340
ssVlarge
p1177
(dp1178
Vh
p1179
I255
sVresize
p1180
Vfit
p1181
sVw
p1182
I525
ssVmedium
p1183
(dp1184
Vh
p1185
I255
sVresize
p1186
Vfit
p1187
sVw
p1188
I525
ssVthumb
p1189
(dp1190
Vh
p1191
I150
sVresize
p1192
Vcrop
p1193
sVw
p1194
I150
sssVindices
p1195
(lp1196
I88
aI110
asVtype
p1197
Vphoto
p1198
sVid
p1199
I542909404060729344
sVmedia_url
p1200
Vhttp://pbs.twimg.com/media/B4jNOf5CQAAGbSJ.png
p1201
sasg69
Nsg70
Nsg71
Nsg72
VThu Dec 11 05:11:03 +0000 2014
p1202
sg74
Nsg75
I00
sg76
Nsg77
Nsg78
Nsg79
Nsg80
I00
sg81
Nsg82
(lp1203
sg84
Nsg85
Nsg86
Nsg87
VNew quest: Sulphur selling! Click here to get it: http://t.co/hUiuwk9fU8\u000a #Dynasty_game http://t.co/izevjOOXQu
p1204
sg89
I00
sg90
Ven
p1205
sg92
g3
(g93
g5
Ntp1206
Rp1207
(dp1208
g10
g97
sg98
V333333
p1209
sg100
Ven
p1210
sg102
Nsg103
I2
sg104
I173
sg72
VTue Feb 18 08:34:36 +0000 2014
p1211
sg106
I00
sg107
g97
sg108
Vhttps://abs.twimg.com/sticky/default_profile_images/default_profile_6_normal.png
p1212
sg110
I1
sg111
I0
sg112
Nsg113
Nsg114
I00
sg115
Nsg116
I00
sg117
I00
sg118
V0084B4
p1213
sg120
I00
sg121
I00
sg122
Vhttp://abs.twimg.com/images/themes/theme1/bg.png
p1214
sg124
Vlolitalover23
p1215
sg126
I0
sg127
VWheelgirl89
p1216
sg129
VDDEEF6
p1217
sg131
Nsg132
I2349788888
sg133
VC0DEED
p1218
sbsg135
I0
sg136
V<a href="http://www.apple.com" rel="nofollow">iOS</a>
p1219
sg138
(lp1220
g3
(g140
g5
Ntp1221
Rp1222
(dp1223
g144
Vhttp://t.co/hUiuwk9fU8
p1224
sg146
Vhttp://bit.ly/1BcQU4a
p1225
sbasg132
I542909404123643904
sbag3
(g4
g5
Ntp1226
Rp1227
(dp1228
g9
I0
sg10
Nsg11
Nsg12
(lp1229
g3
(g14
g5
Ntp1230
Rp1231
(dp1232
g18
VDynasty_game
p1233
sbasg20
I00
sg21
Nsg22
Nsg23
(lp1234
(dp1235
Vexpanded_url
p1236
Vhttp://twitter.com/lolitalover23/status/542902522671661056/photo/1
p1237
sVdisplay_url
p1238
Vpic.twitter.com/TaNuS8j5aY
p1239
sVurl
p1240
Vhttp://t.co/TaNuS8j5aY
p1241
sVmedia_url_https
p1242
Vhttps://pbs.twimg.com/media/B4jG98dCYAI0r73.png
p1243
sVid_str
p1244
V542902522600382466
p1245
sVsizes
p1246
(dp1247
Vsmall
p1248
(dp1249
Vh
p1250
I165
sVresize
p1251
Vfit
p1252
sVw
p1253
I340
ssVlarge
p1254
(dp1255
Vh
p1256
I255
sVresize
p1257
Vfit
p1258
sVw
p1259
I525
ssVmedium
p1260
(dp1261
Vh
p1262
I255
sVresize
p1263
Vfit
p1264
sVw
p1265
I525
ssVthumb
p1266
(dp1267
Vh
p1268
I150
sVresize
p1269
Vcrop
p1270
sVw
p1271
I150
sssVindices
p1272
(lp1273
I86
aI108
asVtype
p1274
Vphoto
p1275
sVid
p1276
I542902522600382466
sVmedia_url
p1277
Vhttp://pbs.twimg.com/media/B4jG98dCYAI0r73.png
p1278
sasg69
Nsg70
Nsg71
Nsg72
VThu Dec 11 04:43:42 +0000 2014
p1279
sg74
Nsg75
I00
sg76
Nsg77
Nsg78
Nsg79
Nsg80
I00
sg81
Nsg82
(lp1280
sg84
Nsg85
Nsg86
Nsg87
VNew quest: Glass Factory! Click here to get it: http://t.co/j0hfaAFlyI\u000a #Dynasty_game http://t.co/TaNuS8j5aY
p1281
sg89
I00
sg90
Ven
p1282
sg92
g3
(g93
g5
Ntp1283
Rp1284
(dp1285
g10
g97
sg98
V333333
p1286
sg100
Ven
p1287
sg102
Nsg103
I2
sg104
I173
sg72
VTue Feb 18 08:34:36 +0000 2014
p1288
sg106
I00
sg107
g97
sg108
Vhttps://abs.twimg.com/sticky/default_profile_images/default_profile_6_normal.png
p1289
sg110
I1
sg111
I0
sg112
Nsg113
Nsg114
I00
sg115
Nsg116
I00
sg117
I00
sg118
V0084B4
p1290
sg120
I00
sg121
I00
sg122
Vhttp://abs.twimg.com/images/themes/theme1/bg.png
p1291
sg124
Vlolitalover23
p1292
sg126
I0
sg127
VWheelgirl89
p1293
sg129
VDDEEF6
p1294
sg131
Nsg132
I2349788888
sg133
VC0DEED
p1295
sbsg135
I0
sg136
V<a href="http://www.apple.com" rel="nofollow">iOS</a>
p1296
sg138
(lp1297
g3
(g140
g5
Ntp1298
Rp1299
(dp1300
g144
Vhttp://t.co/j0hfaAFlyI
p1301
sg146
Vhttp://bit.ly/1BA596i
p1302
sbasg132
I542902522671661056
sbag3
(g4
g5
Ntp1303
Rp1304
(dp1305
g9
I0
sg10
Nsg11
Nsg12
(lp1306
g3
(g14
g5
Ntp1307
Rp1308
(dp1309
g18
VDynasty_game
p1310
sbasg20
I00
sg21
Nsg22
Nsg23
(lp1311
(dp1312
Vexpanded_url
p1313
Vhttp://twitter.com/lolitalover23/status/542715703816486912/photo/1
p1314
sVdisplay_url
p1315
Vpic.twitter.com/9V9Zyxltap
p1316
sVurl
p1317
Vhttp://t.co/9V9Zyxltap
p1318
sVmedia_url_https
p1319
Vhttps://pbs.twimg.com/media/B4gdDp2CUAE3VXp.png
p1320
sVid_str
p1321
V542715703707455489
p1322
sVsizes
p1323
(dp1324
Vsmall
p1325
(dp1326
Vh
p1327
I165
sVresize
p1328
Vfit
p1329
sVw
p1330
I340
ssVlarge
p1331
(dp1332
Vh
p1333
I255
sVresize
p1334
Vfit
p1335
sVw
p1336
I525
ssVmedium
p1337
(dp1338
Vh
p1339
I255
sVresize
p1340
Vfit
p1341
sVw
p1342
I525
ssVthumb
p1343
(dp1344
Vh
p1345
I150
sVresize
p1346
Vcrop
p1347
sVw
p1348
I150
sssVindices
p1349
(lp1350
I90
aI112
asVtype
p1351
Vphoto
p1352
sVid
p1353
I542715703707455489
sVmedia_url
p1354
Vhttp://pbs.twimg.com/media/B4gdDp2CUAE3VXp.png
p1355
sasg69
Nsg70
Nsg71
Nsg72
VWed Dec 10 16:21:21 +0000 2014
p1356
sg74
Nsg75
I00
sg76
Nsg77
Nsg78
Nsg79
Nsg80
I00
sg81
Nsg82
(lp1357
sg84
Nsg85
Nsg86
Nsg87
VNew quest: Liquor production! Click here to get it: http://t.co/Hhgl2tIy0o\u000a #Dynasty_game http://t.co/9V9Zyxltap
p1358
sg89
I00
sg90
Ven
p1359
sg92
g3
(g93
g5
Ntp1360
Rp1361
(dp1362
g10
g97
sg98
V333333
p1363
sg100
Ven
p1364
sg102
Nsg103
I2
sg104
I173
sg72
VTue Feb 18 08:34:36 +0000 2014
p1365
sg106
I00
sg107
g97
sg108
Vhttps://abs.twimg.com/sticky/default_profile_images/default_profile_6_normal.png
p1366
sg110
I1
sg111
I0
sg112
Nsg113
Nsg114
I00
sg115
Nsg116
I00
sg117
I00
sg118
V0084B4
p1367
sg120
I00
sg121
I00
sg122
Vhttp://abs.twimg.com/images/themes/theme1/bg.png
p1368
sg124
Vlolitalover23
p1369
sg126
I0
sg127
VWheelgirl89
p1370
sg129
VDDEEF6
p1371
sg131
Nsg132
I2349788888
sg133
VC0DEED
p1372
sbsg135
I0
sg136
V<a href="http://www.apple.com" rel="nofollow">iOS</a>
p1373
sg138
(lp1374
g3
(g140
g5
Ntp1375
Rp1376
(dp1377
g144
Vhttp://t.co/Hhgl2tIy0o
p1378
sg146
Vhttp://bit.ly/1siVCrU
p1379
sbasg132
I542715703816486912
sbag3
(g4
g5
Ntp1380
Rp1381
(dp1382
g9
I0
sg10
Nsg11
Nsg12
(lp1383
g3
(g14
g5
Ntp1384
Rp1385
(dp1386
g18
VDynasty_game
p1387
sbasg20
I00
sg21
Nsg22
Nsg23
(lp1388
(dp1389
Vexpanded_url
p1390
Vhttp://twitter.com/lolitalover23/status/542715684438822913/photo/1
p1391
sVdisplay_url
p1392
Vpic.twitter.com/C8KmZd9tnM
p1393
sVurl
p1394
Vhttp://t.co/C8KmZd9tnM
p1395
sVmedia_url_https
p1396
Vhttps://pbs.twimg.com/media/B4gdCh0CUAAf6u-.png
p1397
sVid_str
p1398
V542715684371714048
p1399
sVsizes
p1400
(dp1401
Vsmall
p1402
(dp1403
Vh
p1404
I165
sVresize
p1405
Vfit
p1406
sVw
p1407
I340
ssVlarge
p1408
(dp1409
Vh
p1410
I255
sVresize
p1411
Vfit
p1412
sVw
p1413
I525
ssVmedium
p1414
(dp1415
Vh
p1416
I255
sVresize
p1417
Vfit
p1418
sVw
p1419
I525
ssVthumb
p1420
(dp1421
Vh
p1422
I150
sVresize
p1423
Vcrop
p1424
sVw
p1425
I150
sssVindices
p1426
(lp1427
I82
aI104
asVtype
p1428
Vphoto
p1429
sVid
p1430
I542715684371714048
sVmedia_url
p1431
Vhttp://pbs.twimg.com/media/B4gdCh0CUAAf6u-.png
p1432
sasg69
Nsg70
Nsg71
Nsg72
VWed Dec 10 16:21:16 +0000 2014
p1433
sg74
Nsg75
I00
sg76
Nsg77
Nsg78
Nsg79
Nsg80
I00
sg81
Nsg82
(lp1434
sg84
Nsg85
Nsg86
Nsg87
VNew quest: Wine must! Click here to get it: http://t.co/gIWt13WNiB\u000a #Dynasty_game http://t.co/C8KmZd9tnM
p1435
sg89
I00
sg90
Ven
p1436
sg92
g3
(g93
g5
Ntp1437
Rp1438
(dp1439
g10
g97
sg98
V333333
p1440
sg100
Ven
p1441
sg102
Nsg103
I2
sg104
I173
sg72
VTue Feb 18 08:34:36 +0000 2014
p1442
sg106
I00
sg107
g97
sg108
Vhttps://abs.twimg.com/sticky/default_profile_images/default_profile_6_normal.png
p1443
sg110
I1
sg111
I0
sg112
Nsg113
Nsg114
I00
sg115
Nsg116
I00
sg117
I00
sg118
V0084B4
p1444
sg120
I00
sg121
I00
sg122
Vhttp://abs.twimg.com/images/themes/theme1/bg.png
p1445
sg124
Vlolitalover23
p1446
sg126
I0
sg127
VWheelgirl89
p1447
sg129
VDDEEF6
p1448
sg131
Nsg132
I2349788888
sg133
VC0DEED
p1449
sbsg135
I0
sg136
V<a href="http://www.apple.com" rel="nofollow">iOS</a>
p1450
sg138
(lp1451
g3
(g140
g5
Ntp1452
Rp1453
(dp1454
g144
Vhttp://t.co/gIWt13WNiB
p1455
sg146
Vhttp://bit.ly/1siVBE9
p1456
sbasg132
I542715684438822913
sbag3
(g4
g5
Ntp1457
Rp1458
(dp1459
g9
I0
sg10
Nsg11
Nsg12
(lp1460
g3
(g14
g5
Ntp1461
Rp1462
(dp1463
g18
VDynasty_game
p1464
sbasg20
I00
sg21
Nsg22
Nsg23
(lp1465
(dp1466
Vexpanded_url
p1467
Vhttp://twitter.com/lolitalover23/status/542577012464820224/photo/1
p1468
sVdisplay_url
p1469
Vpic.twitter.com/AIH316WTGK
p1470
sVurl
p1471
Vhttp://t.co/AIH316WTGK
p1472
sVmedia_url_https
p1473
Vhttps://pbs.twimg.com/media/B4ee6wUCQAA1f83.png
p1474
sVid_str
p1475
V542577012359970816
p1476
sVsizes
p1477
(dp1478
Vsmall
p1479
(dp1480
Vh
p1481
I165
sVresize
p1482
Vfit
p1483
sVw
p1484
I340
ssVlarge
p1485
(dp1486
Vh
p1487
I255
sVresize
p1488
Vfit
p1489
sVw
p1490
I525
ssVmedium
p1491
(dp1492
Vh
p1493
I255
sVresize
p1494
Vfit
p1495
sVw
p1496
I525
ssVthumb
p1497
(dp1498
Vh
p1499
I150
sVresize
p1500
Vcrop
p1501
sVw
p1502
I150
sssVindices
p1503
(lp1504
I89
aI111
asVtype
p1505
Vphoto
p1506
sVid
p1507
I542577012359970816
sVmedia_url
p1508
Vhttp://pbs.twimg.com/media/B4ee6wUCQAA1f83.png
p1509
sasg69
Nsg70
Nsg71
Nsg72
VWed Dec 10 07:10:15 +0000 2014
p1510
sg74
Nsg75
I00
sg76
Nsg77
Nsg78
Nsg79
Nsg80
I00
sg81
Nsg82
(lp1511
sg84
Nsg85
Nsg86
Nsg87
VNew quest: Lagar and Cooper! Click here to get it: http://t.co/q98GaueYzy\u000a #Dynasty_game http://t.co/AIH316WTGK
p1512
sg89
I00
sg90
Ven
p1513
sg92
g3
(g93
g5
Ntp1514
Rp1515
(dp1516
g10
g97
sg98
V333333
p1517
sg100
Ven
p1518
sg102
Nsg103
I2
sg104
I173
sg72
VTue Feb 18 08:34:36 +0000 2014
p1519
sg106
I00
sg107
g97
sg108
Vhttps://abs.twimg.com/sticky/default_profile_images/default_profile_6_normal.png
p1520
sg110
I1
sg111
I0
sg112
Nsg113
Nsg114
I00
sg115
Nsg116
I00
sg117
I00
sg118
V0084B4
p1521
sg120
I00
sg121
I00
sg122
Vhttp://abs.twimg.com/images/themes/theme1/bg.png
p1522
sg124
Vlolitalover23
p1523
sg126
I0
sg127
VWheelgirl89
p1524
sg129
VDDEEF6
p1525
sg131
Nsg132
I2349788888
sg133
VC0DEED
p1526
sbsg135
I0
sg136
V<a href="http://www.apple.com" rel="nofollow">iOS</a>
p1527
sg138
(lp1528
g3
(g140
g5
Ntp1529
Rp1530
(dp1531
g144
Vhttp://t.co/q98GaueYzy
p1532
sg146
Vhttp://bit.ly/12rwTLe
p1533
sbasg132
I542577012464820224
sbag3
(g4
g5
Ntp1534
Rp1535
(dp1536
g9
I0
sg10
Nsg11
Nsg12
(lp1537
g3
(g14
g5
Ntp1538
Rp1539
(dp1540
g18
VDynasty_game
p1541
sbasg20
I00
sg21
Nsg22
Nsg23
(lp1542
(dp1543
Vexpanded_url
p1544
Vhttp://twitter.com/lolitalover23/status/542536658109726721/photo/1
p1545
sVdisplay_url
p1546
Vpic.twitter.com/6cp0VAqNMw
p1547
sVurl
p1548
Vhttp://t.co/6cp0VAqNMw
p1549
sVmedia_url_https
p1550
Vhttps://pbs.twimg.com/media/B4d6N0kCIAALEMs.png
p1551
sVid_str
p1552
V542536657988100096
p1553
sVsizes
p1554
(dp1555
Vsmall
p1556
(dp1557
Vh
p1558
I165
sVresize
p1559
Vfit
p1560
sVw
p1561
I340
ssVlarge
p1562
(dp1563
Vh
p1564
I255
sVresize
p1565
Vfit
p1566
sVw
p1567
I525
ssVmedium
p1568
(dp1569
Vh
p1570
I255
sVresize
p1571
Vfit
p1572
sVw
p1573
I525
ssVthumb
p1574
(dp1575
Vh
p1576
I150
sVresize
p1577
Vcrop
p1578
sVw
p1579
I150
sssVindices
p1580
(lp1581
I89
aI111
asVtype
p1582
Vphoto
p1583
sVid
p1584
I542536657988100096
sVmedia_url
p1585
Vhttp://pbs.twimg.com/media/B4d6N0kCIAALEMs.png
p1586
sasg69
Nsg70
Nsg71
Nsg72
VWed Dec 10 04:29:53 +0000 2014
p1587
sg74
Nsg75
I00
sg76
Nsg77
Nsg78
Nsg79
Nsg80
I00
sg81
Nsg82
(lp1588
sg84
Nsg85
Nsg86
Nsg87
VNew quest: Order Drop Point! Click here to get it: http://t.co/FlpyxfE44r\u000a #Dynasty_game http://t.co/6cp0VAqNMw
p1589
sg89
I00
sg90
Ven
p1590
sg92
g3
(g93
g5
Ntp1591
Rp1592
(dp1593
g10
g97
sg98
V333333
p1594
sg100
Ven
p1595
sg102
Nsg103
I2
sg104
I173
sg72
VTue Feb 18 08:34:36 +0000 2014
p1596
sg106
I00
sg107
g97
sg108
Vhttps://abs.twimg.com/sticky/default_profile_images/default_profile_6_normal.png
p1597
sg110
I1
sg111
I0
sg112
Nsg113
Nsg114
I00
sg115
Nsg116
I00
sg117
I00
sg118
V0084B4
p1598
sg120
I00
sg121
I00
sg122
Vhttp://abs.twimg.com/images/themes/theme1/bg.png
p1599
sg124
Vlolitalover23
p1600
sg126
I0
sg127
VWheelgirl89
p1601
sg129
VDDEEF6
p1602
sg131
Nsg132
I2349788888
sg133
VC0DEED
p1603
sbsg135
I0
sg136
V<a href="http://www.apple.com" rel="nofollow">iOS</a>
p1604
sg138
(lp1605
g3
(g140
g5
Ntp1606
Rp1607
(dp1608
g144
Vhttp://t.co/FlpyxfE44r
p1609
sg146
Vhttp://bit.ly/12Lgh0X
p1610
sbasg132
I542536658109726721
sbaa.