(lp0
S'monicajames81'
p1
a(lp2
ccopy_reg
_reconstructor
p3
(ctwitter
Status
p4
c__builtin__
object
p5
Ntp6
Rp7
(dp8
S'_favorite_count'
p9
I0
sS'_location'
p10
NsS'_withheld_scope'
p11
NsS'hashtags'
p12
(lp13
g3
(ctwitter
Hashtag
p14
g5
Ntp15
Rp16
(dp17
S'text'
p18
VGiveaway
p19
sbasS'_truncated'
p20
I00
sS'_retweeted_status'
p21
g3
(g4
g5
Ntp22
Rp23
(dp24
g9
I1
sg10
Nsg11
Nsg12
(lp25
g3
(g14
g5
Ntp26
Rp27
(dp28
g18
VGiveaway
p29
sbasg20
I00
sg21
NsS'_withheld_copyright'
p30
NsS'media'
p31
(lp32
sS'_place'
p33
NsS'_contributors'
p34
NsS'_current_user_retweet'
p35
NsS'_created_at'
p36
VSun Dec 14 03:30:13 +0000 2014
p37
sS'_scopes'
p38
NsS'_possibly_sensitive'
p39
I00
sS'_in_reply_to_screen_name'
p40
NsS'_coordinates'
p41
NsS'_in_reply_to_user_id'
p42
NsS'_geo'
p43
NsS'_favorited'
p44
I00
sS'_withheld_in_countries'
p45
NsS'user_mentions'
p46
(lp47
g3
(ctwitter
User
p48
g5
Ntp49
Rp50
(dp51
g10
NsS'_profile_text_color'
p52
NsS'_lang'
p53
NsS'_time_zone'
p54
NsS'_followers_count'
p55
NsS'_statuses_count'
p56
Nsg36
NsS'_verified'
p57
NsS'_description'
p58
NsS'_profile_image_url'
p59
NsS'_friends_count'
p60
NsS'_favourites_count'
p61
NsS'_utc_offset'
p62
NsS'_status'
p63
NsS'_protected'
p64
NsS'_profile_banner_url'
p65
NsS'_notifications'
p66
NsS'_profile_background_tile'
p67
NsS'_profile_link_color'
p68
NsS'_geo_enabled'
p69
NsS'_contributors_enabled'
p70
NsS'_profile_background_image_url'
p71
NsS'_screen_name'
p72
Vmonicajames81
p73
sS'_listed_count'
p74
NsS'_name'
p75
VMonica James
p76
sS'_profile_sidebar_fill_color'
p77
NsS'_url'
p78
NsS'_id'
p79
I1171510062
sS'_profile_background_color'
p80
NsbasS'_now'
p81
NsS'_id_str'
p82
V543971190659112960
p83
sS'_in_reply_to_status_id'
p84
NsS'_text'
p85
VHURRY!!!!!! Something Like Love by @monicajames81 #Giveaway ends today!! Enter now!! http://t.co/PV7cIgsS6K
p86
sS'_retweeted'
p87
I00
sS'lang'
p88
Ven
p89
sS'_user'
p90
g3
(g48
g5
Ntp91
Rp92
(dp93
g10
VNew Jersey
p94
sg52
VFAAF86
p95
sg53
Ven
p96
sg54
VEastern Time (US & Canada)
p97
sg55
I658
sg56
I9833
sg36
VMon Aug 19 12:49:07 +0000 2013
p98
sg57
I00
sg58
V3 Jersey girls who love to get a little SMUTTY... Lovers of Romance and all things books!!\u000aHead on over to our blog http://t.co/CxJEPNuzbF
p99
sg59
Vhttps://pbs.twimg.com/profile_images/378800000645602695/a1b9183befe188e134feb780bb36ee89_normal.jpeg
p100
sg60
I392
sg61
I252
sg62
I-18000
sg63
Nsg64
I00
sg65
Vhttps://pbs.twimg.com/profile_banners/1683192854/1404096863
p101
sg66
I00
sg67
I01
sg68
VE892E5
p102
sg69
I01
sg70
I00
sg71
Vhttp://pbs.twimg.com/profile_background_images/444502618161696768/-24QrzvJ.jpeg
p103
sg72
Vsmutfanatic
p104
sg74
I9
sg75
VSmut Fanatics
p105
sg77
VFEC164
p106
sg78
Vhttp://t.co/uzD4i47Nsh
p107
sg79
I1683192854
sg80
VC6098E
p108
sbsS'_retweet_count'
p109
I1
sS'_source'
p110
V<a href="http://www.hootsuite.com" rel="nofollow">Hootsuite</a>
p111
sS'urls'
p112
(lp113
g3
(ctwitter
Url
p114
g5
Ntp115
Rp116
(dp117
S'url'
p118
Vhttp://t.co/PV7cIgsS6K
p119
sS'expanded_url'
p120
Vhttp://ow.ly/FPSkx
p121
sbasg79
I543971190659112960
sbsg30
Nsg31
(lp122
sg33
Nsg34
Nsg35
Nsg36
VSun Dec 14 04:05:12 +0000 2014
p123
sg38
Nsg39
I00
sg40
Nsg41
Nsg42
Nsg43
Nsg44
I00
sg45
Nsg46
(lp124
g3
(g48
g5
Ntp125
Rp126
(dp127
g10
Nsg52
Nsg53
Nsg54
Nsg55
Nsg56
Nsg36
Nsg57
Nsg58
Nsg59
Nsg60
Nsg61
Nsg62
Nsg63
Nsg64
Nsg65
Nsg66
Nsg67
Nsg68
Nsg69
Nsg70
Nsg71
Nsg72
Vsmutfanatic
p128
sg74
Nsg75
VSmut Fanatics
p129
sg77
Nsg78
Nsg79
I1683192854
sg80
Nsbag3
(g48
g5
Ntp130
Rp131
(dp132
g10
Nsg52
Nsg53
Nsg54
Nsg55
Nsg56
Nsg36
Nsg57
Nsg58
Nsg59
Nsg60
Nsg61
Nsg62
Nsg63
Nsg64
Nsg65
Nsg66
Nsg67
Nsg68
Nsg69
Nsg70
Nsg71
Nsg72
Vmonicajames81
p133
sg74
Nsg75
VMonica James
p134
sg77
Nsg78
Nsg79
I1171510062
sg80
Nsbasg81
Nsg82
V543979996713205760
p135
sg84
Nsg85
VRT @smutfanatic: HURRY!!!!!! Something Like Love by @monicajames81 #Giveaway ends today!! Enter now!! http://t.co/PV7cIgsS6K
p136
sg87
I00
sg88
Ven
p137
sg90
g3
(g48
g5
Ntp138
Rp139
(dp140
g10
VMelbourne, Victoria, Australia
p141
sg52
V333333
p142
sg53
Ven
p143
sg54
VMelbourne
p144
sg55
I1878
sg56
I3026
sg36
VTue Feb 12 10:11:30 +0000 2013
p145
sg57
I00
sg58
VAmazon's bestselling author of the I SURRENDER TRILOGY and SOMETHING LIKE NORMAL series.
p146
sg59
Vhttps://pbs.twimg.com/profile_images/542569473757028353/wbMflo8O_normal.jpeg
p147
sg60
I1092
sg61
I2168
sg62
I39600
sg63
Nsg64
I00
sg65
Vhttps://pbs.twimg.com/profile_banners/1171510062/1402021145
p148
sg66
I00
sg67
I00
sg68
V0084B4
p149
sg69
I00
sg70
I00
sg71
Vhttp://abs.twimg.com/images/themes/theme1/bg.png
p150
sg72
Vmonicajames81
p151
sg74
I17
sg75
VMonica James
p152
sg77
VDDEEF6
p153
sg78
Nsg79
I1171510062
sg80
VC0DEED
p154
sbsg109
I1
sg110
V<a href="http://twitter.com/download/iphone" rel="nofollow">Twitter for iPhone</a>
p155
sg112
(lp156
g3
(g114
g5
Ntp157
Rp158
(dp159
g118
Vhttp://t.co/PV7cIgsS6K
p160
sg120
Vhttp://ow.ly/FPSkx
p161
sbasg79
I543979996713205760
sbag3
(g4
g5
Ntp162
Rp163
(dp164
g9
I1
sg10
Nsg11
Nsg12
(lp165
sg20
I00
sg21
Nsg30
Nsg31
(lp166
sg33
Nsg34
Nsg35
Nsg36
VSun Dec 14 01:10:06 +0000 2014
p167
sg38
Nsg39
Nsg40
Vgomez01114
p168
sg41
Nsg42
I2924619588
sg43
Nsg44
I00
sg45
Nsg46
(lp169
g3
(g48
g5
Ntp170
Rp171
(dp172
g10
Nsg52
Nsg53
Nsg54
Nsg55
Nsg56
Nsg36
Nsg57
Nsg58
Nsg59
Nsg60
Nsg61
Nsg62
Nsg63
Nsg64
Nsg65
Nsg66
Nsg67
Nsg68
Nsg69
Nsg70
Nsg71
Nsg72
Vgomez01114
p173
sg74
Nsg75
VClaudia 
p174
sg77
Nsg78
Nsg79
I2924619588
sg80
Nsbasg81
Nsg82
V543935931225362432
p175
sg84
I543906804128681985
sg85
V@gomez01114 We love you too \u2764\ufe0f
p176
sg87
I00
sg88
Ven
p177
sg90
g3
(g48
g5
Ntp178
Rp179
(dp180
g10
VMelbourne, Victoria, Australia
p181
sg52
V333333
p182
sg53
Ven
p183
sg54
VMelbourne
p184
sg55
I1878
sg56
I3026
sg36
VTue Feb 12 10:11:30 +0000 2013
p185
sg57
I00
sg58
VAmazon's bestselling author of the I SURRENDER TRILOGY and SOMETHING LIKE NORMAL series.
p186
sg59
Vhttps://pbs.twimg.com/profile_images/542569473757028353/wbMflo8O_normal.jpeg
p187
sg60
I1092
sg61
I2168
sg62
I39600
sg63
Nsg64
I00
sg65
Vhttps://pbs.twimg.com/profile_banners/1171510062/1402021145
p188
sg66
I00
sg67
I00
sg68
V0084B4
p189
sg69
I00
sg70
I00
sg71
Vhttp://abs.twimg.com/images/themes/theme1/bg.png
p190
sg72
Vmonicajames81
p191
sg74
I17
sg75
VMonica James
p192
sg77
VDDEEF6
p193
sg78
Nsg79
I1171510062
sg80
VC0DEED
p194
sbsg109
I1
sg110
V<a href="http://twitter.com/download/iphone" rel="nofollow">Twitter for iPhone</a>
p195
sg112
(lp196
sg79
I543935931225362432
sbag3
(g4
g5
Ntp197
Rp198
(dp199
g9
I0
sg10
Nsg11
Nsg12
(lp200
g3
(g14
g5
Ntp201
Rp202
(dp203
g18
VGiveaway
p204
sbasg20
I00
sg21
g3
(g4
g5
Ntp205
Rp206
(dp207
g9
I1
sg10
Nsg11
Nsg12
(lp208
g3
(g14
g5
Ntp209
Rp210
(dp211
g18
VGiveaway
p212
sbasg20
I00
sg21
Nsg30
Nsg31
(lp213
sg33
Nsg34
Nsg35
Nsg36
VSun Dec 14 00:15:09 +0000 2014
p214
sg38
Nsg39
I00
sg40
Nsg41
Nsg42
Nsg43
Nsg44
I00
sg45
Nsg46
(lp215
g3
(g48
g5
Ntp216
Rp217
(dp218
g10
Nsg52
Nsg53
Nsg54
Nsg55
Nsg56
Nsg36
Nsg57
Nsg58
Nsg59
Nsg60
Nsg61
Nsg62
Nsg63
Nsg64
Nsg65
Nsg66
Nsg67
Nsg68
Nsg69
Nsg70
Nsg71
Nsg72
Vmonicajames81
p219
sg74
Nsg75
VMonica James
p220
sg77
Nsg78
Nsg79
I1171510062
sg80
Nsbasg81
Nsg82
V543922103733747712
p221
sg84
Nsg85
VHUYRRY UP!!! Something Like Love by @monicajames81 #Giveaway ends today!! Enter now!! http://t.co/FXuNEKlfFL
p222
sg87
I00
sg88
Ven
p223
sg90
g3
(g48
g5
Ntp224
Rp225
(dp226
g10
VNew Jersey
p227
sg52
VFAAF86
p228
sg53
Ven
p229
sg54
VEastern Time (US & Canada)
p230
sg55
I658
sg56
I9833
sg36
VMon Aug 19 12:49:07 +0000 2013
p231
sg57
I00
sg58
V3 Jersey girls who love to get a little SMUTTY... Lovers of Romance and all things books!!\u000aHead on over to our blog http://t.co/CxJEPNuzbF
p232
sg59
Vhttps://pbs.twimg.com/profile_images/378800000645602695/a1b9183befe188e134feb780bb36ee89_normal.jpeg
p233
sg60
I392
sg61
I252
sg62
I-18000
sg63
Nsg64
I00
sg65
Vhttps://pbs.twimg.com/profile_banners/1683192854/1404096863
p234
sg66
I00
sg67
I01
sg68
VE892E5
p235
sg69
I01
sg70
I00
sg71
Vhttp://pbs.twimg.com/profile_background_images/444502618161696768/-24QrzvJ.jpeg
p236
sg72
Vsmutfanatic
p237
sg74
I9
sg75
VSmut Fanatics
p238
sg77
VFEC164
p239
sg78
Vhttp://t.co/uzD4i47Nsh
p240
sg79
I1683192854
sg80
VC6098E
p241
sbsg109
I1
sg110
V<a href="http://www.hootsuite.com" rel="nofollow">Hootsuite</a>
p242
sg112
(lp243
g3
(g114
g5
Ntp244
Rp245
(dp246
g118
Vhttp://t.co/FXuNEKlfFL
p247
sg120
Vhttp://ow.ly/FPSjm
p248
sbasg79
I543922103733747712
sbsg30
Nsg31
(lp249
sg33
Nsg34
Nsg35
Nsg36
VSun Dec 14 01:09:53 +0000 2014
p250
sg38
Nsg39
I00
sg40
Nsg41
Nsg42
Nsg43
Nsg44
I00
sg45
Nsg46
(lp251
g3
(g48
g5
Ntp252
Rp253
(dp254
g10
Nsg52
Nsg53
Nsg54
Nsg55
Nsg56
Nsg36
Nsg57
Nsg58
Nsg59
Nsg60
Nsg61
Nsg62
Nsg63
Nsg64
Nsg65
Nsg66
Nsg67
Nsg68
Nsg69
Nsg70
Nsg71
Nsg72
Vsmutfanatic
p255
sg74
Nsg75
VSmut Fanatics
p256
sg77
Nsg78
Nsg79
I1683192854
sg80
Nsbag3
(g48
g5
Ntp257
Rp258
(dp259
g10
Nsg52
Nsg53
Nsg54
Nsg55
Nsg56
Nsg36
Nsg57
Nsg58
Nsg59
Nsg60
Nsg61
Nsg62
Nsg63
Nsg64
Nsg65
Nsg66
Nsg67
Nsg68
Nsg69
Nsg70
Nsg71
Nsg72
Vmonicajames81
p260
sg74
Nsg75
VMonica James
p261
sg77
Nsg78
Nsg79
I1171510062
sg80
Nsbasg81
Nsg82
V543935876162523136
p262
sg84
Nsg85
VRT @smutfanatic: HUYRRY UP!!! Something Like Love by @monicajames81 #Giveaway ends today!! Enter now!! http://t.co/FXuNEKlfFL
p263
sg87
I00
sg88
Ven
p264
sg90
g3
(g48
g5
Ntp265
Rp266
(dp267
g10
VMelbourne, Victoria, Australia
p268
sg52
V333333
p269
sg53
Ven
p270
sg54
VMelbourne
p271
sg55
I1878
sg56
I3026
sg36
VTue Feb 12 10:11:30 +0000 2013
p272
sg57
I00
sg58
VAmazon's bestselling author of the I SURRENDER TRILOGY and SOMETHING LIKE NORMAL series.
p273
sg59
Vhttps://pbs.twimg.com/profile_images/542569473757028353/wbMflo8O_normal.jpeg
p274
sg60
I1092
sg61
I2168
sg62
I39600
sg63
Nsg64
I00
sg65
Vhttps://pbs.twimg.com/profile_banners/1171510062/1402021145
p275
sg66
I00
sg67
I00
sg68
V0084B4
p276
sg69
I00
sg70
I00
sg71
Vhttp://abs.twimg.com/images/themes/theme1/bg.png
p277
sg72
Vmonicajames81
p278
sg74
I17
sg75
VMonica James
p279
sg77
VDDEEF6
p280
sg78
Nsg79
I1171510062
sg80
VC0DEED
p281
sbsg109
I1
sg110
V<a href="http://twitter.com/download/iphone" rel="nofollow">Twitter for iPhone</a>
p282
sg112
(lp283
g3
(g114
g5
Ntp284
Rp285
(dp286
g118
Vhttp://t.co/FXuNEKlfFL
p287
sg120
Vhttp://ow.ly/FPSjm
p288
sbasg79
I543935876162523136
sbag3
(g4
g5
Ntp289
Rp290
(dp291
g9
I0
sg10
Nsg11
Nsg12
(lp292
sg20
I00
sg21
g3
(g4
g5
Ntp293
Rp294
(dp295
g9
I1
sg10
Nsg11
Nsg12
(lp296
sg20
I00
sg21
Nsg30
Nsg31
(lp297
sg33
Nsg34
Nsg35
Nsg36
VSat Dec 13 23:14:22 +0000 2014
p298
sg38
Nsg39
Nsg40
Vmonicajames81
p299
sg41
Nsg42
I1171510062
sg43
Nsg44
I00
sg45
Nsg46
(lp300
g3
(g48
g5
Ntp301
Rp302
(dp303
g10
Nsg52
Nsg53
Nsg54
Nsg55
Nsg56
Nsg36
Nsg57
Nsg58
Nsg59
Nsg60
Nsg61
Nsg62
Nsg63
Nsg64
Nsg65
Nsg66
Nsg67
Nsg68
Nsg69
Nsg70
Nsg71
Nsg72
Vmonicajames81
p304
sg74
Nsg75
VMonica James
p305
sg77
Nsg78
Nsg79
I1171510062
sg80
Nsbasg81
Nsg82
V543906804128681985
p306
sg84
I543899257913090048
sg85
V@monicajames81 I love me so Jasper White ;)
p307
sg87
I00
sg88
Ven
p308
sg90
g3
(g48
g5
Ntp309
Rp310
(dp311
g10
V
p312
sg52
V333333
p313
sg53
Ven
p314
sg54
Nsg55
I9
sg56
I23
sg36
VTue Dec 09 22:13:24 +0000 2014
p315
sg57
I00
sg58
g312
sg59
Vhttps://pbs.twimg.com/profile_images/542447109274742787/etXX_pCh_normal.jpeg
p316
sg60
I171
sg61
I16
sg62
Nsg63
Nsg64
I00
sg65
Vhttps://pbs.twimg.com/profile_banners/2924619588/1418164126
p317
sg66
I00
sg67
I00
sg68
V0084B4
p318
sg69
I00
sg70
I00
sg71
Vhttp://abs.twimg.com/images/themes/theme1/bg.png
p319
sg72
Vgomez01114
p320
sg74
I0
sg75
VClaudia 
p321
sg77
VDDEEF6
p322
sg78
Nsg79
I2924619588
sg80
VC0DEED
p323
sbsg109
I1
sg110
V<a href="http://twitter.com/download/android" rel="nofollow">Twitter for Android</a>
p324
sg112
(lp325
sg79
I543906804128681985
sbsg30
Nsg31
(lp326
sg33
Nsg34
Nsg35
Nsg36
VSun Dec 14 01:09:50 +0000 2014
p327
sg38
Nsg39
Nsg40
Nsg41
Nsg42
Nsg43
Nsg44
I00
sg45
Nsg46
(lp328
g3
(g48
g5
Ntp329
Rp330
(dp331
g10
Nsg52
Nsg53
Nsg54
Nsg55
Nsg56
Nsg36
Nsg57
Nsg58
Nsg59
Nsg60
Nsg61
Nsg62
Nsg63
Nsg64
Nsg65
Nsg66
Nsg67
Nsg68
Nsg69
Nsg70
Nsg71
Nsg72
Vgomez01114
p332
sg74
Nsg75
VClaudia 
p333
sg77
Nsg78
Nsg79
I2924619588
sg80
Nsbag3
(g48
g5
Ntp334
Rp335
(dp336
g10
Nsg52
Nsg53
Nsg54
Nsg55
Nsg56
Nsg36
Nsg57
Nsg58
Nsg59
Nsg60
Nsg61
Nsg62
Nsg63
Nsg64
Nsg65
Nsg66
Nsg67
Nsg68
Nsg69
Nsg70
Nsg71
Nsg72
Vmonicajames81
p337
sg74
Nsg75
VMonica James
p338
sg77
Nsg78
Nsg79
I1171510062
sg80
Nsbasg81
Nsg82
V543935863130828801
p339
sg84
Nsg85
VRT @gomez01114: @monicajames81 I love me so Jasper White ;)
p340
sg87
I00
sg88
Ven
p341
sg90
g3
(g48
g5
Ntp342
Rp343
(dp344
g10
VMelbourne, Victoria, Australia
p345
sg52
V333333
p346
sg53
Ven
p347
sg54
VMelbourne
p348
sg55
I1878
sg56
I3026
sg36
VTue Feb 12 10:11:30 +0000 2013
p349
sg57
I00
sg58
VAmazon's bestselling author of the I SURRENDER TRILOGY and SOMETHING LIKE NORMAL series.
p350
sg59
Vhttps://pbs.twimg.com/profile_images/542569473757028353/wbMflo8O_normal.jpeg
p351
sg60
I1092
sg61
I2168
sg62
I39600
sg63
Nsg64
I00
sg65
Vhttps://pbs.twimg.com/profile_banners/1171510062/1402021145
p352
sg66
I00
sg67
I00
sg68
V0084B4
p353
sg69
I00
sg70
I00
sg71
Vhttp://abs.twimg.com/images/themes/theme1/bg.png
p354
sg72
Vmonicajames81
p355
sg74
I17
sg75
VMonica James
p356
sg77
VDDEEF6
p357
sg78
Nsg79
I1171510062
sg80
VC0DEED
p358
sbsg109
I1
sg110
V<a href="http://twitter.com/download/iphone" rel="nofollow">Twitter for iPhone</a>
p359
sg112
(lp360
sg79
I543935863130828801
sbag3
(g4
g5
Ntp361
Rp362
(dp363
g9
I1
sg10
Nsg11
Nsg12
(lp364
sg20
I00
sg21
Nsg30
Nsg31
(lp365
sg33
Nsg34
Nsg35
Nsg36
VSat Dec 13 22:48:39 +0000 2014
p366
sg38
Nsg39
I00
sg40
Nsg41
Nsg42
Nsg43
Nsg44
I00
sg45
Nsg46
(lp367
sg81
Nsg82
V543900335354679297
p368
sg84
Nsg85
V5 of 5 stars to Ruin by Rachel Van Dyken https://t.co/UyPG0OjWrC
p369
sg87
I00
sg88
Ven
p370
sg90
g3
(g48
g5
Ntp371
Rp372
(dp373
g10
VMelbourne, Victoria, Australia
p374
sg52
V333333
p375
sg53
Ven
p376
sg54
VMelbourne
p377
sg55
I1878
sg56
I3026
sg36
VTue Feb 12 10:11:30 +0000 2013
p378
sg57
I00
sg58
VAmazon's bestselling author of the I SURRENDER TRILOGY and SOMETHING LIKE NORMAL series.
p379
sg59
Vhttps://pbs.twimg.com/profile_images/542569473757028353/wbMflo8O_normal.jpeg
p380
sg60
I1092
sg61
I2168
sg62
I39600
sg63
Nsg64
I00
sg65
Vhttps://pbs.twimg.com/profile_banners/1171510062/1402021145
p381
sg66
I00
sg67
I00
sg68
V0084B4
p382
sg69
I00
sg70
I00
sg71
Vhttp://abs.twimg.com/images/themes/theme1/bg.png
p383
sg72
Vmonicajames81
p384
sg74
I17
sg75
VMonica James
p385
sg77
VDDEEF6
p386
sg78
Nsg79
I1171510062
sg80
VC0DEED
p387
sbsg109
I0
sg110
V<a href="http://www.goodreads.com" rel="nofollow">Goodreads</a>
p388
sg112
(lp389
g3
(g114
g5
Ntp390
Rp391
(dp392
g118
Vhttps://t.co/UyPG0OjWrC
p393
sg120
Vhttps://www.goodreads.com/review/show/1130983271
p394
sbasg79
I543900335354679297
sbag3
(g4
g5
Ntp395
Rp396
(dp397
g9
I1
sg10
Nsg11
Nsg12
(lp398
sg20
I00
sg21
Nsg30
Nsg31
(lp399
(dp400
Vexpanded_url
p401
Vhttp://twitter.com/monicajames81/status/543899257913090048/photo/1
p402
sVdisplay_url
p403
Vpic.twitter.com/LzVULwSnL1
p404
sVurl
p405
Vhttp://t.co/LzVULwSnL1
p406
sVmedia_url_https
p407
Vhttps://pbs.twimg.com/media/B4xRfdQCcAAhHrB.jpg
p408
sVid_str
p409
V543899255874678784
p410
sVsizes
p411
(dp412
Vsmall
p413
(dp414
Vh
p415
I256
sVresize
p416
Vfit
p417
sVw
p418
I340
ssVlarge
p419
(dp420
Vh
p421
I772
sVresize
p422
Vfit
p423
sVw
p424
I1024
ssVmedium
p425
(dp426
Vh
p427
I452
sVresize
p428
Vfit
p429
sVw
p430
I600
ssVthumb
p431
(dp432
Vh
p433
I150
sVresize
p434
Vcrop
p435
sVw
p436
I150
sssVindices
p437
(lp438
I109
aI131
asVtype
p439
Vphoto
p440
sVid
p441
I543899255874678784
sVmedia_url
p442
Vhttp://pbs.twimg.com/media/B4xRfdQCcAAhHrB.jpg
p443
sasg33
Nsg34
Nsg35
Nsg36
VSat Dec 13 22:44:22 +0000 2014
p444
sg38
Nsg39
I00
sg40
Nsg41
Nsg42
Nsg43
Nsg44
I00
sg45
Nsg46
(lp445
sg81
Nsg82
V543899257913090048
p446
sg84
Nsg85
VSurrender to Me is on sale for a limited time only!!! $0.99!!!\u000aGrab your copy today!!\u000ahttp://t.co/lsSV1bbCUS http://t.co/LzVULwSnL1
p447
sg87
I00
sg88
Ven
p448
sg90
g3
(g48
g5
Ntp449
Rp450
(dp451
g10
VMelbourne, Victoria, Australia
p452
sg52
V333333
p453
sg53
Ven
p454
sg54
VMelbourne
p455
sg55
I1878
sg56
I3026
sg36
VTue Feb 12 10:11:30 +0000 2013
p456
sg57
I00
sg58
VAmazon's bestselling author of the I SURRENDER TRILOGY and SOMETHING LIKE NORMAL series.
p457
sg59
Vhttps://pbs.twimg.com/profile_images/542569473757028353/wbMflo8O_normal.jpeg
p458
sg60
I1092
sg61
I2168
sg62
I39600
sg63
Nsg64
I00
sg65
Vhttps://pbs.twimg.com/profile_banners/1171510062/1402021145
p459
sg66
I00
sg67
I00
sg68
V0084B4
p460
sg69
I00
sg70
I00
sg71
Vhttp://abs.twimg.com/images/themes/theme1/bg.png
p461
sg72
Vmonicajames81
p462
sg74
I17
sg75
VMonica James
p463
sg77
VDDEEF6
p464
sg78
Nsg79
I1171510062
sg80
VC0DEED
p465
sbsg109
I0
sg110
V<a href="http://twitter.com" rel="nofollow">Twitter Web Client</a>
p466
sg112
(lp467
g3
(g114
g5
Ntp468
Rp469
(dp470
g118
Vhttp://t.co/lsSV1bbCUS
p471
sg120
Vhttp://tinyurl.com/lx5ym7e
p472
sbasg79
I543899257913090048
sbag3
(g4
g5
Ntp473
Rp474
(dp475
g9
I0
sg10
Nsg11
Nsg12
(lp476
sg20
I00
sg21
g3
(g4
g5
Ntp477
Rp478
(dp479
g9
I1
sg10
Nsg11
Nsg12
(lp480
sg20
I00
sg21
Nsg30
Nsg31
(lp481
sg33
Nsg34
Nsg35
Nsg36
VSat Dec 13 21:15:25 +0000 2014
p482
sg38
Nsg39
I00
sg40
Nsg41
Nsg42
Nsg43
Nsg44
I00
sg45
Nsg46
(lp483
g3
(g48
g5
Ntp484
Rp485
(dp486
g10
Nsg52
Nsg53
Nsg54
Nsg55
Nsg56
Nsg36
Nsg57
Nsg58
Nsg59
Nsg60
Nsg61
Nsg62
Nsg63
Nsg64
Nsg65
Nsg66
Nsg67
Nsg68
Nsg69
Nsg70
Nsg71
Nsg72
Vmonicajames81
p487
sg74
Nsg75
VMonica James
p488
sg77
Nsg78
Nsg79
I1171510062
sg80
Nsbasg81
Nsg82
V543876869800861696
p489
sg84
Nsg85
VSomething Like Love by @monicajames81 Giveaway ends today!! Hurry &amp; enter now!! http://t.co/mD8sOeBTkE
p490
sg87
I00
sg88
Ven
p491
sg90
g3
(g48
g5
Ntp492
Rp493
(dp494
g10
VNew Jersey
p495
sg52
VFAAF86
p496
sg53
Ven
p497
sg54
VEastern Time (US & Canada)
p498
sg55
I658
sg56
I9833
sg36
VMon Aug 19 12:49:07 +0000 2013
p499
sg57
I00
sg58
V3 Jersey girls who love to get a little SMUTTY... Lovers of Romance and all things books!!\u000aHead on over to our blog http://t.co/CxJEPNuzbF
p500
sg59
Vhttps://pbs.twimg.com/profile_images/378800000645602695/a1b9183befe188e134feb780bb36ee89_normal.jpeg
p501
sg60
I392
sg61
I252
sg62
I-18000
sg63
Nsg64
I00
sg65
Vhttps://pbs.twimg.com/profile_banners/1683192854/1404096863
p502
sg66
I00
sg67
I01
sg68
VE892E5
p503
sg69
I01
sg70
I00
sg71
Vhttp://pbs.twimg.com/profile_background_images/444502618161696768/-24QrzvJ.jpeg
p504
sg72
Vsmutfanatic
p505
sg74
I9
sg75
VSmut Fanatics
p506
sg77
VFEC164
p507
sg78
Vhttp://t.co/uzD4i47Nsh
p508
sg79
I1683192854
sg80
VC6098E
p509
sbsg109
I1
sg110
V<a href="http://www.hootsuite.com" rel="nofollow">Hootsuite</a>
p510
sg112
(lp511
g3
(g114
g5
Ntp512
Rp513
(dp514
g118
Vhttp://t.co/mD8sOeBTkE
p515
sg120
Vhttp://ow.ly/FPSh6
p516
sbasg79
I543876869800861696
sbsg30
Nsg31
(lp517
sg33
Nsg34
Nsg35
Nsg36
VSat Dec 13 22:13:30 +0000 2014
p518
sg38
Nsg39
I00
sg40
Nsg41
Nsg42
Nsg43
Nsg44
I00
sg45
Nsg46
(lp519
g3
(g48
g5
Ntp520
Rp521
(dp522
g10
Nsg52
Nsg53
Nsg54
Nsg55
Nsg56
Nsg36
Nsg57
Nsg58
Nsg59
Nsg60
Nsg61
Nsg62
Nsg63
Nsg64
Nsg65
Nsg66
Nsg67
Nsg68
Nsg69
Nsg70
Nsg71
Nsg72
Vsmutfanatic
p523
sg74
Nsg75
VSmut Fanatics
p524
sg77
Nsg78
Nsg79
I1683192854
sg80
Nsbag3
(g48
g5
Ntp525
Rp526
(dp527
g10
Nsg52
Nsg53
Nsg54
Nsg55
Nsg56
Nsg36
Nsg57
Nsg58
Nsg59
Nsg60
Nsg61
Nsg62
Nsg63
Nsg64
Nsg65
Nsg66
Nsg67
Nsg68
Nsg69
Nsg70
Nsg71
Nsg72
Vmonicajames81
p528
sg74
Nsg75
VMonica James
p529
sg77
Nsg78
Nsg79
I1171510062
sg80
Nsbasg81
Nsg82
V543891489139335168
p530
sg84
Nsg85
VRT @smutfanatic: Something Like Love by @monicajames81 Giveaway ends today!! Hurry &amp; enter now!! http://t.co/mD8sOeBTkE
p531
sg87
I00
sg88
Ven
p532
sg90
g3
(g48
g5
Ntp533
Rp534
(dp535
g10
VMelbourne, Victoria, Australia
p536
sg52
V333333
p537
sg53
Ven
p538
sg54
VMelbourne
p539
sg55
I1878
sg56
I3026
sg36
VTue Feb 12 10:11:30 +0000 2013
p540
sg57
I00
sg58
VAmazon's bestselling author of the I SURRENDER TRILOGY and SOMETHING LIKE NORMAL series.
p541
sg59
Vhttps://pbs.twimg.com/profile_images/542569473757028353/wbMflo8O_normal.jpeg
p542
sg60
I1092
sg61
I2168
sg62
I39600
sg63
Nsg64
I00
sg65
Vhttps://pbs.twimg.com/profile_banners/1171510062/1402021145
p543
sg66
I00
sg67
I00
sg68
V0084B4
p544
sg69
I00
sg70
I00
sg71
Vhttp://abs.twimg.com/images/themes/theme1/bg.png
p545
sg72
Vmonicajames81
p546
sg74
I17
sg75
VMonica James
p547
sg77
VDDEEF6
p548
sg78
Nsg79
I1171510062
sg80
VC0DEED
p549
sbsg109
I1
sg110
V<a href="http://twitter.com/download/iphone" rel="nofollow">Twitter for iPhone</a>
p550
sg112
(lp551
g3
(g114
g5
Ntp552
Rp553
(dp554
g118
Vhttp://t.co/mD8sOeBTkE
p555
sg120
Vhttp://ow.ly/FPSh6
p556
sbasg79
I543891489139335168
sbag3
(g4
g5
Ntp557
Rp558
(dp559
g9
I0
sg10
Nsg11
Nsg12
(lp560
g3
(g14
g5
Ntp561
Rp562
(dp563
g18
VGiveaway
p564
sbasg20
I00
sg21
g3
(g4
g5
Ntp565
Rp566
(dp567
g9
I1
sg10
Nsg11
Nsg12
(lp568
g3
(g14
g5
Ntp569
Rp570
(dp571
g18
VGiveaway
p572
sbasg20
I00
sg21
Nsg30
Nsg31
(lp573
sg33
Nsg34
Nsg35
Nsg36
VSat Dec 13 17:00:07 +0000 2014
p574
sg38
Nsg39
I00
sg40
Nsg41
Nsg42
Nsg43
Nsg44
I00
sg45
Nsg46
(lp575
g3
(g48
g5
Ntp576
Rp577
(dp578
g10
Nsg52
Nsg53
Nsg54
Nsg55
Nsg56
Nsg36
Nsg57
Nsg58
Nsg59
Nsg60
Nsg61
Nsg62
Nsg63
Nsg64
Nsg65
Nsg66
Nsg67
Nsg68
Nsg69
Nsg70
Nsg71
Nsg72
Vmonicajames81
p579
sg74
Nsg75
VMonica James
p580
sg77
Nsg78
Nsg79
I1171510062
sg80
Nsbasg81
Nsg82
V543812622630785024
p581
sg84
Nsg85
VSomething Like Love by @monicajames81 #Giveaway ends today!! Hurry &amp; enter now!! http://t.co/vj0cLR5Ui4
p582
sg87
I00
sg88
Ven
p583
sg90
g3
(g48
g5
Ntp584
Rp585
(dp586
g10
VNew Jersey
p587
sg52
VFAAF86
p588
sg53
Ven
p589
sg54
VEastern Time (US & Canada)
p590
sg55
I658
sg56
I9833
sg36
VMon Aug 19 12:49:07 +0000 2013
p591
sg57
I00
sg58
V3 Jersey girls who love to get a little SMUTTY... Lovers of Romance and all things books!!\u000aHead on over to our blog http://t.co/CxJEPNuzbF
p592
sg59
Vhttps://pbs.twimg.com/profile_images/378800000645602695/a1b9183befe188e134feb780bb36ee89_normal.jpeg
p593
sg60
I392
sg61
I252
sg62
I-18000
sg63
Nsg64
I00
sg65
Vhttps://pbs.twimg.com/profile_banners/1683192854/1404096863
p594
sg66
I00
sg67
I01
sg68
VE892E5
p595
sg69
I01
sg70
I00
sg71
Vhttp://pbs.twimg.com/profile_background_images/444502618161696768/-24QrzvJ.jpeg
p596
sg72
Vsmutfanatic
p597
sg74
I9
sg75
VSmut Fanatics
p598
sg77
VFEC164
p599
sg78
Vhttp://t.co/uzD4i47Nsh
p600
sg79
I1683192854
sg80
VC6098E
p601
sbsg109
I1
sg110
V<a href="http://www.hootsuite.com" rel="nofollow">Hootsuite</a>
p602
sg112
(lp603
g3
(g114
g5
Ntp604
Rp605
(dp606
g118
Vhttp://t.co/vj0cLR5Ui4
p607
sg120
Vhttp://ow.ly/FPSf9
p608
sbasg79
I543812622630785024
sbsg30
Nsg31
(lp609
sg33
Nsg34
Nsg35
Nsg36
VSat Dec 13 22:13:27 +0000 2014
p610
sg38
Nsg39
I00
sg40
Nsg41
Nsg42
Nsg43
Nsg44
I00
sg45
Nsg46
(lp611
g3
(g48
g5
Ntp612
Rp613
(dp614
g10
Nsg52
Nsg53
Nsg54
Nsg55
Nsg56
Nsg36
Nsg57
Nsg58
Nsg59
Nsg60
Nsg61
Nsg62
Nsg63
Nsg64
Nsg65
Nsg66
Nsg67
Nsg68
Nsg69
Nsg70
Nsg71
Nsg72
Vsmutfanatic
p615
sg74
Nsg75
VSmut Fanatics
p616
sg77
Nsg78
Nsg79
I1683192854
sg80
Nsbag3
(g48
g5
Ntp617
Rp618
(dp619
g10
Nsg52
Nsg53
Nsg54
Nsg55
Nsg56
Nsg36
Nsg57
Nsg58
Nsg59
Nsg60
Nsg61
Nsg62
Nsg63
Nsg64
Nsg65
Nsg66
Nsg67
Nsg68
Nsg69
Nsg70
Nsg71
Nsg72
Vmonicajames81
p620
sg74
Nsg75
VMonica James
p621
sg77
Nsg78
Nsg79
I1171510062
sg80
Nsbasg81
Nsg82
V543891474522206208
p622
sg84
Nsg85
VRT @smutfanatic: Something Like Love by @monicajames81 #Giveaway ends today!! Hurry &amp; enter now!! http://t.co/vj0cLR5Ui4
p623
sg87
I00
sg88
Ven
p624
sg90
g3
(g48
g5
Ntp625
Rp626
(dp627
g10
VMelbourne, Victoria, Australia
p628
sg52
V333333
p629
sg53
Ven
p630
sg54
VMelbourne
p631
sg55
I1878
sg56
I3026
sg36
VTue Feb 12 10:11:30 +0000 2013
p632
sg57
I00
sg58
VAmazon's bestselling author of the I SURRENDER TRILOGY and SOMETHING LIKE NORMAL series.
p633
sg59
Vhttps://pbs.twimg.com/profile_images/542569473757028353/wbMflo8O_normal.jpeg
p634
sg60
I1092
sg61
I2168
sg62
I39600
sg63
Nsg64
I00
sg65
Vhttps://pbs.twimg.com/profile_banners/1171510062/1402021145
p635
sg66
I00
sg67
I00
sg68
V0084B4
p636
sg69
I00
sg70
I00
sg71
Vhttp://abs.twimg.com/images/themes/theme1/bg.png
p637
sg72
Vmonicajames81
p638
sg74
I17
sg75
VMonica James
p639
sg77
VDDEEF6
p640
sg78
Nsg79
I1171510062
sg80
VC0DEED
p641
sbsg109
I1
sg110
V<a href="http://twitter.com/download/iphone" rel="nofollow">Twitter for iPhone</a>
p642
sg112
(lp643
g3
(g114
g5
Ntp644
Rp645
(dp646
g118
Vhttp://t.co/vj0cLR5Ui4
p647
sg120
Vhttp://ow.ly/FPSf9
p648
sbasg79
I543891474522206208
sbag3
(g4
g5
Ntp649
Rp650
(dp651
g9
I0
sg10
Nsg11
Nsg12
(lp652
g3
(g14
g5
Ntp653
Rp654
(dp655
g18
VGIVEAWAY
p656
sbasg20
I00
sg21
g3
(g4
g5
Ntp657
Rp658
(dp659
g9
I1
sg10
Nsg11
Nsg12
(lp660
g3
(g14
g5
Ntp661
Rp662
(dp663
g18
VGIVEAWAY
p664
sbasg20
I00
sg21
Nsg30
Nsg31
(lp665
(dp666
Vsource_user_id
p667
I1193097445
sVsource_status_id_str
p668
V542637443892400128
p669
sVexpanded_url
p670
Vhttp://twitter.com/Laday2727/status/542637443892400128/photo/1
p671
sVdisplay_url
p672
Vpic.twitter.com/oWu1BZiRQs
p673
sVurl
p674
Vhttp://t.co/oWu1BZiRQs
p675
sVmedia_url_https
p676
Vhttps://pbs.twimg.com/media/B4fV4TWCcAAdKQx.png
p677
sVsource_user_id_str
p678
V1193097445
p679
sVsource_status_id
p680
I542637443892400128
sVid_str
p681
V542637443363532800
p682
sVsizes
p683
(dp684
Vsmall
p685
(dp686
Vh
p687
I540
sVresize
p688
Vfit
p689
sVw
p690
I340
ssVlarge
p691
(dp692
Vh
p693
I800
sVresize
p694
Vfit
p695
sVw
p696
I502
ssVmedium
p697
(dp698
Vh
p699
I800
sVresize
p700
Vfit
p701
sVw
p702
I502
ssVthumb
p703
(dp704
Vh
p705
I150
sVresize
p706
Vcrop
p707
sVw
p708
I150
sssVindices
p709
(lp710
I116
aI138
asVtype
p711
Vphoto
p712
sVid
p713
I542637443363532800
sVmedia_url
p714
Vhttp://pbs.twimg.com/media/B4fV4TWCcAAdKQx.png
p715
sasg33
Nsg34
Nsg35
Nsg36
VSat Dec 13 16:56:52 +0000 2014
p716
sg38
Nsg39
I00
sg40
Nsg41
Nsg42
Nsg43
Nsg44
I00
sg45
Nsg46
(lp717
g3
(g48
g5
Ntp718
Rp719
(dp720
g10
Nsg52
Nsg53
Nsg54
Nsg55
Nsg56
Nsg36
Nsg57
Nsg58
Nsg59
Nsg60
Nsg61
Nsg62
Nsg63
Nsg64
Nsg65
Nsg66
Nsg67
Nsg68
Nsg69
Nsg70
Nsg71
Nsg72
VMommysBookup
p721
sg74
Nsg75
VMommys Bookup
p722
sg77
Nsg78
Nsg79
I1608186158
sg80
Nsbag3
(g48
g5
Ntp723
Rp724
(dp725
g10
Nsg52
Nsg53
Nsg54
Nsg55
Nsg56
Nsg36
Nsg57
Nsg58
Nsg59
Nsg60
Nsg61
Nsg62
Nsg63
Nsg64
Nsg65
Nsg66
Nsg67
Nsg68
Nsg69
Nsg70
Nsg71
Nsg72
Vmonicajames81
p726
sg74
Nsg75
VMonica James
p727
sg77
Nsg78
Nsg79
I1171510062
sg80
Nsbasg81
Nsg82
V543811803403526144
p728
sg84
Nsg85
VSomething Like Love by Monica James #GIVEAWAY Romantic Suspense @MommysBookup @monicajames81 http://t.co/HwnlDqdXOi http://t.co/oWu1BZiRQs
p729
sg87
I00
sg88
Ven
p730
sg90
g3
(g48
g5
Ntp731
Rp732
(dp733
g10
VOhio
p734
sg52
V333333
p735
sg53
Ven
p736
sg54
VEastern Time (US & Canada)
p737
sg55
I1087
sg56
I20487
sg36
VMon Feb 18 12:54:20 +0000 2013
p738
sg57
I00
sg58
V\u2665 FREEBIES & GIVEAWAYS of all things romance \u2665
p739
sg59
Vhttps://pbs.twimg.com/profile_images/511236290755305472/t5outDFT_normal.png
p740
sg60
I1998
sg61
I117
sg62
I-18000
sg63
Nsg64
I00
sg65
Vhttps://pbs.twimg.com/profile_banners/1193097445/1410723280
p741
sg66
I00
sg67
I01
sg68
V700000
p742
sg69
I01
sg70
I00
sg71
Vhttp://pbs.twimg.com/profile_background_images/488029561611767808/OO7jPLS1.png
p743
sg72
VLaday2727
p744
sg74
I10
sg75
VRomanceNovelGiveaway
p745
sg77
VDDEEF6
p746
sg78
Vhttp://t.co/Mqzl5rL7PL
p747
sg79
I1193097445
sg80
V0F0F0F
p748
sbsg109
I1
sg110
V<a href="http://www.socialoomph.com" rel="nofollow">SocialOomph</a>
p749
sg112
(lp750
g3
(g114
g5
Ntp751
Rp752
(dp753
g118
Vhttp://t.co/HwnlDqdXOi
p754
sg120
Vhttp://goo.gl/GsqnAk
p755
sbasg79
I543811803403526144
sbsg30
Nsg31
(lp756
(dp757
Vsource_user_id
p758
I1193097445
sVsource_status_id_str
p759
V542637443892400128
p760
sVexpanded_url
p761
Vhttp://twitter.com/Laday2727/status/542637443892400128/photo/1
p762
sVdisplay_url
p763
Vpic.twitter.com/oWu1BZiRQs
p764
sVurl
p765
Vhttp://t.co/oWu1BZiRQs
p766
sVmedia_url_https
p767
Vhttps://pbs.twimg.com/media/B4fV4TWCcAAdKQx.png
p768
sVsource_user_id_str
p769
V1193097445
p770
sVsource_status_id
p771
I542637443892400128
sVid_str
p772
V542637443363532800
p773
sVsizes
p774
(dp775
Vsmall
p776
(dp777
Vh
p778
I540
sVresize
p779
Vfit
p780
sVw
p781
I340
ssVlarge
p782
(dp783
Vh
p784
I800
sVresize
p785
Vfit
p786
sVw
p787
I502
ssVmedium
p788
(dp789
Vh
p790
I800
sVresize
p791
Vfit
p792
sVw
p793
I502
ssVthumb
p794
(dp795
Vh
p796
I150
sVresize
p797
Vcrop
p798
sVw
p799
I150
sssVindices
p800
(lp801
I139
aI140
asVtype
p802
Vphoto
p803
sVid
p804
I542637443363532800
sVmedia_url
p805
Vhttp://pbs.twimg.com/media/B4fV4TWCcAAdKQx.png
p806
sasg33
Nsg34
Nsg35
Nsg36
VSat Dec 13 22:13:16 +0000 2014
p807
sg38
Nsg39
I00
sg40
Nsg41
Nsg42
Nsg43
Nsg44
I00
sg45
Nsg46
(lp808
g3
(g48
g5
Ntp809
Rp810
(dp811
g10
Nsg52
Nsg53
Nsg54
Nsg55
Nsg56
Nsg36
Nsg57
Nsg58
Nsg59
Nsg60
Nsg61
Nsg62
Nsg63
Nsg64
Nsg65
Nsg66
Nsg67
Nsg68
Nsg69
Nsg70
Nsg71
Nsg72
VLaday2727
p812
sg74
Nsg75
VRomanceNovelGiveaway
p813
sg77
Nsg78
Nsg79
I1193097445
sg80
Nsbag3
(g48
g5
Ntp814
Rp815
(dp816
g10
Nsg52
Nsg53
Nsg54
Nsg55
Nsg56
Nsg36
Nsg57
Nsg58
Nsg59
Nsg60
Nsg61
Nsg62
Nsg63
Nsg64
Nsg65
Nsg66
Nsg67
Nsg68
Nsg69
Nsg70
Nsg71
Nsg72
VMommysBookup
p817
sg74
Nsg75
VMommys Bookup
p818
sg77
Nsg78
Nsg79
I1608186158
sg80
Nsbag3
(g48
g5
Ntp819
Rp820
(dp821
g10
Nsg52
Nsg53
Nsg54
Nsg55
Nsg56
Nsg36
Nsg57
Nsg58
Nsg59
Nsg60
Nsg61
Nsg62
Nsg63
Nsg64
Nsg65
Nsg66
Nsg67
Nsg68
Nsg69
Nsg70
Nsg71
Nsg72
Vmonicajames81
p822
sg74
Nsg75
VMonica James
p823
sg77
Nsg78
Nsg79
I1171510062
sg80
Nsbasg81
Nsg82
V543891428225470464
p824
sg84
Nsg85
VRT @Laday2727: Something Like Love by Monica James #GIVEAWAY Romantic Suspense @MommysBookup @monicajames81 http://t.co/HwnlDqdXOi http://t\u2026
p825
sg87
I00
sg88
Ven
p826
sg90
g3
(g48
g5
Ntp827
Rp828
(dp829
g10
VMelbourne, Victoria, Australia
p830
sg52
V333333
p831
sg53
Ven
p832
sg54
VMelbourne
p833
sg55
I1878
sg56
I3026
sg36
VTue Feb 12 10:11:30 +0000 2013
p834
sg57
I00
sg58
VAmazon's bestselling author of the I SURRENDER TRILOGY and SOMETHING LIKE NORMAL series.
p835
sg59
Vhttps://pbs.twimg.com/profile_images/542569473757028353/wbMflo8O_normal.jpeg
p836
sg60
I1092
sg61
I2168
sg62
I39600
sg63
Nsg64
I00
sg65
Vhttps://pbs.twimg.com/profile_banners/1171510062/1402021145
p837
sg66
I00
sg67
I00
sg68
V0084B4
p838
sg69
I00
sg70
I00
sg71
Vhttp://abs.twimg.com/images/themes/theme1/bg.png
p839
sg72
Vmonicajames81
p840
sg74
I17
sg75
VMonica James
p841
sg77
VDDEEF6
p842
sg78
Nsg79
I1171510062
sg80
VC0DEED
p843
sbsg109
I1
sg110
V<a href="http://twitter.com/download/iphone" rel="nofollow">Twitter for iPhone</a>
p844
sg112
(lp845
g3
(g114
g5
Ntp846
Rp847
(dp848
g118
Vhttp://t.co/HwnlDqdXOi
p849
sg120
Vhttp://goo.gl/GsqnAk
p850
sbasg79
I543891428225470464
sbag3
(g4
g5
Ntp851
Rp852
(dp853
g9
I0
sg10
Nsg11
Nsg12
(lp854
g3
(g14
g5
Ntp855
Rp856
(dp857
g18
VGiveaway
p858
sbasg20
I00
sg21
g3
(g4
g5
Ntp859
Rp860
(dp861
g9
I1
sg10
Nsg11
Nsg12
(lp862
g3
(g14
g5
Ntp863
Rp864
(dp865
g18
VGiveaway
p866
sbasg20
I00
sg21
Nsg30
Nsg31
(lp867
sg33
Nsg34
Nsg35
Nsg36
VSat Dec 13 14:15:02 +0000 2014
p868
sg38
Nsg39
I00
sg40
Nsg41
Nsg42
Nsg43
Nsg44
I00
sg45
Nsg46
(lp869
g3
(g48
g5
Ntp870
Rp871
(dp872
g10
Nsg52
Nsg53
Nsg54
Nsg55
Nsg56
Nsg36
Nsg57
Nsg58
Nsg59
Nsg60
Nsg61
Nsg62
Nsg63
Nsg64
Nsg65
Nsg66
Nsg67
Nsg68
Nsg69
Nsg70
Nsg71
Nsg72
Vmonicajames81
p873
sg74
Nsg75
VMonica James
p874
sg77
Nsg78
Nsg79
I1171510062
sg80
Nsbasg81
Nsg82
V543771080079712257
p875
sg84
Nsg85
VSomething Like Love by @monicajames81 #Giveaway ends today!! Hurry &amp; enter now!! http://t.co/D66NzxQpzq
p876
sg87
I00
sg88
Ven
p877
sg90
g3
(g48
g5
Ntp878
Rp879
(dp880
g10
VNew Jersey
p881
sg52
VFAAF86
p882
sg53
Ven
p883
sg54
VEastern Time (US & Canada)
p884
sg55
I658
sg56
I9833
sg36
VMon Aug 19 12:49:07 +0000 2013
p885
sg57
I00
sg58
V3 Jersey girls who love to get a little SMUTTY... Lovers of Romance and all things books!!\u000aHead on over to our blog http://t.co/CxJEPNuzbF
p886
sg59
Vhttps://pbs.twimg.com/profile_images/378800000645602695/a1b9183befe188e134feb780bb36ee89_normal.jpeg
p887
sg60
I392
sg61
I252
sg62
I-18000
sg63
Nsg64
I00
sg65
Vhttps://pbs.twimg.com/profile_banners/1683192854/1404096863
p888
sg66
I00
sg67
I01
sg68
VE892E5
p889
sg69
I01
sg70
I00
sg71
Vhttp://pbs.twimg.com/profile_background_images/444502618161696768/-24QrzvJ.jpeg
p890
sg72
Vsmutfanatic
p891
sg74
I9
sg75
VSmut Fanatics
p892
sg77
VFEC164
p893
sg78
Vhttp://t.co/uzD4i47Nsh
p894
sg79
I1683192854
sg80
VC6098E
p895
sbsg109
I1
sg110
V<a href="http://www.hootsuite.com" rel="nofollow">Hootsuite</a>
p896
sg112
(lp897
g3
(g114
g5
Ntp898
Rp899
(dp900
g118
Vhttp://t.co/D66NzxQpzq
p901
sg120
Vhttp://ow.ly/FPSdX
p902
sbasg79
I543771080079712257
sbsg30
Nsg31
(lp903
sg33
Nsg34
Nsg35
Nsg36
VSat Dec 13 22:13:08 +0000 2014
p904
sg38
Nsg39
I00
sg40
Nsg41
Nsg42
Nsg43
Nsg44
I00
sg45
Nsg46
(lp905
g3
(g48
g5
Ntp906
Rp907
(dp908
g10
Nsg52
Nsg53
Nsg54
Nsg55
Nsg56
Nsg36
Nsg57
Nsg58
Nsg59
Nsg60
Nsg61
Nsg62
Nsg63
Nsg64
Nsg65
Nsg66
Nsg67
Nsg68
Nsg69
Nsg70
Nsg71
Nsg72
Vsmutfanatic
p909
sg74
Nsg75
VSmut Fanatics
p910
sg77
Nsg78
Nsg79
I1683192854
sg80
Nsbag3
(g48
g5
Ntp911
Rp912
(dp913
g10
Nsg52
Nsg53
Nsg54
Nsg55
Nsg56
Nsg36
Nsg57
Nsg58
Nsg59
Nsg60
Nsg61
Nsg62
Nsg63
Nsg64
Nsg65
Nsg66
Nsg67
Nsg68
Nsg69
Nsg70
Nsg71
Nsg72
Vmonicajames81
p914
sg74
Nsg75
VMonica James
p915
sg77
Nsg78
Nsg79
I1171510062
sg80
Nsbasg81
Nsg82
V543891394826235904
p916
sg84
Nsg85
VRT @smutfanatic: Something Like Love by @monicajames81 #Giveaway ends today!! Hurry &amp; enter now!! http://t.co/D66NzxQpzq
p917
sg87
I00
sg88
Ven
p918
sg90
g3
(g48
g5
Ntp919
Rp920
(dp921
g10
VMelbourne, Victoria, Australia
p922
sg52
V333333
p923
sg53
Ven
p924
sg54
VMelbourne
p925
sg55
I1878
sg56
I3026
sg36
VTue Feb 12 10:11:30 +0000 2013
p926
sg57
I00
sg58
VAmazon's bestselling author of the I SURRENDER TRILOGY and SOMETHING LIKE NORMAL series.
p927
sg59
Vhttps://pbs.twimg.com/profile_images/542569473757028353/wbMflo8O_normal.jpeg
p928
sg60
I1092
sg61
I2168
sg62
I39600
sg63
Nsg64
I00
sg65
Vhttps://pbs.twimg.com/profile_banners/1171510062/1402021145
p929
sg66
I00
sg67
I00
sg68
V0084B4
p930
sg69
I00
sg70
I00
sg71
Vhttp://abs.twimg.com/images/themes/theme1/bg.png
p931
sg72
Vmonicajames81
p932
sg74
I17
sg75
VMonica James
p933
sg77
VDDEEF6
p934
sg78
Nsg79
I1171510062
sg80
VC0DEED
p935
sbsg109
I1
sg110
V<a href="http://twitter.com/download/iphone" rel="nofollow">Twitter for iPhone</a>
p936
sg112
(lp937
g3
(g114
g5
Ntp938
Rp939
(dp940
g118
Vhttp://t.co/D66NzxQpzq
p941
sg120
Vhttp://ow.ly/FPSdX
p942
sbasg79
I543891394826235904
sbag3
(g4
g5
Ntp943
Rp944
(dp945
g9
I0
sg10
Nsg11
Nsg12
(lp946
g3
(g14
g5
Ntp947
Rp948
(dp949
g18
VGIVEAWAY
p950
sbasg20
I00
sg21
g3
(g4
g5
Ntp951
Rp952
(dp953
g9
I1
sg10
Nsg11
Nsg12
(lp954
g3
(g14
g5
Ntp955
Rp956
(dp957
g18
VGIVEAWAY
p958
sbasg20
I00
sg21
Nsg30
Nsg31
(lp959
(dp960
Vsource_user_id
p961
I1193097445
sVsource_status_id_str
p962
V542637443892400128
p963
sVexpanded_url
p964
Vhttp://twitter.com/Laday2727/status/542637443892400128/photo/1
p965
sVdisplay_url
p966
Vpic.twitter.com/oWu1BZiRQs
p967
sVurl
p968
Vhttp://t.co/oWu1BZiRQs
p969
sVmedia_url_https
p970
Vhttps://pbs.twimg.com/media/B4fV4TWCcAAdKQx.png
p971
sVsource_user_id_str
p972
V1193097445
p973
sVsource_status_id
p974
I542637443892400128
sVid_str
p975
V542637443363532800
p976
sVsizes
p977
(dp978
Vsmall
p979
(dp980
Vh
p981
I540
sVresize
p982
Vfit
p983
sVw
p984
I340
ssVlarge
p985
(dp986
Vh
p987
I800
sVresize
p988
Vfit
p989
sVw
p990
I502
ssVmedium
p991
(dp992
Vh
p993
I800
sVresize
p994
Vfit
p995
sVw
p996
I502
ssVthumb
p997
(dp998
Vh
p999
I150
sVresize
p1000
Vcrop
p1001
sVw
p1002
I150
sssVindices
p1003
(lp1004
I116
aI138
asVtype
p1005
Vphoto
p1006
sVid
p1007
I542637443363532800
sVmedia_url
p1008
Vhttp://pbs.twimg.com/media/B4fV4TWCcAAdKQx.png
p1009
sasg33
Nsg34
Nsg35
Nsg36
VSat Dec 13 10:56:53 +0000 2014
p1010
sg38
Nsg39
I00
sg40
Nsg41
Nsg42
Nsg43
Nsg44
I00
sg45
Nsg46
(lp1011
g3
(g48
g5
Ntp1012
Rp1013
(dp1014
g10
Nsg52
Nsg53
Nsg54
Nsg55
Nsg56
Nsg36
Nsg57
Nsg58
Nsg59
Nsg60
Nsg61
Nsg62
Nsg63
Nsg64
Nsg65
Nsg66
Nsg67
Nsg68
Nsg69
Nsg70
Nsg71
Nsg72
VMommysBookup
p1015
sg74
Nsg75
VMommys Bookup
p1016
sg77
Nsg78
Nsg79
I1608186158
sg80
Nsbag3
(g48
g5
Ntp1017
Rp1018
(dp1019
g10
Nsg52
Nsg53
Nsg54
Nsg55
Nsg56
Nsg36
Nsg57
Nsg58
Nsg59
Nsg60
Nsg61
Nsg62
Nsg63
Nsg64
Nsg65
Nsg66
Nsg67
Nsg68
Nsg69
Nsg70
Nsg71
Nsg72
Vmonicajames81
p1020
sg74
Nsg75
VMonica James
p1021
sg77
Nsg78
Nsg79
I1171510062
sg80
Nsbasg81
Nsg82
V543721212921139201
p1022
sg84
Nsg85
VSomething Like Love by Monica James #GIVEAWAY Romantic Suspense @MommysBookup @monicajames81 http://t.co/FYeCt5kFct http://t.co/oWu1BZiRQs
p1023
sg87
I00
sg88
Ven
p1024
sg90
g3
(g48
g5
Ntp1025
Rp1026
(dp1027
g10
VOhio
p1028
sg52
V333333
p1029
sg53
Ven
p1030
sg54
VEastern Time (US & Canada)
p1031
sg55
I1087
sg56
I20487
sg36
VMon Feb 18 12:54:20 +0000 2013
p1032
sg57
I00
sg58
V\u2665 FREEBIES & GIVEAWAYS of all things romance \u2665
p1033
sg59
Vhttps://pbs.twimg.com/profile_images/511236290755305472/t5outDFT_normal.png
p1034
sg60
I1998
sg61
I117
sg62
I-18000
sg63
Nsg64
I00
sg65
Vhttps://pbs.twimg.com/profile_banners/1193097445/1410723280
p1035
sg66
I00
sg67
I01
sg68
V700000
p1036
sg69
I01
sg70
I00
sg71
Vhttp://pbs.twimg.com/profile_background_images/488029561611767808/OO7jPLS1.png
p1037
sg72
VLaday2727
p1038
sg74
I10
sg75
VRomanceNovelGiveaway
p1039
sg77
VDDEEF6
p1040
sg78
Vhttp://t.co/Mqzl5rL7PL
p1041
sg79
I1193097445
sg80
V0F0F0F
p1042
sbsg109
I2
sg110
V<a href="https://dev.twitter.com/docs/tfw" rel="nofollow">Twitter for Websites</a>
p1043
sg112
(lp1044
g3
(g114
g5
Ntp1045
Rp1046
(dp1047
g118
Vhttp://t.co/FYeCt5kFct
p1048
sg120
Vhttp://goo.gl/GsqnAk
p1049
sbasg79
I543721212921139201
sbsg30
Nsg31
(lp1050
(dp1051
Vsource_user_id
p1052
I1193097445
sVsource_status_id_str
p1053
V542637443892400128
p1054
sVexpanded_url
p1055
Vhttp://twitter.com/Laday2727/status/542637443892400128/photo/1
p1056
sVdisplay_url
p1057
Vpic.twitter.com/oWu1BZiRQs
p1058
sVurl
p1059
Vhttp://t.co/oWu1BZiRQs
p1060
sVmedia_url_https
p1061
Vhttps://pbs.twimg.com/media/B4fV4TWCcAAdKQx.png
p1062
sVsource_user_id_str
p1063
V1193097445
p1064
sVsource_status_id
p1065
I542637443892400128
sVid_str
p1066
V542637443363532800
p1067
sVsizes
p1068
(dp1069
Vsmall
p1070
(dp1071
Vh
p1072
I540
sVresize
p1073
Vfit
p1074
sVw
p1075
I340
ssVlarge
p1076
(dp1077
Vh
p1078
I800
sVresize
p1079
Vfit
p1080
sVw
p1081
I502
ssVmedium
p1082
(dp1083
Vh
p1084
I800
sVresize
p1085
Vfit
p1086
sVw
p1087
I502
ssVthumb
p1088
(dp1089
Vh
p1090
I150
sVresize
p1091
Vcrop
p1092
sVw
p1093
I150
sssVindices
p1094
(lp1095
I139
aI140
asVtype
p1096
Vphoto
p1097
sVid
p1098
I542637443363532800
sVmedia_url
p1099
Vhttp://pbs.twimg.com/media/B4fV4TWCcAAdKQx.png
p1100
sasg33
Nsg34
Nsg35
Nsg36
VSat Dec 13 12:14:18 +0000 2014
p1101
sg38
Nsg39
I00
sg40
Nsg41
Nsg42
Nsg43
Nsg44
I00
sg45
Nsg46
(lp1102
g3
(g48
g5
Ntp1103
Rp1104
(dp1105
g10
Nsg52
Nsg53
Nsg54
Nsg55
Nsg56
Nsg36
Nsg57
Nsg58
Nsg59
Nsg60
Nsg61
Nsg62
Nsg63
Nsg64
Nsg65
Nsg66
Nsg67
Nsg68
Nsg69
Nsg70
Nsg71
Nsg72
VLaday2727
p1106
sg74
Nsg75
VRomanceNovelGiveaway
p1107
sg77
Nsg78
Nsg79
I1193097445
sg80
Nsbag3
(g48
g5
Ntp1108
Rp1109
(dp1110
g10
Nsg52
Nsg53
Nsg54
Nsg55
Nsg56
Nsg36
Nsg57
Nsg58
Nsg59
Nsg60
Nsg61
Nsg62
Nsg63
Nsg64
Nsg65
Nsg66
Nsg67
Nsg68
Nsg69
Nsg70
Nsg71
Nsg72
VMommysBookup
p1111
sg74
Nsg75
VMommys Bookup
p1112
sg77
Nsg78
Nsg79
I1608186158
sg80
Nsbag3
(g48
g5
Ntp1113
Rp1114
(dp1115
g10
Nsg52
Nsg53
Nsg54
Nsg55
Nsg56
Nsg36
Nsg57
Nsg58
Nsg59
Nsg60
Nsg61
Nsg62
Nsg63
Nsg64
Nsg65
Nsg66
Nsg67
Nsg68
Nsg69
Nsg70
Nsg71
Nsg72
Vmonicajames81
p1116
sg74
Nsg75
VMonica James
p1117
sg77
Nsg78
Nsg79
I1171510062
sg80
Nsbasg81
Nsg82
V543740696666976256
p1118
sg84
Nsg85
VRT @Laday2727: Something Like Love by Monica James #GIVEAWAY Romantic Suspense @MommysBookup @monicajames81 http://t.co/FYeCt5kFct http://t\u2026
p1119
sg87
I00
sg88
Ven
p1120
sg90
g3
(g48
g5
Ntp1121
Rp1122
(dp1123
g10
VMelbourne, Victoria, Australia
p1124
sg52
V333333
p1125
sg53
Ven
p1126
sg54
VMelbourne
p1127
sg55
I1878
sg56
I3026
sg36
VTue Feb 12 10:11:30 +0000 2013
p1128
sg57
I00
sg58
VAmazon's bestselling author of the I SURRENDER TRILOGY and SOMETHING LIKE NORMAL series.
p1129
sg59
Vhttps://pbs.twimg.com/profile_images/542569473757028353/wbMflo8O_normal.jpeg
p1130
sg60
I1092
sg61
I2168
sg62
I39600
sg63
Nsg64
I00
sg65
Vhttps://pbs.twimg.com/profile_banners/1171510062/1402021145
p1131
sg66
I00
sg67
I00
sg68
V0084B4
p1132
sg69
I00
sg70
I00
sg71
Vhttp://abs.twimg.com/images/themes/theme1/bg.png
p1133
sg72
Vmonicajames81
p1134
sg74
I17
sg75
VMonica James
p1135
sg77
VDDEEF6
p1136
sg78
Nsg79
I1171510062
sg80
VC0DEED
p1137
sbsg109
I2
sg110
V<a href="http://twitter.com/download/iphone" rel="nofollow">Twitter for iPhone</a>
p1138
sg112
(lp1139
g3
(g114
g5
Ntp1140
Rp1141
(dp1142
g118
Vhttp://t.co/FYeCt5kFct
p1143
sg120
Vhttp://goo.gl/GsqnAk
p1144
sbasg79
I543740696666976256
sbag3
(g4
g5
Ntp1145
Rp1146
(dp1147
g9
I1
sg10
Nsg11
Nsg12
(lp1148
sg20
I00
sg21
Nsg30
Nsg31
(lp1149
sg33
Nsg34
Nsg35
Nsg36
VSat Dec 13 06:30:07 +0000 2014
p1150
sg38
Nsg39
Nsg40
VStephsSexyReads
p1151
sg41
Nsg42
I2584633722
sg43
Nsg44
I00
sg45
Nsg46
(lp1152
g3
(g48
g5
Ntp1153
Rp1154
(dp1155
g10
Nsg52
Nsg53
Nsg54
Nsg55
Nsg56
Nsg36
Nsg57
Nsg58
Nsg59
Nsg60
Nsg61
Nsg62
Nsg63
Nsg64
Nsg65
Nsg66
Nsg67
Nsg68
Nsg69
Nsg70
Nsg71
Nsg72
VStephsSexyReads
p1156
sg74
Nsg75
VStephanie
p1157
sg77
Nsg78
Nsg79
I2584633722
sg80
Nsbag3
(g48
g5
Ntp1158
Rp1159
(dp1160
g10
Nsg52
Nsg53
Nsg54
Nsg55
Nsg56
Nsg36
Nsg57
Nsg58
Nsg59
Nsg60
Nsg61
Nsg62
Nsg63
Nsg64
Nsg65
Nsg66
Nsg67
Nsg68
Nsg69
Nsg70
Nsg71
Nsg72
VTabathaVargo
p1161
sg74
Nsg75
VTabatha Vargo
p1162
sg77
Nsg78
Nsg79
I31173964
sg80
Nsbag3
(g48
g5
Ntp1163
Rp1164
(dp1165
g10
Nsg52
Nsg53
Nsg54
Nsg55
Nsg56
Nsg36
Nsg57
Nsg58
Nsg59
Nsg60
Nsg61
Nsg62
Nsg63
Nsg64
Nsg65
Nsg66
Nsg67
Nsg68
Nsg69
Nsg70
Nsg71
Nsg72
VAtriaIndies
p1166
sg74
Nsg75
VAtria Indie Authors
p1167
sg77
Nsg78
Nsg79
I2766873294
sg80
Nsbag3
(g48
g5
Ntp1168
Rp1169
(dp1170
g10
Nsg52
Nsg53
Nsg54
Nsg55
Nsg56
Nsg36
Nsg57
Nsg58
Nsg59
Nsg60
Nsg61
Nsg62
Nsg63
Nsg64
Nsg65
Nsg66
Nsg67
Nsg68
Nsg69
Nsg70
Nsg71
Nsg72
VShayla_Black
p1171
sg74
Nsg75
VShayla Black
p1172
sg77
Nsg78
Nsg79
I262832412
sg80
Nsbag3
(g48
g5
Ntp1173
Rp1174
(dp1175
g10
Nsg52
Nsg53
Nsg54
Nsg55
Nsg56
Nsg36
Nsg57
Nsg58
Nsg59
Nsg60
Nsg61
Nsg62
Nsg63
Nsg64
Nsg65
Nsg66
Nsg67
Nsg68
Nsg69
Nsg70
Nsg71
Nsg72
VEroticaDawn
p1176
sg74
Nsg75
VDawn Robertson
p1177
sg77
Nsg78
Nsg79
I1730099558
sg80
Nsbag3
(g48
g5
Ntp1178
Rp1179
(dp1180
g10
Nsg52
Nsg53
Nsg54
Nsg55
Nsg56
Nsg36
Nsg57
Nsg58
Nsg59
Nsg60
Nsg61
Nsg62
Nsg63
Nsg64
Nsg65
Nsg66
Nsg67
Nsg68
Nsg69
Nsg70
Nsg71
Nsg72
VJLArmentrout
p1181
sg74
Nsg75
VJLArmentrout
p1182
sg77
Nsg78
Nsg79
I208313927
sg80
Nsbag3
(g48
g5
Ntp1183
Rp1184
(dp1185
g10
Nsg52
Nsg53
Nsg54
Nsg55
Nsg56
Nsg36
Nsg57
Nsg58
Nsg59
Nsg60
Nsg61
Nsg62
Nsg63
Nsg64
Nsg65
Nsg66
Nsg67
Nsg68
Nsg69
Nsg70
Nsg71
Nsg72
VLady_LovesBooks
p1186
sg74
Nsg75
VPaula Radell
p1187
sg77
Nsg78
Nsg79
I56933453
sg80
Nsbag3
(g48
g5
Ntp1188
Rp1189
(dp1190
g10
Nsg52
Nsg53
Nsg54
Nsg55
Nsg56
Nsg36
Nsg57
Nsg58
Nsg59
Nsg60
Nsg61
Nsg62
Nsg63
Nsg64
Nsg65
Nsg66
Nsg67
Nsg68
Nsg69
Nsg70
Nsg71
Nsg72
VGentlemansHub
p1191
sg74
Nsg75
VThe Gentleman's Hub
p1192
sg77
Nsg78
Nsg79
I1499542975
sg80
Nsbasg81
Nsg82
V543654076320202752
p1193
sg84
I543591745011740673
sg85
V@StephsSexyReads @TabathaVargo @AtriaIndies @Shayla_Black @EroticaDawn @JLArmentrout @Lady_LovesBooks @GentlemansHub \u2764\ufe0f\u2764\ufe0f
p1194
sg87
I00
sg88
Vund
p1195
sg90
g3
(g48
g5
Ntp1196
Rp1197
(dp1198
g10
VMelbourne, Victoria, Australia
p1199
sg52
V333333
p1200
sg53
Ven
p1201
sg54
VMelbourne
p1202
sg55
I1878
sg56
I3026
sg36
VTue Feb 12 10:11:30 +0000 2013
p1203
sg57
I00
sg58
VAmazon's bestselling author of the I SURRENDER TRILOGY and SOMETHING LIKE NORMAL series.
p1204
sg59
Vhttps://pbs.twimg.com/profile_images/542569473757028353/wbMflo8O_normal.jpeg
p1205
sg60
I1092
sg61
I2168
sg62
I39600
sg63
Nsg64
I00
sg65
Vhttps://pbs.twimg.com/profile_banners/1171510062/1402021145
p1206
sg66
I00
sg67
I00
sg68
V0084B4
p1207
sg69
I00
sg70
I00
sg71
Vhttp://abs.twimg.com/images/themes/theme1/bg.png
p1208
sg72
Vmonicajames81
p1209
sg74
I17
sg75
VMonica James
p1210
sg77
VDDEEF6
p1211
sg78
Nsg79
I1171510062
sg80
VC0DEED
p1212
sbsg109
I0
sg110
V<a href="http://twitter.com/download/iphone" rel="nofollow">Twitter for iPhone</a>
p1213
sg112
(lp1214
sg79
I543654076320202752
sbag3
(g4
g5
Ntp1215
Rp1216
(dp1217
g9
I0
sg10
Nsg11
Nsg12
(lp1218
g3
(g14
g5
Ntp1219
Rp1220
(dp1221
g18
VFF
p1222
sbasg20
I00
sg21
g3
(g4
g5
Ntp1223
Rp1224
(dp1225
g9
I3
sg10
Nsg11
Nsg12
(lp1226
g3
(g14
g5
Ntp1227
Rp1228
(dp1229
g18
VFF
p1230
sbasg20
I00
sg21
Nsg30
Nsg31
(lp1231
sg33
Nsg34
Nsg35
Nsg36
VSat Dec 13 02:22:26 +0000 2014
p1232
sg38
Nsg39
Nsg40
Nsg41
Nsg42
Nsg43
Nsg44
I00
sg45
Nsg46
(lp1233
g3
(g48
g5
Ntp1234
Rp1235
(dp1236
g10
Nsg52
Nsg53
Nsg54
Nsg55
Nsg56
Nsg36
Nsg57
Nsg58
Nsg59
Nsg60
Nsg61
Nsg62
Nsg63
Nsg64
Nsg65
Nsg66
Nsg67
Nsg68
Nsg69
Nsg70
Nsg71
Nsg72
VTabathaVargo
p1237
sg74
Nsg75
VTabatha Vargo
p1238
sg77
Nsg78
Nsg79
I31173964
sg80
Nsbag3
(g48
g5
Ntp1239
Rp1240
(dp1241
g10
Nsg52
Nsg53
Nsg54
Nsg55
Nsg56
Nsg36
Nsg57
Nsg58
Nsg59
Nsg60
Nsg61
Nsg62
Nsg63
Nsg64
Nsg65
Nsg66
Nsg67
Nsg68
Nsg69
Nsg70
Nsg71
Nsg72
VAtriaIndies
p1242
sg74
Nsg75
VAtria Indie Authors
p1243
sg77
Nsg78
Nsg79
I2766873294
sg80
Nsbag3
(g48
g5
Ntp1244
Rp1245
(dp1246
g10
Nsg52
Nsg53
Nsg54
Nsg55
Nsg56
Nsg36
Nsg57
Nsg58
Nsg59
Nsg60
Nsg61
Nsg62
Nsg63
Nsg64
Nsg65
Nsg66
Nsg67
Nsg68
Nsg69
Nsg70
Nsg71
Nsg72
Vmonicajames81
p1247
sg74
Nsg75
VMonica James
p1248
sg77
Nsg78
Nsg79
I1171510062
sg80
Nsbag3
(g48
g5
Ntp1249
Rp1250
(dp1251
g10
Nsg52
Nsg53
Nsg54
Nsg55
Nsg56
Nsg36
Nsg57
Nsg58
Nsg59
Nsg60
Nsg61
Nsg62
Nsg63
Nsg64
Nsg65
Nsg66
Nsg67
Nsg68
Nsg69
Nsg70
Nsg71
Nsg72
VShayla_Black
p1252
sg74
Nsg75
VShayla Black
p1253
sg77
Nsg78
Nsg79
I262832412
sg80
Nsbag3
(g48
g5
Ntp1254
Rp1255
(dp1256
g10
Nsg52
Nsg53
Nsg54
Nsg55
Nsg56
Nsg36
Nsg57
Nsg58
Nsg59
Nsg60
Nsg61
Nsg62
Nsg63
Nsg64
Nsg65
Nsg66
Nsg67
Nsg68
Nsg69
Nsg70
Nsg71
Nsg72
VEroticaDawn
p1257
sg74
Nsg75
VDawn Robertson
p1258
sg77
Nsg78
Nsg79
I1730099558
sg80
Nsbag3
(g48
g5
Ntp1259
Rp1260
(dp1261
g10
Nsg52
Nsg53
Nsg54
Nsg55
Nsg56
Nsg36
Nsg57
Nsg58
Nsg59
Nsg60
Nsg61
Nsg62
Nsg63
Nsg64
Nsg65
Nsg66
Nsg67
Nsg68
Nsg69
Nsg70
Nsg71
Nsg72
VJLArmentrout
p1262
sg74
Nsg75
VJLArmentrout
p1263
sg77
Nsg78
Nsg79
I208313927
sg80
Nsbag3
(g48
g5
Ntp1264
Rp1265
(dp1266
g10
Nsg52
Nsg53
Nsg54
Nsg55
Nsg56
Nsg36
Nsg57
Nsg58
Nsg59
Nsg60
Nsg61
Nsg62
Nsg63
Nsg64
Nsg65
Nsg66
Nsg67
Nsg68
Nsg69
Nsg70
Nsg71
Nsg72
VLady_LovesBooks
p1267
sg74
Nsg75
VPaula Radell
p1268
sg77
Nsg78
Nsg79
I56933453
sg80
Nsbag3
(g48
g5
Ntp1269
Rp1270
(dp1271
g10
Nsg52
Nsg53
Nsg54
Nsg55
Nsg56
Nsg36
Nsg57
Nsg58
Nsg59
Nsg60
Nsg61
Nsg62
Nsg63
Nsg64
Nsg65
Nsg66
Nsg67
Nsg68
Nsg69
Nsg70
Nsg71
Nsg72
VGentlemansHub
p1272
sg74
Nsg75
VThe Gentleman's Hub
p1273
sg77
Nsg78
Nsg79
I1499542975
sg80
Nsbasg81
Nsg82
V543591745011740673
p1274
sg84
Nsg85
V#FF Have a great weekend!\u000a@TabathaVargo\u000a@AtriaIndies\u000a@monicajames81\u000a@Shayla_Black\u000a@EroticaDawn\u000a@JLArmentrout\u000a@Lady_LovesBooks\u000a@GentlemansHub
p1275
sg87
I00
sg88
Ven
p1276
sg90
g3
(g48
g5
Ntp1277
Rp1278
(dp1279
g10
g312
sg52
V333333
p1280
sg53
Ven
p1281
sg54
Nsg55
I271
sg56
I1083
sg36
VMon Jun 23 22:04:26 +0000 2014
p1282
sg57
I00
sg58
VBook lover. Romance, Indie, and Erotic Book Reviews.
p1283
sg59
Vhttps://pbs.twimg.com/profile_images/481198862460149760/GeO0d9C__normal.jpeg
p1284
sg60
I513
sg61
I131
sg62
Nsg63
Nsg64
I00
sg65
Vhttps://pbs.twimg.com/profile_banners/2584633722/1403569390
p1285
sg66
I00
sg67
I00
sg68
V0084B4
p1286
sg69
I00
sg70
I00
sg71
Vhttp://abs.twimg.com/images/themes/theme1/bg.png
p1287
sg72
VStephsSexyReads
p1288
sg74
I7
sg75
VStephanie
p1289
sg77
VDDEEF6
p1290
sg78
Vhttps://t.co/sQ75DVM14X
p1291
sg79
I2584633722
sg80
VC0DEED
p1292
sbsg109
I1
sg110
V<a href="https://about.twitter.com/products/tweetdeck" rel="nofollow">TweetDeck</a>
p1293
sg112
(lp1294
sg79
I543591745011740673
sbsg30
Nsg31
(lp1295
sg33
Nsg34
Nsg35
Nsg36
VSat Dec 13 06:30:02 +0000 2014
p1296
sg38
Nsg39
Nsg40
Nsg41
Nsg42
Nsg43
Nsg44
I00
sg45
Nsg46
(lp1297
g3
(g48
g5
Ntp1298
Rp1299
(dp1300
g10
Nsg52
Nsg53
Nsg54
Nsg55
Nsg56
Nsg36
Nsg57
Nsg58
Nsg59
Nsg60
Nsg61
Nsg62
Nsg63
Nsg64
Nsg65
Nsg66
Nsg67
Nsg68
Nsg69
Nsg70
Nsg71
Nsg72
VStephsSexyReads
p1301
sg74
Nsg75
VStephanie
p1302
sg77
Nsg78
Nsg79
I2584633722
sg80
Nsbag3
(g48
g5
Ntp1303
Rp1304
(dp1305
g10
Nsg52
Nsg53
Nsg54
Nsg55
Nsg56
Nsg36
Nsg57
Nsg58
Nsg59
Nsg60
Nsg61
Nsg62
Nsg63
Nsg64
Nsg65
Nsg66
Nsg67
Nsg68
Nsg69
Nsg70
Nsg71
Nsg72
VTabathaVargo
p1306
sg74
Nsg75
VTabatha Vargo
p1307
sg77
Nsg78
Nsg79
I31173964
sg80
Nsbag3
(g48
g5
Ntp1308
Rp1309
(dp1310
g10
Nsg52
Nsg53
Nsg54
Nsg55
Nsg56
Nsg36
Nsg57
Nsg58
Nsg59
Nsg60
Nsg61
Nsg62
Nsg63
Nsg64
Nsg65
Nsg66
Nsg67
Nsg68
Nsg69
Nsg70
Nsg71
Nsg72
VAtriaIndies
p1311
sg74
Nsg75
VAtria Indie Authors
p1312
sg77
Nsg78
Nsg79
I2766873294
sg80
Nsbag3
(g48
g5
Ntp1313
Rp1314
(dp1315
g10
Nsg52
Nsg53
Nsg54
Nsg55
Nsg56
Nsg36
Nsg57
Nsg58
Nsg59
Nsg60
Nsg61
Nsg62
Nsg63
Nsg64
Nsg65
Nsg66
Nsg67
Nsg68
Nsg69
Nsg70
Nsg71
Nsg72
Vmonicajames81
p1316
sg74
Nsg75
VMonica James
p1317
sg77
Nsg78
Nsg79
I1171510062
sg80
Nsbag3
(g48
g5
Ntp1318
Rp1319
(dp1320
g10
Nsg52
Nsg53
Nsg54
Nsg55
Nsg56
Nsg36
Nsg57
Nsg58
Nsg59
Nsg60
Nsg61
Nsg62
Nsg63
Nsg64
Nsg65
Nsg66
Nsg67
Nsg68
Nsg69
Nsg70
Nsg71
Nsg72
VShayla_Black
p1321
sg74
Nsg75
VShayla Black
p1322
sg77
Nsg78
Nsg79
I262832412
sg80
Nsbag3
(g48
g5
Ntp1323
Rp1324
(dp1325
g10
Nsg52
Nsg53
Nsg54
Nsg55
Nsg56
Nsg36
Nsg57
Nsg58
Nsg59
Nsg60
Nsg61
Nsg62
Nsg63
Nsg64
Nsg65
Nsg66
Nsg67
Nsg68
Nsg69
Nsg70
Nsg71
Nsg72
VEroticaDawn
p1326
sg74
Nsg75
VDawn Robertson
p1327
sg77
Nsg78
Nsg79
I1730099558
sg80
Nsbag3
(g48
g5
Ntp1328
Rp1329
(dp1330
g10
Nsg52
Nsg53
Nsg54
Nsg55
Nsg56
Nsg36
Nsg57
Nsg58
Nsg59
Nsg60
Nsg61
Nsg62
Nsg63
Nsg64
Nsg65
Nsg66
Nsg67
Nsg68
Nsg69
Nsg70
Nsg71
Nsg72
VJLArmentrout
p1331
sg74
Nsg75
VJLArmentrout
p1332
sg77
Nsg78
Nsg79
I208313927
sg80
Nsbag3
(g48
g5
Ntp1333
Rp1334
(dp1335
g10
Nsg52
Nsg53
Nsg54
Nsg55
Nsg56
Nsg36
Nsg57
Nsg58
Nsg59
Nsg60
Nsg61
Nsg62
Nsg63
Nsg64
Nsg65
Nsg66
Nsg67
Nsg68
Nsg69
Nsg70
Nsg71
Nsg72
VLady_LovesBooks
p1336
sg74
Nsg75
VPaula Radell
p1337
sg77
Nsg78
Nsg79
I56933453
sg80
Nsbag3
(g48
g5
Ntp1338
Rp1339
(dp1340
g10
Nsg52
Nsg53
Nsg54
Nsg55
Nsg56
Nsg36
Nsg57
Nsg58
Nsg59
Nsg60
Nsg61
Nsg62
Nsg63
Nsg64
Nsg65
Nsg66
Nsg67
Nsg68
Nsg69
Nsg70
Nsg71
Nsg72
VGentlemansHub
p1341
sg74
Nsg75
VThe Gentleman's Hub
p1342
sg77
Nsg78
Nsg79
I1499542975
sg80
Nsbasg81
Nsg82
V543654055646482432
p1343
sg84
Nsg85
VRT @StephsSexyReads: #FF Have a great weekend!\u000a@TabathaVargo\u000a@AtriaIndies\u000a@monicajames81\u000a@Shayla_Black\u000a@EroticaDawn\u000a@JLArmentrout\u000a@Lady_Lov\u2026
p1344
sg87
I00
sg88
Ven
p1345
sg90
g3
(g48
g5
Ntp1346
Rp1347
(dp1348
g10
VMelbourne, Victoria, Australia
p1349
sg52
V333333
p1350
sg53
Ven
p1351
sg54
VMelbourne
p1352
sg55
I1878
sg56
I3026
sg36
VTue Feb 12 10:11:30 +0000 2013
p1353
sg57
I00
sg58
VAmazon's bestselling author of the I SURRENDER TRILOGY and SOMETHING LIKE NORMAL series.
p1354
sg59
Vhttps://pbs.twimg.com/profile_images/542569473757028353/wbMflo8O_normal.jpeg
p1355
sg60
I1092
sg61
I2168
sg62
I39600
sg63
Nsg64
I00
sg65
Vhttps://pbs.twimg.com/profile_banners/1171510062/1402021145
p1356
sg66
I00
sg67
I00
sg68
V0084B4
p1357
sg69
I00
sg70
I00
sg71
Vhttp://abs.twimg.com/images/themes/theme1/bg.png
p1358
sg72
Vmonicajames81
p1359
sg74
I17
sg75
VMonica James
p1360
sg77
VDDEEF6
p1361
sg78
Nsg79
I1171510062
sg80
VC0DEED
p1362
sbsg109
I1
sg110
V<a href="http://twitter.com/download/iphone" rel="nofollow">Twitter for iPhone</a>
p1363
sg112
(lp1364
sg79
I543654055646482432
sbag3
(g4
g5
Ntp1365
Rp1366
(dp1367
g9
I3
sg10
Nsg11
Nsg12
(lp1368
sg20
I00
sg21
Nsg30
Nsg31
(lp1369
sg33
Nsg34
Nsg35
Nsg36
VSat Dec 13 06:29:47 +0000 2014
p1370
sg38
Nsg39
Nsg40
VGentlemansHub
p1371
sg41
Nsg42
I1499542975
sg43
Nsg44
I00
sg45
Nsg46
(lp1372
g3
(g48
g5
Ntp1373
Rp1374
(dp1375
g10
Nsg52
Nsg53
Nsg54
Nsg55
Nsg56
Nsg36
Nsg57
Nsg58
Nsg59
Nsg60
Nsg61
Nsg62
Nsg63
Nsg64
Nsg65
Nsg66
Nsg67
Nsg68
Nsg69
Nsg70
Nsg71
Nsg72
VGentlemansHub
p1376
sg74
Nsg75
VThe Gentleman's Hub
p1377
sg77
Nsg78
Nsg79
I1499542975
sg80
Nsbag3
(g48
g5
Ntp1378
Rp1379
(dp1380
g10
Nsg52
Nsg53
Nsg54
Nsg55
Nsg56
Nsg36
Nsg57
Nsg58
Nsg59
Nsg60
Nsg61
Nsg62
Nsg63
Nsg64
Nsg65
Nsg66
Nsg67
Nsg68
Nsg69
Nsg70
Nsg71
Nsg72
VEvaLeNoirAuthor
p1381
sg74
Nsg75
VEva LeNoir
p1382
sg77
Nsg78
Nsg79
I999140503
sg80
Nsbag3
(g48
g5
Ntp1383
Rp1384
(dp1385
g10
Nsg52
Nsg53
Nsg54
Nsg55
Nsg56
Nsg36
Nsg57
Nsg58
Nsg59
Nsg60
Nsg61
Nsg62
Nsg63
Nsg64
Nsg65
Nsg66
Nsg67
Nsg68
Nsg69
Nsg70
Nsg71
Nsg72
VBillBateman1
p1386
sg74
Nsg75
VBill Bateman
p1387
sg77
Nsg78
Nsg79
I15203873
sg80
Nsbag3
(g48
g5
Ntp1388
Rp1389
(dp1390
g10
Nsg52
Nsg53
Nsg54
Nsg55
Nsg56
Nsg36
Nsg57
Nsg58
Nsg59
Nsg60
Nsg61
Nsg62
Nsg63
Nsg64
Nsg65
Nsg66
Nsg67
Nsg68
Nsg69
Nsg70
Nsg71
Nsg72
VFarmGirlLily
p1391
sg74
Nsg75
VCindy Lou
p1392
sg77
Nsg78
Nsg79
I338832849
sg80
Nsbag3
(g48
g5
Ntp1393
Rp1394
(dp1395
g10
Nsg52
Nsg53
Nsg54
Nsg55
Nsg56
Nsg36
Nsg57
Nsg58
Nsg59
Nsg60
Nsg61
Nsg62
Nsg63
Nsg64
Nsg65
Nsg66
Nsg67
Nsg68
Nsg69
Nsg70
Nsg71
Nsg72
VAngieDixiedogs
p1396
sg74
Nsg75
VAngie
p1397
sg77
Nsg78
Nsg79
I2366980167
sg80
Nsbag3
(g48
g5
Ntp1398
Rp1399
(dp1400
g10
Nsg52
Nsg53
Nsg54
Nsg55
Nsg56
Nsg36
Nsg57
Nsg58
Nsg59
Nsg60
Nsg61
Nsg62
Nsg63
Nsg64
Nsg65
Nsg66
Nsg67
Nsg68
Nsg69
Nsg70
Nsg71
Nsg72
VTRACIEPODGER
p1401
sg74
Nsg75
VTracie Podger
p1402
sg77
Nsg78
Nsg79
I167096565
sg80
Nsbag3
(g48
g5
Ntp1403
Rp1404
(dp1405
g10
Nsg52
Nsg53
Nsg54
Nsg55
Nsg56
Nsg36
Nsg57
Nsg58
Nsg59
Nsg60
Nsg61
Nsg62
Nsg63
Nsg64
Nsg65
Nsg66
Nsg67
Nsg68
Nsg69
Nsg70
Nsg71
Nsg72
VHope4Siblings
p1406
sg74
Nsg75
VNancy Kilgore, M.S.
p1407
sg77
Nsg78
Nsg79
I2347499112
sg80
Nsbag3
(g48
g5
Ntp1408
Rp1409
(dp1410
g10
Nsg52
Nsg53
Nsg54
Nsg55
Nsg56
Nsg36
Nsg57
Nsg58
Nsg59
Nsg60
Nsg61
Nsg62
Nsg63
Nsg64
Nsg65
Nsg66
Nsg67
Nsg68
Nsg69
Nsg70
Nsg71
Nsg72
VCherylTheG
p1411
sg74
Nsg75
VCheri Fisher-Goddess
p1412
sg77
Nsg78
Nsg79
I856563720
sg80
Nsbasg81
Nsg82
V543653995147825153
p1413
sg84
I543551125723820032
sg85
V@GentlemansHub @EvaLeNoirAuthor @BillBateman1 @FarmGirlLily @AngieDixiedogs @TRACIEPODGER @Hope4Siblings @CherylTheG \u2764\ufe0f
p1414
sg87
I00
sg88
Vund
p1415
sg90
g3
(g48
g5
Ntp1416
Rp1417
(dp1418
g10
VMelbourne, Victoria, Australia
p1419
sg52
V333333
p1420
sg53
Ven
p1421
sg54
VMelbourne
p1422
sg55
I1878
sg56
I3026
sg36
VTue Feb 12 10:11:30 +0000 2013
p1423
sg57
I00
sg58
VAmazon's bestselling author of the I SURRENDER TRILOGY and SOMETHING LIKE NORMAL series.
p1424
sg59
Vhttps://pbs.twimg.com/profile_images/542569473757028353/wbMflo8O_normal.jpeg
p1425
sg60
I1092
sg61
I2168
sg62
I39600
sg63
Nsg64
I00
sg65
Vhttps://pbs.twimg.com/profile_banners/1171510062/1402021145
p1426
sg66
I00
sg67
I00
sg68
V0084B4
p1427
sg69
I00
sg70
I00
sg71
Vhttp://abs.twimg.com/images/themes/theme1/bg.png
p1428
sg72
Vmonicajames81
p1429
sg74
I17
sg75
VMonica James
p1430
sg77
VDDEEF6
p1431
sg78
Nsg79
I1171510062
sg80
VC0DEED
p1432
sbsg109
I2
sg110
V<a href="http://twitter.com/download/iphone" rel="nofollow">Twitter for iPhone</a>
p1433
sg112
(lp1434
sg79
I543653995147825153
sbag3
(g4
g5
Ntp1435
Rp1436
(dp1437
g9
I0
sg10
Nsg11
Nsg12
(lp1438
g3
(g14
g5
Ntp1439
Rp1440
(dp1441
g18
Vff
p1442
sbag3
(g14
g5
Ntp1443
Rp1444
(dp1445
g18
VHubLove
p1446
sbasg20
I00
sg21
g3
(g4
g5
Ntp1447
Rp1448
(dp1449
g9
I4
sg10
Nsg11
Nsg12
(lp1450
g3
(g14
g5
Ntp1451
Rp1452
(dp1453
g18
Vff
p1454
sbag3
(g14
g5
Ntp1455
Rp1456
(dp1457
g18
VHubLove
p1458
sbasg20
I00
sg21
Nsg30
Nsg31
(lp1459
sg33
Nsg34
Nsg35
Nsg36
VFri Dec 12 23:41:01 +0000 2014
p1460
sg38
Nsg39
Nsg40
Nsg41
Nsg42
Nsg43
Nsg44
I00
sg45
Nsg46
(lp1461
g3
(g48
g5
Ntp1462
Rp1463
(dp1464
g10
Nsg52
Nsg53
Nsg54
Nsg55
Nsg56
Nsg36
Nsg57
Nsg58
Nsg59
Nsg60
Nsg61
Nsg62
Nsg63
Nsg64
Nsg65
Nsg66
Nsg67
Nsg68
Nsg69
Nsg70
Nsg71
Nsg72
VEvaLeNoirAuthor
p1465
sg74
Nsg75
VEva LeNoir
p1466
sg77
Nsg78
Nsg79
I999140503
sg80
Nsbag3
(g48
g5
Ntp1467
Rp1468
(dp1469
g10
Nsg52
Nsg53
Nsg54
Nsg55
Nsg56
Nsg36
Nsg57
Nsg58
Nsg59
Nsg60
Nsg61
Nsg62
Nsg63
Nsg64
Nsg65
Nsg66
Nsg67
Nsg68
Nsg69
Nsg70
Nsg71
Nsg72
VBillBateman1
p1470
sg74
Nsg75
VBill Bateman
p1471
sg77
Nsg78
Nsg79
I15203873
sg80
Nsbag3
(g48
g5
Ntp1472
Rp1473
(dp1474
g10
Nsg52
Nsg53
Nsg54
Nsg55
Nsg56
Nsg36
Nsg57
Nsg58
Nsg59
Nsg60
Nsg61
Nsg62
Nsg63
Nsg64
Nsg65
Nsg66
Nsg67
Nsg68
Nsg69
Nsg70
Nsg71
Nsg72
VFarmGirlLily
p1475
sg74
Nsg75
VCindy Lou
p1476
sg77
Nsg78
Nsg79
I338832849
sg80
Nsbag3
(g48
g5
Ntp1477
Rp1478
(dp1479
g10
Nsg52
Nsg53
Nsg54
Nsg55
Nsg56
Nsg36
Nsg57
Nsg58
Nsg59
Nsg60
Nsg61
Nsg62
Nsg63
Nsg64
Nsg65
Nsg66
Nsg67
Nsg68
Nsg69
Nsg70
Nsg71
Nsg72
VAngieDixiedogs
p1480
sg74
Nsg75
VAngie
p1481
sg77
Nsg78
Nsg79
I2366980167
sg80
Nsbag3
(g48
g5
Ntp1482
Rp1483
(dp1484
g10
Nsg52
Nsg53
Nsg54
Nsg55
Nsg56
Nsg36
Nsg57
Nsg58
Nsg59
Nsg60
Nsg61
Nsg62
Nsg63
Nsg64
Nsg65
Nsg66
Nsg67
Nsg68
Nsg69
Nsg70
Nsg71
Nsg72
VTRACIEPODGER
p1485
sg74
Nsg75
VTracie Podger
p1486
sg77
Nsg78
Nsg79
I167096565
sg80
Nsbag3
(g48
g5
Ntp1487
Rp1488
(dp1489
g10
Nsg52
Nsg53
Nsg54
Nsg55
Nsg56
Nsg36
Nsg57
Nsg58
Nsg59
Nsg60
Nsg61
Nsg62
Nsg63
Nsg64
Nsg65
Nsg66
Nsg67
Nsg68
Nsg69
Nsg70
Nsg71
Nsg72
VHope4Siblings
p1490
sg74
Nsg75
VNancy Kilgore, M.S.
p1491
sg77
Nsg78
Nsg79
I2347499112
sg80
Nsbag3
(g48
g5
Ntp1492
Rp1493
(dp1494
g10
Nsg52
Nsg53
Nsg54
Nsg55
Nsg56
Nsg36
Nsg57
Nsg58
Nsg59
Nsg60
Nsg61
Nsg62
Nsg63
Nsg64
Nsg65
Nsg66
Nsg67
Nsg68
Nsg69
Nsg70
Nsg71
Nsg72
Vmonicajames81
p1495
sg74
Nsg75
VMonica James
p1496
sg77
Nsg78
Nsg79
I1171510062
sg80
Nsbag3
(g48
g5
Ntp1497
Rp1498
(dp1499
g10
Nsg52
Nsg53
Nsg54
Nsg55
Nsg56
Nsg36
Nsg57
Nsg58
Nsg59
Nsg60
Nsg61
Nsg62
Nsg63
Nsg64
Nsg65
Nsg66
Nsg67
Nsg68
Nsg69
Nsg70
Nsg71
Nsg72
VCherylTheG
p1500
sg74
Nsg75
VCheri Fisher-Goddess
p1501
sg77
Nsg78
Nsg79
I856563720
sg80
Nsbasg81
Nsg82
V543551125723820032
p1502
sg84
Nsg85
V#ff  #HubLove  @EvaLeNoirAuthor @BillBateman1 @FarmGirlLily @AngieDixiedogs @TRACIEPODGER @Hope4Siblings @monicajames81 @CherylTheG
p1503
sg87
I00
sg88
Vund
p1504
sg90
g3
(g48
g5
Ntp1505
Rp1506
(dp1507
g10
VMalibu CA
p1508
sg52
V333333
p1509
sg53
Ven
p1510
sg54
VPacific Time (US & Canada)
p1511
sg55
I1641
sg56
I7657
sg36
VMon Jun 10 22:06:12 +0000 2013
p1512
sg57
I00
sg58
VA Gentleman's Affair, A Gentleman's Secret, A Gentleman's Memoir, Author AJLinn aka @FuckedUpFifty_ NEXT: A Gentleman's Fate - Spring 2015
p1513
sg59
Vhttps://pbs.twimg.com/profile_images/542486462088740864/Pfe9V66O_normal.png
p1514
sg60
I1306
sg61
I1129
sg62
I-28800
sg63
Nsg64
I00
sg65
Vhttps://pbs.twimg.com/profile_banners/1499542975/1370904643
p1515
sg66
I00
sg67
I00
sg68
V0084B4
p1516
sg69
I00
sg70
I00
sg71
Vhttp://abs.twimg.com/images/themes/theme1/bg.png
p1517
sg72
VGentlemansHub
p1518
sg74
I32
sg75
VThe Gentleman's Hub
p1519
sg77
VDDEEF6
p1520
sg78
Vhttp://t.co/37OVHSLukD
p1521
sg79
I1499542975
sg80
VC0DEED
p1522
sbsg109
I4
sg110
V<a href="https://market.android.com/details?id=com.msi.followhelper" rel="nofollow">Android Follow Friday Assistant</a>
p1523
sg112
(lp1524
sg79
I543551125723820032
sbsg30
Nsg31
(lp1525
sg33
Nsg34
Nsg35
Nsg36
VSat Dec 13 06:29:30 +0000 2014
p1526
sg38
Nsg39
Nsg40
Nsg41
Nsg42
Nsg43
Nsg44
I00
sg45
Nsg46
(lp1527
g3
(g48
g5
Ntp1528
Rp1529
(dp1530
g10
Nsg52
Nsg53
Nsg54
Nsg55
Nsg56
Nsg36
Nsg57
Nsg58
Nsg59
Nsg60
Nsg61
Nsg62
Nsg63
Nsg64
Nsg65
Nsg66
Nsg67
Nsg68
Nsg69
Nsg70
Nsg71
Nsg72
VGentlemansHub
p1531
sg74
Nsg75
VThe Gentleman's Hub
p1532
sg77
Nsg78
Nsg79
I1499542975
sg80
Nsbag3
(g48
g5
Ntp1533
Rp1534
(dp1535
g10
Nsg52
Nsg53
Nsg54
Nsg55
Nsg56
Nsg36
Nsg57
Nsg58
Nsg59
Nsg60
Nsg61
Nsg62
Nsg63
Nsg64
Nsg65
Nsg66
Nsg67
Nsg68
Nsg69
Nsg70
Nsg71
Nsg72
VEvaLeNoirAuthor
p1536
sg74
Nsg75
VEva LeNoir
p1537
sg77
Nsg78
Nsg79
I999140503
sg80
Nsbag3
(g48
g5
Ntp1538
Rp1539
(dp1540
g10
Nsg52
Nsg53
Nsg54
Nsg55
Nsg56
Nsg36
Nsg57
Nsg58
Nsg59
Nsg60
Nsg61
Nsg62
Nsg63
Nsg64
Nsg65
Nsg66
Nsg67
Nsg68
Nsg69
Nsg70
Nsg71
Nsg72
VBillBateman1
p1541
sg74
Nsg75
VBill Bateman
p1542
sg77
Nsg78
Nsg79
I15203873
sg80
Nsbag3
(g48
g5
Ntp1543
Rp1544
(dp1545
g10
Nsg52
Nsg53
Nsg54
Nsg55
Nsg56
Nsg36
Nsg57
Nsg58
Nsg59
Nsg60
Nsg61
Nsg62
Nsg63
Nsg64
Nsg65
Nsg66
Nsg67
Nsg68
Nsg69
Nsg70
Nsg71
Nsg72
VFarmGirlLily
p1546
sg74
Nsg75
VCindy Lou
p1547
sg77
Nsg78
Nsg79
I338832849
sg80
Nsbag3
(g48
g5
Ntp1548
Rp1549
(dp1550
g10
Nsg52
Nsg53
Nsg54
Nsg55
Nsg56
Nsg36
Nsg57
Nsg58
Nsg59
Nsg60
Nsg61
Nsg62
Nsg63
Nsg64
Nsg65
Nsg66
Nsg67
Nsg68
Nsg69
Nsg70
Nsg71
Nsg72
VAngieDixiedogs
p1551
sg74
Nsg75
VAngie
p1552
sg77
Nsg78
Nsg79
I2366980167
sg80
Nsbag3
(g48
g5
Ntp1553
Rp1554
(dp1555
g10
Nsg52
Nsg53
Nsg54
Nsg55
Nsg56
Nsg36
Nsg57
Nsg58
Nsg59
Nsg60
Nsg61
Nsg62
Nsg63
Nsg64
Nsg65
Nsg66
Nsg67
Nsg68
Nsg69
Nsg70
Nsg71
Nsg72
VTRACIEPODGER
p1556
sg74
Nsg75
VTracie Podger
p1557
sg77
Nsg78
Nsg79
I167096565
sg80
Nsbag3
(g48
g5
Ntp1558
Rp1559
(dp1560
g10
Nsg52
Nsg53
Nsg54
Nsg55
Nsg56
Nsg36
Nsg57
Nsg58
Nsg59
Nsg60
Nsg61
Nsg62
Nsg63
Nsg64
Nsg65
Nsg66
Nsg67
Nsg68
Nsg69
Nsg70
Nsg71
Nsg72
VHope4Siblings
p1561
sg74
Nsg75
VNancy Kilgore, M.S.
p1562
sg77
Nsg78
Nsg79
I2347499112
sg80
Nsbag3
(g48
g5
Ntp1563
Rp1564
(dp1565
g10
Nsg52
Nsg53
Nsg54
Nsg55
Nsg56
Nsg36
Nsg57
Nsg58
Nsg59
Nsg60
Nsg61
Nsg62
Nsg63
Nsg64
Nsg65
Nsg66
Nsg67
Nsg68
Nsg69
Nsg70
Nsg71
Nsg72
Vmonicajames81
p1566
sg74
Nsg75
VMonica James
p1567
sg77
Nsg78
Nsg79
I1171510062
sg80
Nsbag3
(g48
g5
Ntp1568
Rp1569
(dp1570
g10
Nsg52
Nsg53
Nsg54
Nsg55
Nsg56
Nsg36
Nsg57
Nsg58
Nsg59
Nsg60
Nsg61
Nsg62
Nsg63
Nsg64
Nsg65
Nsg66
Nsg67
Nsg68
Nsg69
Nsg70
Nsg71
Nsg72
VCherylTheG
p1571
sg74
Nsg75
VCheri Fisher-Goddess
p1572
sg77
Nsg78
Nsg79
I856563720
sg80
Nsbasg81
Nsg82
V543653921823023105
p1573
sg84
Nsg85
VRT @GentlemansHub: #ff  #HubLove  @EvaLeNoirAuthor @BillBateman1 @FarmGirlLily @AngieDixiedogs @TRACIEPODGER @Hope4Siblings @monicajames81 \u2026
p1574
sg87
I00
sg88
Vund
p1575
sg90
g3
(g48
g5
Ntp1576
Rp1577
(dp1578
g10
VMelbourne, Victoria, Australia
p1579
sg52
V333333
p1580
sg53
Ven
p1581
sg54
VMelbourne
p1582
sg55
I1878
sg56
I3026
sg36
VTue Feb 12 10:11:30 +0000 2013
p1583
sg57
I00
sg58
VAmazon's bestselling author of the I SURRENDER TRILOGY and SOMETHING LIKE NORMAL series.
p1584
sg59
Vhttps://pbs.twimg.com/profile_images/542569473757028353/wbMflo8O_normal.jpeg
p1585
sg60
I1092
sg61
I2168
sg62
I39600
sg63
Nsg64
I00
sg65
Vhttps://pbs.twimg.com/profile_banners/1171510062/1402021145
p1586
sg66
I00
sg67
I00
sg68
V0084B4
p1587
sg69
I00
sg70
I00
sg71
Vhttp://abs.twimg.com/images/themes/theme1/bg.png
p1588
sg72
Vmonicajames81
p1589
sg74
I17
sg75
VMonica James
p1590
sg77
VDDEEF6
p1591
sg78
Nsg79
I1171510062
sg80
VC0DEED
p1592
sbsg109
I4
sg110
V<a href="http://twitter.com/download/iphone" rel="nofollow">Twitter for iPhone</a>
p1593
sg112
(lp1594
sg79
I543653921823023105
sbag3
(g4
g5
Ntp1595
Rp1596
(dp1597
g9
I0
sg10
Nsg11
Nsg12
(lp1598
g3
(g14
g5
Ntp1599
Rp1600
(dp1601
g18
VGIVEAWAY
p1602
sbasg20
I00
sg21
g3
(g4
g5
Ntp1603
Rp1604
(dp1605
g9
I1
sg10
Nsg11
Nsg12
(lp1606
g3
(g14
g5
Ntp1607
Rp1608
(dp1609
g18
VGIVEAWAY
p1610
sbasg20
I00
sg21
Nsg30
Nsg31
(lp1611
(dp1612
Vsource_user_id
p1613
I1193097445
sVsource_status_id_str
p1614
V542637443892400128
p1615
sVexpanded_url
p1616
Vhttp://twitter.com/Laday2727/status/542637443892400128/photo/1
p1617
sVdisplay_url
p1618
Vpic.twitter.com/oWu1BZiRQs
p1619
sVurl
p1620
Vhttp://t.co/oWu1BZiRQs
p1621
sVmedia_url_https
p1622
Vhttps://pbs.twimg.com/media/B4fV4TWCcAAdKQx.png
p1623
sVsource_user_id_str
p1624
V1193097445
p1625
sVsource_status_id
p1626
I542637443892400128
sVid_str
p1627
V542637443363532800
p1628
sVsizes
p1629
(dp1630
Vsmall
p1631
(dp1632
Vh
p1633
I540
sVresize
p1634
Vfit
p1635
sVw
p1636
I340
ssVlarge
p1637
(dp1638
Vh
p1639
I800
sVresize
p1640
Vfit
p1641
sVw
p1642
I502
ssVmedium
p1643
(dp1644
Vh
p1645
I800
sVresize
p1646
Vfit
p1647
sVw
p1648
I502
ssVthumb
p1649
(dp1650
Vh
p1651
I150
sVresize
p1652
Vcrop
p1653
sVw
p1654
I150
sssVindices
p1655
(lp1656
I116
aI138
asVtype
p1657
Vphoto
p1658
sVid
p1659
I542637443363532800
sVmedia_url
p1660
Vhttp://pbs.twimg.com/media/B4fV4TWCcAAdKQx.png
p1661
sasg33
Nsg34
Nsg35
Nsg36
VFri Dec 12 21:39:28 +0000 2014
p1662
sg38
Nsg39
I00
sg40
Nsg41
Nsg42
Nsg43
Nsg44
I00
sg45
Nsg46
(lp1663
g3
(g48
g5
Ntp1664
Rp1665
(dp1666
g10
Nsg52
Nsg53
Nsg54
Nsg55
Nsg56
Nsg36
Nsg57
Nsg58
Nsg59
Nsg60
Nsg61
Nsg62
Nsg63
Nsg64
Nsg65
Nsg66
Nsg67
Nsg68
Nsg69
Nsg70
Nsg71
Nsg72
VMommysBookup
p1667
sg74
Nsg75
VMommys Bookup
p1668
sg77
Nsg78
Nsg79
I1608186158
sg80
Nsbag3
(g48
g5
Ntp1669
Rp1670
(dp1671
g10
Nsg52
Nsg53
Nsg54
Nsg55
Nsg56
Nsg36
Nsg57
Nsg58
Nsg59
Nsg60
Nsg61
Nsg62
Nsg63
Nsg64
Nsg65
Nsg66
Nsg67
Nsg68
Nsg69
Nsg70
Nsg71
Nsg72
Vmonicajames81
p1672
sg74
Nsg75
VMonica James
p1673
sg77
Nsg78
Nsg79
I1171510062
sg80
Nsbasg81
Nsg82
V543520535221907456
p1674
sg84
Nsg85
VSomething Like Love by Monica James #GIVEAWAY Romantic Suspense @MommysBookup @monicajames81 http://t.co/HwnlDqdXOi http://t.co/oWu1BZiRQs
p1675
sg87
I00
sg88
Ven
p1676
sg90
g3
(g48
g5
Ntp1677
Rp1678
(dp1679
g10
VOhio
p1680
sg52
V333333
p1681
sg53
Ven
p1682
sg54
VEastern Time (US & Canada)
p1683
sg55
I1087
sg56
I20487
sg36
VMon Feb 18 12:54:20 +0000 2013
p1684
sg57
I00
sg58
V\u2665 FREEBIES & GIVEAWAYS of all things romance \u2665
p1685
sg59
Vhttps://pbs.twimg.com/profile_images/511236290755305472/t5outDFT_normal.png
p1686
sg60
I1998
sg61
I117
sg62
I-18000
sg63
Nsg64
I00
sg65
Vhttps://pbs.twimg.com/profile_banners/1193097445/1410723280
p1687
sg66
I00
sg67
I01
sg68
V700000
p1688
sg69
I01
sg70
I00
sg71
Vhttp://pbs.twimg.com/profile_background_images/488029561611767808/OO7jPLS1.png
p1689
sg72
VLaday2727
p1690
sg74
I10
sg75
VRomanceNovelGiveaway
p1691
sg77
VDDEEF6
p1692
sg78
Vhttp://t.co/Mqzl5rL7PL
p1693
sg79
I1193097445
sg80
V0F0F0F
p1694
sbsg109
I1
sg110
V<a href="http://www.socialoomph.com" rel="nofollow">SocialOomph</a>
p1695
sg112
(lp1696
g3
(g114
g5
Ntp1697
Rp1698
(dp1699
g118
Vhttp://t.co/HwnlDqdXOi
p1700
sg120
Vhttp://goo.gl/GsqnAk
p1701
sbasg79
I543520535221907456
sbsg30
Nsg31
(lp1702
(dp1703
Vsource_user_id
p1704
I1193097445
sVsource_status_id_str
p1705
V542637443892400128
p1706
sVexpanded_url
p1707
Vhttp://twitter.com/Laday2727/status/542637443892400128/photo/1
p1708
sVdisplay_url
p1709
Vpic.twitter.com/oWu1BZiRQs
p1710
sVurl
p1711
Vhttp://t.co/oWu1BZiRQs
p1712
sVmedia_url_https
p1713
Vhttps://pbs.twimg.com/media/B4fV4TWCcAAdKQx.png
p1714
sVsource_user_id_str
p1715
V1193097445
p1716
sVsource_status_id
p1717
I542637443892400128
sVid_str
p1718
V542637443363532800
p1719
sVsizes
p1720
(dp1721
Vsmall
p1722
(dp1723
Vh
p1724
I540
sVresize
p1725
Vfit
p1726
sVw
p1727
I340
ssVlarge
p1728
(dp1729
Vh
p1730
I800
sVresize
p1731
Vfit
p1732
sVw
p1733
I502
ssVmedium
p1734
(dp1735
Vh
p1736
I800
sVresize
p1737
Vfit
p1738
sVw
p1739
I502
ssVthumb
p1740
(dp1741
Vh
p1742
I150
sVresize
p1743
Vcrop
p1744
sVw
p1745
I150
sssVindices
p1746
(lp1747
I139
aI140
asVtype
p1748
Vphoto
p1749
sVid
p1750
I542637443363532800
sVmedia_url
p1751
Vhttp://pbs.twimg.com/media/B4fV4TWCcAAdKQx.png
p1752
sasg33
Nsg34
Nsg35
Nsg36
VSat Dec 13 06:29:23 +0000 2014
p1753
sg38
Nsg39
I00
sg40
Nsg41
Nsg42
Nsg43
Nsg44
I00
sg45
Nsg46
(lp1754
g3
(g48
g5
Ntp1755
Rp1756
(dp1757
g10
Nsg52
Nsg53
Nsg54
Nsg55
Nsg56
Nsg36
Nsg57
Nsg58
Nsg59
Nsg60
Nsg61
Nsg62
Nsg63
Nsg64
Nsg65
Nsg66
Nsg67
Nsg68
Nsg69
Nsg70
Nsg71
Nsg72
VLaday2727
p1758
sg74
Nsg75
VRomanceNovelGiveaway
p1759
sg77
Nsg78
Nsg79
I1193097445
sg80
Nsbag3
(g48
g5
Ntp1760
Rp1761
(dp1762
g10
Nsg52
Nsg53
Nsg54
Nsg55
Nsg56
Nsg36
Nsg57
Nsg58
Nsg59
Nsg60
Nsg61
Nsg62
Nsg63
Nsg64
Nsg65
Nsg66
Nsg67
Nsg68
Nsg69
Nsg70
Nsg71
Nsg72
VMommysBookup
p1763
sg74
Nsg75
VMommys Bookup
p1764
sg77
Nsg78
Nsg79
I1608186158
sg80
Nsbag3
(g48
g5
Ntp1765
Rp1766
(dp1767
g10
Nsg52
Nsg53
Nsg54
Nsg55
Nsg56
Nsg36
Nsg57
Nsg58
Nsg59
Nsg60
Nsg61
Nsg62
Nsg63
Nsg64
Nsg65
Nsg66
Nsg67
Nsg68
Nsg69
Nsg70
Nsg71
Nsg72
Vmonicajames81
p1768
sg74
Nsg75
VMonica James
p1769
sg77
Nsg78
Nsg79
I1171510062
sg80
Nsbasg81
Nsg82
V543653891699515393
p1770
sg84
Nsg85
VRT @Laday2727: Something Like Love by Monica James #GIVEAWAY Romantic Suspense @MommysBookup @monicajames81 http://t.co/HwnlDqdXOi http://t\u2026
p1771
sg87
I00
sg88
Ven
p1772
sg90
g3
(g48
g5
Ntp1773
Rp1774
(dp1775
g10
VMelbourne, Victoria, Australia
p1776
sg52
V333333
p1777
sg53
Ven
p1778
sg54
VMelbourne
p1779
sg55
I1878
sg56
I3026
sg36
VTue Feb 12 10:11:30 +0000 2013
p1780
sg57
I00
sg58
VAmazon's bestselling author of the I SURRENDER TRILOGY and SOMETHING LIKE NORMAL series.
p1781
sg59
Vhttps://pbs.twimg.com/profile_images/542569473757028353/wbMflo8O_normal.jpeg
p1782
sg60
I1092
sg61
I2168
sg62
I39600
sg63
Nsg64
I00
sg65
Vhttps://pbs.twimg.com/profile_banners/1171510062/1402021145
p1783
sg66
I00
sg67
I00
sg68
V0084B4
p1784
sg69
I00
sg70
I00
sg71
Vhttp://abs.twimg.com/images/themes/theme1/bg.png
p1785
sg72
Vmonicajames81
p1786
sg74
I17
sg75
VMonica James
p1787
sg77
VDDEEF6
p1788
sg78
Nsg79
I1171510062
sg80
VC0DEED
p1789
sbsg109
I1
sg110
V<a href="http://twitter.com/download/iphone" rel="nofollow">Twitter for iPhone</a>
p1790
sg112
(lp1791
g3
(g114
g5
Ntp1792
Rp1793
(dp1794
g118
Vhttp://t.co/HwnlDqdXOi
p1795
sg120
Vhttp://goo.gl/GsqnAk
p1796
sbasg79
I543653891699515393
sbag3
(g4
g5
Ntp1797
Rp1798
(dp1799
g9
I0
sg10
Nsg11
Nsg12
(lp1800
g3
(g14
g5
Ntp1801
Rp1802
(dp1803
g18
VGIVEAWAY
p1804
sbasg20
I00
sg21
g3
(g4
g5
Ntp1805
Rp1806
(dp1807
g9
I1
sg10
Nsg11
Nsg12
(lp1808
g3
(g14
g5
Ntp1809
Rp1810
(dp1811
g18
VGIVEAWAY
p1812
sbasg20
I00
sg21
Nsg30
Nsg31
(lp1813
(dp1814
Vsource_user_id
p1815
I1193097445
sVsource_status_id_str
p1816
V542637443892400128
p1817
sVexpanded_url
p1818
Vhttp://twitter.com/Laday2727/status/542637443892400128/photo/1
p1819
sVdisplay_url
p1820
Vpic.twitter.com/oWu1BZiRQs
p1821
sVurl
p1822
Vhttp://t.co/oWu1BZiRQs
p1823
sVmedia_url_https
p1824
Vhttps://pbs.twimg.com/media/B4fV4TWCcAAdKQx.png
p1825
sVsource_user_id_str
p1826
V1193097445
p1827
sVsource_status_id
p1828
I542637443892400128
sVid_str
p1829
V542637443363532800
p1830
sVsizes
p1831
(dp1832
Vsmall
p1833
(dp1834
Vh
p1835
I540
sVresize
p1836
Vfit
p1837
sVw
p1838
I340
ssVlarge
p1839
(dp1840
Vh
p1841
I800
sVresize
p1842
Vfit
p1843
sVw
p1844
I502
ssVmedium
p1845
(dp1846
Vh
p1847
I800
sVresize
p1848
Vfit
p1849
sVw
p1850
I502
ssVthumb
p1851
(dp1852
Vh
p1853
I150
sVresize
p1854
Vcrop
p1855
sVw
p1856
I150
sssVindices
p1857
(lp1858
I116
aI138
asVtype
p1859
Vphoto
p1860
sVid
p1861
I542637443363532800
sVmedia_url
p1862
Vhttp://pbs.twimg.com/media/B4fV4TWCcAAdKQx.png
p1863
sasg33
Nsg34
Nsg35
Nsg36
VFri Dec 12 12:39:17 +0000 2014
p1864
sg38
Nsg39
I00
sg40
Nsg41
Nsg42
Nsg43
Nsg44
I00
sg45
Nsg46
(lp1865
g3
(g48
g5
Ntp1866
Rp1867
(dp1868
g10
Nsg52
Nsg53
Nsg54
Nsg55
Nsg56
Nsg36
Nsg57
Nsg58
Nsg59
Nsg60
Nsg61
Nsg62
Nsg63
Nsg64
Nsg65
Nsg66
Nsg67
Nsg68
Nsg69
Nsg70
Nsg71
Nsg72
VMommysBookup
p1869
sg74
Nsg75
VMommys Bookup
p1870
sg77
Nsg78
Nsg79
I1608186158
sg80
Nsbag3
(g48
g5
Ntp1871
Rp1872
(dp1873
g10
Nsg52
Nsg53
Nsg54
Nsg55
Nsg56
Nsg36
Nsg57
Nsg58
Nsg59
Nsg60
Nsg61
Nsg62
Nsg63
Nsg64
Nsg65
Nsg66
Nsg67
Nsg68
Nsg69
Nsg70
Nsg71
Nsg72
Vmonicajames81
p1874
sg74
Nsg75
VMonica James
p1875
sg77
Nsg78
Nsg79
I1171510062
sg80
Nsbasg81
Nsg82
V543384594515386368
p1876
sg84
Nsg85
VSomething Like Love by Monica James #GIVEAWAY Romantic Suspense @MommysBookup @monicajames81 http://t.co/FYeCt5kFct http://t.co/oWu1BZiRQs
p1877
sg87
I00
sg88
Ven
p1878
sg90
g3
(g48
g5
Ntp1879
Rp1880
(dp1881
g10
VOhio
p1882
sg52
V333333
p1883
sg53
Ven
p1884
sg54
VEastern Time (US & Canada)
p1885
sg55
I1087
sg56
I20487
sg36
VMon Feb 18 12:54:20 +0000 2013
p1886
sg57
I00
sg58
V\u2665 FREEBIES & GIVEAWAYS of all things romance \u2665
p1887
sg59
Vhttps://pbs.twimg.com/profile_images/511236290755305472/t5outDFT_normal.png
p1888
sg60
I1998
sg61
I117
sg62
I-18000
sg63
Nsg64
I00
sg65
Vhttps://pbs.twimg.com/profile_banners/1193097445/1410723280
p1889
sg66
I00
sg67
I01
sg68
V700000
p1890
sg69
I01
sg70
I00
sg71
Vhttp://pbs.twimg.com/profile_background_images/488029561611767808/OO7jPLS1.png
p1891
sg72
VLaday2727
p1892
sg74
I10
sg75
VRomanceNovelGiveaway
p1893
sg77
VDDEEF6
p1894
sg78
Vhttp://t.co/Mqzl5rL7PL
p1895
sg79
I1193097445
sg80
V0F0F0F
p1896
sbsg109
I1
sg110
V<a href="https://dev.twitter.com/docs/tfw" rel="nofollow">Twitter for Websites</a>
p1897
sg112
(lp1898
g3
(g114
g5
Ntp1899
Rp1900
(dp1901
g118
Vhttp://t.co/FYeCt5kFct
p1902
sg120
Vhttp://goo.gl/GsqnAk
p1903
sbasg79
I543384594515386368
sbsg30
Nsg31
(lp1904
(dp1905
Vsource_user_id
p1906
I1193097445
sVsource_status_id_str
p1907
V542637443892400128
p1908
sVexpanded_url
p1909
Vhttp://twitter.com/Laday2727/status/542637443892400128/photo/1
p1910
sVdisplay_url
p1911
Vpic.twitter.com/oWu1BZiRQs
p1912
sVurl
p1913
Vhttp://t.co/oWu1BZiRQs
p1914
sVmedia_url_https
p1915
Vhttps://pbs.twimg.com/media/B4fV4TWCcAAdKQx.png
p1916
sVsource_user_id_str
p1917
V1193097445
p1918
sVsource_status_id
p1919
I542637443892400128
sVid_str
p1920
V542637443363532800
p1921
sVsizes
p1922
(dp1923
Vsmall
p1924
(dp1925
Vh
p1926
I540
sVresize
p1927
Vfit
p1928
sVw
p1929
I340
ssVlarge
p1930
(dp1931
Vh
p1932
I800
sVresize
p1933
Vfit
p1934
sVw
p1935
I502
ssVmedium
p1936
(dp1937
Vh
p1938
I800
sVresize
p1939
Vfit
p1940
sVw
p1941
I502
ssVthumb
p1942
(dp1943
Vh
p1944
I150
sVresize
p1945
Vcrop
p1946
sVw
p1947
I150
sssVindices
p1948
(lp1949
I139
aI140
asVtype
p1950
Vphoto
p1951
sVid
p1952
I542637443363532800
sVmedia_url
p1953
Vhttp://pbs.twimg.com/media/B4fV4TWCcAAdKQx.png
p1954
sasg33
Nsg34
Nsg35
Nsg36
VFri Dec 12 13:06:50 +0000 2014
p1955
sg38
Nsg39
I00
sg40
Nsg41
Nsg42
Nsg43
Nsg44
I00
sg45
Nsg46
(lp1956
g3
(g48
g5
Ntp1957
Rp1958
(dp1959
g10
Nsg52
Nsg53
Nsg54
Nsg55
Nsg56
Nsg36
Nsg57
Nsg58
Nsg59
Nsg60
Nsg61
Nsg62
Nsg63
Nsg64
Nsg65
Nsg66
Nsg67
Nsg68
Nsg69
Nsg70
Nsg71
Nsg72
VLaday2727
p1960
sg74
Nsg75
VRomanceNovelGiveaway
p1961
sg77
Nsg78
Nsg79
I1193097445
sg80
Nsbag3
(g48
g5
Ntp1962
Rp1963
(dp1964
g10
Nsg52
Nsg53
Nsg54
Nsg55
Nsg56
Nsg36
Nsg57
Nsg58
Nsg59
Nsg60
Nsg61
Nsg62
Nsg63
Nsg64
Nsg65
Nsg66
Nsg67
Nsg68
Nsg69
Nsg70
Nsg71
Nsg72
VMommysBookup
p1965
sg74
Nsg75
VMommys Bookup
p1966
sg77
Nsg78
Nsg79
I1608186158
sg80
Nsbag3
(g48
g5
Ntp1967
Rp1968
(dp1969
g10
Nsg52
Nsg53
Nsg54
Nsg55
Nsg56
Nsg36
Nsg57
Nsg58
Nsg59
Nsg60
Nsg61
Nsg62
Nsg63
Nsg64
Nsg65
Nsg66
Nsg67
Nsg68
Nsg69
Nsg70
Nsg71
Nsg72
Vmonicajames81
p1970
sg74
Nsg75
VMonica James
p1971
sg77
Nsg78
Nsg79
I1171510062
sg80
Nsbasg81
Nsg82
V543391525900546048
p1972
sg84
Nsg85
VRT @Laday2727: Something Like Love by Monica James #GIVEAWAY Romantic Suspense @MommysBookup @monicajames81 http://t.co/FYeCt5kFct http://t\u2026
p1973
sg87
I00
sg88
Ven
p1974
sg90
g3
(g48
g5
Ntp1975
Rp1976
(dp1977
g10
VMelbourne, Victoria, Australia
p1978
sg52
V333333
p1979
sg53
Ven
p1980
sg54
VMelbourne
p1981
sg55
I1878
sg56
I3026
sg36
VTue Feb 12 10:11:30 +0000 2013
p1982
sg57
I00
sg58
VAmazon's bestselling author of the I SURRENDER TRILOGY and SOMETHING LIKE NORMAL series.
p1983
sg59
Vhttps://pbs.twimg.com/profile_images/542569473757028353/wbMflo8O_normal.jpeg
p1984
sg60
I1092
sg61
I2168
sg62
I39600
sg63
Nsg64
I00
sg65
Vhttps://pbs.twimg.com/profile_banners/1171510062/1402021145
p1985
sg66
I00
sg67
I00
sg68
V0084B4
p1986
sg69
I00
sg70
I00
sg71
Vhttp://abs.twimg.com/images/themes/theme1/bg.png
p1987
sg72
Vmonicajames81
p1988
sg74
I17
sg75
VMonica James
p1989
sg77
VDDEEF6
p1990
sg78
Nsg79
I1171510062
sg80
VC0DEED
p1991
sbsg109
I1
sg110
V<a href="http://twitter.com/download/iphone" rel="nofollow">Twitter for iPhone</a>
p1992
sg112
(lp1993
g3
(g114
g5
Ntp1994
Rp1995
(dp1996
g118
Vhttp://t.co/FYeCt5kFct
p1997
sg120
Vhttp://goo.gl/GsqnAk
p1998
sbasg79
I543391525900546048
sbag3
(g4
g5
Ntp1999
Rp2000
(dp2001
g9
I0
sg10
Nsg11
Nsg12
(lp2002
sg20
I00
sg21
Nsg30
Nsg31
(lp2003
(dp2004
Vexpanded_url
p2005
Vhttp://twitter.com/monicajames81/status/543352944951717888/photo/1
p2006
sVdisplay_url
p2007
Vpic.twitter.com/ToJgJjee1V
p2008
sVurl
p2009
Vhttp://t.co/ToJgJjee1V
p2010
sVmedia_url_https
p2011
Vhttps://pbs.twimg.com/media/B4pgn4ZCcAAe5GG.jpg
p2012
sVid_str
p2013
V543352943320133632
p2014
sVsizes
p2015
(dp2016
Vsmall
p2017
(dp2018
Vh
p2019
I256
sVresize
p2020
Vfit
p2021
sVw
p2022
I340
ssVlarge
p2023
(dp2024
Vh
p2025
I772
sVresize
p2026
Vfit
p2027
sVw
p2028
I1024
ssVmedium
p2029
(dp2030
Vh
p2031
I452
sVresize
p2032
Vfit
p2033
sVw
p2034
I600
ssVthumb
p2035
(dp2036
Vh
p2037
I150
sVresize
p2038
Vcrop
p2039
sVw
p2040
I150
sssVindices
p2041
(lp2042
I110
aI132
asVtype
p2043
Vphoto
p2044
sVid
p2045
I543352943320133632
sVmedia_url
p2046
Vhttp://pbs.twimg.com/media/B4pgn4ZCcAAe5GG.jpg
p2047
sasg33
Nsg34
Nsg35
Nsg36
VFri Dec 12 10:33:31 +0000 2014
p2048
sg38
Nsg39
I00
sg40
Nsg41
Nsg42
Nsg43
Nsg44
I00
sg45
Nsg46
(lp2049
sg81
Nsg82
V543352944951717888
p2050
sg84
Nsg85
VSurrender to Me is on sale for a limited time only!!! $0.99!!\u000a\u000aGrab your copy today!!\u000a\u000ahttp://t.co/lsSV1bbCUS http://t.co/ToJgJjee1V
p2051
sg87
I00
sg88
Ven
p2052
sg90
g3
(g48
g5
Ntp2053
Rp2054
(dp2055
g10
VMelbourne, Victoria, Australia
p2056
sg52
V333333
p2057
sg53
Ven
p2058
sg54
VMelbourne
p2059
sg55
I1878
sg56
I3026
sg36
VTue Feb 12 10:11:30 +0000 2013
p2060
sg57
I00
sg58
VAmazon's bestselling author of the I SURRENDER TRILOGY and SOMETHING LIKE NORMAL series.
p2061
sg59
Vhttps://pbs.twimg.com/profile_images/542569473757028353/wbMflo8O_normal.jpeg
p2062
sg60
I1092
sg61
I2168
sg62
I39600
sg63
Nsg64
I00
sg65
Vhttps://pbs.twimg.com/profile_banners/1171510062/1402021145
p2063
sg66
I00
sg67
I00
sg68
V0084B4
p2064
sg69
I00
sg70
I00
sg71
Vhttp://abs.twimg.com/images/themes/theme1/bg.png
p2065
sg72
Vmonicajames81
p2066
sg74
I17
sg75
VMonica James
p2067
sg77
VDDEEF6
p2068
sg78
Nsg79
I1171510062
sg80
VC0DEED
p2069
sbsg109
I0
sg110
V<a href="http://twitter.com" rel="nofollow">Twitter Web Client</a>
p2070
sg112
(lp2071
g3
(g114
g5
Ntp2072
Rp2073
(dp2074
g118
Vhttp://t.co/lsSV1bbCUS
p2075
sg120
Vhttp://tinyurl.com/lx5ym7e
p2076
sbasg79
I543352944951717888
sbag3
(g4
g5
Ntp2077
Rp2078
(dp2079
g9
I0
sg10
Nsg11
Nsg12
(lp2080
sg20
I00
sg21
Nsg30
Nsg31
(lp2081
sg33
Nsg34
Nsg35
Nsg36
VFri Dec 12 10:31:23 +0000 2014
p2082
sg38
Nsg39
I00
sg40
Nsg41
Nsg42
Nsg43
Nsg44
I00
sg45
Nsg46
(lp2083
sg81
Nsg82
V543352406860648448
p2084
sg84
Nsg85
V5 of 5 stars to Surrender to Me by Monica  James https://t.co/pUAat9aoyA
p2085
sg87
I00
sg88
Ven
p2086
sg90
g3
(g48
g5
Ntp2087
Rp2088
(dp2089
g10
VMelbourne, Victoria, Australia
p2090
sg52
V333333
p2091
sg53
Ven
p2092
sg54
VMelbourne
p2093
sg55
I1878
sg56
I3026
sg36
VTue Feb 12 10:11:30 +0000 2013
p2094
sg57
I00
sg58
VAmazon's bestselling author of the I SURRENDER TRILOGY and SOMETHING LIKE NORMAL series.
p2095
sg59
Vhttps://pbs.twimg.com/profile_images/542569473757028353/wbMflo8O_normal.jpeg
p2096
sg60
I1092
sg61
I2168
sg62
I39600
sg63
Nsg64
I00
sg65
Vhttps://pbs.twimg.com/profile_banners/1171510062/1402021145
p2097
sg66
I00
sg67
I00
sg68
V0084B4
p2098
sg69
I00
sg70
I00
sg71
Vhttp://abs.twimg.com/images/themes/theme1/bg.png
p2099
sg72
Vmonicajames81
p2100
sg74
I17
sg75
VMonica James
p2101
sg77
VDDEEF6
p2102
sg78
Nsg79
I1171510062
sg80
VC0DEED
p2103
sbsg109
I0
sg110
V<a href="http://www.goodreads.com" rel="nofollow">Goodreads</a>
p2104
sg112
(lp2105
g3
(g114
g5
Ntp2106
Rp2107
(dp2108
g118
Vhttps://t.co/pUAat9aoyA
p2109
sg120
Vhttps://www.goodreads.com/review/show/700786275
p2110
sbasg79
I543352406860648448
sbag3
(g4
g5
Ntp2111
Rp2112
(dp2113
g9
I0
sg10
Nsg11
Nsg12
(lp2114
g3
(g14
g5
Ntp2115
Rp2116
(dp2117
g18
VGIVEAWAY
p2118
sbasg20
I00
sg21
g3
(g4
g5
Ntp2119
Rp2120
(dp2121
g9
I2
sg10
Nsg11
Nsg12
(lp2122
g3
(g14
g5
Ntp2123
Rp2124
(dp2125
g18
VGIVEAWAY
p2126
sbasg20
I00
sg21
Nsg30
Nsg31
(lp2127
(dp2128
Vsource_user_id
p2129
I1193097445
sVsource_status_id_str
p2130
V542637443892400128
p2131
sVexpanded_url
p2132
Vhttp://twitter.com/Laday2727/status/542637443892400128/photo/1
p2133
sVdisplay_url
p2134
Vpic.twitter.com/oWu1BZiRQs
p2135
sVurl
p2136
Vhttp://t.co/oWu1BZiRQs
p2137
sVmedia_url_https
p2138
Vhttps://pbs.twimg.com/media/B4fV4TWCcAAdKQx.png
p2139
sVsource_user_id_str
p2140
V1193097445
p2141
sVsource_status_id
p2142
I542637443892400128
sVid_str
p2143
V542637443363532800
p2144
sVsizes
p2145
(dp2146
Vsmall
p2147
(dp2148
Vh
p2149
I540
sVresize
p2150
Vfit
p2151
sVw
p2152
I340
ssVlarge
p2153
(dp2154
Vh
p2155
I800
sVresize
p2156
Vfit
p2157
sVw
p2158
I502
ssVmedium
p2159
(dp2160
Vh
p2161
I800
sVresize
p2162
Vfit
p2163
sVw
p2164
I502
ssVthumb
p2165
(dp2166
Vh
p2167
I150
sVresize
p2168
Vcrop
p2169
sVw
p2170
I150
sssVindices
p2171
(lp2172
I116
aI138
asVtype
p2173
Vphoto
p2174
sVid
p2175
I542637443363532800
sVmedia_url
p2176
Vhttp://pbs.twimg.com/media/B4fV4TWCcAAdKQx.png
p2177
sasg33
Nsg34
Nsg35
Nsg36
VThu Dec 11 18:34:25 +0000 2014
p2178
sg38
Nsg39
I00
sg40
Nsg41
Nsg42
Nsg43
Nsg44
I00
sg45
Nsg46
(lp2179
g3
(g48
g5
Ntp2180
Rp2181
(dp2182
g10
Nsg52
Nsg53
Nsg54
Nsg55
Nsg56
Nsg36
Nsg57
Nsg58
Nsg59
Nsg60
Nsg61
Nsg62
Nsg63
Nsg64
Nsg65
Nsg66
Nsg67
Nsg68
Nsg69
Nsg70
Nsg71
Nsg72
VMommysBookup
p2183
sg74
Nsg75
VMommys Bookup
p2184
sg77
Nsg78
Nsg79
I1608186158
sg80
Nsbag3
(g48
g5
Ntp2185
Rp2186
(dp2187
g10
Nsg52
Nsg53
Nsg54
Nsg55
Nsg56
Nsg36
Nsg57
Nsg58
Nsg59
Nsg60
Nsg61
Nsg62
Nsg63
Nsg64
Nsg65
Nsg66
Nsg67
Nsg68
Nsg69
Nsg70
Nsg71
Nsg72
Vmonicajames81
p2188
sg74
Nsg75
VMonica James
p2189
sg77
Nsg78
Nsg79
I1171510062
sg80
Nsbasg81
Nsg82
V543111578359697408
p2190
sg84
Nsg85
VSomething Like Love by Monica James #GIVEAWAY Romantic Suspense @MommysBookup @monicajames81 http://t.co/HwnlDqdXOi http://t.co/oWu1BZiRQs
p2191
sg87
I00
sg88
Ven
p2192
sg90
g3
(g48
g5
Ntp2193
Rp2194
(dp2195
g10
VOhio
p2196
sg52
V333333
p2197
sg53
Ven
p2198
sg54
VEastern Time (US & Canada)
p2199
sg55
I1087
sg56
I20487
sg36
VMon Feb 18 12:54:20 +0000 2013
p2200
sg57
I00
sg58
V\u2665 FREEBIES & GIVEAWAYS of all things romance \u2665
p2201
sg59
Vhttps://pbs.twimg.com/profile_images/511236290755305472/t5outDFT_normal.png
p2202
sg60
I1998
sg61
I117
sg62
I-18000
sg63
Nsg64
I00
sg65
Vhttps://pbs.twimg.com/profile_banners/1193097445/1410723280
p2203
sg66
I00
sg67
I01
sg68
V700000
p2204
sg69
I01
sg70
I00
sg71
Vhttp://pbs.twimg.com/profile_background_images/488029561611767808/OO7jPLS1.png
p2205
sg72
VLaday2727
p2206
sg74
I10
sg75
VRomanceNovelGiveaway
p2207
sg77
VDDEEF6
p2208
sg78
Vhttp://t.co/Mqzl5rL7PL
p2209
sg79
I1193097445
sg80
V0F0F0F
p2210
sbsg109
I1
sg110
V<a href="http://www.socialoomph.com" rel="nofollow">SocialOomph</a>
p2211
sg112
(lp2212
g3
(g114
g5
Ntp2213
Rp2214
(dp2215
g118
Vhttp://t.co/HwnlDqdXOi
p2216
sg120
Vhttp://goo.gl/GsqnAk
p2217
sbasg79
I543111578359697408
sbsg30
Nsg31
(lp2218
(dp2219
Vsource_user_id
p2220
I1193097445
sVsource_status_id_str
p2221
V542637443892400128
p2222
sVexpanded_url
p2223
Vhttp://twitter.com/Laday2727/status/542637443892400128/photo/1
p2224
sVdisplay_url
p2225
Vpic.twitter.com/oWu1BZiRQs
p2226
sVurl
p2227
Vhttp://t.co/oWu1BZiRQs
p2228
sVmedia_url_https
p2229
Vhttps://pbs.twimg.com/media/B4fV4TWCcAAdKQx.png
p2230
sVsource_user_id_str
p2231
V1193097445
p2232
sVsource_status_id
p2233
I542637443892400128
sVid_str
p2234
V542637443363532800
p2235
sVsizes
p2236
(dp2237
Vsmall
p2238
(dp2239
Vh
p2240
I540
sVresize
p2241
Vfit
p2242
sVw
p2243
I340
ssVlarge
p2244
(dp2245
Vh
p2246
I800
sVresize
p2247
Vfit
p2248
sVw
p2249
I502
ssVmedium
p2250
(dp2251
Vh
p2252
I800
sVresize
p2253
Vfit
p2254
sVw
p2255
I502
ssVthumb
p2256
(dp2257
Vh
p2258
I150
sVresize
p2259
Vcrop
p2260
sVw
p2261
I150
sssVindices
p2262
(lp2263
I139
aI140
asVtype
p2264
Vphoto
p2265
sVid
p2266
I542637443363532800
sVmedia_url
p2267
Vhttp://pbs.twimg.com/media/B4fV4TWCcAAdKQx.png
p2268
sasg33
Nsg34
Nsg35
Nsg36
VThu Dec 11 18:46:39 +0000 2014
p2269
sg38
Nsg39
I00
sg40
Nsg41
Nsg42
Nsg43
Nsg44
I00
sg45
Nsg46
(lp2270
g3
(g48
g5
Ntp2271
Rp2272
(dp2273
g10
Nsg52
Nsg53
Nsg54
Nsg55
Nsg56
Nsg36
Nsg57
Nsg58
Nsg59
Nsg60
Nsg61
Nsg62
Nsg63
Nsg64
Nsg65
Nsg66
Nsg67
Nsg68
Nsg69
Nsg70
Nsg71
Nsg72
VLaday2727
p2274
sg74
Nsg75
VRomanceNovelGiveaway
p2275
sg77
Nsg78
Nsg79
I1193097445
sg80
Nsbag3
(g48
g5
Ntp2276
Rp2277
(dp2278
g10
Nsg52
Nsg53
Nsg54
Nsg55
Nsg56
Nsg36
Nsg57
Nsg58
Nsg59
Nsg60
Nsg61
Nsg62
Nsg63
Nsg64
Nsg65
Nsg66
Nsg67
Nsg68
Nsg69
Nsg70
Nsg71
Nsg72
VMommysBookup
p2279
sg74
Nsg75
VMommys Bookup
p2280
sg77
Nsg78
Nsg79
I1608186158
sg80
Nsbag3
(g48
g5
Ntp2281
Rp2282
(dp2283
g10
Nsg52
Nsg53
Nsg54
Nsg55
Nsg56
Nsg36
Nsg57
Nsg58
Nsg59
Nsg60
Nsg61
Nsg62
Nsg63
Nsg64
Nsg65
Nsg66
Nsg67
Nsg68
Nsg69
Nsg70
Nsg71
Nsg72
Vmonicajames81
p2284
sg74
Nsg75
VMonica James
p2285
sg77
Nsg78
Nsg79
I1171510062
sg80
Nsbasg81
Nsg82
V543114655267180544
p2286
sg84
Nsg85
VRT @Laday2727: Something Like Love by Monica James #GIVEAWAY Romantic Suspense @MommysBookup @monicajames81 http://t.co/HwnlDqdXOi http://t\u2026
p2287
sg87
I00
sg88
Ven
p2288
sg90
g3
(g48
g5
Ntp2289
Rp2290
(dp2291
g10
VMelbourne, Victoria, Australia
p2292
sg52
V333333
p2293
sg53
Ven
p2294
sg54
VMelbourne
p2295
sg55
I1878
sg56
I3026
sg36
VTue Feb 12 10:11:30 +0000 2013
p2296
sg57
I00
sg58
VAmazon's bestselling author of the I SURRENDER TRILOGY and SOMETHING LIKE NORMAL series.
p2297
sg59
Vhttps://pbs.twimg.com/profile_images/542569473757028353/wbMflo8O_normal.jpeg
p2298
sg60
I1092
sg61
I2168
sg62
I39600
sg63
Nsg64
I00
sg65
Vhttps://pbs.twimg.com/profile_banners/1171510062/1402021145
p2299
sg66
I00
sg67
I00
sg68
V0084B4
p2300
sg69
I00
sg70
I00
sg71
Vhttp://abs.twimg.com/images/themes/theme1/bg.png
p2301
sg72
Vmonicajames81
p2302
sg74
I17
sg75
VMonica James
p2303
sg77
VDDEEF6
p2304
sg78
Nsg79
I1171510062
sg80
VC0DEED
p2305
sbsg109
I1
sg110
V<a href="http://twitter.com/download/iphone" rel="nofollow">Twitter for iPhone</a>
p2306
sg112
(lp2307
g3
(g114
g5
Ntp2308
Rp2309
(dp2310
g118
Vhttp://t.co/HwnlDqdXOi
p2311
sg120
Vhttp://goo.gl/GsqnAk
p2312
sbasg79
I543114655267180544
sbaa.