(lp0
S'JoaquinBarcenaG'
p1
a(lp2
ccopy_reg
_reconstructor
p3
(ctwitter.status
Status
p4
c__builtin__
object
p5
Ntp6
Rp7
(dp8
S'_favorite_count'
p9
I0
sS'_location'
p10
NsS'_withheld_scope'
p11
NsS'hashtags'
p12
(lp13
sS'_truncated'
p14
I00
sS'_retweeted_status'
p15
NsS'_withheld_copyright'
p16
NsS'media'
p17
(lp18
sS'_place'
p19
NsS'_contributors'
p20
NsS'_current_user_retweet'
p21
NsS'_created_at'
p22
VSun Dec 14 14:14:43 +0000 2014
p23
sS'_scopes'
p24
NsS'_possibly_sensitive'
p25
I00
sS'_in_reply_to_screen_name'
p26
NsS'_coordinates'
p27
NsS'_in_reply_to_user_id'
p28
NsS'_geo'
p29
NsS'_favorited'
p30
I00
sS'_withheld_in_countries'
p31
NsS'user_mentions'
p32
(lp33
sS'_now'
p34
NsS'_id_str'
p35
NsS'_in_reply_to_status_id'
p36
NsS'_text'
p37
VAnnie Lennox - Why http://t.co/Gu206FS0bG
p38
sS'_retweeted'
p39
I00
sS'lang'
p40
Ven
p41
sS'_user'
p42
g3
(ctwitter.user
User
p43
g5
Ntp44
Rp45
(dp46
g10
V
p47
sS'_profile_text_color'
p48
V333333
p49
sS'_lang'
p50
Ves
p51
sS'_time_zone'
p52
VLjubljana
p53
sS'_followers_count'
p54
I71
sS'_statuses_count'
p55
I29283
sg22
VMon May 07 23:30:11 +0000 2012
p56
sS'_verified'
p57
I00
sS'_description'
p58
g47
sS'_profile_image_url'
p59
Vhttps://pbs.twimg.com/profile_images/420829676785774592/ud_uorYx_normal.jpeg
p60
sS'_friends_count'
p61
I257
sS'_favourites_count'
p62
I3
sS'_utc_offset'
p63
I3600
sS'_status'
p64
NsS'_protected'
p65
I00
sS'_profile_banner_url'
p66
Vhttps://pbs.twimg.com/profile_banners/574127607/1389168667
p67
sS'_notifications'
p68
I00
sS'_profile_background_tile'
p69
I00
sS'_profile_link_color'
p70
V0084B4
p71
sS'_geo_enabled'
p72
I01
sS'_contributors_enabled'
p73
I00
sS'_profile_background_image_url'
p74
Vhttp://abs.twimg.com/images/themes/theme1/bg.png
p75
sS'_screen_name'
p76
VJoaquinBarcenaG
p77
sS'_listed_count'
p78
I1
sS'_name'
p79
VJoaquibg
p80
sS'_profile_sidebar_fill_color'
p81
VDDEEF6
p82
sS'_url'
p83
NsS'_id'
p84
I574127607
sS'_profile_background_color'
p85
VC0DEED
p86
sbsS'_retweet_count'
p87
I0
sS'_source'
p88
V<a href="http://www.facebook.com/twitter" rel="nofollow">Facebook</a>
p89
sS'urls'
p90
(lp91
g3
(ctwitter.url
Url
p92
g5
Ntp93
Rp94
(dp95
S'url'
p96
Vhttp://t.co/Gu206FS0bG
p97
sS'expanded_url'
p98
Vhttp://fb.me/1LdH6XBd0
p99
sbasg84
I544133386584223744
sbag3
(g4
g5
Ntp100
Rp101
(dp102
g9
I0
sg10
Nsg11
Nsg12
(lp103
sg14
I00
sg15
Nsg16
Nsg17
(lp104
sg19
Nsg20
Nsg21
Nsg22
VSun Dec 14 14:13:57 +0000 2014
p105
sg24
Nsg25
I00
sg26
Nsg27
Nsg28
Nsg29
Nsg30
I00
sg31
Nsg32
(lp106
sg34
Nsg35
Nsg36
Nsg37
Vhttp://t.co/KuIxwmWr4p
p107
sg39
I00
sg40
Vund
p108
sg42
g3
(g43
g5
Ntp109
Rp110
(dp111
g10
g47
sg48
V333333
p112
sg50
Ves
p113
sg52
VLjubljana
p114
sg54
I71
sg55
I29283
sg22
VMon May 07 23:30:11 +0000 2012
p115
sg57
I00
sg58
g47
sg59
Vhttps://pbs.twimg.com/profile_images/420829676785774592/ud_uorYx_normal.jpeg
p116
sg61
I257
sg62
I3
sg63
I3600
sg64
Nsg65
I00
sg66
Vhttps://pbs.twimg.com/profile_banners/574127607/1389168667
p117
sg68
I00
sg69
I00
sg70
V0084B4
p118
sg72
I01
sg73
I00
sg74
Vhttp://abs.twimg.com/images/themes/theme1/bg.png
p119
sg76
VJoaquinBarcenaG
p120
sg78
I1
sg79
VJoaquibg
p121
sg81
VDDEEF6
p122
sg83
Nsg84
I574127607
sg85
VC0DEED
p123
sbsg87
I0
sg88
V<a href="http://www.facebook.com/twitter" rel="nofollow">Facebook</a>
p124
sg90
(lp125
g3
(g92
g5
Ntp126
Rp127
(dp128
g96
Vhttp://t.co/KuIxwmWr4p
p129
sg98
Vhttp://fb.me/3wYnRVTef
p130
sbasg84
I544133194262806528
sbag3
(g4
g5
Ntp131
Rp132
(dp133
g9
I0
sg10
Nsg11
Nsg12
(lp134
sg14
I00
sg15
Nsg16
Nsg17
(lp135
sg19
Nsg20
Nsg21
Nsg22
VSat Dec 13 21:23:23 +0000 2014
p136
sg24
Nsg25
I00
sg26
Nsg27
Nsg28
Nsg29
Nsg30
I00
sg31
Nsg32
(lp137
sg34
Nsg35
Nsg36
Nsg37
Vhttp://t.co/UvyLhO86i4
p138
sg39
I00
sg40
Vund
p139
sg42
g3
(g43
g5
Ntp140
Rp141
(dp142
g10
g47
sg48
V333333
p143
sg50
Ves
p144
sg52
VLjubljana
p145
sg54
I71
sg55
I29283
sg22
VMon May 07 23:30:11 +0000 2012
p146
sg57
I00
sg58
g47
sg59
Vhttps://pbs.twimg.com/profile_images/420829676785774592/ud_uorYx_normal.jpeg
p147
sg61
I257
sg62
I3
sg63
I3600
sg64
Nsg65
I00
sg66
Vhttps://pbs.twimg.com/profile_banners/574127607/1389168667
p148
sg68
I00
sg69
I00
sg70
V0084B4
p149
sg72
I01
sg73
I00
sg74
Vhttp://abs.twimg.com/images/themes/theme1/bg.png
p150
sg76
VJoaquinBarcenaG
p151
sg78
I1
sg79
VJoaquibg
p152
sg81
VDDEEF6
p153
sg83
Nsg84
I574127607
sg85
VC0DEED
p154
sbsg87
I0
sg88
V<a href="http://www.facebook.com/twitter" rel="nofollow">Facebook</a>
p155
sg90
(lp156
g3
(g92
g5
Ntp157
Rp158
(dp159
g96
Vhttp://t.co/UvyLhO86i4
p160
sg98
Vhttp://fb.me/6Y2AJADX7
p161
sbasg84
I543878877417070592
sbag3
(g4
g5
Ntp162
Rp163
(dp164
g9
I0
sg10
Nsg11
Nsg12
(lp165
sg14
I00
sg15
Nsg16
Nsg17
(lp166
sg19
Nsg20
Nsg21
Nsg22
VSat Dec 13 21:22:12 +0000 2014
p167
sg24
Nsg25
I00
sg26
Nsg27
Nsg28
Nsg29
Nsg30
I00
sg31
Nsg32
(lp168
sg34
Nsg35
Nsg36
Nsg37
Vhttp://t.co/SylzSfvCym
p169
sg39
I00
sg40
Vund
p170
sg42
g3
(g43
g5
Ntp171
Rp172
(dp173
g10
g47
sg48
V333333
p174
sg50
Ves
p175
sg52
VLjubljana
p176
sg54
I71
sg55
I29283
sg22
VMon May 07 23:30:11 +0000 2012
p177
sg57
I00
sg58
g47
sg59
Vhttps://pbs.twimg.com/profile_images/420829676785774592/ud_uorYx_normal.jpeg
p178
sg61
I257
sg62
I3
sg63
I3600
sg64
Nsg65
I00
sg66
Vhttps://pbs.twimg.com/profile_banners/574127607/1389168667
p179
sg68
I00
sg69
I00
sg70
V0084B4
p180
sg72
I01
sg73
I00
sg74
Vhttp://abs.twimg.com/images/themes/theme1/bg.png
p181
sg76
VJoaquinBarcenaG
p182
sg78
I1
sg79
VJoaquibg
p183
sg81
VDDEEF6
p184
sg83
Nsg84
I574127607
sg85
VC0DEED
p185
sbsg87
I0
sg88
V<a href="http://www.facebook.com/twitter" rel="nofollow">Facebook</a>
p186
sg90
(lp187
g3
(g92
g5
Ntp188
Rp189
(dp190
g96
Vhttp://t.co/SylzSfvCym
p191
sg98
Vhttp://fb.me/1rEkspZzH
p192
sbasg84
I543878579470483456
sbag3
(g4
g5
Ntp193
Rp194
(dp195
g9
I0
sg10
Nsg11
Nsg12
(lp196
sg14
I00
sg15
Nsg16
Nsg17
(lp197
sg19
Nsg20
Nsg21
Nsg22
VSat Dec 13 21:21:35 +0000 2014
p198
sg24
Nsg25
I00
sg26
Nsg27
Nsg28
Nsg29
Nsg30
I00
sg31
Nsg32
(lp199
sg34
Nsg35
Nsg36
Nsg37
Vhttp://t.co/8PZzsfatAA
p200
sg39
I00
sg40
Vund
p201
sg42
g3
(g43
g5
Ntp202
Rp203
(dp204
g10
g47
sg48
V333333
p205
sg50
Ves
p206
sg52
VLjubljana
p207
sg54
I71
sg55
I29283
sg22
VMon May 07 23:30:11 +0000 2012
p208
sg57
I00
sg58
g47
sg59
Vhttps://pbs.twimg.com/profile_images/420829676785774592/ud_uorYx_normal.jpeg
p209
sg61
I257
sg62
I3
sg63
I3600
sg64
Nsg65
I00
sg66
Vhttps://pbs.twimg.com/profile_banners/574127607/1389168667
p210
sg68
I00
sg69
I00
sg70
V0084B4
p211
sg72
I01
sg73
I00
sg74
Vhttp://abs.twimg.com/images/themes/theme1/bg.png
p212
sg76
VJoaquinBarcenaG
p213
sg78
I1
sg79
VJoaquibg
p214
sg81
VDDEEF6
p215
sg83
Nsg84
I574127607
sg85
VC0DEED
p216
sbsg87
I0
sg88
V<a href="http://www.facebook.com/twitter" rel="nofollow">Facebook</a>
p217
sg90
(lp218
g3
(g92
g5
Ntp219
Rp220
(dp221
g96
Vhttp://t.co/8PZzsfatAA
p222
sg98
Vhttp://fb.me/79t1VyJkI
p223
sbasg84
I543878425111724032
sbag3
(g4
g5
Ntp224
Rp225
(dp226
g9
I0
sg10
Nsg11
Nsg12
(lp227
sg14
I00
sg15
Nsg16
Nsg17
(lp228
sg19
Nsg20
Nsg21
Nsg22
VSat Dec 13 21:20:44 +0000 2014
p229
sg24
Nsg25
I00
sg26
Nsg27
Nsg28
Nsg29
Nsg30
I00
sg31
Nsg32
(lp230
sg34
Nsg35
Nsg36
Nsg37
Vhttp://t.co/DT0hC0M5GU
p231
sg39
I00
sg40
Vund
p232
sg42
g3
(g43
g5
Ntp233
Rp234
(dp235
g10
g47
sg48
V333333
p236
sg50
Ves
p237
sg52
VLjubljana
p238
sg54
I71
sg55
I29283
sg22
VMon May 07 23:30:11 +0000 2012
p239
sg57
I00
sg58
g47
sg59
Vhttps://pbs.twimg.com/profile_images/420829676785774592/ud_uorYx_normal.jpeg
p240
sg61
I257
sg62
I3
sg63
I3600
sg64
Nsg65
I00
sg66
Vhttps://pbs.twimg.com/profile_banners/574127607/1389168667
p241
sg68
I00
sg69
I00
sg70
V0084B4
p242
sg72
I01
sg73
I00
sg74
Vhttp://abs.twimg.com/images/themes/theme1/bg.png
p243
sg76
VJoaquinBarcenaG
p244
sg78
I1
sg79
VJoaquibg
p245
sg81
VDDEEF6
p246
sg83
Nsg84
I574127607
sg85
VC0DEED
p247
sbsg87
I0
sg88
V<a href="http://www.facebook.com/twitter" rel="nofollow">Facebook</a>
p248
sg90
(lp249
g3
(g92
g5
Ntp250
Rp251
(dp252
g96
Vhttp://t.co/DT0hC0M5GU
p253
sg98
Vhttp://fb.me/1pSzBKuQX
p254
sbasg84
I543878210069753856
sbag3
(g4
g5
Ntp255
Rp256
(dp257
g9
I0
sg10
Nsg11
Nsg12
(lp258
sg14
I00
sg15
Nsg16
Nsg17
(lp259
sg19
Nsg20
Nsg21
Nsg22
VSat Dec 13 21:19:06 +0000 2014
p260
sg24
Nsg25
I00
sg26
Nsg27
Nsg28
Nsg29
Nsg30
I00
sg31
Nsg32
(lp261
sg34
Nsg35
Nsg36
Nsg37
Vhttp://t.co/pdsCM2BlOf
p262
sg39
I00
sg40
Vund
p263
sg42
g3
(g43
g5
Ntp264
Rp265
(dp266
g10
g47
sg48
V333333
p267
sg50
Ves
p268
sg52
VLjubljana
p269
sg54
I71
sg55
I29283
sg22
VMon May 07 23:30:11 +0000 2012
p270
sg57
I00
sg58
g47
sg59
Vhttps://pbs.twimg.com/profile_images/420829676785774592/ud_uorYx_normal.jpeg
p271
sg61
I257
sg62
I3
sg63
I3600
sg64
Nsg65
I00
sg66
Vhttps://pbs.twimg.com/profile_banners/574127607/1389168667
p272
sg68
I00
sg69
I00
sg70
V0084B4
p273
sg72
I01
sg73
I00
sg74
Vhttp://abs.twimg.com/images/themes/theme1/bg.png
p274
sg76
VJoaquinBarcenaG
p275
sg78
I1
sg79
VJoaquibg
p276
sg81
VDDEEF6
p277
sg83
Nsg84
I574127607
sg85
VC0DEED
p278
sbsg87
I0
sg88
V<a href="http://www.facebook.com/twitter" rel="nofollow">Facebook</a>
p279
sg90
(lp280
g3
(g92
g5
Ntp281
Rp282
(dp283
g96
Vhttp://t.co/pdsCM2BlOf
p284
sg98
Vhttp://fb.me/1SVJzLRjC
p285
sbasg84
I543877798382022656
sbag3
(g4
g5
Ntp286
Rp287
(dp288
g9
I0
sg10
Nsg11
Nsg12
(lp289
sg14
I00
sg15
Nsg16
Nsg17
(lp290
sg19
Nsg20
Nsg21
Nsg22
VSat Dec 13 21:18:25 +0000 2014
p291
sg24
Nsg25
I00
sg26
Nsg27
Nsg28
Nsg29
Nsg30
I00
sg31
Nsg32
(lp292
sg34
Nsg35
Nsg36
Nsg37
Vhttp://t.co/DwXyG6gpqZ
p293
sg39
I00
sg40
Vund
p294
sg42
g3
(g43
g5
Ntp295
Rp296
(dp297
g10
g47
sg48
V333333
p298
sg50
Ves
p299
sg52
VLjubljana
p300
sg54
I71
sg55
I29283
sg22
VMon May 07 23:30:11 +0000 2012
p301
sg57
I00
sg58
g47
sg59
Vhttps://pbs.twimg.com/profile_images/420829676785774592/ud_uorYx_normal.jpeg
p302
sg61
I257
sg62
I3
sg63
I3600
sg64
Nsg65
I00
sg66
Vhttps://pbs.twimg.com/profile_banners/574127607/1389168667
p303
sg68
I00
sg69
I00
sg70
V0084B4
p304
sg72
I01
sg73
I00
sg74
Vhttp://abs.twimg.com/images/themes/theme1/bg.png
p305
sg76
VJoaquinBarcenaG
p306
sg78
I1
sg79
VJoaquibg
p307
sg81
VDDEEF6
p308
sg83
Nsg84
I574127607
sg85
VC0DEED
p309
sbsg87
I0
sg88
V<a href="http://www.facebook.com/twitter" rel="nofollow">Facebook</a>
p310
sg90
(lp311
g3
(g92
g5
Ntp312
Rp313
(dp314
g96
Vhttp://t.co/DwXyG6gpqZ
p315
sg98
Vhttp://fb.me/7dPZ5eSkZ
p316
sbasg84
I543877625526366209
sbag3
(g4
g5
Ntp317
Rp318
(dp319
g9
I0
sg10
Nsg11
Nsg12
(lp320
sg14
I00
sg15
Nsg16
Nsg17
(lp321
sg19
Nsg20
Nsg21
Nsg22
VSat Dec 13 21:18:06 +0000 2014
p322
sg24
Nsg25
I00
sg26
Nsg27
Nsg28
Nsg29
Nsg30
I00
sg31
Nsg32
(lp323
sg34
Nsg35
Nsg36
Nsg37
Vhttp://t.co/FCa6zCkgq9
p324
sg39
I00
sg40
Vund
p325
sg42
g3
(g43
g5
Ntp326
Rp327
(dp328
g10
g47
sg48
V333333
p329
sg50
Ves
p330
sg52
VLjubljana
p331
sg54
I71
sg55
I29283
sg22
VMon May 07 23:30:11 +0000 2012
p332
sg57
I00
sg58
g47
sg59
Vhttps://pbs.twimg.com/profile_images/420829676785774592/ud_uorYx_normal.jpeg
p333
sg61
I257
sg62
I3
sg63
I3600
sg64
Nsg65
I00
sg66
Vhttps://pbs.twimg.com/profile_banners/574127607/1389168667
p334
sg68
I00
sg69
I00
sg70
V0084B4
p335
sg72
I01
sg73
I00
sg74
Vhttp://abs.twimg.com/images/themes/theme1/bg.png
p336
sg76
VJoaquinBarcenaG
p337
sg78
I1
sg79
VJoaquibg
p338
sg81
VDDEEF6
p339
sg83
Nsg84
I574127607
sg85
VC0DEED
p340
sbsg87
I0
sg88
V<a href="http://www.facebook.com/twitter" rel="nofollow">Facebook</a>
p341
sg90
(lp342
g3
(g92
g5
Ntp343
Rp344
(dp345
g96
Vhttp://t.co/FCa6zCkgq9
p346
sg98
Vhttp://fb.me/3HoVidymv
p347
sbasg84
I543877547893993472
sbag3
(g4
g5
Ntp348
Rp349
(dp350
g9
I0
sg10
Nsg11
Nsg12
(lp351
sg14
I00
sg15
Nsg16
Nsg17
(lp352
sg19
Nsg20
Nsg21
Nsg22
VSat Dec 13 21:12:31 +0000 2014
p353
sg24
Nsg25
I00
sg26
Nsg27
Nsg28
Nsg29
Nsg30
I00
sg31
Nsg32
(lp354
sg34
Nsg35
Nsg36
Nsg37
Vhttp://t.co/cdmn02UtKu
p355
sg39
I00
sg40
Vund
p356
sg42
g3
(g43
g5
Ntp357
Rp358
(dp359
g10
g47
sg48
V333333
p360
sg50
Ves
p361
sg52
VLjubljana
p362
sg54
I71
sg55
I29283
sg22
VMon May 07 23:30:11 +0000 2012
p363
sg57
I00
sg58
g47
sg59
Vhttps://pbs.twimg.com/profile_images/420829676785774592/ud_uorYx_normal.jpeg
p364
sg61
I257
sg62
I3
sg63
I3600
sg64
Nsg65
I00
sg66
Vhttps://pbs.twimg.com/profile_banners/574127607/1389168667
p365
sg68
I00
sg69
I00
sg70
V0084B4
p366
sg72
I01
sg73
I00
sg74
Vhttp://abs.twimg.com/images/themes/theme1/bg.png
p367
sg76
VJoaquinBarcenaG
p368
sg78
I1
sg79
VJoaquibg
p369
sg81
VDDEEF6
p370
sg83
Nsg84
I574127607
sg85
VC0DEED
p371
sbsg87
I0
sg88
V<a href="http://www.facebook.com/twitter" rel="nofollow">Facebook</a>
p372
sg90
(lp373
g3
(g92
g5
Ntp374
Rp375
(dp376
g96
Vhttp://t.co/cdmn02UtKu
p377
sg98
Vhttp://fb.me/72J6KwiAv
p378
sbasg84
I543876140499480577
sbag3
(g4
g5
Ntp379
Rp380
(dp381
g9
I0
sg10
Nsg11
Nsg12
(lp382
sg14
I00
sg15
Nsg16
Nsg17
(lp383
sg19
Nsg20
Nsg21
Nsg22
VSat Dec 13 21:09:02 +0000 2014
p384
sg24
Nsg25
I00
sg26
Nsg27
Nsg28
Nsg29
Nsg30
I00
sg31
Nsg32
(lp385
sg34
Nsg35
Nsg36
Nsg37
VLa Pasion http://t.co/Ph3GF9g4Xe
p386
sg39
I00
sg40
Vfr
p387
sg42
g3
(g43
g5
Ntp388
Rp389
(dp390
g10
g47
sg48
V333333
p391
sg50
Ves
p392
sg52
VLjubljana
p393
sg54
I71
sg55
I29283
sg22
VMon May 07 23:30:11 +0000 2012
p394
sg57
I00
sg58
g47
sg59
Vhttps://pbs.twimg.com/profile_images/420829676785774592/ud_uorYx_normal.jpeg
p395
sg61
I257
sg62
I3
sg63
I3600
sg64
Nsg65
I00
sg66
Vhttps://pbs.twimg.com/profile_banners/574127607/1389168667
p396
sg68
I00
sg69
I00
sg70
V0084B4
p397
sg72
I01
sg73
I00
sg74
Vhttp://abs.twimg.com/images/themes/theme1/bg.png
p398
sg76
VJoaquinBarcenaG
p399
sg78
I1
sg79
VJoaquibg
p400
sg81
VDDEEF6
p401
sg83
Nsg84
I574127607
sg85
VC0DEED
p402
sbsg87
I0
sg88
V<a href="http://www.facebook.com/twitter" rel="nofollow">Facebook</a>
p403
sg90
(lp404
g3
(g92
g5
Ntp405
Rp406
(dp407
g96
Vhttp://t.co/Ph3GF9g4Xe
p408
sg98
Vhttp://fb.me/2UR3Gap8Q
p409
sbasg84
I543875266175852544
sbag3
(g4
g5
Ntp410
Rp411
(dp412
g9
I0
sg10
Nsg11
Nsg12
(lp413
sg14
I00
sg15
Nsg16
Nsg17
(lp414
sg19
Nsg20
Nsg21
Nsg22
VSat Dec 13 21:08:49 +0000 2014
p415
sg24
Nsg25
I00
sg26
Nsg27
Nsg28
Nsg29
Nsg30
I00
sg31
Nsg32
(lp416
sg34
Nsg35
Nsg36
Nsg37
Vhttp://t.co/qLPsopmSIe
p417
sg39
I00
sg40
Vund
p418
sg42
g3
(g43
g5
Ntp419
Rp420
(dp421
g10
g47
sg48
V333333
p422
sg50
Ves
p423
sg52
VLjubljana
p424
sg54
I71
sg55
I29283
sg22
VMon May 07 23:30:11 +0000 2012
p425
sg57
I00
sg58
g47
sg59
Vhttps://pbs.twimg.com/profile_images/420829676785774592/ud_uorYx_normal.jpeg
p426
sg61
I257
sg62
I3
sg63
I3600
sg64
Nsg65
I00
sg66
Vhttps://pbs.twimg.com/profile_banners/574127607/1389168667
p427
sg68
I00
sg69
I00
sg70
V0084B4
p428
sg72
I01
sg73
I00
sg74
Vhttp://abs.twimg.com/images/themes/theme1/bg.png
p429
sg76
VJoaquinBarcenaG
p430
sg78
I1
sg79
VJoaquibg
p431
sg81
VDDEEF6
p432
sg83
Nsg84
I574127607
sg85
VC0DEED
p433
sbsg87
I0
sg88
V<a href="http://www.facebook.com/twitter" rel="nofollow">Facebook</a>
p434
sg90
(lp435
g3
(g92
g5
Ntp436
Rp437
(dp438
g96
Vhttp://t.co/qLPsopmSIe
p439
sg98
Vhttp://fb.me/2M3pAjuoa
p440
sbasg84
I543875208839704576
sbag3
(g4
g5
Ntp441
Rp442
(dp443
g9
I0
sg10
Nsg11
Nsg12
(lp444
sg14
I00
sg15
Nsg16
Nsg17
(lp445
sg19
Nsg20
Nsg21
Nsg22
VSat Dec 13 21:08:27 +0000 2014
p446
sg24
Nsg25
I00
sg26
Nsg27
Nsg28
Nsg29
Nsg30
I00
sg31
Nsg32
(lp447
sg34
Nsg35
Nsg36
Nsg37
Vhttp://t.co/vQCbhsqTlN
p448
sg39
I00
sg40
Vund
p449
sg42
g3
(g43
g5
Ntp450
Rp451
(dp452
g10
g47
sg48
V333333
p453
sg50
Ves
p454
sg52
VLjubljana
p455
sg54
I71
sg55
I29283
sg22
VMon May 07 23:30:11 +0000 2012
p456
sg57
I00
sg58
g47
sg59
Vhttps://pbs.twimg.com/profile_images/420829676785774592/ud_uorYx_normal.jpeg
p457
sg61
I257
sg62
I3
sg63
I3600
sg64
Nsg65
I00
sg66
Vhttps://pbs.twimg.com/profile_banners/574127607/1389168667
p458
sg68
I00
sg69
I00
sg70
V0084B4
p459
sg72
I01
sg73
I00
sg74
Vhttp://abs.twimg.com/images/themes/theme1/bg.png
p460
sg76
VJoaquinBarcenaG
p461
sg78
I1
sg79
VJoaquibg
p462
sg81
VDDEEF6
p463
sg83
Nsg84
I574127607
sg85
VC0DEED
p464
sbsg87
I0
sg88
V<a href="http://www.facebook.com/twitter" rel="nofollow">Facebook</a>
p465
sg90
(lp466
g3
(g92
g5
Ntp467
Rp468
(dp469
g96
Vhttp://t.co/vQCbhsqTlN
p470
sg98
Vhttp://fb.me/6UbgxcJdM
p471
sbasg84
I543875118498611201
sbag3
(g4
g5
Ntp472
Rp473
(dp474
g9
I0
sg10
Nsg11
Nsg12
(lp475
sg14
I00
sg15
Nsg16
Nsg17
(lp476
sg19
Nsg20
Nsg21
Nsg22
VSat Dec 13 21:06:34 +0000 2014
p477
sg24
Nsg25
I00
sg26
Nsg27
Nsg28
Nsg29
Nsg30
I00
sg31
Nsg32
(lp478
sg34
Nsg35
Nsg36
Nsg37
Vhttp://t.co/PSQNpsv4uC
p479
sg39
I00
sg40
Vund
p480
sg42
g3
(g43
g5
Ntp481
Rp482
(dp483
g10
g47
sg48
V333333
p484
sg50
Ves
p485
sg52
VLjubljana
p486
sg54
I71
sg55
I29283
sg22
VMon May 07 23:30:11 +0000 2012
p487
sg57
I00
sg58
g47
sg59
Vhttps://pbs.twimg.com/profile_images/420829676785774592/ud_uorYx_normal.jpeg
p488
sg61
I257
sg62
I3
sg63
I3600
sg64
Nsg65
I00
sg66
Vhttps://pbs.twimg.com/profile_banners/574127607/1389168667
p489
sg68
I00
sg69
I00
sg70
V0084B4
p490
sg72
I01
sg73
I00
sg74
Vhttp://abs.twimg.com/images/themes/theme1/bg.png
p491
sg76
VJoaquinBarcenaG
p492
sg78
I1
sg79
VJoaquibg
p493
sg81
VDDEEF6
p494
sg83
Nsg84
I574127607
sg85
VC0DEED
p495
sbsg87
I0
sg88
V<a href="http://www.facebook.com/twitter" rel="nofollow">Facebook</a>
p496
sg90
(lp497
g3
(g92
g5
Ntp498
Rp499
(dp500
g96
Vhttp://t.co/PSQNpsv4uC
p501
sg98
Vhttp://fb.me/29UYFs5Il
p502
sbasg84
I543874645465006080
sbag3
(g4
g5
Ntp503
Rp504
(dp505
g9
I0
sg10
Nsg11
Nsg12
(lp506
sg14
I00
sg15
Nsg16
Nsg17
(lp507
sg19
Nsg20
Nsg21
Nsg22
VSat Dec 13 21:03:57 +0000 2014
p508
sg24
Nsg25
I00
sg26
Nsg27
Nsg28
Nsg29
Nsg30
I00
sg31
Nsg32
(lp509
sg34
Nsg35
Nsg36
Nsg37
Vhttp://t.co/aOvrl0piUF
p510
sg39
I00
sg40
Vund
p511
sg42
g3
(g43
g5
Ntp512
Rp513
(dp514
g10
g47
sg48
V333333
p515
sg50
Ves
p516
sg52
VLjubljana
p517
sg54
I71
sg55
I29283
sg22
VMon May 07 23:30:11 +0000 2012
p518
sg57
I00
sg58
g47
sg59
Vhttps://pbs.twimg.com/profile_images/420829676785774592/ud_uorYx_normal.jpeg
p519
sg61
I257
sg62
I3
sg63
I3600
sg64
Nsg65
I00
sg66
Vhttps://pbs.twimg.com/profile_banners/574127607/1389168667
p520
sg68
I00
sg69
I00
sg70
V0084B4
p521
sg72
I01
sg73
I00
sg74
Vhttp://abs.twimg.com/images/themes/theme1/bg.png
p522
sg76
VJoaquinBarcenaG
p523
sg78
I1
sg79
VJoaquibg
p524
sg81
VDDEEF6
p525
sg83
Nsg84
I574127607
sg85
VC0DEED
p526
sbsg87
I0
sg88
V<a href="http://www.facebook.com/twitter" rel="nofollow">Facebook</a>
p527
sg90
(lp528
g3
(g92
g5
Ntp529
Rp530
(dp531
g96
Vhttp://t.co/aOvrl0piUF
p532
sg98
Vhttp://fb.me/413EUzVr0
p533
sbasg84
I543873984383967234
sbag3
(g4
g5
Ntp534
Rp535
(dp536
g9
I0
sg10
Nsg11
Nsg12
(lp537
sg14
I00
sg15
Nsg16
Nsg17
(lp538
sg19
Nsg20
Nsg21
Nsg22
VSat Dec 13 20:53:32 +0000 2014
p539
sg24
Nsg25
I00
sg26
Nsg27
Nsg28
Nsg29
Nsg30
I00
sg31
Nsg32
(lp540
sg34
Nsg35
Nsg36
Nsg37
Vhttp://t.co/iBS8VKEKcL
p541
sg39
I00
sg40
Vund
p542
sg42
g3
(g43
g5
Ntp543
Rp544
(dp545
g10
g47
sg48
V333333
p546
sg50
Ves
p547
sg52
VLjubljana
p548
sg54
I71
sg55
I29283
sg22
VMon May 07 23:30:11 +0000 2012
p549
sg57
I00
sg58
g47
sg59
Vhttps://pbs.twimg.com/profile_images/420829676785774592/ud_uorYx_normal.jpeg
p550
sg61
I257
sg62
I3
sg63
I3600
sg64
Nsg65
I00
sg66
Vhttps://pbs.twimg.com/profile_banners/574127607/1389168667
p551
sg68
I00
sg69
I00
sg70
V0084B4
p552
sg72
I01
sg73
I00
sg74
Vhttp://abs.twimg.com/images/themes/theme1/bg.png
p553
sg76
VJoaquinBarcenaG
p554
sg78
I1
sg79
VJoaquibg
p555
sg81
VDDEEF6
p556
sg83
Nsg84
I574127607
sg85
VC0DEED
p557
sbsg87
I0
sg88
V<a href="http://www.facebook.com/twitter" rel="nofollow">Facebook</a>
p558
sg90
(lp559
g3
(g92
g5
Ntp560
Rp561
(dp562
g96
Vhttp://t.co/iBS8VKEKcL
p563
sg98
Vhttp://fb.me/3vVJJbwx3
p564
sbasg84
I543871363359195137
sbag3
(g4
g5
Ntp565
Rp566
(dp567
g9
I0
sg10
Nsg11
Nsg12
(lp568
sg14
I00
sg15
Nsg16
Nsg17
(lp569
sg19
Nsg20
Nsg21
Nsg22
VSat Dec 13 20:52:18 +0000 2014
p570
sg24
Nsg25
I00
sg26
Nsg27
Nsg28
Nsg29
Nsg30
I00
sg31
Nsg32
(lp571
sg34
Nsg35
Nsg36
Nsg37
Vhttp://t.co/NqmM2jrRWM
p572
sg39
I00
sg40
Vund
p573
sg42
g3
(g43
g5
Ntp574
Rp575
(dp576
g10
g47
sg48
V333333
p577
sg50
Ves
p578
sg52
VLjubljana
p579
sg54
I71
sg55
I29283
sg22
VMon May 07 23:30:11 +0000 2012
p580
sg57
I00
sg58
g47
sg59
Vhttps://pbs.twimg.com/profile_images/420829676785774592/ud_uorYx_normal.jpeg
p581
sg61
I257
sg62
I3
sg63
I3600
sg64
Nsg65
I00
sg66
Vhttps://pbs.twimg.com/profile_banners/574127607/1389168667
p582
sg68
I00
sg69
I00
sg70
V0084B4
p583
sg72
I01
sg73
I00
sg74
Vhttp://abs.twimg.com/images/themes/theme1/bg.png
p584
sg76
VJoaquinBarcenaG
p585
sg78
I1
sg79
VJoaquibg
p586
sg81
VDDEEF6
p587
sg83
Nsg84
I574127607
sg85
VC0DEED
p588
sbsg87
I0
sg88
V<a href="http://www.facebook.com/twitter" rel="nofollow">Facebook</a>
p589
sg90
(lp590
g3
(g92
g5
Ntp591
Rp592
(dp593
g96
Vhttp://t.co/NqmM2jrRWM
p594
sg98
Vhttp://fb.me/7pVenMnAx
p595
sbasg84
I543871053240758272
sbag3
(g4
g5
Ntp596
Rp597
(dp598
g9
I0
sg10
Nsg11
Nsg12
(lp599
sg14
I00
sg15
Nsg16
Nsg17
(lp600
sg19
Nsg20
Nsg21
Nsg22
VSat Dec 13 19:18:37 +0000 2014
p601
sg24
Nsg25
I00
sg26
Nsg27
Nsg28
Nsg29
Nsg30
I00
sg31
Nsg32
(lp602
sg34
Nsg35
Nsg36
Nsg37
Vhttp://t.co/naXnboUs3T
p603
sg39
I00
sg40
Vund
p604
sg42
g3
(g43
g5
Ntp605
Rp606
(dp607
g10
g47
sg48
V333333
p608
sg50
Ves
p609
sg52
VLjubljana
p610
sg54
I71
sg55
I29283
sg22
VMon May 07 23:30:11 +0000 2012
p611
sg57
I00
sg58
g47
sg59
Vhttps://pbs.twimg.com/profile_images/420829676785774592/ud_uorYx_normal.jpeg
p612
sg61
I257
sg62
I3
sg63
I3600
sg64
Nsg65
I00
sg66
Vhttps://pbs.twimg.com/profile_banners/574127607/1389168667
p613
sg68
I00
sg69
I00
sg70
V0084B4
p614
sg72
I01
sg73
I00
sg74
Vhttp://abs.twimg.com/images/themes/theme1/bg.png
p615
sg76
VJoaquinBarcenaG
p616
sg78
I1
sg79
VJoaquibg
p617
sg81
VDDEEF6
p618
sg83
Nsg84
I574127607
sg85
VC0DEED
p619
sbsg87
I0
sg88
V<a href="http://www.facebook.com/twitter" rel="nofollow">Facebook</a>
p620
sg90
(lp621
g3
(g92
g5
Ntp622
Rp623
(dp624
g96
Vhttp://t.co/naXnboUs3T
p625
sg98
Vhttp://fb.me/2bYdvzC2x
p626
sbasg84
I543847477917806592
sbag3
(g4
g5
Ntp627
Rp628
(dp629
g9
I0
sg10
Nsg11
Nsg12
(lp630
sg14
I00
sg15
Nsg16
Nsg17
(lp631
sg19
Nsg20
Nsg21
Nsg22
VSat Dec 13 19:18:10 +0000 2014
p632
sg24
Nsg25
I00
sg26
Nsg27
Nsg28
Nsg29
Nsg30
I00
sg31
Nsg32
(lp633
sg34
Nsg35
Nsg36
Nsg37
Vhttp://t.co/87gYWChxEw
p634
sg39
I00
sg40
Vund
p635
sg42
g3
(g43
g5
Ntp636
Rp637
(dp638
g10
g47
sg48
V333333
p639
sg50
Ves
p640
sg52
VLjubljana
p641
sg54
I71
sg55
I29283
sg22
VMon May 07 23:30:11 +0000 2012
p642
sg57
I00
sg58
g47
sg59
Vhttps://pbs.twimg.com/profile_images/420829676785774592/ud_uorYx_normal.jpeg
p643
sg61
I257
sg62
I3
sg63
I3600
sg64
Nsg65
I00
sg66
Vhttps://pbs.twimg.com/profile_banners/574127607/1389168667
p644
sg68
I00
sg69
I00
sg70
V0084B4
p645
sg72
I01
sg73
I00
sg74
Vhttp://abs.twimg.com/images/themes/theme1/bg.png
p646
sg76
VJoaquinBarcenaG
p647
sg78
I1
sg79
VJoaquibg
p648
sg81
VDDEEF6
p649
sg83
Nsg84
I574127607
sg85
VC0DEED
p650
sbsg87
I0
sg88
V<a href="http://www.facebook.com/twitter" rel="nofollow">Facebook</a>
p651
sg90
(lp652
g3
(g92
g5
Ntp653
Rp654
(dp655
g96
Vhttp://t.co/87gYWChxEw
p656
sg98
Vhttp://fb.me/2bZhvHyIb
p657
sbasg84
I543847365334298624
sbag3
(g4
g5
Ntp658
Rp659
(dp660
g9
I0
sg10
Nsg11
Nsg12
(lp661
sg14
I00
sg15
Nsg16
Nsg17
(lp662
sg19
Nsg20
Nsg21
Nsg22
VSat Dec 13 19:17:42 +0000 2014
p663
sg24
Nsg25
I00
sg26
Nsg27
Nsg28
Nsg29
Nsg30
I00
sg31
Nsg32
(lp664
sg34
Nsg35
Nsg36
Nsg37
Vhttp://t.co/W3gXAQnnbG
p665
sg39
I00
sg40
Vund
p666
sg42
g3
(g43
g5
Ntp667
Rp668
(dp669
g10
g47
sg48
V333333
p670
sg50
Ves
p671
sg52
VLjubljana
p672
sg54
I71
sg55
I29283
sg22
VMon May 07 23:30:11 +0000 2012
p673
sg57
I00
sg58
g47
sg59
Vhttps://pbs.twimg.com/profile_images/420829676785774592/ud_uorYx_normal.jpeg
p674
sg61
I257
sg62
I3
sg63
I3600
sg64
Nsg65
I00
sg66
Vhttps://pbs.twimg.com/profile_banners/574127607/1389168667
p675
sg68
I00
sg69
I00
sg70
V0084B4
p676
sg72
I01
sg73
I00
sg74
Vhttp://abs.twimg.com/images/themes/theme1/bg.png
p677
sg76
VJoaquinBarcenaG
p678
sg78
I1
sg79
VJoaquibg
p679
sg81
VDDEEF6
p680
sg83
Nsg84
I574127607
sg85
VC0DEED
p681
sbsg87
I0
sg88
V<a href="http://www.facebook.com/twitter" rel="nofollow">Facebook</a>
p682
sg90
(lp683
g3
(g92
g5
Ntp684
Rp685
(dp686
g96
Vhttp://t.co/W3gXAQnnbG
p687
sg98
Vhttp://fb.me/7g0GkoyIh
p688
sbasg84
I543847247067500544
sbaa.