(lp0
S'mama3curlies'
p1
a(lp2
ccopy_reg
_reconstructor
p3
(ctwitter.status
Status
p4
c__builtin__
object
p5
Ntp6
Rp7
(dp8
S'_favorite_count'
p9
I0
sS'_location'
p10
NsS'_withheld_scope'
p11
NsS'hashtags'
p12
(lp13
sS'_truncated'
p14
I00
sS'_retweeted_status'
p15
NsS'_withheld_copyright'
p16
NsS'media'
p17
(lp18
sS'_place'
p19
NsS'_contributors'
p20
NsS'_current_user_retweet'
p21
NsS'_created_at'
p22
VSun Dec 14 19:35:58 +0000 2014
p23
sS'_scopes'
p24
NsS'_possibly_sensitive'
p25
I00
sS'_in_reply_to_screen_name'
p26
NsS'_coordinates'
p27
NsS'_in_reply_to_user_id'
p28
NsS'_geo'
p29
NsS'_favorited'
p30
I00
sS'_withheld_in_countries'
p31
NsS'user_mentions'
p32
(lp33
g3
(ctwitter.user
User
p34
g5
Ntp35
Rp36
(dp37
g10
NsS'_profile_text_color'
p38
NsS'_lang'
p39
NsS'_time_zone'
p40
NsS'_followers_count'
p41
NsS'_statuses_count'
p42
Nsg22
NsS'_verified'
p43
NsS'_description'
p44
NsS'_profile_image_url'
p45
NsS'_friends_count'
p46
NsS'_favourites_count'
p47
NsS'_utc_offset'
p48
NsS'_status'
p49
NsS'_protected'
p50
NsS'_profile_banner_url'
p51
NsS'_notifications'
p52
NsS'_profile_background_tile'
p53
NsS'_profile_link_color'
p54
NsS'_geo_enabled'
p55
NsS'_contributors_enabled'
p56
NsS'_profile_background_image_url'
p57
NsS'_screen_name'
p58
VYonanas
p59
sS'_listed_count'
p60
NsS'_name'
p61
VYonanas
p62
sS'_profile_sidebar_fill_color'
p63
NsS'_url'
p64
NsS'_id'
p65
I207643638
sS'_profile_background_color'
p66
NsbasS'_now'
p67
NsS'_id_str'
p68
NsS'_in_reply_to_status_id'
p69
NsS'_text'
p70
VWant to Go @Yonanas on Maui? Enter to WIN a dream Maui vacation for 2 here:   http://t.co/P2UZzOK2EE
p71
sS'_retweeted'
p72
I00
sS'lang'
p73
Ven
p74
sS'_user'
p75
g3
(g34
g5
Ntp76
Rp77
(dp78
g10
V
p79
sg38
V333333
p80
sg39
Ven
p81
sg40
Nsg41
I77
sg42
I1196
sg22
VTue Mar 16 18:44:50 +0000 2010
p82
sg43
I00
sg44
g79
sg45
Vhttps://abs.twimg.com/sticky/default_profile_images/default_profile_3_normal.png
p83
sg46
I958
sg47
I60
sg48
Nsg49
Nsg50
I00
sg51
Nsg52
I00
sg53
I00
sg54
V0084B4
p84
sg55
I00
sg56
I00
sg57
Vhttp://abs.twimg.com/images/themes/theme1/bg.png
p85
sg58
Vmama3curlies
p86
sg60
I0
sg61
Vmay lynn mahler
p87
sg63
VDDEEF6
p88
sg64
Nsg65
I123634696
sg66
VC0DEED
p89
sbsS'_retweet_count'
p90
I0
sS'_source'
p91
V<a href="https://dev.twitter.com/docs/tfw" rel="nofollow">Twitter for Websites</a>
p92
sS'urls'
p93
(lp94
g3
(ctwitter.url
Url
p95
g5
Ntp96
Rp97
(dp98
S'url'
p99
Vhttp://t.co/P2UZzOK2EE
p100
sS'expanded_url'
p101
Vhttp://woobox.com/budhzm/clvdzl
p102
sbasg65
I544214231034249216
sbag3
(g4
g5
Ntp103
Rp104
(dp105
g9
I1
sg10
Nsg11
Nsg12
(lp106
sg14
I00
sg15
Nsg16
Nsg17
(lp107
sg19
Nsg20
Nsg21
Nsg22
VSun Dec 14 19:28:28 +0000 2014
p108
sg24
Nsg25
I00
sg26
Nsg27
Nsg28
Nsg29
Nsg30
I00
sg31
Nsg32
(lp109
sg67
Nsg68
Nsg69
Nsg70
VWant to win Wagner Spray Tech Bundle? I just entered to win &amp; you can too:  http://t.co/9rBZM3pGDm
p110
sg72
I00
sg73
Ven
p111
sg75
g3
(g34
g5
Ntp112
Rp113
(dp114
g10
g79
sg38
V333333
p115
sg39
Ven
p116
sg40
Nsg41
I77
sg42
I1196
sg22
VTue Mar 16 18:44:50 +0000 2010
p117
sg43
I00
sg44
g79
sg45
Vhttps://abs.twimg.com/sticky/default_profile_images/default_profile_3_normal.png
p118
sg46
I958
sg47
I60
sg48
Nsg49
Nsg50
I00
sg51
Nsg52
I00
sg53
I00
sg54
V0084B4
p119
sg55
I00
sg56
I00
sg57
Vhttp://abs.twimg.com/images/themes/theme1/bg.png
p120
sg58
Vmama3curlies
p121
sg60
I0
sg61
Vmay lynn mahler
p122
sg63
VDDEEF6
p123
sg64
Nsg65
I123634696
sg66
VC0DEED
p124
sbsg90
I0
sg91
V<a href="https://dev.twitter.com/docs/tfw" rel="nofollow">Twitter for Websites</a>
p125
sg93
(lp126
g3
(g95
g5
Ntp127
Rp128
(dp129
g99
Vhttp://t.co/9rBZM3pGDm
p130
sg101
Vhttp://is.gd/yMcC0U
p131
sbasg65
I544212342255280128
sbag3
(g4
g5
Ntp132
Rp133
(dp134
g9
I0
sg10
Nsg11
Nsg12
(lp135
sg14
I00
sg15
Nsg16
Nsg17
(lp136
sg19
Nsg20
Nsg21
Nsg22
VSun Dec 14 19:27:24 +0000 2014
p137
sg24
Nsg25
I00
sg26
Nsg27
Nsg28
Nsg29
Nsg30
I00
sg31
Nsg32
(lp138
g3
(g34
g5
Ntp139
Rp140
(dp141
g10
Nsg38
Nsg39
Nsg40
Nsg41
Nsg42
Nsg22
Nsg43
Nsg44
Nsg45
Nsg46
Nsg47
Nsg48
Nsg49
Nsg50
Nsg51
Nsg52
Nsg53
Nsg54
Nsg55
Nsg56
Nsg57
Nsg58
VWagnerSprayTech
p142
sg60
Nsg61
VWagner SprayTech
p143
sg63
Nsg64
Nsg65
I33940024
sg66
Nsbasg67
Nsg68
Nsg69
Nsg70
VI just enter the On The House Paint Your World sponsored by @wagnerspraytech http://t.co/9rBZM3pGDm
p144
sg72
I00
sg73
Ven
p145
sg75
g3
(g34
g5
Ntp146
Rp147
(dp148
g10
g79
sg38
V333333
p149
sg39
Ven
p150
sg40
Nsg41
I77
sg42
I1196
sg22
VTue Mar 16 18:44:50 +0000 2010
p151
sg43
I00
sg44
g79
sg45
Vhttps://abs.twimg.com/sticky/default_profile_images/default_profile_3_normal.png
p152
sg46
I958
sg47
I60
sg48
Nsg49
Nsg50
I00
sg51
Nsg52
I00
sg53
I00
sg54
V0084B4
p153
sg55
I00
sg56
I00
sg57
Vhttp://abs.twimg.com/images/themes/theme1/bg.png
p154
sg58
Vmama3curlies
p155
sg60
I0
sg61
Vmay lynn mahler
p156
sg63
VDDEEF6
p157
sg64
Nsg65
I123634696
sg66
VC0DEED
p158
sbsg90
I0
sg91
V<a href="https://dev.twitter.com/docs/tfw" rel="nofollow">Twitter for Websites</a>
p159
sg93
(lp160
g3
(g95
g5
Ntp161
Rp162
(dp163
g99
Vhttp://t.co/9rBZM3pGDm
p164
sg101
Vhttp://is.gd/yMcC0U
p165
sbasg65
I544212075430416384
sbag3
(g4
g5
Ntp166
Rp167
(dp168
g9
I0
sg10
Nsg11
Nsg12
(lp169
sg14
I00
sg15
Nsg16
Nsg17
(lp170
sg19
Nsg20
Nsg21
Nsg22
VSun Dec 14 18:43:42 +0000 2014
p171
sg24
Nsg25
I00
sg26
Nsg27
Nsg28
Nsg29
Nsg30
I00
sg31
Nsg32
(lp172
sg67
Nsg68
Nsg69
Nsg70
VThe Bays English Muffins Toast to the Holidays Sweepstakes http://t.co/gIg0oHBqHt
p173
sg72
I00
sg73
Ven
p174
sg75
g3
(g34
g5
Ntp175
Rp176
(dp177
g10
g79
sg38
V333333
p178
sg39
Ven
p179
sg40
Nsg41
I77
sg42
I1196
sg22
VTue Mar 16 18:44:50 +0000 2010
p180
sg43
I00
sg44
g79
sg45
Vhttps://abs.twimg.com/sticky/default_profile_images/default_profile_3_normal.png
p181
sg46
I958
sg47
I60
sg48
Nsg49
Nsg50
I00
sg51
Nsg52
I00
sg53
I00
sg54
V0084B4
p182
sg55
I00
sg56
I00
sg57
Vhttp://abs.twimg.com/images/themes/theme1/bg.png
p183
sg58
Vmama3curlies
p184
sg60
I0
sg61
Vmay lynn mahler
p185
sg63
VDDEEF6
p186
sg64
Nsg65
I123634696
sg66
VC0DEED
p187
sbsg90
I0
sg91
V<a href="https://dev.twitter.com/docs/tfw" rel="nofollow">Twitter for Websites</a>
p188
sg93
(lp189
g3
(g95
g5
Ntp190
Rp191
(dp192
g99
Vhttp://t.co/gIg0oHBqHt
p193
sg101
Vhttp://woobox.com/cesy7x/clubjl
p194
sbasg65
I544201077705289728
sbag3
(g4
g5
Ntp195
Rp196
(dp197
g9
I0
sg10
Nsg11
Nsg12
(lp198
sg14
I00
sg15
Nsg16
Nsg17
(lp199
sg19
Nsg20
Nsg21
Nsg22
VSun Dec 14 18:30:07 +0000 2014
p200
sg24
Nsg25
I00
sg26
Nsg27
Nsg28
Nsg29
Nsg30
I00
sg31
Nsg32
(lp201
sg67
Nsg68
Nsg69
Nsg70
VContigo's 12 Days of Giveaways http://t.co/CzjvxITF0T
p202
sg72
I00
sg73
Ven
p203
sg75
g3
(g34
g5
Ntp204
Rp205
(dp206
g10
g79
sg38
V333333
p207
sg39
Ven
p208
sg40
Nsg41
I77
sg42
I1196
sg22
VTue Mar 16 18:44:50 +0000 2010
p209
sg43
I00
sg44
g79
sg45
Vhttps://abs.twimg.com/sticky/default_profile_images/default_profile_3_normal.png
p210
sg46
I958
sg47
I60
sg48
Nsg49
Nsg50
I00
sg51
Nsg52
I00
sg53
I00
sg54
V0084B4
p211
sg55
I00
sg56
I00
sg57
Vhttp://abs.twimg.com/images/themes/theme1/bg.png
p212
sg58
Vmama3curlies
p213
sg60
I0
sg61
Vmay lynn mahler
p214
sg63
VDDEEF6
p215
sg64
Nsg65
I123634696
sg66
VC0DEED
p216
sbsg90
I0
sg91
V<a href="https://dev.twitter.com/docs/tfw" rel="nofollow">Twitter for Websites</a>
p217
sg93
(lp218
g3
(g95
g5
Ntp219
Rp220
(dp221
g99
Vhttp://t.co/CzjvxITF0T
p222
sg101
Vhttp://woobox.com/yzxmsf/cltvir
p223
sbasg65
I544197660589060096
sbag3
(g4
g5
Ntp224
Rp225
(dp226
g9
I0
sg10
Nsg11
Nsg12
(lp227
g3
(ctwitter.hashtag
Hashtag
p228
g5
Ntp229
Rp230
(dp231
S'text'
p232
VRogersCoffeeGifts
p233
sbasg14
I00
sg15
Nsg16
Nsg17
(lp234
sg19
Nsg20
Nsg21
Nsg22
VSun Dec 14 18:27:15 +0000 2014
p235
sg24
Nsg25
I00
sg26
Nsg27
Nsg28
Nsg29
Nsg30
I00
sg31
Nsg32
(lp236
g3
(g34
g5
Ntp237
Rp238
(dp239
g10
Nsg38
Nsg39
Nsg40
Nsg41
Nsg42
Nsg22
Nsg43
Nsg44
Nsg45
Nsg46
Nsg47
Nsg48
Nsg49
Nsg50
Nsg51
Nsg52
Nsg53
Nsg54
Nsg55
Nsg56
Nsg57
Nsg58
Vrogerscoffee
p240
sg60
Nsg61
VRogers Family Coffee
p241
sg63
Nsg64
Nsg65
I64466020
sg66
Nsbasg67
Nsg68
Nsg69
Nsg70
VI entered the 20 Days of Christmas giveaway from @RogersCoffee. Check it out New winner every day. #RogersCoffeeGifts http://t.co/WKpB0GfLKe
p242
sg72
I00
sg73
Ven
p243
sg75
g3
(g34
g5
Ntp244
Rp245
(dp246
g10
g79
sg38
V333333
p247
sg39
Ven
p248
sg40
Nsg41
I77
sg42
I1196
sg22
VTue Mar 16 18:44:50 +0000 2010
p249
sg43
I00
sg44
g79
sg45
Vhttps://abs.twimg.com/sticky/default_profile_images/default_profile_3_normal.png
p250
sg46
I958
sg47
I60
sg48
Nsg49
Nsg50
I00
sg51
Nsg52
I00
sg53
I00
sg54
V0084B4
p251
sg55
I00
sg56
I00
sg57
Vhttp://abs.twimg.com/images/themes/theme1/bg.png
p252
sg58
Vmama3curlies
p253
sg60
I0
sg61
Vmay lynn mahler
p254
sg63
VDDEEF6
p255
sg64
Nsg65
I123634696
sg66
VC0DEED
p256
sbsg90
I0
sg91
V<a href="https://dev.twitter.com/docs/tfw" rel="nofollow">Twitter for Websites</a>
p257
sg93
(lp258
g3
(g95
g5
Ntp259
Rp260
(dp261
g99
Vhttp://t.co/WKpB0GfLKe
p262
sg101
Vhttp://woobox.com/specsk/cltu1q
p263
sbasg65
I544196937327448064
sbag3
(g4
g5
Ntp264
Rp265
(dp266
g9
I0
sg10
Nsg11
Nsg12
(lp267
g3
(g228
g5
Ntp268
Rp269
(dp270
g232
VBigLots
p271
sbag3
(g228
g5
Ntp272
Rp273
(dp274
g232
VChristmasLikeCrazy
p275
sbasg14
I00
sg15
Nsg16
Nsg17
(lp276
sg19
Nsg20
Nsg21
Nsg22
VSun Dec 14 03:07:46 +0000 2014
p277
sg24
Nsg25
I00
sg26
Nsg27
Nsg28
Nsg29
Nsg30
I00
sg31
Nsg32
(lp278
sg67
Nsg68
Nsg69
Nsg70
VI just entered the #BigLots #ChristmasLikeCrazy Sweeps for a chance to win! You should too &amp; I'll get a bonus entry! https://t.co/ByB9MK1im1
p279
sg72
I00
sg73
Ven
p280
sg75
g3
(g34
g5
Ntp281
Rp282
(dp283
g10
g79
sg38
V333333
p284
sg39
Ven
p285
sg40
Nsg41
I77
sg42
I1196
sg22
VTue Mar 16 18:44:50 +0000 2010
p286
sg43
I00
sg44
g79
sg45
Vhttps://abs.twimg.com/sticky/default_profile_images/default_profile_3_normal.png
p287
sg46
I958
sg47
I60
sg48
Nsg49
Nsg50
I00
sg51
Nsg52
I00
sg53
I00
sg54
V0084B4
p288
sg55
I00
sg56
I00
sg57
Vhttp://abs.twimg.com/images/themes/theme1/bg.png
p289
sg58
Vmama3curlies
p290
sg60
I0
sg61
Vmay lynn mahler
p291
sg63
VDDEEF6
p292
sg64
Nsg65
I123634696
sg66
VC0DEED
p293
sbsg90
I0
sg91
V<a href="https://dev.twitter.com/docs/tfw" rel="nofollow">Twitter for Websites</a>
p294
sg93
(lp295
g3
(g95
g5
Ntp296
Rp297
(dp298
g99
Vhttps://t.co/ByB9MK1im1
p299
sg101
Vhttps://biglotspromos.com/christmascrazy/?source=twitter_share&id=5328
p300
sbasg65
I543965543959523328
sbag3
(g4
g5
Ntp301
Rp302
(dp303
g9
I0
sg10
Nsg11
Nsg12
(lp304
sg14
I00
sg15
Nsg16
Nsg17
(lp305
sg19
Nsg20
Nsg21
Nsg22
VSun Dec 14 02:33:49 +0000 2014
p306
sg24
Nsg25
I00
sg26
Nsg27
Nsg28
Nsg29
Nsg30
I00
sg31
Nsg32
(lp307
sg67
Nsg68
Nsg69
Nsg70
VHelp me win this awesome hot tub from Bullfrog Spas! https://t.co/mEYsdYD3rV
p308
sg72
I00
sg73
Ven
p309
sg75
g3
(g34
g5
Ntp310
Rp311
(dp312
g10
g79
sg38
V333333
p313
sg39
Ven
p314
sg40
Nsg41
I77
sg42
I1196
sg22
VTue Mar 16 18:44:50 +0000 2010
p315
sg43
I00
sg44
g79
sg45
Vhttps://abs.twimg.com/sticky/default_profile_images/default_profile_3_normal.png
p316
sg46
I958
sg47
I60
sg48
Nsg49
Nsg50
I00
sg51
Nsg52
I00
sg53
I00
sg54
V0084B4
p317
sg55
I00
sg56
I00
sg57
Vhttp://abs.twimg.com/images/themes/theme1/bg.png
p318
sg58
Vmama3curlies
p319
sg60
I0
sg61
Vmay lynn mahler
p320
sg63
VDDEEF6
p321
sg64
Nsg65
I123634696
sg66
VC0DEED
p322
sbsg90
I0
sg91
V<a href="https://dev.twitter.com/docs/tfw" rel="nofollow">Twitter for Websites</a>
p323
sg93
(lp324
g3
(g95
g5
Ntp325
Rp326
(dp327
g99
Vhttps://t.co/mEYsdYD3rV
p328
sg101
Vhttps://gleam.io/W2Uw1-la3R0X
p329
sbasg65
I543956999872847872
sbag3
(g4
g5
Ntp330
Rp331
(dp332
g9
I0
sg10
Nsg11
Nsg12
(lp333
g3
(g228
g5
Ntp334
Rp335
(dp336
g232
V12daysofbenefit
p337
sbasg14
I00
sg15
g3
(g4
g5
Ntp338
Rp339
(dp340
g9
I184
sg10
Nsg11
Nsg12
(lp341
g3
(g228
g5
Ntp342
Rp343
(dp344
g232
V12daysofbenefit
p345
sbasg14
I00
sg15
Nsg16
Nsg17
(lp346
sg19
Nsg20
Nsg21
Nsg22
VSat Dec 13 14:02:42 +0000 2014
p347
sg24
Nsg25
I00
sg26
Nsg27
Nsg28
Nsg29
Nsg30
I00
sg31
Nsg32
(lp348
g3
(g34
g5
Ntp349
Rp350
(dp351
g10
Nsg38
Nsg39
Nsg40
Nsg41
Nsg42
Nsg22
Nsg43
Nsg44
Nsg45
Nsg46
Nsg47
Nsg48
Nsg49
Nsg50
Nsg51
Nsg52
Nsg53
Nsg54
Nsg55
Nsg56
Nsg57
Nsg58
VBenefitBeauty
p352
sg60
Nsg61
VBenefit Cosmetics
p353
sg63
Nsg64
Nsg65
I18220767
sg66
Nsbag3
(g34
g5
Ntp354
Rp355
(dp356
g10
Nsg38
Nsg39
Nsg40
Nsg41
Nsg42
Nsg22
Nsg43
Nsg44
Nsg45
Nsg46
Nsg47
Nsg48
Nsg49
Nsg50
Nsg51
Nsg52
Nsg53
Nsg54
Nsg55
Nsg56
Nsg57
Nsg58
VAthleta
p357
sg60
Nsg61
VAthleta
p358
sg63
Nsg64
Nsg65
I18462632
sg66
Nsbasg67
Nsg68
Nsg69
Nsg70
VRT &amp; follow @BenefitBeauty &amp; @Athleta for a chance to win a $500 gym-fabulous prize pack! #12daysofbenefit http://t.co/3W0EzAC8Og
p359
sg72
I00
sg73
Ven
p360
sg75
g3
(g34
g5
Ntp361
Rp362
(dp363
g10
VSan Francisco, CA
p364
sg38
V74A39A
p365
sg39
Ven
p366
sg40
VPacific Time (US & Canada)
p367
sg41
I431514
sg42
I29141
sg22
VThu Dec 18 18:14:32 +0000 2008
p368
sg43
I01
sg44
VThe official twitter of Benefit Cosmetics. Laughter is the best cosmetic!
p369
sg45
Vhttps://pbs.twimg.com/profile_images/2219271581/profile_normal.jpg
p370
sg46
I2131
sg47
I27334
sg48
I-28800
sg49
Nsg50
I00
sg51
Vhttps://pbs.twimg.com/profile_banners/18220767/1401401087
p371
sg52
I00
sg53
I00
sg54
VF16B95
p372
sg55
I01
sg56
I00
sg57
Vhttp://pbs.twimg.com/profile_background_images/378800000001354083/0386982dda99fecbd7407b7b0e82a62b.jpeg
p373
sg58
VBenefitBeauty
p374
sg60
I2657
sg61
VBenefit Cosmetics
p375
sg63
VF5F5F5
p376
sg64
Vhttp://t.co/FKn6v7mXzI
p377
sg65
I18220767
sg66
VFFFFFF
p378
sbsg90
I833
sg91
V<a href="http://www.offerpop.com" rel="nofollow">Offerpop Apps</a>
p379
sg93
(lp380
g3
(g95
g5
Ntp381
Rp382
(dp383
g99
Vhttp://t.co/3W0EzAC8Og
p384
sg101
Vhttp://bit.ly/1vOv31b
p385
sbasg65
I543767974981931008
sbsg16
Nsg17
(lp386
sg19
Nsg20
Nsg21
Nsg22
VSat Dec 13 23:18:50 +0000 2014
p387
sg24
Nsg25
I00
sg26
Nsg27
Nsg28
Nsg29
Nsg30
I00
sg31
Nsg32
(lp388
g3
(g34
g5
Ntp389
Rp390
(dp391
g10
Nsg38
Nsg39
Nsg40
Nsg41
Nsg42
Nsg22
Nsg43
Nsg44
Nsg45
Nsg46
Nsg47
Nsg48
Nsg49
Nsg50
Nsg51
Nsg52
Nsg53
Nsg54
Nsg55
Nsg56
Nsg57
Nsg58
VBenefitBeauty
p392
sg60
Nsg61
VBenefit Cosmetics
p393
sg63
Nsg64
Nsg65
I18220767
sg66
Nsbag3
(g34
g5
Ntp394
Rp395
(dp396
g10
Nsg38
Nsg39
Nsg40
Nsg41
Nsg42
Nsg22
Nsg43
Nsg44
Nsg45
Nsg46
Nsg47
Nsg48
Nsg49
Nsg50
Nsg51
Nsg52
Nsg53
Nsg54
Nsg55
Nsg56
Nsg57
Nsg58
VBenefitBeauty
p397
sg60
Nsg61
VBenefit Cosmetics
p398
sg63
Nsg64
Nsg65
I18220767
sg66
Nsbag3
(g34
g5
Ntp399
Rp400
(dp401
g10
Nsg38
Nsg39
Nsg40
Nsg41
Nsg42
Nsg22
Nsg43
Nsg44
Nsg45
Nsg46
Nsg47
Nsg48
Nsg49
Nsg50
Nsg51
Nsg52
Nsg53
Nsg54
Nsg55
Nsg56
Nsg57
Nsg58
VAthleta
p402
sg60
Nsg61
VAthleta
p403
sg63
Nsg64
Nsg65
I18462632
sg66
Nsbasg67
Nsg68
Nsg69
Nsg70
VRT @BenefitBeauty: RT &amp; follow @BenefitBeauty &amp; @Athleta for a chance to win a $500 gym-fabulous prize pack! #12daysofbenefit http://t.co/3\u2026
p404
sg72
I00
sg73
Ven
p405
sg75
g3
(g34
g5
Ntp406
Rp407
(dp408
g10
g79
sg38
V333333
p409
sg39
Ven
p410
sg40
Nsg41
I77
sg42
I1196
sg22
VTue Mar 16 18:44:50 +0000 2010
p411
sg43
I00
sg44
g79
sg45
Vhttps://abs.twimg.com/sticky/default_profile_images/default_profile_3_normal.png
p412
sg46
I958
sg47
I60
sg48
Nsg49
Nsg50
I00
sg51
Nsg52
I00
sg53
I00
sg54
V0084B4
p413
sg55
I00
sg56
I00
sg57
Vhttp://abs.twimg.com/images/themes/theme1/bg.png
p414
sg58
Vmama3curlies
p415
sg60
I0
sg61
Vmay lynn mahler
p416
sg63
VDDEEF6
p417
sg64
Nsg65
I123634696
sg66
VC0DEED
p418
sbsg90
I833
sg91
V<a href="http://twitter.com" rel="nofollow">Twitter Web Client</a>
p419
sg93
(lp420
g3
(g95
g5
Ntp421
Rp422
(dp423
g99
Vhttp://t.co/3W0EzAC8Og
p424
sg101
Vhttp://bit.ly/1vOv31b
p425
sbasg65
I543907931154948096
sbag3
(g4
g5
Ntp426
Rp427
(dp428
g9
I0
sg10
Nsg11
Nsg12
(lp429
sg14
I00
sg15
Nsg16
Nsg17
(lp430
sg19
Nsg20
Nsg21
Nsg22
VSat Dec 13 23:15:37 +0000 2014
p431
sg24
Nsg25
I00
sg26
Nsg27
Nsg28
Nsg29
Nsg30
I00
sg31
Nsg32
(lp432
sg67
Nsg68
Nsg69
Nsg70
VEnter Joico's 12 Days of Holy Jolly Giveaways! http://t.co/Fxl2T2UdvD
p433
sg72
I00
sg73
Ven
p434
sg75
g3
(g34
g5
Ntp435
Rp436
(dp437
g10
g79
sg38
V333333
p438
sg39
Ven
p439
sg40
Nsg41
I77
sg42
I1196
sg22
VTue Mar 16 18:44:50 +0000 2010
p440
sg43
I00
sg44
g79
sg45
Vhttps://abs.twimg.com/sticky/default_profile_images/default_profile_3_normal.png
p441
sg46
I958
sg47
I60
sg48
Nsg49
Nsg50
I00
sg51
Nsg52
I00
sg53
I00
sg54
V0084B4
p442
sg55
I00
sg56
I00
sg57
Vhttp://abs.twimg.com/images/themes/theme1/bg.png
p443
sg58
Vmama3curlies
p444
sg60
I0
sg61
Vmay lynn mahler
p445
sg63
VDDEEF6
p446
sg64
Nsg65
I123634696
sg66
VC0DEED
p447
sbsg90
I0
sg91
V<a href="https://dev.twitter.com/docs/tfw" rel="nofollow">Twitter for Websites</a>
p448
sg93
(lp449
g3
(g95
g5
Ntp450
Rp451
(dp452
g99
Vhttp://t.co/Fxl2T2UdvD
p453
sg101
Vhttp://joico.pgtb.me/v8qP9n/gQbfM?w=30134117&e=79076210
p454
sbasg65
I543907119037022210
sbag3
(g4
g5
Ntp455
Rp456
(dp457
g9
I0
sg10
Nsg11
Nsg12
(lp458
sg14
I00
sg15
Nsg16
Nsg17
(lp459
sg19
Nsg20
Nsg21
Nsg22
VSat Dec 13 23:08:11 +0000 2014
p460
sg24
Nsg25
I00
sg26
Nsg27
Nsg28
Nsg29
Nsg30
I00
sg31
Nsg32
(lp461
sg67
Nsg68
Nsg69
Nsg70
VWinalimited-edition Hammitt Ahandmade,special-editionbag,reflectingthe craftsmanship&amp;timeless stylingofStearns&amp;Foster http://t.co/fjnuH3mdtz
p462
sg72
I00
sg73
Ven
p463
sg75
g3
(g34
g5
Ntp464
Rp465
(dp466
g10
g79
sg38
V333333
p467
sg39
Ven
p468
sg40
Nsg41
I77
sg42
I1196
sg22
VTue Mar 16 18:44:50 +0000 2010
p469
sg43
I00
sg44
g79
sg45
Vhttps://abs.twimg.com/sticky/default_profile_images/default_profile_3_normal.png
p470
sg46
I958
sg47
I60
sg48
Nsg49
Nsg50
I00
sg51
Nsg52
I00
sg53
I00
sg54
V0084B4
p471
sg55
I00
sg56
I00
sg57
Vhttp://abs.twimg.com/images/themes/theme1/bg.png
p472
sg58
Vmama3curlies
p473
sg60
I0
sg61
Vmay lynn mahler
p474
sg63
VDDEEF6
p475
sg64
Nsg65
I123634696
sg66
VC0DEED
p476
sbsg90
I0
sg91
V<a href="https://dev.twitter.com/docs/tfw" rel="nofollow">Twitter for Websites</a>
p477
sg93
(lp478
g3
(g95
g5
Ntp479
Rp480
(dp481
g99
Vhttp://t.co/fjnuH3mdtz
p482
sg101
Vhttp://woobox.com/yskqsw/cl78a5
p483
sbasg65
I543905250478784513
sbag3
(g4
g5
Ntp484
Rp485
(dp486
g9
I0
sg10
Nsg11
Nsg12
(lp487
g3
(g228
g5
Ntp488
Rp489
(dp490
g232
VKayHolidayPromo
p491
sbasg14
I00
sg15
Nsg16
Nsg17
(lp492
sg19
Nsg20
Nsg21
Nsg22
VSat Dec 13 23:00:23 +0000 2014
p493
sg24
Nsg25
I00
sg26
Nsg27
Nsg28
Nsg29
Nsg30
I00
sg31
Nsg32
(lp494
g3
(g34
g5
Ntp495
Rp496
(dp497
g10
Nsg38
Nsg39
Nsg40
Nsg41
Nsg42
Nsg22
Nsg43
Nsg44
Nsg45
Nsg46
Nsg47
Nsg48
Nsg49
Nsg50
Nsg51
Nsg52
Nsg53
Nsg54
Nsg55
Nsg56
Nsg57
Nsg58
VKayJewelers
p498
sg60
Nsg61
VKay Jewelers
p499
sg63
Nsg64
Nsg65
I482425439
sg66
Nsbasg67
Nsg68
Nsg69
Nsg70
VI just entered to win this from @KayJewelers! No pur nec. Ends 12/14. 18+. #KayHolidayPromo http://t.co/BzGF5rA5BI
p500
sg72
I00
sg73
Ven
p501
sg75
g3
(g34
g5
Ntp502
Rp503
(dp504
g10
g79
sg38
V333333
p505
sg39
Ven
p506
sg40
Nsg41
I77
sg42
I1196
sg22
VTue Mar 16 18:44:50 +0000 2010
p507
sg43
I00
sg44
g79
sg45
Vhttps://abs.twimg.com/sticky/default_profile_images/default_profile_3_normal.png
p508
sg46
I958
sg47
I60
sg48
Nsg49
Nsg50
I00
sg51
Nsg52
I00
sg53
I00
sg54
V0084B4
p509
sg55
I00
sg56
I00
sg57
Vhttp://abs.twimg.com/images/themes/theme1/bg.png
p510
sg58
Vmama3curlies
p511
sg60
I0
sg61
Vmay lynn mahler
p512
sg63
VDDEEF6
p513
sg64
Nsg65
I123634696
sg66
VC0DEED
p514
sbsg90
I0
sg91
V<a href="https://dev.twitter.com/docs/tfw" rel="nofollow">Twitter for Websites</a>
p515
sg93
(lp516
g3
(g95
g5
Ntp517
Rp518
(dp519
g99
Vhttp://t.co/BzGF5rA5BI
p520
sg101
Vhttp://bit.ly/15Scd14
p521
sbasg65
I543903288119156736
sbag3
(g4
g5
Ntp522
Rp523
(dp524
g9
I0
sg10
Nsg11
Nsg12
(lp525
sg14
I00
sg15
Nsg16
Nsg17
(lp526
sg19
Nsg20
Nsg21
Nsg22
VSat Dec 13 22:55:41 +0000 2014
p527
sg24
Nsg25
I00
sg26
Nsg27
Nsg28
Nsg29
Nsg30
I00
sg31
Nsg32
(lp528
sg67
Nsg68
Nsg69
Nsg70
Vhttp://t.co/wtGZLZRhWl is giving away a LG 50 " LED HDTV! http://t.co/8wutibfmkX
p529
sg72
I00
sg73
Ven
p530
sg75
g3
(g34
g5
Ntp531
Rp532
(dp533
g10
g79
sg38
V333333
p534
sg39
Ven
p535
sg40
Nsg41
I77
sg42
I1196
sg22
VTue Mar 16 18:44:50 +0000 2010
p536
sg43
I00
sg44
g79
sg45
Vhttps://abs.twimg.com/sticky/default_profile_images/default_profile_3_normal.png
p537
sg46
I958
sg47
I60
sg48
Nsg49
Nsg50
I00
sg51
Nsg52
I00
sg53
I00
sg54
V0084B4
p538
sg55
I00
sg56
I00
sg57
Vhttp://abs.twimg.com/images/themes/theme1/bg.png
p539
sg58
Vmama3curlies
p540
sg60
I0
sg61
Vmay lynn mahler
p541
sg63
VDDEEF6
p542
sg64
Nsg65
I123634696
sg66
VC0DEED
p543
sbsg90
I0
sg91
V<a href="https://dev.twitter.com/docs/tfw" rel="nofollow">Twitter for Websites</a>
p544
sg93
(lp545
g3
(g95
g5
Ntp546
Rp547
(dp548
g99
Vhttp://t.co/wtGZLZRhWl
p549
sg101
Vhttp://BeachCamera.com
p550
sbag3
(g95
g5
Ntp551
Rp552
(dp553
g99
Vhttp://t.co/8wutibfmkX
p554
sg101
Vhttp://woobox.com/9emsot/c8m1e8
p555
sbasg65
I543902106210410498
sbag3
(g4
g5
Ntp556
Rp557
(dp558
g9
I0
sg10
Nsg11
Nsg12
(lp559
g3
(g228
g5
Ntp560
Rp561
(dp562
g232
Vsomemoney
p563
sbag3
(g228
g5
Ntp564
Rp565
(dp566
g232
VSpon
p567
sbasg14
I00
sg15
Nsg16
Nsg17
(lp568
sg19
Nsg20
Nsg21
Nsg22
VSat Dec 13 22:24:45 +0000 2014
p569
sg24
Nsg25
I00
sg26
Nsg27
Nsg28
Nsg29
Nsg30
I00
sg31
Nsg32
(lp570
g3
(g34
g5
Ntp571
Rp572
(dp573
g10
Nsg38
Nsg39
Nsg40
Nsg41
Nsg42
Nsg22
Nsg43
Nsg44
Nsg45
Nsg46
Nsg47
Nsg48
Nsg49
Nsg50
Nsg51
Nsg52
Nsg53
Nsg54
Nsg55
Nsg56
Nsg57
Nsg58
VRetailMeNot
p574
sg60
Nsg61
VRetailMeNot.com
p575
sg63
Nsg64
Nsg65
I14655879
sg66
Nsbasg67
Nsg68
Nsg69
Nsg70
VWin #somemoney from @RetailMeNot\u2014$250,000 total, $10,000 grand prizes &amp; over 5,000 winners! Enter here. #Spon http://t.co/4oKlptiZ1d
p576
sg72
I00
sg73
Ven
p577
sg75
g3
(g34
g5
Ntp578
Rp579
(dp580
g10
g79
sg38
V333333
p581
sg39
Ven
p582
sg40
Nsg41
I77
sg42
I1196
sg22
VTue Mar 16 18:44:50 +0000 2010
p583
sg43
I00
sg44
g79
sg45
Vhttps://abs.twimg.com/sticky/default_profile_images/default_profile_3_normal.png
p584
sg46
I958
sg47
I60
sg48
Nsg49
Nsg50
I00
sg51
Nsg52
I00
sg53
I00
sg54
V0084B4
p585
sg55
I00
sg56
I00
sg57
Vhttp://abs.twimg.com/images/themes/theme1/bg.png
p586
sg58
Vmama3curlies
p587
sg60
I0
sg61
Vmay lynn mahler
p588
sg63
VDDEEF6
p589
sg64
Nsg65
I123634696
sg66
VC0DEED
p590
sbsg90
I0
sg91
V<a href="https://dev.twitter.com/docs/tfw" rel="nofollow">Twitter for Websites</a>
p591
sg93
(lp592
g3
(g95
g5
Ntp593
Rp594
(dp595
g99
Vhttp://t.co/4oKlptiZ1d
p596
sg101
Vhttp://bit.ly/1ylnyPC
p597
sbasg65
I543894318465818624
sbag3
(g4
g5
Ntp598
Rp599
(dp600
g9
I0
sg10
Nsg11
Nsg12
(lp601
sg14
I00
sg15
Nsg16
Nsg17
(lp602
sg19
Nsg20
Nsg21
Nsg22
VSat Dec 13 22:01:54 +0000 2014
p603
sg24
Nsg25
I00
sg26
Nsg27
Nsg28
Nsg29
Nsg30
I00
sg31
Nsg32
(lp604
sg67
Nsg68
Nsg69
Nsg70
VWIN a Dior Travel Brush Set and Golden Shock Lipstick https://t.co/lq4tkQt9w3
p605
sg72
I00
sg73
Ven
p606
sg75
g3
(g34
g5
Ntp607
Rp608
(dp609
g10
g79
sg38
V333333
p610
sg39
Ven
p611
sg40
Nsg41
I77
sg42
I1196
sg22
VTue Mar 16 18:44:50 +0000 2010
p612
sg43
I00
sg44
g79
sg45
Vhttps://abs.twimg.com/sticky/default_profile_images/default_profile_3_normal.png
p613
sg46
I958
sg47
I60
sg48
Nsg49
Nsg50
I00
sg51
Nsg52
I00
sg53
I00
sg54
V0084B4
p614
sg55
I00
sg56
I00
sg57
Vhttp://abs.twimg.com/images/themes/theme1/bg.png
p615
sg58
Vmama3curlies
p616
sg60
I0
sg61
Vmay lynn mahler
p617
sg63
VDDEEF6
p618
sg64
Nsg65
I123634696
sg66
VC0DEED
p619
sbsg90
I0
sg91
V<a href="https://dev.twitter.com/docs/tfw" rel="nofollow">Twitter for Websites</a>
p620
sg93
(lp621
g3
(g95
g5
Ntp622
Rp623
(dp624
g99
Vhttps://t.co/lq4tkQt9w3
p625
sg101
Vhttps://gleam.io/qbzc5-la3R0X
p626
sbasg65
I543888569010384896
sbag3
(g4
g5
Ntp627
Rp628
(dp629
g9
I0
sg10
Nsg11
Nsg12
(lp630
g3
(g228
g5
Ntp631
Rp632
(dp633
g232
VFREE
p634
sbasg14
I00
sg15
Nsg16
Nsg17
(lp635
sg19
Nsg20
Nsg21
Nsg22
VSat Dec 13 21:50:56 +0000 2014
p636
sg24
Nsg25
I00
sg26
Nsg27
Nsg28
Nsg29
Nsg30
I00
sg31
Nsg32
(lp637
g3
(g34
g5
Ntp638
Rp639
(dp640
g10
Nsg38
Nsg39
Nsg40
Nsg41
Nsg42
Nsg22
Nsg43
Nsg44
Nsg45
Nsg46
Nsg47
Nsg48
Nsg49
Nsg50
Nsg51
Nsg52
Nsg53
Nsg54
Nsg55
Nsg56
Nsg57
Nsg58
VNonnisBiscotti
p641
sg60
Nsg61
VNonnis Biscotti
p642
sg63
Nsg64
Nsg65
I78663561
sg66
Nsbasg67
Nsg68
Nsg69
Nsg70
VShare why you think this is the most wonderful time of the year and enter to win a #FREE box of @NonnisBiscotti! http://t.co/ir32Zh72R6
p643
sg72
I00
sg73
Ven
p644
sg75
g3
(g34
g5
Ntp645
Rp646
(dp647
g10
g79
sg38
V333333
p648
sg39
Ven
p649
sg40
Nsg41
I77
sg42
I1196
sg22
VTue Mar 16 18:44:50 +0000 2010
p650
sg43
I00
sg44
g79
sg45
Vhttps://abs.twimg.com/sticky/default_profile_images/default_profile_3_normal.png
p651
sg46
I958
sg47
I60
sg48
Nsg49
Nsg50
I00
sg51
Nsg52
I00
sg53
I00
sg54
V0084B4
p652
sg55
I00
sg56
I00
sg57
Vhttp://abs.twimg.com/images/themes/theme1/bg.png
p653
sg58
Vmama3curlies
p654
sg60
I0
sg61
Vmay lynn mahler
p655
sg63
VDDEEF6
p656
sg64
Nsg65
I123634696
sg66
VC0DEED
p657
sbsg90
I0
sg91
V<a href="https://dev.twitter.com/docs/tfw" rel="nofollow">Twitter for Websites</a>
p658
sg93
(lp659
g3
(g95
g5
Ntp660
Rp661
(dp662
g99
Vhttp://t.co/ir32Zh72R6
p663
sg101
Vhttp://woobox.com/kcm285/ckrnyd
p664
sbasg65
I543885807820349441
sbag3
(g4
g5
Ntp665
Rp666
(dp667
g9
I0
sg10
Nsg11
Nsg12
(lp668
g3
(g228
g5
Ntp669
Rp670
(dp671
g232
VRogersCoffeeGifts
p672
sbasg14
I00
sg15
Nsg16
Nsg17
(lp673
sg19
Nsg20
Nsg21
Nsg22
VSat Dec 13 21:50:00 +0000 2014
p674
sg24
Nsg25
I00
sg26
Nsg27
Nsg28
Nsg29
Nsg30
I00
sg31
Nsg32
(lp675
g3
(g34
g5
Ntp676
Rp677
(dp678
g10
Nsg38
Nsg39
Nsg40
Nsg41
Nsg42
Nsg22
Nsg43
Nsg44
Nsg45
Nsg46
Nsg47
Nsg48
Nsg49
Nsg50
Nsg51
Nsg52
Nsg53
Nsg54
Nsg55
Nsg56
Nsg57
Nsg58
Vrogerscoffee
p679
sg60
Nsg61
VRogers Family Coffee
p680
sg63
Nsg64
Nsg65
I64466020
sg66
Nsbasg67
Nsg68
Nsg69
Nsg70
VI entered the 20 Days of Christmas giveaway from @RogersCoffee. Check it out New winner every day. #RogersCoffeeGifts http://t.co/vnAatVIocM
p681
sg72
I00
sg73
Ven
p682
sg75
g3
(g34
g5
Ntp683
Rp684
(dp685
g10
g79
sg38
V333333
p686
sg39
Ven
p687
sg40
Nsg41
I77
sg42
I1196
sg22
VTue Mar 16 18:44:50 +0000 2010
p688
sg43
I00
sg44
g79
sg45
Vhttps://abs.twimg.com/sticky/default_profile_images/default_profile_3_normal.png
p689
sg46
I958
sg47
I60
sg48
Nsg49
Nsg50
I00
sg51
Nsg52
I00
sg53
I00
sg54
V0084B4
p690
sg55
I00
sg56
I00
sg57
Vhttp://abs.twimg.com/images/themes/theme1/bg.png
p691
sg58
Vmama3curlies
p692
sg60
I0
sg61
Vmay lynn mahler
p693
sg63
VDDEEF6
p694
sg64
Nsg65
I123634696
sg66
VC0DEED
p695
sbsg90
I0
sg91
V<a href="https://dev.twitter.com/docs/tfw" rel="nofollow">Twitter for Websites</a>
p696
sg93
(lp697
g3
(g95
g5
Ntp698
Rp699
(dp700
g99
Vhttp://t.co/vnAatVIocM
p701
sg101
Vhttp://woobox.com/9fmndh/cl5r4z
p702
sbasg65
I543885576449978368
sbag3
(g4
g5
Ntp703
Rp704
(dp705
g9
I0
sg10
Nsg11
Nsg12
(lp706
g3
(g228
g5
Ntp707
Rp708
(dp709
g232
VPopUpSantaSweepsEntry
p710
sbasg14
I00
sg15
Nsg16
Nsg17
(lp711
sg19
Nsg20
Nsg21
Nsg22
VSat Dec 13 21:32:33 +0000 2014
p712
sg24
Nsg25
I00
sg26
Nsg27
Nsg28
Nsg29
Nsg30
I00
sg31
Nsg32
(lp713
g3
(g34
g5
Ntp714
Rp715
(dp716
g10
Nsg38
Nsg39
Nsg40
Nsg41
Nsg42
Nsg22
Nsg43
Nsg44
Nsg45
Nsg46
Nsg47
Nsg48
Nsg49
Nsg50
Nsg51
Nsg52
Nsg53
Nsg54
Nsg55
Nsg56
Nsg57
Nsg58
VABCF25days
p717
sg60
Nsg61
V25 Days of Christmas
p718
sg63
Nsg64
Nsg65
I91432615
sg66
Nsbasg67
Nsg68
Nsg69
Nsg70
VI just entered @ABCF25Days Pop Up Santa Sweepstakes! #PopUpSantaSweepsEntry http://t.co/vWvNEKORkE
p719
sg72
I00
sg73
Ven
p720
sg75
g3
(g34
g5
Ntp721
Rp722
(dp723
g10
g79
sg38
V333333
p724
sg39
Ven
p725
sg40
Nsg41
I77
sg42
I1196
sg22
VTue Mar 16 18:44:50 +0000 2010
p726
sg43
I00
sg44
g79
sg45
Vhttps://abs.twimg.com/sticky/default_profile_images/default_profile_3_normal.png
p727
sg46
I958
sg47
I60
sg48
Nsg49
Nsg50
I00
sg51
Nsg52
I00
sg53
I00
sg54
V0084B4
p728
sg55
I00
sg56
I00
sg57
Vhttp://abs.twimg.com/images/themes/theme1/bg.png
p729
sg58
Vmama3curlies
p730
sg60
I0
sg61
Vmay lynn mahler
p731
sg63
VDDEEF6
p732
sg64
Nsg65
I123634696
sg66
VC0DEED
p733
sbsg90
I0
sg91
V<a href="https://dev.twitter.com/docs/tfw" rel="nofollow">Twitter for Websites</a>
p734
sg93
(lp735
g3
(g95
g5
Ntp736
Rp737
(dp738
g99
Vhttp://t.co/vWvNEKORkE
p739
sg101
Vhttp://www.popupsanta.tv/day/13/sweepstakes
p740
sbasg65
I543881181662433280
sbag3
(g4
g5
Ntp741
Rp742
(dp743
g9
I0
sg10
Nsg11
Nsg12
(lp744
sg14
I00
sg15
Nsg16
Nsg17
(lp745
sg19
Nsg20
Nsg21
Nsg22
VSat Dec 13 17:01:31 +0000 2014
p746
sg24
Nsg25
I00
sg26
Nsg27
Nsg28
Nsg29
Nsg30
I00
sg31
Nsg32
(lp747
g3
(g34
g5
Ntp748
Rp749
(dp750
g10
Nsg38
Nsg39
Nsg40
Nsg41
Nsg42
Nsg22
Nsg43
Nsg44
Nsg45
Nsg46
Nsg47
Nsg48
Nsg49
Nsg50
Nsg51
Nsg52
Nsg53
Nsg54
Nsg55
Nsg56
Nsg57
Nsg58
Vbethany_house
p751
sg60
Nsg61
VBethany House
p752
sg63
Nsg64
Nsg65
I15291352
sg66
Nsbasg67
Nsg68
Nsg69
Nsg70
VJust got this offer - 2014 Fiction Giveaway http://t.co/VONZqJLATf from @bethany_house
p753
sg72
I00
sg73
Ven
p754
sg75
g3
(g34
g5
Ntp755
Rp756
(dp757
g10
g79
sg38
V333333
p758
sg39
Ven
p759
sg40
Nsg41
I77
sg42
I1196
sg22
VTue Mar 16 18:44:50 +0000 2010
p760
sg43
I00
sg44
g79
sg45
Vhttps://abs.twimg.com/sticky/default_profile_images/default_profile_3_normal.png
p761
sg46
I958
sg47
I60
sg48
Nsg49
Nsg50
I00
sg51
Nsg52
I00
sg53
I00
sg54
V0084B4
p762
sg55
I00
sg56
I00
sg57
Vhttp://abs.twimg.com/images/themes/theme1/bg.png
p763
sg58
Vmama3curlies
p764
sg60
I0
sg61
Vmay lynn mahler
p765
sg63
VDDEEF6
p766
sg64
Nsg65
I123634696
sg66
VC0DEED
p767
sbsg90
I0
sg91
V<a href="https://dev.twitter.com/docs/tfw" rel="nofollow">Twitter for Websites</a>
p768
sg93
(lp769
g3
(g95
g5
Ntp770
Rp771
(dp772
g99
Vhttp://t.co/VONZqJLATf
p773
sg101
Vhttp://woobox.com/iaqkqg
p774
sbasg65
I543812973395853312
sbag3
(g4
g5
Ntp775
Rp776
(dp777
g9
I0
sg10
Nsg11
Nsg12
(lp778
sg14
I00
sg15
Nsg16
Nsg17
(lp779
sg19
Nsg20
Nsg21
Nsg22
VSat Dec 13 16:41:17 +0000 2014
p780
sg24
Nsg25
I00
sg26
Nsg27
Nsg28
Nsg29
Nsg30
I00
sg31
Nsg32
(lp781
sg67
Nsg68
Nsg69
Nsg70
VContigo's 12 Days of Giveaways http://t.co/o6zLuAnHE5
p782
sg72
I00
sg73
Ven
p783
sg75
g3
(g34
g5
Ntp784
Rp785
(dp786
g10
g79
sg38
V333333
p787
sg39
Ven
p788
sg40
Nsg41
I77
sg42
I1196
sg22
VTue Mar 16 18:44:50 +0000 2010
p789
sg43
I00
sg44
g79
sg45
Vhttps://abs.twimg.com/sticky/default_profile_images/default_profile_3_normal.png
p790
sg46
I958
sg47
I60
sg48
Nsg49
Nsg50
I00
sg51
Nsg52
I00
sg53
I00
sg54
V0084B4
p791
sg55
I00
sg56
I00
sg57
Vhttp://abs.twimg.com/images/themes/theme1/bg.png
p792
sg58
Vmama3curlies
p793
sg60
I0
sg61
Vmay lynn mahler
p794
sg63
VDDEEF6
p795
sg64
Nsg65
I123634696
sg66
VC0DEED
p796
sbsg90
I0
sg91
V<a href="https://dev.twitter.com/docs/tfw" rel="nofollow">Twitter for Websites</a>
p797
sg93
(lp798
g3
(g95
g5
Ntp799
Rp800
(dp801
g99
Vhttp://t.co/o6zLuAnHE5
p802
sg101
Vhttp://woobox.com/yzxmsf/cl01qh
p803
sbasg65
I543807883394048000
sbaa.