(lp0
S'DolickVilla'
p1
a(lp2
ccopy_reg
_reconstructor
p3
(ctwitter
Status
p4
c__builtin__
object
p5
Ntp6
Rp7
(dp8
S'_favorite_count'
p9
I0
sS'_location'
p10
NsS'_withheld_scope'
p11
NsS'hashtags'
p12
(lp13
sS'_truncated'
p14
I00
sS'_retweeted_status'
p15
g3
(g4
g5
Ntp16
Rp17
(dp18
g9
I198
sg10
Nsg11
Nsg12
(lp19
sg14
I00
sg15
NsS'_withheld_copyright'
p20
NsS'media'
p21
(lp22
(dp23
Vexpanded_url
p24
Vhttp://twitter.com/ThatBucketList/status/544016514119380993/photo/1
p25
sVdisplay_url
p26
Vpic.twitter.com/Tu5c6fGWDA
p27
sVurl
p28
Vhttp://t.co/Tu5c6fGWDA
p29
sVmedia_url_https
p30
Vhttps://pbs.twimg.com/media/B4y8IxyIMAA4Ev3.jpg
p31
sVid_str
p32
V544016513993551872
p33
sVsizes
p34
(dp35
Vsmall
p36
(dp37
Vh
p38
I340
sVresize
p39
Vfit
p40
sVw
p41
I340
ssVlarge
p42
(dp43
Vh
p44
I500
sVresize
p45
Vfit
p46
sVw
p47
I500
ssVmedium
p48
(dp49
Vh
p50
I500
sVresize
p51
Vfit
p52
sVw
p53
I500
ssVthumb
p54
(dp55
Vh
p56
I150
sVresize
p57
Vcrop
p58
sVw
p59
I150
sssVindices
p60
(lp61
I28
aI50
asVtype
p62
Vphoto
p63
sVid
p64
I544016513993551872
sVmedia_url
p65
Vhttp://pbs.twimg.com/media/B4y8IxyIMAA4Ev3.jpg
p66
sasS'_place'
p67
NsS'_contributors'
p68
NsS'_current_user_retweet'
p69
NsS'_created_at'
p70
VSun Dec 14 06:30:18 +0000 2014
p71
sS'_scopes'
p72
NsS'_possibly_sensitive'
p73
I00
sS'_in_reply_to_screen_name'
p74
NsS'_coordinates'
p75
NsS'_in_reply_to_user_id'
p76
NsS'_geo'
p77
NsS'_favorited'
p78
I00
sS'_withheld_in_countries'
p79
NsS'user_mentions'
p80
(lp81
sS'_now'
p82
NsS'_id_str'
p83
V544016514119380993
p84
sS'_in_reply_to_status_id'
p85
NsS'_text'
p86
VLoving the Creed Notre-Dame http://t.co/Tu5c6fGWDA
p87
sS'_retweeted'
p88
I00
sS'lang'
p89
Ven
p90
sS'_user'
p91
g3
(ctwitter
User
p92
g5
Ntp93
Rp94
(dp95
g10
V
p96
sS'_profile_text_color'
p97
V333333
p98
sS'_lang'
p99
Ven
p100
sS'_time_zone'
p101
VMumbai
p102
sS'_followers_count'
p103
I1020758
sS'_statuses_count'
p104
I2788
sg70
VTue Jun 28 09:42:09 +0000 2011
p105
sS'_verified'
p106
I00
sS'_description'
p107
V\u2665 Whats on your bucket list? \u2665
p108
sS'_profile_image_url'
p109
Vhttps://pbs.twimg.com/profile_images/539132741543931904/11gJCxyO_normal.png
p110
sS'_friends_count'
p111
I161
sS'_favourites_count'
p112
I836
sS'_utc_offset'
p113
I19800
sS'_status'
p114
NsS'_protected'
p115
I00
sS'_profile_banner_url'
p116
Vhttps://pbs.twimg.com/profile_banners/325451111/1417374267
p117
sS'_notifications'
p118
I00
sS'_profile_background_tile'
p119
I00
sS'_profile_link_color'
p120
V43BFC7
p121
sS'_geo_enabled'
p122
I00
sS'_contributors_enabled'
p123
I00
sS'_profile_background_image_url'
p124
Vhttp://pbs.twimg.com/profile_background_images/668979824/b86ac03239092adcd85972c625f626d1.jpeg
p125
sS'_screen_name'
p126
VThatBucketList
p127
sS'_listed_count'
p128
I1339
sS'_name'
p129
VThe Bucket List
p130
sS'_profile_sidebar_fill_color'
p131
VFFFFFF
p132
sS'_url'
p133
NsS'_id'
p134
I325451111
sS'_profile_background_color'
p135
VB2DFDA
p136
sbsS'_retweet_count'
p137
I93
sS'_source'
p138
V<a href="http://bufferapp.com" rel="nofollow">Buffer</a>
p139
sS'urls'
p140
(lp141
sg134
I544016514119380993
sbsg20
Nsg21
(lp142
(dp143
Vsource_user_id
p144
I325451111
sVsource_status_id_str
p145
V544016514119380993
p146
sVexpanded_url
p147
Vhttp://twitter.com/ThatBucketList/status/544016514119380993/photo/1
p148
sVdisplay_url
p149
Vpic.twitter.com/Tu5c6fGWDA
p150
sVurl
p151
Vhttp://t.co/Tu5c6fGWDA
p152
sVmedia_url_https
p153
Vhttps://pbs.twimg.com/media/B4y8IxyIMAA4Ev3.jpg
p154
sVsource_user_id_str
p155
V325451111
p156
sVsource_status_id
p157
I544016514119380993
sVid_str
p158
V544016513993551872
p159
sVsizes
p160
(dp161
Vsmall
p162
(dp163
Vh
p164
I340
sVresize
p165
Vfit
p166
sVw
p167
I340
ssVlarge
p168
(dp169
Vh
p170
I500
sVresize
p171
Vfit
p172
sVw
p173
I500
ssVmedium
p174
(dp175
Vh
p176
I500
sVresize
p177
Vfit
p178
sVw
p179
I500
ssVthumb
p180
(dp181
Vh
p182
I150
sVresize
p183
Vcrop
p184
sVw
p185
I150
sssVindices
p186
(lp187
I48
aI70
asVtype
p188
Vphoto
p189
sVid
p190
I544016513993551872
sVmedia_url
p191
Vhttp://pbs.twimg.com/media/B4y8IxyIMAA4Ev3.jpg
p192
sasg67
Nsg68
Nsg69
Nsg70
VSun Dec 14 11:32:15 +0000 2014
p193
sg72
Nsg73
I00
sg74
Nsg75
Nsg76
Nsg77
Nsg78
I00
sg79
Nsg80
(lp194
g3
(g92
g5
Ntp195
Rp196
(dp197
g10
Nsg97
Nsg99
Nsg101
Nsg103
Nsg104
Nsg70
Nsg106
Nsg107
Nsg109
Nsg111
Nsg112
Nsg113
Nsg114
Nsg115
Nsg116
Nsg118
Nsg119
Nsg120
Nsg122
Nsg123
Nsg124
Nsg126
VThatBucketList
p198
sg128
Nsg129
VThe Bucket List
p199
sg131
Nsg133
Nsg134
I325451111
sg135
Nsbasg82
Nsg83
V544092500080607232
p200
sg85
Nsg86
VRT @ThatBucketList: Loving the Creed Notre-Dame http://t.co/Tu5c6fGWDA
p201
sg88
I00
sg89
Ven
p202
sg91
g3
(g92
g5
Ntp203
Rp204
(dp205
g10
g96
sg97
V333333
p206
sg99
Ven
p207
sg101
Nsg103
I185
sg104
I1168
sg70
VSun Sep 21 03:33:45 +0000 2014
p208
sg106
I00
sg107
g96
sg109
Vhttps://abs.twimg.com/sticky/default_profile_images/default_profile_5_normal.png
p209
sg111
I1163
sg112
I2473
sg113
Nsg114
Nsg115
I00
sg116
Nsg118
I00
sg119
I00
sg120
V0084B4
p210
sg122
I00
sg123
I00
sg124
Vhttp://abs.twimg.com/images/themes/theme1/bg.png
p211
sg126
VDolickVilla
p212
sg128
I1
sg129
VDolick Villa
p213
sg131
VDDEEF6
p214
sg133
Nsg134
I2823346195
sg135
VC0DEED
p215
sbsg137
I93
sg138
V<a href="http://twitter.com/download/iphone" rel="nofollow">Twitter for iPhone</a>
p216
sg140
(lp217
sg134
I544092500080607232
sbag3
(g4
g5
Ntp218
Rp219
(dp220
g9
I0
sg10
Nsg11
Nsg12
(lp221
sg14
I00
sg15
g3
(g4
g5
Ntp222
Rp223
(dp224
g9
I187
sg10
Nsg11
Nsg12
(lp225
sg14
I00
sg15
Nsg20
Nsg21
(lp226
sg67
Nsg68
Nsg69
Nsg70
VSun Dec 14 06:30:20 +0000 2014
p227
sg72
Nsg73
Nsg74
Nsg75
Nsg76
Nsg77
Nsg78
I00
sg79
Nsg80
(lp228
sg82
Nsg83
V544016521136443394
p229
sg85
Nsg86
VAfter reading this tweet you will realize that the the brain doesn\u2019t recognize a second \u201cthe\u201d\u201d
p230
sg88
I00
sg89
Ven
p231
sg91
g3
(g92
g5
Ntp232
Rp233
(dp234
g10
g96
sg97
V333333
p235
sg99
Ven
p236
sg101
VChennai
p237
sg103
I167720
sg104
I7735
sg70
VSat Jan 26 06:45:31 +0000 2013
p238
sg106
I00
sg107
VFacts which will blow your mind off\u000a         lalli.sukh@gmail.com
p239
sg109
Vhttps://pbs.twimg.com/profile_images/540114467938258944/JqqA6__n_normal.jpeg
p240
sg111
I149
sg112
I61
sg113
I19800
sg114
Nsg115
I00
sg116
Vhttps://pbs.twimg.com/profile_banners/1121163822/1417022349
p241
sg118
I00
sg119
I00
sg120
VFF3300
p242
sg122
I00
sg123
I00
sg124
Vhttp://abs.twimg.com/images/themes/theme6/bg.gif
p243
sg126
Vclassifiedfact
p244
sg128
I286
sg129
VClassified Facts
p245
sg131
VA0C5C7
p246
sg133
Nsg134
I1121163822
sg135
V709397
p247
sbsg137
I257
sg138
V<a href="http://www.hootsuite.com" rel="nofollow">Hootsuite</a>
p248
sg140
(lp249
sg134
I544016521136443394
sbsg20
Nsg21
(lp250
sg67
Nsg68
Nsg69
Nsg70
VSun Dec 14 11:32:08 +0000 2014
p251
sg72
Nsg73
Nsg74
Nsg75
Nsg76
Nsg77
Nsg78
I00
sg79
Nsg80
(lp252
g3
(g92
g5
Ntp253
Rp254
(dp255
g10
Nsg97
Nsg99
Nsg101
Nsg103
Nsg104
Nsg70
Nsg106
Nsg107
Nsg109
Nsg111
Nsg112
Nsg113
Nsg114
Nsg115
Nsg116
Nsg118
Nsg119
Nsg120
Nsg122
Nsg123
Nsg124
Nsg126
Vclassifiedfact
p256
sg128
Nsg129
VClassified Facts
p257
sg131
Nsg133
Nsg134
I1121163822
sg135
Nsbasg82
Nsg83
V544092472188469248
p258
sg85
Nsg86
VRT @classifiedfact: After reading this tweet you will realize that the the brain doesn\u2019t recognize a second \u201cthe\u201d\u201d
p259
sg88
I00
sg89
Ven
p260
sg91
g3
(g92
g5
Ntp261
Rp262
(dp263
g10
g96
sg97
V333333
p264
sg99
Ven
p265
sg101
Nsg103
I185
sg104
I1168
sg70
VSun Sep 21 03:33:45 +0000 2014
p266
sg106
I00
sg107
g96
sg109
Vhttps://abs.twimg.com/sticky/default_profile_images/default_profile_5_normal.png
p267
sg111
I1163
sg112
I2473
sg113
Nsg114
Nsg115
I00
sg116
Nsg118
I00
sg119
I00
sg120
V0084B4
p268
sg122
I00
sg123
I00
sg124
Vhttp://abs.twimg.com/images/themes/theme1/bg.png
p269
sg126
VDolickVilla
p270
sg128
I1
sg129
VDolick Villa
p271
sg131
VDDEEF6
p272
sg133
Nsg134
I2823346195
sg135
VC0DEED
p273
sbsg137
I257
sg138
V<a href="http://twitter.com/download/iphone" rel="nofollow">Twitter for iPhone</a>
p274
sg140
(lp275
sg134
I544092472188469248
sbag3
(g4
g5
Ntp276
Rp277
(dp278
g9
I0
sg10
Nsg11
Nsg12
(lp279
sg14
I00
sg15
g3
(g4
g5
Ntp280
Rp281
(dp282
g9
I98
sg10
Nsg11
Nsg12
(lp283
sg14
I00
sg15
Nsg20
Nsg21
(lp284
sg67
Nsg68
Nsg69
Nsg70
VSun Dec 14 06:30:21 +0000 2014
p285
sg72
Nsg73
Nsg74
Nsg75
Nsg76
Nsg77
Nsg78
I00
sg79
Nsg80
(lp286
sg82
Nsg83
V544016524017938432
p287
sg85
Nsg86
VChinese police increasingly use geese instead of police dogs because of their aggressiveness and superior vision.
p288
sg88
I00
sg89
Ven
p289
sg91
g3
(g92
g5
Ntp290
Rp291
(dp292
g10
VINDIA (Delhi)
p293
sg97
V333333
p294
sg99
Ven
p295
sg101
VChennai
p296
sg103
I1515328
sg104
I47249
sg70
VThu Mar 15 05:25:17 +0000 2012
p297
sg106
I00
sg107
VFollow us & enjoy the Secret Facts that u are not aware.You won't be leaving this page without learning something new Trust me #Contact nickoberoi2007@gmail.com
p298
sg109
Vhttps://pbs.twimg.com/profile_images/536868343970426880/mxBIdwGL_normal.jpeg
p299
sg111
I165
sg112
I336
sg113
I19800
sg114
Nsg115
I00
sg116
Vhttps://pbs.twimg.com/profile_banners/525060895/1416518363
p300
sg118
I00
sg119
I00
sg120
V0084B4
p301
sg122
I00
sg123
I00
sg124
Vhttp://abs.twimg.com/images/themes/theme15/bg.png
p302
sg126
VUnusualFactPage
p303
sg128
I2753
sg129
VPsychological TRUTH\u2122
p304
sg131
VC0DFEC
p305
sg133
Vhttps://t.co/TZ8AQbq0wD
p306
sg134
I525060895
sg135
V022330
p307
sbsg137
I47
sg138
V<a href="http://bufferapp.com" rel="nofollow">Buffer</a>
p308
sg140
(lp309
sg134
I544016524017938432
sbsg20
Nsg21
(lp310
sg67
Nsg68
Nsg69
Nsg70
VSun Dec 14 11:31:40 +0000 2014
p311
sg72
Nsg73
Nsg74
Nsg75
Nsg76
Nsg77
Nsg78
I00
sg79
Nsg80
(lp312
g3
(g92
g5
Ntp313
Rp314
(dp315
g10
Nsg97
Nsg99
Nsg101
Nsg103
Nsg104
Nsg70
Nsg106
Nsg107
Nsg109
Nsg111
Nsg112
Nsg113
Nsg114
Nsg115
Nsg116
Nsg118
Nsg119
Nsg120
Nsg122
Nsg123
Nsg124
Nsg126
VUnusualFactPage
p316
sg128
Nsg129
VPsychological TRUTH\u2122
p317
sg131
Nsg133
Nsg134
I525060895
sg135
Nsbasg82
Nsg83
V544092353850380288
p318
sg85
Nsg86
VRT @UnusualFactPage: Chinese police increasingly use geese instead of police dogs because of their aggressiveness and superior vision.
p319
sg88
I00
sg89
Ven
p320
sg91
g3
(g92
g5
Ntp321
Rp322
(dp323
g10
g96
sg97
V333333
p324
sg99
Ven
p325
sg101
Nsg103
I185
sg104
I1168
sg70
VSun Sep 21 03:33:45 +0000 2014
p326
sg106
I00
sg107
g96
sg109
Vhttps://abs.twimg.com/sticky/default_profile_images/default_profile_5_normal.png
p327
sg111
I1163
sg112
I2473
sg113
Nsg114
Nsg115
I00
sg116
Nsg118
I00
sg119
I00
sg120
V0084B4
p328
sg122
I00
sg123
I00
sg124
Vhttp://abs.twimg.com/images/themes/theme1/bg.png
p329
sg126
VDolickVilla
p330
sg128
I1
sg129
VDolick Villa
p331
sg131
VDDEEF6
p332
sg133
Nsg134
I2823346195
sg135
VC0DEED
p333
sbsg137
I47
sg138
V<a href="http://twitter.com/download/iphone" rel="nofollow">Twitter for iPhone</a>
p334
sg140
(lp335
sg134
I544092353850380288
sbag3
(g4
g5
Ntp336
Rp337
(dp338
g9
I0
sg10
Nsg11
Nsg12
(lp339
sg14
I00
sg15
g3
(g4
g5
Ntp340
Rp341
(dp342
g9
I293
sg10
Nsg11
Nsg12
(lp343
sg14
I00
sg15
Nsg20
Nsg21
(lp344
sg67
Nsg68
Nsg69
Nsg70
VSun Dec 14 06:30:30 +0000 2014
p345
sg72
Nsg73
Nsg74
Nsg75
Nsg76
Nsg77
Nsg78
I00
sg79
Nsg80
(lp346
sg82
Nsg83
V544016561699577857
p347
sg85
Nsg86
VThe person who tries to keep everyone happy is the most 'lonely' person.
p348
sg88
I00
sg89
Ven
p349
sg91
g3
(g92
g5
Ntp350
Rp351
(dp352
g10
g96
sg97
V333333
p353
sg99
Ven
p354
sg101
VAsia/Kolkata
p355
sg103
I1732997
sg104
I43158
sg70
VSat Jul 07 07:07:07 +0000 2012
p356
sg106
I00
sg107
VGeneral Knowledge, Interesting Facts, Amazing facts, Latest facts. Known is a drop and Unknown is an Ocean.  #Contact - neverknownfactz@gmail.com |
p357
sg109
Vhttps://pbs.twimg.com/profile_images/433727047899168768/EHTGMaaQ_normal.jpeg
p358
sg111
I150
sg112
I559
sg113
I19800
sg114
Nsg115
I00
sg116
Vhttps://pbs.twimg.com/profile_banners/629097517/1393084143
p359
sg118
I00
sg119
I00
sg120
VF01616
p360
sg122
I00
sg123
I00
sg124
Vhttp://pbs.twimg.com/profile_background_images/435228401796804608/WDoI2D4p.jpeg
p361
sg126
Vneverknownfacts
p362
sg128
I3081
sg129
VInteresting Facts
p363
sg131
VEFEFEF
p364
sg133
Vhttp://t.co/HvUwXn3DQ0
p365
sg134
I629097517
sg135
VFFFFFF
p366
sbsg137
I278
sg138
V<a href="http://bufferapp.com" rel="nofollow">Buffer</a>
p367
sg140
(lp368
sg134
I544016561699577857
sbsg20
Nsg21
(lp369
sg67
Nsg68
Nsg69
Nsg70
VSun Dec 14 11:31:24 +0000 2014
p370
sg72
Nsg73
Nsg74
Nsg75
Nsg76
Nsg77
Nsg78
I00
sg79
Nsg80
(lp371
g3
(g92
g5
Ntp372
Rp373
(dp374
g10
Nsg97
Nsg99
Nsg101
Nsg103
Nsg104
Nsg70
Nsg106
Nsg107
Nsg109
Nsg111
Nsg112
Nsg113
Nsg114
Nsg115
Nsg116
Nsg118
Nsg119
Nsg120
Nsg122
Nsg123
Nsg124
Nsg126
Vneverknownfacts
p375
sg128
Nsg129
VInteresting Facts
p376
sg131
Nsg133
Nsg134
I629097517
sg135
Nsbasg82
Nsg83
V544092286930259968
p377
sg85
Nsg86
VRT @neverknownfacts: The person who tries to keep everyone happy is the most 'lonely' person.
p378
sg88
I00
sg89
Ven
p379
sg91
g3
(g92
g5
Ntp380
Rp381
(dp382
g10
g96
sg97
V333333
p383
sg99
Ven
p384
sg101
Nsg103
I185
sg104
I1168
sg70
VSun Sep 21 03:33:45 +0000 2014
p385
sg106
I00
sg107
g96
sg109
Vhttps://abs.twimg.com/sticky/default_profile_images/default_profile_5_normal.png
p386
sg111
I1163
sg112
I2473
sg113
Nsg114
Nsg115
I00
sg116
Nsg118
I00
sg119
I00
sg120
V0084B4
p387
sg122
I00
sg123
I00
sg124
Vhttp://abs.twimg.com/images/themes/theme1/bg.png
p388
sg126
VDolickVilla
p389
sg128
I1
sg129
VDolick Villa
p390
sg131
VDDEEF6
p391
sg133
Nsg134
I2823346195
sg135
VC0DEED
p392
sbsg137
I278
sg138
V<a href="http://twitter.com/download/iphone" rel="nofollow">Twitter for iPhone</a>
p393
sg140
(lp394
sg134
I544092286930259968
sbag3
(g4
g5
Ntp395
Rp396
(dp397
g9
I0
sg10
Nsg11
Nsg12
(lp398
sg14
I00
sg15
g3
(g4
g5
Ntp399
Rp400
(dp401
g9
I5
sg10
Nsg11
Nsg12
(lp402
sg14
I00
sg15
Nsg20
Nsg21
(lp403
(dp404
Vexpanded_url
p405
Vhttp://twitter.com/onanygirl/status/544016570188435456/photo/1
p406
sVdisplay_url
p407
Vpic.twitter.com/ASSMU7MtwR
p408
sVurl
p409
Vhttp://t.co/ASSMU7MtwR
p410
sVmedia_url_https
p411
Vhttps://pbs.twimg.com/media/B4y8MC6CIAAp2_M.jpg
p412
sVid_str
p413
V544016570129719296
p414
sVsizes
p415
(dp416
Vsmall
p417
(dp418
Vh
p419
I510
sVresize
p420
Vfit
p421
sVw
p422
I340
ssVlarge
p423
(dp424
Vh
p425
I901
sVresize
p426
Vfit
p427
sVw
p428
I600
ssVmedium
p429
(dp430
Vh
p431
I901
sVresize
p432
Vfit
p433
sVw
p434
I600
ssVthumb
p435
(dp436
Vh
p437
I150
sVresize
p438
Vcrop
p439
sVw
p440
I150
sssVindices
p441
(lp442
I12
aI34
asVtype
p443
Vphoto
p444
sVid
p445
I544016570129719296
sVmedia_url
p446
Vhttp://pbs.twimg.com/media/B4y8MC6CIAAp2_M.jpg
p447
sasg67
Nsg68
Nsg69
Nsg70
VSun Dec 14 06:30:32 +0000 2014
p448
sg72
Nsg73
I00
sg74
Nsg75
Nsg76
Nsg77
Nsg78
I00
sg79
Nsg80
(lp449
sg82
Nsg83
V544016570188435456
p450
sg85
Nsg86
V\u30a8\u30ed\u3044\u3068\u601d\u3063\u305f\u3089RT\u266a http://t.co/ASSMU7MtwR
p451
sg88
I00
sg89
Vja
p452
sg91
g3
(g92
g5
Ntp453
Rp454
(dp455
g10
g96
sg97
V333333
p456
sg99
Vja
p457
sg101
Nsg103
I8681
sg104
I5954
sg70
VSat Jul 06 08:03:45 +0000 2013
p458
sg106
I00
sg107
V\u6c99\u7e54\u307f\u307f\u3067\uff5e\u3059\u2605\u304a\u30ca\u30cb\u30fc\u5973\u5b50\u3067\uff5e\u3059\u2605\u2605\u6bce\u65e5\u8cb4\u65b9\u306e\u304a\u304b\u305a\u753b\u50cf\u3092\u30c4\u30a4\uff5e\u30c8\u3057\u307e\uff5e\u3059\u2606\u2606\u000a\u30a8\u30c3\u30c1\u304b\u3063\u305f\u3089RT\u304a\u9858\u3044\u3057\u307e\u3059\u306d\uff5e\u2661
p459
sg109
Vhttps://pbs.twimg.com/profile_images/378800000103459145/2c24399f884074fdad117bb7c32f1de9_normal.jpeg
p460
sg111
I5403
sg112
I0
sg113
Nsg114
Nsg115
I00
sg116
Vhttps://pbs.twimg.com/profile_banners/1572285655/1405108721
p461
sg118
I00
sg119
I01
sg120
V93A644
p462
sg122
I00
sg123
I00
sg124
Vhttp://pbs.twimg.com/profile_background_images/487687637138825216/QReZjjiY.png
p463
sg126
Vonanygirl
p464
sg128
I30
sg129
V\u2661\u5927\u4eba\u306e\u304a\u304b\u305a\u2661\u753b\u50cf
p465
sg131
VFFFFFF
p466
sg133
Nsg134
I1572285655
sg135
VB2DFDA
p467
sbsg137
I5
sg138
V<a href="https://twitter.com/onanygirl" rel="nofollow">onanygirl4</a>
p468
sg140
(lp469
sg134
I544016570188435456
sbsg20
Nsg21
(lp470
(dp471
Vsource_user_id
p472
I1572285655
sVsource_status_id_str
p473
V544016570188435456
p474
sVexpanded_url
p475
Vhttp://twitter.com/onanygirl/status/544016570188435456/photo/1
p476
sVdisplay_url
p477
Vpic.twitter.com/ASSMU7MtwR
p478
sVurl
p479
Vhttp://t.co/ASSMU7MtwR
p480
sVmedia_url_https
p481
Vhttps://pbs.twimg.com/media/B4y8MC6CIAAp2_M.jpg
p482
sVsource_user_id_str
p483
V1572285655
p484
sVsource_status_id
p485
I544016570188435456
sVid_str
p486
V544016570129719296
p487
sVsizes
p488
(dp489
Vsmall
p490
(dp491
Vh
p492
I510
sVresize
p493
Vfit
p494
sVw
p495
I340
ssVlarge
p496
(dp497
Vh
p498
I901
sVresize
p499
Vfit
p500
sVw
p501
I600
ssVmedium
p502
(dp503
Vh
p504
I901
sVresize
p505
Vfit
p506
sVw
p507
I600
ssVthumb
p508
(dp509
Vh
p510
I150
sVresize
p511
Vcrop
p512
sVw
p513
I150
sssVindices
p514
(lp515
I27
aI49
asVtype
p516
Vphoto
p517
sVid
p518
I544016570129719296
sVmedia_url
p519
Vhttp://pbs.twimg.com/media/B4y8MC6CIAAp2_M.jpg
p520
sasg67
Nsg68
Nsg69
Nsg70
VSun Dec 14 11:31:15 +0000 2014
p521
sg72
Nsg73
I00
sg74
Nsg75
Nsg76
Nsg77
Nsg78
I00
sg79
Nsg80
(lp522
g3
(g92
g5
Ntp523
Rp524
(dp525
g10
Nsg97
Nsg99
Nsg101
Nsg103
Nsg104
Nsg70
Nsg106
Nsg107
Nsg109
Nsg111
Nsg112
Nsg113
Nsg114
Nsg115
Nsg116
Nsg118
Nsg119
Nsg120
Nsg122
Nsg123
Nsg124
Nsg126
Vonanygirl
p526
sg128
Nsg129
V\u2661\u5927\u4eba\u306e\u304a\u304b\u305a\u2661\u753b\u50cf
p527
sg131
Nsg133
Nsg134
I1572285655
sg135
Nsbasg82
Nsg83
V544092248032288768
p528
sg85
Nsg86
VRT @onanygirl: \u30a8\u30ed\u3044\u3068\u601d\u3063\u305f\u3089RT\u266a http://t.co/ASSMU7MtwR
p529
sg88
I00
sg89
Vja
p530
sg91
g3
(g92
g5
Ntp531
Rp532
(dp533
g10
g96
sg97
V333333
p534
sg99
Ven
p535
sg101
Nsg103
I185
sg104
I1168
sg70
VSun Sep 21 03:33:45 +0000 2014
p536
sg106
I00
sg107
g96
sg109
Vhttps://abs.twimg.com/sticky/default_profile_images/default_profile_5_normal.png
p537
sg111
I1163
sg112
I2473
sg113
Nsg114
Nsg115
I00
sg116
Nsg118
I00
sg119
I00
sg120
V0084B4
p538
sg122
I00
sg123
I00
sg124
Vhttp://abs.twimg.com/images/themes/theme1/bg.png
p539
sg126
VDolickVilla
p540
sg128
I1
sg129
VDolick Villa
p541
sg131
VDDEEF6
p542
sg133
Nsg134
I2823346195
sg135
VC0DEED
p543
sbsg137
I5
sg138
V<a href="http://twitter.com/download/iphone" rel="nofollow">Twitter for iPhone</a>
p544
sg140
(lp545
sg134
I544092248032288768
sbag3
(g4
g5
Ntp546
Rp547
(dp548
g9
I0
sg10
Nsg11
Nsg12
(lp549
sg14
I00
sg15
g3
(g4
g5
Ntp550
Rp551
(dp552
g9
I885
sg10
Nsg11
Nsg12
(lp553
sg14
I00
sg15
Nsg20
Nsg21
(lp554
sg67
Nsg68
Nsg69
Nsg70
VSun Dec 14 06:32:01 +0000 2014
p555
sg72
Nsg73
Nsg74
Nsg75
Nsg76
Nsg77
Nsg78
I00
sg79
Nsg80
(lp556
sg82
Nsg83
V544016945667145728
p557
sg85
Nsg86
VSurround yourself with those who see greatness in you, even when you don't see it in yourself.
p558
sg88
I00
sg89
Ven
p559
sg91
g3
(g92
g5
Ntp560
Rp561
(dp562
g10
g96
sg97
V333333
p563
sg99
Ven
p564
sg101
VNew Delhi
p565
sg103
I3103075
sg104
I40175
sg70
VSun Mar 28 15:27:07 +0000 2010
p566
sg106
I00
sg107
VChange your thoughts and you change your world. A daily dose of wisdom. IG: http://t.co/j23jLsQ5Y1
p567
sg109
Vhttps://pbs.twimg.com/profile_images/476416284117049345/vJnf1um3_normal.jpeg
p568
sg111
I111
sg112
I9485
sg113
I19800
sg114
Nsg115
I00
sg116
Vhttps://pbs.twimg.com/profile_banners/127245578/1404306813
p569
sg118
I00
sg119
I00
sg120
V0084B4
p570
sg122
I00
sg123
I00
sg124
Vhttp://pbs.twimg.com/profile_background_images/441005691050786818/VV4YTCU4.png
p571
sg126
Vfunnyortruth
p572
sg128
I8460
sg129
VPhilosophy
p573
sg131
VEADEAA
p574
sg133
Vhttp://t.co/yVbBJ09L1j
p575
sg134
I127245578
sg135
VABB8C2
p576
sbsg137
I977
sg138
V<a href="http://bufferapp.com" rel="nofollow">Buffer</a>
p577
sg140
(lp578
sg134
I544016945667145728
sbsg20
Nsg21
(lp579
sg67
Nsg68
Nsg69
Nsg70
VSun Dec 14 11:29:49 +0000 2014
p580
sg72
Nsg73
Nsg74
Nsg75
Nsg76
Nsg77
Nsg78
I00
sg79
Nsg80
(lp581
g3
(g92
g5
Ntp582
Rp583
(dp584
g10
Nsg97
Nsg99
Nsg101
Nsg103
Nsg104
Nsg70
Nsg106
Nsg107
Nsg109
Nsg111
Nsg112
Nsg113
Nsg114
Nsg115
Nsg116
Nsg118
Nsg119
Nsg120
Nsg122
Nsg123
Nsg124
Nsg126
Vfunnyortruth
p585
sg128
Nsg129
VPhilosophy
p586
sg131
Nsg133
Nsg134
I127245578
sg135
Nsbasg82
Nsg83
V544091889184415745
p587
sg85
Nsg86
VRT @funnyortruth: Surround yourself with those who see greatness in you, even when you don't see it in yourself.
p588
sg88
I00
sg89
Ven
p589
sg91
g3
(g92
g5
Ntp590
Rp591
(dp592
g10
g96
sg97
V333333
p593
sg99
Ven
p594
sg101
Nsg103
I185
sg104
I1168
sg70
VSun Sep 21 03:33:45 +0000 2014
p595
sg106
I00
sg107
g96
sg109
Vhttps://abs.twimg.com/sticky/default_profile_images/default_profile_5_normal.png
p596
sg111
I1163
sg112
I2473
sg113
Nsg114
Nsg115
I00
sg116
Nsg118
I00
sg119
I00
sg120
V0084B4
p597
sg122
I00
sg123
I00
sg124
Vhttp://abs.twimg.com/images/themes/theme1/bg.png
p598
sg126
VDolickVilla
p599
sg128
I1
sg129
VDolick Villa
p600
sg131
VDDEEF6
p601
sg133
Nsg134
I2823346195
sg135
VC0DEED
p602
sbsg137
I977
sg138
V<a href="http://twitter.com/download/iphone" rel="nofollow">Twitter for iPhone</a>
p603
sg140
(lp604
sg134
I544091889184415745
sbag3
(g4
g5
Ntp605
Rp606
(dp607
g9
I0
sg10
Nsg11
Nsg12
(lp608
sg14
I00
sg15
g3
(g4
g5
Ntp609
Rp610
(dp611
g9
I510
sg10
Nsg11
Nsg12
(lp612
sg14
I00
sg15
Nsg20
Nsg21
(lp613
sg67
Nsg68
Nsg69
Nsg70
VSun Dec 14 06:32:04 +0000 2014
p614
sg72
Nsg73
Nsg74
Nsg75
Nsg76
Nsg77
Nsg78
I00
sg79
Nsg80
(lp615
sg82
Nsg83
V544016954739400704
p616
sg85
Nsg86
VA person will hate you for 3 main reasons: They see you as a threat, They hate themselves, and they want to be you.
p617
sg88
I00
sg89
Ven
p618
sg91
g3
(g92
g5
Ntp619
Rp620
(dp621
g10
VWorld
p622
sg97
V333333
p623
sg99
Ven
p624
sg101
VMumbai
p625
sg103
I1868231
sg104
I16893
sg70
VSat Sep 12 07:20:45 +0000 2009
p626
sg106
I00
sg107
VThe #1 Source for Unique Facts you might never heard before. All Facts are from Verified Source. Email: TheFacts101@live.com
p627
sg109
Vhttps://pbs.twimg.com/profile_images/438391349012729856/Ga1MNISw_normal.png
p628
sg111
I864
sg112
I1095
sg113
I19800
sg114
Nsg115
I00
sg116
Vhttps://pbs.twimg.com/profile_banners/73593143/1393355674
p629
sg118
I00
sg119
I00
sg120
V0099CC
p630
sg122
I00
sg123
I00
sg124
Vhttp://pbs.twimg.com/profile_background_images/432589156414267392/liXvfcpD.jpeg
p631
sg126
VTheKnowledge
p632
sg128
I4276
sg129
VKnowledge
p633
sg131
VF6FFD1
p634
sg133
Nsg134
I73593143
sg135
VFFF04D
p635
sbsg137
I530
sg138
V<a href="http://bufferapp.com" rel="nofollow">Buffer</a>
p636
sg140
(lp637
sg134
I544016954739400704
sbsg20
Nsg21
(lp638
sg67
Nsg68
Nsg69
Nsg70
VSun Dec 14 11:29:21 +0000 2014
p639
sg72
Nsg73
Nsg74
Nsg75
Nsg76
Nsg77
Nsg78
I00
sg79
Nsg80
(lp640
g3
(g92
g5
Ntp641
Rp642
(dp643
g10
Nsg97
Nsg99
Nsg101
Nsg103
Nsg104
Nsg70
Nsg106
Nsg107
Nsg109
Nsg111
Nsg112
Nsg113
Nsg114
Nsg115
Nsg116
Nsg118
Nsg119
Nsg120
Nsg122
Nsg123
Nsg124
Nsg126
VTheKnowledge
p644
sg128
Nsg129
VKnowledge
p645
sg131
Nsg133
Nsg134
I73593143
sg135
Nsbasg82
Nsg83
V544091769885827072
p646
sg85
Nsg86
VRT @TheKnowledge: A person will hate you for 3 main reasons: They see you as a threat, They hate themselves, and they want to be you.
p647
sg88
I00
sg89
Ven
p648
sg91
g3
(g92
g5
Ntp649
Rp650
(dp651
g10
g96
sg97
V333333
p652
sg99
Ven
p653
sg101
Nsg103
I185
sg104
I1168
sg70
VSun Sep 21 03:33:45 +0000 2014
p654
sg106
I00
sg107
g96
sg109
Vhttps://abs.twimg.com/sticky/default_profile_images/default_profile_5_normal.png
p655
sg111
I1163
sg112
I2473
sg113
Nsg114
Nsg115
I00
sg116
Nsg118
I00
sg119
I00
sg120
V0084B4
p656
sg122
I00
sg123
I00
sg124
Vhttp://abs.twimg.com/images/themes/theme1/bg.png
p657
sg126
VDolickVilla
p658
sg128
I1
sg129
VDolick Villa
p659
sg131
VDDEEF6
p660
sg133
Nsg134
I2823346195
sg135
VC0DEED
p661
sbsg137
I530
sg138
V<a href="http://twitter.com/download/iphone" rel="nofollow">Twitter for iPhone</a>
p662
sg140
(lp663
sg134
I544091769885827072
sbag3
(g4
g5
Ntp664
Rp665
(dp666
g9
I0
sg10
Nsg11
Nsg12
(lp667
sg14
I00
sg15
g3
(g4
g5
Ntp668
Rp669
(dp670
g9
I203
sg10
Nsg11
Nsg12
(lp671
sg14
I00
sg15
Nsg20
Nsg21
(lp672
(dp673
Vexpanded_url
p674
Vhttp://twitter.com/ThislsAmazing/status/542339480053485569/photo/1
p675
sVdisplay_url
p676
Vpic.twitter.com/WYyASufgfH
p677
sVurl
p678
Vhttp://t.co/WYyASufgfH
p679
sVmedia_url_https
p680
Vhttps://pbs.twimg.com/media/B4bG3sVCcAAEBy4.jpg
p681
sVid_str
p682
V542339465239228416
p683
sVsizes
p684
(dp685
Vsmall
p686
(dp687
Vh
p688
I232
sVresize
p689
Vfit
p690
sVw
p691
I340
ssVlarge
p692
(dp693
Vh
p694
I615
sVresize
p695
Vfit
p696
sVw
p697
I900
ssVmedium
p698
(dp699
Vh
p700
I410
sVresize
p701
Vfit
p702
sVw
p703
I600
ssVthumb
p704
(dp705
Vh
p706
I150
sVresize
p707
Vcrop
p708
sVw
p709
I150
sssVindices
p710
(lp711
I85
aI107
asVtype
p712
Vphoto
p713
sVid
p714
I542339465239228416
sVmedia_url
p715
Vhttp://pbs.twimg.com/media/B4bG3sVCcAAEBy4.jpg
p716
sasg67
Nsg68
Nsg69
Nsg70
VTue Dec 09 15:26:22 +0000 2014
p717
sg72
Nsg73
I01
sg74
Nsg75
Nsg76
Nsg77
Nsg78
I00
sg79
Nsg80
(lp718
sg82
Nsg83
V542339480053485569
p719
sg85
Nsg86
VMarilyn Monroe and Clark Gable on the set of the film Misfits, 1960 by Cornell Capa. http://t.co/WYyASufgfH
p720
sg88
I00
sg89
Ven
p721
sg91
g3
(g92
g5
Ntp722
Rp723
(dp724
g10
g96
sg97
V666666
p725
sg99
Ven
p726
sg101
VPacific Time (US & Canada)
p727
sg103
I3303475
sg104
I58223
sg70
VSun May 30 04:33:13 +0000 2010
p728
sg106
I00
sg107
VHistory is fun. Learn today. Be learnt tomorrow.  Contact: livingthehistorylife@gmail.com
p729
sg109
Vhttps://pbs.twimg.com/profile_images/542596647134318592/a3O3n8nw_normal.jpeg
p730
sg111
I13353
sg112
I443
sg113
I-28800
sg114
Nsg115
I00
sg116
Vhttps://pbs.twimg.com/profile_banners/149760844/1417429169
p731
sg118
I00
sg119
I00
sg120
VFFCC4D
p732
sg122
I01
sg123
I00
sg124
Vhttp://pbs.twimg.com/profile_background_images/472703723232182273/0X5Itz8E.jpeg
p733
sg126
VThislsAmazing
p734
sg128
I5109
sg129
VLost In History
p735
sg131
V252429
p736
sg133
Nsg134
I149760844
sg135
VDBE9ED
p737
sbsg137
I87
sg138
V<a href="http://twitter.com" rel="nofollow">Twitter Web Client</a>
p738
sg140
(lp739
sg134
I542339480053485569
sbsg20
Nsg21
(lp740
(dp741
Vsource_user_id
p742
I149760844
sVsource_status_id_str
p743
V542339480053485569
p744
sVexpanded_url
p745
Vhttp://twitter.com/ThislsAmazing/status/542339480053485569/photo/1
p746
sVdisplay_url
p747
Vpic.twitter.com/WYyASufgfH
p748
sVurl
p749
Vhttp://t.co/WYyASufgfH
p750
sVmedia_url_https
p751
Vhttps://pbs.twimg.com/media/B4bG3sVCcAAEBy4.jpg
p752
sVsource_user_id_str
p753
V149760844
p754
sVsource_status_id
p755
I542339480053485569
sVid_str
p756
V542339465239228416
p757
sVsizes
p758
(dp759
Vsmall
p760
(dp761
Vh
p762
I232
sVresize
p763
Vfit
p764
sVw
p765
I340
ssVlarge
p766
(dp767
Vh
p768
I615
sVresize
p769
Vfit
p770
sVw
p771
I900
ssVmedium
p772
(dp773
Vh
p774
I410
sVresize
p775
Vfit
p776
sVw
p777
I600
ssVthumb
p778
(dp779
Vh
p780
I150
sVresize
p781
Vcrop
p782
sVw
p783
I150
sssVindices
p784
(lp785
I104
aI126
asVtype
p786
Vphoto
p787
sVid
p788
I542339465239228416
sVmedia_url
p789
Vhttp://pbs.twimg.com/media/B4bG3sVCcAAEBy4.jpg
p790
sasg67
Nsg68
Nsg69
Nsg70
VSun Dec 14 11:28:21 +0000 2014
p791
sg72
Nsg73
I00
sg74
Nsg75
Nsg76
Nsg77
Nsg78
I00
sg79
Nsg80
(lp792
g3
(g92
g5
Ntp793
Rp794
(dp795
g10
Nsg97
Nsg99
Nsg101
Nsg103
Nsg104
Nsg70
Nsg106
Nsg107
Nsg109
Nsg111
Nsg112
Nsg113
Nsg114
Nsg115
Nsg116
Nsg118
Nsg119
Nsg120
Nsg122
Nsg123
Nsg124
Nsg126
VThislsAmazing
p796
sg128
Nsg129
VLost In History
p797
sg131
Nsg133
Nsg134
I149760844
sg135
Nsbasg82
Nsg83
V544091518458290176
p798
sg85
Nsg86
VRT @ThislsAmazing: Marilyn Monroe and Clark Gable on the set of the film Misfits, 1960 by Cornell Capa. http://t.co/WYyASufgfH
p799
sg88
I00
sg89
Ven
p800
sg91
g3
(g92
g5
Ntp801
Rp802
(dp803
g10
g96
sg97
V333333
p804
sg99
Ven
p805
sg101
Nsg103
I185
sg104
I1168
sg70
VSun Sep 21 03:33:45 +0000 2014
p806
sg106
I00
sg107
g96
sg109
Vhttps://abs.twimg.com/sticky/default_profile_images/default_profile_5_normal.png
p807
sg111
I1163
sg112
I2473
sg113
Nsg114
Nsg115
I00
sg116
Nsg118
I00
sg119
I00
sg120
V0084B4
p808
sg122
I00
sg123
I00
sg124
Vhttp://abs.twimg.com/images/themes/theme1/bg.png
p809
sg126
VDolickVilla
p810
sg128
I1
sg129
VDolick Villa
p811
sg131
VDDEEF6
p812
sg133
Nsg134
I2823346195
sg135
VC0DEED
p813
sbsg137
I87
sg138
V<a href="http://twitter.com/download/iphone" rel="nofollow">Twitter for iPhone</a>
p814
sg140
(lp815
sg134
I544091518458290176
sbag3
(g4
g5
Ntp816
Rp817
(dp818
g9
I0
sg10
Nsg11
Nsg12
(lp819
sg14
I00
sg15
g3
(g4
g5
Ntp820
Rp821
(dp822
g9
I204
sg10
Nsg11
Nsg12
(lp823
sg14
I00
sg15
Nsg20
Nsg21
(lp824
(dp825
Vexpanded_url
p826
Vhttp://twitter.com/ThislsAmazing/status/542539397631971328/photo/1
p827
sVdisplay_url
p828
Vpic.twitter.com/5he3IEpEdj
p829
sVurl
p830
Vhttp://t.co/5he3IEpEdj
p831
sVmedia_url_https
p832
Vhttps://pbs.twimg.com/media/B4d8tLJCAAAUy8d.jpg
p833
sVid_str
p834
V542539395648061440
p835
sVsizes
p836
(dp837
Vlarge
p838
(dp839
Vh
p840
I590
sVresize
p841
Vfit
p842
sVw
p843
I834
ssVsmall
p844
(dp845
Vh
p846
I240
sVresize
p847
Vfit
p848
sVw
p849
I340
ssVmedium
p850
(dp851
Vh
p852
I424
sVresize
p853
Vfit
p854
sVw
p855
I600
ssVthumb
p856
(dp857
Vh
p858
I150
sVresize
p859
Vcrop
p860
sVw
p861
I150
sssVindices
p862
(lp863
I45
aI67
asVtype
p864
Vphoto
p865
sVid
p866
I542539395648061440
sVmedia_url
p867
Vhttp://pbs.twimg.com/media/B4d8tLJCAAAUy8d.jpg
p868
sasg67
Nsg68
Nsg69
Nsg70
VWed Dec 10 04:40:46 +0000 2014
p869
sg72
Nsg73
I01
sg74
Nsg75
Nsg76
Nsg77
Nsg78
I00
sg79
Nsg80
(lp870
sg82
Nsg83
V542539397631971328
p871
sg85
Nsg86
V"Flying Octopus" - an early helicopter, 1923 http://t.co/5he3IEpEdj
p872
sg88
I00
sg89
Ven
p873
sg91
g3
(g92
g5
Ntp874
Rp875
(dp876
g10
g96
sg97
V666666
p877
sg99
Ven
p878
sg101
VPacific Time (US & Canada)
p879
sg103
I3303475
sg104
I58223
sg70
VSun May 30 04:33:13 +0000 2010
p880
sg106
I00
sg107
VHistory is fun. Learn today. Be learnt tomorrow.  Contact: livingthehistorylife@gmail.com
p881
sg109
Vhttps://pbs.twimg.com/profile_images/542596647134318592/a3O3n8nw_normal.jpeg
p882
sg111
I13353
sg112
I443
sg113
I-28800
sg114
Nsg115
I00
sg116
Vhttps://pbs.twimg.com/profile_banners/149760844/1417429169
p883
sg118
I00
sg119
I00
sg120
VFFCC4D
p884
sg122
I01
sg123
I00
sg124
Vhttp://pbs.twimg.com/profile_background_images/472703723232182273/0X5Itz8E.jpeg
p885
sg126
VThislsAmazing
p886
sg128
I5109
sg129
VLost In History
p887
sg131
V252429
p888
sg133
Nsg134
I149760844
sg135
VDBE9ED
p889
sbsg137
I87
sg138
V<a href="http://twitter.com" rel="nofollow">Twitter Web Client</a>
p890
sg140
(lp891
sg134
I542539397631971328
sbsg20
Nsg21
(lp892
(dp893
Vsource_user_id
p894
I149760844
sVsource_status_id_str
p895
V542539397631971328
p896
sVexpanded_url
p897
Vhttp://twitter.com/ThislsAmazing/status/542539397631971328/photo/1
p898
sVdisplay_url
p899
Vpic.twitter.com/5he3IEpEdj
p900
sVurl
p901
Vhttp://t.co/5he3IEpEdj
p902
sVmedia_url_https
p903
Vhttps://pbs.twimg.com/media/B4d8tLJCAAAUy8d.jpg
p904
sVsource_user_id_str
p905
V149760844
p906
sVsource_status_id
p907
I542539397631971328
sVid_str
p908
V542539395648061440
p909
sVsizes
p910
(dp911
Vlarge
p912
(dp913
Vh
p914
I590
sVresize
p915
Vfit
p916
sVw
p917
I834
ssVsmall
p918
(dp919
Vh
p920
I240
sVresize
p921
Vfit
p922
sVw
p923
I340
ssVmedium
p924
(dp925
Vh
p926
I424
sVresize
p927
Vfit
p928
sVw
p929
I600
ssVthumb
p930
(dp931
Vh
p932
I150
sVresize
p933
Vcrop
p934
sVw
p935
I150
sssVindices
p936
(lp937
I64
aI86
asVtype
p938
Vphoto
p939
sVid
p940
I542539395648061440
sVmedia_url
p941
Vhttp://pbs.twimg.com/media/B4d8tLJCAAAUy8d.jpg
p942
sasg67
Nsg68
Nsg69
Nsg70
VSun Dec 14 11:27:22 +0000 2014
p943
sg72
Nsg73
I00
sg74
Nsg75
Nsg76
Nsg77
Nsg78
I00
sg79
Nsg80
(lp944
g3
(g92
g5
Ntp945
Rp946
(dp947
g10
Nsg97
Nsg99
Nsg101
Nsg103
Nsg104
Nsg70
Nsg106
Nsg107
Nsg109
Nsg111
Nsg112
Nsg113
Nsg114
Nsg115
Nsg116
Nsg118
Nsg119
Nsg120
Nsg122
Nsg123
Nsg124
Nsg126
VThislsAmazing
p948
sg128
Nsg129
VLost In History
p949
sg131
Nsg133
Nsg134
I149760844
sg135
Nsbasg82
Nsg83
V544091272017739776
p950
sg85
Nsg86
VRT @ThislsAmazing: "Flying Octopus" - an early helicopter, 1923 http://t.co/5he3IEpEdj
p951
sg88
I00
sg89
Ven
p952
sg91
g3
(g92
g5
Ntp953
Rp954
(dp955
g10
g96
sg97
V333333
p956
sg99
Ven
p957
sg101
Nsg103
I185
sg104
I1168
sg70
VSun Sep 21 03:33:45 +0000 2014
p958
sg106
I00
sg107
g96
sg109
Vhttps://abs.twimg.com/sticky/default_profile_images/default_profile_5_normal.png
p959
sg111
I1163
sg112
I2473
sg113
Nsg114
Nsg115
I00
sg116
Nsg118
I00
sg119
I00
sg120
V0084B4
p960
sg122
I00
sg123
I00
sg124
Vhttp://abs.twimg.com/images/themes/theme1/bg.png
p961
sg126
VDolickVilla
p962
sg128
I1
sg129
VDolick Villa
p963
sg131
VDDEEF6
p964
sg133
Nsg134
I2823346195
sg135
VC0DEED
p965
sbsg137
I87
sg138
V<a href="http://twitter.com/download/iphone" rel="nofollow">Twitter for iPhone</a>
p966
sg140
(lp967
sg134
I544091272017739776
sbag3
(g4
g5
Ntp968
Rp969
(dp970
g9
I0
sg10
Nsg11
Nsg12
(lp971
sg14
I00
sg15
g3
(g4
g5
Ntp972
Rp973
(dp974
g9
I1652
sg10
Nsg11
Nsg12
(lp975
sg14
I00
sg15
Nsg20
Nsg21
(lp976
(dp977
Vexpanded_url
p978
Vhttp://twitter.com/ThislsAmazing/status/542560038288519169/photo/1
p979
sVdisplay_url
p980
Vpic.twitter.com/BTLVHxR2II
p981
sVurl
p982
Vhttp://t.co/BTLVHxR2II
p983
sVmedia_url_https
p984
Vhttps://pbs.twimg.com/media/B4ePemRCcAEmNG_.jpg
p985
sVid_str
p986
V542560035952291841
p987
sVsizes
p988
(dp989
Vsmall
p990
(dp991
Vh
p992
I111
sVresize
p993
Vfit
p994
sVw
p995
I340
ssVlarge
p996
(dp997
Vh
p998
I334
sVresize
p999
Vfit
p1000
sVw
p1001
I1015
ssVmedium
p1002
(dp1003
Vh
p1004
I197
sVresize
p1005
Vfit
p1006
sVw
p1007
I600
ssVthumb
p1008
(dp1009
Vh
p1010
I150
sVresize
p1011
Vcrop
p1012
sVw
p1013
I150
sssVindices
p1014
(lp1015
I57
aI79
asVtype
p1016
Vphoto
p1017
sVid
p1018
I542560035952291841
sVmedia_url
p1019
Vhttp://pbs.twimg.com/media/B4ePemRCcAEmNG_.jpg
p1020
sasg67
Nsg68
Nsg69
Nsg70
VWed Dec 10 06:02:48 +0000 2014
p1021
sg72
Nsg73
I01
sg74
Nsg75
Nsg76
Nsg77
Nsg78
I00
sg79
Nsg80
(lp1022
sg82
Nsg83
V542560038288519169
p1023
sg85
Nsg86
VThe construction of the Eiffel Tower in Paris. 1887-1889 http://t.co/BTLVHxR2II
p1024
sg88
I00
sg89
Ven
p1025
sg91
g3
(g92
g5
Ntp1026
Rp1027
(dp1028
g10
g96
sg97
V666666
p1029
sg99
Ven
p1030
sg101
VPacific Time (US & Canada)
p1031
sg103
I3303475
sg104
I58223
sg70
VSun May 30 04:33:13 +0000 2010
p1032
sg106
I00
sg107
VHistory is fun. Learn today. Be learnt tomorrow.  Contact: livingthehistorylife@gmail.com
p1033
sg109
Vhttps://pbs.twimg.com/profile_images/542596647134318592/a3O3n8nw_normal.jpeg
p1034
sg111
I13353
sg112
I443
sg113
I-28800
sg114
Nsg115
I00
sg116
Vhttps://pbs.twimg.com/profile_banners/149760844/1417429169
p1035
sg118
I00
sg119
I00
sg120
VFFCC4D
p1036
sg122
I01
sg123
I00
sg124
Vhttp://pbs.twimg.com/profile_background_images/472703723232182273/0X5Itz8E.jpeg
p1037
sg126
VThislsAmazing
p1038
sg128
I5109
sg129
VLost In History
p1039
sg131
V252429
p1040
sg133
Nsg134
I149760844
sg135
VDBE9ED
p1041
sbsg137
I1235
sg138
V<a href="http://twitter.com" rel="nofollow">Twitter Web Client</a>
p1042
sg140
(lp1043
sg134
I542560038288519169
sbsg20
Nsg21
(lp1044
(dp1045
Vsource_user_id
p1046
I149760844
sVsource_status_id_str
p1047
V542560038288519169
p1048
sVexpanded_url
p1049
Vhttp://twitter.com/ThislsAmazing/status/542560038288519169/photo/1
p1050
sVdisplay_url
p1051
Vpic.twitter.com/BTLVHxR2II
p1052
sVurl
p1053
Vhttp://t.co/BTLVHxR2II
p1054
sVmedia_url_https
p1055
Vhttps://pbs.twimg.com/media/B4ePemRCcAEmNG_.jpg
p1056
sVsource_user_id_str
p1057
V149760844
p1058
sVsource_status_id
p1059
I542560038288519169
sVid_str
p1060
V542560035952291841
p1061
sVsizes
p1062
(dp1063
Vsmall
p1064
(dp1065
Vh
p1066
I111
sVresize
p1067
Vfit
p1068
sVw
p1069
I340
ssVlarge
p1070
(dp1071
Vh
p1072
I334
sVresize
p1073
Vfit
p1074
sVw
p1075
I1015
ssVmedium
p1076
(dp1077
Vh
p1078
I197
sVresize
p1079
Vfit
p1080
sVw
p1081
I600
ssVthumb
p1082
(dp1083
Vh
p1084
I150
sVresize
p1085
Vcrop
p1086
sVw
p1087
I150
sssVindices
p1088
(lp1089
I76
aI98
asVtype
p1090
Vphoto
p1091
sVid
p1092
I542560035952291841
sVmedia_url
p1093
Vhttp://pbs.twimg.com/media/B4ePemRCcAEmNG_.jpg
p1094
sasg67
Nsg68
Nsg69
Nsg70
VSun Dec 14 11:27:03 +0000 2014
p1095
sg72
Nsg73
I00
sg74
Nsg75
Nsg76
Nsg77
Nsg78
I00
sg79
Nsg80
(lp1096
g3
(g92
g5
Ntp1097
Rp1098
(dp1099
g10
Nsg97
Nsg99
Nsg101
Nsg103
Nsg104
Nsg70
Nsg106
Nsg107
Nsg109
Nsg111
Nsg112
Nsg113
Nsg114
Nsg115
Nsg116
Nsg118
Nsg119
Nsg120
Nsg122
Nsg123
Nsg124
Nsg126
VThislsAmazing
p1100
sg128
Nsg129
VLost In History
p1101
sg131
Nsg133
Nsg134
I149760844
sg135
Nsbasg82
Nsg83
V544091193181605888
p1102
sg85
Nsg86
VRT @ThislsAmazing: The construction of the Eiffel Tower in Paris. 1887-1889 http://t.co/BTLVHxR2II
p1103
sg88
I00
sg89
Ven
p1104
sg91
g3
(g92
g5
Ntp1105
Rp1106
(dp1107
g10
g96
sg97
V333333
p1108
sg99
Ven
p1109
sg101
Nsg103
I185
sg104
I1168
sg70
VSun Sep 21 03:33:45 +0000 2014
p1110
sg106
I00
sg107
g96
sg109
Vhttps://abs.twimg.com/sticky/default_profile_images/default_profile_5_normal.png
p1111
sg111
I1163
sg112
I2473
sg113
Nsg114
Nsg115
I00
sg116
Nsg118
I00
sg119
I00
sg120
V0084B4
p1112
sg122
I00
sg123
I00
sg124
Vhttp://abs.twimg.com/images/themes/theme1/bg.png
p1113
sg126
VDolickVilla
p1114
sg128
I1
sg129
VDolick Villa
p1115
sg131
VDDEEF6
p1116
sg133
Nsg134
I2823346195
sg135
VC0DEED
p1117
sbsg137
I1235
sg138
V<a href="http://twitter.com/download/iphone" rel="nofollow">Twitter for iPhone</a>
p1118
sg140
(lp1119
sg134
I544091193181605888
sbag3
(g4
g5
Ntp1120
Rp1121
(dp1122
g9
I0
sg10
Nsg11
Nsg12
(lp1123
sg14
I00
sg15
g3
(g4
g5
Ntp1124
Rp1125
(dp1126
g9
I326
sg10
Nsg11
Nsg12
(lp1127
sg14
I00
sg15
Nsg20
Nsg21
(lp1128
(dp1129
Vexpanded_url
p1130
Vhttp://twitter.com/ThislsAmazing/status/542580611190226945/photo/1
p1131
sVdisplay_url
p1132
Vpic.twitter.com/sUXy3kFIOV
p1133
sVurl
p1134
Vhttp://t.co/sUXy3kFIOV
p1135
sVmedia_url_https
p1136
Vhttps://pbs.twimg.com/media/B4eiMEoCUAAEH9a.jpg
p1137
sVid_str
p1138
V542580608405229568
p1139
sVsizes
p1140
(dp1141
Vlarge
p1142
(dp1143
Vh
p1144
I2048
sVresize
p1145
Vfit
p1146
sVw
p1147
I1007
ssVsmall
p1148
(dp1149
Vh
p1150
I680
sVresize
p1151
Vfit
p1152
sVw
p1153
I334
ssVmedium
p1154
(dp1155
Vh
p1156
I1200
sVresize
p1157
Vfit
p1158
sVw
p1159
I590
ssVthumb
p1160
(dp1161
Vh
p1162
I150
sVresize
p1163
Vcrop
p1164
sVw
p1165
I150
sssVindices
p1166
(lp1167
I117
aI139
asVtype
p1168
Vphoto
p1169
sVid
p1170
I542580608405229568
sVmedia_url
p1171
Vhttp://pbs.twimg.com/media/B4eiMEoCUAAEH9a.jpg
p1172
sasg67
Nsg68
Nsg69
Nsg70
VWed Dec 10 07:24:33 +0000 2014
p1173
sg72
Nsg73
I01
sg74
Nsg75
Nsg76
Nsg77
Nsg78
I00
sg79
Nsg80
(lp1174
sg82
Nsg83
V542580611190226945
p1175
sg85
Nsg86
VPeople sliding down an icy snow-covered mound at the base of the American Falls in Niagara Falls, New York, c. 1883. http://t.co/sUXy3kFIOV
p1176
sg88
I00
sg89
Ven
p1177
sg91
g3
(g92
g5
Ntp1178
Rp1179
(dp1180
g10
g96
sg97
V666666
p1181
sg99
Ven
p1182
sg101
VPacific Time (US & Canada)
p1183
sg103
I3303475
sg104
I58223
sg70
VSun May 30 04:33:13 +0000 2010
p1184
sg106
I00
sg107
VHistory is fun. Learn today. Be learnt tomorrow.  Contact: livingthehistorylife@gmail.com
p1185
sg109
Vhttps://pbs.twimg.com/profile_images/542596647134318592/a3O3n8nw_normal.jpeg
p1186
sg111
I13353
sg112
I443
sg113
I-28800
sg114
Nsg115
I00
sg116
Vhttps://pbs.twimg.com/profile_banners/149760844/1417429169
p1187
sg118
I00
sg119
I00
sg120
VFFCC4D
p1188
sg122
I01
sg123
I00
sg124
Vhttp://pbs.twimg.com/profile_background_images/472703723232182273/0X5Itz8E.jpeg
p1189
sg126
VThislsAmazing
p1190
sg128
I5109
sg129
VLost In History
p1191
sg131
V252429
p1192
sg133
Nsg134
I149760844
sg135
VDBE9ED
p1193
sbsg137
I203
sg138
V<a href="https://about.twitter.com/products/tweetdeck" rel="nofollow">TweetDeck</a>
p1194
sg140
(lp1195
sg134
I542580611190226945
sbsg20
Nsg21
(lp1196
(dp1197
Vsource_user_id
p1198
I149760844
sVsource_status_id_str
p1199
V542580611190226945
p1200
sVexpanded_url
p1201
Vhttp://twitter.com/ThislsAmazing/status/542580611190226945/photo/1
p1202
sVdisplay_url
p1203
Vpic.twitter.com/sUXy3kFIOV
p1204
sVurl
p1205
Vhttp://t.co/sUXy3kFIOV
p1206
sVmedia_url_https
p1207
Vhttps://pbs.twimg.com/media/B4eiMEoCUAAEH9a.jpg
p1208
sVsource_user_id_str
p1209
V149760844
p1210
sVsource_status_id
p1211
I542580611190226945
sVid_str
p1212
V542580608405229568
p1213
sVsizes
p1214
(dp1215
Vlarge
p1216
(dp1217
Vh
p1218
I2048
sVresize
p1219
Vfit
p1220
sVw
p1221
I1007
ssVsmall
p1222
(dp1223
Vh
p1224
I680
sVresize
p1225
Vfit
p1226
sVw
p1227
I334
ssVmedium
p1228
(dp1229
Vh
p1230
I1200
sVresize
p1231
Vfit
p1232
sVw
p1233
I590
ssVthumb
p1234
(dp1235
Vh
p1236
I150
sVresize
p1237
Vcrop
p1238
sVw
p1239
I150
sssVindices
p1240
(lp1241
I139
aI140
asVtype
p1242
Vphoto
p1243
sVid
p1244
I542580608405229568
sVmedia_url
p1245
Vhttp://pbs.twimg.com/media/B4eiMEoCUAAEH9a.jpg
p1246
sasg67
Nsg68
Nsg69
Nsg70
VSun Dec 14 11:26:49 +0000 2014
p1247
sg72
Nsg73
I00
sg74
Nsg75
Nsg76
Nsg77
Nsg78
I00
sg79
Nsg80
(lp1248
g3
(g92
g5
Ntp1249
Rp1250
(dp1251
g10
Nsg97
Nsg99
Nsg101
Nsg103
Nsg104
Nsg70
Nsg106
Nsg107
Nsg109
Nsg111
Nsg112
Nsg113
Nsg114
Nsg115
Nsg116
Nsg118
Nsg119
Nsg120
Nsg122
Nsg123
Nsg124
Nsg126
VThislsAmazing
p1252
sg128
Nsg129
VLost In History
p1253
sg131
Nsg133
Nsg134
I149760844
sg135
Nsbasg82
Nsg83
V544091132934619136
p1254
sg85
Nsg86
VRT @ThislsAmazing: People sliding down an icy snow-covered mound at the base of the American Falls in Niagara Falls, New York, c. 1883. htt\u2026
p1255
sg88
I00
sg89
Ven
p1256
sg91
g3
(g92
g5
Ntp1257
Rp1258
(dp1259
g10
g96
sg97
V333333
p1260
sg99
Ven
p1261
sg101
Nsg103
I185
sg104
I1168
sg70
VSun Sep 21 03:33:45 +0000 2014
p1262
sg106
I00
sg107
g96
sg109
Vhttps://abs.twimg.com/sticky/default_profile_images/default_profile_5_normal.png
p1263
sg111
I1163
sg112
I2473
sg113
Nsg114
Nsg115
I00
sg116
Nsg118
I00
sg119
I00
sg120
V0084B4
p1264
sg122
I00
sg123
I00
sg124
Vhttp://abs.twimg.com/images/themes/theme1/bg.png
p1265
sg126
VDolickVilla
p1266
sg128
I1
sg129
VDolick Villa
p1267
sg131
VDDEEF6
p1268
sg133
Nsg134
I2823346195
sg135
VC0DEED
p1269
sbsg137
I203
sg138
V<a href="http://twitter.com/download/iphone" rel="nofollow">Twitter for iPhone</a>
p1270
sg140
(lp1271
sg134
I544091132934619136
sbag3
(g4
g5
Ntp1272
Rp1273
(dp1274
g9
I0
sg10
Nsg11
Nsg12
(lp1275
sg14
I00
sg15
g3
(g4
g5
Ntp1276
Rp1277
(dp1278
g9
I1082
sg10
Nsg11
Nsg12
(lp1279
sg14
I00
sg15
Nsg20
Nsg21
(lp1280
(dp1281
Vexpanded_url
p1282
Vhttp://twitter.com/ThislsAmazing/status/542752166163656706/photo/1
p1283
sVdisplay_url
p1284
Vpic.twitter.com/yZ04cftlym
p1285
sVurl
p1286
Vhttp://t.co/yZ04cftlym
p1287
sVmedia_url_https
p1288
Vhttps://pbs.twimg.com/media/B4g-OC4CIAA5AST.jpg
p1289
sVid_str
p1290
V542752166109126656
p1291
sVsizes
p1292
(dp1293
Vlarge
p1294
(dp1295
Vh
p1296
I598
sVresize
p1297
Vfit
p1298
sVw
p1299
I600
ssVsmall
p1300
(dp1301
Vh
p1302
I338
sVresize
p1303
Vfit
p1304
sVw
p1305
I340
ssVmedium
p1306
(dp1307
Vh
p1308
I598
sVresize
p1309
Vfit
p1310
sVw
p1311
I600
ssVthumb
p1312
(dp1313
Vh
p1314
I150
sVresize
p1315
Vcrop
p1316
sVw
p1317
I150
sssVindices
p1318
(lp1319
I36
aI58
asVtype
p1320
Vphoto
p1321
sVid
p1322
I542752166109126656
sVmedia_url
p1323
Vhttp://pbs.twimg.com/media/B4g-OC4CIAA5AST.jpg
p1324
sasg67
Nsg68
Nsg69
Nsg70
VWed Dec 10 18:46:14 +0000 2014
p1325
sg72
Nsg73
I01
sg74
Nsg75
Nsg76
Nsg77
Nsg78
I00
sg79
Nsg80
(lp1326
sg82
Nsg83
V542752166163656706
p1327
sg85
Nsg86
VWomen's Bathing Suits in the 1950's http://t.co/yZ04cftlym
p1328
sg88
I00
sg89
Ven
p1329
sg91
g3
(g92
g5
Ntp1330
Rp1331
(dp1332
g10
g96
sg97
V666666
p1333
sg99
Ven
p1334
sg101
VPacific Time (US & Canada)
p1335
sg103
I3303475
sg104
I58223
sg70
VSun May 30 04:33:13 +0000 2010
p1336
sg106
I00
sg107
VHistory is fun. Learn today. Be learnt tomorrow.  Contact: livingthehistorylife@gmail.com
p1337
sg109
Vhttps://pbs.twimg.com/profile_images/542596647134318592/a3O3n8nw_normal.jpeg
p1338
sg111
I13353
sg112
I443
sg113
I-28800
sg114
Nsg115
I00
sg116
Vhttps://pbs.twimg.com/profile_banners/149760844/1417429169
p1339
sg118
I00
sg119
I00
sg120
VFFCC4D
p1340
sg122
I01
sg123
I00
sg124
Vhttp://pbs.twimg.com/profile_background_images/472703723232182273/0X5Itz8E.jpeg
p1341
sg126
VThislsAmazing
p1342
sg128
I5109
sg129
VLost In History
p1343
sg131
V252429
p1344
sg133
Nsg134
I149760844
sg135
VDBE9ED
p1345
sbsg137
I407
sg138
V<a href="http://tapbots.com/tweetbot" rel="nofollow">Tweetbot for i\u039fS</a>
p1346
sg140
(lp1347
sg134
I542752166163656706
sbsg20
Nsg21
(lp1348
(dp1349
Vsource_user_id
p1350
I149760844
sVsource_status_id_str
p1351
V542752166163656706
p1352
sVexpanded_url
p1353
Vhttp://twitter.com/ThislsAmazing/status/542752166163656706/photo/1
p1354
sVdisplay_url
p1355
Vpic.twitter.com/yZ04cftlym
p1356
sVurl
p1357
Vhttp://t.co/yZ04cftlym
p1358
sVmedia_url_https
p1359
Vhttps://pbs.twimg.com/media/B4g-OC4CIAA5AST.jpg
p1360
sVsource_user_id_str
p1361
V149760844
p1362
sVsource_status_id
p1363
I542752166163656706
sVid_str
p1364
V542752166109126656
p1365
sVsizes
p1366
(dp1367
Vlarge
p1368
(dp1369
Vh
p1370
I598
sVresize
p1371
Vfit
p1372
sVw
p1373
I600
ssVsmall
p1374
(dp1375
Vh
p1376
I338
sVresize
p1377
Vfit
p1378
sVw
p1379
I340
ssVmedium
p1380
(dp1381
Vh
p1382
I598
sVresize
p1383
Vfit
p1384
sVw
p1385
I600
ssVthumb
p1386
(dp1387
Vh
p1388
I150
sVresize
p1389
Vcrop
p1390
sVw
p1391
I150
sssVindices
p1392
(lp1393
I55
aI77
asVtype
p1394
Vphoto
p1395
sVid
p1396
I542752166109126656
sVmedia_url
p1397
Vhttp://pbs.twimg.com/media/B4g-OC4CIAA5AST.jpg
p1398
sasg67
Nsg68
Nsg69
Nsg70
VSun Dec 14 11:26:09 +0000 2014
p1399
sg72
Nsg73
I00
sg74
Nsg75
Nsg76
Nsg77
Nsg78
I00
sg79
Nsg80
(lp1400
g3
(g92
g5
Ntp1401
Rp1402
(dp1403
g10
Nsg97
Nsg99
Nsg101
Nsg103
Nsg104
Nsg70
Nsg106
Nsg107
Nsg109
Nsg111
Nsg112
Nsg113
Nsg114
Nsg115
Nsg116
Nsg118
Nsg119
Nsg120
Nsg122
Nsg123
Nsg124
Nsg126
VThislsAmazing
p1404
sg128
Nsg129
VLost In History
p1405
sg131
Nsg133
Nsg134
I149760844
sg135
Nsbasg82
Nsg83
V544090965535776769
p1406
sg85
Nsg86
VRT @ThislsAmazing: Women's Bathing Suits in the 1950's http://t.co/yZ04cftlym
p1407
sg88
I00
sg89
Ven
p1408
sg91
g3
(g92
g5
Ntp1409
Rp1410
(dp1411
g10
g96
sg97
V333333
p1412
sg99
Ven
p1413
sg101
Nsg103
I185
sg104
I1168
sg70
VSun Sep 21 03:33:45 +0000 2014
p1414
sg106
I00
sg107
g96
sg109
Vhttps://abs.twimg.com/sticky/default_profile_images/default_profile_5_normal.png
p1415
sg111
I1163
sg112
I2473
sg113
Nsg114
Nsg115
I00
sg116
Nsg118
I00
sg119
I00
sg120
V0084B4
p1416
sg122
I00
sg123
I00
sg124
Vhttp://abs.twimg.com/images/themes/theme1/bg.png
p1417
sg126
VDolickVilla
p1418
sg128
I1
sg129
VDolick Villa
p1419
sg131
VDDEEF6
p1420
sg133
Nsg134
I2823346195
sg135
VC0DEED
p1421
sbsg137
I407
sg138
V<a href="http://twitter.com/download/iphone" rel="nofollow">Twitter for iPhone</a>
p1422
sg140
(lp1423
sg134
I544090965535776769
sbag3
(g4
g5
Ntp1424
Rp1425
(dp1426
g9
I0
sg10
Nsg11
Nsg12
(lp1427
sg14
I00
sg15
g3
(g4
g5
Ntp1428
Rp1429
(dp1430
g9
I3120
sg10
Nsg11
Nsg12
(lp1431
sg14
I00
sg15
Nsg20
Nsg21
(lp1432
(dp1433
Vexpanded_url
p1434
Vhttp://twitter.com/ThislsAmazing/status/542762880358035456/photo/1
p1435
sVdisplay_url
p1436
Vpic.twitter.com/Irr7P1HfiT
p1437
sVurl
p1438
Vhttp://t.co/Irr7P1HfiT
p1439
sVmedia_url_https
p1440
Vhttps://pbs.twimg.com/media/B4hH9sYCcAARCm1.jpg
p1441
sVid_str
p1442
V542762880307720192
p1443
sVsizes
p1444
(dp1445
Vlarge
p1446
(dp1447
Vh
p1448
I428
sVresize
p1449
Vfit
p1450
sVw
p1451
I599
ssVsmall
p1452
(dp1453
Vh
p1454
I242
sVresize
p1455
Vfit
p1456
sVw
p1457
I340
ssVmedium
p1458
(dp1459
Vh
p1460
I428
sVresize
p1461
Vfit
p1462
sVw
p1463
I599
ssVthumb
p1464
(dp1465
Vh
p1466
I150
sVresize
p1467
Vcrop
p1468
sVw
p1469
I150
sssVindices
p1470
(lp1471
I45
aI67
asVtype
p1472
Vphoto
p1473
sVid
p1474
I542762880307720192
sVmedia_url
p1475
Vhttp://pbs.twimg.com/media/B4hH9sYCcAARCm1.jpg
p1476
sasg67
Nsg68
Nsg69
Nsg70
VWed Dec 10 19:28:49 +0000 2014
p1477
sg72
Nsg73
I01
sg74
Nsg75
Nsg76
Nsg77
Nsg78
I00
sg79
Nsg80
(lp1478
sg82
Nsg83
V542762880358035456
p1479
sg85
Nsg86
VBritney Spears and Christina Aguilera, 1994. http://t.co/Irr7P1HfiT
p1480
sg88
I00
sg89
Ven
p1481
sg91
g3
(g92
g5
Ntp1482
Rp1483
(dp1484
g10
g96
sg97
V666666
p1485
sg99
Ven
p1486
sg101
VPacific Time (US & Canada)
p1487
sg103
I3303475
sg104
I58223
sg70
VSun May 30 04:33:13 +0000 2010
p1488
sg106
I00
sg107
VHistory is fun. Learn today. Be learnt tomorrow.  Contact: livingthehistorylife@gmail.com
p1489
sg109
Vhttps://pbs.twimg.com/profile_images/542596647134318592/a3O3n8nw_normal.jpeg
p1490
sg111
I13353
sg112
I443
sg113
I-28800
sg114
Nsg115
I00
sg116
Vhttps://pbs.twimg.com/profile_banners/149760844/1417429169
p1491
sg118
I00
sg119
I00
sg120
VFFCC4D
p1492
sg122
I01
sg123
I00
sg124
Vhttp://pbs.twimg.com/profile_background_images/472703723232182273/0X5Itz8E.jpeg
p1493
sg126
VThislsAmazing
p1494
sg128
I5109
sg129
VLost In History
p1495
sg131
V252429
p1496
sg133
Nsg134
I149760844
sg135
VDBE9ED
p1497
sbsg137
I1557
sg138
V<a href="http://tapbots.com/tweetbot" rel="nofollow">Tweetbot for i\u039fS</a>
p1498
sg140
(lp1499
sg134
I542762880358035456
sbsg20
Nsg21
(lp1500
(dp1501
Vsource_user_id
p1502
I149760844
sVsource_status_id_str
p1503
V542762880358035456
p1504
sVexpanded_url
p1505
Vhttp://twitter.com/ThislsAmazing/status/542762880358035456/photo/1
p1506
sVdisplay_url
p1507
Vpic.twitter.com/Irr7P1HfiT
p1508
sVurl
p1509
Vhttp://t.co/Irr7P1HfiT
p1510
sVmedia_url_https
p1511
Vhttps://pbs.twimg.com/media/B4hH9sYCcAARCm1.jpg
p1512
sVsource_user_id_str
p1513
V149760844
p1514
sVsource_status_id
p1515
I542762880358035456
sVid_str
p1516
V542762880307720192
p1517
sVsizes
p1518
(dp1519
Vlarge
p1520
(dp1521
Vh
p1522
I428
sVresize
p1523
Vfit
p1524
sVw
p1525
I599
ssVsmall
p1526
(dp1527
Vh
p1528
I242
sVresize
p1529
Vfit
p1530
sVw
p1531
I340
ssVmedium
p1532
(dp1533
Vh
p1534
I428
sVresize
p1535
Vfit
p1536
sVw
p1537
I599
ssVthumb
p1538
(dp1539
Vh
p1540
I150
sVresize
p1541
Vcrop
p1542
sVw
p1543
I150
sssVindices
p1544
(lp1545
I64
aI86
asVtype
p1546
Vphoto
p1547
sVid
p1548
I542762880307720192
sVmedia_url
p1549
Vhttp://pbs.twimg.com/media/B4hH9sYCcAARCm1.jpg
p1550
sasg67
Nsg68
Nsg69
Nsg70
VSun Dec 14 11:25:59 +0000 2014
p1551
sg72
Nsg73
I00
sg74
Nsg75
Nsg76
Nsg77
Nsg78
I00
sg79
Nsg80
(lp1552
g3
(g92
g5
Ntp1553
Rp1554
(dp1555
g10
Nsg97
Nsg99
Nsg101
Nsg103
Nsg104
Nsg70
Nsg106
Nsg107
Nsg109
Nsg111
Nsg112
Nsg113
Nsg114
Nsg115
Nsg116
Nsg118
Nsg119
Nsg120
Nsg122
Nsg123
Nsg124
Nsg126
VThislsAmazing
p1556
sg128
Nsg129
VLost In History
p1557
sg131
Nsg133
Nsg134
I149760844
sg135
Nsbasg82
Nsg83
V544090924943290368
p1558
sg85
Nsg86
VRT @ThislsAmazing: Britney Spears and Christina Aguilera, 1994. http://t.co/Irr7P1HfiT
p1559
sg88
I00
sg89
Ven
p1560
sg91
g3
(g92
g5
Ntp1561
Rp1562
(dp1563
g10
g96
sg97
V333333
p1564
sg99
Ven
p1565
sg101
Nsg103
I185
sg104
I1168
sg70
VSun Sep 21 03:33:45 +0000 2014
p1566
sg106
I00
sg107
g96
sg109
Vhttps://abs.twimg.com/sticky/default_profile_images/default_profile_5_normal.png
p1567
sg111
I1163
sg112
I2473
sg113
Nsg114
Nsg115
I00
sg116
Nsg118
I00
sg119
I00
sg120
V0084B4
p1568
sg122
I00
sg123
I00
sg124
Vhttp://abs.twimg.com/images/themes/theme1/bg.png
p1569
sg126
VDolickVilla
p1570
sg128
I1
sg129
VDolick Villa
p1571
sg131
VDDEEF6
p1572
sg133
Nsg134
I2823346195
sg135
VC0DEED
p1573
sbsg137
I1557
sg138
V<a href="http://twitter.com/download/iphone" rel="nofollow">Twitter for iPhone</a>
p1574
sg140
(lp1575
sg134
I544090924943290368
sbag3
(g4
g5
Ntp1576
Rp1577
(dp1578
g9
I0
sg10
Nsg11
Nsg12
(lp1579
sg14
I00
sg15
g3
(g4
g5
Ntp1580
Rp1581
(dp1582
g9
I1716
sg10
Nsg11
Nsg12
(lp1583
sg14
I00
sg15
Nsg20
Nsg21
(lp1584
(dp1585
Vexpanded_url
p1586
Vhttp://twitter.com/ThislsAmazing/status/542925691897933825/photo/1
p1587
sVdisplay_url
p1588
Vpic.twitter.com/L22PasZNXC
p1589
sVurl
p1590
Vhttp://t.co/L22PasZNXC
p1591
sVmedia_url_https
p1592
Vhttps://pbs.twimg.com/media/B4jcCMxCIAEaZgZ.jpg
p1593
sVid_str
p1594
V542925685442879489
p1595
sVsizes
p1596
(dp1597
Vsmall
p1598
(dp1599
Vh
p1600
I485
sVresize
p1601
Vfit
p1602
sVw
p1603
I340
ssVlarge
p1604
(dp1605
Vh
p1606
I1462
sVresize
p1607
Vfit
p1608
sVw
p1609
I1024
ssVmedium
p1610
(dp1611
Vh
p1612
I857
sVresize
p1613
Vfit
p1614
sVw
p1615
I600
ssVthumb
p1616
(dp1617
Vh
p1618
I150
sVresize
p1619
Vcrop
p1620
sVw
p1621
I150
sssVindices
p1622
(lp1623
I68
aI90
asVtype
p1624
Vphoto
p1625
sVid
p1626
I542925685442879489
sVmedia_url
p1627
Vhttp://pbs.twimg.com/media/B4jcCMxCIAEaZgZ.jpg
p1628
sasg67
Nsg68
Nsg69
Nsg70
VThu Dec 11 06:15:46 +0000 2014
p1629
sg72
Nsg73
I01
sg74
Nsg75
Nsg76
Nsg77
Nsg78
I00
sg79
Nsg80
(lp1630
sg82
Nsg83
V542925691897933825
p1631
sg85
Nsg86
VBeastie Boys chasing Madonna around on stage with squirt guns, 1985 http://t.co/L22PasZNXC
p1632
sg88
I00
sg89
Ven
p1633
sg91
g3
(g92
g5
Ntp1634
Rp1635
(dp1636
g10
g96
sg97
V666666
p1637
sg99
Ven
p1638
sg101
VPacific Time (US & Canada)
p1639
sg103
I3303475
sg104
I58223
sg70
VSun May 30 04:33:13 +0000 2010
p1640
sg106
I00
sg107
VHistory is fun. Learn today. Be learnt tomorrow.  Contact: livingthehistorylife@gmail.com
p1641
sg109
Vhttps://pbs.twimg.com/profile_images/542596647134318592/a3O3n8nw_normal.jpeg
p1642
sg111
I13353
sg112
I443
sg113
I-28800
sg114
Nsg115
I00
sg116
Vhttps://pbs.twimg.com/profile_banners/149760844/1417429169
p1643
sg118
I00
sg119
I00
sg120
VFFCC4D
p1644
sg122
I01
sg123
I00
sg124
Vhttp://pbs.twimg.com/profile_background_images/472703723232182273/0X5Itz8E.jpeg
p1645
sg126
VThislsAmazing
p1646
sg128
I5109
sg129
VLost In History
p1647
sg131
V252429
p1648
sg133
Nsg134
I149760844
sg135
VDBE9ED
p1649
sbsg137
I888
sg138
V<a href="http://twitter.com" rel="nofollow">Twitter Web Client</a>
p1650
sg140
(lp1651
sg134
I542925691897933825
sbsg20
Nsg21
(lp1652
(dp1653
Vsource_user_id
p1654
I149760844
sVsource_status_id_str
p1655
V542925691897933825
p1656
sVexpanded_url
p1657
Vhttp://twitter.com/ThislsAmazing/status/542925691897933825/photo/1
p1658
sVdisplay_url
p1659
Vpic.twitter.com/L22PasZNXC
p1660
sVurl
p1661
Vhttp://t.co/L22PasZNXC
p1662
sVmedia_url_https
p1663
Vhttps://pbs.twimg.com/media/B4jcCMxCIAEaZgZ.jpg
p1664
sVsource_user_id_str
p1665
V149760844
p1666
sVsource_status_id
p1667
I542925691897933825
sVid_str
p1668
V542925685442879489
p1669
sVsizes
p1670
(dp1671
Vsmall
p1672
(dp1673
Vh
p1674
I485
sVresize
p1675
Vfit
p1676
sVw
p1677
I340
ssVlarge
p1678
(dp1679
Vh
p1680
I1462
sVresize
p1681
Vfit
p1682
sVw
p1683
I1024
ssVmedium
p1684
(dp1685
Vh
p1686
I857
sVresize
p1687
Vfit
p1688
sVw
p1689
I600
ssVthumb
p1690
(dp1691
Vh
p1692
I150
sVresize
p1693
Vcrop
p1694
sVw
p1695
I150
sssVindices
p1696
(lp1697
I87
aI109
asVtype
p1698
Vphoto
p1699
sVid
p1700
I542925685442879489
sVmedia_url
p1701
Vhttp://pbs.twimg.com/media/B4jcCMxCIAEaZgZ.jpg
p1702
sasg67
Nsg68
Nsg69
Nsg70
VSun Dec 14 11:25:32 +0000 2014
p1703
sg72
Nsg73
I00
sg74
Nsg75
Nsg76
Nsg77
Nsg78
I00
sg79
Nsg80
(lp1704
g3
(g92
g5
Ntp1705
Rp1706
(dp1707
g10
Nsg97
Nsg99
Nsg101
Nsg103
Nsg104
Nsg70
Nsg106
Nsg107
Nsg109
Nsg111
Nsg112
Nsg113
Nsg114
Nsg115
Nsg116
Nsg118
Nsg119
Nsg120
Nsg122
Nsg123
Nsg124
Nsg126
VThislsAmazing
p1708
sg128
Nsg129
VLost In History
p1709
sg131
Nsg133
Nsg134
I149760844
sg135
Nsbasg82
Nsg83
V544090808404549633
p1710
sg85
Nsg86
VRT @ThislsAmazing: Beastie Boys chasing Madonna around on stage with squirt guns, 1985 http://t.co/L22PasZNXC
p1711
sg88
I00
sg89
Ven
p1712
sg91
g3
(g92
g5
Ntp1713
Rp1714
(dp1715
g10
g96
sg97
V333333
p1716
sg99
Ven
p1717
sg101
Nsg103
I185
sg104
I1168
sg70
VSun Sep 21 03:33:45 +0000 2014
p1718
sg106
I00
sg107
g96
sg109
Vhttps://abs.twimg.com/sticky/default_profile_images/default_profile_5_normal.png
p1719
sg111
I1163
sg112
I2473
sg113
Nsg114
Nsg115
I00
sg116
Nsg118
I00
sg119
I00
sg120
V0084B4
p1720
sg122
I00
sg123
I00
sg124
Vhttp://abs.twimg.com/images/themes/theme1/bg.png
p1721
sg126
VDolickVilla
p1722
sg128
I1
sg129
VDolick Villa
p1723
sg131
VDDEEF6
p1724
sg133
Nsg134
I2823346195
sg135
VC0DEED
p1725
sbsg137
I888
sg138
V<a href="http://twitter.com/download/iphone" rel="nofollow">Twitter for iPhone</a>
p1726
sg140
(lp1727
sg134
I544090808404549633
sbag3
(g4
g5
Ntp1728
Rp1729
(dp1730
g9
I0
sg10
Nsg11
Nsg12
(lp1731
sg14
I00
sg15
g3
(g4
g5
Ntp1732
Rp1733
(dp1734
g9
I367
sg10
Nsg11
Nsg12
(lp1735
sg14
I00
sg15
Nsg20
Nsg21
(lp1736
(dp1737
Vexpanded_url
p1738
Vhttp://twitter.com/ThislsAmazing/status/542948267013595137/photo/1
p1739
sVdisplay_url
p1740
Vpic.twitter.com/mbqPNkivTR
p1741
sVurl
p1742
Vhttp://t.co/mbqPNkivTR
p1743
sVmedia_url_https
p1744
Vhttps://pbs.twimg.com/media/B4jwkgcCAAEEpzV.jpg
p1745
sVid_str
p1746
V542948265071607809
p1747
sVsizes
p1748
(dp1749
Vsmall
p1750
(dp1751
Vh
p1752
I544
sVresize
p1753
Vfit
p1754
sVw
p1755
I340
ssVlarge
p1756
(dp1757
Vh
p1758
I1000
sVresize
p1759
Vfit
p1760
sVw
p1761
I625
ssVmedium
p1762
(dp1763
Vh
p1764
I960
sVresize
p1765
Vfit
p1766
sVw
p1767
I600
ssVthumb
p1768
(dp1769
Vh
p1770
I150
sVresize
p1771
Vcrop
p1772
sVw
p1773
I150
sssVindices
p1774
(lp1775
I71
aI93
asVtype
p1776
Vphoto
p1777
sVid
p1778
I542948265071607809
sVmedia_url
p1779
Vhttp://pbs.twimg.com/media/B4jwkgcCAAEEpzV.jpg
p1780
sasg67
Nsg68
Nsg69
Nsg70
VThu Dec 11 07:45:29 +0000 2014
p1781
sg72
Nsg73
I01
sg74
Nsg75
Nsg76
Nsg77
Nsg78
I00
sg79
Nsg80
(lp1782
sg82
Nsg83
V542948267013595137
p1783
sg85
Nsg86
VA 17 year old Fidel Castro plays basketball at his High School in 1943 http://t.co/mbqPNkivTR
p1784
sg88
I00
sg89
Ven
p1785
sg91
g3
(g92
g5
Ntp1786
Rp1787
(dp1788
g10
g96
sg97
V666666
p1789
sg99
Ven
p1790
sg101
VPacific Time (US & Canada)
p1791
sg103
I3303475
sg104
I58223
sg70
VSun May 30 04:33:13 +0000 2010
p1792
sg106
I00
sg107
VHistory is fun. Learn today. Be learnt tomorrow.  Contact: livingthehistorylife@gmail.com
p1793
sg109
Vhttps://pbs.twimg.com/profile_images/542596647134318592/a3O3n8nw_normal.jpeg
p1794
sg111
I13353
sg112
I443
sg113
I-28800
sg114
Nsg115
I00
sg116
Vhttps://pbs.twimg.com/profile_banners/149760844/1417429169
p1795
sg118
I00
sg119
I00
sg120
VFFCC4D
p1796
sg122
I01
sg123
I00
sg124
Vhttp://pbs.twimg.com/profile_background_images/472703723232182273/0X5Itz8E.jpeg
p1797
sg126
VThislsAmazing
p1798
sg128
I5109
sg129
VLost In History
p1799
sg131
V252429
p1800
sg133
Nsg134
I149760844
sg135
VDBE9ED
p1801
sbsg137
I216
sg138
V<a href="http://twitter.com" rel="nofollow">Twitter Web Client</a>
p1802
sg140
(lp1803
sg134
I542948267013595137
sbsg20
Nsg21
(lp1804
(dp1805
Vsource_user_id
p1806
I149760844
sVsource_status_id_str
p1807
V542948267013595137
p1808
sVexpanded_url
p1809
Vhttp://twitter.com/ThislsAmazing/status/542948267013595137/photo/1
p1810
sVdisplay_url
p1811
Vpic.twitter.com/mbqPNkivTR
p1812
sVurl
p1813
Vhttp://t.co/mbqPNkivTR
p1814
sVmedia_url_https
p1815
Vhttps://pbs.twimg.com/media/B4jwkgcCAAEEpzV.jpg
p1816
sVsource_user_id_str
p1817
V149760844
p1818
sVsource_status_id
p1819
I542948267013595137
sVid_str
p1820
V542948265071607809
p1821
sVsizes
p1822
(dp1823
Vsmall
p1824
(dp1825
Vh
p1826
I544
sVresize
p1827
Vfit
p1828
sVw
p1829
I340
ssVlarge
p1830
(dp1831
Vh
p1832
I1000
sVresize
p1833
Vfit
p1834
sVw
p1835
I625
ssVmedium
p1836
(dp1837
Vh
p1838
I960
sVresize
p1839
Vfit
p1840
sVw
p1841
I600
ssVthumb
p1842
(dp1843
Vh
p1844
I150
sVresize
p1845
Vcrop
p1846
sVw
p1847
I150
sssVindices
p1848
(lp1849
I90
aI112
asVtype
p1850
Vphoto
p1851
sVid
p1852
I542948265071607809
sVmedia_url
p1853
Vhttp://pbs.twimg.com/media/B4jwkgcCAAEEpzV.jpg
p1854
sasg67
Nsg68
Nsg69
Nsg70
VSun Dec 14 11:25:04 +0000 2014
p1855
sg72
Nsg73
I00
sg74
Nsg75
Nsg76
Nsg77
Nsg78
I00
sg79
Nsg80
(lp1856
g3
(g92
g5
Ntp1857
Rp1858
(dp1859
g10
Nsg97
Nsg99
Nsg101
Nsg103
Nsg104
Nsg70
Nsg106
Nsg107
Nsg109
Nsg111
Nsg112
Nsg113
Nsg114
Nsg115
Nsg116
Nsg118
Nsg119
Nsg120
Nsg122
Nsg123
Nsg124
Nsg126
VThislsAmazing
p1860
sg128
Nsg129
VLost In History
p1861
sg131
Nsg133
Nsg134
I149760844
sg135
Nsbasg82
Nsg83
V544090692306206721
p1862
sg85
Nsg86
VRT @ThislsAmazing: A 17 year old Fidel Castro plays basketball at his High School in 1943 http://t.co/mbqPNkivTR
p1863
sg88
I00
sg89
Ven
p1864
sg91
g3
(g92
g5
Ntp1865
Rp1866
(dp1867
g10
g96
sg97
V333333
p1868
sg99
Ven
p1869
sg101
Nsg103
I185
sg104
I1168
sg70
VSun Sep 21 03:33:45 +0000 2014
p1870
sg106
I00
sg107
g96
sg109
Vhttps://abs.twimg.com/sticky/default_profile_images/default_profile_5_normal.png
p1871
sg111
I1163
sg112
I2473
sg113
Nsg114
Nsg115
I00
sg116
Nsg118
I00
sg119
I00
sg120
V0084B4
p1872
sg122
I00
sg123
I00
sg124
Vhttp://abs.twimg.com/images/themes/theme1/bg.png
p1873
sg126
VDolickVilla
p1874
sg128
I1
sg129
VDolick Villa
p1875
sg131
VDDEEF6
p1876
sg133
Nsg134
I2823346195
sg135
VC0DEED
p1877
sbsg137
I216
sg138
V<a href="http://twitter.com/download/iphone" rel="nofollow">Twitter for iPhone</a>
p1878
sg140
(lp1879
sg134
I544090692306206721
sbag3
(g4
g5
Ntp1880
Rp1881
(dp1882
g9
I0
sg10
Nsg11
Nsg12
(lp1883
sg14
I00
sg15
g3
(g4
g5
Ntp1884
Rp1885
(dp1886
g9
I144
sg10
Nsg11
Nsg12
(lp1887
sg14
I00
sg15
Nsg20
Nsg21
(lp1888
(dp1889
Vexpanded_url
p1890
Vhttp://twitter.com/ThislsAmazing/status/542962354778955777/photo/1
p1891
sVdisplay_url
p1892
Vpic.twitter.com/7AgBVV9ycu
p1893
sVurl
p1894
Vhttp://t.co/7AgBVV9ycu
p1895
sVmedia_url_https
p1896
Vhttps://pbs.twimg.com/media/B4j9YhECUAAie_B.jpg
p1897
sVid_str
p1898
V542962352732131328
p1899
sVsizes
p1900
(dp1901
Vlarge
p1902
(dp1903
Vh
p1904
I899
sVresize
p1905
Vfit
p1906
sVw
p1907
I634
ssVsmall
p1908
(dp1909
Vh
p1910
I482
sVresize
p1911
Vfit
p1912
sVw
p1913
I340
ssVmedium
p1914
(dp1915
Vh
p1916
I850
sVresize
p1917
Vfit
p1918
sVw
p1919
I600
ssVthumb
p1920
(dp1921
Vh
p1922
I150
sVresize
p1923
Vcrop
p1924
sVw
p1925
I150
sssVindices
p1926
(lp1927
I60
aI82
asVtype
p1928
Vphoto
p1929
sVid
p1930
I542962352732131328
sVmedia_url
p1931
Vhttp://pbs.twimg.com/media/B4j9YhECUAAie_B.jpg
p1932
sasg67
Nsg68
Nsg69
Nsg70
VThu Dec 11 08:41:27 +0000 2014
p1933
sg72
Nsg73
I01
sg74
Nsg75
Nsg76
Nsg77
Nsg78
I00
sg79
Nsg80
(lp1934
sg82
Nsg83
V542962354778955777
p1935
sg85
Nsg86
VHitler's mistress Eva Braun in blackface as Al Jolson, 1937 http://t.co/7AgBVV9ycu
p1936
sg88
I00
sg89
Ven
p1937
sg91
g3
(g92
g5
Ntp1938
Rp1939
(dp1940
g10
g96
sg97
V666666
p1941
sg99
Ven
p1942
sg101
VPacific Time (US & Canada)
p1943
sg103
I3303475
sg104
I58223
sg70
VSun May 30 04:33:13 +0000 2010
p1944
sg106
I00
sg107
VHistory is fun. Learn today. Be learnt tomorrow.  Contact: livingthehistorylife@gmail.com
p1945
sg109
Vhttps://pbs.twimg.com/profile_images/542596647134318592/a3O3n8nw_normal.jpeg
p1946
sg111
I13353
sg112
I443
sg113
I-28800
sg114
Nsg115
I00
sg116
Vhttps://pbs.twimg.com/profile_banners/149760844/1417429169
p1947
sg118
I00
sg119
I00
sg120
VFFCC4D
p1948
sg122
I01
sg123
I00
sg124
Vhttp://pbs.twimg.com/profile_background_images/472703723232182273/0X5Itz8E.jpeg
p1949
sg126
VThislsAmazing
p1950
sg128
I5109
sg129
VLost In History
p1951
sg131
V252429
p1952
sg133
Nsg134
I149760844
sg135
VDBE9ED
p1953
sbsg137
I83
sg138
V<a href="http://twitter.com" rel="nofollow">Twitter Web Client</a>
p1954
sg140
(lp1955
sg134
I542962354778955777
sbsg20
Nsg21
(lp1956
(dp1957
Vsource_user_id
p1958
I149760844
sVsource_status_id_str
p1959
V542962354778955777
p1960
sVexpanded_url
p1961
Vhttp://twitter.com/ThislsAmazing/status/542962354778955777/photo/1
p1962
sVdisplay_url
p1963
Vpic.twitter.com/7AgBVV9ycu
p1964
sVurl
p1965
Vhttp://t.co/7AgBVV9ycu
p1966
sVmedia_url_https
p1967
Vhttps://pbs.twimg.com/media/B4j9YhECUAAie_B.jpg
p1968
sVsource_user_id_str
p1969
V149760844
p1970
sVsource_status_id
p1971
I542962354778955777
sVid_str
p1972
V542962352732131328
p1973
sVsizes
p1974
(dp1975
Vlarge
p1976
(dp1977
Vh
p1978
I899
sVresize
p1979
Vfit
p1980
sVw
p1981
I634
ssVsmall
p1982
(dp1983
Vh
p1984
I482
sVresize
p1985
Vfit
p1986
sVw
p1987
I340
ssVmedium
p1988
(dp1989
Vh
p1990
I850
sVresize
p1991
Vfit
p1992
sVw
p1993
I600
ssVthumb
p1994
(dp1995
Vh
p1996
I150
sVresize
p1997
Vcrop
p1998
sVw
p1999
I150
sssVindices
p2000
(lp2001
I79
aI101
asVtype
p2002
Vphoto
p2003
sVid
p2004
I542962352732131328
sVmedia_url
p2005
Vhttp://pbs.twimg.com/media/B4j9YhECUAAie_B.jpg
p2006
sasg67
Nsg68
Nsg69
Nsg70
VSun Dec 14 11:24:50 +0000 2014
p2007
sg72
Nsg73
I00
sg74
Nsg75
Nsg76
Nsg77
Nsg78
I00
sg79
Nsg80
(lp2008
g3
(g92
g5
Ntp2009
Rp2010
(dp2011
g10
Nsg97
Nsg99
Nsg101
Nsg103
Nsg104
Nsg70
Nsg106
Nsg107
Nsg109
Nsg111
Nsg112
Nsg113
Nsg114
Nsg115
Nsg116
Nsg118
Nsg119
Nsg120
Nsg122
Nsg123
Nsg124
Nsg126
VThislsAmazing
p2012
sg128
Nsg129
VLost In History
p2013
sg131
Nsg133
Nsg134
I149760844
sg135
Nsbasg82
Nsg83
V544090635146248192
p2014
sg85
Nsg86
VRT @ThislsAmazing: Hitler's mistress Eva Braun in blackface as Al Jolson, 1937 http://t.co/7AgBVV9ycu
p2015
sg88
I00
sg89
Ven
p2016
sg91
g3
(g92
g5
Ntp2017
Rp2018
(dp2019
g10
g96
sg97
V333333
p2020
sg99
Ven
p2021
sg101
Nsg103
I185
sg104
I1168
sg70
VSun Sep 21 03:33:45 +0000 2014
p2022
sg106
I00
sg107
g96
sg109
Vhttps://abs.twimg.com/sticky/default_profile_images/default_profile_5_normal.png
p2023
sg111
I1163
sg112
I2473
sg113
Nsg114
Nsg115
I00
sg116
Nsg118
I00
sg119
I00
sg120
V0084B4
p2024
sg122
I00
sg123
I00
sg124
Vhttp://abs.twimg.com/images/themes/theme1/bg.png
p2025
sg126
VDolickVilla
p2026
sg128
I1
sg129
VDolick Villa
p2027
sg131
VDDEEF6
p2028
sg133
Nsg134
I2823346195
sg135
VC0DEED
p2029
sbsg137
I83
sg138
V<a href="http://twitter.com/download/iphone" rel="nofollow">Twitter for iPhone</a>
p2030
sg140
(lp2031
sg134
I544090635146248192
sbag3
(g4
g5
Ntp2032
Rp2033
(dp2034
g9
I0
sg10
Nsg11
Nsg12
(lp2035
sg14
I00
sg15
g3
(g4
g5
Ntp2036
Rp2037
(dp2038
g9
I156
sg10
Nsg11
Nsg12
(lp2039
sg14
I00
sg15
Nsg20
Nsg21
(lp2040
(dp2041
Vexpanded_url
p2042
Vhttp://twitter.com/ThislsAmazing/status/542981850990247936/photo/1
p2043
sVdisplay_url
p2044
Vpic.twitter.com/ooIOrMF7RV
p2045
sVurl
p2046
Vhttp://t.co/ooIOrMF7RV
p2047
sVmedia_url_https
p2048
Vhttps://pbs.twimg.com/media/B4kPHWICEAAmEKS.png
p2049
sVid_str
p2050
V542981848947625984
p2051
sVsizes
p2052
(dp2053
Vlarge
p2054
(dp2055
Vh
p2056
I786
sVresize
p2057
Vfit
p2058
sVw
p2059
I1024
ssVsmall
p2060
(dp2061
Vh
p2062
I261
sVresize
p2063
Vfit
p2064
sVw
p2065
I340
ssVmedium
p2066
(dp2067
Vh
p2068
I460
sVresize
p2069
Vfit
p2070
sVw
p2071
I600
ssVthumb
p2072
(dp2073
Vh
p2074
I150
sVresize
p2075
Vcrop
p2076
sVw
p2077
I150
sssVindices
p2078
(lp2079
I51
aI73
asVtype
p2080
Vphoto
p2081
sVid
p2082
I542981848947625984
sVmedia_url
p2083
Vhttp://pbs.twimg.com/media/B4kPHWICEAAmEKS.png
p2084
sasg67
Nsg68
Nsg69
Nsg70
VThu Dec 11 09:58:56 +0000 2014
p2085
sg72
Nsg73
I01
sg74
Nsg75
Nsg76
Nsg77
Nsg78
I00
sg79
Nsg80
(lp2086
sg82
Nsg83
V542981850990247936
p2087
sg85
Nsg86
VA woman lies amid the rubble of Dessau, April 1945 http://t.co/ooIOrMF7RV
p2088
sg88
I00
sg89
Ven
p2089
sg91
g3
(g92
g5
Ntp2090
Rp2091
(dp2092
g10
g96
sg97
V666666
p2093
sg99
Ven
p2094
sg101
VPacific Time (US & Canada)
p2095
sg103
I3303475
sg104
I58223
sg70
VSun May 30 04:33:13 +0000 2010
p2096
sg106
I00
sg107
VHistory is fun. Learn today. Be learnt tomorrow.  Contact: livingthehistorylife@gmail.com
p2097
sg109
Vhttps://pbs.twimg.com/profile_images/542596647134318592/a3O3n8nw_normal.jpeg
p2098
sg111
I13353
sg112
I443
sg113
I-28800
sg114
Nsg115
I00
sg116
Vhttps://pbs.twimg.com/profile_banners/149760844/1417429169
p2099
sg118
I00
sg119
I00
sg120
VFFCC4D
p2100
sg122
I01
sg123
I00
sg124
Vhttp://pbs.twimg.com/profile_background_images/472703723232182273/0X5Itz8E.jpeg
p2101
sg126
VThislsAmazing
p2102
sg128
I5109
sg129
VLost In History
p2103
sg131
V252429
p2104
sg133
Nsg134
I149760844
sg135
VDBE9ED
p2105
sbsg137
I78
sg138
V<a href="http://twitter.com" rel="nofollow">Twitter Web Client</a>
p2106
sg140
(lp2107
sg134
I542981850990247936
sbsg20
Nsg21
(lp2108
(dp2109
Vsource_user_id
p2110
I149760844
sVsource_status_id_str
p2111
V542981850990247936
p2112
sVexpanded_url
p2113
Vhttp://twitter.com/ThislsAmazing/status/542981850990247936/photo/1
p2114
sVdisplay_url
p2115
Vpic.twitter.com/ooIOrMF7RV
p2116
sVurl
p2117
Vhttp://t.co/ooIOrMF7RV
p2118
sVmedia_url_https
p2119
Vhttps://pbs.twimg.com/media/B4kPHWICEAAmEKS.png
p2120
sVsource_user_id_str
p2121
V149760844
p2122
sVsource_status_id
p2123
I542981850990247936
sVid_str
p2124
V542981848947625984
p2125
sVsizes
p2126
(dp2127
Vlarge
p2128
(dp2129
Vh
p2130
I786
sVresize
p2131
Vfit
p2132
sVw
p2133
I1024
ssVsmall
p2134
(dp2135
Vh
p2136
I261
sVresize
p2137
Vfit
p2138
sVw
p2139
I340
ssVmedium
p2140
(dp2141
Vh
p2142
I460
sVresize
p2143
Vfit
p2144
sVw
p2145
I600
ssVthumb
p2146
(dp2147
Vh
p2148
I150
sVresize
p2149
Vcrop
p2150
sVw
p2151
I150
sssVindices
p2152
(lp2153
I70
aI92
asVtype
p2154
Vphoto
p2155
sVid
p2156
I542981848947625984
sVmedia_url
p2157
Vhttp://pbs.twimg.com/media/B4kPHWICEAAmEKS.png
p2158
sasg67
Nsg68
Nsg69
Nsg70
VSun Dec 14 11:24:44 +0000 2014
p2159
sg72
Nsg73
I00
sg74
Nsg75
Nsg76
Nsg77
Nsg78
I00
sg79
Nsg80
(lp2160
g3
(g92
g5
Ntp2161
Rp2162
(dp2163
g10
Nsg97
Nsg99
Nsg101
Nsg103
Nsg104
Nsg70
Nsg106
Nsg107
Nsg109
Nsg111
Nsg112
Nsg113
Nsg114
Nsg115
Nsg116
Nsg118
Nsg119
Nsg120
Nsg122
Nsg123
Nsg124
Nsg126
VThislsAmazing
p2164
sg128
Nsg129
VLost In History
p2165
sg131
Nsg133
Nsg134
I149760844
sg135
Nsbasg82
Nsg83
V544090608055226370
p2166
sg85
Nsg86
VRT @ThislsAmazing: A woman lies amid the rubble of Dessau, April 1945 http://t.co/ooIOrMF7RV
p2167
sg88
I00
sg89
Ven
p2168
sg91
g3
(g92
g5
Ntp2169
Rp2170
(dp2171
g10
g96
sg97
V333333
p2172
sg99
Ven
p2173
sg101
Nsg103
I185
sg104
I1168
sg70
VSun Sep 21 03:33:45 +0000 2014
p2174
sg106
I00
sg107
g96
sg109
Vhttps://abs.twimg.com/sticky/default_profile_images/default_profile_5_normal.png
p2175
sg111
I1163
sg112
I2473
sg113
Nsg114
Nsg115
I00
sg116
Nsg118
I00
sg119
I00
sg120
V0084B4
p2176
sg122
I00
sg123
I00
sg124
Vhttp://abs.twimg.com/images/themes/theme1/bg.png
p2177
sg126
VDolickVilla
p2178
sg128
I1
sg129
VDolick Villa
p2179
sg131
VDDEEF6
p2180
sg133
Nsg134
I2823346195
sg135
VC0DEED
p2181
sbsg137
I78
sg138
V<a href="http://twitter.com/download/iphone" rel="nofollow">Twitter for iPhone</a>
p2182
sg140
(lp2183
sg134
I544090608055226370
sbag3
(g4
g5
Ntp2184
Rp2185
(dp2186
g9
I0
sg10
Nsg11
Nsg12
(lp2187
sg14
I00
sg15
g3
(g4
g5
Ntp2188
Rp2189
(dp2190
g9
I417
sg10
Nsg11
Nsg12
(lp2191
sg14
I00
sg15
Nsg20
Nsg21
(lp2192
(dp2193
Vexpanded_url
p2194
Vhttp://twitter.com/ThislsAmazing/status/543047344963346432/photo/1
p2195
sVdisplay_url
p2196
Vpic.twitter.com/dpVxJHf2Q2
p2197
sVurl
p2198
Vhttp://t.co/dpVxJHf2Q2
p2199
sVmedia_url_https
p2200
Vhttps://pbs.twimg.com/media/B4lKrh4CYAAgyxu.jpg
p2201
sVid_str
p2202
V543047341763092480
p2203
sVsizes
p2204
(dp2205
Vsmall
p2206
(dp2207
Vh
p2208
I270
sVresize
p2209
Vfit
p2210
sVw
p2211
I340
ssVlarge
p2212
(dp2213
Vh
p2214
I815
sVresize
p2215
Vfit
p2216
sVw
p2217
I1024
ssVmedium
p2218
(dp2219
Vh
p2220
I477
sVresize
p2221
Vfit
p2222
sVw
p2223
I600
ssVthumb
p2224
(dp2225
Vh
p2226
I150
sVresize
p2227
Vcrop
p2228
sVw
p2229
I150
sssVindices
p2230
(lp2231
I34
aI56
asVtype
p2232
Vphoto
p2233
sVid
p2234
I543047341763092480
sVmedia_url
p2235
Vhttp://pbs.twimg.com/media/B4lKrh4CYAAgyxu.jpg
p2236
sasg67
Nsg68
Nsg69
Nsg70
VThu Dec 11 14:19:11 +0000 2014
p2237
sg72
Nsg73
I01
sg74
Nsg75
Nsg76
Nsg77
Nsg78
I00
sg79
Nsg80
(lp2238
sg82
Nsg83
V543047344963346432
p2239
sg85
Nsg86
VIndian snake charmers circa 1880. http://t.co/dpVxJHf2Q2
p2240
sg88
I00
sg89
Ven
p2241
sg91
g3
(g92
g5
Ntp2242
Rp2243
(dp2244
g10
g96
sg97
V666666
p2245
sg99
Ven
p2246
sg101
VPacific Time (US & Canada)
p2247
sg103
I3303475
sg104
I58223
sg70
VSun May 30 04:33:13 +0000 2010
p2248
sg106
I00
sg107
VHistory is fun. Learn today. Be learnt tomorrow.  Contact: livingthehistorylife@gmail.com
p2249
sg109
Vhttps://pbs.twimg.com/profile_images/542596647134318592/a3O3n8nw_normal.jpeg
p2250
sg111
I13353
sg112
I443
sg113
I-28800
sg114
Nsg115
I00
sg116
Vhttps://pbs.twimg.com/profile_banners/149760844/1417429169
p2251
sg118
I00
sg119
I00
sg120
VFFCC4D
p2252
sg122
I01
sg123
I00
sg124
Vhttp://pbs.twimg.com/profile_background_images/472703723232182273/0X5Itz8E.jpeg
p2253
sg126
VThislsAmazing
p2254
sg128
I5109
sg129
VLost In History
p2255
sg131
V252429
p2256
sg133
Nsg134
I149760844
sg135
VDBE9ED
p2257
sbsg137
I269
sg138
V<a href="http://twitter.com" rel="nofollow">Twitter Web Client</a>
p2258
sg140
(lp2259
sg134
I543047344963346432
sbsg20
Nsg21
(lp2260
(dp2261
Vsource_user_id
p2262
I149760844
sVsource_status_id_str
p2263
V543047344963346432
p2264
sVexpanded_url
p2265
Vhttp://twitter.com/ThislsAmazing/status/543047344963346432/photo/1
p2266
sVdisplay_url
p2267
Vpic.twitter.com/dpVxJHf2Q2
p2268
sVurl
p2269
Vhttp://t.co/dpVxJHf2Q2
p2270
sVmedia_url_https
p2271
Vhttps://pbs.twimg.com/media/B4lKrh4CYAAgyxu.jpg
p2272
sVsource_user_id_str
p2273
V149760844
p2274
sVsource_status_id
p2275
I543047344963346432
sVid_str
p2276
V543047341763092480
p2277
sVsizes
p2278
(dp2279
Vsmall
p2280
(dp2281
Vh
p2282
I270
sVresize
p2283
Vfit
p2284
sVw
p2285
I340
ssVlarge
p2286
(dp2287
Vh
p2288
I815
sVresize
p2289
Vfit
p2290
sVw
p2291
I1024
ssVmedium
p2292
(dp2293
Vh
p2294
I477
sVresize
p2295
Vfit
p2296
sVw
p2297
I600
ssVthumb
p2298
(dp2299
Vh
p2300
I150
sVresize
p2301
Vcrop
p2302
sVw
p2303
I150
sssVindices
p2304
(lp2305
I53
aI75
asVtype
p2306
Vphoto
p2307
sVid
p2308
I543047341763092480
sVmedia_url
p2309
Vhttp://pbs.twimg.com/media/B4lKrh4CYAAgyxu.jpg
p2310
sasg67
Nsg68
Nsg69
Nsg70
VSun Dec 14 11:24:14 +0000 2014
p2311
sg72
Nsg73
I00
sg74
Nsg75
Nsg76
Nsg77
Nsg78
I00
sg79
Nsg80
(lp2312
g3
(g92
g5
Ntp2313
Rp2314
(dp2315
g10
Nsg97
Nsg99
Nsg101
Nsg103
Nsg104
Nsg70
Nsg106
Nsg107
Nsg109
Nsg111
Nsg112
Nsg113
Nsg114
Nsg115
Nsg116
Nsg118
Nsg119
Nsg120
Nsg122
Nsg123
Nsg124
Nsg126
VThislsAmazing
p2316
sg128
Nsg129
VLost In History
p2317
sg131
Nsg133
Nsg134
I149760844
sg135
Nsbasg82
Nsg83
V544090484893700097
p2318
sg85
Nsg86
VRT @ThislsAmazing: Indian snake charmers circa 1880. http://t.co/dpVxJHf2Q2
p2319
sg88
I00
sg89
Ven
p2320
sg91
g3
(g92
g5
Ntp2321
Rp2322
(dp2323
g10
g96
sg97
V333333
p2324
sg99
Ven
p2325
sg101
Nsg103
I185
sg104
I1168
sg70
VSun Sep 21 03:33:45 +0000 2014
p2326
sg106
I00
sg107
g96
sg109
Vhttps://abs.twimg.com/sticky/default_profile_images/default_profile_5_normal.png
p2327
sg111
I1163
sg112
I2473
sg113
Nsg114
Nsg115
I00
sg116
Nsg118
I00
sg119
I00
sg120
V0084B4
p2328
sg122
I00
sg123
I00
sg124
Vhttp://abs.twimg.com/images/themes/theme1/bg.png
p2329
sg126
VDolickVilla
p2330
sg128
I1
sg129
VDolick Villa
p2331
sg131
VDDEEF6
p2332
sg133
Nsg134
I2823346195
sg135
VC0DEED
p2333
sbsg137
I269
sg138
V<a href="http://twitter.com/download/iphone" rel="nofollow">Twitter for iPhone</a>
p2334
sg140
(lp2335
sg134
I544090484893700097
sbag3
(g4
g5
Ntp2336
Rp2337
(dp2338
g9
I0
sg10
Nsg11
Nsg12
(lp2339
sg14
I00
sg15
g3
(g4
g5
Ntp2340
Rp2341
(dp2342
g9
I1082
sg10
Nsg11
Nsg12
(lp2343
sg14
I00
sg15
Nsg20
Nsg21
(lp2344
(dp2345
Vexpanded_url
p2346
Vhttp://twitter.com/ThislsAmazing/status/543248982600728576/photo/1
p2347
sVdisplay_url
p2348
Vpic.twitter.com/ZwWEjfP0q4
p2349
sVurl
p2350
Vhttp://t.co/ZwWEjfP0q4
p2351
sVmedia_url_https
p2352
Vhttps://pbs.twimg.com/media/B4oCEa4CYAIehjx.jpg
p2353
sVid_str
p2354
V543248980008656898
p2355
sVsizes
p2356
(dp2357
Vlarge
p2358
(dp2359
Vh
p2360
I817
sVresize
p2361
Vfit
p2362
sVw
p2363
I640
ssVsmall
p2364
(dp2365
Vh
p2366
I434
sVresize
p2367
Vfit
p2368
sVw
p2369
I340
ssVmedium
p2370
(dp2371
Vh
p2372
I765
sVresize
p2373
Vfit
p2374
sVw
p2375
I600
ssVthumb
p2376
(dp2377
Vh
p2378
I150
sVresize
p2379
Vcrop
p2380
sVw
p2381
I150
sssVindices
p2382
(lp2383
I110
aI132
asVtype
p2384
Vphoto
p2385
sVid
p2386
I543248980008656898
sVmedia_url
p2387
Vhttp://pbs.twimg.com/media/B4oCEa4CYAIehjx.jpg
p2388
sasg67
Nsg68
Nsg69
Nsg70
VFri Dec 12 03:40:25 +0000 2014
p2389
sg72
Nsg73
I01
sg74
Nsg75
Nsg76
Nsg77
Nsg78
I00
sg79
Nsg80
(lp2390
sg82
Nsg83
V543248982600728576
p2391
sg85
Nsg86
VKennedy selfie -- John F. Kennedy, his wife Jackie with the camera and his sister in-law Ethel Kennedy, 1954. http://t.co/ZwWEjfP0q4
p2392
sg88
I00
sg89
Ven
p2393
sg91
g3
(g92
g5
Ntp2394
Rp2395
(dp2396
g10
g96
sg97
V666666
p2397
sg99
Ven
p2398
sg101
VPacific Time (US & Canada)
p2399
sg103
I3303475
sg104
I58223
sg70
VSun May 30 04:33:13 +0000 2010
p2400
sg106
I00
sg107
VHistory is fun. Learn today. Be learnt tomorrow.  Contact: livingthehistorylife@gmail.com
p2401
sg109
Vhttps://pbs.twimg.com/profile_images/542596647134318592/a3O3n8nw_normal.jpeg
p2402
sg111
I13353
sg112
I443
sg113
I-28800
sg114
Nsg115
I00
sg116
Vhttps://pbs.twimg.com/profile_banners/149760844/1417429169
p2403
sg118
I00
sg119
I00
sg120
VFFCC4D
p2404
sg122
I01
sg123
I00
sg124
Vhttp://pbs.twimg.com/profile_background_images/472703723232182273/0X5Itz8E.jpeg
p2405
sg126
VThislsAmazing
p2406
sg128
I5109
sg129
VLost In History
p2407
sg131
V252429
p2408
sg133
Nsg134
I149760844
sg135
VDBE9ED
p2409
sbsg137
I561
sg138
V<a href="http://twitter.com" rel="nofollow">Twitter Web Client</a>
p2410
sg140
(lp2411
sg134
I543248982600728576
sbsg20
Nsg21
(lp2412
(dp2413
Vsource_user_id
p2414
I149760844
sVsource_status_id_str
p2415
V543248982600728576
p2416
sVexpanded_url
p2417
Vhttp://twitter.com/ThislsAmazing/status/543248982600728576/photo/1
p2418
sVdisplay_url
p2419
Vpic.twitter.com/ZwWEjfP0q4
p2420
sVurl
p2421
Vhttp://t.co/ZwWEjfP0q4
p2422
sVmedia_url_https
p2423
Vhttps://pbs.twimg.com/media/B4oCEa4CYAIehjx.jpg
p2424
sVsource_user_id_str
p2425
V149760844
p2426
sVsource_status_id
p2427
I543248982600728576
sVid_str
p2428
V543248980008656898
p2429
sVsizes
p2430
(dp2431
Vlarge
p2432
(dp2433
Vh
p2434
I817
sVresize
p2435
Vfit
p2436
sVw
p2437
I640
ssVsmall
p2438
(dp2439
Vh
p2440
I434
sVresize
p2441
Vfit
p2442
sVw
p2443
I340
ssVmedium
p2444
(dp2445
Vh
p2446
I765
sVresize
p2447
Vfit
p2448
sVw
p2449
I600
ssVthumb
p2450
(dp2451
Vh
p2452
I150
sVresize
p2453
Vcrop
p2454
sVw
p2455
I150
sssVindices
p2456
(lp2457
I139
aI140
asVtype
p2458
Vphoto
p2459
sVid
p2460
I543248980008656898
sVmedia_url
p2461
Vhttp://pbs.twimg.com/media/B4oCEa4CYAIehjx.jpg
p2462
sasg67
Nsg68
Nsg69
Nsg70
VSun Dec 14 11:23:24 +0000 2014
p2463
sg72
Nsg73
I00
sg74
Nsg75
Nsg76
Nsg77
Nsg78
I00
sg79
Nsg80
(lp2464
g3
(g92
g5
Ntp2465
Rp2466
(dp2467
g10
Nsg97
Nsg99
Nsg101
Nsg103
Nsg104
Nsg70
Nsg106
Nsg107
Nsg109
Nsg111
Nsg112
Nsg113
Nsg114
Nsg115
Nsg116
Nsg118
Nsg119
Nsg120
Nsg122
Nsg123
Nsg124
Nsg126
VThislsAmazing
p2468
sg128
Nsg129
VLost In History
p2469
sg131
Nsg133
Nsg134
I149760844
sg135
Nsbasg82
Nsg83
V544090272825475072
p2470
sg85
Nsg86
VRT @ThislsAmazing: Kennedy selfie -- John F. Kennedy, his wife Jackie with the camera and his sister in-law Ethel Kennedy, 1954. http://t.c\u2026
p2471
sg88
I00
sg89
Ven
p2472
sg91
g3
(g92
g5
Ntp2473
Rp2474
(dp2475
g10
g96
sg97
V333333
p2476
sg99
Ven
p2477
sg101
Nsg103
I185
sg104
I1168
sg70
VSun Sep 21 03:33:45 +0000 2014
p2478
sg106
I00
sg107
g96
sg109
Vhttps://abs.twimg.com/sticky/default_profile_images/default_profile_5_normal.png
p2479
sg111
I1163
sg112
I2473
sg113
Nsg114
Nsg115
I00
sg116
Nsg118
I00
sg119
I00
sg120
V0084B4
p2480
sg122
I00
sg123
I00
sg124
Vhttp://abs.twimg.com/images/themes/theme1/bg.png
p2481
sg126
VDolickVilla
p2482
sg128
I1
sg129
VDolick Villa
p2483
sg131
VDDEEF6
p2484
sg133
Nsg134
I2823346195
sg135
VC0DEED
p2485
sbsg137
I561
sg138
V<a href="http://twitter.com/download/iphone" rel="nofollow">Twitter for iPhone</a>
p2486
sg140
(lp2487
sg134
I544090272825475072
sbag3
(g4
g5
Ntp2488
Rp2489
(dp2490
g9
I0
sg10
Nsg11
Nsg12
(lp2491
sg14
I00
sg15
g3
(g4
g5
Ntp2492
Rp2493
(dp2494
g9
I1665
sg10
Nsg11
Nsg12
(lp2495
sg14
I00
sg15
Nsg20
Nsg21
(lp2496
(dp2497
Vexpanded_url
p2498
Vhttp://twitter.com/ThislsAmazing/status/543274023887851521/photo/1
p2499
sVdisplay_url
p2500
Vpic.twitter.com/JJwgrC2UOi
p2501
sVurl
p2502
Vhttp://t.co/JJwgrC2UOi
p2503
sVmedia_url_https
p2504
Vhttps://pbs.twimg.com/media/B4oY2KPIgAAe-XI.jpg
p2505
sVid_str
p2506
V543274023791394816
p2507
sVsizes
p2508
(dp2509
Vlarge
p2510
(dp2511
Vh
p2512
I763
sVresize
p2513
Vfit
p2514
sVw
p2515
I600
ssVsmall
p2516
(dp2517
Vh
p2518
I432
sVresize
p2519
Vfit
p2520
sVw
p2521
I340
ssVmedium
p2522
(dp2523
Vh
p2524
I763
sVresize
p2525
Vfit
p2526
sVw
p2527
I600
ssVthumb
p2528
(dp2529
Vh
p2530
I150
sVresize
p2531
Vcrop
p2532
sVw
p2533
I150
sssVindices
p2534
(lp2535
I21
aI43
asVtype
p2536
Vphoto
p2537
sVid
p2538
I543274023791394816
sVmedia_url
p2539
Vhttp://pbs.twimg.com/media/B4oY2KPIgAAe-XI.jpg
p2540
sasg67
Nsg68
Nsg69
Nsg70
VFri Dec 12 05:19:55 +0000 2014
p2541
sg72
Nsg73
I01
sg74
Nsg75
Nsg76
Nsg77
Nsg78
I00
sg79
Nsg80
(lp2542
sg82
Nsg83
V543274023887851521
p2543
sg85
Nsg86
VSnow in Paris, 1948. http://t.co/JJwgrC2UOi
p2544
sg88
I00
sg89
Ven
p2545
sg91
g3
(g92
g5
Ntp2546
Rp2547
(dp2548
g10
g96
sg97
V666666
p2549
sg99
Ven
p2550
sg101
VPacific Time (US & Canada)
p2551
sg103
I3303475
sg104
I58223
sg70
VSun May 30 04:33:13 +0000 2010
p2552
sg106
I00
sg107
VHistory is fun. Learn today. Be learnt tomorrow.  Contact: livingthehistorylife@gmail.com
p2553
sg109
Vhttps://pbs.twimg.com/profile_images/542596647134318592/a3O3n8nw_normal.jpeg
p2554
sg111
I13353
sg112
I443
sg113
I-28800
sg114
Nsg115
I00
sg116
Vhttps://pbs.twimg.com/profile_banners/149760844/1417429169
p2555
sg118
I00
sg119
I00
sg120
VFFCC4D
p2556
sg122
I01
sg123
I00
sg124
Vhttp://pbs.twimg.com/profile_background_images/472703723232182273/0X5Itz8E.jpeg
p2557
sg126
VThislsAmazing
p2558
sg128
I5109
sg129
VLost In History
p2559
sg131
V252429
p2560
sg133
Nsg134
I149760844
sg135
VDBE9ED
p2561
sbsg137
I860
sg138
V<a href="http://tapbots.com/tweetbot" rel="nofollow">Tweetbot for i\u039fS</a>
p2562
sg140
(lp2563
sg134
I543274023887851521
sbsg20
Nsg21
(lp2564
(dp2565
Vsource_user_id
p2566
I149760844
sVsource_status_id_str
p2567
V543274023887851521
p2568
sVexpanded_url
p2569
Vhttp://twitter.com/ThislsAmazing/status/543274023887851521/photo/1
p2570
sVdisplay_url
p2571
Vpic.twitter.com/JJwgrC2UOi
p2572
sVurl
p2573
Vhttp://t.co/JJwgrC2UOi
p2574
sVmedia_url_https
p2575
Vhttps://pbs.twimg.com/media/B4oY2KPIgAAe-XI.jpg
p2576
sVsource_user_id_str
p2577
V149760844
p2578
sVsource_status_id
p2579
I543274023887851521
sVid_str
p2580
V543274023791394816
p2581
sVsizes
p2582
(dp2583
Vlarge
p2584
(dp2585
Vh
p2586
I763
sVresize
p2587
Vfit
p2588
sVw
p2589
I600
ssVsmall
p2590
(dp2591
Vh
p2592
I432
sVresize
p2593
Vfit
p2594
sVw
p2595
I340
ssVmedium
p2596
(dp2597
Vh
p2598
I763
sVresize
p2599
Vfit
p2600
sVw
p2601
I600
ssVthumb
p2602
(dp2603
Vh
p2604
I150
sVresize
p2605
Vcrop
p2606
sVw
p2607
I150
sssVindices
p2608
(lp2609
I40
aI62
asVtype
p2610
Vphoto
p2611
sVid
p2612
I543274023791394816
sVmedia_url
p2613
Vhttp://pbs.twimg.com/media/B4oY2KPIgAAe-XI.jpg
p2614
sasg67
Nsg68
Nsg69
Nsg70
VSun Dec 14 11:22:56 +0000 2014
p2615
sg72
Nsg73
I00
sg74
Nsg75
Nsg76
Nsg77
Nsg78
I00
sg79
Nsg80
(lp2616
g3
(g92
g5
Ntp2617
Rp2618
(dp2619
g10
Nsg97
Nsg99
Nsg101
Nsg103
Nsg104
Nsg70
Nsg106
Nsg107
Nsg109
Nsg111
Nsg112
Nsg113
Nsg114
Nsg115
Nsg116
Nsg118
Nsg119
Nsg120
Nsg122
Nsg123
Nsg124
Nsg126
VThislsAmazing
p2620
sg128
Nsg129
VLost In History
p2621
sg131
Nsg133
Nsg134
I149760844
sg135
Nsbasg82
Nsg83
V544090155561144322
p2622
sg85
Nsg86
VRT @ThislsAmazing: Snow in Paris, 1948. http://t.co/JJwgrC2UOi
p2623
sg88
I00
sg89
Ven
p2624
sg91
g3
(g92
g5
Ntp2625
Rp2626
(dp2627
g10
g96
sg97
V333333
p2628
sg99
Ven
p2629
sg101
Nsg103
I185
sg104
I1168
sg70
VSun Sep 21 03:33:45 +0000 2014
p2630
sg106
I00
sg107
g96
sg109
Vhttps://abs.twimg.com/sticky/default_profile_images/default_profile_5_normal.png
p2631
sg111
I1163
sg112
I2473
sg113
Nsg114
Nsg115
I00
sg116
Nsg118
I00
sg119
I00
sg120
V0084B4
p2632
sg122
I00
sg123
I00
sg124
Vhttp://abs.twimg.com/images/themes/theme1/bg.png
p2633
sg126
VDolickVilla
p2634
sg128
I1
sg129
VDolick Villa
p2635
sg131
VDDEEF6
p2636
sg133
Nsg134
I2823346195
sg135
VC0DEED
p2637
sbsg137
I860
sg138
V<a href="http://twitter.com/download/iphone" rel="nofollow">Twitter for iPhone</a>
p2638
sg140
(lp2639
sg134
I544090155561144322
sbaa.