(lp0
S'sakadezicel'
p1
a(lp2
ccopy_reg
_reconstructor
p3
(ctwitter.status
Status
p4
c__builtin__
object
p5
Ntp6
Rp7
(dp8
S'_favorite_count'
p9
I0
sS'_location'
p10
NsS'_withheld_scope'
p11
NsS'hashtags'
p12
(lp13
sS'_truncated'
p14
I00
sS'_retweeted_status'
p15
NsS'_withheld_copyright'
p16
NsS'media'
p17
(lp18
(dp19
Vexpanded_url
p20
Vhttp://twitter.com/sakadezicel/status/543344211505209345/photo/1
p21
sVdisplay_url
p22
Vpic.twitter.com/KplZeCVfvf
p23
sVurl
p24
Vhttp://t.co/KplZeCVfvf
p25
sVmedia_url_https
p26
Vhttps://pbs.twimg.com/media/B4pYrnqIQAAuhTr.jpg
p27
sVid_str
p28
V543344211454869504
p29
sVsizes
p30
(dp31
Vsmall
p32
(dp33
Vh
p34
I370
sVresize
p35
Vfit
p36
sVw
p37
I340
ssVlarge
p38
(dp39
Vh
p40
I560
sVresize
p41
Vfit
p42
sVw
p43
I514
ssVmedium
p44
(dp45
Vh
p46
I560
sVresize
p47
Vfit
p48
sVw
p49
I514
ssVthumb
p50
(dp51
Vh
p52
I150
sVresize
p53
Vcrop
p54
sVw
p55
I150
sssVindices
p56
(lp57
I94
aI116
asVtype
p58
Vphoto
p59
sVid
p60
I543344211454869504
sVmedia_url
p61
Vhttp://pbs.twimg.com/media/B4pYrnqIQAAuhTr.jpg
p62
sasS'_place'
p63
NsS'_contributors'
p64
NsS'_current_user_retweet'
p65
NsS'_created_at'
p66
VFri Dec 12 09:58:49 +0000 2014
p67
sS'_scopes'
p68
NsS'_possibly_sensitive'
p69
I00
sS'_in_reply_to_screen_name'
p70
NsS'_coordinates'
p71
NsS'_in_reply_to_user_id'
p72
NsS'_geo'
p73
NsS'_favorited'
p74
I00
sS'_withheld_in_countries'
p75
NsS'user_mentions'
p76
(lp77
g3
(ctwitter.user
User
p78
g5
Ntp79
Rp80
(dp81
g10
NsS'_profile_text_color'
p82
NsS'_lang'
p83
NsS'_time_zone'
p84
NsS'_followers_count'
p85
NsS'_statuses_count'
p86
Nsg66
NsS'_verified'
p87
NsS'_description'
p88
NsS'_profile_image_url'
p89
NsS'_friends_count'
p90
NsS'_favourites_count'
p91
NsS'_utc_offset'
p92
NsS'_status'
p93
NsS'_protected'
p94
NsS'_profile_banner_url'
p95
NsS'_notifications'
p96
NsS'_profile_background_tile'
p97
NsS'_profile_link_color'
p98
NsS'_geo_enabled'
p99
NsS'_contributors_enabled'
p100
NsS'_profile_background_image_url'
p101
NsS'_screen_name'
p102
Vjohnsuis
p103
sS'_listed_count'
p104
NsS'_name'
p105
VJohn Stephenson
p106
sS'_profile_sidebar_fill_color'
p107
NsS'_url'
p108
NsS'_id'
p109
I20512108
sS'_profile_background_color'
p110
NsbasS'_now'
p111
NsS'_id_str'
p112
NsS'_in_reply_to_status_id'
p113
NsS'_text'
p114
VAre you a JOHN? This Hoodies was designed for U! Click here: http://t.co/sHB3rToJm9 @johnsuis http://t.co/KplZeCVfvf
p115
sS'_retweeted'
p116
I00
sS'lang'
p117
Ven
p118
sS'_user'
p119
g3
(g78
g5
Ntp120
Rp121
(dp122
g10
V
p123
sg82
V333333
p124
sg83
Ven
p125
sg84
Nsg85
I4
sg86
I2957
sg66
VThu Oct 24 09:50:42 +0000 2013
p126
sg87
I00
sg88
g123
sg89
Vhttps://pbs.twimg.com/profile_images/531004179456593920/KNdfW5pl_normal.png
p127
sg90
I0
sg91
I0
sg92
Nsg93
Nsg94
I00
sg95
Nsg96
I00
sg97
I00
sg98
V0084B4
p128
sg99
I00
sg100
I00
sg101
Vhttp://abs.twimg.com/images/themes/theme1/bg.png
p129
sg102
Vsakadezicel
p130
sg104
I0
sg105
VAdalmund Potts
p131
sg107
VDDEEF6
p132
sg108
Nsg109
I2152642147
sg110
VC0DEED
p133
sbsS'_retweet_count'
p134
I0
sS'_source'
p135
V<a href="https://mobile.twitter.com" rel="nofollow">Mobile Web (M5)</a>
p136
sS'urls'
p137
(lp138
g3
(ctwitter.url
Url
p139
g5
Ntp140
Rp141
(dp142
S'url'
p143
Vhttp://t.co/sHB3rToJm9
p144
sS'expanded_url'
p145
Vhttp://teespring.com/JohnThingz
p146
sbasg109
I543344211505209345
sbag3
(g4
g5
Ntp147
Rp148
(dp149
g9
I0
sg10
Nsg11
Nsg12
(lp150
sg14
I00
sg15
Nsg16
Nsg17
(lp151
(dp152
Vexpanded_url
p153
Vhttp://twitter.com/sakadezicel/status/543330642671706112/photo/1
p154
sVdisplay_url
p155
Vpic.twitter.com/ylJjTE4QT0
p156
sVurl
p157
Vhttp://t.co/ylJjTE4QT0
p158
sVmedia_url_https
p159
Vhttps://pbs.twimg.com/media/B4pMVzSIMAAkjHW.jpg
p160
sVid_str
p161
V543330642478772224
p162
sVsizes
p163
(dp164
Vsmall
p165
(dp166
Vh
p167
I370
sVresize
p168
Vfit
p169
sVw
p170
I340
ssVlarge
p171
(dp172
Vh
p173
I560
sVresize
p174
Vfit
p175
sVw
p176
I514
ssVmedium
p177
(dp178
Vh
p179
I560
sVresize
p180
Vfit
p181
sVw
p182
I514
ssVthumb
p183
(dp184
Vh
p185
I150
sVresize
p186
Vcrop
p187
sVw
p188
I150
sssVindices
p189
(lp190
I95
aI117
asVtype
p191
Vphoto
p192
sVid
p193
I543330642478772224
sVmedia_url
p194
Vhttp://pbs.twimg.com/media/B4pMVzSIMAAkjHW.jpg
p195
sasg63
Nsg64
Nsg65
Nsg66
VFri Dec 12 09:04:54 +0000 2014
p196
sg68
Nsg69
I00
sg70
Nsg71
Nsg72
Nsg73
Nsg74
I00
sg75
Nsg76
(lp197
g3
(g78
g5
Ntp198
Rp199
(dp200
g10
Nsg82
Nsg83
Nsg84
Nsg85
Nsg86
Nsg66
Nsg87
Nsg88
Nsg89
Nsg90
Nsg91
Nsg92
Nsg93
Nsg94
Nsg95
Nsg96
Nsg97
Nsg98
Nsg99
Nsg100
Nsg101
Nsg102
Vjmyers101
p201
sg104
Nsg105
VJohn Myers
p202
sg107
Nsg108
Nsg109
I27304443
sg110
Nsbasg111
Nsg112
Nsg113
Nsg114
VAre you a JOHN? This Hoodies was designed for U! Click here: http://t.co/sHB3rToJm9 @jmyers101 http://t.co/ylJjTE4QT0
p203
sg116
I00
sg117
Ven
p204
sg119
g3
(g78
g5
Ntp205
Rp206
(dp207
g10
g123
sg82
V333333
p208
sg83
Ven
p209
sg84
Nsg85
I4
sg86
I2957
sg66
VThu Oct 24 09:50:42 +0000 2013
p210
sg87
I00
sg88
g123
sg89
Vhttps://pbs.twimg.com/profile_images/531004179456593920/KNdfW5pl_normal.png
p211
sg90
I0
sg91
I0
sg92
Nsg93
Nsg94
I00
sg95
Nsg96
I00
sg97
I00
sg98
V0084B4
p212
sg99
I00
sg100
I00
sg101
Vhttp://abs.twimg.com/images/themes/theme1/bg.png
p213
sg102
Vsakadezicel
p214
sg104
I0
sg105
VAdalmund Potts
p215
sg107
VDDEEF6
p216
sg108
Nsg109
I2152642147
sg110
VC0DEED
p217
sbsg134
I0
sg135
V<a href="https://mobile.twitter.com" rel="nofollow">Mobile Web (M5)</a>
p218
sg137
(lp219
g3
(g139
g5
Ntp220
Rp221
(dp222
g143
Vhttp://t.co/sHB3rToJm9
p223
sg145
Vhttp://teespring.com/JohnThingz
p224
sbasg109
I543330642671706112
sbag3
(g4
g5
Ntp225
Rp226
(dp227
g9
I0
sg10
Nsg11
Nsg12
(lp228
sg14
I00
sg15
Nsg16
Nsg17
(lp229
(dp230
Vexpanded_url
p231
Vhttp://twitter.com/sakadezicel/status/543330342795755520/photo/1
p232
sVdisplay_url
p233
Vpic.twitter.com/sclC3f7Her
p234
sVurl
p235
Vhttp://t.co/sclC3f7Her
p236
sVmedia_url_https
p237
Vhttps://pbs.twimg.com/media/B4pMEWsIMAAIUBp.jpg
p238
sVid_str
p239
V543330342745419776
p240
sVsizes
p241
(dp242
Vsmall
p243
(dp244
Vh
p245
I370
sVresize
p246
Vfit
p247
sVw
p248
I340
ssVlarge
p249
(dp250
Vh
p251
I560
sVresize
p252
Vfit
p253
sVw
p254
I514
ssVmedium
p255
(dp256
Vh
p257
I560
sVresize
p258
Vfit
p259
sVw
p260
I514
ssVthumb
p261
(dp262
Vh
p263
I150
sVresize
p264
Vcrop
p265
sVw
p266
I150
sssVindices
p267
(lp268
I94
aI116
asVtype
p269
Vphoto
p270
sVid
p271
I543330342745419776
sVmedia_url
p272
Vhttp://pbs.twimg.com/media/B4pMEWsIMAAIUBp.jpg
p273
sasg63
Nsg64
Nsg65
Nsg66
VFri Dec 12 09:03:42 +0000 2014
p274
sg68
Nsg69
I00
sg70
Nsg71
Nsg72
Nsg73
Nsg74
I00
sg75
Nsg76
(lp275
g3
(g78
g5
Ntp276
Rp277
(dp278
g10
Nsg82
Nsg83
Nsg84
Nsg85
Nsg86
Nsg66
Nsg87
Nsg88
Nsg89
Nsg90
Nsg91
Nsg92
Nsg93
Nsg94
Nsg95
Nsg96
Nsg97
Nsg98
Nsg99
Nsg100
Nsg101
Nsg102
VCoachK08
p279
sg104
Nsg105
VJohn Kelder
p280
sg107
Nsg108
Nsg109
I35860489
sg110
Nsbasg111
Nsg112
Nsg113
Nsg114
VAre you a JOHN? This Hoodies was designed for U! Click here: http://t.co/sHB3rToJm9 @CoachK08 http://t.co/sclC3f7Her
p281
sg116
I00
sg117
Ven
p282
sg119
g3
(g78
g5
Ntp283
Rp284
(dp285
g10
g123
sg82
V333333
p286
sg83
Ven
p287
sg84
Nsg85
I4
sg86
I2957
sg66
VThu Oct 24 09:50:42 +0000 2013
p288
sg87
I00
sg88
g123
sg89
Vhttps://pbs.twimg.com/profile_images/531004179456593920/KNdfW5pl_normal.png
p289
sg90
I0
sg91
I0
sg92
Nsg93
Nsg94
I00
sg95
Nsg96
I00
sg97
I00
sg98
V0084B4
p290
sg99
I00
sg100
I00
sg101
Vhttp://abs.twimg.com/images/themes/theme1/bg.png
p291
sg102
Vsakadezicel
p292
sg104
I0
sg105
VAdalmund Potts
p293
sg107
VDDEEF6
p294
sg108
Nsg109
I2152642147
sg110
VC0DEED
p295
sbsg134
I0
sg135
V<a href="https://mobile.twitter.com" rel="nofollow">Mobile Web (M5)</a>
p296
sg137
(lp297
g3
(g139
g5
Ntp298
Rp299
(dp300
g143
Vhttp://t.co/sHB3rToJm9
p301
sg145
Vhttp://teespring.com/JohnThingz
p302
sbasg109
I543330342795755520
sbag3
(g4
g5
Ntp303
Rp304
(dp305
g9
I0
sg10
Nsg11
Nsg12
(lp306
sg14
I00
sg15
Nsg16
Nsg17
(lp307
(dp308
Vexpanded_url
p309
Vhttp://twitter.com/sakadezicel/status/543330043209195520/photo/1
p310
sVdisplay_url
p311
Vpic.twitter.com/LfPJYmZ8Kt
p312
sVurl
p313
Vhttp://t.co/LfPJYmZ8Kt
p314
sVmedia_url_https
p315
Vhttps://pbs.twimg.com/media/B4pLy6ZIAAA00nX.jpg
p316
sVid_str
p317
V543330043091746816
p318
sVsizes
p319
(dp320
Vsmall
p321
(dp322
Vh
p323
I370
sVresize
p324
Vfit
p325
sVw
p326
I340
ssVlarge
p327
(dp328
Vh
p329
I560
sVresize
p330
Vfit
p331
sVw
p332
I514
ssVmedium
p333
(dp334
Vh
p335
I560
sVresize
p336
Vfit
p337
sVw
p338
I514
ssVthumb
p339
(dp340
Vh
p341
I150
sVresize
p342
Vcrop
p343
sVw
p344
I150
sssVindices
p345
(lp346
I95
aI117
asVtype
p347
Vphoto
p348
sVid
p349
I543330043091746816
sVmedia_url
p350
Vhttp://pbs.twimg.com/media/B4pLy6ZIAAA00nX.jpg
p351
sasg63
Nsg64
Nsg65
Nsg66
VFri Dec 12 09:02:31 +0000 2014
p352
sg68
Nsg69
I00
sg70
Nsg71
Nsg72
Nsg73
Nsg74
I00
sg75
Nsg76
(lp353
g3
(g78
g5
Ntp354
Rp355
(dp356
g10
Nsg82
Nsg83
Nsg84
Nsg85
Nsg86
Nsg66
Nsg87
Nsg88
Nsg89
Nsg90
Nsg91
Nsg92
Nsg93
Nsg94
Nsg95
Nsg96
Nsg97
Nsg98
Nsg99
Nsg100
Nsg101
Nsg102
VGill_John
p357
sg104
Nsg105
VJohn Demer 
p358
sg107
Nsg108
Nsg109
I229681151
sg110
Nsbasg111
Nsg112
Nsg113
Nsg114
VAre you a JOHN? This Hoodies was designed for U! Click here: http://t.co/sHB3rToJm9 @Gill_John http://t.co/LfPJYmZ8Kt
p359
sg116
I00
sg117
Ven
p360
sg119
g3
(g78
g5
Ntp361
Rp362
(dp363
g10
g123
sg82
V333333
p364
sg83
Ven
p365
sg84
Nsg85
I4
sg86
I2957
sg66
VThu Oct 24 09:50:42 +0000 2013
p366
sg87
I00
sg88
g123
sg89
Vhttps://pbs.twimg.com/profile_images/531004179456593920/KNdfW5pl_normal.png
p367
sg90
I0
sg91
I0
sg92
Nsg93
Nsg94
I00
sg95
Nsg96
I00
sg97
I00
sg98
V0084B4
p368
sg99
I00
sg100
I00
sg101
Vhttp://abs.twimg.com/images/themes/theme1/bg.png
p369
sg102
Vsakadezicel
p370
sg104
I0
sg105
VAdalmund Potts
p371
sg107
VDDEEF6
p372
sg108
Nsg109
I2152642147
sg110
VC0DEED
p373
sbsg134
I0
sg135
V<a href="https://mobile.twitter.com" rel="nofollow">Mobile Web (M5)</a>
p374
sg137
(lp375
g3
(g139
g5
Ntp376
Rp377
(dp378
g143
Vhttp://t.co/sHB3rToJm9
p379
sg145
Vhttp://teespring.com/JohnThingz
p380
sbasg109
I543330043209195520
sbag3
(g4
g5
Ntp381
Rp382
(dp383
g9
I0
sg10
Nsg11
Nsg12
(lp384
sg14
I00
sg15
Nsg16
Nsg17
(lp385
(dp386
Vexpanded_url
p387
Vhttp://twitter.com/sakadezicel/status/543329743152881664/photo/1
p388
sVdisplay_url
p389
Vpic.twitter.com/7FKurrNc3u
p390
sVurl
p391
Vhttp://t.co/7FKurrNc3u
p392
sVmedia_url_https
p393
Vhttps://pbs.twimg.com/media/B4pLhcxIMAAUCoQ.jpg
p394
sVid_str
p395
V543329743081582592
p396
sVsizes
p397
(dp398
Vsmall
p399
(dp400
Vh
p401
I370
sVresize
p402
Vfit
p403
sVw
p404
I340
ssVlarge
p405
(dp406
Vh
p407
I560
sVresize
p408
Vfit
p409
sVw
p410
I514
ssVmedium
p411
(dp412
Vh
p413
I560
sVresize
p414
Vfit
p415
sVw
p416
I514
ssVthumb
p417
(dp418
Vh
p419
I150
sVresize
p420
Vcrop
p421
sVw
p422
I150
sssVindices
p423
(lp424
I97
aI119
asVtype
p425
Vphoto
p426
sVid
p427
I543329743081582592
sVmedia_url
p428
Vhttp://pbs.twimg.com/media/B4pLhcxIMAAUCoQ.jpg
p429
sasg63
Nsg64
Nsg65
Nsg66
VFri Dec 12 09:01:20 +0000 2014
p430
sg68
Nsg69
I00
sg70
Nsg71
Nsg72
Nsg73
Nsg74
I00
sg75
Nsg76
(lp431
g3
(g78
g5
Ntp432
Rp433
(dp434
g10
Nsg82
Nsg83
Nsg84
Nsg85
Nsg86
Nsg66
Nsg87
Nsg88
Nsg89
Nsg90
Nsg91
Nsg92
Nsg93
Nsg94
Nsg95
Nsg96
Nsg97
Nsg98
Nsg99
Nsg100
Nsg101
Nsg102
VArtrightnow
p435
sg104
Nsg105
VJohn Borys
p436
sg107
Nsg108
Nsg109
I59069505
sg110
Nsbasg111
Nsg112
Nsg113
Nsg114
VAre you a JOHN? This Hoodies was designed for U! Click here: http://t.co/sHB3rToJm9 @Artrightnow http://t.co/7FKurrNc3u
p437
sg116
I00
sg117
Ven
p438
sg119
g3
(g78
g5
Ntp439
Rp440
(dp441
g10
g123
sg82
V333333
p442
sg83
Ven
p443
sg84
Nsg85
I4
sg86
I2957
sg66
VThu Oct 24 09:50:42 +0000 2013
p444
sg87
I00
sg88
g123
sg89
Vhttps://pbs.twimg.com/profile_images/531004179456593920/KNdfW5pl_normal.png
p445
sg90
I0
sg91
I0
sg92
Nsg93
Nsg94
I00
sg95
Nsg96
I00
sg97
I00
sg98
V0084B4
p446
sg99
I00
sg100
I00
sg101
Vhttp://abs.twimg.com/images/themes/theme1/bg.png
p447
sg102
Vsakadezicel
p448
sg104
I0
sg105
VAdalmund Potts
p449
sg107
VDDEEF6
p450
sg108
Nsg109
I2152642147
sg110
VC0DEED
p451
sbsg134
I0
sg135
V<a href="https://mobile.twitter.com" rel="nofollow">Mobile Web (M5)</a>
p452
sg137
(lp453
g3
(g139
g5
Ntp454
Rp455
(dp456
g143
Vhttp://t.co/sHB3rToJm9
p457
sg145
Vhttp://teespring.com/JohnThingz
p458
sbasg109
I543329743152881664
sbag3
(g4
g5
Ntp459
Rp460
(dp461
g9
I0
sg10
Nsg11
Nsg12
(lp462
sg14
I00
sg15
Nsg16
Nsg17
(lp463
(dp464
Vexpanded_url
p465
Vhttp://twitter.com/sakadezicel/status/543329442781999104/photo/1
p466
sVdisplay_url
p467
Vpic.twitter.com/YXEcanVBpK
p468
sVurl
p469
Vhttp://t.co/YXEcanVBpK
p470
sVmedia_url_https
p471
Vhttps://pbs.twimg.com/media/B4pLP9AIEAAJfEz.jpg
p472
sVid_str
p473
V543329442496778240
p474
sVsizes
p475
(dp476
Vsmall
p477
(dp478
Vh
p479
I370
sVresize
p480
Vfit
p481
sVw
p482
I340
ssVlarge
p483
(dp484
Vh
p485
I560
sVresize
p486
Vfit
p487
sVw
p488
I514
ssVmedium
p489
(dp490
Vh
p491
I560
sVresize
p492
Vfit
p493
sVw
p494
I514
ssVthumb
p495
(dp496
Vh
p497
I150
sVresize
p498
Vcrop
p499
sVw
p500
I150
sssVindices
p501
(lp502
I97
aI119
asVtype
p503
Vphoto
p504
sVid
p505
I543329442496778240
sVmedia_url
p506
Vhttp://pbs.twimg.com/media/B4pLP9AIEAAJfEz.jpg
p507
sasg63
Nsg64
Nsg65
Nsg66
VFri Dec 12 09:00:08 +0000 2014
p508
sg68
Nsg69
I00
sg70
Nsg71
Nsg72
Nsg73
Nsg74
I00
sg75
Nsg76
(lp509
g3
(g78
g5
Ntp510
Rp511
(dp512
g10
Nsg82
Nsg83
Nsg84
Nsg85
Nsg86
Nsg66
Nsg87
Nsg88
Nsg89
Nsg90
Nsg91
Nsg92
Nsg93
Nsg94
Nsg95
Nsg96
Nsg97
Nsg98
Nsg99
Nsg100
Nsg101
Nsg102
VWillloughby
p513
sg104
Nsg105
VJayW
p514
sg107
Nsg108
Nsg109
I510021071
sg110
Nsbasg111
Nsg112
Nsg113
Nsg114
VAre you a JOHN? This Hoodies was designed for U! Click here: http://t.co/sHB3rToJm9 @Willloughby http://t.co/YXEcanVBpK
p515
sg116
I00
sg117
Ven
p516
sg119
g3
(g78
g5
Ntp517
Rp518
(dp519
g10
g123
sg82
V333333
p520
sg83
Ven
p521
sg84
Nsg85
I4
sg86
I2957
sg66
VThu Oct 24 09:50:42 +0000 2013
p522
sg87
I00
sg88
g123
sg89
Vhttps://pbs.twimg.com/profile_images/531004179456593920/KNdfW5pl_normal.png
p523
sg90
I0
sg91
I0
sg92
Nsg93
Nsg94
I00
sg95
Nsg96
I00
sg97
I00
sg98
V0084B4
p524
sg99
I00
sg100
I00
sg101
Vhttp://abs.twimg.com/images/themes/theme1/bg.png
p525
sg102
Vsakadezicel
p526
sg104
I0
sg105
VAdalmund Potts
p527
sg107
VDDEEF6
p528
sg108
Nsg109
I2152642147
sg110
VC0DEED
p529
sbsg134
I0
sg135
V<a href="https://mobile.twitter.com" rel="nofollow">Mobile Web (M5)</a>
p530
sg137
(lp531
g3
(g139
g5
Ntp532
Rp533
(dp534
g143
Vhttp://t.co/sHB3rToJm9
p535
sg145
Vhttp://teespring.com/JohnThingz
p536
sbasg109
I543329442781999104
sbag3
(g4
g5
Ntp537
Rp538
(dp539
g9
I0
sg10
Nsg11
Nsg12
(lp540
sg14
I00
sg15
Nsg16
Nsg17
(lp541
(dp542
Vexpanded_url
p543
Vhttp://twitter.com/sakadezicel/status/543329142666952704/photo/1
p544
sVdisplay_url
p545
Vpic.twitter.com/gulqwpC5zJ
p546
sVurl
p547
Vhttp://t.co/gulqwpC5zJ
p548
sVmedia_url_https
p549
Vhttps://pbs.twimg.com/media/B4pK-f0IEAMTg9i.jpg
p550
sVid_str
p551
V543329142604042243
p552
sVsizes
p553
(dp554
Vsmall
p555
(dp556
Vh
p557
I370
sVresize
p558
Vfit
p559
sVw
p560
I340
ssVlarge
p561
(dp562
Vh
p563
I560
sVresize
p564
Vfit
p565
sVw
p566
I514
ssVmedium
p567
(dp568
Vh
p569
I560
sVresize
p570
Vfit
p571
sVw
p572
I514
ssVthumb
p573
(dp574
Vh
p575
I150
sVresize
p576
Vcrop
p577
sVw
p578
I150
sssVindices
p579
(lp580
I95
aI117
asVtype
p581
Vphoto
p582
sVid
p583
I543329142604042243
sVmedia_url
p584
Vhttp://pbs.twimg.com/media/B4pK-f0IEAMTg9i.jpg
p585
sasg63
Nsg64
Nsg65
Nsg66
VFri Dec 12 08:58:56 +0000 2014
p586
sg68
Nsg69
I00
sg70
Nsg71
Nsg72
Nsg73
Nsg74
I00
sg75
Nsg76
(lp587
g3
(g78
g5
Ntp588
Rp589
(dp590
g10
Nsg82
Nsg83
Nsg84
Nsg85
Nsg86
Nsg66
Nsg87
Nsg88
Nsg89
Nsg90
Nsg91
Nsg92
Nsg93
Nsg94
Nsg95
Nsg96
Nsg97
Nsg98
Nsg99
Nsg100
Nsg101
Nsg102
VJohnRFish
p591
sg104
Nsg105
VJohn Fisher
p592
sg107
Nsg108
Nsg109
I52406969
sg110
Nsbasg111
Nsg112
Nsg113
Nsg114
VAre you a JOHN? This Hoodies was designed for U! Click here: http://t.co/sHB3rToJm9 @JohnRFish http://t.co/gulqwpC5zJ
p593
sg116
I00
sg117
Ven
p594
sg119
g3
(g78
g5
Ntp595
Rp596
(dp597
g10
g123
sg82
V333333
p598
sg83
Ven
p599
sg84
Nsg85
I4
sg86
I2957
sg66
VThu Oct 24 09:50:42 +0000 2013
p600
sg87
I00
sg88
g123
sg89
Vhttps://pbs.twimg.com/profile_images/531004179456593920/KNdfW5pl_normal.png
p601
sg90
I0
sg91
I0
sg92
Nsg93
Nsg94
I00
sg95
Nsg96
I00
sg97
I00
sg98
V0084B4
p602
sg99
I00
sg100
I00
sg101
Vhttp://abs.twimg.com/images/themes/theme1/bg.png
p603
sg102
Vsakadezicel
p604
sg104
I0
sg105
VAdalmund Potts
p605
sg107
VDDEEF6
p606
sg108
Nsg109
I2152642147
sg110
VC0DEED
p607
sbsg134
I0
sg135
V<a href="https://mobile.twitter.com" rel="nofollow">Mobile Web (M5)</a>
p608
sg137
(lp609
g3
(g139
g5
Ntp610
Rp611
(dp612
g143
Vhttp://t.co/sHB3rToJm9
p613
sg145
Vhttp://teespring.com/JohnThingz
p614
sbasg109
I543329142666952704
sbag3
(g4
g5
Ntp615
Rp616
(dp617
g9
I0
sg10
Nsg11
Nsg12
(lp618
sg14
I00
sg15
Nsg16
Nsg17
(lp619
(dp620
Vexpanded_url
p621
Vhttp://twitter.com/sakadezicel/status/543318340555776000/photo/1
p622
sVdisplay_url
p623
Vpic.twitter.com/BDNXFvkBIV
p624
sVurl
p625
Vhttp://t.co/BDNXFvkBIV
p626
sVmedia_url_https
p627
Vhttps://pbs.twimg.com/media/B4pBJu1IYAIN4zD.jpg
p628
sVid_str
p629
V543318340497072130
p630
sVsizes
p631
(dp632
Vsmall
p633
(dp634
Vh
p635
I370
sVresize
p636
Vfit
p637
sVw
p638
I340
ssVlarge
p639
(dp640
Vh
p641
I560
sVresize
p642
Vfit
p643
sVw
p644
I514
ssVmedium
p645
(dp646
Vh
p647
I560
sVresize
p648
Vfit
p649
sVw
p650
I514
ssVthumb
p651
(dp652
Vh
p653
I150
sVresize
p654
Vcrop
p655
sVw
p656
I150
sssVindices
p657
(lp658
I97
aI119
asVtype
p659
Vphoto
p660
sVid
p661
I543318340497072130
sVmedia_url
p662
Vhttp://pbs.twimg.com/media/B4pBJu1IYAIN4zD.jpg
p663
sasg63
Nsg64
Nsg65
Nsg66
VFri Dec 12 08:16:01 +0000 2014
p664
sg68
Nsg69
I00
sg70
Nsg71
Nsg72
Nsg73
Nsg74
I00
sg75
Nsg76
(lp665
g3
(g78
g5
Ntp666
Rp667
(dp668
g10
Nsg82
Nsg83
Nsg84
Nsg85
Nsg86
Nsg66
Nsg87
Nsg88
Nsg89
Nsg90
Nsg91
Nsg92
Nsg93
Nsg94
Nsg95
Nsg96
Nsg97
Nsg98
Nsg99
Nsg100
Nsg101
Nsg102
VJ_Westphal2
p669
sg104
Nsg105
VChef John
p670
sg107
Nsg108
Nsg109
I339438367
sg110
Nsbasg111
Nsg112
Nsg113
Nsg114
VAre you a JOHN? This Hoodies was designed for U! Click here: http://t.co/sHB3rToJm9 @J_Westphal2 http://t.co/BDNXFvkBIV
p671
sg116
I00
sg117
Ven
p672
sg119
g3
(g78
g5
Ntp673
Rp674
(dp675
g10
g123
sg82
V333333
p676
sg83
Ven
p677
sg84
Nsg85
I4
sg86
I2957
sg66
VThu Oct 24 09:50:42 +0000 2013
p678
sg87
I00
sg88
g123
sg89
Vhttps://pbs.twimg.com/profile_images/531004179456593920/KNdfW5pl_normal.png
p679
sg90
I0
sg91
I0
sg92
Nsg93
Nsg94
I00
sg95
Nsg96
I00
sg97
I00
sg98
V0084B4
p680
sg99
I00
sg100
I00
sg101
Vhttp://abs.twimg.com/images/themes/theme1/bg.png
p681
sg102
Vsakadezicel
p682
sg104
I0
sg105
VAdalmund Potts
p683
sg107
VDDEEF6
p684
sg108
Nsg109
I2152642147
sg110
VC0DEED
p685
sbsg134
I0
sg135
V<a href="https://mobile.twitter.com" rel="nofollow">Mobile Web (M5)</a>
p686
sg137
(lp687
g3
(g139
g5
Ntp688
Rp689
(dp690
g143
Vhttp://t.co/sHB3rToJm9
p691
sg145
Vhttp://teespring.com/JohnThingz
p692
sbasg109
I543318340555776000
sbag3
(g4
g5
Ntp693
Rp694
(dp695
g9
I0
sg10
Nsg11
Nsg12
(lp696
sg14
I00
sg15
Nsg16
Nsg17
(lp697
(dp698
Vexpanded_url
p699
Vhttp://twitter.com/sakadezicel/status/543318040520441856/photo/1
p700
sVdisplay_url
p701
Vpic.twitter.com/WoAJDDTPo5
p702
sVurl
p703
Vhttp://t.co/WoAJDDTPo5
p704
sVmedia_url_https
p705
Vhttps://pbs.twimg.com/media/B4pA4REIAAAMDdd.jpg
p706
sVid_str
p707
V543318040449122304
p708
sVsizes
p709
(dp710
Vsmall
p711
(dp712
Vh
p713
I370
sVresize
p714
Vfit
p715
sVw
p716
I340
ssVlarge
p717
(dp718
Vh
p719
I560
sVresize
p720
Vfit
p721
sVw
p722
I514
ssVmedium
p723
(dp724
Vh
p725
I560
sVresize
p726
Vfit
p727
sVw
p728
I514
ssVthumb
p729
(dp730
Vh
p731
I150
sVresize
p732
Vcrop
p733
sVw
p734
I150
sssVindices
p735
(lp736
I96
aI118
asVtype
p737
Vphoto
p738
sVid
p739
I543318040449122304
sVmedia_url
p740
Vhttp://pbs.twimg.com/media/B4pA4REIAAAMDdd.jpg
p741
sasg63
Nsg64
Nsg65
Nsg66
VFri Dec 12 08:14:49 +0000 2014
p742
sg68
Nsg69
I00
sg70
Nsg71
Nsg72
Nsg73
Nsg74
I00
sg75
Nsg76
(lp743
g3
(g78
g5
Ntp744
Rp745
(dp746
g10
Nsg82
Nsg83
Nsg84
Nsg85
Nsg86
Nsg66
Nsg87
Nsg88
Nsg89
Nsg90
Nsg91
Nsg92
Nsg93
Nsg94
Nsg95
Nsg96
Nsg97
Nsg98
Nsg99
Nsg100
Nsg101
Nsg102
Vwoolfhound
p747
sg104
Nsg105
VJohn Whiteside
p748
sg107
Nsg108
Nsg109
I55552850
sg110
Nsbasg111
Nsg112
Nsg113
Nsg114
VAre you a JOHN? This Hoodies was designed for U! Click here: http://t.co/sHB3rToJm9 @woolfhound http://t.co/WoAJDDTPo5
p749
sg116
I00
sg117
Ven
p750
sg119
g3
(g78
g5
Ntp751
Rp752
(dp753
g10
g123
sg82
V333333
p754
sg83
Ven
p755
sg84
Nsg85
I4
sg86
I2957
sg66
VThu Oct 24 09:50:42 +0000 2013
p756
sg87
I00
sg88
g123
sg89
Vhttps://pbs.twimg.com/profile_images/531004179456593920/KNdfW5pl_normal.png
p757
sg90
I0
sg91
I0
sg92
Nsg93
Nsg94
I00
sg95
Nsg96
I00
sg97
I00
sg98
V0084B4
p758
sg99
I00
sg100
I00
sg101
Vhttp://abs.twimg.com/images/themes/theme1/bg.png
p759
sg102
Vsakadezicel
p760
sg104
I0
sg105
VAdalmund Potts
p761
sg107
VDDEEF6
p762
sg108
Nsg109
I2152642147
sg110
VC0DEED
p763
sbsg134
I0
sg135
V<a href="https://mobile.twitter.com" rel="nofollow">Mobile Web (M5)</a>
p764
sg137
(lp765
g3
(g139
g5
Ntp766
Rp767
(dp768
g143
Vhttp://t.co/sHB3rToJm9
p769
sg145
Vhttp://teespring.com/JohnThingz
p770
sbasg109
I543318040520441856
sbag3
(g4
g5
Ntp771
Rp772
(dp773
g9
I0
sg10
Nsg11
Nsg12
(lp774
sg14
I00
sg15
Nsg16
Nsg17
(lp775
(dp776
Vexpanded_url
p777
Vhttp://twitter.com/sakadezicel/status/543317740384432128/photo/1
p778
sVdisplay_url
p779
Vpic.twitter.com/M35R2XBKM0
p780
sVurl
p781
Vhttp://t.co/M35R2XBKM0
p782
sVmedia_url_https
p783
Vhttps://pbs.twimg.com/media/B4pAmy4IMAAMJFX.jpg
p784
sVid_str
p785
V543317740287963136
p786
sVsizes
p787
(dp788
Vsmall
p789
(dp790
Vh
p791
I370
sVresize
p792
Vfit
p793
sVw
p794
I340
ssVlarge
p795
(dp796
Vh
p797
I560
sVresize
p798
Vfit
p799
sVw
p800
I514
ssVmedium
p801
(dp802
Vh
p803
I560
sVresize
p804
Vfit
p805
sVw
p806
I514
ssVthumb
p807
(dp808
Vh
p809
I150
sVresize
p810
Vcrop
p811
sVw
p812
I150
sssVindices
p813
(lp814
I94
aI116
asVtype
p815
Vphoto
p816
sVid
p817
I543317740287963136
sVmedia_url
p818
Vhttp://pbs.twimg.com/media/B4pAmy4IMAAMJFX.jpg
p819
sasg63
Nsg64
Nsg65
Nsg66
VFri Dec 12 08:13:38 +0000 2014
p820
sg68
Nsg69
I00
sg70
Nsg71
Nsg72
Nsg73
Nsg74
I00
sg75
Nsg76
(lp821
g3
(g78
g5
Ntp822
Rp823
(dp824
g10
Nsg82
Nsg83
Nsg84
Nsg85
Nsg86
Nsg66
Nsg87
Nsg88
Nsg89
Nsg90
Nsg91
Nsg92
Nsg93
Nsg94
Nsg95
Nsg96
Nsg97
Nsg98
Nsg99
Nsg100
Nsg101
Nsg102
VJClurkin
p825
sg104
Nsg105
VJohn McClurkin
p826
sg107
Nsg108
Nsg109
I324169453
sg110
Nsbasg111
Nsg112
Nsg113
Nsg114
VAre you a JOHN? This Hoodies was designed for U! Click here: http://t.co/sHB3rToJm9 @JClurkin http://t.co/M35R2XBKM0
p827
sg116
I00
sg117
Ven
p828
sg119
g3
(g78
g5
Ntp829
Rp830
(dp831
g10
g123
sg82
V333333
p832
sg83
Ven
p833
sg84
Nsg85
I4
sg86
I2957
sg66
VThu Oct 24 09:50:42 +0000 2013
p834
sg87
I00
sg88
g123
sg89
Vhttps://pbs.twimg.com/profile_images/531004179456593920/KNdfW5pl_normal.png
p835
sg90
I0
sg91
I0
sg92
Nsg93
Nsg94
I00
sg95
Nsg96
I00
sg97
I00
sg98
V0084B4
p836
sg99
I00
sg100
I00
sg101
Vhttp://abs.twimg.com/images/themes/theme1/bg.png
p837
sg102
Vsakadezicel
p838
sg104
I0
sg105
VAdalmund Potts
p839
sg107
VDDEEF6
p840
sg108
Nsg109
I2152642147
sg110
VC0DEED
p841
sbsg134
I0
sg135
V<a href="https://mobile.twitter.com" rel="nofollow">Mobile Web (M5)</a>
p842
sg137
(lp843
g3
(g139
g5
Ntp844
Rp845
(dp846
g143
Vhttp://t.co/sHB3rToJm9
p847
sg145
Vhttp://teespring.com/JohnThingz
p848
sbasg109
I543317740384432128
sbag3
(g4
g5
Ntp849
Rp850
(dp851
g9
I0
sg10
Nsg11
Nsg12
(lp852
sg14
I00
sg15
Nsg16
Nsg17
(lp853
(dp854
Vexpanded_url
p855
Vhttp://twitter.com/sakadezicel/status/543317440546242560/photo/1
p856
sVdisplay_url
p857
Vpic.twitter.com/mVdtMYQz7k
p858
sVurl
p859
Vhttp://t.co/mVdtMYQz7k
p860
sVmedia_url_https
p861
Vhttps://pbs.twimg.com/media/B4pAVWFIMAE5SKq.jpg
p862
sVid_str
p863
V543317440500084737
p864
sVsizes
p865
(dp866
Vsmall
p867
(dp868
Vh
p869
I370
sVresize
p870
Vfit
p871
sVw
p872
I340
ssVlarge
p873
(dp874
Vh
p875
I560
sVresize
p876
Vfit
p877
sVw
p878
I514
ssVmedium
p879
(dp880
Vh
p881
I560
sVresize
p882
Vfit
p883
sVw
p884
I514
ssVthumb
p885
(dp886
Vh
p887
I150
sVresize
p888
Vcrop
p889
sVw
p890
I150
sssVindices
p891
(lp892
I92
aI114
asVtype
p893
Vphoto
p894
sVid
p895
I543317440500084737
sVmedia_url
p896
Vhttp://pbs.twimg.com/media/B4pAVWFIMAE5SKq.jpg
p897
sasg63
Nsg64
Nsg65
Nsg66
VFri Dec 12 08:12:26 +0000 2014
p898
sg68
Nsg69
I00
sg70
Nsg71
Nsg72
Nsg73
Nsg74
I00
sg75
Nsg76
(lp899
g3
(g78
g5
Ntp900
Rp901
(dp902
g10
Nsg82
Nsg83
Nsg84
Nsg85
Nsg86
Nsg66
Nsg87
Nsg88
Nsg89
Nsg90
Nsg91
Nsg92
Nsg93
Nsg94
Nsg95
Nsg96
Nsg97
Nsg98
Nsg99
Nsg100
Nsg101
Nsg102
VStormD
p903
sg104
Nsg105
VJohn Sweeney
p904
sg107
Nsg108
Nsg109
I19039795
sg110
Nsbasg111
Nsg112
Nsg113
Nsg114
VAre you a JOHN? This Hoodies was designed for U! Click here: http://t.co/sHB3rToJm9 @StormD http://t.co/mVdtMYQz7k
p905
sg116
I00
sg117
Ven
p906
sg119
g3
(g78
g5
Ntp907
Rp908
(dp909
g10
g123
sg82
V333333
p910
sg83
Ven
p911
sg84
Nsg85
I4
sg86
I2957
sg66
VThu Oct 24 09:50:42 +0000 2013
p912
sg87
I00
sg88
g123
sg89
Vhttps://pbs.twimg.com/profile_images/531004179456593920/KNdfW5pl_normal.png
p913
sg90
I0
sg91
I0
sg92
Nsg93
Nsg94
I00
sg95
Nsg96
I00
sg97
I00
sg98
V0084B4
p914
sg99
I00
sg100
I00
sg101
Vhttp://abs.twimg.com/images/themes/theme1/bg.png
p915
sg102
Vsakadezicel
p916
sg104
I0
sg105
VAdalmund Potts
p917
sg107
VDDEEF6
p918
sg108
Nsg109
I2152642147
sg110
VC0DEED
p919
sbsg134
I0
sg135
V<a href="https://mobile.twitter.com" rel="nofollow">Mobile Web (M5)</a>
p920
sg137
(lp921
g3
(g139
g5
Ntp922
Rp923
(dp924
g143
Vhttp://t.co/sHB3rToJm9
p925
sg145
Vhttp://teespring.com/JohnThingz
p926
sbasg109
I543317440546242560
sbag3
(g4
g5
Ntp927
Rp928
(dp929
g9
I0
sg10
Nsg11
Nsg12
(lp930
sg14
I00
sg15
Nsg16
Nsg17
(lp931
(dp932
Vexpanded_url
p933
Vhttp://twitter.com/sakadezicel/status/543317140594765824/photo/1
p934
sVdisplay_url
p935
Vpic.twitter.com/idX32NqbIo
p936
sVurl
p937
Vhttp://t.co/idX32NqbIo
p938
sVmedia_url_https
p939
Vhttps://pbs.twimg.com/media/B4pAD4dIcAEQ1Bh.jpg
p940
sVid_str
p941
V543317140489924609
p942
sVsizes
p943
(dp944
Vsmall
p945
(dp946
Vh
p947
I370
sVresize
p948
Vfit
p949
sVw
p950
I340
ssVlarge
p951
(dp952
Vh
p953
I560
sVresize
p954
Vfit
p955
sVw
p956
I514
ssVmedium
p957
(dp958
Vh
p959
I560
sVresize
p960
Vfit
p961
sVw
p962
I514
ssVthumb
p963
(dp964
Vh
p965
I150
sVresize
p966
Vcrop
p967
sVw
p968
I150
sssVindices
p969
(lp970
I98
aI120
asVtype
p971
Vphoto
p972
sVid
p973
I543317140489924609
sVmedia_url
p974
Vhttp://pbs.twimg.com/media/B4pAD4dIcAEQ1Bh.jpg
p975
sasg63
Nsg64
Nsg65
Nsg66
VFri Dec 12 08:11:15 +0000 2014
p976
sg68
Nsg69
I00
sg70
Nsg71
Nsg72
Nsg73
Nsg74
I00
sg75
Nsg76
(lp977
g3
(g78
g5
Ntp978
Rp979
(dp980
g10
Nsg82
Nsg83
Nsg84
Nsg85
Nsg86
Nsg66
Nsg87
Nsg88
Nsg89
Nsg90
Nsg91
Nsg92
Nsg93
Nsg94
Nsg95
Nsg96
Nsg97
Nsg98
Nsg99
Nsg100
Nsg101
Nsg102
Vmolinayadigg
p981
sg104
Nsg105
VJohn Molina
p982
sg107
Nsg108
Nsg109
I15489865
sg110
Nsbasg111
Nsg112
Nsg113
Nsg114
VAre you a JOHN? This Hoodies was designed for U! Click here: http://t.co/sHB3rToJm9 @molinayadigg http://t.co/idX32NqbIo
p983
sg116
I00
sg117
Ven
p984
sg119
g3
(g78
g5
Ntp985
Rp986
(dp987
g10
g123
sg82
V333333
p988
sg83
Ven
p989
sg84
Nsg85
I4
sg86
I2957
sg66
VThu Oct 24 09:50:42 +0000 2013
p990
sg87
I00
sg88
g123
sg89
Vhttps://pbs.twimg.com/profile_images/531004179456593920/KNdfW5pl_normal.png
p991
sg90
I0
sg91
I0
sg92
Nsg93
Nsg94
I00
sg95
Nsg96
I00
sg97
I00
sg98
V0084B4
p992
sg99
I00
sg100
I00
sg101
Vhttp://abs.twimg.com/images/themes/theme1/bg.png
p993
sg102
Vsakadezicel
p994
sg104
I0
sg105
VAdalmund Potts
p995
sg107
VDDEEF6
p996
sg108
Nsg109
I2152642147
sg110
VC0DEED
p997
sbsg134
I0
sg135
V<a href="https://mobile.twitter.com" rel="nofollow">Mobile Web (M5)</a>
p998
sg137
(lp999
g3
(g139
g5
Ntp1000
Rp1001
(dp1002
g143
Vhttp://t.co/sHB3rToJm9
p1003
sg145
Vhttp://teespring.com/JohnThingz
p1004
sbasg109
I543317140594765824
sbag3
(g4
g5
Ntp1005
Rp1006
(dp1007
g9
I0
sg10
Nsg11
Nsg12
(lp1008
sg14
I00
sg15
Nsg16
Nsg17
(lp1009
(dp1010
Vexpanded_url
p1011
Vhttp://twitter.com/sakadezicel/status/543316840517480448/photo/1
p1012
sVdisplay_url
p1013
Vpic.twitter.com/WIieknGQ7n
p1014
sVurl
p1015
Vhttp://t.co/WIieknGQ7n
p1016
sVmedia_url_https
p1017
Vhttps://pbs.twimg.com/media/B4o_yalIEAADCKr.jpg
p1018
sVid_str
p1019
V543316840412614656
p1020
sVsizes
p1021
(dp1022
Vsmall
p1023
(dp1024
Vh
p1025
I370
sVresize
p1026
Vfit
p1027
sVw
p1028
I340
ssVlarge
p1029
(dp1030
Vh
p1031
I560
sVresize
p1032
Vfit
p1033
sVw
p1034
I514
ssVmedium
p1035
(dp1036
Vh
p1037
I560
sVresize
p1038
Vfit
p1039
sVw
p1040
I514
ssVthumb
p1041
(dp1042
Vh
p1043
I150
sVresize
p1044
Vcrop
p1045
sVw
p1046
I150
sssVindices
p1047
(lp1048
I97
aI119
asVtype
p1049
Vphoto
p1050
sVid
p1051
I543316840412614656
sVmedia_url
p1052
Vhttp://pbs.twimg.com/media/B4o_yalIEAADCKr.jpg
p1053
sasg63
Nsg64
Nsg65
Nsg66
VFri Dec 12 08:10:03 +0000 2014
p1054
sg68
Nsg69
I00
sg70
Nsg71
Nsg72
Nsg73
Nsg74
I00
sg75
Nsg76
(lp1055
g3
(g78
g5
Ntp1056
Rp1057
(dp1058
g10
Nsg82
Nsg83
Nsg84
Nsg85
Nsg86
Nsg66
Nsg87
Nsg88
Nsg89
Nsg90
Nsg91
Nsg92
Nsg93
Nsg94
Nsg95
Nsg96
Nsg97
Nsg98
Nsg99
Nsg100
Nsg101
Nsg102
VJohnWoodArt
p1059
sg104
Nsg105
VJohn W Wood
p1060
sg107
Nsg108
Nsg109
I31084752
sg110
Nsbasg111
Nsg112
Nsg113
Nsg114
VAre you a JOHN? This Hoodies was designed for U! Click here: http://t.co/sHB3rToJm9 @JohnWoodArt http://t.co/WIieknGQ7n
p1061
sg116
I00
sg117
Ven
p1062
sg119
g3
(g78
g5
Ntp1063
Rp1064
(dp1065
g10
g123
sg82
V333333
p1066
sg83
Ven
p1067
sg84
Nsg85
I4
sg86
I2957
sg66
VThu Oct 24 09:50:42 +0000 2013
p1068
sg87
I00
sg88
g123
sg89
Vhttps://pbs.twimg.com/profile_images/531004179456593920/KNdfW5pl_normal.png
p1069
sg90
I0
sg91
I0
sg92
Nsg93
Nsg94
I00
sg95
Nsg96
I00
sg97
I00
sg98
V0084B4
p1070
sg99
I00
sg100
I00
sg101
Vhttp://abs.twimg.com/images/themes/theme1/bg.png
p1071
sg102
Vsakadezicel
p1072
sg104
I0
sg105
VAdalmund Potts
p1073
sg107
VDDEEF6
p1074
sg108
Nsg109
I2152642147
sg110
VC0DEED
p1075
sbsg134
I0
sg135
V<a href="https://mobile.twitter.com" rel="nofollow">Mobile Web (M5)</a>
p1076
sg137
(lp1077
g3
(g139
g5
Ntp1078
Rp1079
(dp1080
g143
Vhttp://t.co/sHB3rToJm9
p1081
sg145
Vhttp://teespring.com/JohnThingz
p1082
sbasg109
I543316840517480448
sbag3
(g4
g5
Ntp1083
Rp1084
(dp1085
g9
I0
sg10
Nsg11
Nsg12
(lp1086
sg14
I00
sg15
Nsg16
Nsg17
(lp1087
(dp1088
Vexpanded_url
p1089
Vhttp://twitter.com/sakadezicel/status/543316540385685504/photo/1
p1090
sVdisplay_url
p1091
Vpic.twitter.com/P2T84yudkb
p1092
sVurl
p1093
Vhttp://t.co/P2T84yudkb
p1094
sVmedia_url_https
p1095
Vhttps://pbs.twimg.com/media/B4o_g8vIMAA1g6S.jpg
p1096
sVid_str
p1097
V543316540343726080
p1098
sVsizes
p1099
(dp1100
Vsmall
p1101
(dp1102
Vh
p1103
I370
sVresize
p1104
Vfit
p1105
sVw
p1106
I340
ssVlarge
p1107
(dp1108
Vh
p1109
I560
sVresize
p1110
Vfit
p1111
sVw
p1112
I514
ssVmedium
p1113
(dp1114
Vh
p1115
I560
sVresize
p1116
Vfit
p1117
sVw
p1118
I514
ssVthumb
p1119
(dp1120
Vh
p1121
I150
sVresize
p1122
Vcrop
p1123
sVw
p1124
I150
sssVindices
p1125
(lp1126
I96
aI118
asVtype
p1127
Vphoto
p1128
sVid
p1129
I543316540343726080
sVmedia_url
p1130
Vhttp://pbs.twimg.com/media/B4o_g8vIMAA1g6S.jpg
p1131
sasg63
Nsg64
Nsg65
Nsg66
VFri Dec 12 08:08:52 +0000 2014
p1132
sg68
Nsg69
I00
sg70
Nsg71
Nsg72
Nsg73
Nsg74
I00
sg75
Nsg76
(lp1133
g3
(g78
g5
Ntp1134
Rp1135
(dp1136
g10
Nsg82
Nsg83
Nsg84
Nsg85
Nsg86
Nsg66
Nsg87
Nsg88
Nsg89
Nsg90
Nsg91
Nsg92
Nsg93
Nsg94
Nsg95
Nsg96
Nsg97
Nsg98
Nsg99
Nsg100
Nsg101
Nsg102
VJohn_Ewert
p1137
sg104
Nsg105
VJohn Ewert
p1138
sg107
Nsg108
Nsg109
I69701114
sg110
Nsbasg111
Nsg112
Nsg113
Nsg114
VAre you a JOHN? This Hoodies was designed for U! Click here: http://t.co/sHB3rToJm9 @John_Ewert http://t.co/P2T84yudkb
p1139
sg116
I00
sg117
Ven
p1140
sg119
g3
(g78
g5
Ntp1141
Rp1142
(dp1143
g10
g123
sg82
V333333
p1144
sg83
Ven
p1145
sg84
Nsg85
I4
sg86
I2957
sg66
VThu Oct 24 09:50:42 +0000 2013
p1146
sg87
I00
sg88
g123
sg89
Vhttps://pbs.twimg.com/profile_images/531004179456593920/KNdfW5pl_normal.png
p1147
sg90
I0
sg91
I0
sg92
Nsg93
Nsg94
I00
sg95
Nsg96
I00
sg97
I00
sg98
V0084B4
p1148
sg99
I00
sg100
I00
sg101
Vhttp://abs.twimg.com/images/themes/theme1/bg.png
p1149
sg102
Vsakadezicel
p1150
sg104
I0
sg105
VAdalmund Potts
p1151
sg107
VDDEEF6
p1152
sg108
Nsg109
I2152642147
sg110
VC0DEED
p1153
sbsg134
I0
sg135
V<a href="https://mobile.twitter.com" rel="nofollow">Mobile Web (M5)</a>
p1154
sg137
(lp1155
g3
(g139
g5
Ntp1156
Rp1157
(dp1158
g143
Vhttp://t.co/sHB3rToJm9
p1159
sg145
Vhttp://teespring.com/JohnThingz
p1160
sbasg109
I543316540385685504
sbag3
(g4
g5
Ntp1161
Rp1162
(dp1163
g9
I0
sg10
Nsg11
Nsg12
(lp1164
sg14
I00
sg15
Nsg16
Nsg17
(lp1165
(dp1166
Vexpanded_url
p1167
Vhttp://twitter.com/sakadezicel/status/543316240299991040/photo/1
p1168
sVdisplay_url
p1169
Vpic.twitter.com/aQAwOyhNBc
p1170
sVurl
p1171
Vhttp://t.co/aQAwOyhNBc
p1172
sVmedia_url_https
p1173
Vhttps://pbs.twimg.com/media/B4o_PelIcAA8wjm.jpg
p1174
sVid_str
p1175
V543316240190959616
p1176
sVsizes
p1177
(dp1178
Vsmall
p1179
(dp1180
Vh
p1181
I370
sVresize
p1182
Vfit
p1183
sVw
p1184
I340
ssVlarge
p1185
(dp1186
Vh
p1187
I560
sVresize
p1188
Vfit
p1189
sVw
p1190
I514
ssVmedium
p1191
(dp1192
Vh
p1193
I560
sVresize
p1194
Vfit
p1195
sVw
p1196
I514
ssVthumb
p1197
(dp1198
Vh
p1199
I150
sVresize
p1200
Vcrop
p1201
sVw
p1202
I150
sssVindices
p1203
(lp1204
I96
aI118
asVtype
p1205
Vphoto
p1206
sVid
p1207
I543316240190959616
sVmedia_url
p1208
Vhttp://pbs.twimg.com/media/B4o_PelIcAA8wjm.jpg
p1209
sasg63
Nsg64
Nsg65
Nsg66
VFri Dec 12 08:07:40 +0000 2014
p1210
sg68
Nsg69
I00
sg70
Nsg71
Nsg72
Nsg73
Nsg74
I00
sg75
Nsg76
(lp1211
g3
(g78
g5
Ntp1212
Rp1213
(dp1214
g10
Nsg82
Nsg83
Nsg84
Nsg85
Nsg86
Nsg66
Nsg87
Nsg88
Nsg89
Nsg90
Nsg91
Nsg92
Nsg93
Nsg94
Nsg95
Nsg96
Nsg97
Nsg98
Nsg99
Nsg100
Nsg101
Nsg102
Vjsoriano21
p1215
sg104
Nsg105
VJohn Soriano
p1216
sg107
Nsg108
Nsg109
I68899508
sg110
Nsbasg111
Nsg112
Nsg113
Nsg114
VAre you a JOHN? This Hoodies was designed for U! Click here: http://t.co/sHB3rToJm9 @jsoriano21 http://t.co/aQAwOyhNBc
p1217
sg116
I00
sg117
Ven
p1218
sg119
g3
(g78
g5
Ntp1219
Rp1220
(dp1221
g10
g123
sg82
V333333
p1222
sg83
Ven
p1223
sg84
Nsg85
I4
sg86
I2957
sg66
VThu Oct 24 09:50:42 +0000 2013
p1224
sg87
I00
sg88
g123
sg89
Vhttps://pbs.twimg.com/profile_images/531004179456593920/KNdfW5pl_normal.png
p1225
sg90
I0
sg91
I0
sg92
Nsg93
Nsg94
I00
sg95
Nsg96
I00
sg97
I00
sg98
V0084B4
p1226
sg99
I00
sg100
I00
sg101
Vhttp://abs.twimg.com/images/themes/theme1/bg.png
p1227
sg102
Vsakadezicel
p1228
sg104
I0
sg105
VAdalmund Potts
p1229
sg107
VDDEEF6
p1230
sg108
Nsg109
I2152642147
sg110
VC0DEED
p1231
sbsg134
I0
sg135
V<a href="https://mobile.twitter.com" rel="nofollow">Mobile Web (M5)</a>
p1232
sg137
(lp1233
g3
(g139
g5
Ntp1234
Rp1235
(dp1236
g143
Vhttp://t.co/sHB3rToJm9
p1237
sg145
Vhttp://teespring.com/JohnThingz
p1238
sbasg109
I543316240299991040
sbag3
(g4
g5
Ntp1239
Rp1240
(dp1241
g9
I0
sg10
Nsg11
Nsg12
(lp1242
sg14
I00
sg15
Nsg16
Nsg17
(lp1243
(dp1244
Vexpanded_url
p1245
Vhttp://twitter.com/sakadezicel/status/543315939824238592/photo/1
p1246
sVdisplay_url
p1247
Vpic.twitter.com/MlSmaMXeIl
p1248
sVurl
p1249
Vhttp://t.co/MlSmaMXeIl
p1250
sVmedia_url_https
p1251
Vhttps://pbs.twimg.com/media/B4o-9_aIgAA-a_g.jpg
p1252
sVid_str
p1253
V543315939765551104
p1254
sVsizes
p1255
(dp1256
Vsmall
p1257
(dp1258
Vh
p1259
I370
sVresize
p1260
Vfit
p1261
sVw
p1262
I340
ssVlarge
p1263
(dp1264
Vh
p1265
I560
sVresize
p1266
Vfit
p1267
sVw
p1268
I514
ssVmedium
p1269
(dp1270
Vh
p1271
I560
sVresize
p1272
Vfit
p1273
sVw
p1274
I514
ssVthumb
p1275
(dp1276
Vh
p1277
I150
sVresize
p1278
Vcrop
p1279
sVw
p1280
I150
sssVindices
p1281
(lp1282
I97
aI119
asVtype
p1283
Vphoto
p1284
sVid
p1285
I543315939765551104
sVmedia_url
p1286
Vhttp://pbs.twimg.com/media/B4o-9_aIgAA-a_g.jpg
p1287
sasg63
Nsg64
Nsg65
Nsg66
VFri Dec 12 08:06:29 +0000 2014
p1288
sg68
Nsg69
I00
sg70
Nsg71
Nsg72
Nsg73
Nsg74
I00
sg75
Nsg76
(lp1289
g3
(g78
g5
Ntp1290
Rp1291
(dp1292
g10
Nsg82
Nsg83
Nsg84
Nsg85
Nsg86
Nsg66
Nsg87
Nsg88
Nsg89
Nsg90
Nsg91
Nsg92
Nsg93
Nsg94
Nsg95
Nsg96
Nsg97
Nsg98
Nsg99
Nsg100
Nsg101
Nsg102
Vjohnthunder
p1293
sg104
Nsg105
Vjohnthunder
p1294
sg107
Nsg108
Nsg109
I14274975
sg110
Nsbasg111
Nsg112
Nsg113
Nsg114
VAre you a JOHN? This Hoodies was designed for U! Click here: http://t.co/sHB3rToJm9 @johnthunder http://t.co/MlSmaMXeIl
p1295
sg116
I00
sg117
Ven
p1296
sg119
g3
(g78
g5
Ntp1297
Rp1298
(dp1299
g10
g123
sg82
V333333
p1300
sg83
Ven
p1301
sg84
Nsg85
I4
sg86
I2957
sg66
VThu Oct 24 09:50:42 +0000 2013
p1302
sg87
I00
sg88
g123
sg89
Vhttps://pbs.twimg.com/profile_images/531004179456593920/KNdfW5pl_normal.png
p1303
sg90
I0
sg91
I0
sg92
Nsg93
Nsg94
I00
sg95
Nsg96
I00
sg97
I00
sg98
V0084B4
p1304
sg99
I00
sg100
I00
sg101
Vhttp://abs.twimg.com/images/themes/theme1/bg.png
p1305
sg102
Vsakadezicel
p1306
sg104
I0
sg105
VAdalmund Potts
p1307
sg107
VDDEEF6
p1308
sg108
Nsg109
I2152642147
sg110
VC0DEED
p1309
sbsg134
I0
sg135
V<a href="https://mobile.twitter.com" rel="nofollow">Mobile Web (M5)</a>
p1310
sg137
(lp1311
g3
(g139
g5
Ntp1312
Rp1313
(dp1314
g143
Vhttp://t.co/sHB3rToJm9
p1315
sg145
Vhttp://teespring.com/JohnThingz
p1316
sbasg109
I543315939824238592
sbag3
(g4
g5
Ntp1317
Rp1318
(dp1319
g9
I0
sg10
Nsg11
Nsg12
(lp1320
sg14
I00
sg15
Nsg16
Nsg17
(lp1321
(dp1322
Vexpanded_url
p1323
Vhttp://twitter.com/sakadezicel/status/543315639902175232/photo/1
p1324
sVdisplay_url
p1325
Vpic.twitter.com/Z61SCLmjsg
p1326
sVurl
p1327
Vhttp://t.co/Z61SCLmjsg
p1328
sVmedia_url_https
p1329
Vhttps://pbs.twimg.com/media/B4o-siCIEAAKoCi.jpg
p1330
sVid_str
p1331
V543315639822454784
p1332
sVsizes
p1333
(dp1334
Vsmall
p1335
(dp1336
Vh
p1337
I370
sVresize
p1338
Vfit
p1339
sVw
p1340
I340
ssVlarge
p1341
(dp1342
Vh
p1343
I560
sVresize
p1344
Vfit
p1345
sVw
p1346
I514
ssVmedium
p1347
(dp1348
Vh
p1349
I560
sVresize
p1350
Vfit
p1351
sVw
p1352
I514
ssVthumb
p1353
(dp1354
Vh
p1355
I150
sVresize
p1356
Vcrop
p1357
sVw
p1358
I150
sssVindices
p1359
(lp1360
I98
aI120
asVtype
p1361
Vphoto
p1362
sVid
p1363
I543315639822454784
sVmedia_url
p1364
Vhttp://pbs.twimg.com/media/B4o-siCIEAAKoCi.jpg
p1365
sasg63
Nsg64
Nsg65
Nsg66
VFri Dec 12 08:05:17 +0000 2014
p1366
sg68
Nsg69
I00
sg70
Nsg71
Nsg72
Nsg73
Nsg74
I00
sg75
Nsg76
(lp1367
g3
(g78
g5
Ntp1368
Rp1369
(dp1370
g10
Nsg82
Nsg83
Nsg84
Nsg85
Nsg86
Nsg66
Nsg87
Nsg88
Nsg89
Nsg90
Nsg91
Nsg92
Nsg93
Nsg94
Nsg95
Nsg96
Nsg97
Nsg98
Nsg99
Nsg100
Nsg101
Nsg102
Vwelshjrc1984
p1371
sg104
Nsg105
VJohn Connolly
p1372
sg107
Nsg108
Nsg109
I25607076
sg110
Nsbasg111
Nsg112
Nsg113
Nsg114
VAre you a JOHN? This Hoodies was designed for U! Click here: http://t.co/sHB3rToJm9 @welshjrc1984 http://t.co/Z61SCLmjsg
p1373
sg116
I00
sg117
Ven
p1374
sg119
g3
(g78
g5
Ntp1375
Rp1376
(dp1377
g10
g123
sg82
V333333
p1378
sg83
Ven
p1379
sg84
Nsg85
I4
sg86
I2957
sg66
VThu Oct 24 09:50:42 +0000 2013
p1380
sg87
I00
sg88
g123
sg89
Vhttps://pbs.twimg.com/profile_images/531004179456593920/KNdfW5pl_normal.png
p1381
sg90
I0
sg91
I0
sg92
Nsg93
Nsg94
I00
sg95
Nsg96
I00
sg97
I00
sg98
V0084B4
p1382
sg99
I00
sg100
I00
sg101
Vhttp://abs.twimg.com/images/themes/theme1/bg.png
p1383
sg102
Vsakadezicel
p1384
sg104
I0
sg105
VAdalmund Potts
p1385
sg107
VDDEEF6
p1386
sg108
Nsg109
I2152642147
sg110
VC0DEED
p1387
sbsg134
I0
sg135
V<a href="https://mobile.twitter.com" rel="nofollow">Mobile Web (M5)</a>
p1388
sg137
(lp1389
g3
(g139
g5
Ntp1390
Rp1391
(dp1392
g143
Vhttp://t.co/sHB3rToJm9
p1393
sg145
Vhttp://teespring.com/JohnThingz
p1394
sbasg109
I543315639902175232
sbag3
(g4
g5
Ntp1395
Rp1396
(dp1397
g9
I0
sg10
Nsg11
Nsg12
(lp1398
sg14
I00
sg15
Nsg16
Nsg17
(lp1399
(dp1400
Vexpanded_url
p1401
Vhttp://twitter.com/sakadezicel/status/543315340097519616/photo/1
p1402
sVdisplay_url
p1403
Vpic.twitter.com/hhZY9emwzZ
p1404
sVurl
p1405
Vhttp://t.co/hhZY9emwzZ
p1406
sVmedia_url_https
p1407
Vhttps://pbs.twimg.com/media/B4o-bE9IIAADpru.jpg
p1408
sVid_str
p1409
V543315339959083008
p1410
sVsizes
p1411
(dp1412
Vsmall
p1413
(dp1414
Vh
p1415
I370
sVresize
p1416
Vfit
p1417
sVw
p1418
I340
ssVlarge
p1419
(dp1420
Vh
p1421
I560
sVresize
p1422
Vfit
p1423
sVw
p1424
I514
ssVmedium
p1425
(dp1426
Vh
p1427
I560
sVresize
p1428
Vfit
p1429
sVw
p1430
I514
ssVthumb
p1431
(dp1432
Vh
p1433
I150
sVresize
p1434
Vcrop
p1435
sVw
p1436
I150
sssVindices
p1437
(lp1438
I100
aI122
asVtype
p1439
Vphoto
p1440
sVid
p1441
I543315339959083008
sVmedia_url
p1442
Vhttp://pbs.twimg.com/media/B4o-bE9IIAADpru.jpg
p1443
sasg63
Nsg64
Nsg65
Nsg66
VFri Dec 12 08:04:06 +0000 2014
p1444
sg68
Nsg69
I00
sg70
Nsg71
Nsg72
Nsg73
Nsg74
I00
sg75
Nsg76
(lp1445
g3
(g78
g5
Ntp1446
Rp1447
(dp1448
g10
Nsg82
Nsg83
Nsg84
Nsg85
Nsg86
Nsg66
Nsg87
Nsg88
Nsg89
Nsg90
Nsg91
Nsg92
Nsg93
Nsg94
Nsg95
Nsg96
Nsg97
Nsg98
Nsg99
Nsg100
Nsg101
Nsg102
Vjohnquick81098
p1449
sg104
Nsg105
VJohn Quick
p1450
sg107
Nsg108
Nsg109
I2196230344
sg110
Nsbasg111
Nsg112
Nsg113
Nsg114
VAre you a JOHN? This Hoodies was designed for U! Click here: http://t.co/sHB3rToJm9 @johnquick81098 http://t.co/hhZY9emwzZ
p1451
sg116
I00
sg117
Ven
p1452
sg119
g3
(g78
g5
Ntp1453
Rp1454
(dp1455
g10
g123
sg82
V333333
p1456
sg83
Ven
p1457
sg84
Nsg85
I4
sg86
I2957
sg66
VThu Oct 24 09:50:42 +0000 2013
p1458
sg87
I00
sg88
g123
sg89
Vhttps://pbs.twimg.com/profile_images/531004179456593920/KNdfW5pl_normal.png
p1459
sg90
I0
sg91
I0
sg92
Nsg93
Nsg94
I00
sg95
Nsg96
I00
sg97
I00
sg98
V0084B4
p1460
sg99
I00
sg100
I00
sg101
Vhttp://abs.twimg.com/images/themes/theme1/bg.png
p1461
sg102
Vsakadezicel
p1462
sg104
I0
sg105
VAdalmund Potts
p1463
sg107
VDDEEF6
p1464
sg108
Nsg109
I2152642147
sg110
VC0DEED
p1465
sbsg134
I0
sg135
V<a href="https://mobile.twitter.com" rel="nofollow">Mobile Web (M5)</a>
p1466
sg137
(lp1467
g3
(g139
g5
Ntp1468
Rp1469
(dp1470
g143
Vhttp://t.co/sHB3rToJm9
p1471
sg145
Vhttp://teespring.com/JohnThingz
p1472
sbasg109
I543315340097519616
sbag3
(g4
g5
Ntp1473
Rp1474
(dp1475
g9
I0
sg10
Nsg11
Nsg12
(lp1476
sg14
I00
sg15
Nsg16
Nsg17
(lp1477
(dp1478
Vexpanded_url
p1479
Vhttp://twitter.com/sakadezicel/status/543315040032784385/photo/1
p1480
sVdisplay_url
p1481
Vpic.twitter.com/sbT5iIx6zQ
p1482
sVurl
p1483
Vhttp://t.co/sbT5iIx6zQ
p1484
sVmedia_url_https
p1485
Vhttps://pbs.twimg.com/media/B4o-JnXIcAAKCZy.jpg
p1486
sVid_str
p1487
V543315039957315584
p1488
sVsizes
p1489
(dp1490
Vsmall
p1491
(dp1492
Vh
p1493
I370
sVresize
p1494
Vfit
p1495
sVw
p1496
I340
ssVlarge
p1497
(dp1498
Vh
p1499
I560
sVresize
p1500
Vfit
p1501
sVw
p1502
I514
ssVmedium
p1503
(dp1504
Vh
p1505
I560
sVresize
p1506
Vfit
p1507
sVw
p1508
I514
ssVthumb
p1509
(dp1510
Vh
p1511
I150
sVresize
p1512
Vcrop
p1513
sVw
p1514
I150
sssVindices
p1515
(lp1516
I98
aI120
asVtype
p1517
Vphoto
p1518
sVid
p1519
I543315039957315584
sVmedia_url
p1520
Vhttp://pbs.twimg.com/media/B4o-JnXIcAAKCZy.jpg
p1521
sasg63
Nsg64
Nsg65
Nsg66
VFri Dec 12 08:02:54 +0000 2014
p1522
sg68
Nsg69
I00
sg70
Nsg71
Nsg72
Nsg73
Nsg74
I00
sg75
Nsg76
(lp1523
g3
(g78
g5
Ntp1524
Rp1525
(dp1526
g10
Nsg82
Nsg83
Nsg84
Nsg85
Nsg86
Nsg66
Nsg87
Nsg88
Nsg89
Nsg90
Nsg91
Nsg92
Nsg93
Nsg94
Nsg95
Nsg96
Nsg97
Nsg98
Nsg99
Nsg100
Nsg101
Nsg102
VImMrNovember
p1527
sg104
Nsg105
VJohn Mullen
p1528
sg107
Nsg108
Nsg109
I20437476
sg110
Nsbasg111
Nsg112
Nsg113
Nsg114
VAre you a JOHN? This Hoodies was designed for U! Click here: http://t.co/sHB3rToJm9 @ImMrNovember http://t.co/sbT5iIx6zQ
p1529
sg116
I00
sg117
Ven
p1530
sg119
g3
(g78
g5
Ntp1531
Rp1532
(dp1533
g10
g123
sg82
V333333
p1534
sg83
Ven
p1535
sg84
Nsg85
I4
sg86
I2957
sg66
VThu Oct 24 09:50:42 +0000 2013
p1536
sg87
I00
sg88
g123
sg89
Vhttps://pbs.twimg.com/profile_images/531004179456593920/KNdfW5pl_normal.png
p1537
sg90
I0
sg91
I0
sg92
Nsg93
Nsg94
I00
sg95
Nsg96
I00
sg97
I00
sg98
V0084B4
p1538
sg99
I00
sg100
I00
sg101
Vhttp://abs.twimg.com/images/themes/theme1/bg.png
p1539
sg102
Vsakadezicel
p1540
sg104
I0
sg105
VAdalmund Potts
p1541
sg107
VDDEEF6
p1542
sg108
Nsg109
I2152642147
sg110
VC0DEED
p1543
sbsg134
I0
sg135
V<a href="https://mobile.twitter.com" rel="nofollow">Mobile Web (M5)</a>
p1544
sg137
(lp1545
g3
(g139
g5
Ntp1546
Rp1547
(dp1548
g143
Vhttp://t.co/sHB3rToJm9
p1549
sg145
Vhttp://teespring.com/JohnThingz
p1550
sbasg109
I543315040032784385
sbag3
(g4
g5
Ntp1551
Rp1552
(dp1553
g9
I0
sg10
Nsg11
Nsg12
(lp1554
sg14
I00
sg15
Nsg16
Nsg17
(lp1555
(dp1556
Vexpanded_url
p1557
Vhttp://twitter.com/sakadezicel/status/543314740052000768/photo/1
p1558
sVdisplay_url
p1559
Vpic.twitter.com/46P6hb4ur8
p1560
sVurl
p1561
Vhttp://t.co/46P6hb4ur8
p1562
sVmedia_url_https
p1563
Vhttps://pbs.twimg.com/media/B4o94JxIYAAWAgt.jpg
p1564
sVid_str
p1565
V543314739955523584
p1566
sVsizes
p1567
(dp1568
Vsmall
p1569
(dp1570
Vh
p1571
I370
sVresize
p1572
Vfit
p1573
sVw
p1574
I340
ssVlarge
p1575
(dp1576
Vh
p1577
I560
sVresize
p1578
Vfit
p1579
sVw
p1580
I514
ssVmedium
p1581
(dp1582
Vh
p1583
I560
sVresize
p1584
Vfit
p1585
sVw
p1586
I514
ssVthumb
p1587
(dp1588
Vh
p1589
I150
sVresize
p1590
Vcrop
p1591
sVw
p1592
I150
sssVindices
p1593
(lp1594
I99
aI121
asVtype
p1595
Vphoto
p1596
sVid
p1597
I543314739955523584
sVmedia_url
p1598
Vhttp://pbs.twimg.com/media/B4o94JxIYAAWAgt.jpg
p1599
sasg63
Nsg64
Nsg65
Nsg66
VFri Dec 12 08:01:42 +0000 2014
p1600
sg68
Nsg69
I00
sg70
Nsg71
Nsg72
Nsg73
Nsg74
I00
sg75
Nsg76
(lp1601
g3
(g78
g5
Ntp1602
Rp1603
(dp1604
g10
Nsg82
Nsg83
Nsg84
Nsg85
Nsg86
Nsg66
Nsg87
Nsg88
Nsg89
Nsg90
Nsg91
Nsg92
Nsg93
Nsg94
Nsg95
Nsg96
Nsg97
Nsg98
Nsg99
Nsg100
Nsg101
Nsg102
VJohnBaird1888
p1605
sg104
Nsg105
VJohn Baird
p1606
sg107
Nsg108
Nsg109
I263772458
sg110
Nsbasg111
Nsg112
Nsg113
Nsg114
VAre you a JOHN? This Hoodies was designed for U! Click here: http://t.co/sHB3rToJm9 @JohnBaird1888 http://t.co/46P6hb4ur8
p1607
sg116
I00
sg117
Ven
p1608
sg119
g3
(g78
g5
Ntp1609
Rp1610
(dp1611
g10
g123
sg82
V333333
p1612
sg83
Ven
p1613
sg84
Nsg85
I4
sg86
I2957
sg66
VThu Oct 24 09:50:42 +0000 2013
p1614
sg87
I00
sg88
g123
sg89
Vhttps://pbs.twimg.com/profile_images/531004179456593920/KNdfW5pl_normal.png
p1615
sg90
I0
sg91
I0
sg92
Nsg93
Nsg94
I00
sg95
Nsg96
I00
sg97
I00
sg98
V0084B4
p1616
sg99
I00
sg100
I00
sg101
Vhttp://abs.twimg.com/images/themes/theme1/bg.png
p1617
sg102
Vsakadezicel
p1618
sg104
I0
sg105
VAdalmund Potts
p1619
sg107
VDDEEF6
p1620
sg108
Nsg109
I2152642147
sg110
VC0DEED
p1621
sbsg134
I0
sg135
V<a href="https://mobile.twitter.com" rel="nofollow">Mobile Web (M5)</a>
p1622
sg137
(lp1623
g3
(g139
g5
Ntp1624
Rp1625
(dp1626
g143
Vhttp://t.co/sHB3rToJm9
p1627
sg145
Vhttp://teespring.com/JohnThingz
p1628
sbasg109
I543314740052000768
sbaa.