(lp0
S'iAmJanuaryJai\n'
p1
a(lp2
ccopy_reg
_reconstructor
p3
(ctwitter
Status
p4
c__builtin__
object
p5
Ntp6
Rp7
(dp8
S'_favorite_count'
p9
I2
sS'_location'
p10
NsS'_withheld_scope'
p11
NsS'hashtags'
p12
(lp13
sS'_truncated'
p14
I00
sS'_retweeted_status'
p15
NsS'_withheld_copyright'
p16
NsS'media'
p17
(lp18
(dp19
Vexpanded_url
p20
Vhttp://twitter.com/iAmJanuaryJai/status/544154617081503744/photo/1
p21
sVdisplay_url
p22
Vpic.twitter.com/yxSYhtg3de
p23
sVurl
p24
Vhttp://t.co/yxSYhtg3de
p25
sVmedia_url_https
p26
Vhttps://pbs.twimg.com/media/B405si0CEAAxkSp.jpg
p27
sVid_str
p28
V544154567403769856
p29
sVsizes
p30
(dp31
Vsmall
p32
(dp33
Vh
p34
I340
sVresize
p35
Vfit
p36
sVw
p37
I340
ssVlarge
p38
(dp39
Vh
p40
I1024
sVresize
p41
Vfit
p42
sVw
p43
I1024
ssVmedium
p44
(dp45
Vh
p46
I600
sVresize
p47
Vfit
p48
sVw
p49
I600
ssVthumb
p50
(dp51
Vh
p52
I150
sVresize
p53
Vcrop
p54
sVw
p55
I150
sssVindices
p56
(lp57
I117
aI139
asVtype
p58
Vphoto
p59
sVid
p60
I544154567403769856
sVmedia_url
p61
Vhttp://pbs.twimg.com/media/B405si0CEAAxkSp.jpg
p62
sasS'_place'
p63
NsS'_contributors'
p64
NsS'_current_user_retweet'
p65
NsS'_created_at'
p66
VSun Dec 14 15:39:05 +0000 2014
p67
sS'_scopes'
p68
NsS'_possibly_sensitive'
p69
I00
sS'_in_reply_to_screen_name'
p70
NsS'_coordinates'
p71
NsS'_in_reply_to_user_id'
p72
NsS'_geo'
p73
NsS'_favorited'
p74
I00
sS'_withheld_in_countries'
p75
NsS'user_mentions'
p76
(lp77
g3
(ctwitter
User
p78
g5
Ntp79
Rp80
(dp81
g10
NsS'_profile_text_color'
p82
NsS'_lang'
p83
NsS'_time_zone'
p84
NsS'_followers_count'
p85
NsS'_statuses_count'
p86
Nsg66
NsS'_verified'
p87
NsS'_description'
p88
NsS'_profile_image_url'
p89
NsS'_friends_count'
p90
NsS'_favourites_count'
p91
NsS'_utc_offset'
p92
NsS'_status'
p93
NsS'_protected'
p94
NsS'_profile_banner_url'
p95
NsS'_notifications'
p96
NsS'_profile_background_tile'
p97
NsS'_profile_link_color'
p98
NsS'_geo_enabled'
p99
NsS'_contributors_enabled'
p100
NsS'_profile_background_image_url'
p101
NsS'_screen_name'
p102
VVeuveClicquot
p103
sS'_listed_count'
p104
NsS'_name'
p105
VVeuve Clicquot
p106
sS'_profile_sidebar_fill_color'
p107
NsS'_url'
p108
NsS'_id'
p109
I21406641
sS'_profile_background_color'
p110
NsbasS'_now'
p111
NsS'_id_str'
p112
V544154617081503744
p113
sS'_in_reply_to_status_id'
p114
NsS'_text'
p115
VBut while I wait there's no better way to start except with @VeuveClicquot "b/c champagne is a girl's best friend" \U0001f3b6 http://t.co/yxSYhtg3de
p116
sS'_retweeted'
p117
I00
sS'lang'
p118
Ven
p119
sS'_user'
p120
g3
(g78
g5
Ntp121
Rp122
(dp123
g10
VDC \u2708\ufe0f TX
p124
sg82
V333333
p125
sg83
Ven
p126
sg84
VEastern Time (US & Canada)
p127
sg85
I554
sg86
I1888
sg66
VTue Nov 20 22:15:05 +0000 2012
p128
sg87
I00
sg88
VAsst.Editor @GirlMeetsFood: Writer @JKnowsGoodFood @DCIndustree: Freelance Photographer: Wanderlust: Live music/concert junkie. Life is an adventure.
p129
sg89
Vhttps://pbs.twimg.com/profile_images/532216169621504000/nL-GFTK1_normal.jpeg
p130
sg90
I835
sg91
I458
sg92
I-18000
sg93
Nsg94
I00
sg95
Vhttps://pbs.twimg.com/profile_banners/961301256/1415725083
p131
sg96
I00
sg97
I01
sg98
V050505
p132
sg99
I00
sg100
I00
sg101
Vhttp://pbs.twimg.com/profile_background_images/519698230615887872/YKZAFSJS.jpeg
p133
sg102
ViAmJanuaryJai
p134
sg104
I17
sg105
VJai
p135
sg107
VDDEEF6
p136
sg108
Nsg109
I961301256
sg110
VC0DEED
p137
sbsS'_retweet_count'
p138
I0
sS'_source'
p139
V<a href="http://twitter.com/download/iphone" rel="nofollow">Twitter for iPhone</a>
p140
sS'urls'
p141
(lp142
sg109
I544154617081503744
sbag3
(g4
g5
Ntp143
Rp144
(dp145
g9
I4
sg10
Nsg11
Nsg12
(lp146
g3
(ctwitter
Hashtag
p147
g5
Ntp148
Rp149
(dp150
S'text'
p151
Vpatientlywaiting
p152
sbasg14
I00
sg15
Nsg16
Nsg17
(lp153
sg63
Nsg64
Nsg65
Nsg66
VSun Dec 14 14:43:54 +0000 2014
p154
sg68
Nsg69
Nsg70
Nsg71
Nsg72
Nsg73
Nsg74
I00
sg75
Nsg76
(lp155
sg111
Nsg112
V544140732333031424
p156
sg114
Nsg115
VIf there is one thing Washingtonians know how to do in glorious fashion, it's brunch baby! #patientlywaiting
p157
sg117
I00
sg118
Ven
p158
sg120
g3
(g78
g5
Ntp159
Rp160
(dp161
g10
VDC \u2708\ufe0f TX
p162
sg82
V333333
p163
sg83
Ven
p164
sg84
VEastern Time (US & Canada)
p165
sg85
I554
sg86
I1888
sg66
VTue Nov 20 22:15:05 +0000 2012
p166
sg87
I00
sg88
VAsst.Editor @GirlMeetsFood: Writer @JKnowsGoodFood @DCIndustree: Freelance Photographer: Wanderlust: Live music/concert junkie. Life is an adventure.
p167
sg89
Vhttps://pbs.twimg.com/profile_images/532216169621504000/nL-GFTK1_normal.jpeg
p168
sg90
I835
sg91
I458
sg92
I-18000
sg93
Nsg94
I00
sg95
Vhttps://pbs.twimg.com/profile_banners/961301256/1415725083
p169
sg96
I00
sg97
I01
sg98
V050505
p170
sg99
I00
sg100
I00
sg101
Vhttp://pbs.twimg.com/profile_background_images/519698230615887872/YKZAFSJS.jpeg
p171
sg102
ViAmJanuaryJai
p172
sg104
I17
sg105
VJai
p173
sg107
VDDEEF6
p174
sg108
Nsg109
I961301256
sg110
VC0DEED
p175
sbsg138
I0
sg139
V<a href="http://twitter.com/download/iphone" rel="nofollow">Twitter for iPhone</a>
p176
sg141
(lp177
sg109
I544140732333031424
sbag3
(g4
g5
Ntp178
Rp179
(dp180
g9
I1
sg10
Nsg11
Nsg12
(lp181
sg14
I00
sg15
Nsg16
Nsg17
(lp182
sg63
Nsg64
Nsg65
Nsg66
VThu Dec 11 12:21:42 +0000 2014
p183
sg68
Nsg69
Nsg70
Nsg71
Nsg72
Nsg73
Nsg74
I00
sg75
Nsg76
(lp184
sg111
Nsg112
V543017781021925376
p185
sg114
Nsg115
VBundle up
p186
sg117
I00
sg118
Ven
p187
sg120
g3
(g78
g5
Ntp188
Rp189
(dp190
g10
VDC \u2708\ufe0f TX
p191
sg82
V333333
p192
sg83
Ven
p193
sg84
VEastern Time (US & Canada)
p194
sg85
I554
sg86
I1888
sg66
VTue Nov 20 22:15:05 +0000 2012
p195
sg87
I00
sg88
VAsst.Editor @GirlMeetsFood: Writer @JKnowsGoodFood @DCIndustree: Freelance Photographer: Wanderlust: Live music/concert junkie. Life is an adventure.
p196
sg89
Vhttps://pbs.twimg.com/profile_images/532216169621504000/nL-GFTK1_normal.jpeg
p197
sg90
I835
sg91
I458
sg92
I-18000
sg93
Nsg94
I00
sg95
Vhttps://pbs.twimg.com/profile_banners/961301256/1415725083
p198
sg96
I00
sg97
I01
sg98
V050505
p199
sg99
I00
sg100
I00
sg101
Vhttp://pbs.twimg.com/profile_background_images/519698230615887872/YKZAFSJS.jpeg
p200
sg102
ViAmJanuaryJai
p201
sg104
I17
sg105
VJai
p202
sg107
VDDEEF6
p203
sg108
Nsg109
I961301256
sg110
VC0DEED
p204
sbsg138
I0
sg139
V<a href="http://twitter.com/download/iphone" rel="nofollow">Twitter for iPhone</a>
p205
sg141
(lp206
sg109
I543017781021925376
sbag3
(g4
g5
Ntp207
Rp208
(dp209
g9
I1
sg10
Nsg11
Nsg12
(lp210
sg14
I00
sg15
Nsg16
Nsg17
(lp211
sg63
Nsg64
Nsg65
Nsg66
VThu Dec 11 12:13:47 +0000 2014
p212
sg68
Nsg69
Nsg70
VTriciaWDC
p213
sg71
Nsg72
I219439017
sg73
Nsg74
I00
sg75
Nsg76
(lp214
g3
(g78
g5
Ntp215
Rp216
(dp217
g10
Nsg82
Nsg83
Nsg84
Nsg85
Nsg86
Nsg66
Nsg87
Nsg88
Nsg89
Nsg90
Nsg91
Nsg92
Nsg93
Nsg94
Nsg95
Nsg96
Nsg97
Nsg98
Nsg99
Nsg100
Nsg101
Nsg102
VTriciaWDC
p218
sg104
Nsg105
VTricia Barba
p219
sg107
Nsg108
Nsg109
I219439017
sg110
Nsbag3
(g78
g5
Ntp220
Rp221
(dp222
g10
Nsg82
Nsg83
Nsg84
Nsg85
Nsg86
Nsg66
Nsg87
Nsg88
Nsg89
Nsg90
Nsg91
Nsg92
Nsg93
Nsg94
Nsg95
Nsg96
Nsg97
Nsg98
Nsg99
Nsg100
Nsg101
Nsg102
VSaltandSundry
p223
sg104
Nsg105
VSalt & Sundry
p224
sg107
Nsg108
Nsg109
I496357706
sg110
Nsbag3
(g78
g5
Ntp225
Rp226
(dp227
g10
Nsg82
Nsg83
Nsg84
Nsg85
Nsg86
Nsg66
Nsg87
Nsg88
Nsg89
Nsg90
Nsg91
Nsg92
Nsg93
Nsg94
Nsg95
Nsg96
Nsg97
Nsg98
Nsg99
Nsg100
Nsg101
Nsg102
VGirlMeetsFood
p228
sg104
Nsg105
VGirl Meets Food
p229
sg107
Nsg108
Nsg109
I76685719
sg110
Nsbasg111
Nsg112
V543015787024646145
p230
sg114
I542854035083374592
sg115
V@TriciaWDC @SaltandSundry @GirlMeetsFood Anytime!
p231
sg117
I00
sg118
Ven
p232
sg120
g3
(g78
g5
Ntp233
Rp234
(dp235
g10
VDC \u2708\ufe0f TX
p236
sg82
V333333
p237
sg83
Ven
p238
sg84
VEastern Time (US & Canada)
p239
sg85
I554
sg86
I1888
sg66
VTue Nov 20 22:15:05 +0000 2012
p240
sg87
I00
sg88
VAsst.Editor @GirlMeetsFood: Writer @JKnowsGoodFood @DCIndustree: Freelance Photographer: Wanderlust: Live music/concert junkie. Life is an adventure.
p241
sg89
Vhttps://pbs.twimg.com/profile_images/532216169621504000/nL-GFTK1_normal.jpeg
p242
sg90
I835
sg91
I458
sg92
I-18000
sg93
Nsg94
I00
sg95
Vhttps://pbs.twimg.com/profile_banners/961301256/1415725083
p243
sg96
I00
sg97
I01
sg98
V050505
p244
sg99
I00
sg100
I00
sg101
Vhttp://pbs.twimg.com/profile_background_images/519698230615887872/YKZAFSJS.jpeg
p245
sg102
ViAmJanuaryJai
p246
sg104
I17
sg105
VJai
p247
sg107
VDDEEF6
p248
sg108
Nsg109
I961301256
sg110
VC0DEED
p249
sbsg138
I0
sg139
V<a href="http://twitter.com/download/iphone" rel="nofollow">Twitter for iPhone</a>
p250
sg141
(lp251
sg109
I543015787024646145
sbag3
(g4
g5
Ntp252
Rp253
(dp254
g9
I3
sg10
Nsg11
Nsg12
(lp255
g3
(g147
g5
Ntp256
Rp257
(dp258
g151
VNoKidHungry
p259
sbasg14
I00
sg15
Nsg16
Nsg17
(lp260
(dp261
Vexpanded_url
p262
Vhttp://twitter.com/iAmJanuaryJai/status/542826295470866432/photo/1
p263
sVdisplay_url
p264
Vpic.twitter.com/G1AZPPrreM
p265
sVurl
p266
Vhttp://t.co/G1AZPPrreM
p267
sVmedia_url_https
p268
Vhttps://pbs.twimg.com/media/B4iBjIkIcAAYTo2.jpg
p269
sVid_str
p270
V542826195692580864
p271
sVsizes
p272
(dp273
Vsmall
p274
(dp275
Vh
p276
I453
sVresize
p277
Vfit
p278
sVw
p279
I340
ssVlarge
p280
(dp281
Vh
p282
I1024
sVresize
p283
Vfit
p284
sVw
p285
I768
ssVmedium
p286
(dp287
Vh
p288
I800
sVresize
p289
Vfit
p290
sVw
p291
I600
ssVthumb
p292
(dp293
Vh
p294
I150
sVresize
p295
Vcrop
p296
sVw
p297
I150
sssVindices
p298
(lp299
I117
aI139
asVtype
p300
Vphoto
p301
sVid
p302
I542826195692580864
sVmedia_url
p303
Vhttp://pbs.twimg.com/media/B4iBjIkIcAAYTo2.jpg
p304
sasg63
Nsg64
Nsg65
Nsg66
VWed Dec 10 23:40:48 +0000 2014
p305
sg68
Nsg69
I00
sg70
VSaltandSundry
p306
sg71
Nsg72
I496357706
sg73
Nsg74
I00
sg75
Nsg76
(lp307
g3
(g78
g5
Ntp308
Rp309
(dp310
g10
Nsg82
Nsg83
Nsg84
Nsg85
Nsg86
Nsg66
Nsg87
Nsg88
Nsg89
Nsg90
Nsg91
Nsg92
Nsg93
Nsg94
Nsg95
Nsg96
Nsg97
Nsg98
Nsg99
Nsg100
Nsg101
Nsg102
VSaltandSundry
p311
sg104
Nsg105
VSalt & Sundry
p312
sg107
Nsg108
Nsg109
I496357706
sg110
Nsbag3
(g78
g5
Ntp313
Rp314
(dp315
g10
Nsg82
Nsg83
Nsg84
Nsg85
Nsg86
Nsg66
Nsg87
Nsg88
Nsg89
Nsg90
Nsg91
Nsg92
Nsg93
Nsg94
Nsg95
Nsg96
Nsg97
Nsg98
Nsg99
Nsg100
Nsg101
Nsg102
VTriciaWDC
p316
sg104
Nsg105
VTricia Barba
p317
sg107
Nsg108
Nsg109
I219439017
sg110
Nsbag3
(g78
g5
Ntp318
Rp319
(dp320
g10
Nsg82
Nsg83
Nsg84
Nsg85
Nsg86
Nsg66
Nsg87
Nsg88
Nsg89
Nsg90
Nsg91
Nsg92
Nsg93
Nsg94
Nsg95
Nsg96
Nsg97
Nsg98
Nsg99
Nsg100
Nsg101
Nsg102
VGirlMeetsFood
p321
sg104
Nsg105
VGirl Meets Food
p322
sg107
Nsg108
Nsg109
I76685719
sg110
Nsbasg111
Nsg112
V542826295470866432
p323
sg114
Nsg115
V@SaltandSundry 14th St location not only did I spy @TriciaWDC from @GirlMeetsFood but this gorg blanket #NoKidHungry http://t.co/G1AZPPrreM
p324
sg117
I00
sg118
Ven
p325
sg120
g3
(g78
g5
Ntp326
Rp327
(dp328
g10
VDC \u2708\ufe0f TX
p329
sg82
V333333
p330
sg83
Ven
p331
sg84
VEastern Time (US & Canada)
p332
sg85
I554
sg86
I1888
sg66
VTue Nov 20 22:15:05 +0000 2012
p333
sg87
I00
sg88
VAsst.Editor @GirlMeetsFood: Writer @JKnowsGoodFood @DCIndustree: Freelance Photographer: Wanderlust: Live music/concert junkie. Life is an adventure.
p334
sg89
Vhttps://pbs.twimg.com/profile_images/532216169621504000/nL-GFTK1_normal.jpeg
p335
sg90
I835
sg91
I458
sg92
I-18000
sg93
Nsg94
I00
sg95
Vhttps://pbs.twimg.com/profile_banners/961301256/1415725083
p336
sg96
I00
sg97
I01
sg98
V050505
p337
sg99
I00
sg100
I00
sg101
Vhttp://pbs.twimg.com/profile_background_images/519698230615887872/YKZAFSJS.jpeg
p338
sg102
ViAmJanuaryJai
p339
sg104
I17
sg105
VJai
p340
sg107
VDDEEF6
p341
sg108
Nsg109
I961301256
sg110
VC0DEED
p342
sbsg138
I2
sg139
V<a href="http://twitter.com/download/iphone" rel="nofollow">Twitter for iPhone</a>
p343
sg141
(lp344
sg109
I542826295470866432
sbag3
(g4
g5
Ntp345
Rp346
(dp347
g9
I0
sg10
Nsg11
Nsg12
(lp348
sg14
I00
sg15
Nsg16
Nsg17
(lp349
sg63
Nsg64
Nsg65
Nsg66
VWed Dec 10 20:14:22 +0000 2014
p350
sg68
Nsg69
Nsg70
VJSFashionista
p351
sg71
Nsg72
I64780763
sg73
Nsg74
I00
sg75
Nsg76
(lp352
g3
(g78
g5
Ntp353
Rp354
(dp355
g10
Nsg82
Nsg83
Nsg84
Nsg85
Nsg86
Nsg66
Nsg87
Nsg88
Nsg89
Nsg90
Nsg91
Nsg92
Nsg93
Nsg94
Nsg95
Nsg96
Nsg97
Nsg98
Nsg99
Nsg100
Nsg101
Nsg102
VJSFashionista
p356
sg104
Nsg105
VThe JSF
p357
sg107
Nsg108
Nsg109
I64780763
sg110
Nsbag3
(g78
g5
Ntp358
Rp359
(dp360
g10
Nsg82
Nsg83
Nsg84
Nsg85
Nsg86
Nsg66
Nsg87
Nsg88
Nsg89
Nsg90
Nsg91
Nsg92
Nsg93
Nsg94
Nsg95
Nsg96
Nsg97
Nsg98
Nsg99
Nsg100
Nsg101
Nsg102
VTylerFlorence
p361
sg104
Nsg105
VTyler Florence
p362
sg107
Nsg108
Nsg109
I18128265
sg110
Nsbag3
(g78
g5
Ntp363
Rp364
(dp365
g10
Nsg82
Nsg83
Nsg84
Nsg85
Nsg86
Nsg66
Nsg87
Nsg88
Nsg89
Nsg90
Nsg91
Nsg92
Nsg93
Nsg94
Nsg95
Nsg96
Nsg97
Nsg98
Nsg99
Nsg100
Nsg101
Nsg102
VWilliamsSonoma
p366
sg104
Nsg105
VWilliams-Sonoma
p367
sg107
Nsg108
Nsg109
I29247574
sg110
Nsbasg111
Nsg112
V542774342304935936
p368
sg114
I542773157224927232
sg115
V@JSFashionista @TylerFlorence @WilliamsSonoma Sounds like fun Emily!
p369
sg117
I00
sg118
Ven
p370
sg120
g3
(g78
g5
Ntp371
Rp372
(dp373
g10
VDC \u2708\ufe0f TX
p374
sg82
V333333
p375
sg83
Ven
p376
sg84
VEastern Time (US & Canada)
p377
sg85
I554
sg86
I1888
sg66
VTue Nov 20 22:15:05 +0000 2012
p378
sg87
I00
sg88
VAsst.Editor @GirlMeetsFood: Writer @JKnowsGoodFood @DCIndustree: Freelance Photographer: Wanderlust: Live music/concert junkie. Life is an adventure.
p379
sg89
Vhttps://pbs.twimg.com/profile_images/532216169621504000/nL-GFTK1_normal.jpeg
p380
sg90
I835
sg91
I458
sg92
I-18000
sg93
Nsg94
I00
sg95
Vhttps://pbs.twimg.com/profile_banners/961301256/1415725083
p381
sg96
I00
sg97
I01
sg98
V050505
p382
sg99
I00
sg100
I00
sg101
Vhttp://pbs.twimg.com/profile_background_images/519698230615887872/YKZAFSJS.jpeg
p383
sg102
ViAmJanuaryJai
p384
sg104
I17
sg105
VJai
p385
sg107
VDDEEF6
p386
sg108
Nsg109
I961301256
sg110
VC0DEED
p387
sbsg138
I0
sg139
V<a href="http://twitter.com/download/iphone" rel="nofollow">Twitter for iPhone</a>
p388
sg141
(lp389
sg109
I542774342304935936
sbag3
(g4
g5
Ntp390
Rp391
(dp392
g9
I2
sg10
Nsg11
Nsg12
(lp393
sg14
I00
sg15
Nsg16
Nsg17
(lp394
sg63
Nsg64
Nsg65
Nsg66
VWed Dec 10 18:41:51 +0000 2014
p395
sg68
Nsg69
Nsg70
VDannyG_inkster
p396
sg71
Nsg72
I2623640399
sg73
Nsg74
I00
sg75
Nsg76
(lp397
g3
(g78
g5
Ntp398
Rp399
(dp400
g10
Nsg82
Nsg83
Nsg84
Nsg85
Nsg86
Nsg66
Nsg87
Nsg88
Nsg89
Nsg90
Nsg91
Nsg92
Nsg93
Nsg94
Nsg95
Nsg96
Nsg97
Nsg98
Nsg99
Nsg100
Nsg101
Nsg102
VDannyG_inkster
p401
sg104
Nsg105
VDanny Gibson
p402
sg107
Nsg108
Nsg109
I2623640399
sg110
Nsbag3
(g78
g5
Ntp403
Rp404
(dp405
g10
Nsg82
Nsg83
Nsg84
Nsg85
Nsg86
Nsg66
Nsg87
Nsg88
Nsg89
Nsg90
Nsg91
Nsg92
Nsg93
Nsg94
Nsg95
Nsg96
Nsg97
Nsg98
Nsg99
Nsg100
Nsg101
Nsg102
Vkickstarter
p406
sg104
Nsg105
VKickstarter
p407
sg107
Nsg108
Nsg109
I16186995
sg110
Nsbasg111
Nsg112
V542751061384392704
p408
sg114
Nsg115
V@DannyG_inkster Watching you on @kickstarter currently
p409
sg117
I00
sg118
Ven
p410
sg120
g3
(g78
g5
Ntp411
Rp412
(dp413
g10
VDC \u2708\ufe0f TX
p414
sg82
V333333
p415
sg83
Ven
p416
sg84
VEastern Time (US & Canada)
p417
sg85
I554
sg86
I1888
sg66
VTue Nov 20 22:15:05 +0000 2012
p418
sg87
I00
sg88
VAsst.Editor @GirlMeetsFood: Writer @JKnowsGoodFood @DCIndustree: Freelance Photographer: Wanderlust: Live music/concert junkie. Life is an adventure.
p419
sg89
Vhttps://pbs.twimg.com/profile_images/532216169621504000/nL-GFTK1_normal.jpeg
p420
sg90
I835
sg91
I458
sg92
I-18000
sg93
Nsg94
I00
sg95
Vhttps://pbs.twimg.com/profile_banners/961301256/1415725083
p421
sg96
I00
sg97
I01
sg98
V050505
p422
sg99
I00
sg100
I00
sg101
Vhttp://pbs.twimg.com/profile_background_images/519698230615887872/YKZAFSJS.jpeg
p423
sg102
ViAmJanuaryJai
p424
sg104
I17
sg105
VJai
p425
sg107
VDDEEF6
p426
sg108
Nsg109
I961301256
sg110
VC0DEED
p427
sbsg138
I0
sg139
V<a href="http://twitter.com/download/iphone" rel="nofollow">Twitter for iPhone</a>
p428
sg141
(lp429
sg109
I542751061384392704
sbag3
(g4
g5
Ntp430
Rp431
(dp432
g9
I0
sg10
Nsg11
Nsg12
(lp433
sg14
I00
sg15
Nsg16
Nsg17
(lp434
sg63
Nsg64
Nsg65
Nsg66
VWed Dec 10 18:33:40 +0000 2014
p435
sg68
Nsg69
Nsg70
Nsg71
Nsg72
Nsg73
Nsg74
I00
sg75
Nsg76
(lp436
sg111
Nsg112
V542749003927285760
p437
sg114
Nsg115
VHow it took me two hours to get from Georgetown to Bethesda...I'll never know.
p438
sg117
I00
sg118
Ven
p439
sg120
g3
(g78
g5
Ntp440
Rp441
(dp442
g10
VDC \u2708\ufe0f TX
p443
sg82
V333333
p444
sg83
Ven
p445
sg84
VEastern Time (US & Canada)
p446
sg85
I554
sg86
I1888
sg66
VTue Nov 20 22:15:05 +0000 2012
p447
sg87
I00
sg88
VAsst.Editor @GirlMeetsFood: Writer @JKnowsGoodFood @DCIndustree: Freelance Photographer: Wanderlust: Live music/concert junkie. Life is an adventure.
p448
sg89
Vhttps://pbs.twimg.com/profile_images/532216169621504000/nL-GFTK1_normal.jpeg
p449
sg90
I835
sg91
I458
sg92
I-18000
sg93
Nsg94
I00
sg95
Vhttps://pbs.twimg.com/profile_banners/961301256/1415725083
p450
sg96
I00
sg97
I01
sg98
V050505
p451
sg99
I00
sg100
I00
sg101
Vhttp://pbs.twimg.com/profile_background_images/519698230615887872/YKZAFSJS.jpeg
p452
sg102
ViAmJanuaryJai
p453
sg104
I17
sg105
VJai
p454
sg107
VDDEEF6
p455
sg108
Nsg109
I961301256
sg110
VC0DEED
p456
sbsg138
I0
sg139
V<a href="http://twitter.com/download/iphone" rel="nofollow">Twitter for iPhone</a>
p457
sg141
(lp458
sg109
I542749003927285760
sbag3
(g4
g5
Ntp459
Rp460
(dp461
g9
I1
sg10
Nsg11
Nsg12
(lp462
sg14
I00
sg15
Nsg16
Nsg17
(lp463
sg63
Nsg64
Nsg65
Nsg66
VWed Dec 10 14:08:38 +0000 2014
p464
sg68
Nsg69
Nsg70
VCompassCoffeeDC
p465
sg71
Nsg72
I1532295133
sg73
Nsg74
I00
sg75
Nsg76
(lp466
g3
(g78
g5
Ntp467
Rp468
(dp469
g10
Nsg82
Nsg83
Nsg84
Nsg85
Nsg86
Nsg66
Nsg87
Nsg88
Nsg89
Nsg90
Nsg91
Nsg92
Nsg93
Nsg94
Nsg95
Nsg96
Nsg97
Nsg98
Nsg99
Nsg100
Nsg101
Nsg102
VCompassCoffeeDC
p470
sg104
Nsg105
VCompass Coffee
p471
sg107
Nsg108
Nsg109
I1532295133
sg110
Nsbasg111
Nsg112
V542682303202590720
p472
sg114
Nsg115
V@CompassCoffeeDC this morning and I spy a Nutella Mocha. Say what? I just might start fighting the traffic to get into Shaw early in the am
p473
sg117
I00
sg118
Ven
p474
sg120
g3
(g78
g5
Ntp475
Rp476
(dp477
g10
VDC \u2708\ufe0f TX
p478
sg82
V333333
p479
sg83
Ven
p480
sg84
VEastern Time (US & Canada)
p481
sg85
I554
sg86
I1888
sg66
VTue Nov 20 22:15:05 +0000 2012
p482
sg87
I00
sg88
VAsst.Editor @GirlMeetsFood: Writer @JKnowsGoodFood @DCIndustree: Freelance Photographer: Wanderlust: Live music/concert junkie. Life is an adventure.
p483
sg89
Vhttps://pbs.twimg.com/profile_images/532216169621504000/nL-GFTK1_normal.jpeg
p484
sg90
I835
sg91
I458
sg92
I-18000
sg93
Nsg94
I00
sg95
Vhttps://pbs.twimg.com/profile_banners/961301256/1415725083
p485
sg96
I00
sg97
I01
sg98
V050505
p486
sg99
I00
sg100
I00
sg101
Vhttp://pbs.twimg.com/profile_background_images/519698230615887872/YKZAFSJS.jpeg
p487
sg102
ViAmJanuaryJai
p488
sg104
I17
sg105
VJai
p489
sg107
VDDEEF6
p490
sg108
Nsg109
I961301256
sg110
VC0DEED
p491
sbsg138
I0
sg139
V<a href="http://twitter.com/download/iphone" rel="nofollow">Twitter for iPhone</a>
p492
sg141
(lp493
sg109
I542682303202590720
sbag3
(g4
g5
Ntp494
Rp495
(dp496
g9
I0
sg10
Nsg11
Nsg12
(lp497
g3
(g147
g5
Ntp498
Rp499
(dp500
g151
Vburgeroftheweek
p501
sbasg14
I00
sg15
g3
(g4
g5
Ntp502
Rp503
(dp504
g9
I2
sg10
Nsg11
Nsg12
(lp505
g3
(g147
g5
Ntp506
Rp507
(dp508
g151
Vburgeroftheweek
p509
sbasg14
I00
sg15
Nsg16
Nsg17
(lp510
(dp511
Vexpanded_url
p512
Vhttp://twitter.com/HolyCowDelRay/status/542432002863931393/photo/1
p513
sVdisplay_url
p514
Vpic.twitter.com/XwraDgFjN9
p515
sVurl
p516
Vhttp://t.co/XwraDgFjN9
p517
sVmedia_url_https
p518
Vhttps://pbs.twimg.com/media/B4cbB5mCUAAMiwP.jpg
p519
sVid_str
p520
V542431999575609344
p521
sVsizes
p522
(dp523
Vsmall
p524
(dp525
Vh
p526
I340
sVresize
p527
Vfit
p528
sVw
p529
I340
ssVlarge
p530
(dp531
Vh
p532
I1024
sVresize
p533
Vfit
p534
sVw
p535
I1024
ssVmedium
p536
(dp537
Vh
p538
I600
sVresize
p539
Vfit
p540
sVw
p541
I600
ssVthumb
p542
(dp543
Vh
p544
I150
sVresize
p545
Vcrop
p546
sVw
p547
I150
sssVindices
p548
(lp549
I111
aI133
asVtype
p550
Vphoto
p551
sVid
p552
I542431999575609344
sVmedia_url
p553
Vhttp://pbs.twimg.com/media/B4cbB5mCUAAMiwP.jpg
p554
sasg63
Nsg64
Nsg65
Nsg66
VTue Dec 09 21:34:02 +0000 2014
p555
sg68
Nsg69
I00
sg70
Nsg71
Nsg72
Nsg73
Nsg74
I00
sg75
Nsg76
(lp556
sg111
Nsg112
V542432002863931393
p557
sg114
Nsg115
VThe Joey Monroe: Smoked Mozzarella, Bourbon-Bacon Jam, Fried Egg, Crispy Onions, Garlic Aioli #burgeroftheweek http://t.co/XwraDgFjN9
p558
sg117
I00
sg118
Ven
p559
sg120
g3
(g78
g5
Ntp560
Rp561
(dp562
g10
VAlexandria VA - Del Ray Hood
p563
sg82
V333333
p564
sg83
Ven
p565
sg84
Nsg85
I984
sg86
I453
sg66
VWed Dec 12 22:16:32 +0000 2012
p566
sg87
I00
sg88
VGourmet Burgers in Alexandria, VA - Del Ray neighborhood. Featuring all natural burgers, handcut fries & shakes. $.25 from every burger goes to local Charities
p567
sg89
Vhttps://pbs.twimg.com/profile_images/2967663444/de103e472217fd8877115de53ed035ed_normal.png
p568
sg90
I801
sg91
I75
sg92
Nsg93
Nsg94
I00
sg95
Nsg96
I00
sg97
I00
sg98
V0084B4
p569
sg99
I00
sg100
I00
sg101
Vhttp://abs.twimg.com/images/themes/theme1/bg.png
p570
sg102
VHolyCowDelRay
p571
sg104
I29
sg105
VHoly Cow
p572
sg107
VDDEEF6
p573
sg108
Vhttp://t.co/3lqu3oQZ
p574
sg109
I1007431454
sg110
VC0DEED
p575
sbsg138
I4
sg139
V<a href="http://twitter.com/download/iphone" rel="nofollow">Twitter for iPhone</a>
p576
sg141
(lp577
sg109
I542432002863931393
sbsg16
Nsg17
(lp578
(dp579
Vsource_user_id
p580
I1007431454
sVsource_status_id_str
p581
V542432002863931393
p582
sVexpanded_url
p583
Vhttp://twitter.com/HolyCowDelRay/status/542432002863931393/photo/1
p584
sVdisplay_url
p585
Vpic.twitter.com/XwraDgFjN9
p586
sVurl
p587
Vhttp://t.co/XwraDgFjN9
p588
sVmedia_url_https
p589
Vhttps://pbs.twimg.com/media/B4cbB5mCUAAMiwP.jpg
p590
sVsource_user_id_str
p591
V1007431454
p592
sVsource_status_id
p593
I542432002863931393
sVid_str
p594
V542431999575609344
p595
sVsizes
p596
(dp597
Vsmall
p598
(dp599
Vh
p600
I340
sVresize
p601
Vfit
p602
sVw
p603
I340
ssVlarge
p604
(dp605
Vh
p606
I1024
sVresize
p607
Vfit
p608
sVw
p609
I1024
ssVmedium
p610
(dp611
Vh
p612
I600
sVresize
p613
Vfit
p614
sVw
p615
I600
ssVthumb
p616
(dp617
Vh
p618
I150
sVresize
p619
Vcrop
p620
sVw
p621
I150
sssVindices
p622
(lp623
I139
aI140
asVtype
p624
Vphoto
p625
sVid
p626
I542431999575609344
sVmedia_url
p627
Vhttp://pbs.twimg.com/media/B4cbB5mCUAAMiwP.jpg
p628
sasg63
Nsg64
Nsg65
Nsg66
VTue Dec 09 22:46:37 +0000 2014
p629
sg68
Nsg69
I00
sg70
Nsg71
Nsg72
Nsg73
Nsg74
I00
sg75
Nsg76
(lp630
g3
(g78
g5
Ntp631
Rp632
(dp633
g10
Nsg82
Nsg83
Nsg84
Nsg85
Nsg86
Nsg66
Nsg87
Nsg88
Nsg89
Nsg90
Nsg91
Nsg92
Nsg93
Nsg94
Nsg95
Nsg96
Nsg97
Nsg98
Nsg99
Nsg100
Nsg101
Nsg102
VHolyCowDelRay
p634
sg104
Nsg105
VHoly Cow
p635
sg107
Nsg108
Nsg109
I1007431454
sg110
Nsbasg111
Nsg112
V542450270035128320
p636
sg114
Nsg115
VRT @HolyCowDelRay: The Joey Monroe: Smoked Mozzarella, Bourbon-Bacon Jam, Fried Egg, Crispy Onions, Garlic Aioli #burgeroftheweek http://t.\u2026
p637
sg117
I00
sg118
Ven
p638
sg120
g3
(g78
g5
Ntp639
Rp640
(dp641
g10
VDC \u2708\ufe0f TX
p642
sg82
V333333
p643
sg83
Ven
p644
sg84
VEastern Time (US & Canada)
p645
sg85
I554
sg86
I1888
sg66
VTue Nov 20 22:15:05 +0000 2012
p646
sg87
I00
sg88
VAsst.Editor @GirlMeetsFood: Writer @JKnowsGoodFood @DCIndustree: Freelance Photographer: Wanderlust: Live music/concert junkie. Life is an adventure.
p647
sg89
Vhttps://pbs.twimg.com/profile_images/532216169621504000/nL-GFTK1_normal.jpeg
p648
sg90
I835
sg91
I458
sg92
I-18000
sg93
Nsg94
I00
sg95
Vhttps://pbs.twimg.com/profile_banners/961301256/1415725083
p649
sg96
I00
sg97
I01
sg98
V050505
p650
sg99
I00
sg100
I00
sg101
Vhttp://pbs.twimg.com/profile_background_images/519698230615887872/YKZAFSJS.jpeg
p651
sg102
ViAmJanuaryJai
p652
sg104
I17
sg105
VJai
p653
sg107
VDDEEF6
p654
sg108
Nsg109
I961301256
sg110
VC0DEED
p655
sbsg138
I4
sg139
V<a href="http://twitter.com/download/iphone" rel="nofollow">Twitter for iPhone</a>
p656
sg141
(lp657
sg109
I542450270035128320
sbag3
(g4
g5
Ntp658
Rp659
(dp660
g9
I0
sg10
Nsg11
Nsg12
(lp661
g3
(g147
g5
Ntp662
Rp663
(dp664
g151
Vneighborhoodlove
p665
sbasg14
I00
sg15
Nsg16
Nsg17
(lp666
sg63
Nsg64
Nsg65
Nsg66
VTue Dec 09 22:46:33 +0000 2014
p667
sg68
Nsg69
Nsg70
VHolyCowDelRay
p668
sg71
Nsg72
I1007431454
sg73
Nsg74
I00
sg75
Nsg76
(lp669
g3
(g78
g5
Ntp670
Rp671
(dp672
g10
Nsg82
Nsg83
Nsg84
Nsg85
Nsg86
Nsg66
Nsg87
Nsg88
Nsg89
Nsg90
Nsg91
Nsg92
Nsg93
Nsg94
Nsg95
Nsg96
Nsg97
Nsg98
Nsg99
Nsg100
Nsg101
Nsg102
VHolyCowDelRay
p673
sg104
Nsg105
VHoly Cow
p674
sg107
Nsg108
Nsg109
I1007431454
sg110
Nsbasg111
Nsg112
V542450254100979713
p675
sg114
I542432002863931393
sg115
V@HolyCowDelRay And this is why I love Del Ray #neighborhoodlove
p676
sg117
I00
sg118
Ven
p677
sg120
g3
(g78
g5
Ntp678
Rp679
(dp680
g10
VDC \u2708\ufe0f TX
p681
sg82
V333333
p682
sg83
Ven
p683
sg84
VEastern Time (US & Canada)
p684
sg85
I554
sg86
I1888
sg66
VTue Nov 20 22:15:05 +0000 2012
p685
sg87
I00
sg88
VAsst.Editor @GirlMeetsFood: Writer @JKnowsGoodFood @DCIndustree: Freelance Photographer: Wanderlust: Live music/concert junkie. Life is an adventure.
p686
sg89
Vhttps://pbs.twimg.com/profile_images/532216169621504000/nL-GFTK1_normal.jpeg
p687
sg90
I835
sg91
I458
sg92
I-18000
sg93
Nsg94
I00
sg95
Vhttps://pbs.twimg.com/profile_banners/961301256/1415725083
p688
sg96
I00
sg97
I01
sg98
V050505
p689
sg99
I00
sg100
I00
sg101
Vhttp://pbs.twimg.com/profile_background_images/519698230615887872/YKZAFSJS.jpeg
p690
sg102
ViAmJanuaryJai
p691
sg104
I17
sg105
VJai
p692
sg107
VDDEEF6
p693
sg108
Nsg109
I961301256
sg110
VC0DEED
p694
sbsg138
I1
sg139
V<a href="http://twitter.com/download/iphone" rel="nofollow">Twitter for iPhone</a>
p695
sg141
(lp696
sg109
I542450254100979713
sbag3
(g4
g5
Ntp697
Rp698
(dp699
g9
I0
sg10
Nsg11
Nsg12
(lp700
sg14
I00
sg15
g3
(g4
g5
Ntp701
Rp702
(dp703
g9
I13
sg10
Nsg11
Nsg12
(lp704
sg14
I00
sg15
Nsg16
Nsg17
(lp705
sg63
Nsg64
Nsg65
Nsg66
VTue Dec 09 21:55:22 +0000 2014
p706
sg68
Nsg69
I00
sg70
Nsg71
Nsg72
Nsg73
Nsg74
I00
sg75
Nsg76
(lp707
g3
(g78
g5
Ntp708
Rp709
(dp710
g10
Nsg82
Nsg83
Nsg84
Nsg85
Nsg86
Nsg66
Nsg87
Nsg88
Nsg89
Nsg90
Nsg91
Nsg92
Nsg93
Nsg94
Nsg95
Nsg96
Nsg97
Nsg98
Nsg99
Nsg100
Nsg101
Nsg102
VSikkemaJenkins
p711
sg104
Nsg105
VSikkema Jenkins & Co
p712
sg107
Nsg108
Nsg109
I859787156
sg110
Nsbag3
(g78
g5
Ntp713
Rp714
(dp715
g10
Nsg82
Nsg83
Nsg84
Nsg85
Nsg86
Nsg66
Nsg87
Nsg88
Nsg89
Nsg90
Nsg91
Nsg92
Nsg93
Nsg94
Nsg95
Nsg96
Nsg97
Nsg98
Nsg99
Nsg100
Nsg101
Nsg102
VcreativetimeNYC
p716
sg104
Nsg105
VCreative Time
p717
sg107
Nsg108
Nsg109
I151099524
sg110
Nsbasg111
Nsg112
V542437374131568640
p718
sg114
Nsg115
VDon't miss 'Kara Walker: Afterword' at @SikkemaJenkins - documenting the aftermath of 'A Subtlety' @creativetimeNYC http://t.co/5IMX5ZDUtJ
p719
sg117
I00
sg118
Ven
p720
sg120
g3
(g78
g5
Ntp721
Rp722
(dp723
g10
VBrooklyn, NY
p724
sg82
V333333
p725
sg83
Ven
p726
sg84
Nsg85
I622
sg86
I288
sg66
VThu Mar 06 19:02:33 +0000 2014
p727
sg87
I00
sg88
VThe Elizabeth A. Sackler Center for Feminist Art @brooklynmuseum is dedicated to feminist art\u2014its past, present, and future.
p728
sg89
Vhttps://pbs.twimg.com/profile_images/517054060071895040/bh1scMLs_normal.jpeg
p729
sg90
I631
sg91
I83
sg92
Nsg93
Nsg94
I00
sg95
Vhttps://pbs.twimg.com/profile_banners/2375781866/1412110531
p730
sg96
I00
sg97
I01
sg98
V0084B4
p731
sg99
I00
sg100
I00
sg101
Vhttp://pbs.twimg.com/profile_background_images/448495137287467008/E3DlfYdn.png
p732
sg102
Vfeministart
p733
sg104
I18
sg105
VSackler Center 
p734
sg107
VDDEEF6
p735
sg108
Vhttp://t.co/oiZMC6w6s7
p736
sg109
I2375781866
sg110
VC0DEED
p737
sbsg138
I10
sg139
V<a href="http://twitter.com" rel="nofollow">Twitter Web Client</a>
p738
sg141
(lp739
g3
(ctwitter
Url
p740
g5
Ntp741
Rp742
(dp743
S'url'
p744
Vhttp://t.co/5IMX5ZDUtJ
p745
sS'expanded_url'
p746
Vhttp://bit.ly/1Ggh3jL
p747
sbasg109
I542437374131568640
sbsg16
Nsg17
(lp748
sg63
Nsg64
Nsg65
Nsg66
VTue Dec 09 22:40:52 +0000 2014
p749
sg68
Nsg69
I00
sg70
Nsg71
Nsg72
Nsg73
Nsg74
I00
sg75
Nsg76
(lp750
g3
(g78
g5
Ntp751
Rp752
(dp753
g10
Nsg82
Nsg83
Nsg84
Nsg85
Nsg86
Nsg66
Nsg87
Nsg88
Nsg89
Nsg90
Nsg91
Nsg92
Nsg93
Nsg94
Nsg95
Nsg96
Nsg97
Nsg98
Nsg99
Nsg100
Nsg101
Nsg102
Vfeministart
p754
sg104
Nsg105
VSackler Center 
p755
sg107
Nsg108
Nsg109
I2375781866
sg110
Nsbag3
(g78
g5
Ntp756
Rp757
(dp758
g10
Nsg82
Nsg83
Nsg84
Nsg85
Nsg86
Nsg66
Nsg87
Nsg88
Nsg89
Nsg90
Nsg91
Nsg92
Nsg93
Nsg94
Nsg95
Nsg96
Nsg97
Nsg98
Nsg99
Nsg100
Nsg101
Nsg102
VSikkemaJenkins
p759
sg104
Nsg105
VSikkema Jenkins & Co
p760
sg107
Nsg108
Nsg109
I859787156
sg110
Nsbag3
(g78
g5
Ntp761
Rp762
(dp763
g10
Nsg82
Nsg83
Nsg84
Nsg85
Nsg86
Nsg66
Nsg87
Nsg88
Nsg89
Nsg90
Nsg91
Nsg92
Nsg93
Nsg94
Nsg95
Nsg96
Nsg97
Nsg98
Nsg99
Nsg100
Nsg101
Nsg102
VcreativetimeNYC
p764
sg104
Nsg105
VCreative Time
p765
sg107
Nsg108
Nsg109
I151099524
sg110
Nsbasg111
Nsg112
V542448825659441152
p766
sg114
Nsg115
VRT @feministart: Don't miss 'Kara Walker: Afterword' at @SikkemaJenkins - documenting the aftermath of 'A Subtlety' @creativetimeNYC http:/\u2026
p767
sg117
I00
sg118
Ven
p768
sg120
g3
(g78
g5
Ntp769
Rp770
(dp771
g10
VDC \u2708\ufe0f TX
p772
sg82
V333333
p773
sg83
Ven
p774
sg84
VEastern Time (US & Canada)
p775
sg85
I554
sg86
I1888
sg66
VTue Nov 20 22:15:05 +0000 2012
p776
sg87
I00
sg88
VAsst.Editor @GirlMeetsFood: Writer @JKnowsGoodFood @DCIndustree: Freelance Photographer: Wanderlust: Live music/concert junkie. Life is an adventure.
p777
sg89
Vhttps://pbs.twimg.com/profile_images/532216169621504000/nL-GFTK1_normal.jpeg
p778
sg90
I835
sg91
I458
sg92
I-18000
sg93
Nsg94
I00
sg95
Vhttps://pbs.twimg.com/profile_banners/961301256/1415725083
p779
sg96
I00
sg97
I01
sg98
V050505
p780
sg99
I00
sg100
I00
sg101
Vhttp://pbs.twimg.com/profile_background_images/519698230615887872/YKZAFSJS.jpeg
p781
sg102
ViAmJanuaryJai
p782
sg104
I17
sg105
VJai
p783
sg107
VDDEEF6
p784
sg108
Nsg109
I961301256
sg110
VC0DEED
p785
sbsg138
I10
sg139
V<a href="http://twitter.com/download/iphone" rel="nofollow">Twitter for iPhone</a>
p786
sg141
(lp787
g3
(g740
g5
Ntp788
Rp789
(dp790
g744
Vhttp://t.co/5IMX5ZDUtJ
p791
sg746
Vhttp://bit.ly/1Ggh3jL
p792
sbasg109
I542448825659441152
sbag3
(g4
g5
Ntp793
Rp794
(dp795
g9
I0
sg10
Nsg11
Nsg12
(lp796
g3
(g147
g5
Ntp797
Rp798
(dp799
g151
VHappyHour
p800
sbag3
(g147
g5
Ntp801
Rp802
(dp803
g151
VKojo
p804
sbasg14
I00
sg15
g3
(g4
g5
Ntp805
Rp806
(dp807
g9
I0
sg10
Nsg11
Nsg12
(lp808
g3
(g147
g5
Ntp809
Rp810
(dp811
g151
VHappyHour
p812
sbag3
(g147
g5
Ntp813
Rp814
(dp815
g151
VKojo
p816
sbasg14
I00
sg15
Nsg16
Nsg17
(lp817
sg63
Nsg64
Nsg65
Nsg66
VTue Dec 09 21:17:13 +0000 2014
p818
sg68
Nsg69
I00
sg70
Nsg71
Nsg72
Nsg73
Nsg74
I00
sg75
Nsg76
(lp819
g3
(g78
g5
Ntp820
Rp821
(dp822
g10
Nsg82
Nsg83
Nsg84
Nsg85
Nsg86
Nsg66
Nsg87
Nsg88
Nsg89
Nsg90
Nsg91
Nsg92
Nsg93
Nsg94
Nsg95
Nsg96
Nsg97
Nsg98
Nsg99
Nsg100
Nsg101
Nsg102
Vkojoshow
p823
sg104
Nsg105
VThe Kojo Nnamdi Show
p824
sg107
Nsg108
Nsg109
I14848798
sg110
Nsbasg111
Nsg112
V542427771272572930
p825
sg114
Nsg115
VCLiNK (#HappyHour Finder) named an "App of the Month" on @kojoshow (#Kojo) Show! Awesome!!!! http://t.co/9JiiYZtQn2 http://t.co/RiKOIuhjCO
p826
sg117
I00
sg118
Ven
p827
sg120
g3
(g78
g5
Ntp828
Rp829
(dp830
g10
VWashington DC | \u2193\u2193Download \u2193\u2193
p831
sg82
V333333
p832
sg83
Ven
p833
sg84
VEastern Time (US & Canada)
p834
sg85
I1058
sg86
I6291
sg66
VThu Feb 21 21:06:56 +0000 2013
p835
sg87
I00
sg88
VMobile app for #happyhour #Dupont  #Arlington #Bethesda; #HStreet soon!  Follow @CLiNK_MoCo too!
p836
sg89
Vhttps://pbs.twimg.com/profile_images/472431298087120896/oIINEC2C_normal.png
p837
sg90
I1631
sg91
I219
sg92
I-18000
sg93
Nsg94
I00
sg95
Vhttps://pbs.twimg.com/profile_banners/1206000360/1394202911
p838
sg96
I00
sg97
I00
sg98
V0084B4
p839
sg99
I01
sg100
I00
sg101
Vhttp://abs.twimg.com/images/themes/theme15/bg.png
p840
sg102
VCLiNK_DC
p841
sg104
I10
sg105
VCLiNK
p842
sg107
VC0DFEC
p843
sg108
Vhttp://t.co/0owWzgwujb
p844
sg109
I1206000360
sg110
V022330
p845
sbsg138
I1
sg139
V<a href="http://ifttt.com" rel="nofollow">IFTTT</a>
p846
sg141
(lp847
g3
(g740
g5
Ntp848
Rp849
(dp850
g744
Vhttp://t.co/9JiiYZtQn2
p851
sg746
Vhttp://www.CLiNKDC.com
p852
sbag3
(g740
g5
Ntp853
Rp854
(dp855
g744
Vhttp://t.co/RiKOIuhjCO
p856
sg746
Vhttp://goo.gl/75GOMa
p857
sbasg109
I542427771272572930
sbsg16
Nsg17
(lp858
sg63
Nsg64
Nsg65
Nsg66
VTue Dec 09 21:23:41 +0000 2014
p859
sg68
Nsg69
I00
sg70
Nsg71
Nsg72
Nsg73
Nsg74
I00
sg75
Nsg76
(lp860
g3
(g78
g5
Ntp861
Rp862
(dp863
g10
Nsg82
Nsg83
Nsg84
Nsg85
Nsg86
Nsg66
Nsg87
Nsg88
Nsg89
Nsg90
Nsg91
Nsg92
Nsg93
Nsg94
Nsg95
Nsg96
Nsg97
Nsg98
Nsg99
Nsg100
Nsg101
Nsg102
VCLiNK_DC
p864
sg104
Nsg105
VCLiNK
p865
sg107
Nsg108
Nsg109
I1206000360
sg110
Nsbag3
(g78
g5
Ntp866
Rp867
(dp868
g10
Nsg82
Nsg83
Nsg84
Nsg85
Nsg86
Nsg66
Nsg87
Nsg88
Nsg89
Nsg90
Nsg91
Nsg92
Nsg93
Nsg94
Nsg95
Nsg96
Nsg97
Nsg98
Nsg99
Nsg100
Nsg101
Nsg102
Vkojoshow
p869
sg104
Nsg105
VThe Kojo Nnamdi Show
p870
sg107
Nsg108
Nsg109
I14848798
sg110
Nsbasg111
Nsg112
V542429399757225984
p871
sg114
Nsg115
VRT @CLiNK_DC: CLiNK (#HappyHour Finder) named an "App of the Month" on @kojoshow (#Kojo) Show! Awesome!!!! http://t.co/9JiiYZtQn2 http://t.\u2026
p872
sg117
I00
sg118
Ven
p873
sg120
g3
(g78
g5
Ntp874
Rp875
(dp876
g10
VDC \u2708\ufe0f TX
p877
sg82
V333333
p878
sg83
Ven
p879
sg84
VEastern Time (US & Canada)
p880
sg85
I554
sg86
I1888
sg66
VTue Nov 20 22:15:05 +0000 2012
p881
sg87
I00
sg88
VAsst.Editor @GirlMeetsFood: Writer @JKnowsGoodFood @DCIndustree: Freelance Photographer: Wanderlust: Live music/concert junkie. Life is an adventure.
p882
sg89
Vhttps://pbs.twimg.com/profile_images/532216169621504000/nL-GFTK1_normal.jpeg
p883
sg90
I835
sg91
I458
sg92
I-18000
sg93
Nsg94
I00
sg95
Vhttps://pbs.twimg.com/profile_banners/961301256/1415725083
p884
sg96
I00
sg97
I01
sg98
V050505
p885
sg99
I00
sg100
I00
sg101
Vhttp://pbs.twimg.com/profile_background_images/519698230615887872/YKZAFSJS.jpeg
p886
sg102
ViAmJanuaryJai
p887
sg104
I17
sg105
VJai
p888
sg107
VDDEEF6
p889
sg108
Nsg109
I961301256
sg110
VC0DEED
p890
sbsg138
I1
sg139
V<a href="http://twitter.com/download/iphone" rel="nofollow">Twitter for iPhone</a>
p891
sg141
(lp892
g3
(g740
g5
Ntp893
Rp894
(dp895
g744
Vhttp://t.co/9JiiYZtQn2
p896
sg746
Vhttp://www.CLiNKDC.com
p897
sbag3
(g740
g5
Ntp898
Rp899
(dp900
g744
Vhttp://t.co/RiKOIuhjCO
p901
sg746
Vhttp://goo.gl/75GOMa
p902
sbasg109
I542429399757225984
sbag3
(g4
g5
Ntp903
Rp904
(dp905
g9
I1
sg10
Nsg11
Nsg12
(lp906
sg14
I00
sg15
Nsg16
Nsg17
(lp907
sg63
Nsg64
Nsg65
Nsg66
VTue Dec 09 21:23:35 +0000 2014
p908
sg68
Nsg69
Nsg70
VCLiNK_DC
p909
sg71
Nsg72
I1206000360
sg73
Nsg74
I00
sg75
Nsg76
(lp910
g3
(g78
g5
Ntp911
Rp912
(dp913
g10
Nsg82
Nsg83
Nsg84
Nsg85
Nsg86
Nsg66
Nsg87
Nsg88
Nsg89
Nsg90
Nsg91
Nsg92
Nsg93
Nsg94
Nsg95
Nsg96
Nsg97
Nsg98
Nsg99
Nsg100
Nsg101
Nsg102
VCLiNK_DC
p914
sg104
Nsg105
VCLiNK
p915
sg107
Nsg108
Nsg109
I1206000360
sg110
Nsbag3
(g78
g5
Ntp916
Rp917
(dp918
g10
Nsg82
Nsg83
Nsg84
Nsg85
Nsg86
Nsg66
Nsg87
Nsg88
Nsg89
Nsg90
Nsg91
Nsg92
Nsg93
Nsg94
Nsg95
Nsg96
Nsg97
Nsg98
Nsg99
Nsg100
Nsg101
Nsg102
Vkojoshow
p919
sg104
Nsg105
VThe Kojo Nnamdi Show
p920
sg107
Nsg108
Nsg109
I14848798
sg110
Nsbasg111
Nsg112
V542429375606423552
p921
sg114
I542427771272572930
sg115
V@CLiNK_DC @kojoshow Congrats!!
p922
sg117
I00
sg118
Ven
p923
sg120
g3
(g78
g5
Ntp924
Rp925
(dp926
g10
VDC \u2708\ufe0f TX
p927
sg82
V333333
p928
sg83
Ven
p929
sg84
VEastern Time (US & Canada)
p930
sg85
I554
sg86
I1888
sg66
VTue Nov 20 22:15:05 +0000 2012
p931
sg87
I00
sg88
VAsst.Editor @GirlMeetsFood: Writer @JKnowsGoodFood @DCIndustree: Freelance Photographer: Wanderlust: Live music/concert junkie. Life is an adventure.
p932
sg89
Vhttps://pbs.twimg.com/profile_images/532216169621504000/nL-GFTK1_normal.jpeg
p933
sg90
I835
sg91
I458
sg92
I-18000
sg93
Nsg94
I00
sg95
Vhttps://pbs.twimg.com/profile_banners/961301256/1415725083
p934
sg96
I00
sg97
I01
sg98
V050505
p935
sg99
I00
sg100
I00
sg101
Vhttp://pbs.twimg.com/profile_background_images/519698230615887872/YKZAFSJS.jpeg
p936
sg102
ViAmJanuaryJai
p937
sg104
I17
sg105
VJai
p938
sg107
VDDEEF6
p939
sg108
Nsg109
I961301256
sg110
VC0DEED
p940
sbsg138
I0
sg139
V<a href="http://twitter.com/download/iphone" rel="nofollow">Twitter for iPhone</a>
p941
sg141
(lp942
sg109
I542429375606423552
sbag3
(g4
g5
Ntp943
Rp944
(dp945
g9
I2
sg10
Nsg11
Nsg12
(lp946
g3
(g147
g5
Ntp947
Rp948
(dp949
g151
Vstaywarm
p950
sbasg14
I00
sg15
Nsg16
Nsg17
(lp951
(dp952
Vexpanded_url
p953
Vhttp://twitter.com/iAmJanuaryJai/status/542429151890665473/photo/1
p954
sVdisplay_url
p955
Vpic.twitter.com/7hrN16kpac
p956
sVurl
p957
Vhttp://t.co/7hrN16kpac
p958
sVmedia_url_https
p959
Vhttps://pbs.twimg.com/media/B4cYbMUCEAEj91_.jpg
p960
sVid_str
p961
V542429135562215425
p962
sVsizes
p963
(dp964
Vsmall
p965
(dp966
Vh
p967
I510
sVresize
p968
Vfit
p969
sVw
p970
I340
ssVlarge
p971
(dp972
Vh
p973
I601
sVresize
p974
Vfit
p975
sVw
p976
I400
ssVmedium
p977
(dp978
Vh
p979
I601
sVresize
p980
Vfit
p981
sVw
p982
I400
ssVthumb
p983
(dp984
Vh
p985
I150
sVresize
p986
Vcrop
p987
sVw
p988
I150
sssVindices
p989
(lp990
I121
aI143
asVtype
p991
Vphoto
p992
sVid
p993
I542429135562215425
sVmedia_url
p994
Vhttp://pbs.twimg.com/media/B4cYbMUCEAEj91_.jpg
p995
sasg63
Nsg64
Nsg65
Nsg66
VTue Dec 09 21:22:42 +0000 2014
p996
sg68
Nsg69
I00
sg70
Nsg71
Nsg72
Nsg73
Nsg74
I00
sg75
Nsg76
(lp997
g3
(g78
g5
Ntp998
Rp999
(dp1000
g10
Nsg82
Nsg83
Nsg84
Nsg85
Nsg86
Nsg66
Nsg87
Nsg88
Nsg89
Nsg90
Nsg91
Nsg92
Nsg93
Nsg94
Nsg95
Nsg96
Nsg97
Nsg98
Nsg99
Nsg100
Nsg101
Nsg102
VChefAtEve
p1001
sg104
Nsg105
VCathal Armstrong
p1002
sg107
Nsg108
Nsg109
I966155288
sg110
Nsbag3
(g78
g5
Ntp1003
Rp1004
(dp1005
g10
Nsg82
Nsg83
Nsg84
Nsg85
Nsg86
Nsg66
Nsg87
Nsg88
Nsg89
Nsg90
Nsg91
Nsg92
Nsg93
Nsg94
Nsg95
Nsg96
Nsg97
Nsg98
Nsg99
Nsg100
Nsg101
Nsg102
VRestaurant_Eve
p1006
sg104
Nsg105
VNourish the Palate\u2122
p1007
sg107
Nsg108
Nsg109
I108386929
sg110
Nsbasg111
Nsg112
V542429151890665473
p1008
sg114
Nsg115
VCold, rainy &amp; dreary...yuck! Try this Irish Coffee by @ChefAtEve of @Restaurant_Eve http://t.co/mINRUKEdzM #staywarm http://t.co/7hrN16kpac
p1009
sg117
I00
sg118
Ven
p1010
sg120
g3
(g78
g5
Ntp1011
Rp1012
(dp1013
g10
VDC \u2708\ufe0f TX
p1014
sg82
V333333
p1015
sg83
Ven
p1016
sg84
VEastern Time (US & Canada)
p1017
sg85
I554
sg86
I1888
sg66
VTue Nov 20 22:15:05 +0000 2012
p1018
sg87
I00
sg88
VAsst.Editor @GirlMeetsFood: Writer @JKnowsGoodFood @DCIndustree: Freelance Photographer: Wanderlust: Live music/concert junkie. Life is an adventure.
p1019
sg89
Vhttps://pbs.twimg.com/profile_images/532216169621504000/nL-GFTK1_normal.jpeg
p1020
sg90
I835
sg91
I458
sg92
I-18000
sg93
Nsg94
I00
sg95
Vhttps://pbs.twimg.com/profile_banners/961301256/1415725083
p1021
sg96
I00
sg97
I01
sg98
V050505
p1022
sg99
I00
sg100
I00
sg101
Vhttp://pbs.twimg.com/profile_background_images/519698230615887872/YKZAFSJS.jpeg
p1023
sg102
ViAmJanuaryJai
p1024
sg104
I17
sg105
VJai
p1025
sg107
VDDEEF6
p1026
sg108
Nsg109
I961301256
sg110
VC0DEED
p1027
sbsg138
I2
sg139
V<a href="http://twitter.com/download/iphone" rel="nofollow">Twitter for iPhone</a>
p1028
sg141
(lp1029
g3
(g740
g5
Ntp1030
Rp1031
(dp1032
g744
Vhttp://t.co/mINRUKEdzM
p1033
sg746
Vhttp://ow.ly/3v49gk
p1034
sbasg109
I542429151890665473
sbag3
(g4
g5
Ntp1035
Rp1036
(dp1037
g9
I0
sg10
Nsg11
Nsg12
(lp1038
sg14
I00
sg15
Nsg16
Nsg17
(lp1039
sg63
Nsg64
Nsg65
Nsg66
VTue Dec 09 19:55:58 +0000 2014
p1040
sg68
Nsg69
Nsg70
Nsg71
Nsg72
Nsg73
Nsg74
I00
sg75
Nsg76
(lp1041
g3
(g78
g5
Ntp1042
Rp1043
(dp1044
g10
Nsg82
Nsg83
Nsg84
Nsg85
Nsg86
Nsg66
Nsg87
Nsg88
Nsg89
Nsg90
Nsg91
Nsg92
Nsg93
Nsg94
Nsg95
Nsg96
Nsg97
Nsg98
Nsg99
Nsg100
Nsg101
Nsg102
Vrealmartymar
p1045
sg104
Nsg105
VMartin Lawrence
p1046
sg107
Nsg108
Nsg109
I317522823
sg110
Nsbasg111
Nsg112
V542407323709214720
p1047
sg114
Nsg115
VYou know it's going to be a good day when you can quote lines from the @realmartymar during a business meeting.
p1048
sg117
I00
sg118
Ven
p1049
sg120
g3
(g78
g5
Ntp1050
Rp1051
(dp1052
g10
VDC \u2708\ufe0f TX
p1053
sg82
V333333
p1054
sg83
Ven
p1055
sg84
VEastern Time (US & Canada)
p1056
sg85
I554
sg86
I1888
sg66
VTue Nov 20 22:15:05 +0000 2012
p1057
sg87
I00
sg88
VAsst.Editor @GirlMeetsFood: Writer @JKnowsGoodFood @DCIndustree: Freelance Photographer: Wanderlust: Live music/concert junkie. Life is an adventure.
p1058
sg89
Vhttps://pbs.twimg.com/profile_images/532216169621504000/nL-GFTK1_normal.jpeg
p1059
sg90
I835
sg91
I458
sg92
I-18000
sg93
Nsg94
I00
sg95
Vhttps://pbs.twimg.com/profile_banners/961301256/1415725083
p1060
sg96
I00
sg97
I01
sg98
V050505
p1061
sg99
I00
sg100
I00
sg101
Vhttp://pbs.twimg.com/profile_background_images/519698230615887872/YKZAFSJS.jpeg
p1062
sg102
ViAmJanuaryJai
p1063
sg104
I17
sg105
VJai
p1064
sg107
VDDEEF6
p1065
sg108
Nsg109
I961301256
sg110
VC0DEED
p1066
sbsg138
I0
sg139
V<a href="http://twitter.com/download/iphone" rel="nofollow">Twitter for iPhone</a>
p1067
sg141
(lp1068
sg109
I542407323709214720
sbag3
(g4
g5
Ntp1069
Rp1070
(dp1071
g9
I1
sg10
Nsg11
Nsg12
(lp1072
sg14
I00
sg15
Nsg16
Nsg17
(lp1073
sg63
Nsg64
Nsg65
Nsg66
VTue Dec 09 15:51:23 +0000 2014
p1074
sg68
Nsg69
Nsg70
Vbsfreeasme
p1075
sg71
Nsg72
I2839219335
sg73
Nsg74
I00
sg75
Nsg76
(lp1076
g3
(g78
g5
Ntp1077
Rp1078
(dp1079
g10
Nsg82
Nsg83
Nsg84
Nsg85
Nsg86
Nsg66
Nsg87
Nsg88
Nsg89
Nsg90
Nsg91
Nsg92
Nsg93
Nsg94
Nsg95
Nsg96
Nsg97
Nsg98
Nsg99
Nsg100
Nsg101
Nsg102
Vbsfreeasme
p1080
sg104
Nsg105
VNicole Renfroe
p1081
sg107
Nsg108
Nsg109
I2839219335
sg110
Nsbasg111
Nsg112
V542345774622064640
p1082
sg114
Nsg115
V@bsfreeasme Love your profile quote.
p1083
sg117
I00
sg118
Ven
p1084
sg120
g3
(g78
g5
Ntp1085
Rp1086
(dp1087
g10
VDC \u2708\ufe0f TX
p1088
sg82
V333333
p1089
sg83
Ven
p1090
sg84
VEastern Time (US & Canada)
p1091
sg85
I554
sg86
I1888
sg66
VTue Nov 20 22:15:05 +0000 2012
p1092
sg87
I00
sg88
VAsst.Editor @GirlMeetsFood: Writer @JKnowsGoodFood @DCIndustree: Freelance Photographer: Wanderlust: Live music/concert junkie. Life is an adventure.
p1093
sg89
Vhttps://pbs.twimg.com/profile_images/532216169621504000/nL-GFTK1_normal.jpeg
p1094
sg90
I835
sg91
I458
sg92
I-18000
sg93
Nsg94
I00
sg95
Vhttps://pbs.twimg.com/profile_banners/961301256/1415725083
p1095
sg96
I00
sg97
I01
sg98
V050505
p1096
sg99
I00
sg100
I00
sg101
Vhttp://pbs.twimg.com/profile_background_images/519698230615887872/YKZAFSJS.jpeg
p1097
sg102
ViAmJanuaryJai
p1098
sg104
I17
sg105
VJai
p1099
sg107
VDDEEF6
p1100
sg108
Nsg109
I961301256
sg110
VC0DEED
p1101
sbsg138
I0
sg139
V<a href="http://twitter.com/download/iphone" rel="nofollow">Twitter for iPhone</a>
p1102
sg141
(lp1103
sg109
I542345774622064640
sbag3
(g4
g5
Ntp1104
Rp1105
(dp1106
g9
I0
sg10
Nsg11
Nsg12
(lp1107
sg14
I00
sg15
Nsg16
Nsg17
(lp1108
sg63
Nsg64
Nsg65
Nsg66
VTue Dec 09 15:50:28 +0000 2014
p1109
sg68
Nsg69
Nsg70
VMaryK0ng
p1110
sg71
Nsg72
I2208417119
sg73
Nsg74
I00
sg75
Nsg76
(lp1111
g3
(g78
g5
Ntp1112
Rp1113
(dp1114
g10
Nsg82
Nsg83
Nsg84
Nsg85
Nsg86
Nsg66
Nsg87
Nsg88
Nsg89
Nsg90
Nsg91
Nsg92
Nsg93
Nsg94
Nsg95
Nsg96
Nsg97
Nsg98
Nsg99
Nsg100
Nsg101
Nsg102
VMaryK0ng
p1115
sg104
Nsg105
VMary Kong-DeVito
p1116
sg107
Nsg108
Nsg109
I2208417119
sg110
Nsbasg111
Nsg112
V542345544744861696
p1117
sg114
I542343995780001792
sg115
V@MaryK0ng Lol, I wish. Not today. May I come by the office tomorrow?
p1118
sg117
I00
sg118
Ven
p1119
sg120
g3
(g78
g5
Ntp1120
Rp1121
(dp1122
g10
VDC \u2708\ufe0f TX
p1123
sg82
V333333
p1124
sg83
Ven
p1125
sg84
VEastern Time (US & Canada)
p1126
sg85
I554
sg86
I1888
sg66
VTue Nov 20 22:15:05 +0000 2012
p1127
sg87
I00
sg88
VAsst.Editor @GirlMeetsFood: Writer @JKnowsGoodFood @DCIndustree: Freelance Photographer: Wanderlust: Live music/concert junkie. Life is an adventure.
p1128
sg89
Vhttps://pbs.twimg.com/profile_images/532216169621504000/nL-GFTK1_normal.jpeg
p1129
sg90
I835
sg91
I458
sg92
I-18000
sg93
Nsg94
I00
sg95
Vhttps://pbs.twimg.com/profile_banners/961301256/1415725083
p1130
sg96
I00
sg97
I01
sg98
V050505
p1131
sg99
I00
sg100
I00
sg101
Vhttp://pbs.twimg.com/profile_background_images/519698230615887872/YKZAFSJS.jpeg
p1132
sg102
ViAmJanuaryJai
p1133
sg104
I17
sg105
VJai
p1134
sg107
VDDEEF6
p1135
sg108
Nsg109
I961301256
sg110
VC0DEED
p1136
sbsg138
I0
sg139
V<a href="http://twitter.com/download/iphone" rel="nofollow">Twitter for iPhone</a>
p1137
sg141
(lp1138
sg109
I542345544744861696
sbag3
(g4
g5
Ntp1139
Rp1140
(dp1141
g9
I1
sg10
Nsg11
Nsg12
(lp1142
g3
(g147
g5
Ntp1143
Rp1144
(dp1145
g151
Vbaconismyfriend
p1146
sbasg14
I00
sg15
Nsg16
Nsg17
(lp1147
sg63
Nsg64
Nsg65
Nsg66
VTue Dec 09 14:12:31 +0000 2014
p1148
sg68
Nsg69
Nsg70
Vjwjecha
p1149
sg71
Nsg72
I17670115
sg73
Nsg74
I00
sg75
Nsg76
(lp1150
g3
(g78
g5
Ntp1151
Rp1152
(dp1153
g10
Nsg82
Nsg83
Nsg84
Nsg85
Nsg86
Nsg66
Nsg87
Nsg88
Nsg89
Nsg90
Nsg91
Nsg92
Nsg93
Nsg94
Nsg95
Nsg96
Nsg97
Nsg98
Nsg99
Nsg100
Nsg101
Nsg102
Vjwjecha
p1154
sg104
Nsg105
VJackie Jecha
p1155
sg107
Nsg108
Nsg109
I17670115
sg110
Nsbasg111
Nsg112
V542320892614037504
p1156
sg114
I542320412928245760
sg115
V@jwjecha Ha Ha! I agree. Just got up to cook \U0001f373 &amp; \U0001f437. #baconismyfriend
p1157
sg117
I00
sg118
Ven
p1158
sg120
g3
(g78
g5
Ntp1159
Rp1160
(dp1161
g10
VDC \u2708\ufe0f TX
p1162
sg82
V333333
p1163
sg83
Ven
p1164
sg84
VEastern Time (US & Canada)
p1165
sg85
I554
sg86
I1888
sg66
VTue Nov 20 22:15:05 +0000 2012
p1166
sg87
I00
sg88
VAsst.Editor @GirlMeetsFood: Writer @JKnowsGoodFood @DCIndustree: Freelance Photographer: Wanderlust: Live music/concert junkie. Life is an adventure.
p1167
sg89
Vhttps://pbs.twimg.com/profile_images/532216169621504000/nL-GFTK1_normal.jpeg
p1168
sg90
I835
sg91
I458
sg92
I-18000
sg93
Nsg94
I00
sg95
Vhttps://pbs.twimg.com/profile_banners/961301256/1415725083
p1169
sg96
I00
sg97
I01
sg98
V050505
p1170
sg99
I00
sg100
I00
sg101
Vhttp://pbs.twimg.com/profile_background_images/519698230615887872/YKZAFSJS.jpeg
p1171
sg102
ViAmJanuaryJai
p1172
sg104
I17
sg105
VJai
p1173
sg107
VDDEEF6
p1174
sg108
Nsg109
I961301256
sg110
VC0DEED
p1175
sbsg138
I0
sg139
V<a href="http://twitter.com/download/iphone" rel="nofollow">Twitter for iPhone</a>
p1176
sg141
(lp1177
sg109
I542320892614037504
sbag3
(g4
g5
Ntp1178
Rp1179
(dp1180
g9
I1
sg10
Nsg11
Nsg12
(lp1181
g3
(g147
g5
Ntp1182
Rp1183
(dp1184
g151
Vwinning
p1185
sbasg14
I00
sg15
Nsg16
Nsg17
(lp1186
sg63
Nsg64
Nsg65
Nsg66
VTue Dec 09 14:08:46 +0000 2014
p1187
sg68
Nsg69
Nsg70
Nsg71
Nsg72
Nsg73
Nsg74
I00
sg75
Nsg76
(lp1188
sg111
Nsg112
V542319951512887296
p1189
sg114
Nsg115
VTwo projects in and it's only 9am! #winning
p1190
sg117
I00
sg118
Ven
p1191
sg120
g3
(g78
g5
Ntp1192
Rp1193
(dp1194
g10
VDC \u2708\ufe0f TX
p1195
sg82
V333333
p1196
sg83
Ven
p1197
sg84
VEastern Time (US & Canada)
p1198
sg85
I554
sg86
I1888
sg66
VTue Nov 20 22:15:05 +0000 2012
p1199
sg87
I00
sg88
VAsst.Editor @GirlMeetsFood: Writer @JKnowsGoodFood @DCIndustree: Freelance Photographer: Wanderlust: Live music/concert junkie. Life is an adventure.
p1200
sg89
Vhttps://pbs.twimg.com/profile_images/532216169621504000/nL-GFTK1_normal.jpeg
p1201
sg90
I835
sg91
I458
sg92
I-18000
sg93
Nsg94
I00
sg95
Vhttps://pbs.twimg.com/profile_banners/961301256/1415725083
p1202
sg96
I00
sg97
I01
sg98
V050505
p1203
sg99
I00
sg100
I00
sg101
Vhttp://pbs.twimg.com/profile_background_images/519698230615887872/YKZAFSJS.jpeg
p1204
sg102
ViAmJanuaryJai
p1205
sg104
I17
sg105
VJai
p1206
sg107
VDDEEF6
p1207
sg108
Nsg109
I961301256
sg110
VC0DEED
p1208
sbsg138
I0
sg139
V<a href="http://twitter.com/download/iphone" rel="nofollow">Twitter for iPhone</a>
p1209
sg141
(lp1210
sg109
I542319951512887296
sbaa.