(lp0
S'cheapcigar'
p1
a(lp2
ccopy_reg
_reconstructor
p3
(ctwitter.status
Status
p4
c__builtin__
object
p5
Ntp6
Rp7
(dp8
S'_favorite_count'
p9
I0
sS'_location'
p10
NsS'_withheld_scope'
p11
NsS'hashtags'
p12
(lp13
sS'_truncated'
p14
I00
sS'_retweeted_status'
p15
NsS'_withheld_copyright'
p16
NsS'media'
p17
(lp18
sS'_place'
p19
NsS'_contributors'
p20
NsS'_current_user_retweet'
p21
NsS'_created_at'
p22
VSat Dec 13 15:22:05 +0000 2014
p23
sS'_scopes'
p24
NsS'_possibly_sensitive'
p25
I01
sS'_in_reply_to_screen_name'
p26
NsS'_coordinates'
p27
NsS'_in_reply_to_user_id'
p28
NsS'_geo'
p29
NsS'_favorited'
p30
I00
sS'_withheld_in_countries'
p31
NsS'user_mentions'
p32
(lp33
sS'_now'
p34
NsS'_id_str'
p35
NsS'_in_reply_to_status_id'
p36
NsS'_text'
p37
V"FBI - FBI Seeking Information About Serial Bank Robber" http://t.co/HSXfr6y6hi
p38
sS'_retweeted'
p39
I00
sS'lang'
p40
Ven
p41
sS'_user'
p42
g3
(ctwitter.user
User
p43
g5
Ntp44
Rp45
(dp46
g10
V \ufe3b\u2566\u2564\u2500\u2500   \ufe3b\u2566\u2564\u2500\u2500   \ufe3b\u2566\u2564\u2500\u2500   \ufe3b\u2566\u2564\u2500\u2500
p47
sS'_profile_text_color'
p48
V333333
p49
sS'_lang'
p50
Ven-gb
p51
sS'_time_zone'
p52
VLondon
p53
sS'_followers_count'
p54
I4552
sS'_statuses_count'
p55
I25702
sg22
VSat Mar 09 23:39:32 +0000 2013
p56
sS'_verified'
p57
I00
sS'_description'
p58
VPatriot, Army Veteran from 40 yrs ago, love my rescued dogs, rifles, pistols, and freedom. God Bless all US Armed Forces, Active,Vets,& Deceased. #NRA #PJNET
p59
sS'_profile_image_url'
p60
Vhttps://pbs.twimg.com/profile_images/542439961106997251/Qt0kA7_R_normal.jpeg
p61
sS'_friends_count'
p62
I4549
sS'_favourites_count'
p63
I8473
sS'_utc_offset'
p64
I0
sS'_status'
p65
NsS'_protected'
p66
I00
sS'_profile_banner_url'
p67
Vhttps://pbs.twimg.com/profile_banners/1255621518/1418165233
p68
sS'_notifications'
p69
I00
sS'_profile_background_tile'
p70
I00
sS'_profile_link_color'
p71
VBD1C1C
p72
sS'_geo_enabled'
p73
I00
sS'_contributors_enabled'
p74
I00
sS'_profile_background_image_url'
p75
Vhttp://abs.twimg.com/images/themes/theme1/bg.png
p76
sS'_screen_name'
p77
Vcheapcigar
p78
sS'_listed_count'
p79
I85
sS'_name'
p80
VSublimin_Al
p81
sS'_profile_sidebar_fill_color'
p82
VDDEEF6
p83
sS'_url'
p84
Vhttp://t.co/mFeQgMWOgQ
p85
sS'_id'
p86
I1255621518
sS'_profile_background_color'
p87
VC0DEED
p88
sbsS'_retweet_count'
p89
I0
sS'_source'
p90
V<a href="https://dev.twitter.com/docs/tfw" rel="nofollow">Twitter for Websites</a>
p91
sS'urls'
p92
(lp93
g3
(ctwitter.url
Url
p94
g5
Ntp95
Rp96
(dp97
S'url'
p98
Vhttp://t.co/HSXfr6y6hi
p99
sS'expanded_url'
p100
Vhttp://www.fbi.gov/chicago/press-releases/2014/fbi-seeking-information-about-serial-bank-robber
p101
sbasg86
I543787952984162304
sbag3
(g4
g5
Ntp102
Rp103
(dp104
g9
I0
sg10
Nsg11
Nsg12
(lp105
sg14
I00
sg15
g3
(g4
g5
Ntp106
Rp107
(dp108
g9
I0
sg10
Nsg11
Nsg12
(lp109
sg14
I00
sg15
Nsg16
Nsg17
(lp110
(dp111
Vexpanded_url
p112
Vhttp://twitter.com/DogoodII/status/543486964171673600/photo/1
p113
sVdisplay_url
p114
Vpic.twitter.com/4BaNZSnYkF
p115
sVurl
p116
Vhttp://t.co/4BaNZSnYkF
p117
sVmedia_url_https
p118
Vhttps://pbs.twimg.com/media/B4racvjCAAEoIE_.png
p119
sVid_str
p120
V543486892386156545
p121
sVsizes
p122
(dp123
Vlarge
p124
(dp125
Vh
p126
I576
sVresize
p127
Vfit
p128
sVw
p129
I1024
ssVsmall
p130
(dp131
Vh
p132
I191
sVresize
p133
Vfit
p134
sVw
p135
I340
ssVmedium
p136
(dp137
Vh
p138
I337
sVresize
p139
Vfit
p140
sVw
p141
I600
ssVthumb
p142
(dp143
Vh
p144
I150
sVresize
p145
Vcrop
p146
sVw
p147
I150
sssVindices
p148
(lp149
I118
aI140
asVtype
p150
Vphoto
p151
sVid
p152
I543486892386156545
sVmedia_url
p153
Vhttp://pbs.twimg.com/media/B4racvjCAAEoIE_.png
p154
sasg19
Nsg20
Nsg21
Nsg22
VFri Dec 12 19:26:04 +0000 2014
p155
sg24
Nsg25
I00
sg26
VDogoodII
p156
sg27
Nsg28
I2227207840
sg29
Nsg30
I00
sg31
Nsg32
(lp157
g3
(g43
g5
Ntp158
Rp159
(dp160
g10
Nsg48
Nsg50
Nsg52
Nsg54
Nsg55
Nsg22
Nsg57
Nsg58
Nsg60
Nsg62
Nsg63
Nsg64
Nsg65
Nsg66
Nsg67
Nsg69
Nsg70
Nsg71
Nsg73
Nsg74
Nsg75
Nsg77
Vcheapcigar
p161
sg79
Nsg80
VSublimin_Al
p162
sg82
Nsg84
Nsg86
I1255621518
sg87
Nsbasg34
Nsg35
Nsg36
I543451533975646208
sg37
V@cheapcigar TYFRT.... Think we have to take on Public Enemy #1. \u000a http://t.co/39B9iVsL9F Need 50,000,000 Likes to win http://t.co/4BaNZSnYkF
p163
sg39
I00
sg40
Ven
p164
sg42
g3
(g43
g5
Ntp165
Rp166
(dp167
g10
VFreedom, USA
p168
sg48
V333333
p169
sg50
Ven
p170
sg52
Nsg54
I1353
sg55
I9794
sg22
VSun Dec 15 15:05:02 +0000 2013
p171
sg57
I00
sg58
VIn the spirit of Benjamin Franklin, who used the name Silence Dogood, to get his thoughts published in his local newspaper Letter to the Editor.
p172
sg60
Vhttps://pbs.twimg.com/profile_images/459473197113417728/nwvBxG8D_normal.jpeg
p173
sg62
I1981
sg63
I273
sg64
Nsg65
Nsg66
I00
sg67
Nsg69
I00
sg70
I00
sg71
V0084B4
p174
sg73
I00
sg74
I00
sg75
Vhttp://abs.twimg.com/images/themes/theme1/bg.png
p175
sg77
VDogoodII
p176
sg79
I14
sg80
VSilence Dogood II
p177
sg82
VDDEEF6
p178
sg84
Nsg86
I2227207840
sg87
VC0DEED
p179
sbsg89
I1
sg90
V<a href="http://twitter.com" rel="nofollow">Twitter Web Client</a>
p180
sg92
(lp181
g3
(g94
g5
Ntp182
Rp183
(dp184
g98
Vhttp://t.co/39B9iVsL9F
p185
sg100
Vhttp://youtu.be/kDBcGvH1C2c
p186
sbasg86
I543486964171673600
sbsg16
Nsg17
(lp187
(dp188
Vsource_user_id
p189
I2227207840
sVsource_status_id_str
p190
V543486964171673600
p191
sVexpanded_url
p192
Vhttp://twitter.com/DogoodII/status/543486964171673600/photo/1
p193
sVdisplay_url
p194
Vpic.twitter.com/4BaNZSnYkF
p195
sVurl
p196
Vhttp://t.co/4BaNZSnYkF
p197
sVmedia_url_https
p198
Vhttps://pbs.twimg.com/media/B4racvjCAAEoIE_.png
p199
sVsource_user_id_str
p200
V2227207840
p201
sVsource_status_id
p202
I543486964171673600
sVid_str
p203
V543486892386156545
p204
sVsizes
p205
(dp206
Vlarge
p207
(dp208
Vh
p209
I576
sVresize
p210
Vfit
p211
sVw
p212
I1024
ssVsmall
p213
(dp214
Vh
p215
I191
sVresize
p216
Vfit
p217
sVw
p218
I340
ssVmedium
p219
(dp220
Vh
p221
I337
sVresize
p222
Vfit
p223
sVw
p224
I600
ssVthumb
p225
(dp226
Vh
p227
I150
sVresize
p228
Vcrop
p229
sVw
p230
I150
sssVindices
p231
(lp232
I139
aI140
asVtype
p233
Vphoto
p234
sVid
p235
I543486892386156545
sVmedia_url
p236
Vhttp://pbs.twimg.com/media/B4racvjCAAEoIE_.png
p237
sasg19
Nsg20
Nsg21
Nsg22
VSat Dec 13 09:41:21 +0000 2014
p238
sg24
Nsg25
I01
sg26
Nsg27
Nsg28
Nsg29
Nsg30
I00
sg31
Nsg32
(lp239
g3
(g43
g5
Ntp240
Rp241
(dp242
g10
Nsg48
Nsg50
Nsg52
Nsg54
Nsg55
Nsg22
Nsg57
Nsg58
Nsg60
Nsg62
Nsg63
Nsg64
Nsg65
Nsg66
Nsg67
Nsg69
Nsg70
Nsg71
Nsg73
Nsg74
Nsg75
Nsg77
VDogoodII
p243
sg79
Nsg80
VSilence Dogood II
p244
sg82
Nsg84
Nsg86
I2227207840
sg87
Nsbag3
(g43
g5
Ntp245
Rp246
(dp247
g10
Nsg48
Nsg50
Nsg52
Nsg54
Nsg55
Nsg22
Nsg57
Nsg58
Nsg60
Nsg62
Nsg63
Nsg64
Nsg65
Nsg66
Nsg67
Nsg69
Nsg70
Nsg71
Nsg73
Nsg74
Nsg75
Nsg77
Vcheapcigar
p248
sg79
Nsg80
VSublimin_Al
p249
sg82
Nsg84
Nsg86
I1255621518
sg87
Nsbasg34
Nsg35
Nsg36
Nsg37
VRT @DogoodII: @cheapcigar TYFRT.... Think we have to take on Public Enemy #1. \u000a http://t.co/39B9iVsL9F Need 50,000,000 Likes to win http://\u2026
p250
sg39
I00
sg40
Ven
p251
sg42
g3
(g43
g5
Ntp252
Rp253
(dp254
g10
V \ufe3b\u2566\u2564\u2500\u2500   \ufe3b\u2566\u2564\u2500\u2500   \ufe3b\u2566\u2564\u2500\u2500   \ufe3b\u2566\u2564\u2500\u2500
p255
sg48
V333333
p256
sg50
Ven-gb
p257
sg52
VLondon
p258
sg54
I4552
sg55
I25702
sg22
VSat Mar 09 23:39:32 +0000 2013
p259
sg57
I00
sg58
VPatriot, Army Veteran from 40 yrs ago, love my rescued dogs, rifles, pistols, and freedom. God Bless all US Armed Forces, Active,Vets,& Deceased. #NRA #PJNET
p260
sg60
Vhttps://pbs.twimg.com/profile_images/542439961106997251/Qt0kA7_R_normal.jpeg
p261
sg62
I4549
sg63
I8473
sg64
I0
sg65
Nsg66
I00
sg67
Vhttps://pbs.twimg.com/profile_banners/1255621518/1418165233
p262
sg69
I00
sg70
I00
sg71
VBD1C1C
p263
sg73
I00
sg74
I00
sg75
Vhttp://abs.twimg.com/images/themes/theme1/bg.png
p264
sg77
Vcheapcigar
p265
sg79
I85
sg80
VSublimin_Al
p266
sg82
VDDEEF6
p267
sg84
Vhttp://t.co/mFeQgMWOgQ
p268
sg86
I1255621518
sg87
VC0DEED
p269
sbsg89
I1
sg90
V<a href="http://twitter.com/download/iphone" rel="nofollow">Twitter for iPhone</a>
p270
sg92
(lp271
g3
(g94
g5
Ntp272
Rp273
(dp274
g98
Vhttp://t.co/39B9iVsL9F
p275
sg100
Vhttp://youtu.be/kDBcGvH1C2c
p276
sbasg86
I543702203434029057
sbag3
(g4
g5
Ntp277
Rp278
(dp279
g9
I0
sg10
Nsg11
Nsg12
(lp280
sg14
I00
sg15
g3
(g4
g5
Ntp281
Rp282
(dp283
g9
I0
sg10
Nsg11
Nsg12
(lp284
sg14
I00
sg15
Nsg16
Nsg17
(lp285
sg19
Nsg20
Nsg21
Nsg22
VFri Dec 12 23:56:50 +0000 2014
p286
sg24
Nsg25
Nsg26
Vgatman7
p287
sg27
Nsg28
I36681617
sg29
Nsg30
I00
sg31
Nsg32
(lp288
g3
(g43
g5
Ntp289
Rp290
(dp291
g10
Nsg48
Nsg50
Nsg52
Nsg54
Nsg55
Nsg22
Nsg57
Nsg58
Nsg60
Nsg62
Nsg63
Nsg64
Nsg65
Nsg66
Nsg67
Nsg69
Nsg70
Nsg71
Nsg73
Nsg74
Nsg75
Nsg77
Vgatman7
p292
sg79
Nsg80
VGeorge Thompson
p293
sg82
Nsg84
Nsg86
I36681617
sg87
Nsbag3
(g43
g5
Ntp294
Rp295
(dp296
g10
Nsg48
Nsg50
Nsg52
Nsg54
Nsg55
Nsg22
Nsg57
Nsg58
Nsg60
Nsg62
Nsg63
Nsg64
Nsg65
Nsg66
Nsg67
Nsg69
Nsg70
Nsg71
Nsg73
Nsg74
Nsg75
Nsg77
Vcheapcigar
p297
sg79
Nsg80
VSublimin_Al
p298
sg82
Nsg84
Nsg86
I1255621518
sg87
Nsbag3
(g43
g5
Ntp299
Rp300
(dp301
g10
Nsg48
Nsg50
Nsg52
Nsg54
Nsg55
Nsg22
Nsg57
Nsg58
Nsg60
Nsg62
Nsg63
Nsg64
Nsg65
Nsg66
Nsg67
Nsg69
Nsg70
Nsg71
Nsg73
Nsg74
Nsg75
Nsg77
Vjrstws
p302
sg79
Nsg80
VJR Benghazismidgen
p303
sg82
Nsg84
Nsg86
I228901203
sg87
Nsbag3
(g43
g5
Ntp304
Rp305
(dp306
g10
Nsg48
Nsg50
Nsg52
Nsg54
Nsg55
Nsg22
Nsg57
Nsg58
Nsg60
Nsg62
Nsg63
Nsg64
Nsg65
Nsg66
Nsg67
Nsg69
Nsg70
Nsg71
Nsg73
Nsg74
Nsg75
Nsg77
VAndrewArlink
p307
sg79
Nsg80
VAndrew Arlink
p308
sg82
Nsg84
Nsg86
I2494237140
sg87
Nsbag3
(g43
g5
Ntp309
Rp310
(dp311
g10
Nsg48
Nsg50
Nsg52
Nsg54
Nsg55
Nsg22
Nsg57
Nsg58
Nsg60
Nsg62
Nsg63
Nsg64
Nsg65
Nsg66
Nsg67
Nsg69
Nsg70
Nsg71
Nsg73
Nsg74
Nsg75
Nsg77
Vlemonchronicle
p312
sg79
Nsg80
VElizabeth
p313
sg82
Nsg84
Nsg86
I194619305
sg87
Nsbag3
(g43
g5
Ntp314
Rp315
(dp316
g10
Nsg48
Nsg50
Nsg52
Nsg54
Nsg55
Nsg22
Nsg57
Nsg58
Nsg60
Nsg62
Nsg63
Nsg64
Nsg65
Nsg66
Nsg67
Nsg69
Nsg70
Nsg71
Nsg73
Nsg74
Nsg75
Nsg77
Vmlong42947
p317
sg79
Nsg80
VMarilyn Long
p318
sg82
Nsg84
Nsg86
I538481859
sg87
Nsbag3
(g43
g5
Ntp319
Rp320
(dp321
g10
Nsg48
Nsg50
Nsg52
Nsg54
Nsg55
Nsg22
Nsg57
Nsg58
Nsg60
Nsg62
Nsg63
Nsg64
Nsg65
Nsg66
Nsg67
Nsg69
Nsg70
Nsg71
Nsg73
Nsg74
Nsg75
Nsg77
VJOHNNDIBELLO
p322
sg79
Nsg80
VJOHN N DIBELLO
p323
sg82
Nsg84
Nsg86
I525857535
sg87
Nsbag3
(g43
g5
Ntp324
Rp325
(dp326
g10
Nsg48
Nsg50
Nsg52
Nsg54
Nsg55
Nsg22
Nsg57
Nsg58
Nsg60
Nsg62
Nsg63
Nsg64
Nsg65
Nsg66
Nsg67
Nsg69
Nsg70
Nsg71
Nsg73
Nsg74
Nsg75
Nsg77
Vjudith5519
p327
sg79
Nsg80
VJude505
p328
sg82
Nsg84
Nsg86
I2440969560
sg87
Nsbag3
(g43
g5
Ntp329
Rp330
(dp331
g10
Nsg48
Nsg50
Nsg52
Nsg54
Nsg55
Nsg22
Nsg57
Nsg58
Nsg60
Nsg62
Nsg63
Nsg64
Nsg65
Nsg66
Nsg67
Nsg69
Nsg70
Nsg71
Nsg73
Nsg74
Nsg75
Nsg77
Vwarpfactorbanjo
p332
sg79
Nsg80
VJ Loveless
p333
sg82
Nsg84
Nsg86
I162078051
sg87
Nsbasg34
Nsg35
Nsg36
I543554742149218304
sg37
V@gatman7 @cheapcigar @jrstws @AndrewArlink @lemonchronicle @mlong42947 @JOHNNDIBELLO @judith5519 @warpfactorbanjo Welcome, gotaGOback2clinic
p334
sg39
I00
sg40
Ven
p335
sg42
g3
(g43
g5
Ntp336
Rp337
(dp338
g10
VAddison, TX USA
p339
sg48
V000000
p340
sg50
Ven
p341
sg52
VCentral Time (US & Canada)
p342
sg54
I356
sg55
I1548
sg22
VFri Sep 21 14:54:30 +0000 2012
p343
sg57
I00
sg58
VAuthor on Spirituality, Commentator on the stupid, mean and senseless cruelties humanity is still doing to each other...
p344
sg60
Vhttps://pbs.twimg.com/profile_images/512995538174623744/HO9rxsiN_normal.jpeg
p345
sg62
I784
sg63
I2105
sg64
I-21600
sg65
Nsg66
I00
sg67
Vhttps://pbs.twimg.com/profile_banners/837969043/1412790806
p346
sg69
I00
sg70
I00
sg71
VFA743E
p347
sg73
I00
sg74
I00
sg75
Vhttp://abs.twimg.com/images/themes/theme1/bg.png
p348
sg77
Vlawrenleann1962
p349
sg79
I5
sg80
VLeann Rehm Lawrence
p350
sg82
V000000
p351
sg84
Vhttp://t.co/53V6MCa6yp
p352
sg86
I837969043
sg87
V000000
p353
sbsg89
I1
sg90
V<a href="http://twitter.com" rel="nofollow">Twitter Web Client</a>
p354
sg92
(lp355
sg86
I543555106202198017
sbsg16
Nsg17
(lp356
sg19
Nsg20
Nsg21
Nsg22
VSat Dec 13 09:40:06 +0000 2014
p357
sg24
Nsg25
Nsg26
Nsg27
Nsg28
Nsg29
Nsg30
I00
sg31
Nsg32
(lp358
g3
(g43
g5
Ntp359
Rp360
(dp361
g10
Nsg48
Nsg50
Nsg52
Nsg54
Nsg55
Nsg22
Nsg57
Nsg58
Nsg60
Nsg62
Nsg63
Nsg64
Nsg65
Nsg66
Nsg67
Nsg69
Nsg70
Nsg71
Nsg73
Nsg74
Nsg75
Nsg77
Vlawrenleann1962
p362
sg79
Nsg80
VLeann Rehm Lawrence
p363
sg82
Nsg84
Nsg86
I837969043
sg87
Nsbag3
(g43
g5
Ntp364
Rp365
(dp366
g10
Nsg48
Nsg50
Nsg52
Nsg54
Nsg55
Nsg22
Nsg57
Nsg58
Nsg60
Nsg62
Nsg63
Nsg64
Nsg65
Nsg66
Nsg67
Nsg69
Nsg70
Nsg71
Nsg73
Nsg74
Nsg75
Nsg77
Vgatman7
p367
sg79
Nsg80
VGeorge Thompson
p368
sg82
Nsg84
Nsg86
I36681617
sg87
Nsbag3
(g43
g5
Ntp369
Rp370
(dp371
g10
Nsg48
Nsg50
Nsg52
Nsg54
Nsg55
Nsg22
Nsg57
Nsg58
Nsg60
Nsg62
Nsg63
Nsg64
Nsg65
Nsg66
Nsg67
Nsg69
Nsg70
Nsg71
Nsg73
Nsg74
Nsg75
Nsg77
Vcheapcigar
p372
sg79
Nsg80
VSublimin_Al
p373
sg82
Nsg84
Nsg86
I1255621518
sg87
Nsbag3
(g43
g5
Ntp374
Rp375
(dp376
g10
Nsg48
Nsg50
Nsg52
Nsg54
Nsg55
Nsg22
Nsg57
Nsg58
Nsg60
Nsg62
Nsg63
Nsg64
Nsg65
Nsg66
Nsg67
Nsg69
Nsg70
Nsg71
Nsg73
Nsg74
Nsg75
Nsg77
Vjrstws
p377
sg79
Nsg80
VJR Benghazismidgen
p378
sg82
Nsg84
Nsg86
I228901203
sg87
Nsbag3
(g43
g5
Ntp379
Rp380
(dp381
g10
Nsg48
Nsg50
Nsg52
Nsg54
Nsg55
Nsg22
Nsg57
Nsg58
Nsg60
Nsg62
Nsg63
Nsg64
Nsg65
Nsg66
Nsg67
Nsg69
Nsg70
Nsg71
Nsg73
Nsg74
Nsg75
Nsg77
VAndrewArlink
p382
sg79
Nsg80
VAndrew Arlink
p383
sg82
Nsg84
Nsg86
I2494237140
sg87
Nsbag3
(g43
g5
Ntp384
Rp385
(dp386
g10
Nsg48
Nsg50
Nsg52
Nsg54
Nsg55
Nsg22
Nsg57
Nsg58
Nsg60
Nsg62
Nsg63
Nsg64
Nsg65
Nsg66
Nsg67
Nsg69
Nsg70
Nsg71
Nsg73
Nsg74
Nsg75
Nsg77
Vlemonchronicle
p387
sg79
Nsg80
VElizabeth
p388
sg82
Nsg84
Nsg86
I194619305
sg87
Nsbag3
(g43
g5
Ntp389
Rp390
(dp391
g10
Nsg48
Nsg50
Nsg52
Nsg54
Nsg55
Nsg22
Nsg57
Nsg58
Nsg60
Nsg62
Nsg63
Nsg64
Nsg65
Nsg66
Nsg67
Nsg69
Nsg70
Nsg71
Nsg73
Nsg74
Nsg75
Nsg77
Vmlong42947
p392
sg79
Nsg80
VMarilyn Long
p393
sg82
Nsg84
Nsg86
I538481859
sg87
Nsbag3
(g43
g5
Ntp394
Rp395
(dp396
g10
Nsg48
Nsg50
Nsg52
Nsg54
Nsg55
Nsg22
Nsg57
Nsg58
Nsg60
Nsg62
Nsg63
Nsg64
Nsg65
Nsg66
Nsg67
Nsg69
Nsg70
Nsg71
Nsg73
Nsg74
Nsg75
Nsg77
VJOHNNDIBELLO
p397
sg79
Nsg80
VJOHN N DIBELLO
p398
sg82
Nsg84
Nsg86
I525857535
sg87
Nsbag3
(g43
g5
Ntp399
Rp400
(dp401
g10
Nsg48
Nsg50
Nsg52
Nsg54
Nsg55
Nsg22
Nsg57
Nsg58
Nsg60
Nsg62
Nsg63
Nsg64
Nsg65
Nsg66
Nsg67
Nsg69
Nsg70
Nsg71
Nsg73
Nsg74
Nsg75
Nsg77
Vjudith5519
p402
sg79
Nsg80
VJude505
p403
sg82
Nsg84
Nsg86
I2440969560
sg87
Nsbag3
(g43
g5
Ntp404
Rp405
(dp406
g10
Nsg48
Nsg50
Nsg52
Nsg54
Nsg55
Nsg22
Nsg57
Nsg58
Nsg60
Nsg62
Nsg63
Nsg64
Nsg65
Nsg66
Nsg67
Nsg69
Nsg70
Nsg71
Nsg73
Nsg74
Nsg75
Nsg77
Vwarpfactorbanjo
p407
sg79
Nsg80
VJ Loveless
p408
sg82
Nsg84
Nsg86
I162078051
sg87
Nsbasg34
Nsg35
Nsg36
Nsg37
VRT @lawrenleann1962: @gatman7 @cheapcigar @jrstws @AndrewArlink @lemonchronicle @mlong42947 @JOHNNDIBELLO @judith5519 @warpfactorbanjo Welc\u2026
p409
sg39
I00
sg40
Ven
p410
sg42
g3
(g43
g5
Ntp411
Rp412
(dp413
g10
V \ufe3b\u2566\u2564\u2500\u2500   \ufe3b\u2566\u2564\u2500\u2500   \ufe3b\u2566\u2564\u2500\u2500   \ufe3b\u2566\u2564\u2500\u2500
p414
sg48
V333333
p415
sg50
Ven-gb
p416
sg52
VLondon
p417
sg54
I4552
sg55
I25702
sg22
VSat Mar 09 23:39:32 +0000 2013
p418
sg57
I00
sg58
VPatriot, Army Veteran from 40 yrs ago, love my rescued dogs, rifles, pistols, and freedom. God Bless all US Armed Forces, Active,Vets,& Deceased. #NRA #PJNET
p419
sg60
Vhttps://pbs.twimg.com/profile_images/542439961106997251/Qt0kA7_R_normal.jpeg
p420
sg62
I4549
sg63
I8473
sg64
I0
sg65
Nsg66
I00
sg67
Vhttps://pbs.twimg.com/profile_banners/1255621518/1418165233
p421
sg69
I00
sg70
I00
sg71
VBD1C1C
p422
sg73
I00
sg74
I00
sg75
Vhttp://abs.twimg.com/images/themes/theme1/bg.png
p423
sg77
Vcheapcigar
p424
sg79
I85
sg80
VSublimin_Al
p425
sg82
VDDEEF6
p426
sg84
Vhttp://t.co/mFeQgMWOgQ
p427
sg86
I1255621518
sg87
VC0DEED
p428
sbsg89
I1
sg90
V<a href="http://twitter.com/download/iphone" rel="nofollow">Twitter for iPhone</a>
p429
sg92
(lp430
sg86
I543701887716163585
sbag3
(g4
g5
Ntp431
Rp432
(dp433
g9
I0
sg10
Nsg11
Nsg12
(lp434
sg14
I00
sg15
g3
(g4
g5
Ntp435
Rp436
(dp437
g9
I2
sg10
Nsg11
Nsg12
(lp438
sg14
I00
sg15
Nsg16
Nsg17
(lp439
sg19
Nsg20
Nsg21
Nsg22
VFri Dec 12 23:55:49 +0000 2014
p440
sg24
Nsg25
Nsg26
Vgatman7
p441
sg27
Nsg28
I36681617
sg29
Nsg30
I00
sg31
Nsg32
(lp442
g3
(g43
g5
Ntp443
Rp444
(dp445
g10
Nsg48
Nsg50
Nsg52
Nsg54
Nsg55
Nsg22
Nsg57
Nsg58
Nsg60
Nsg62
Nsg63
Nsg64
Nsg65
Nsg66
Nsg67
Nsg69
Nsg70
Nsg71
Nsg73
Nsg74
Nsg75
Nsg77
Vgatman7
p446
sg79
Nsg80
VGeorge Thompson
p447
sg82
Nsg84
Nsg86
I36681617
sg87
Nsbag3
(g43
g5
Ntp448
Rp449
(dp450
g10
Nsg48
Nsg50
Nsg52
Nsg54
Nsg55
Nsg22
Nsg57
Nsg58
Nsg60
Nsg62
Nsg63
Nsg64
Nsg65
Nsg66
Nsg67
Nsg69
Nsg70
Nsg71
Nsg73
Nsg74
Nsg75
Nsg77
VGenesSmile
p451
sg79
Nsg80
VKrissy Chase
p452
sg82
Nsg84
Nsg86
I74827928
sg87
Nsbag3
(g43
g5
Ntp453
Rp454
(dp455
g10
Nsg48
Nsg50
Nsg52
Nsg54
Nsg55
Nsg22
Nsg57
Nsg58
Nsg60
Nsg62
Nsg63
Nsg64
Nsg65
Nsg66
Nsg67
Nsg69
Nsg70
Nsg71
Nsg73
Nsg74
Nsg75
Nsg77
VGreen_Star1
p456
sg79
Nsg80
VRalph E McCrum
p457
sg82
Nsg84
Nsg86
I53590352
sg87
Nsbag3
(g43
g5
Ntp458
Rp459
(dp460
g10
Nsg48
Nsg50
Nsg52
Nsg54
Nsg55
Nsg22
Nsg57
Nsg58
Nsg60
Nsg62
Nsg63
Nsg64
Nsg65
Nsg66
Nsg67
Nsg69
Nsg70
Nsg71
Nsg73
Nsg74
Nsg75
Nsg77
VShaunTrades
p461
sg79
Nsg80
VMoney Talks
p462
sg82
Nsg84
Nsg86
I213315220
sg87
Nsbag3
(g43
g5
Ntp463
Rp464
(dp465
g10
Nsg48
Nsg50
Nsg52
Nsg54
Nsg55
Nsg22
Nsg57
Nsg58
Nsg60
Nsg62
Nsg63
Nsg64
Nsg65
Nsg66
Nsg67
Nsg69
Nsg70
Nsg71
Nsg73
Nsg74
Nsg75
Nsg77
Vcheapcigar
p466
sg79
Nsg80
VSublimin_Al
p467
sg82
Nsg84
Nsg86
I1255621518
sg87
Nsbag3
(g43
g5
Ntp468
Rp469
(dp470
g10
Nsg48
Nsg50
Nsg52
Nsg54
Nsg55
Nsg22
Nsg57
Nsg58
Nsg60
Nsg62
Nsg63
Nsg64
Nsg65
Nsg66
Nsg67
Nsg69
Nsg70
Nsg71
Nsg73
Nsg74
Nsg75
Nsg77
VWANAGL
p471
sg79
Nsg80
VWANAGL #OiP 
p472
sg82
Nsg84
Nsg86
I719756991
sg87
Nsbag3
(g43
g5
Ntp473
Rp474
(dp475
g10
Nsg48
Nsg50
Nsg52
Nsg54
Nsg55
Nsg22
Nsg57
Nsg58
Nsg60
Nsg62
Nsg63
Nsg64
Nsg65
Nsg66
Nsg67
Nsg69
Nsg70
Nsg71
Nsg73
Nsg74
Nsg75
Nsg77
Vtexasflutegal
p476
sg79
Nsg80
VJeannette Burleigh
p477
sg82
Nsg84
Nsg86
I156791542
sg87
Nsbag3
(g43
g5
Ntp478
Rp479
(dp480
g10
Nsg48
Nsg50
Nsg52
Nsg54
Nsg55
Nsg22
Nsg57
Nsg58
Nsg60
Nsg62
Nsg63
Nsg64
Nsg65
Nsg66
Nsg67
Nsg69
Nsg70
Nsg71
Nsg73
Nsg74
Nsg75
Nsg77
VSuperman6869
p481
sg79
Nsg80
VSuperman
p482
sg82
Nsg84
Nsg86
I137820750
sg87
Nsbag3
(g43
g5
Ntp483
Rp484
(dp485
g10
Nsg48
Nsg50
Nsg52
Nsg54
Nsg55
Nsg22
Nsg57
Nsg58
Nsg60
Nsg62
Nsg63
Nsg64
Nsg65
Nsg66
Nsg67
Nsg69
Nsg70
Nsg71
Nsg73
Nsg74
Nsg75
Nsg77
VQueen_V1216
p486
sg79
Nsg80
VVickie Barnachea
p487
sg82
Nsg84
Nsg86
I265645992
sg87
Nsbag3
(g43
g5
Ntp488
Rp489
(dp490
g10
Nsg48
Nsg50
Nsg52
Nsg54
Nsg55
Nsg22
Nsg57
Nsg58
Nsg60
Nsg62
Nsg63
Nsg64
Nsg65
Nsg66
Nsg67
Nsg69
Nsg70
Nsg71
Nsg73
Nsg74
Nsg75
Nsg77
VTrickerKeeTs
p491
sg79
Nsg80
VTricker KeeTs
p492
sg82
Nsg84
Nsg86
I2738347879
sg87
Nsbag3
(g43
g5
Ntp493
Rp494
(dp495
g10
Nsg48
Nsg50
Nsg52
Nsg54
Nsg55
Nsg22
Nsg57
Nsg58
Nsg60
Nsg62
Nsg63
Nsg64
Nsg65
Nsg66
Nsg67
Nsg69
Nsg70
Nsg71
Nsg73
Nsg74
Nsg75
Nsg77
VDaggy1
p496
sg79
Nsg80
VDagwood Bumstead
p497
sg82
Nsg84
Nsg86
I24305174
sg87
Nsbasg34
Nsg35
Nsg36
I543451334599782400
sg37
V@gatman7 TYGeorge @GenesSmile @Green_Star1 @ShaunTrades @cheapcigar @WANAGL @texasflutegal @Superman6869 @Queen_V1216 @TrickerKeeTs @Daggy1
p498
sg39
I00
sg40
Ven
p499
sg42
g3
(g43
g5
Ntp500
Rp501
(dp502
g10
VIdaho
p503
sg48
V333333
p504
sg50
Ven
p505
sg52
VPacific Time (US & Canada)
p506
sg54
I8302
sg55
I172337
sg22
VTue Nov 15 03:41:02 +0000 2011
p507
sg57
I00
sg58
VConservative 'Love GOD, Family & USA., Guns, Military, Law Enforcement & EMS. #CCOT #Palin #Newt #RushBabe #NASCAR #RedEye #BreitbartArmy #WAR #MolonLabe
p508
sg60
Vhttps://pbs.twimg.com/profile_images/1642687199/Gargoyle_normal.jpg
p509
sg62
I7935
sg63
I75495
sg64
I-28800
sg65
Nsg66
I00
sg67
Vhttps://pbs.twimg.com/profile_banners/412776430/1366442921
p510
sg69
I00
sg70
I00
sg71
V0084B4
p511
sg73
I00
sg74
I00
sg75
Vhttp://abs.twimg.com/images/themes/theme1/bg.png
p512
sg77
Vyrwol7
p513
sg79
I188
sg80
VColleen White 
p514
sg82
VDDEEF6
p515
sg84
Nsg86
I412776430
sg87
VC0DEED
p516
sbsg89
I1
sg90
V<a href="http://twitter.com/#!/download/ipad" rel="nofollow">Twitter for iPad</a>
p517
sg92
(lp518
sg86
I543554847643930624
sbsg16
Nsg17
(lp519
sg19
Nsg20
Nsg21
Nsg22
VSat Dec 13 09:39:35 +0000 2014
p520
sg24
Nsg25
Nsg26
Nsg27
Nsg28
Nsg29
Nsg30
I00
sg31
Nsg32
(lp521
g3
(g43
g5
Ntp522
Rp523
(dp524
g10
Nsg48
Nsg50
Nsg52
Nsg54
Nsg55
Nsg22
Nsg57
Nsg58
Nsg60
Nsg62
Nsg63
Nsg64
Nsg65
Nsg66
Nsg67
Nsg69
Nsg70
Nsg71
Nsg73
Nsg74
Nsg75
Nsg77
Vyrwol7
p525
sg79
Nsg80
VColleen White 
p526
sg82
Nsg84
Nsg86
I412776430
sg87
Nsbag3
(g43
g5
Ntp527
Rp528
(dp529
g10
Nsg48
Nsg50
Nsg52
Nsg54
Nsg55
Nsg22
Nsg57
Nsg58
Nsg60
Nsg62
Nsg63
Nsg64
Nsg65
Nsg66
Nsg67
Nsg69
Nsg70
Nsg71
Nsg73
Nsg74
Nsg75
Nsg77
Vgatman7
p530
sg79
Nsg80
VGeorge Thompson
p531
sg82
Nsg84
Nsg86
I36681617
sg87
Nsbag3
(g43
g5
Ntp532
Rp533
(dp534
g10
Nsg48
Nsg50
Nsg52
Nsg54
Nsg55
Nsg22
Nsg57
Nsg58
Nsg60
Nsg62
Nsg63
Nsg64
Nsg65
Nsg66
Nsg67
Nsg69
Nsg70
Nsg71
Nsg73
Nsg74
Nsg75
Nsg77
VGenesSmile
p535
sg79
Nsg80
VKrissy Chase
p536
sg82
Nsg84
Nsg86
I74827928
sg87
Nsbag3
(g43
g5
Ntp537
Rp538
(dp539
g10
Nsg48
Nsg50
Nsg52
Nsg54
Nsg55
Nsg22
Nsg57
Nsg58
Nsg60
Nsg62
Nsg63
Nsg64
Nsg65
Nsg66
Nsg67
Nsg69
Nsg70
Nsg71
Nsg73
Nsg74
Nsg75
Nsg77
VGreen_Star1
p540
sg79
Nsg80
VRalph E McCrum
p541
sg82
Nsg84
Nsg86
I53590352
sg87
Nsbag3
(g43
g5
Ntp542
Rp543
(dp544
g10
Nsg48
Nsg50
Nsg52
Nsg54
Nsg55
Nsg22
Nsg57
Nsg58
Nsg60
Nsg62
Nsg63
Nsg64
Nsg65
Nsg66
Nsg67
Nsg69
Nsg70
Nsg71
Nsg73
Nsg74
Nsg75
Nsg77
VShaunTrades
p545
sg79
Nsg80
VMoney Talks
p546
sg82
Nsg84
Nsg86
I213315220
sg87
Nsbag3
(g43
g5
Ntp547
Rp548
(dp549
g10
Nsg48
Nsg50
Nsg52
Nsg54
Nsg55
Nsg22
Nsg57
Nsg58
Nsg60
Nsg62
Nsg63
Nsg64
Nsg65
Nsg66
Nsg67
Nsg69
Nsg70
Nsg71
Nsg73
Nsg74
Nsg75
Nsg77
Vcheapcigar
p550
sg79
Nsg80
VSublimin_Al
p551
sg82
Nsg84
Nsg86
I1255621518
sg87
Nsbag3
(g43
g5
Ntp552
Rp553
(dp554
g10
Nsg48
Nsg50
Nsg52
Nsg54
Nsg55
Nsg22
Nsg57
Nsg58
Nsg60
Nsg62
Nsg63
Nsg64
Nsg65
Nsg66
Nsg67
Nsg69
Nsg70
Nsg71
Nsg73
Nsg74
Nsg75
Nsg77
VWANAGL
p555
sg79
Nsg80
VWANAGL #OiP 
p556
sg82
Nsg84
Nsg86
I719756991
sg87
Nsbag3
(g43
g5
Ntp557
Rp558
(dp559
g10
Nsg48
Nsg50
Nsg52
Nsg54
Nsg55
Nsg22
Nsg57
Nsg58
Nsg60
Nsg62
Nsg63
Nsg64
Nsg65
Nsg66
Nsg67
Nsg69
Nsg70
Nsg71
Nsg73
Nsg74
Nsg75
Nsg77
Vtexasflutegal
p560
sg79
Nsg80
VJeannette Burleigh
p561
sg82
Nsg84
Nsg86
I156791542
sg87
Nsbag3
(g43
g5
Ntp562
Rp563
(dp564
g10
Nsg48
Nsg50
Nsg52
Nsg54
Nsg55
Nsg22
Nsg57
Nsg58
Nsg60
Nsg62
Nsg63
Nsg64
Nsg65
Nsg66
Nsg67
Nsg69
Nsg70
Nsg71
Nsg73
Nsg74
Nsg75
Nsg77
VSuperman6869
p565
sg79
Nsg80
VSuperman
p566
sg82
Nsg84
Nsg86
I137820750
sg87
Nsbag3
(g43
g5
Ntp567
Rp568
(dp569
g10
Nsg48
Nsg50
Nsg52
Nsg54
Nsg55
Nsg22
Nsg57
Nsg58
Nsg60
Nsg62
Nsg63
Nsg64
Nsg65
Nsg66
Nsg67
Nsg69
Nsg70
Nsg71
Nsg73
Nsg74
Nsg75
Nsg77
VQueen_V1216
p570
sg79
Nsg80
VVickie Barnachea
p571
sg82
Nsg84
Nsg86
I265645992
sg87
Nsbag3
(g43
g5
Ntp572
Rp573
(dp574
g10
Nsg48
Nsg50
Nsg52
Nsg54
Nsg55
Nsg22
Nsg57
Nsg58
Nsg60
Nsg62
Nsg63
Nsg64
Nsg65
Nsg66
Nsg67
Nsg69
Nsg70
Nsg71
Nsg73
Nsg74
Nsg75
Nsg77
VTrickerKeeTs
p575
sg79
Nsg80
VTricker KeeTs
p576
sg82
Nsg84
Nsg86
I2738347879
sg87
Nsbag3
(g43
g5
Ntp577
Rp578
(dp579
g10
Nsg48
Nsg50
Nsg52
Nsg54
Nsg55
Nsg22
Nsg57
Nsg58
Nsg60
Nsg62
Nsg63
Nsg64
Nsg65
Nsg66
Nsg67
Nsg69
Nsg70
Nsg71
Nsg73
Nsg74
Nsg75
Nsg77
VDaggy1
p580
sg79
Nsg80
VDagwood Bumstead
p581
sg82
Nsg84
Nsg86
I24305174
sg87
Nsbasg34
Nsg35
Nsg36
Nsg37
VRT @yrwol7: @gatman7 TYGeorge @GenesSmile @Green_Star1 @ShaunTrades @cheapcigar @WANAGL @texasflutegal @Superman6869 @Queen_V1216 @TrickerK\u2026
p582
sg39
I00
sg40
Ven
p583
sg42
g3
(g43
g5
Ntp584
Rp585
(dp586
g10
V \ufe3b\u2566\u2564\u2500\u2500   \ufe3b\u2566\u2564\u2500\u2500   \ufe3b\u2566\u2564\u2500\u2500   \ufe3b\u2566\u2564\u2500\u2500
p587
sg48
V333333
p588
sg50
Ven-gb
p589
sg52
VLondon
p590
sg54
I4552
sg55
I25702
sg22
VSat Mar 09 23:39:32 +0000 2013
p591
sg57
I00
sg58
VPatriot, Army Veteran from 40 yrs ago, love my rescued dogs, rifles, pistols, and freedom. God Bless all US Armed Forces, Active,Vets,& Deceased. #NRA #PJNET
p592
sg60
Vhttps://pbs.twimg.com/profile_images/542439961106997251/Qt0kA7_R_normal.jpeg
p593
sg62
I4549
sg63
I8473
sg64
I0
sg65
Nsg66
I00
sg67
Vhttps://pbs.twimg.com/profile_banners/1255621518/1418165233
p594
sg69
I00
sg70
I00
sg71
VBD1C1C
p595
sg73
I00
sg74
I00
sg75
Vhttp://abs.twimg.com/images/themes/theme1/bg.png
p596
sg77
Vcheapcigar
p597
sg79
I85
sg80
VSublimin_Al
p598
sg82
VDDEEF6
p599
sg84
Vhttp://t.co/mFeQgMWOgQ
p600
sg86
I1255621518
sg87
VC0DEED
p601
sbsg89
I1
sg90
V<a href="http://twitter.com/download/iphone" rel="nofollow">Twitter for iPhone</a>
p602
sg92
(lp603
sg86
I543701757118140416
sbag3
(g4
g5
Ntp604
Rp605
(dp606
g9
I0
sg10
Nsg11
Nsg12
(lp607
g3
(ctwitter.hashtag
Hashtag
p608
g5
Ntp609
Rp610
(dp611
S'text'
p612
Vff
p613
sbasg14
I00
sg15
g3
(g4
g5
Ntp614
Rp615
(dp616
g9
I3
sg10
Nsg11
Nsg12
(lp617
g3
(g608
g5
Ntp618
Rp619
(dp620
g612
Vff
p621
sbasg14
I00
sg15
Nsg16
Nsg17
(lp622
sg19
Nsg20
Nsg21
Nsg22
VFri Dec 12 17:57:22 +0000 2014
p623
sg24
Nsg25
Nsg26
Vgatman7
p624
sg27
Nsg28
I36681617
sg29
Nsg30
I00
sg31
Nsg32
(lp625
g3
(g43
g5
Ntp626
Rp627
(dp628
g10
Nsg48
Nsg50
Nsg52
Nsg54
Nsg55
Nsg22
Nsg57
Nsg58
Nsg60
Nsg62
Nsg63
Nsg64
Nsg65
Nsg66
Nsg67
Nsg69
Nsg70
Nsg71
Nsg73
Nsg74
Nsg75
Nsg77
Vgatman7
p629
sg79
Nsg80
VGeorge Thompson
p630
sg82
Nsg84
Nsg86
I36681617
sg87
Nsbag3
(g43
g5
Ntp631
Rp632
(dp633
g10
Nsg48
Nsg50
Nsg52
Nsg54
Nsg55
Nsg22
Nsg57
Nsg58
Nsg60
Nsg62
Nsg63
Nsg64
Nsg65
Nsg66
Nsg67
Nsg69
Nsg70
Nsg71
Nsg73
Nsg74
Nsg75
Nsg77
VGenesSmile
p634
sg79
Nsg80
VKrissy Chase
p635
sg82
Nsg84
Nsg86
I74827928
sg87
Nsbag3
(g43
g5
Ntp636
Rp637
(dp638
g10
Nsg48
Nsg50
Nsg52
Nsg54
Nsg55
Nsg22
Nsg57
Nsg58
Nsg60
Nsg62
Nsg63
Nsg64
Nsg65
Nsg66
Nsg67
Nsg69
Nsg70
Nsg71
Nsg73
Nsg74
Nsg75
Nsg77
VGreen_Star1
p639
sg79
Nsg80
VRalph E McCrum
p640
sg82
Nsg84
Nsg86
I53590352
sg87
Nsbag3
(g43
g5
Ntp641
Rp642
(dp643
g10
Nsg48
Nsg50
Nsg52
Nsg54
Nsg55
Nsg22
Nsg57
Nsg58
Nsg60
Nsg62
Nsg63
Nsg64
Nsg65
Nsg66
Nsg67
Nsg69
Nsg70
Nsg71
Nsg73
Nsg74
Nsg75
Nsg77
VShaunTrades
p644
sg79
Nsg80
VMoney Talks
p645
sg82
Nsg84
Nsg86
I213315220
sg87
Nsbag3
(g43
g5
Ntp646
Rp647
(dp648
g10
Nsg48
Nsg50
Nsg52
Nsg54
Nsg55
Nsg22
Nsg57
Nsg58
Nsg60
Nsg62
Nsg63
Nsg64
Nsg65
Nsg66
Nsg67
Nsg69
Nsg70
Nsg71
Nsg73
Nsg74
Nsg75
Nsg77
Vcheapcigar
p649
sg79
Nsg80
VSublimin_Al
p650
sg82
Nsg84
Nsg86
I1255621518
sg87
Nsbag3
(g43
g5
Ntp651
Rp652
(dp653
g10
Nsg48
Nsg50
Nsg52
Nsg54
Nsg55
Nsg22
Nsg57
Nsg58
Nsg60
Nsg62
Nsg63
Nsg64
Nsg65
Nsg66
Nsg67
Nsg69
Nsg70
Nsg71
Nsg73
Nsg74
Nsg75
Nsg77
VWANAGL
p654
sg79
Nsg80
VWANAGL #OiP 
p655
sg82
Nsg84
Nsg86
I719756991
sg87
Nsbag3
(g43
g5
Ntp656
Rp657
(dp658
g10
Nsg48
Nsg50
Nsg52
Nsg54
Nsg55
Nsg22
Nsg57
Nsg58
Nsg60
Nsg62
Nsg63
Nsg64
Nsg65
Nsg66
Nsg67
Nsg69
Nsg70
Nsg71
Nsg73
Nsg74
Nsg75
Nsg77
VSuperman6869
p659
sg79
Nsg80
VSuperman
p660
sg82
Nsg84
Nsg86
I137820750
sg87
Nsbag3
(g43
g5
Ntp661
Rp662
(dp663
g10
Nsg48
Nsg50
Nsg52
Nsg54
Nsg55
Nsg22
Nsg57
Nsg58
Nsg60
Nsg62
Nsg63
Nsg64
Nsg65
Nsg66
Nsg67
Nsg69
Nsg70
Nsg71
Nsg73
Nsg74
Nsg75
Nsg77
VQueen_V1216
p664
sg79
Nsg80
VVickie Barnachea
p665
sg82
Nsg84
Nsg86
I265645992
sg87
Nsbag3
(g43
g5
Ntp666
Rp667
(dp668
g10
Nsg48
Nsg50
Nsg52
Nsg54
Nsg55
Nsg22
Nsg57
Nsg58
Nsg60
Nsg62
Nsg63
Nsg64
Nsg65
Nsg66
Nsg67
Nsg69
Nsg70
Nsg71
Nsg73
Nsg74
Nsg75
Nsg77
VTrickerKeeTs
p669
sg79
Nsg80
VTricker KeeTs
p670
sg82
Nsg84
Nsg86
I2738347879
sg87
Nsbag3
(g43
g5
Ntp671
Rp672
(dp673
g10
Nsg48
Nsg50
Nsg52
Nsg54
Nsg55
Nsg22
Nsg57
Nsg58
Nsg60
Nsg62
Nsg63
Nsg64
Nsg65
Nsg66
Nsg67
Nsg69
Nsg70
Nsg71
Nsg73
Nsg74
Nsg75
Nsg77
Vyrwol7
p674
sg79
Nsg80
VColleen White 
p675
sg82
Nsg84
Nsg86
I412776430
sg87
Nsbag3
(g43
g5
Ntp676
Rp677
(dp678
g10
Nsg48
Nsg50
Nsg52
Nsg54
Nsg55
Nsg22
Nsg57
Nsg58
Nsg60
Nsg62
Nsg63
Nsg64
Nsg65
Nsg66
Nsg67
Nsg69
Nsg70
Nsg71
Nsg73
Nsg74
Nsg75
Nsg77
VDaggy1
p679
sg79
Nsg80
VDagwood Bumstead
p680
sg82
Nsg84
Nsg86
I24305174
sg87
Nsbasg34
Nsg35
Nsg36
I543451334599782400
sg37
V@gatman7 TY4 the #ff! @GenesSmile @Green_Star1 @ShaunTrades @cheapcigar @WANAGL @Superman6869 @Queen_V1216 @TrickerKeeTs @yrwol7 @Daggy1
p681
sg39
I00
sg40
Ven
p682
sg42
g3
(g43
g5
Ntp683
Rp684
(dp685
g10
VSan Marcos,Texas 
p686
sg48
V08080A
p687
sg50
Ven
p688
sg52
VHawaii
p689
sg54
I6517
sg55
I86404
sg22
VThu Jun 17 23:29:49 +0000 2010
p690
sg57
I00
sg58
VI am a person who believes that you are never too old to dream new dreams or start new adventures.
p691
sg60
Vhttps://pbs.twimg.com/profile_images/378800000122231557/ffdceb48670d7c65848b2cc6332fb70a_normal.jpeg
p692
sg62
I6519
sg63
I1590
sg64
I-36000
sg65
Nsg66
I00
sg67
Vhttps://pbs.twimg.com/profile_banners/156791542/1364787552
p693
sg69
I00
sg70
I01
sg71
V0A0102
p694
sg73
I01
sg74
I00
sg75
Vhttp://pbs.twimg.com/profile_background_images/113477541/heart3.bmp
p695
sg77
Vtexasflutegal
p696
sg79
I313
sg80
VJeannette Burleigh
p697
sg82
V7A6A53
p698
sg84
Vhttp://t.co/TUOs8Hwadj
p699
sg86
I156791542
sg87
VD9CEB2
p700
sbsg89
I1
sg90
V<a href="http://twitter.com/download/iphone" rel="nofollow">Twitter for iPhone</a>
p701
sg92
(lp702
sg86
I543464642215813121
sbsg16
Nsg17
(lp703
sg19
Nsg20
Nsg21
Nsg22
VSat Dec 13 09:38:57 +0000 2014
p704
sg24
Nsg25
Nsg26
Nsg27
Nsg28
Nsg29
Nsg30
I00
sg31
Nsg32
(lp705
g3
(g43
g5
Ntp706
Rp707
(dp708
g10
Nsg48
Nsg50
Nsg52
Nsg54
Nsg55
Nsg22
Nsg57
Nsg58
Nsg60
Nsg62
Nsg63
Nsg64
Nsg65
Nsg66
Nsg67
Nsg69
Nsg70
Nsg71
Nsg73
Nsg74
Nsg75
Nsg77
Vtexasflutegal
p709
sg79
Nsg80
VJeannette Burleigh
p710
sg82
Nsg84
Nsg86
I156791542
sg87
Nsbag3
(g43
g5
Ntp711
Rp712
(dp713
g10
Nsg48
Nsg50
Nsg52
Nsg54
Nsg55
Nsg22
Nsg57
Nsg58
Nsg60
Nsg62
Nsg63
Nsg64
Nsg65
Nsg66
Nsg67
Nsg69
Nsg70
Nsg71
Nsg73
Nsg74
Nsg75
Nsg77
Vgatman7
p714
sg79
Nsg80
VGeorge Thompson
p715
sg82
Nsg84
Nsg86
I36681617
sg87
Nsbag3
(g43
g5
Ntp716
Rp717
(dp718
g10
Nsg48
Nsg50
Nsg52
Nsg54
Nsg55
Nsg22
Nsg57
Nsg58
Nsg60
Nsg62
Nsg63
Nsg64
Nsg65
Nsg66
Nsg67
Nsg69
Nsg70
Nsg71
Nsg73
Nsg74
Nsg75
Nsg77
VGenesSmile
p719
sg79
Nsg80
VKrissy Chase
p720
sg82
Nsg84
Nsg86
I74827928
sg87
Nsbag3
(g43
g5
Ntp721
Rp722
(dp723
g10
Nsg48
Nsg50
Nsg52
Nsg54
Nsg55
Nsg22
Nsg57
Nsg58
Nsg60
Nsg62
Nsg63
Nsg64
Nsg65
Nsg66
Nsg67
Nsg69
Nsg70
Nsg71
Nsg73
Nsg74
Nsg75
Nsg77
VGreen_Star1
p724
sg79
Nsg80
VRalph E McCrum
p725
sg82
Nsg84
Nsg86
I53590352
sg87
Nsbag3
(g43
g5
Ntp726
Rp727
(dp728
g10
Nsg48
Nsg50
Nsg52
Nsg54
Nsg55
Nsg22
Nsg57
Nsg58
Nsg60
Nsg62
Nsg63
Nsg64
Nsg65
Nsg66
Nsg67
Nsg69
Nsg70
Nsg71
Nsg73
Nsg74
Nsg75
Nsg77
VShaunTrades
p729
sg79
Nsg80
VMoney Talks
p730
sg82
Nsg84
Nsg86
I213315220
sg87
Nsbag3
(g43
g5
Ntp731
Rp732
(dp733
g10
Nsg48
Nsg50
Nsg52
Nsg54
Nsg55
Nsg22
Nsg57
Nsg58
Nsg60
Nsg62
Nsg63
Nsg64
Nsg65
Nsg66
Nsg67
Nsg69
Nsg70
Nsg71
Nsg73
Nsg74
Nsg75
Nsg77
Vcheapcigar
p734
sg79
Nsg80
VSublimin_Al
p735
sg82
Nsg84
Nsg86
I1255621518
sg87
Nsbag3
(g43
g5
Ntp736
Rp737
(dp738
g10
Nsg48
Nsg50
Nsg52
Nsg54
Nsg55
Nsg22
Nsg57
Nsg58
Nsg60
Nsg62
Nsg63
Nsg64
Nsg65
Nsg66
Nsg67
Nsg69
Nsg70
Nsg71
Nsg73
Nsg74
Nsg75
Nsg77
VWANAGL
p739
sg79
Nsg80
VWANAGL #OiP 
p740
sg82
Nsg84
Nsg86
I719756991
sg87
Nsbag3
(g43
g5
Ntp741
Rp742
(dp743
g10
Nsg48
Nsg50
Nsg52
Nsg54
Nsg55
Nsg22
Nsg57
Nsg58
Nsg60
Nsg62
Nsg63
Nsg64
Nsg65
Nsg66
Nsg67
Nsg69
Nsg70
Nsg71
Nsg73
Nsg74
Nsg75
Nsg77
VSuperman6869
p744
sg79
Nsg80
VSuperman
p745
sg82
Nsg84
Nsg86
I137820750
sg87
Nsbag3
(g43
g5
Ntp746
Rp747
(dp748
g10
Nsg48
Nsg50
Nsg52
Nsg54
Nsg55
Nsg22
Nsg57
Nsg58
Nsg60
Nsg62
Nsg63
Nsg64
Nsg65
Nsg66
Nsg67
Nsg69
Nsg70
Nsg71
Nsg73
Nsg74
Nsg75
Nsg77
VQueen_V1216
p749
sg79
Nsg80
VVickie Barnachea
p750
sg82
Nsg84
Nsg86
I265645992
sg87
Nsbag3
(g43
g5
Ntp751
Rp752
(dp753
g10
Nsg48
Nsg50
Nsg52
Nsg54
Nsg55
Nsg22
Nsg57
Nsg58
Nsg60
Nsg62
Nsg63
Nsg64
Nsg65
Nsg66
Nsg67
Nsg69
Nsg70
Nsg71
Nsg73
Nsg74
Nsg75
Nsg77
VTrickerKeeTs
p754
sg79
Nsg80
VTricker KeeTs
p755
sg82
Nsg84
Nsg86
I2738347879
sg87
Nsbag3
(g43
g5
Ntp756
Rp757
(dp758
g10
Nsg48
Nsg50
Nsg52
Nsg54
Nsg55
Nsg22
Nsg57
Nsg58
Nsg60
Nsg62
Nsg63
Nsg64
Nsg65
Nsg66
Nsg67
Nsg69
Nsg70
Nsg71
Nsg73
Nsg74
Nsg75
Nsg77
Vyrwol7
p759
sg79
Nsg80
VColleen White 
p760
sg82
Nsg84
Nsg86
I412776430
sg87
Nsbag3
(g43
g5
Ntp761
Rp762
(dp763
g10
Nsg48
Nsg50
Nsg52
Nsg54
Nsg55
Nsg22
Nsg57
Nsg58
Nsg60
Nsg62
Nsg63
Nsg64
Nsg65
Nsg66
Nsg67
Nsg69
Nsg70
Nsg71
Nsg73
Nsg74
Nsg75
Nsg77
VDaggy1
p764
sg79
Nsg80
VDagwood Bumstead
p765
sg82
Nsg84
Nsg86
I24305174
sg87
Nsbasg34
Nsg35
Nsg36
Nsg37
VRT @texasflutegal: @gatman7 TY4 the #ff! @GenesSmile @Green_Star1 @ShaunTrades @cheapcigar @WANAGL @Superman6869 @Queen_V1216 @TrickerKeeTs\u2026
p766
sg39
I00
sg40
Ven
p767
sg42
g3
(g43
g5
Ntp768
Rp769
(dp770
g10
V \ufe3b\u2566\u2564\u2500\u2500   \ufe3b\u2566\u2564\u2500\u2500   \ufe3b\u2566\u2564\u2500\u2500   \ufe3b\u2566\u2564\u2500\u2500
p771
sg48
V333333
p772
sg50
Ven-gb
p773
sg52
VLondon
p774
sg54
I4552
sg55
I25702
sg22
VSat Mar 09 23:39:32 +0000 2013
p775
sg57
I00
sg58
VPatriot, Army Veteran from 40 yrs ago, love my rescued dogs, rifles, pistols, and freedom. God Bless all US Armed Forces, Active,Vets,& Deceased. #NRA #PJNET
p776
sg60
Vhttps://pbs.twimg.com/profile_images/542439961106997251/Qt0kA7_R_normal.jpeg
p777
sg62
I4549
sg63
I8473
sg64
I0
sg65
Nsg66
I00
sg67
Vhttps://pbs.twimg.com/profile_banners/1255621518/1418165233
p778
sg69
I00
sg70
I00
sg71
VBD1C1C
p779
sg73
I00
sg74
I00
sg75
Vhttp://abs.twimg.com/images/themes/theme1/bg.png
p780
sg77
Vcheapcigar
p781
sg79
I85
sg80
VSublimin_Al
p782
sg82
VDDEEF6
p783
sg84
Vhttp://t.co/mFeQgMWOgQ
p784
sg86
I1255621518
sg87
VC0DEED
p785
sbsg89
I1
sg90
V<a href="http://twitter.com/download/iphone" rel="nofollow">Twitter for iPhone</a>
p786
sg92
(lp787
sg86
I543701601719160834
sbag3
(g4
g5
Ntp788
Rp789
(dp790
g9
I0
sg10
Nsg11
Nsg12
(lp791
g3
(g608
g5
Ntp792
Rp793
(dp794
g612
VFF
p795
sbasg14
I00
sg15
g3
(g4
g5
Ntp796
Rp797
(dp798
g9
I3
sg10
Nsg11
Nsg12
(lp799
g3
(g608
g5
Ntp800
Rp801
(dp802
g612
VFF
p803
sbasg14
I00
sg15
Nsg16
Nsg17
(lp804
sg19
Nsg20
Nsg21
Nsg22
VFri Dec 12 20:00:38 +0000 2014
p805
sg24
Nsg25
Nsg26
Vgatman7
p806
sg27
Nsg28
I36681617
sg29
Nsg30
I00
sg31
Nsg32
(lp807
g3
(g43
g5
Ntp808
Rp809
(dp810
g10
Nsg48
Nsg50
Nsg52
Nsg54
Nsg55
Nsg22
Nsg57
Nsg58
Nsg60
Nsg62
Nsg63
Nsg64
Nsg65
Nsg66
Nsg67
Nsg69
Nsg70
Nsg71
Nsg73
Nsg74
Nsg75
Nsg77
Vgatman7
p811
sg79
Nsg80
VGeorge Thompson
p812
sg82
Nsg84
Nsg86
I36681617
sg87
Nsbag3
(g43
g5
Ntp813
Rp814
(dp815
g10
Nsg48
Nsg50
Nsg52
Nsg54
Nsg55
Nsg22
Nsg57
Nsg58
Nsg60
Nsg62
Nsg63
Nsg64
Nsg65
Nsg66
Nsg67
Nsg69
Nsg70
Nsg71
Nsg73
Nsg74
Nsg75
Nsg77
VGenesSmile
p816
sg79
Nsg80
VKrissy Chase
p817
sg82
Nsg84
Nsg86
I74827928
sg87
Nsbag3
(g43
g5
Ntp818
Rp819
(dp820
g10
Nsg48
Nsg50
Nsg52
Nsg54
Nsg55
Nsg22
Nsg57
Nsg58
Nsg60
Nsg62
Nsg63
Nsg64
Nsg65
Nsg66
Nsg67
Nsg69
Nsg70
Nsg71
Nsg73
Nsg74
Nsg75
Nsg77
VGreen_Star1
p821
sg79
Nsg80
VRalph E McCrum
p822
sg82
Nsg84
Nsg86
I53590352
sg87
Nsbag3
(g43
g5
Ntp823
Rp824
(dp825
g10
Nsg48
Nsg50
Nsg52
Nsg54
Nsg55
Nsg22
Nsg57
Nsg58
Nsg60
Nsg62
Nsg63
Nsg64
Nsg65
Nsg66
Nsg67
Nsg69
Nsg70
Nsg71
Nsg73
Nsg74
Nsg75
Nsg77
VShaunTrades
p826
sg79
Nsg80
VMoney Talks
p827
sg82
Nsg84
Nsg86
I213315220
sg87
Nsbag3
(g43
g5
Ntp828
Rp829
(dp830
g10
Nsg48
Nsg50
Nsg52
Nsg54
Nsg55
Nsg22
Nsg57
Nsg58
Nsg60
Nsg62
Nsg63
Nsg64
Nsg65
Nsg66
Nsg67
Nsg69
Nsg70
Nsg71
Nsg73
Nsg74
Nsg75
Nsg77
Vcheapcigar
p831
sg79
Nsg80
VSublimin_Al
p832
sg82
Nsg84
Nsg86
I1255621518
sg87
Nsbag3
(g43
g5
Ntp833
Rp834
(dp835
g10
Nsg48
Nsg50
Nsg52
Nsg54
Nsg55
Nsg22
Nsg57
Nsg58
Nsg60
Nsg62
Nsg63
Nsg64
Nsg65
Nsg66
Nsg67
Nsg69
Nsg70
Nsg71
Nsg73
Nsg74
Nsg75
Nsg77
Vtexasflutegal
p836
sg79
Nsg80
VJeannette Burleigh
p837
sg82
Nsg84
Nsg86
I156791542
sg87
Nsbag3
(g43
g5
Ntp838
Rp839
(dp840
g10
Nsg48
Nsg50
Nsg52
Nsg54
Nsg55
Nsg22
Nsg57
Nsg58
Nsg60
Nsg62
Nsg63
Nsg64
Nsg65
Nsg66
Nsg67
Nsg69
Nsg70
Nsg71
Nsg73
Nsg74
Nsg75
Nsg77
VSuperman6869
p841
sg79
Nsg80
VSuperman
p842
sg82
Nsg84
Nsg86
I137820750
sg87
Nsbag3
(g43
g5
Ntp843
Rp844
(dp845
g10
Nsg48
Nsg50
Nsg52
Nsg54
Nsg55
Nsg22
Nsg57
Nsg58
Nsg60
Nsg62
Nsg63
Nsg64
Nsg65
Nsg66
Nsg67
Nsg69
Nsg70
Nsg71
Nsg73
Nsg74
Nsg75
Nsg77
VQueen_V1216
p846
sg79
Nsg80
VVickie Barnachea
p847
sg82
Nsg84
Nsg86
I265645992
sg87
Nsbag3
(g43
g5
Ntp848
Rp849
(dp850
g10
Nsg48
Nsg50
Nsg52
Nsg54
Nsg55
Nsg22
Nsg57
Nsg58
Nsg60
Nsg62
Nsg63
Nsg64
Nsg65
Nsg66
Nsg67
Nsg69
Nsg70
Nsg71
Nsg73
Nsg74
Nsg75
Nsg77
VTrickerKeeTs
p851
sg79
Nsg80
VTricker KeeTs
p852
sg82
Nsg84
Nsg86
I2738347879
sg87
Nsbag3
(g43
g5
Ntp853
Rp854
(dp855
g10
Nsg48
Nsg50
Nsg52
Nsg54
Nsg55
Nsg22
Nsg57
Nsg58
Nsg60
Nsg62
Nsg63
Nsg64
Nsg65
Nsg66
Nsg67
Nsg69
Nsg70
Nsg71
Nsg73
Nsg74
Nsg75
Nsg77
Vyrwol7
p856
sg79
Nsg80
VColleen White 
p857
sg82
Nsg84
Nsg86
I412776430
sg87
Nsbag3
(g43
g5
Ntp858
Rp859
(dp860
g10
Nsg48
Nsg50
Nsg52
Nsg54
Nsg55
Nsg22
Nsg57
Nsg58
Nsg60
Nsg62
Nsg63
Nsg64
Nsg65
Nsg66
Nsg67
Nsg69
Nsg70
Nsg71
Nsg73
Nsg74
Nsg75
Nsg77
VDaggy1
p861
sg79
Nsg80
VDagwood Bumstead
p862
sg82
Nsg84
Nsg86
I24305174
sg87
Nsbasg34
Nsg35
Nsg36
I543451334599782400
sg37
V#FF All! @gatman7 @GenesSmile @Green_Star1 @ShaunTrades @cheapcigar @texasflutegal @Superman6869 @Queen_V1216 @TrickerKeeTs @yrwol7 @Daggy1
p863
sg39
I00
sg40
Vund
p864
sg42
g3
(g43
g5
Ntp865
Rp866
(dp867
g10
V
p868
sg48
V333333
p869
sg50
Ven
p870
sg52
Nsg54
I1713
sg55
I11096
sg22
VThu Oct 17 21:49:00 +0000 2013
p871
sg57
I00
sg58
VBusiness Owner  #Conservative  #Christian  #PJNet  #UPPUSA  #CCOT  #Patriot   #RedStateRising  #2ndAmmendment  #NRA  #TeaParty  #ObamaMustBeStopped  #OiP
p872
sg60
Vhttps://pbs.twimg.com/profile_images/539840189896462338/WuEZESSI_normal.png
p873
sg62
I1933
sg63
I10181
sg64
Nsg65
Nsg66
I00
sg67
Vhttps://pbs.twimg.com/profile_banners/719756991/1399995507
p874
sg69
I00
sg70
I00
sg71
V0084B4
p875
sg73
I00
sg74
I00
sg75
Vhttp://abs.twimg.com/images/themes/theme1/bg.png
p876
sg77
VWANAGL
p877
sg79
I21
sg80
VWANAGL #OiP 
p878
sg82
VDDEEF6
p879
sg84
Nsg86
I719756991
sg87
VC0DEED
p880
sbsg89
I5
sg90
V<a href="https://twitter.com/download/android" rel="nofollow">Twitter for Android Tablets</a>
p881
sg92
(lp882
sg86
I543495664488165376
sbsg16
Nsg17
(lp883
sg19
Nsg20
Nsg21
Nsg22
VSat Dec 13 09:38:54 +0000 2014
p884
sg24
Nsg25
Nsg26
Nsg27
Nsg28
Nsg29
Nsg30
I00
sg31
Nsg32
(lp885
g3
(g43
g5
Ntp886
Rp887
(dp888
g10
Nsg48
Nsg50
Nsg52
Nsg54
Nsg55
Nsg22
Nsg57
Nsg58
Nsg60
Nsg62
Nsg63
Nsg64
Nsg65
Nsg66
Nsg67
Nsg69
Nsg70
Nsg71
Nsg73
Nsg74
Nsg75
Nsg77
VWANAGL
p889
sg79
Nsg80
VWANAGL #OiP 
p890
sg82
Nsg84
Nsg86
I719756991
sg87
Nsbag3
(g43
g5
Ntp891
Rp892
(dp893
g10
Nsg48
Nsg50
Nsg52
Nsg54
Nsg55
Nsg22
Nsg57
Nsg58
Nsg60
Nsg62
Nsg63
Nsg64
Nsg65
Nsg66
Nsg67
Nsg69
Nsg70
Nsg71
Nsg73
Nsg74
Nsg75
Nsg77
Vgatman7
p894
sg79
Nsg80
VGeorge Thompson
p895
sg82
Nsg84
Nsg86
I36681617
sg87
Nsbag3
(g43
g5
Ntp896
Rp897
(dp898
g10
Nsg48
Nsg50
Nsg52
Nsg54
Nsg55
Nsg22
Nsg57
Nsg58
Nsg60
Nsg62
Nsg63
Nsg64
Nsg65
Nsg66
Nsg67
Nsg69
Nsg70
Nsg71
Nsg73
Nsg74
Nsg75
Nsg77
VGenesSmile
p899
sg79
Nsg80
VKrissy Chase
p900
sg82
Nsg84
Nsg86
I74827928
sg87
Nsbag3
(g43
g5
Ntp901
Rp902
(dp903
g10
Nsg48
Nsg50
Nsg52
Nsg54
Nsg55
Nsg22
Nsg57
Nsg58
Nsg60
Nsg62
Nsg63
Nsg64
Nsg65
Nsg66
Nsg67
Nsg69
Nsg70
Nsg71
Nsg73
Nsg74
Nsg75
Nsg77
VGreen_Star1
p904
sg79
Nsg80
VRalph E McCrum
p905
sg82
Nsg84
Nsg86
I53590352
sg87
Nsbag3
(g43
g5
Ntp906
Rp907
(dp908
g10
Nsg48
Nsg50
Nsg52
Nsg54
Nsg55
Nsg22
Nsg57
Nsg58
Nsg60
Nsg62
Nsg63
Nsg64
Nsg65
Nsg66
Nsg67
Nsg69
Nsg70
Nsg71
Nsg73
Nsg74
Nsg75
Nsg77
VShaunTrades
p909
sg79
Nsg80
VMoney Talks
p910
sg82
Nsg84
Nsg86
I213315220
sg87
Nsbag3
(g43
g5
Ntp911
Rp912
(dp913
g10
Nsg48
Nsg50
Nsg52
Nsg54
Nsg55
Nsg22
Nsg57
Nsg58
Nsg60
Nsg62
Nsg63
Nsg64
Nsg65
Nsg66
Nsg67
Nsg69
Nsg70
Nsg71
Nsg73
Nsg74
Nsg75
Nsg77
Vcheapcigar
p914
sg79
Nsg80
VSublimin_Al
p915
sg82
Nsg84
Nsg86
I1255621518
sg87
Nsbag3
(g43
g5
Ntp916
Rp917
(dp918
g10
Nsg48
Nsg50
Nsg52
Nsg54
Nsg55
Nsg22
Nsg57
Nsg58
Nsg60
Nsg62
Nsg63
Nsg64
Nsg65
Nsg66
Nsg67
Nsg69
Nsg70
Nsg71
Nsg73
Nsg74
Nsg75
Nsg77
Vtexasflutegal
p919
sg79
Nsg80
VJeannette Burleigh
p920
sg82
Nsg84
Nsg86
I156791542
sg87
Nsbag3
(g43
g5
Ntp921
Rp922
(dp923
g10
Nsg48
Nsg50
Nsg52
Nsg54
Nsg55
Nsg22
Nsg57
Nsg58
Nsg60
Nsg62
Nsg63
Nsg64
Nsg65
Nsg66
Nsg67
Nsg69
Nsg70
Nsg71
Nsg73
Nsg74
Nsg75
Nsg77
VSuperman6869
p924
sg79
Nsg80
VSuperman
p925
sg82
Nsg84
Nsg86
I137820750
sg87
Nsbag3
(g43
g5
Ntp926
Rp927
(dp928
g10
Nsg48
Nsg50
Nsg52
Nsg54
Nsg55
Nsg22
Nsg57
Nsg58
Nsg60
Nsg62
Nsg63
Nsg64
Nsg65
Nsg66
Nsg67
Nsg69
Nsg70
Nsg71
Nsg73
Nsg74
Nsg75
Nsg77
VQueen_V1216
p929
sg79
Nsg80
VVickie Barnachea
p930
sg82
Nsg84
Nsg86
I265645992
sg87
Nsbag3
(g43
g5
Ntp931
Rp932
(dp933
g10
Nsg48
Nsg50
Nsg52
Nsg54
Nsg55
Nsg22
Nsg57
Nsg58
Nsg60
Nsg62
Nsg63
Nsg64
Nsg65
Nsg66
Nsg67
Nsg69
Nsg70
Nsg71
Nsg73
Nsg74
Nsg75
Nsg77
VTrickerKeeTs
p934
sg79
Nsg80
VTricker KeeTs
p935
sg82
Nsg84
Nsg86
I2738347879
sg87
Nsbag3
(g43
g5
Ntp936
Rp937
(dp938
g10
Nsg48
Nsg50
Nsg52
Nsg54
Nsg55
Nsg22
Nsg57
Nsg58
Nsg60
Nsg62
Nsg63
Nsg64
Nsg65
Nsg66
Nsg67
Nsg69
Nsg70
Nsg71
Nsg73
Nsg74
Nsg75
Nsg77
Vyrwol7
p939
sg79
Nsg80
VColleen White 
p940
sg82
Nsg84
Nsg86
I412776430
sg87
Nsbag3
(g43
g5
Ntp941
Rp942
(dp943
g10
Nsg48
Nsg50
Nsg52
Nsg54
Nsg55
Nsg22
Nsg57
Nsg58
Nsg60
Nsg62
Nsg63
Nsg64
Nsg65
Nsg66
Nsg67
Nsg69
Nsg70
Nsg71
Nsg73
Nsg74
Nsg75
Nsg77
VDaggy1
p944
sg79
Nsg80
VDagwood Bumstead
p945
sg82
Nsg84
Nsg86
I24305174
sg87
Nsbasg34
Nsg35
Nsg36
Nsg37
VRT @WANAGL: #FF All! @gatman7 @GenesSmile @Green_Star1 @ShaunTrades @cheapcigar @texasflutegal @Superman6869 @Queen_V1216 @TrickerKeeTs @yr\u2026
p946
sg39
I00
sg40
Vund
p947
sg42
g3
(g43
g5
Ntp948
Rp949
(dp950
g10
V \ufe3b\u2566\u2564\u2500\u2500   \ufe3b\u2566\u2564\u2500\u2500   \ufe3b\u2566\u2564\u2500\u2500   \ufe3b\u2566\u2564\u2500\u2500
p951
sg48
V333333
p952
sg50
Ven-gb
p953
sg52
VLondon
p954
sg54
I4552
sg55
I25702
sg22
VSat Mar 09 23:39:32 +0000 2013
p955
sg57
I00
sg58
VPatriot, Army Veteran from 40 yrs ago, love my rescued dogs, rifles, pistols, and freedom. God Bless all US Armed Forces, Active,Vets,& Deceased. #NRA #PJNET
p956
sg60
Vhttps://pbs.twimg.com/profile_images/542439961106997251/Qt0kA7_R_normal.jpeg
p957
sg62
I4549
sg63
I8473
sg64
I0
sg65
Nsg66
I00
sg67
Vhttps://pbs.twimg.com/profile_banners/1255621518/1418165233
p958
sg69
I00
sg70
I00
sg71
VBD1C1C
p959
sg73
I00
sg74
I00
sg75
Vhttp://abs.twimg.com/images/themes/theme1/bg.png
p960
sg77
Vcheapcigar
p961
sg79
I85
sg80
VSublimin_Al
p962
sg82
VDDEEF6
p963
sg84
Vhttp://t.co/mFeQgMWOgQ
p964
sg86
I1255621518
sg87
VC0DEED
p965
sbsg89
I5
sg90
V<a href="http://twitter.com/download/iphone" rel="nofollow">Twitter for iPhone</a>
p966
sg92
(lp967
sg86
I543701586976190464
sbag3
(g4
g5
Ntp968
Rp969
(dp970
g9
I0
sg10
Nsg11
Nsg12
(lp971
sg14
I00
sg15
g3
(g4
g5
Ntp972
Rp973
(dp974
g9
I4
sg10
Nsg11
Nsg12
(lp975
sg14
I00
sg15
Nsg16
Nsg17
(lp976
sg19
Nsg20
Nsg21
Nsg22
VFri Dec 12 20:13:01 +0000 2014
p977
sg24
Nsg25
Nsg26
VWANAGL
p978
sg27
Nsg28
I719756991
sg29
Nsg30
I00
sg31
Nsg32
(lp979
g3
(g43
g5
Ntp980
Rp981
(dp982
g10
Nsg48
Nsg50
Nsg52
Nsg54
Nsg55
Nsg22
Nsg57
Nsg58
Nsg60
Nsg62
Nsg63
Nsg64
Nsg65
Nsg66
Nsg67
Nsg69
Nsg70
Nsg71
Nsg73
Nsg74
Nsg75
Nsg77
VWANAGL
p983
sg79
Nsg80
VWANAGL #OiP 
p984
sg82
Nsg84
Nsg86
I719756991
sg87
Nsbag3
(g43
g5
Ntp985
Rp986
(dp987
g10
Nsg48
Nsg50
Nsg52
Nsg54
Nsg55
Nsg22
Nsg57
Nsg58
Nsg60
Nsg62
Nsg63
Nsg64
Nsg65
Nsg66
Nsg67
Nsg69
Nsg70
Nsg71
Nsg73
Nsg74
Nsg75
Nsg77
Vgatman7
p988
sg79
Nsg80
VGeorge Thompson
p989
sg82
Nsg84
Nsg86
I36681617
sg87
Nsbag3
(g43
g5
Ntp990
Rp991
(dp992
g10
Nsg48
Nsg50
Nsg52
Nsg54
Nsg55
Nsg22
Nsg57
Nsg58
Nsg60
Nsg62
Nsg63
Nsg64
Nsg65
Nsg66
Nsg67
Nsg69
Nsg70
Nsg71
Nsg73
Nsg74
Nsg75
Nsg77
VGenesSmile
p993
sg79
Nsg80
VKrissy Chase
p994
sg82
Nsg84
Nsg86
I74827928
sg87
Nsbag3
(g43
g5
Ntp995
Rp996
(dp997
g10
Nsg48
Nsg50
Nsg52
Nsg54
Nsg55
Nsg22
Nsg57
Nsg58
Nsg60
Nsg62
Nsg63
Nsg64
Nsg65
Nsg66
Nsg67
Nsg69
Nsg70
Nsg71
Nsg73
Nsg74
Nsg75
Nsg77
VGreen_Star1
p998
sg79
Nsg80
VRalph E McCrum
p999
sg82
Nsg84
Nsg86
I53590352
sg87
Nsbag3
(g43
g5
Ntp1000
Rp1001
(dp1002
g10
Nsg48
Nsg50
Nsg52
Nsg54
Nsg55
Nsg22
Nsg57
Nsg58
Nsg60
Nsg62
Nsg63
Nsg64
Nsg65
Nsg66
Nsg67
Nsg69
Nsg70
Nsg71
Nsg73
Nsg74
Nsg75
Nsg77
VShaunTrades
p1003
sg79
Nsg80
VMoney Talks
p1004
sg82
Nsg84
Nsg86
I213315220
sg87
Nsbag3
(g43
g5
Ntp1005
Rp1006
(dp1007
g10
Nsg48
Nsg50
Nsg52
Nsg54
Nsg55
Nsg22
Nsg57
Nsg58
Nsg60
Nsg62
Nsg63
Nsg64
Nsg65
Nsg66
Nsg67
Nsg69
Nsg70
Nsg71
Nsg73
Nsg74
Nsg75
Nsg77
Vcheapcigar
p1008
sg79
Nsg80
VSublimin_Al
p1009
sg82
Nsg84
Nsg86
I1255621518
sg87
Nsbag3
(g43
g5
Ntp1010
Rp1011
(dp1012
g10
Nsg48
Nsg50
Nsg52
Nsg54
Nsg55
Nsg22
Nsg57
Nsg58
Nsg60
Nsg62
Nsg63
Nsg64
Nsg65
Nsg66
Nsg67
Nsg69
Nsg70
Nsg71
Nsg73
Nsg74
Nsg75
Nsg77
Vtexasflutegal
p1013
sg79
Nsg80
VJeannette Burleigh
p1014
sg82
Nsg84
Nsg86
I156791542
sg87
Nsbag3
(g43
g5
Ntp1015
Rp1016
(dp1017
g10
Nsg48
Nsg50
Nsg52
Nsg54
Nsg55
Nsg22
Nsg57
Nsg58
Nsg60
Nsg62
Nsg63
Nsg64
Nsg65
Nsg66
Nsg67
Nsg69
Nsg70
Nsg71
Nsg73
Nsg74
Nsg75
Nsg77
VSuperman6869
p1018
sg79
Nsg80
VSuperman
p1019
sg82
Nsg84
Nsg86
I137820750
sg87
Nsbag3
(g43
g5
Ntp1020
Rp1021
(dp1022
g10
Nsg48
Nsg50
Nsg52
Nsg54
Nsg55
Nsg22
Nsg57
Nsg58
Nsg60
Nsg62
Nsg63
Nsg64
Nsg65
Nsg66
Nsg67
Nsg69
Nsg70
Nsg71
Nsg73
Nsg74
Nsg75
Nsg77
VTrickerKeeTs
p1023
sg79
Nsg80
VTricker KeeTs
p1024
sg82
Nsg84
Nsg86
I2738347879
sg87
Nsbag3
(g43
g5
Ntp1025
Rp1026
(dp1027
g10
Nsg48
Nsg50
Nsg52
Nsg54
Nsg55
Nsg22
Nsg57
Nsg58
Nsg60
Nsg62
Nsg63
Nsg64
Nsg65
Nsg66
Nsg67
Nsg69
Nsg70
Nsg71
Nsg73
Nsg74
Nsg75
Nsg77
Vyrwol7
p1028
sg79
Nsg80
VColleen White 
p1029
sg82
Nsg84
Nsg86
I412776430
sg87
Nsbag3
(g43
g5
Ntp1030
Rp1031
(dp1032
g10
Nsg48
Nsg50
Nsg52
Nsg54
Nsg55
Nsg22
Nsg57
Nsg58
Nsg60
Nsg62
Nsg63
Nsg64
Nsg65
Nsg66
Nsg67
Nsg69
Nsg70
Nsg71
Nsg73
Nsg74
Nsg75
Nsg77
VDaggy1
p1033
sg79
Nsg80
VDagwood Bumstead
p1034
sg82
Nsg84
Nsg86
I24305174
sg87
Nsbasg34
Nsg35
Nsg36
I543495664488165376
sg37
V@WANAGL @gatman7 @GenesSmile @Green_Star1 @ShaunTrades @cheapcigar @texasflutegal @Superman6869 @TrickerKeeTs @yrwol7 @Daggy1 T4DM WANAGL GD
p1035
sg39
I00
sg40
Vin
p1036
sg42
g3
(g43
g5
Ntp1037
Rp1038
(dp1039
g10
V #ORPUW
p1040
sg48
V333333
p1041
sg50
Ven
p1042
sg52
VEastern Time (US & Canada)
p1043
sg54
I2183
sg55
I82017
sg22
VSun Mar 13 22:54:01 +0000 2011
p1044
sg57
I00
sg58
VChairman 2012; Pres 2006-'12 UERMAFUSA; MEDCHI Alliance Pres '99-'00;PGMSA-Pres 92-'93 SMAA VP 2006; MARVADC;Mentor,adviser; PMAMWDC; Phi Theta Kappa Alpha
p1045
sg60
Vhttps://pbs.twimg.com/profile_images/378800000432361104/4983fd06c98bd8b12dfd17f3f2231f7b_normal.jpeg
p1046
sg62
I1738
sg63
I8826
sg64
I-18000
sg65
Nsg66
I00
sg67
Vhttps://pbs.twimg.com/profile_banners/265645992/1353291774
p1047
sg69
I00
sg70
I00
sg71
V0084B4
p1048
sg73
I01
sg74
I00
sg75
Vhttp://abs.twimg.com/images/themes/theme1/bg.png
p1049
sg77
VQueen_V1216
p1050
sg79
I47
sg80
VVickie Barnachea
p1051
sg82
VDDEEF6
p1052
sg84
Vhttps://t.co/8MSpEozK5H
p1053
sg86
I265645992
sg87
VC0DEED
p1054
sbsg89
I2
sg90
V<a href="http://twitter.com/download/iphone" rel="nofollow">Twitter for iPhone</a>
p1055
sg92
(lp1056
sg86
I543498778599510016
sbsg16
Nsg17
(lp1057
sg19
Nsg20
Nsg21
Nsg22
VSat Dec 13 09:38:50 +0000 2014
p1058
sg24
Nsg25
Nsg26
Nsg27
Nsg28
Nsg29
Nsg30
I00
sg31
Nsg32
(lp1059
g3
(g43
g5
Ntp1060
Rp1061
(dp1062
g10
Nsg48
Nsg50
Nsg52
Nsg54
Nsg55
Nsg22
Nsg57
Nsg58
Nsg60
Nsg62
Nsg63
Nsg64
Nsg65
Nsg66
Nsg67
Nsg69
Nsg70
Nsg71
Nsg73
Nsg74
Nsg75
Nsg77
VQueen_V1216
p1063
sg79
Nsg80
VVickie Barnachea
p1064
sg82
Nsg84
Nsg86
I265645992
sg87
Nsbag3
(g43
g5
Ntp1065
Rp1066
(dp1067
g10
Nsg48
Nsg50
Nsg52
Nsg54
Nsg55
Nsg22
Nsg57
Nsg58
Nsg60
Nsg62
Nsg63
Nsg64
Nsg65
Nsg66
Nsg67
Nsg69
Nsg70
Nsg71
Nsg73
Nsg74
Nsg75
Nsg77
VWANAGL
p1068
sg79
Nsg80
VWANAGL #OiP 
p1069
sg82
Nsg84
Nsg86
I719756991
sg87
Nsbag3
(g43
g5
Ntp1070
Rp1071
(dp1072
g10
Nsg48
Nsg50
Nsg52
Nsg54
Nsg55
Nsg22
Nsg57
Nsg58
Nsg60
Nsg62
Nsg63
Nsg64
Nsg65
Nsg66
Nsg67
Nsg69
Nsg70
Nsg71
Nsg73
Nsg74
Nsg75
Nsg77
Vgatman7
p1073
sg79
Nsg80
VGeorge Thompson
p1074
sg82
Nsg84
Nsg86
I36681617
sg87
Nsbag3
(g43
g5
Ntp1075
Rp1076
(dp1077
g10
Nsg48
Nsg50
Nsg52
Nsg54
Nsg55
Nsg22
Nsg57
Nsg58
Nsg60
Nsg62
Nsg63
Nsg64
Nsg65
Nsg66
Nsg67
Nsg69
Nsg70
Nsg71
Nsg73
Nsg74
Nsg75
Nsg77
VGenesSmile
p1078
sg79
Nsg80
VKrissy Chase
p1079
sg82
Nsg84
Nsg86
I74827928
sg87
Nsbag3
(g43
g5
Ntp1080
Rp1081
(dp1082
g10
Nsg48
Nsg50
Nsg52
Nsg54
Nsg55
Nsg22
Nsg57
Nsg58
Nsg60
Nsg62
Nsg63
Nsg64
Nsg65
Nsg66
Nsg67
Nsg69
Nsg70
Nsg71
Nsg73
Nsg74
Nsg75
Nsg77
VGreen_Star1
p1083
sg79
Nsg80
VRalph E McCrum
p1084
sg82
Nsg84
Nsg86
I53590352
sg87
Nsbag3
(g43
g5
Ntp1085
Rp1086
(dp1087
g10
Nsg48
Nsg50
Nsg52
Nsg54
Nsg55
Nsg22
Nsg57
Nsg58
Nsg60
Nsg62
Nsg63
Nsg64
Nsg65
Nsg66
Nsg67
Nsg69
Nsg70
Nsg71
Nsg73
Nsg74
Nsg75
Nsg77
VShaunTrades
p1088
sg79
Nsg80
VMoney Talks
p1089
sg82
Nsg84
Nsg86
I213315220
sg87
Nsbag3
(g43
g5
Ntp1090
Rp1091
(dp1092
g10
Nsg48
Nsg50
Nsg52
Nsg54
Nsg55
Nsg22
Nsg57
Nsg58
Nsg60
Nsg62
Nsg63
Nsg64
Nsg65
Nsg66
Nsg67
Nsg69
Nsg70
Nsg71
Nsg73
Nsg74
Nsg75
Nsg77
Vcheapcigar
p1093
sg79
Nsg80
VSublimin_Al
p1094
sg82
Nsg84
Nsg86
I1255621518
sg87
Nsbag3
(g43
g5
Ntp1095
Rp1096
(dp1097
g10
Nsg48
Nsg50
Nsg52
Nsg54
Nsg55
Nsg22
Nsg57
Nsg58
Nsg60
Nsg62
Nsg63
Nsg64
Nsg65
Nsg66
Nsg67
Nsg69
Nsg70
Nsg71
Nsg73
Nsg74
Nsg75
Nsg77
Vtexasflutegal
p1098
sg79
Nsg80
VJeannette Burleigh
p1099
sg82
Nsg84
Nsg86
I156791542
sg87
Nsbag3
(g43
g5
Ntp1100
Rp1101
(dp1102
g10
Nsg48
Nsg50
Nsg52
Nsg54
Nsg55
Nsg22
Nsg57
Nsg58
Nsg60
Nsg62
Nsg63
Nsg64
Nsg65
Nsg66
Nsg67
Nsg69
Nsg70
Nsg71
Nsg73
Nsg74
Nsg75
Nsg77
VSuperman6869
p1103
sg79
Nsg80
VSuperman
p1104
sg82
Nsg84
Nsg86
I137820750
sg87
Nsbag3
(g43
g5
Ntp1105
Rp1106
(dp1107
g10
Nsg48
Nsg50
Nsg52
Nsg54
Nsg55
Nsg22
Nsg57
Nsg58
Nsg60
Nsg62
Nsg63
Nsg64
Nsg65
Nsg66
Nsg67
Nsg69
Nsg70
Nsg71
Nsg73
Nsg74
Nsg75
Nsg77
VTrickerKeeTs
p1108
sg79
Nsg80
VTricker KeeTs
p1109
sg82
Nsg84
Nsg86
I2738347879
sg87
Nsbag3
(g43
g5
Ntp1110
Rp1111
(dp1112
g10
Nsg48
Nsg50
Nsg52
Nsg54
Nsg55
Nsg22
Nsg57
Nsg58
Nsg60
Nsg62
Nsg63
Nsg64
Nsg65
Nsg66
Nsg67
Nsg69
Nsg70
Nsg71
Nsg73
Nsg74
Nsg75
Nsg77
Vyrwol7
p1113
sg79
Nsg80
VColleen White 
p1114
sg82
Nsg84
Nsg86
I412776430
sg87
Nsbag3
(g43
g5
Ntp1115
Rp1116
(dp1117
g10
Nsg48
Nsg50
Nsg52
Nsg54
Nsg55
Nsg22
Nsg57
Nsg58
Nsg60
Nsg62
Nsg63
Nsg64
Nsg65
Nsg66
Nsg67
Nsg69
Nsg70
Nsg71
Nsg73
Nsg74
Nsg75
Nsg77
VDaggy1
p1118
sg79
Nsg80
VDagwood Bumstead
p1119
sg82
Nsg84
Nsg86
I24305174
sg87
Nsbasg34
Nsg35
Nsg36
Nsg37
VRT @Queen_V1216: @WANAGL @gatman7 @GenesSmile @Green_Star1 @ShaunTrades @cheapcigar @texasflutegal @Superman6869 @TrickerKeeTs @yrwol7 @Dag\u2026
p1120
sg39
I00
sg40
Vin
p1121
sg42
g3
(g43
g5
Ntp1122
Rp1123
(dp1124
g10
V \ufe3b\u2566\u2564\u2500\u2500   \ufe3b\u2566\u2564\u2500\u2500   \ufe3b\u2566\u2564\u2500\u2500   \ufe3b\u2566\u2564\u2500\u2500
p1125
sg48
V333333
p1126
sg50
Ven-gb
p1127
sg52
VLondon
p1128
sg54
I4552
sg55
I25702
sg22
VSat Mar 09 23:39:32 +0000 2013
p1129
sg57
I00
sg58
VPatriot, Army Veteran from 40 yrs ago, love my rescued dogs, rifles, pistols, and freedom. God Bless all US Armed Forces, Active,Vets,& Deceased. #NRA #PJNET
p1130
sg60
Vhttps://pbs.twimg.com/profile_images/542439961106997251/Qt0kA7_R_normal.jpeg
p1131
sg62
I4549
sg63
I8473
sg64
I0
sg65
Nsg66
I00
sg67
Vhttps://pbs.twimg.com/profile_banners/1255621518/1418165233
p1132
sg69
I00
sg70
I00
sg71
VBD1C1C
p1133
sg73
I00
sg74
I00
sg75
Vhttp://abs.twimg.com/images/themes/theme1/bg.png
p1134
sg77
Vcheapcigar
p1135
sg79
I85
sg80
VSublimin_Al
p1136
sg82
VDDEEF6
p1137
sg84
Vhttp://t.co/mFeQgMWOgQ
p1138
sg86
I1255621518
sg87
VC0DEED
p1139
sbsg89
I2
sg90
V<a href="http://twitter.com/download/iphone" rel="nofollow">Twitter for iPhone</a>
p1140
sg92
(lp1141
sg86
I543701572300337152
sbag3
(g4
g5
Ntp1142
Rp1143
(dp1144
g9
I0
sg10
Nsg11
Nsg12
(lp1145
sg14
I00
sg15
g3
(g4
g5
Ntp1146
Rp1147
(dp1148
g9
I2
sg10
Nsg11
Nsg12
(lp1149
sg14
I00
sg15
Nsg16
Nsg17
(lp1150
sg19
Nsg20
Nsg21
Nsg22
VFri Dec 12 20:17:13 +0000 2014
p1151
sg24
Nsg25
Nsg26
VQueen_V1216
p1152
sg27
Nsg28
I265645992
sg29
Nsg30
I00
sg31
Nsg32
(lp1153
g3
(g43
g5
Ntp1154
Rp1155
(dp1156
g10
Nsg48
Nsg50
Nsg52
Nsg54
Nsg55
Nsg22
Nsg57
Nsg58
Nsg60
Nsg62
Nsg63
Nsg64
Nsg65
Nsg66
Nsg67
Nsg69
Nsg70
Nsg71
Nsg73
Nsg74
Nsg75
Nsg77
VQueen_V1216
p1157
sg79
Nsg80
VVickie Barnachea
p1158
sg82
Nsg84
Nsg86
I265645992
sg87
Nsbag3
(g43
g5
Ntp1159
Rp1160
(dp1161
g10
Nsg48
Nsg50
Nsg52
Nsg54
Nsg55
Nsg22
Nsg57
Nsg58
Nsg60
Nsg62
Nsg63
Nsg64
Nsg65
Nsg66
Nsg67
Nsg69
Nsg70
Nsg71
Nsg73
Nsg74
Nsg75
Nsg77
Vgatman7
p1162
sg79
Nsg80
VGeorge Thompson
p1163
sg82
Nsg84
Nsg86
I36681617
sg87
Nsbag3
(g43
g5
Ntp1164
Rp1165
(dp1166
g10
Nsg48
Nsg50
Nsg52
Nsg54
Nsg55
Nsg22
Nsg57
Nsg58
Nsg60
Nsg62
Nsg63
Nsg64
Nsg65
Nsg66
Nsg67
Nsg69
Nsg70
Nsg71
Nsg73
Nsg74
Nsg75
Nsg77
VGenesSmile
p1167
sg79
Nsg80
VKrissy Chase
p1168
sg82
Nsg84
Nsg86
I74827928
sg87
Nsbag3
(g43
g5
Ntp1169
Rp1170
(dp1171
g10
Nsg48
Nsg50
Nsg52
Nsg54
Nsg55
Nsg22
Nsg57
Nsg58
Nsg60
Nsg62
Nsg63
Nsg64
Nsg65
Nsg66
Nsg67
Nsg69
Nsg70
Nsg71
Nsg73
Nsg74
Nsg75
Nsg77
VGreen_Star1
p1172
sg79
Nsg80
VRalph E McCrum
p1173
sg82
Nsg84
Nsg86
I53590352
sg87
Nsbag3
(g43
g5
Ntp1174
Rp1175
(dp1176
g10
Nsg48
Nsg50
Nsg52
Nsg54
Nsg55
Nsg22
Nsg57
Nsg58
Nsg60
Nsg62
Nsg63
Nsg64
Nsg65
Nsg66
Nsg67
Nsg69
Nsg70
Nsg71
Nsg73
Nsg74
Nsg75
Nsg77
VShaunTrades
p1177
sg79
Nsg80
VMoney Talks
p1178
sg82
Nsg84
Nsg86
I213315220
sg87
Nsbag3
(g43
g5
Ntp1179
Rp1180
(dp1181
g10
Nsg48
Nsg50
Nsg52
Nsg54
Nsg55
Nsg22
Nsg57
Nsg58
Nsg60
Nsg62
Nsg63
Nsg64
Nsg65
Nsg66
Nsg67
Nsg69
Nsg70
Nsg71
Nsg73
Nsg74
Nsg75
Nsg77
Vcheapcigar
p1182
sg79
Nsg80
VSublimin_Al
p1183
sg82
Nsg84
Nsg86
I1255621518
sg87
Nsbag3
(g43
g5
Ntp1184
Rp1185
(dp1186
g10
Nsg48
Nsg50
Nsg52
Nsg54
Nsg55
Nsg22
Nsg57
Nsg58
Nsg60
Nsg62
Nsg63
Nsg64
Nsg65
Nsg66
Nsg67
Nsg69
Nsg70
Nsg71
Nsg73
Nsg74
Nsg75
Nsg77
Vtexasflutegal
p1187
sg79
Nsg80
VJeannette Burleigh
p1188
sg82
Nsg84
Nsg86
I156791542
sg87
Nsbag3
(g43
g5
Ntp1189
Rp1190
(dp1191
g10
Nsg48
Nsg50
Nsg52
Nsg54
Nsg55
Nsg22
Nsg57
Nsg58
Nsg60
Nsg62
Nsg63
Nsg64
Nsg65
Nsg66
Nsg67
Nsg69
Nsg70
Nsg71
Nsg73
Nsg74
Nsg75
Nsg77
VSuperman6869
p1192
sg79
Nsg80
VSuperman
p1193
sg82
Nsg84
Nsg86
I137820750
sg87
Nsbag3
(g43
g5
Ntp1194
Rp1195
(dp1196
g10
Nsg48
Nsg50
Nsg52
Nsg54
Nsg55
Nsg22
Nsg57
Nsg58
Nsg60
Nsg62
Nsg63
Nsg64
Nsg65
Nsg66
Nsg67
Nsg69
Nsg70
Nsg71
Nsg73
Nsg74
Nsg75
Nsg77
VTrickerKeeTs
p1197
sg79
Nsg80
VTricker KeeTs
p1198
sg82
Nsg84
Nsg86
I2738347879
sg87
Nsbag3
(g43
g5
Ntp1199
Rp1200
(dp1201
g10
Nsg48
Nsg50
Nsg52
Nsg54
Nsg55
Nsg22
Nsg57
Nsg58
Nsg60
Nsg62
Nsg63
Nsg64
Nsg65
Nsg66
Nsg67
Nsg69
Nsg70
Nsg71
Nsg73
Nsg74
Nsg75
Nsg77
Vyrwol7
p1202
sg79
Nsg80
VColleen White 
p1203
sg82
Nsg84
Nsg86
I412776430
sg87
Nsbag3
(g43
g5
Ntp1204
Rp1205
(dp1206
g10
Nsg48
Nsg50
Nsg52
Nsg54
Nsg55
Nsg22
Nsg57
Nsg58
Nsg60
Nsg62
Nsg63
Nsg64
Nsg65
Nsg66
Nsg67
Nsg69
Nsg70
Nsg71
Nsg73
Nsg74
Nsg75
Nsg77
VDaggy1
p1207
sg79
Nsg80
VDagwood Bumstead
p1208
sg82
Nsg84
Nsg86
I24305174
sg87
Nsbasg34
Nsg35
Nsg36
I543498778599510016
sg37
VGD ALL\U0001f64b@Queen_V1216 @gatman7 @GenesSmile @Green_Star1 @ShaunTrades @cheapcigar @texasflutegal @Superman6869 @TrickerKeeTs @yrwol7 @Daggy1
p1209
sg39
I00
sg40
Vht
p1210
sg42
g3
(g43
g5
Ntp1211
Rp1212
(dp1213
g10
g868
sg48
V333333
p1214
sg50
Ven
p1215
sg52
Nsg54
I1713
sg55
I11096
sg22
VThu Oct 17 21:49:00 +0000 2013
p1216
sg57
I00
sg58
VBusiness Owner  #Conservative  #Christian  #PJNet  #UPPUSA  #CCOT  #Patriot   #RedStateRising  #2ndAmmendment  #NRA  #TeaParty  #ObamaMustBeStopped  #OiP
p1217
sg60
Vhttps://pbs.twimg.com/profile_images/539840189896462338/WuEZESSI_normal.png
p1218
sg62
I1933
sg63
I10181
sg64
Nsg65
Nsg66
I00
sg67
Vhttps://pbs.twimg.com/profile_banners/719756991/1399995507
p1219
sg69
I00
sg70
I00
sg71
V0084B4
p1220
sg73
I00
sg74
I00
sg75
Vhttp://abs.twimg.com/images/themes/theme1/bg.png
p1221
sg77
VWANAGL
p1222
sg79
I21
sg80
VWANAGL #OiP 
p1223
sg82
VDDEEF6
p1224
sg84
Nsg86
I719756991
sg87
VC0DEED
p1225
sbsg89
I1
sg90
V<a href="https://twitter.com/download/android" rel="nofollow">Twitter for Android Tablets</a>
p1226
sg92
(lp1227
sg86
I543499838508527617
sbsg16
Nsg17
(lp1228
sg19
Nsg20
Nsg21
Nsg22
VSat Dec 13 09:38:47 +0000 2014
p1229
sg24
Nsg25
Nsg26
Nsg27
Nsg28
Nsg29
Nsg30
I00
sg31
Nsg32
(lp1230
g3
(g43
g5
Ntp1231
Rp1232
(dp1233
g10
Nsg48
Nsg50
Nsg52
Nsg54
Nsg55
Nsg22
Nsg57
Nsg58
Nsg60
Nsg62
Nsg63
Nsg64
Nsg65
Nsg66
Nsg67
Nsg69
Nsg70
Nsg71
Nsg73
Nsg74
Nsg75
Nsg77
VWANAGL
p1234
sg79
Nsg80
VWANAGL #OiP 
p1235
sg82
Nsg84
Nsg86
I719756991
sg87
Nsbag3
(g43
g5
Ntp1236
Rp1237
(dp1238
g10
Nsg48
Nsg50
Nsg52
Nsg54
Nsg55
Nsg22
Nsg57
Nsg58
Nsg60
Nsg62
Nsg63
Nsg64
Nsg65
Nsg66
Nsg67
Nsg69
Nsg70
Nsg71
Nsg73
Nsg74
Nsg75
Nsg77
VQueen_V1216
p1239
sg79
Nsg80
VVickie Barnachea
p1240
sg82
Nsg84
Nsg86
I265645992
sg87
Nsbag3
(g43
g5
Ntp1241
Rp1242
(dp1243
g10
Nsg48
Nsg50
Nsg52
Nsg54
Nsg55
Nsg22
Nsg57
Nsg58
Nsg60
Nsg62
Nsg63
Nsg64
Nsg65
Nsg66
Nsg67
Nsg69
Nsg70
Nsg71
Nsg73
Nsg74
Nsg75
Nsg77
Vgatman7
p1244
sg79
Nsg80
VGeorge Thompson
p1245
sg82
Nsg84
Nsg86
I36681617
sg87
Nsbag3
(g43
g5
Ntp1246
Rp1247
(dp1248
g10
Nsg48
Nsg50
Nsg52
Nsg54
Nsg55
Nsg22
Nsg57
Nsg58
Nsg60
Nsg62
Nsg63
Nsg64
Nsg65
Nsg66
Nsg67
Nsg69
Nsg70
Nsg71
Nsg73
Nsg74
Nsg75
Nsg77
VGenesSmile
p1249
sg79
Nsg80
VKrissy Chase
p1250
sg82
Nsg84
Nsg86
I74827928
sg87
Nsbag3
(g43
g5
Ntp1251
Rp1252
(dp1253
g10
Nsg48
Nsg50
Nsg52
Nsg54
Nsg55
Nsg22
Nsg57
Nsg58
Nsg60
Nsg62
Nsg63
Nsg64
Nsg65
Nsg66
Nsg67
Nsg69
Nsg70
Nsg71
Nsg73
Nsg74
Nsg75
Nsg77
VGreen_Star1
p1254
sg79
Nsg80
VRalph E McCrum
p1255
sg82
Nsg84
Nsg86
I53590352
sg87
Nsbag3
(g43
g5
Ntp1256
Rp1257
(dp1258
g10
Nsg48
Nsg50
Nsg52
Nsg54
Nsg55
Nsg22
Nsg57
Nsg58
Nsg60
Nsg62
Nsg63
Nsg64
Nsg65
Nsg66
Nsg67
Nsg69
Nsg70
Nsg71
Nsg73
Nsg74
Nsg75
Nsg77
VShaunTrades
p1259
sg79
Nsg80
VMoney Talks
p1260
sg82
Nsg84
Nsg86
I213315220
sg87
Nsbag3
(g43
g5
Ntp1261
Rp1262
(dp1263
g10
Nsg48
Nsg50
Nsg52
Nsg54
Nsg55
Nsg22
Nsg57
Nsg58
Nsg60
Nsg62
Nsg63
Nsg64
Nsg65
Nsg66
Nsg67
Nsg69
Nsg70
Nsg71
Nsg73
Nsg74
Nsg75
Nsg77
Vcheapcigar
p1264
sg79
Nsg80
VSublimin_Al
p1265
sg82
Nsg84
Nsg86
I1255621518
sg87
Nsbag3
(g43
g5
Ntp1266
Rp1267
(dp1268
g10
Nsg48
Nsg50
Nsg52
Nsg54
Nsg55
Nsg22
Nsg57
Nsg58
Nsg60
Nsg62
Nsg63
Nsg64
Nsg65
Nsg66
Nsg67
Nsg69
Nsg70
Nsg71
Nsg73
Nsg74
Nsg75
Nsg77
Vtexasflutegal
p1269
sg79
Nsg80
VJeannette Burleigh
p1270
sg82
Nsg84
Nsg86
I156791542
sg87
Nsbag3
(g43
g5
Ntp1271
Rp1272
(dp1273
g10
Nsg48
Nsg50
Nsg52
Nsg54
Nsg55
Nsg22
Nsg57
Nsg58
Nsg60
Nsg62
Nsg63
Nsg64
Nsg65
Nsg66
Nsg67
Nsg69
Nsg70
Nsg71
Nsg73
Nsg74
Nsg75
Nsg77
VSuperman6869
p1274
sg79
Nsg80
VSuperman
p1275
sg82
Nsg84
Nsg86
I137820750
sg87
Nsbag3
(g43
g5
Ntp1276
Rp1277
(dp1278
g10
Nsg48
Nsg50
Nsg52
Nsg54
Nsg55
Nsg22
Nsg57
Nsg58
Nsg60
Nsg62
Nsg63
Nsg64
Nsg65
Nsg66
Nsg67
Nsg69
Nsg70
Nsg71
Nsg73
Nsg74
Nsg75
Nsg77
VTrickerKeeTs
p1279
sg79
Nsg80
VTricker KeeTs
p1280
sg82
Nsg84
Nsg86
I2738347879
sg87
Nsbag3
(g43
g5
Ntp1281
Rp1282
(dp1283
g10
Nsg48
Nsg50
Nsg52
Nsg54
Nsg55
Nsg22
Nsg57
Nsg58
Nsg60
Nsg62
Nsg63
Nsg64
Nsg65
Nsg66
Nsg67
Nsg69
Nsg70
Nsg71
Nsg73
Nsg74
Nsg75
Nsg77
Vyrwol7
p1284
sg79
Nsg80
VColleen White 
p1285
sg82
Nsg84
Nsg86
I412776430
sg87
Nsbag3
(g43
g5
Ntp1286
Rp1287
(dp1288
g10
Nsg48
Nsg50
Nsg52
Nsg54
Nsg55
Nsg22
Nsg57
Nsg58
Nsg60
Nsg62
Nsg63
Nsg64
Nsg65
Nsg66
Nsg67
Nsg69
Nsg70
Nsg71
Nsg73
Nsg74
Nsg75
Nsg77
VDaggy1
p1289
sg79
Nsg80
VDagwood Bumstead
p1290
sg82
Nsg84
Nsg86
I24305174
sg87
Nsbasg34
Nsg35
Nsg36
Nsg37
VRT @WANAGL: GD ALL\U0001f64b@Queen_V1216 @gatman7 @GenesSmile @Green_Star1 @ShaunTrades @cheapcigar @texasflutegal @Superman6869 @TrickerKeeTs @yrwo\u2026
p1291
sg39
I00
sg40
Vht
p1292
sg42
g3
(g43
g5
Ntp1293
Rp1294
(dp1295
g10
V \ufe3b\u2566\u2564\u2500\u2500   \ufe3b\u2566\u2564\u2500\u2500   \ufe3b\u2566\u2564\u2500\u2500   \ufe3b\u2566\u2564\u2500\u2500
p1296
sg48
V333333
p1297
sg50
Ven-gb
p1298
sg52
VLondon
p1299
sg54
I4552
sg55
I25702
sg22
VSat Mar 09 23:39:32 +0000 2013
p1300
sg57
I00
sg58
VPatriot, Army Veteran from 40 yrs ago, love my rescued dogs, rifles, pistols, and freedom. God Bless all US Armed Forces, Active,Vets,& Deceased. #NRA #PJNET
p1301
sg60
Vhttps://pbs.twimg.com/profile_images/542439961106997251/Qt0kA7_R_normal.jpeg
p1302
sg62
I4549
sg63
I8473
sg64
I0
sg65
Nsg66
I00
sg67
Vhttps://pbs.twimg.com/profile_banners/1255621518/1418165233
p1303
sg69
I00
sg70
I00
sg71
VBD1C1C
p1304
sg73
I00
sg74
I00
sg75
Vhttp://abs.twimg.com/images/themes/theme1/bg.png
p1305
sg77
Vcheapcigar
p1306
sg79
I85
sg80
VSublimin_Al
p1307
sg82
VDDEEF6
p1308
sg84
Vhttp://t.co/mFeQgMWOgQ
p1309
sg86
I1255621518
sg87
VC0DEED
p1310
sbsg89
I1
sg90
V<a href="http://twitter.com/download/iphone" rel="nofollow">Twitter for iPhone</a>
p1311
sg92
(lp1312
sg86
I543701559444779008
sbag3
(g4
g5
Ntp1313
Rp1314
(dp1315
g9
I0
sg10
Nsg11
Nsg12
(lp1316
g3
(g608
g5
Ntp1317
Rp1318
(dp1319
g612
VFF
p1320
sbasg14
I00
sg15
g3
(g4
g5
Ntp1321
Rp1322
(dp1323
g9
I4
sg10
Nsg11
Nsg12
(lp1324
g3
(g608
g5
Ntp1325
Rp1326
(dp1327
g612
VFF
p1328
sbasg14
I00
sg15
Nsg16
Nsg17
(lp1329
sg19
Nsg20
Nsg21
Nsg22
VFri Dec 12 22:18:41 +0000 2014
p1330
sg24
Nsg25
Nsg26
VWANAGL
p1331
sg27
Nsg28
I719756991
sg29
Nsg30
I00
sg31
Nsg32
(lp1332
g3
(g43
g5
Ntp1333
Rp1334
(dp1335
g10
Nsg48
Nsg50
Nsg52
Nsg54
Nsg55
Nsg22
Nsg57
Nsg58
Nsg60
Nsg62
Nsg63
Nsg64
Nsg65
Nsg66
Nsg67
Nsg69
Nsg70
Nsg71
Nsg73
Nsg74
Nsg75
Nsg77
VWANAGL
p1336
sg79
Nsg80
VWANAGL #OiP 
p1337
sg82
Nsg84
Nsg86
I719756991
sg87
Nsbag3
(g43
g5
Ntp1338
Rp1339
(dp1340
g10
Nsg48
Nsg50
Nsg52
Nsg54
Nsg55
Nsg22
Nsg57
Nsg58
Nsg60
Nsg62
Nsg63
Nsg64
Nsg65
Nsg66
Nsg67
Nsg69
Nsg70
Nsg71
Nsg73
Nsg74
Nsg75
Nsg77
Vgatman7
p1341
sg79
Nsg80
VGeorge Thompson
p1342
sg82
Nsg84
Nsg86
I36681617
sg87
Nsbag3
(g43
g5
Ntp1343
Rp1344
(dp1345
g10
Nsg48
Nsg50
Nsg52
Nsg54
Nsg55
Nsg22
Nsg57
Nsg58
Nsg60
Nsg62
Nsg63
Nsg64
Nsg65
Nsg66
Nsg67
Nsg69
Nsg70
Nsg71
Nsg73
Nsg74
Nsg75
Nsg77
VGenesSmile
p1346
sg79
Nsg80
VKrissy Chase
p1347
sg82
Nsg84
Nsg86
I74827928
sg87
Nsbag3
(g43
g5
Ntp1348
Rp1349
(dp1350
g10
Nsg48
Nsg50
Nsg52
Nsg54
Nsg55
Nsg22
Nsg57
Nsg58
Nsg60
Nsg62
Nsg63
Nsg64
Nsg65
Nsg66
Nsg67
Nsg69
Nsg70
Nsg71
Nsg73
Nsg74
Nsg75
Nsg77
VGreen_Star1
p1351
sg79
Nsg80
VRalph E McCrum
p1352
sg82
Nsg84
Nsg86
I53590352
sg87
Nsbag3
(g43
g5
Ntp1353
Rp1354
(dp1355
g10
Nsg48
Nsg50
Nsg52
Nsg54
Nsg55
Nsg22
Nsg57
Nsg58
Nsg60
Nsg62
Nsg63
Nsg64
Nsg65
Nsg66
Nsg67
Nsg69
Nsg70
Nsg71
Nsg73
Nsg74
Nsg75
Nsg77
VShaunTrades
p1356
sg79
Nsg80
VMoney Talks
p1357
sg82
Nsg84
Nsg86
I213315220
sg87
Nsbag3
(g43
g5
Ntp1358
Rp1359
(dp1360
g10
Nsg48
Nsg50
Nsg52
Nsg54
Nsg55
Nsg22
Nsg57
Nsg58
Nsg60
Nsg62
Nsg63
Nsg64
Nsg65
Nsg66
Nsg67
Nsg69
Nsg70
Nsg71
Nsg73
Nsg74
Nsg75
Nsg77
Vcheapcigar
p1361
sg79
Nsg80
VSublimin_Al
p1362
sg82
Nsg84
Nsg86
I1255621518
sg87
Nsbag3
(g43
g5
Ntp1363
Rp1364
(dp1365
g10
Nsg48
Nsg50
Nsg52
Nsg54
Nsg55
Nsg22
Nsg57
Nsg58
Nsg60
Nsg62
Nsg63
Nsg64
Nsg65
Nsg66
Nsg67
Nsg69
Nsg70
Nsg71
Nsg73
Nsg74
Nsg75
Nsg77
VSuperman6869
p1366
sg79
Nsg80
VSuperman
p1367
sg82
Nsg84
Nsg86
I137820750
sg87
Nsbag3
(g43
g5
Ntp1368
Rp1369
(dp1370
g10
Nsg48
Nsg50
Nsg52
Nsg54
Nsg55
Nsg22
Nsg57
Nsg58
Nsg60
Nsg62
Nsg63
Nsg64
Nsg65
Nsg66
Nsg67
Nsg69
Nsg70
Nsg71
Nsg73
Nsg74
Nsg75
Nsg77
VQueen_V1216
p1371
sg79
Nsg80
VVickie Barnachea
p1372
sg82
Nsg84
Nsg86
I265645992
sg87
Nsbag3
(g43
g5
Ntp1373
Rp1374
(dp1375
g10
Nsg48
Nsg50
Nsg52
Nsg54
Nsg55
Nsg22
Nsg57
Nsg58
Nsg60
Nsg62
Nsg63
Nsg64
Nsg65
Nsg66
Nsg67
Nsg69
Nsg70
Nsg71
Nsg73
Nsg74
Nsg75
Nsg77
VTrickerKeeTs
p1376
sg79
Nsg80
VTricker KeeTs
p1377
sg82
Nsg84
Nsg86
I2738347879
sg87
Nsbag3
(g43
g5
Ntp1378
Rp1379
(dp1380
g10
Nsg48
Nsg50
Nsg52
Nsg54
Nsg55
Nsg22
Nsg57
Nsg58
Nsg60
Nsg62
Nsg63
Nsg64
Nsg65
Nsg66
Nsg67
Nsg69
Nsg70
Nsg71
Nsg73
Nsg74
Nsg75
Nsg77
Vyrwol7
p1381
sg79
Nsg80
VColleen White 
p1382
sg82
Nsg84
Nsg86
I412776430
sg87
Nsbag3
(g43
g5
Ntp1383
Rp1384
(dp1385
g10
Nsg48
Nsg50
Nsg52
Nsg54
Nsg55
Nsg22
Nsg57
Nsg58
Nsg60
Nsg62
Nsg63
Nsg64
Nsg65
Nsg66
Nsg67
Nsg69
Nsg70
Nsg71
Nsg73
Nsg74
Nsg75
Nsg77
VDaggy1
p1386
sg79
Nsg80
VDagwood Bumstead
p1387
sg82
Nsg84
Nsg86
I24305174
sg87
Nsbasg34
Nsg35
Nsg36
I543495664488165376
sg37
V@WANAGL TY4 the #FF!  @gatman7 @GenesSmile @Green_Star1 @ShaunTrades @cheapcigar @Superman6869 @Queen_V1216 @TrickerKeeTs @yrwol7 @Daggy1
p1388
sg39
I00
sg40
Ven
p1389
sg42
g3
(g43
g5
Ntp1390
Rp1391
(dp1392
g10
VSan Marcos,Texas 
p1393
sg48
V08080A
p1394
sg50
Ven
p1395
sg52
VHawaii
p1396
sg54
I6517
sg55
I86404
sg22
VThu Jun 17 23:29:49 +0000 2010
p1397
sg57
I00
sg58
VI am a person who believes that you are never too old to dream new dreams or start new adventures.
p1398
sg60
Vhttps://pbs.twimg.com/profile_images/378800000122231557/ffdceb48670d7c65848b2cc6332fb70a_normal.jpeg
p1399
sg62
I6519
sg63
I1590
sg64
I-36000
sg65
Nsg66
I00
sg67
Vhttps://pbs.twimg.com/profile_banners/156791542/1364787552
p1400
sg69
I00
sg70
I01
sg71
V0A0102
p1401
sg73
I01
sg74
I00
sg75
Vhttp://pbs.twimg.com/profile_background_images/113477541/heart3.bmp
p1402
sg77
Vtexasflutegal
p1403
sg79
I313
sg80
VJeannette Burleigh
p1404
sg82
V7A6A53
p1405
sg84
Vhttp://t.co/TUOs8Hwadj
p1406
sg86
I156791542
sg87
VD9CEB2
p1407
sbsg89
I1
sg90
V<a href="http://twitter.com/download/iphone" rel="nofollow">Twitter for iPhone</a>
p1408
sg92
(lp1409
sg86
I543530404322369536
sbsg16
Nsg17
(lp1410
sg19
Nsg20
Nsg21
Nsg22
VSat Dec 13 09:38:43 +0000 2014
p1411
sg24
Nsg25
Nsg26
Nsg27
Nsg28
Nsg29
Nsg30
I00
sg31
Nsg32
(lp1412
g3
(g43
g5
Ntp1413
Rp1414
(dp1415
g10
Nsg48
Nsg50
Nsg52
Nsg54
Nsg55
Nsg22
Nsg57
Nsg58
Nsg60
Nsg62
Nsg63
Nsg64
Nsg65
Nsg66
Nsg67
Nsg69
Nsg70
Nsg71
Nsg73
Nsg74
Nsg75
Nsg77
Vtexasflutegal
p1416
sg79
Nsg80
VJeannette Burleigh
p1417
sg82
Nsg84
Nsg86
I156791542
sg87
Nsbag3
(g43
g5
Ntp1418
Rp1419
(dp1420
g10
Nsg48
Nsg50
Nsg52
Nsg54
Nsg55
Nsg22
Nsg57
Nsg58
Nsg60
Nsg62
Nsg63
Nsg64
Nsg65
Nsg66
Nsg67
Nsg69
Nsg70
Nsg71
Nsg73
Nsg74
Nsg75
Nsg77
VWANAGL
p1421
sg79
Nsg80
VWANAGL #OiP 
p1422
sg82
Nsg84
Nsg86
I719756991
sg87
Nsbag3
(g43
g5
Ntp1423
Rp1424
(dp1425
g10
Nsg48
Nsg50
Nsg52
Nsg54
Nsg55
Nsg22
Nsg57
Nsg58
Nsg60
Nsg62
Nsg63
Nsg64
Nsg65
Nsg66
Nsg67
Nsg69
Nsg70
Nsg71
Nsg73
Nsg74
Nsg75
Nsg77
Vgatman7
p1426
sg79
Nsg80
VGeorge Thompson
p1427
sg82
Nsg84
Nsg86
I36681617
sg87
Nsbag3
(g43
g5
Ntp1428
Rp1429
(dp1430
g10
Nsg48
Nsg50
Nsg52
Nsg54
Nsg55
Nsg22
Nsg57
Nsg58
Nsg60
Nsg62
Nsg63
Nsg64
Nsg65
Nsg66
Nsg67
Nsg69
Nsg70
Nsg71
Nsg73
Nsg74
Nsg75
Nsg77
VGenesSmile
p1431
sg79
Nsg80
VKrissy Chase
p1432
sg82
Nsg84
Nsg86
I74827928
sg87
Nsbag3
(g43
g5
Ntp1433
Rp1434
(dp1435
g10
Nsg48
Nsg50
Nsg52
Nsg54
Nsg55
Nsg22
Nsg57
Nsg58
Nsg60
Nsg62
Nsg63
Nsg64
Nsg65
Nsg66
Nsg67
Nsg69
Nsg70
Nsg71
Nsg73
Nsg74
Nsg75
Nsg77
VGreen_Star1
p1436
sg79
Nsg80
VRalph E McCrum
p1437
sg82
Nsg84
Nsg86
I53590352
sg87
Nsbag3
(g43
g5
Ntp1438
Rp1439
(dp1440
g10
Nsg48
Nsg50
Nsg52
Nsg54
Nsg55
Nsg22
Nsg57
Nsg58
Nsg60
Nsg62
Nsg63
Nsg64
Nsg65
Nsg66
Nsg67
Nsg69
Nsg70
Nsg71
Nsg73
Nsg74
Nsg75
Nsg77
VShaunTrades
p1441
sg79
Nsg80
VMoney Talks
p1442
sg82
Nsg84
Nsg86
I213315220
sg87
Nsbag3
(g43
g5
Ntp1443
Rp1444
(dp1445
g10
Nsg48
Nsg50
Nsg52
Nsg54
Nsg55
Nsg22
Nsg57
Nsg58
Nsg60
Nsg62
Nsg63
Nsg64
Nsg65
Nsg66
Nsg67
Nsg69
Nsg70
Nsg71
Nsg73
Nsg74
Nsg75
Nsg77
Vcheapcigar
p1446
sg79
Nsg80
VSublimin_Al
p1447
sg82
Nsg84
Nsg86
I1255621518
sg87
Nsbag3
(g43
g5
Ntp1448
Rp1449
(dp1450
g10
Nsg48
Nsg50
Nsg52
Nsg54
Nsg55
Nsg22
Nsg57
Nsg58
Nsg60
Nsg62
Nsg63
Nsg64
Nsg65
Nsg66
Nsg67
Nsg69
Nsg70
Nsg71
Nsg73
Nsg74
Nsg75
Nsg77
VSuperman6869
p1451
sg79
Nsg80
VSuperman
p1452
sg82
Nsg84
Nsg86
I137820750
sg87
Nsbag3
(g43
g5
Ntp1453
Rp1454
(dp1455
g10
Nsg48
Nsg50
Nsg52
Nsg54
Nsg55
Nsg22
Nsg57
Nsg58
Nsg60
Nsg62
Nsg63
Nsg64
Nsg65
Nsg66
Nsg67
Nsg69
Nsg70
Nsg71
Nsg73
Nsg74
Nsg75
Nsg77
VQueen_V1216
p1456
sg79
Nsg80
VVickie Barnachea
p1457
sg82
Nsg84
Nsg86
I265645992
sg87
Nsbag3
(g43
g5
Ntp1458
Rp1459
(dp1460
g10
Nsg48
Nsg50
Nsg52
Nsg54
Nsg55
Nsg22
Nsg57
Nsg58
Nsg60
Nsg62
Nsg63
Nsg64
Nsg65
Nsg66
Nsg67
Nsg69
Nsg70
Nsg71
Nsg73
Nsg74
Nsg75
Nsg77
VTrickerKeeTs
p1461
sg79
Nsg80
VTricker KeeTs
p1462
sg82
Nsg84
Nsg86
I2738347879
sg87
Nsbag3
(g43
g5
Ntp1463
Rp1464
(dp1465
g10
Nsg48
Nsg50
Nsg52
Nsg54
Nsg55
Nsg22
Nsg57
Nsg58
Nsg60
Nsg62
Nsg63
Nsg64
Nsg65
Nsg66
Nsg67
Nsg69
Nsg70
Nsg71
Nsg73
Nsg74
Nsg75
Nsg77
Vyrwol7
p1466
sg79
Nsg80
VColleen White 
p1467
sg82
Nsg84
Nsg86
I412776430
sg87
Nsbag3
(g43
g5
Ntp1468
Rp1469
(dp1470
g10
Nsg48
Nsg50
Nsg52
Nsg54
Nsg55
Nsg22
Nsg57
Nsg58
Nsg60
Nsg62
Nsg63
Nsg64
Nsg65
Nsg66
Nsg67
Nsg69
Nsg70
Nsg71
Nsg73
Nsg74
Nsg75
Nsg77
VDaggy1
p1471
sg79
Nsg80
VDagwood Bumstead
p1472
sg82
Nsg84
Nsg86
I24305174
sg87
Nsbasg34
Nsg35
Nsg36
Nsg37
VRT @texasflutegal: @WANAGL TY4 the #FF!  @gatman7 @GenesSmile @Green_Star1 @ShaunTrades @cheapcigar @Superman6869 @Queen_V1216 @TrickerKeeT\u2026
p1473
sg39
I00
sg40
Ven
p1474
sg42
g3
(g43
g5
Ntp1475
Rp1476
(dp1477
g10
V \ufe3b\u2566\u2564\u2500\u2500   \ufe3b\u2566\u2564\u2500\u2500   \ufe3b\u2566\u2564\u2500\u2500   \ufe3b\u2566\u2564\u2500\u2500
p1478
sg48
V333333
p1479
sg50
Ven-gb
p1480
sg52
VLondon
p1481
sg54
I4552
sg55
I25702
sg22
VSat Mar 09 23:39:32 +0000 2013
p1482
sg57
I00
sg58
VPatriot, Army Veteran from 40 yrs ago, love my rescued dogs, rifles, pistols, and freedom. God Bless all US Armed Forces, Active,Vets,& Deceased. #NRA #PJNET
p1483
sg60
Vhttps://pbs.twimg.com/profile_images/542439961106997251/Qt0kA7_R_normal.jpeg
p1484
sg62
I4549
sg63
I8473
sg64
I0
sg65
Nsg66
I00
sg67
Vhttps://pbs.twimg.com/profile_banners/1255621518/1418165233
p1485
sg69
I00
sg70
I00
sg71
VBD1C1C
p1486
sg73
I00
sg74
I00
sg75
Vhttp://abs.twimg.com/images/themes/theme1/bg.png
p1487
sg77
Vcheapcigar
p1488
sg79
I85
sg80
VSublimin_Al
p1489
sg82
VDDEEF6
p1490
sg84
Vhttp://t.co/mFeQgMWOgQ
p1491
sg86
I1255621518
sg87
VC0DEED
p1492
sbsg89
I1
sg90
V<a href="http://twitter.com/download/iphone" rel="nofollow">Twitter for iPhone</a>
p1493
sg92
(lp1494
sg86
I543701542260736000
sbag3
(g4
g5
Ntp1495
Rp1496
(dp1497
g9
I0
sg10
Nsg11
Nsg12
(lp1498
g3
(g608
g5
Ntp1499
Rp1500
(dp1501
g612
VFF
p1502
sbasg14
I00
sg15
g3
(g4
g5
Ntp1503
Rp1504
(dp1505
g9
I2
sg10
Nsg11
Nsg12
(lp1506
g3
(g608
g5
Ntp1507
Rp1508
(dp1509
g612
VFF
p1510
sbasg14
I00
sg15
Nsg16
Nsg17
(lp1511
sg19
Nsg20
Nsg21
Nsg22
VFri Dec 12 23:21:29 +0000 2014
p1512
sg24
Nsg25
Nsg26
Nsg27
Nsg28
Nsg29
Nsg30
I00
sg31
Nsg32
(lp1513
g3
(g43
g5
Ntp1514
Rp1515
(dp1516
g10
Nsg48
Nsg50
Nsg52
Nsg54
Nsg55
Nsg22
Nsg57
Nsg58
Nsg60
Nsg62
Nsg63
Nsg64
Nsg65
Nsg66
Nsg67
Nsg69
Nsg70
Nsg71
Nsg73
Nsg74
Nsg75
Nsg77
Vgatman7
p1517
sg79
Nsg80
VGeorge Thompson
p1518
sg82
Nsg84
Nsg86
I36681617
sg87
Nsbag3
(g43
g5
Ntp1519
Rp1520
(dp1521
g10
Nsg48
Nsg50
Nsg52
Nsg54
Nsg55
Nsg22
Nsg57
Nsg58
Nsg60
Nsg62
Nsg63
Nsg64
Nsg65
Nsg66
Nsg67
Nsg69
Nsg70
Nsg71
Nsg73
Nsg74
Nsg75
Nsg77
VGenesSmile
p1522
sg79
Nsg80
VKrissy Chase
p1523
sg82
Nsg84
Nsg86
I74827928
sg87
Nsbag3
(g43
g5
Ntp1524
Rp1525
(dp1526
g10
Nsg48
Nsg50
Nsg52
Nsg54
Nsg55
Nsg22
Nsg57
Nsg58
Nsg60
Nsg62
Nsg63
Nsg64
Nsg65
Nsg66
Nsg67
Nsg69
Nsg70
Nsg71
Nsg73
Nsg74
Nsg75
Nsg77
VGreen_Star1
p1527
sg79
Nsg80
VRalph E McCrum
p1528
sg82
Nsg84
Nsg86
I53590352
sg87
Nsbag3
(g43
g5
Ntp1529
Rp1530
(dp1531
g10
Nsg48
Nsg50
Nsg52
Nsg54
Nsg55
Nsg22
Nsg57
Nsg58
Nsg60
Nsg62
Nsg63
Nsg64
Nsg65
Nsg66
Nsg67
Nsg69
Nsg70
Nsg71
Nsg73
Nsg74
Nsg75
Nsg77
VShaunTrades
p1532
sg79
Nsg80
VMoney Talks
p1533
sg82
Nsg84
Nsg86
I213315220
sg87
Nsbag3
(g43
g5
Ntp1534
Rp1535
(dp1536
g10
Nsg48
Nsg50
Nsg52
Nsg54
Nsg55
Nsg22
Nsg57
Nsg58
Nsg60
Nsg62
Nsg63
Nsg64
Nsg65
Nsg66
Nsg67
Nsg69
Nsg70
Nsg71
Nsg73
Nsg74
Nsg75
Nsg77
Vcheapcigar
p1537
sg79
Nsg80
VSublimin_Al
p1538
sg82
Nsg84
Nsg86
I1255621518
sg87
Nsbag3
(g43
g5
Ntp1539
Rp1540
(dp1541
g10
Nsg48
Nsg50
Nsg52
Nsg54
Nsg55
Nsg22
Nsg57
Nsg58
Nsg60
Nsg62
Nsg63
Nsg64
Nsg65
Nsg66
Nsg67
Nsg69
Nsg70
Nsg71
Nsg73
Nsg74
Nsg75
Nsg77
VSuperman6869
p1542
sg79
Nsg80
VSuperman
p1543
sg82
Nsg84
Nsg86
I137820750
sg87
Nsbag3
(g43
g5
Ntp1544
Rp1545
(dp1546
g10
Nsg48
Nsg50
Nsg52
Nsg54
Nsg55
Nsg22
Nsg57
Nsg58
Nsg60
Nsg62
Nsg63
Nsg64
Nsg65
Nsg66
Nsg67
Nsg69
Nsg70
Nsg71
Nsg73
Nsg74
Nsg75
Nsg77
VQueen_V1216
p1547
sg79
Nsg80
VVickie Barnachea
p1548
sg82
Nsg84
Nsg86
I265645992
sg87
Nsbag3
(g43
g5
Ntp1549
Rp1550
(dp1551
g10
Nsg48
Nsg50
Nsg52
Nsg54
Nsg55
Nsg22
Nsg57
Nsg58
Nsg60
Nsg62
Nsg63
Nsg64
Nsg65
Nsg66
Nsg67
Nsg69
Nsg70
Nsg71
Nsg73
Nsg74
Nsg75
Nsg77
VTrickerKeeTs
p1552
sg79
Nsg80
VTricker KeeTs
p1553
sg82
Nsg84
Nsg86
I2738347879
sg87
Nsbag3
(g43
g5
Ntp1554
Rp1555
(dp1556
g10
Nsg48
Nsg50
Nsg52
Nsg54
Nsg55
Nsg22
Nsg57
Nsg58
Nsg60
Nsg62
Nsg63
Nsg64
Nsg65
Nsg66
Nsg67
Nsg69
Nsg70
Nsg71
Nsg73
Nsg74
Nsg75
Nsg77
Vyrwol7
p1557
sg79
Nsg80
VColleen White 
p1558
sg82
Nsg84
Nsg86
I412776430
sg87
Nsbag3
(g43
g5
Ntp1559
Rp1560
(dp1561
g10
Nsg48
Nsg50
Nsg52
Nsg54
Nsg55
Nsg22
Nsg57
Nsg58
Nsg60
Nsg62
Nsg63
Nsg64
Nsg65
Nsg66
Nsg67
Nsg69
Nsg70
Nsg71
Nsg73
Nsg74
Nsg75
Nsg77
VDaggy1
p1562
sg79
Nsg80
VDagwood Bumstead
p1563
sg82
Nsg84
Nsg86
I24305174
sg87
Nsbasg34
Nsg35
Nsg36
Nsg37
VYW #FF!@texasflutegal @gatman7 @GenesSmile @Green_Star1 @ShaunTrades @cheapcigar @Superman6869 @Queen_V1216 @TrickerKeeTs @yrwol7 @Daggy1
p1564
sg39
I00
sg40
Vund
p1565
sg42
g3
(g43
g5
Ntp1566
Rp1567
(dp1568
g10
g868
sg48
V333333
p1569
sg50
Ven
p1570
sg52
Nsg54
I1713
sg55
I11096
sg22
VThu Oct 17 21:49:00 +0000 2013
p1571
sg57
I00
sg58
VBusiness Owner  #Conservative  #Christian  #PJNet  #UPPUSA  #CCOT  #Patriot   #RedStateRising  #2ndAmmendment  #NRA  #TeaParty  #ObamaMustBeStopped  #OiP
p1572
sg60
Vhttps://pbs.twimg.com/profile_images/539840189896462338/WuEZESSI_normal.png
p1573
sg62
I1933
sg63
I10181
sg64
Nsg65
Nsg66
I00
sg67
Vhttps://pbs.twimg.com/profile_banners/719756991/1399995507
p1574
sg69
I00
sg70
I00
sg71
V0084B4
p1575
sg73
I00
sg74
I00
sg75
Vhttp://abs.twimg.com/images/themes/theme1/bg.png
p1576
sg77
VWANAGL
p1577
sg79
I21
sg80
VWANAGL #OiP 
p1578
sg82
VDDEEF6
p1579
sg84
Nsg86
I719756991
sg87
VC0DEED
p1580
sbsg89
I1
sg90
V<a href="https://twitter.com/download/android" rel="nofollow">Twitter for Android Tablets</a>
p1581
sg92
(lp1582
sg86
I543546208967749632
sbsg16
Nsg17
(lp1583
sg19
Nsg20
Nsg21
Nsg22
VSat Dec 13 09:38:40 +0000 2014
p1584
sg24
Nsg25
Nsg26
Nsg27
Nsg28
Nsg29
Nsg30
I00
sg31
Nsg32
(lp1585
g3
(g43
g5
Ntp1586
Rp1587
(dp1588
g10
Nsg48
Nsg50
Nsg52
Nsg54
Nsg55
Nsg22
Nsg57
Nsg58
Nsg60
Nsg62
Nsg63
Nsg64
Nsg65
Nsg66
Nsg67
Nsg69
Nsg70
Nsg71
Nsg73
Nsg74
Nsg75
Nsg77
VWANAGL
p1589
sg79
Nsg80
VWANAGL #OiP 
p1590
sg82
Nsg84
Nsg86
I719756991
sg87
Nsbag3
(g43
g5
Ntp1591
Rp1592
(dp1593
g10
Nsg48
Nsg50
Nsg52
Nsg54
Nsg55
Nsg22
Nsg57
Nsg58
Nsg60
Nsg62
Nsg63
Nsg64
Nsg65
Nsg66
Nsg67
Nsg69
Nsg70
Nsg71
Nsg73
Nsg74
Nsg75
Nsg77
Vgatman7
p1594
sg79
Nsg80
VGeorge Thompson
p1595
sg82
Nsg84
Nsg86
I36681617
sg87
Nsbag3
(g43
g5
Ntp1596
Rp1597
(dp1598
g10
Nsg48
Nsg50
Nsg52
Nsg54
Nsg55
Nsg22
Nsg57
Nsg58
Nsg60
Nsg62
Nsg63
Nsg64
Nsg65
Nsg66
Nsg67
Nsg69
Nsg70
Nsg71
Nsg73
Nsg74
Nsg75
Nsg77
VGenesSmile
p1599
sg79
Nsg80
VKrissy Chase
p1600
sg82
Nsg84
Nsg86
I74827928
sg87
Nsbag3
(g43
g5
Ntp1601
Rp1602
(dp1603
g10
Nsg48
Nsg50
Nsg52
Nsg54
Nsg55
Nsg22
Nsg57
Nsg58
Nsg60
Nsg62
Nsg63
Nsg64
Nsg65
Nsg66
Nsg67
Nsg69
Nsg70
Nsg71
Nsg73
Nsg74
Nsg75
Nsg77
VGreen_Star1
p1604
sg79
Nsg80
VRalph E McCrum
p1605
sg82
Nsg84
Nsg86
I53590352
sg87
Nsbag3
(g43
g5
Ntp1606
Rp1607
(dp1608
g10
Nsg48
Nsg50
Nsg52
Nsg54
Nsg55
Nsg22
Nsg57
Nsg58
Nsg60
Nsg62
Nsg63
Nsg64
Nsg65
Nsg66
Nsg67
Nsg69
Nsg70
Nsg71
Nsg73
Nsg74
Nsg75
Nsg77
VShaunTrades
p1609
sg79
Nsg80
VMoney Talks
p1610
sg82
Nsg84
Nsg86
I213315220
sg87
Nsbag3
(g43
g5
Ntp1611
Rp1612
(dp1613
g10
Nsg48
Nsg50
Nsg52
Nsg54
Nsg55
Nsg22
Nsg57
Nsg58
Nsg60
Nsg62
Nsg63
Nsg64
Nsg65
Nsg66
Nsg67
Nsg69
Nsg70
Nsg71
Nsg73
Nsg74
Nsg75
Nsg77
Vcheapcigar
p1614
sg79
Nsg80
VSublimin_Al
p1615
sg82
Nsg84
Nsg86
I1255621518
sg87
Nsbag3
(g43
g5
Ntp1616
Rp1617
(dp1618
g10
Nsg48
Nsg50
Nsg52
Nsg54
Nsg55
Nsg22
Nsg57
Nsg58
Nsg60
Nsg62
Nsg63
Nsg64
Nsg65
Nsg66
Nsg67
Nsg69
Nsg70
Nsg71
Nsg73
Nsg74
Nsg75
Nsg77
VSuperman6869
p1619
sg79
Nsg80
VSuperman
p1620
sg82
Nsg84
Nsg86
I137820750
sg87
Nsbag3
(g43
g5
Ntp1621
Rp1622
(dp1623
g10
Nsg48
Nsg50
Nsg52
Nsg54
Nsg55
Nsg22
Nsg57
Nsg58
Nsg60
Nsg62
Nsg63
Nsg64
Nsg65
Nsg66
Nsg67
Nsg69
Nsg70
Nsg71
Nsg73
Nsg74
Nsg75
Nsg77
VQueen_V1216
p1624
sg79
Nsg80
VVickie Barnachea
p1625
sg82
Nsg84
Nsg86
I265645992
sg87
Nsbag3
(g43
g5
Ntp1626
Rp1627
(dp1628
g10
Nsg48
Nsg50
Nsg52
Nsg54
Nsg55
Nsg22
Nsg57
Nsg58
Nsg60
Nsg62
Nsg63
Nsg64
Nsg65
Nsg66
Nsg67
Nsg69
Nsg70
Nsg71
Nsg73
Nsg74
Nsg75
Nsg77
VTrickerKeeTs
p1629
sg79
Nsg80
VTricker KeeTs
p1630
sg82
Nsg84
Nsg86
I2738347879
sg87
Nsbag3
(g43
g5
Ntp1631
Rp1632
(dp1633
g10
Nsg48
Nsg50
Nsg52
Nsg54
Nsg55
Nsg22
Nsg57
Nsg58
Nsg60
Nsg62
Nsg63
Nsg64
Nsg65
Nsg66
Nsg67
Nsg69
Nsg70
Nsg71
Nsg73
Nsg74
Nsg75
Nsg77
Vyrwol7
p1634
sg79
Nsg80
VColleen White 
p1635
sg82
Nsg84
Nsg86
I412776430
sg87
Nsbag3
(g43
g5
Ntp1636
Rp1637
(dp1638
g10
Nsg48
Nsg50
Nsg52
Nsg54
Nsg55
Nsg22
Nsg57
Nsg58
Nsg60
Nsg62
Nsg63
Nsg64
Nsg65
Nsg66
Nsg67
Nsg69
Nsg70
Nsg71
Nsg73
Nsg74
Nsg75
Nsg77
VDaggy1
p1639
sg79
Nsg80
VDagwood Bumstead
p1640
sg82
Nsg84
Nsg86
I24305174
sg87
Nsbasg34
Nsg35
Nsg36
Nsg37
VRT @WANAGL: YW #FF!@texasflutegal @gatman7 @GenesSmile @Green_Star1 @ShaunTrades @cheapcigar @Superman6869 @Queen_V1216 @TrickerKeeTs @yrwo\u2026
p1641
sg39
I00
sg40
Vund
p1642
sg42
g3
(g43
g5
Ntp1643
Rp1644
(dp1645
g10
V \ufe3b\u2566\u2564\u2500\u2500   \ufe3b\u2566\u2564\u2500\u2500   \ufe3b\u2566\u2564\u2500\u2500   \ufe3b\u2566\u2564\u2500\u2500
p1646
sg48
V333333
p1647
sg50
Ven-gb
p1648
sg52
VLondon
p1649
sg54
I4552
sg55
I25702
sg22
VSat Mar 09 23:39:32 +0000 2013
p1650
sg57
I00
sg58
VPatriot, Army Veteran from 40 yrs ago, love my rescued dogs, rifles, pistols, and freedom. God Bless all US Armed Forces, Active,Vets,& Deceased. #NRA #PJNET
p1651
sg60
Vhttps://pbs.twimg.com/profile_images/542439961106997251/Qt0kA7_R_normal.jpeg
p1652
sg62
I4549
sg63
I8473
sg64
I0
sg65
Nsg66
I00
sg67
Vhttps://pbs.twimg.com/profile_banners/1255621518/1418165233
p1653
sg69
I00
sg70
I00
sg71
VBD1C1C
p1654
sg73
I00
sg74
I00
sg75
Vhttp://abs.twimg.com/images/themes/theme1/bg.png
p1655
sg77
Vcheapcigar
p1656
sg79
I85
sg80
VSublimin_Al
p1657
sg82
VDDEEF6
p1658
sg84
Vhttp://t.co/mFeQgMWOgQ
p1659
sg86
I1255621518
sg87
VC0DEED
p1660
sbsg89
I1
sg90
V<a href="http://twitter.com/download/iphone" rel="nofollow">Twitter for iPhone</a>
p1661
sg92
(lp1662
sg86
I543701529832980481
sbag3
(g4
g5
Ntp1663
Rp1664
(dp1665
g9
I0
sg10
Nsg11
Nsg12
(lp1666
sg14
I00
sg15
g3
(g4
g5
Ntp1667
Rp1668
(dp1669
g9
I1
sg10
Nsg11
Nsg12
(lp1670
sg14
I00
sg15
Nsg16
Nsg17
(lp1671
sg19
Nsg20
Nsg21
Nsg22
VFri Dec 12 23:55:23 +0000 2014
p1672
sg24
Nsg25
Nsg26
Nsg27
Nsg28
Nsg29
Nsg30
I00
sg31
Nsg32
(lp1673
g3
(g43
g5
Ntp1674
Rp1675
(dp1676
g10
Nsg48
Nsg50
Nsg52
Nsg54
Nsg55
Nsg22
Nsg57
Nsg58
Nsg60
Nsg62
Nsg63
Nsg64
Nsg65
Nsg66
Nsg67
Nsg69
Nsg70
Nsg71
Nsg73
Nsg74
Nsg75
Nsg77
Vcheapcigar
p1677
sg79
Nsg80
VSublimin_Al
p1678
sg82
Nsg84
Nsg86
I1255621518
sg87
Nsbag3
(g43
g5
Ntp1679
Rp1680
(dp1681
g10
Nsg48
Nsg50
Nsg52
Nsg54
Nsg55
Nsg22
Nsg57
Nsg58
Nsg60
Nsg62
Nsg63
Nsg64
Nsg65
Nsg66
Nsg67
Nsg69
Nsg70
Nsg71
Nsg73
Nsg74
Nsg75
Nsg77
Vjrstws
p1682
sg79
Nsg80
VJR Benghazismidgen
p1683
sg82
Nsg84
Nsg86
I228901203
sg87
Nsbag3
(g43
g5
Ntp1684
Rp1685
(dp1686
g10
Nsg48
Nsg50
Nsg52
Nsg54
Nsg55
Nsg22
Nsg57
Nsg58
Nsg60
Nsg62
Nsg63
Nsg64
Nsg65
Nsg66
Nsg67
Nsg69
Nsg70
Nsg71
Nsg73
Nsg74
Nsg75
Nsg77
VAndrewArlink
p1687
sg79
Nsg80
VAndrew Arlink
p1688
sg82
Nsg84
Nsg86
I2494237140
sg87
Nsbag3
(g43
g5
Ntp1689
Rp1690
(dp1691
g10
Nsg48
Nsg50
Nsg52
Nsg54
Nsg55
Nsg22
Nsg57
Nsg58
Nsg60
Nsg62
Nsg63
Nsg64
Nsg65
Nsg66
Nsg67
Nsg69
Nsg70
Nsg71
Nsg73
Nsg74
Nsg75
Nsg77
Vlemonchronicle
p1692
sg79
Nsg80
VElizabeth
p1693
sg82
Nsg84
Nsg86
I194619305
sg87
Nsbag3
(g43
g5
Ntp1694
Rp1695
(dp1696
g10
Nsg48
Nsg50
Nsg52
Nsg54
Nsg55
Nsg22
Nsg57
Nsg58
Nsg60
Nsg62
Nsg63
Nsg64
Nsg65
Nsg66
Nsg67
Nsg69
Nsg70
Nsg71
Nsg73
Nsg74
Nsg75
Nsg77
Vmlong42947
p1697
sg79
Nsg80
VMarilyn Long
p1698
sg82
Nsg84
Nsg86
I538481859
sg87
Nsbag3
(g43
g5
Ntp1699
Rp1700
(dp1701
g10
Nsg48
Nsg50
Nsg52
Nsg54
Nsg55
Nsg22
Nsg57
Nsg58
Nsg60
Nsg62
Nsg63
Nsg64
Nsg65
Nsg66
Nsg67
Nsg69
Nsg70
Nsg71
Nsg73
Nsg74
Nsg75
Nsg77
VJOHNNDIBELLO
p1702
sg79
Nsg80
VJOHN N DIBELLO
p1703
sg82
Nsg84
Nsg86
I525857535
sg87
Nsbag3
(g43
g5
Ntp1704
Rp1705
(dp1706
g10
Nsg48
Nsg50
Nsg52
Nsg54
Nsg55
Nsg22
Nsg57
Nsg58
Nsg60
Nsg62
Nsg63
Nsg64
Nsg65
Nsg66
Nsg67
Nsg69
Nsg70
Nsg71
Nsg73
Nsg74
Nsg75
Nsg77
Vjudith5519
p1707
sg79
Nsg80
VJude505
p1708
sg82
Nsg84
Nsg86
I2440969560
sg87
Nsbag3
(g43
g5
Ntp1709
Rp1710
(dp1711
g10
Nsg48
Nsg50
Nsg52
Nsg54
Nsg55
Nsg22
Nsg57
Nsg58
Nsg60
Nsg62
Nsg63
Nsg64
Nsg65
Nsg66
Nsg67
Nsg69
Nsg70
Nsg71
Nsg73
Nsg74
Nsg75
Nsg77
Vlawrenleann1962
p1712
sg79
Nsg80
VLeann Rehm Lawrence
p1713
sg82
Nsg84
Nsg86
I837969043
sg87
Nsbag3
(g43
g5
Ntp1714
Rp1715
(dp1716
g10
Nsg48
Nsg50
Nsg52
Nsg54
Nsg55
Nsg22
Nsg57
Nsg58
Nsg60
Nsg62
Nsg63
Nsg64
Nsg65
Nsg66
Nsg67
Nsg69
Nsg70
Nsg71
Nsg73
Nsg74
Nsg75
Nsg77
Vwarpfactorbanjo
p1717
sg79
Nsg80
VJ Loveless
p1718
sg82
Nsg84
Nsg86
I162078051
sg87
Nsbasg34
Nsg35
Nsg36
Nsg37
V.@cheapcigar @jrstws @AndrewArlink @lemonchronicle @mlong42947 @JOHNNDIBELLO @judith5519 @lawrenleann1962 @warpfactorbanjo Thx 4 RTs &amp; FAVs
p1719
sg39
I00
sg40
Ven
p1720
sg42
g3
(g43
g5
Ntp1721
Rp1722
(dp1723
g10
VNew York: Behind enemy lines
p1724
sg48
V895429
p1725
sg50
Ven
p1726
sg52
VQuito
p1727
sg54
I7887
sg55
I40146
sg22
VThu Apr 30 14:59:16 +0000 2009
p1728
sg57
I00
sg58
VFree Markets, Libertarian, Constitution, Science, Politics, TEA Party.  The Republic is threatened; No one may stand idle.
p1729
sg60
Vhttps://pbs.twimg.com/profile_images/1522440980/9c1f68d8-f920-4c08-ad95-7addf28b5833_normal.png
p1730
sg62
I8299
sg63
I317
sg64
I-18000
sg65
Nsg66
I00
sg67
Vhttps://pbs.twimg.com/profile_banners/36681617/1394949487
p1731
sg69
I00
sg70
I00
sg71
V39BD91
p1732
sg73
I00
sg74
I00
sg75
Vhttp://pbs.twimg.com/profile_background_images/263722096/x4767c8d7a44c41d8d6b5571c8513098.jpg
p1733
sg77
Vgatman7
p1734
sg79
I144
sg80
VGeorge Thompson
p1735
sg82
VD9F7B2
p1736
sg84
Nsg86
I36681617
sg87
VE2ED4C
p1737
sbsg89
I3
sg90
V<a href="http://twitter.com" rel="nofollow">Twitter Web Client</a>
p1738
sg92
(lp1739
sg86
I543554742149218304
sbsg16
Nsg17
(lp1740
sg19
Nsg20
Nsg21
Nsg22
VSat Dec 13 09:38:20 +0000 2014
p1741
sg24
Nsg25
Nsg26
Nsg27
Nsg28
Nsg29
Nsg30
I00
sg31
Nsg32
(lp1742
g3
(g43
g5
Ntp1743
Rp1744
(dp1745
g10
Nsg48
Nsg50
Nsg52
Nsg54
Nsg55
Nsg22
Nsg57
Nsg58
Nsg60
Nsg62
Nsg63
Nsg64
Nsg65
Nsg66
Nsg67
Nsg69
Nsg70
Nsg71
Nsg73
Nsg74
Nsg75
Nsg77
Vgatman7
p1746
sg79
Nsg80
VGeorge Thompson
p1747
sg82
Nsg84
Nsg86
I36681617
sg87
Nsbag3
(g43
g5
Ntp1748
Rp1749
(dp1750
g10
Nsg48
Nsg50
Nsg52
Nsg54
Nsg55
Nsg22
Nsg57
Nsg58
Nsg60
Nsg62
Nsg63
Nsg64
Nsg65
Nsg66
Nsg67
Nsg69
Nsg70
Nsg71
Nsg73
Nsg74
Nsg75
Nsg77
Vcheapcigar
p1751
sg79
Nsg80
VSublimin_Al
p1752
sg82
Nsg84
Nsg86
I1255621518
sg87
Nsbag3
(g43
g5
Ntp1753
Rp1754
(dp1755
g10
Nsg48
Nsg50
Nsg52
Nsg54
Nsg55
Nsg22
Nsg57
Nsg58
Nsg60
Nsg62
Nsg63
Nsg64
Nsg65
Nsg66
Nsg67
Nsg69
Nsg70
Nsg71
Nsg73
Nsg74
Nsg75
Nsg77
Vjrstws
p1756
sg79
Nsg80
VJR Benghazismidgen
p1757
sg82
Nsg84
Nsg86
I228901203
sg87
Nsbag3
(g43
g5
Ntp1758
Rp1759
(dp1760
g10
Nsg48
Nsg50
Nsg52
Nsg54
Nsg55
Nsg22
Nsg57
Nsg58
Nsg60
Nsg62
Nsg63
Nsg64
Nsg65
Nsg66
Nsg67
Nsg69
Nsg70
Nsg71
Nsg73
Nsg74
Nsg75
Nsg77
VAndrewArlink
p1761
sg79
Nsg80
VAndrew Arlink
p1762
sg82
Nsg84
Nsg86
I2494237140
sg87
Nsbag3
(g43
g5
Ntp1763
Rp1764
(dp1765
g10
Nsg48
Nsg50
Nsg52
Nsg54
Nsg55
Nsg22
Nsg57
Nsg58
Nsg60
Nsg62
Nsg63
Nsg64
Nsg65
Nsg66
Nsg67
Nsg69
Nsg70
Nsg71
Nsg73
Nsg74
Nsg75
Nsg77
Vlemonchronicle
p1766
sg79
Nsg80
VElizabeth
p1767
sg82
Nsg84
Nsg86
I194619305
sg87
Nsbag3
(g43
g5
Ntp1768
Rp1769
(dp1770
g10
Nsg48
Nsg50
Nsg52
Nsg54
Nsg55
Nsg22
Nsg57
Nsg58
Nsg60
Nsg62
Nsg63
Nsg64
Nsg65
Nsg66
Nsg67
Nsg69
Nsg70
Nsg71
Nsg73
Nsg74
Nsg75
Nsg77
Vmlong42947
p1771
sg79
Nsg80
VMarilyn Long
p1772
sg82
Nsg84
Nsg86
I538481859
sg87
Nsbag3
(g43
g5
Ntp1773
Rp1774
(dp1775
g10
Nsg48
Nsg50
Nsg52
Nsg54
Nsg55
Nsg22
Nsg57
Nsg58
Nsg60
Nsg62
Nsg63
Nsg64
Nsg65
Nsg66
Nsg67
Nsg69
Nsg70
Nsg71
Nsg73
Nsg74
Nsg75
Nsg77
VJOHNNDIBELLO
p1776
sg79
Nsg80
VJOHN N DIBELLO
p1777
sg82
Nsg84
Nsg86
I525857535
sg87
Nsbag3
(g43
g5
Ntp1778
Rp1779
(dp1780
g10
Nsg48
Nsg50
Nsg52
Nsg54
Nsg55
Nsg22
Nsg57
Nsg58
Nsg60
Nsg62
Nsg63
Nsg64
Nsg65
Nsg66
Nsg67
Nsg69
Nsg70
Nsg71
Nsg73
Nsg74
Nsg75
Nsg77
Vjudith5519
p1781
sg79
Nsg80
VJude505
p1782
sg82
Nsg84
Nsg86
I2440969560
sg87
Nsbag3
(g43
g5
Ntp1783
Rp1784
(dp1785
g10
Nsg48
Nsg50
Nsg52
Nsg54
Nsg55
Nsg22
Nsg57
Nsg58
Nsg60
Nsg62
Nsg63
Nsg64
Nsg65
Nsg66
Nsg67
Nsg69
Nsg70
Nsg71
Nsg73
Nsg74
Nsg75
Nsg77
Vlawrenleann1962
p1786
sg79
Nsg80
VLeann Rehm Lawrence
p1787
sg82
Nsg84
Nsg86
I837969043
sg87
Nsbag3
(g43
g5
Ntp1788
Rp1789
(dp1790
g10
Nsg48
Nsg50
Nsg52
Nsg54
Nsg55
Nsg22
Nsg57
Nsg58
Nsg60
Nsg62
Nsg63
Nsg64
Nsg65
Nsg66
Nsg67
Nsg69
Nsg70
Nsg71
Nsg73
Nsg74
Nsg75
Nsg77
Vwarpfactorbanjo
p1791
sg79
Nsg80
VJ Loveless
p1792
sg82
Nsg84
Nsg86
I162078051
sg87
Nsbasg34
Nsg35
Nsg36
Nsg37
VRT @gatman7: .@cheapcigar @jrstws @AndrewArlink @lemonchronicle @mlong42947 @JOHNNDIBELLO @judith5519 @lawrenleann1962 @warpfactorbanjo Thx\u2026
p1793
sg39
I00
sg40
Ven
p1794
sg42
g3
(g43
g5
Ntp1795
Rp1796
(dp1797
g10
V \ufe3b\u2566\u2564\u2500\u2500   \ufe3b\u2566\u2564\u2500\u2500   \ufe3b\u2566\u2564\u2500\u2500   \ufe3b\u2566\u2564\u2500\u2500
p1798
sg48
V333333
p1799
sg50
Ven-gb
p1800
sg52
VLondon
p1801
sg54
I4552
sg55
I25702
sg22
VSat Mar 09 23:39:32 +0000 2013
p1802
sg57
I00
sg58
VPatriot, Army Veteran from 40 yrs ago, love my rescued dogs, rifles, pistols, and freedom. God Bless all US Armed Forces, Active,Vets,& Deceased. #NRA #PJNET
p1803
sg60
Vhttps://pbs.twimg.com/profile_images/542439961106997251/Qt0kA7_R_normal.jpeg
p1804
sg62
I4549
sg63
I8473
sg64
I0
sg65
Nsg66
I00
sg67
Vhttps://pbs.twimg.com/profile_banners/1255621518/1418165233
p1805
sg69
I00
sg70
I00
sg71
VBD1C1C
p1806
sg73
I00
sg74
I00
sg75
Vhttp://abs.twimg.com/images/themes/theme1/bg.png
p1807
sg77
Vcheapcigar
p1808
sg79
I85
sg80
VSublimin_Al
p1809
sg82
VDDEEF6
p1810
sg84
Vhttp://t.co/mFeQgMWOgQ
p1811
sg86
I1255621518
sg87
VC0DEED
p1812
sbsg89
I3
sg90
V<a href="http://twitter.com/download/iphone" rel="nofollow">Twitter for iPhone</a>
p1813
sg92
(lp1814
sg86
I543701442817966080
sbag3
(g4
g5
Ntp1815
Rp1816
(dp1817
g9
I0
sg10
Nsg11
Nsg12
(lp1818
sg14
I00
sg15
g3
(g4
g5
Ntp1819
Rp1820
(dp1821
g9
I1
sg10
Nsg11
Nsg12
(lp1822
sg14
I00
sg15
Nsg16
Nsg17
(lp1823
sg19
Nsg20
Nsg21
Nsg22
VSat Dec 13 00:00:29 +0000 2014
p1824
sg24
Nsg25
Nsg26
Vgatman7
p1825
sg27
Nsg28
I36681617
sg29
Nsg30
I00
sg31
Nsg32
(lp1826
g3
(g43
g5
Ntp1827
Rp1828
(dp1829
g10
Nsg48
Nsg50
Nsg52
Nsg54
Nsg55
Nsg22
Nsg57
Nsg58
Nsg60
Nsg62
Nsg63
Nsg64
Nsg65
Nsg66
Nsg67
Nsg69
Nsg70
Nsg71
Nsg73
Nsg74
Nsg75
Nsg77
Vgatman7
p1830
sg79
Nsg80
VGeorge Thompson
p1831
sg82
Nsg84
Nsg86
I36681617
sg87
Nsbag3
(g43
g5
Ntp1832
Rp1833
(dp1834
g10
Nsg48
Nsg50
Nsg52
Nsg54
Nsg55
Nsg22
Nsg57
Nsg58
Nsg60
Nsg62
Nsg63
Nsg64
Nsg65
Nsg66
Nsg67
Nsg69
Nsg70
Nsg71
Nsg73
Nsg74
Nsg75
Nsg77
Vcheapcigar
p1835
sg79
Nsg80
VSublimin_Al
p1836
sg82
Nsg84
Nsg86
I1255621518
sg87
Nsbag3
(g43
g5
Ntp1837
Rp1838
(dp1839
g10
Nsg48
Nsg50
Nsg52
Nsg54
Nsg55
Nsg22
Nsg57
Nsg58
Nsg60
Nsg62
Nsg63
Nsg64
Nsg65
Nsg66
Nsg67
Nsg69
Nsg70
Nsg71
Nsg73
Nsg74
Nsg75
Nsg77
Vjrstws
p1840
sg79
Nsg80
VJR Benghazismidgen
p1841
sg82
Nsg84
Nsg86
I228901203
sg87
Nsbag3
(g43
g5
Ntp1842
Rp1843
(dp1844
g10
Nsg48
Nsg50
Nsg52
Nsg54
Nsg55
Nsg22
Nsg57
Nsg58
Nsg60
Nsg62
Nsg63
Nsg64
Nsg65
Nsg66
Nsg67
Nsg69
Nsg70
Nsg71
Nsg73
Nsg74
Nsg75
Nsg77
VAndrewArlink
p1845
sg79
Nsg80
VAndrew Arlink
p1846
sg82
Nsg84
Nsg86
I2494237140
sg87
Nsbag3
(g43
g5
Ntp1847
Rp1848
(dp1849
g10
Nsg48
Nsg50
Nsg52
Nsg54
Nsg55
Nsg22
Nsg57
Nsg58
Nsg60
Nsg62
Nsg63
Nsg64
Nsg65
Nsg66
Nsg67
Nsg69
Nsg70
Nsg71
Nsg73
Nsg74
Nsg75
Nsg77
Vmlong42947
p1850
sg79
Nsg80
VMarilyn Long
p1851
sg82
Nsg84
Nsg86
I538481859
sg87
Nsbag3
(g43
g5
Ntp1852
Rp1853
(dp1854
g10
Nsg48
Nsg50
Nsg52
Nsg54
Nsg55
Nsg22
Nsg57
Nsg58
Nsg60
Nsg62
Nsg63
Nsg64
Nsg65
Nsg66
Nsg67
Nsg69
Nsg70
Nsg71
Nsg73
Nsg74
Nsg75
Nsg77
VJOHNNDIBELLO
p1855
sg79
Nsg80
VJOHN N DIBELLO
p1856
sg82
Nsg84
Nsg86
I525857535
sg87
Nsbag3
(g43
g5
Ntp1857
Rp1858
(dp1859
g10
Nsg48
Nsg50
Nsg52
Nsg54
Nsg55
Nsg22
Nsg57
Nsg58
Nsg60
Nsg62
Nsg63
Nsg64
Nsg65
Nsg66
Nsg67
Nsg69
Nsg70
Nsg71
Nsg73
Nsg74
Nsg75
Nsg77
Vjudith5519
p1860
sg79
Nsg80
VJude505
p1861
sg82
Nsg84
Nsg86
I2440969560
sg87
Nsbag3
(g43
g5
Ntp1862
Rp1863
(dp1864
g10
Nsg48
Nsg50
Nsg52
Nsg54
Nsg55
Nsg22
Nsg57
Nsg58
Nsg60
Nsg62
Nsg63
Nsg64
Nsg65
Nsg66
Nsg67
Nsg69
Nsg70
Nsg71
Nsg73
Nsg74
Nsg75
Nsg77
Vlawrenleann1962
p1865
sg79
Nsg80
VLeann Rehm Lawrence
p1866
sg82
Nsg84
Nsg86
I837969043
sg87
Nsbag3
(g43
g5
Ntp1867
Rp1868
(dp1869
g10
Nsg48
Nsg50
Nsg52
Nsg54
Nsg55
Nsg22
Nsg57
Nsg58
Nsg60
Nsg62
Nsg63
Nsg64
Nsg65
Nsg66
Nsg67
Nsg69
Nsg70
Nsg71
Nsg73
Nsg74
Nsg75
Nsg77
Vwarpfactorbanjo
p1870
sg79
Nsg80
VJ Loveless
p1871
sg82
Nsg84
Nsg86
I162078051
sg87
Nsbasg34
Nsg35
Nsg36
I543554742149218304
sg37
V@gatman7 @cheapcigar @jrstws @AndrewArlink @mlong42947 @JOHNNDIBELLO @judith5519 @lawrenleann1962 @warpfactorbanjo you are welcome!
p1872
sg39
I00
sg40
Ven
p1873
sg42
g3
(g43
g5
Ntp1874
Rp1875
(dp1876
g10
VNew Jersey
p1877
sg48
V333333
p1878
sg50
Ven
p1879
sg52
VEastern Time (US & Canada)
p1880
sg54
I2303
sg55
I95454
sg22
VFri Sep 24 15:48:07 +0000 2010
p1881
sg57
I00
sg58
Vart, science, nature, news.\u000aConservative in views, do not belong to any party. This months highlight until January is Paris
p1882
sg60
Vhttps://pbs.twimg.com/profile_images/534421826672144386/1gw4aZ0h_normal.jpeg
p1883
sg62
I2202
sg63
I3977
sg64
I-18000
sg65
Nsg66
I00
sg67
Vhttps://pbs.twimg.com/profile_banners/194619305/1417283241
p1884
sg69
I00
sg70
I00
sg71
V3B94D9
p1885
sg73
I00
sg74
I00
sg75
Vhttp://abs.twimg.com/images/themes/theme19/bg.gif
p1886
sg77
Vlemonchronicle
p1887
sg79
I62
sg80
VElizabeth
p1888
sg82
VF6FFD1
p1889
sg84
Vhttp://t.co/zzPgWQdSUR
p1890
sg86
I194619305
sg87
VFFF04D
p1891
sbsg89
I1
sg90
V<a href="http://twitter.com" rel="nofollow">Twitter Web Client</a>
p1892
sg92
(lp1893
sg86
I543556025149038592
sbsg16
Nsg17
(lp1894
sg19
Nsg20
Nsg21
Nsg22
VSat Dec 13 09:38:16 +0000 2014
p1895
sg24
Nsg25
Nsg26
Nsg27
Nsg28
Nsg29
Nsg30
I00
sg31
Nsg32
(lp1896
g3
(g43
g5
Ntp1897
Rp1898
(dp1899
g10
Nsg48
Nsg50
Nsg52
Nsg54
Nsg55
Nsg22
Nsg57
Nsg58
Nsg60
Nsg62
Nsg63
Nsg64
Nsg65
Nsg66
Nsg67
Nsg69
Nsg70
Nsg71
Nsg73
Nsg74
Nsg75
Nsg77
Vlemonchronicle
p1900
sg79
Nsg80
VElizabeth
p1901
sg82
Nsg84
Nsg86
I194619305
sg87
Nsbag3
(g43
g5
Ntp1902
Rp1903
(dp1904
g10
Nsg48
Nsg50
Nsg52
Nsg54
Nsg55
Nsg22
Nsg57
Nsg58
Nsg60
Nsg62
Nsg63
Nsg64
Nsg65
Nsg66
Nsg67
Nsg69
Nsg70
Nsg71
Nsg73
Nsg74
Nsg75
Nsg77
Vgatman7
p1905
sg79
Nsg80
VGeorge Thompson
p1906
sg82
Nsg84
Nsg86
I36681617
sg87
Nsbag3
(g43
g5
Ntp1907
Rp1908
(dp1909
g10
Nsg48
Nsg50
Nsg52
Nsg54
Nsg55
Nsg22
Nsg57
Nsg58
Nsg60
Nsg62
Nsg63
Nsg64
Nsg65
Nsg66
Nsg67
Nsg69
Nsg70
Nsg71
Nsg73
Nsg74
Nsg75
Nsg77
Vcheapcigar
p1910
sg79
Nsg80
VSublimin_Al
p1911
sg82
Nsg84
Nsg86
I1255621518
sg87
Nsbag3
(g43
g5
Ntp1912
Rp1913
(dp1914
g10
Nsg48
Nsg50
Nsg52
Nsg54
Nsg55
Nsg22
Nsg57
Nsg58
Nsg60
Nsg62
Nsg63
Nsg64
Nsg65
Nsg66
Nsg67
Nsg69
Nsg70
Nsg71
Nsg73
Nsg74
Nsg75
Nsg77
Vjrstws
p1915
sg79
Nsg80
VJR Benghazismidgen
p1916
sg82
Nsg84
Nsg86
I228901203
sg87
Nsbag3
(g43
g5
Ntp1917
Rp1918
(dp1919
g10
Nsg48
Nsg50
Nsg52
Nsg54
Nsg55
Nsg22
Nsg57
Nsg58
Nsg60
Nsg62
Nsg63
Nsg64
Nsg65
Nsg66
Nsg67
Nsg69
Nsg70
Nsg71
Nsg73
Nsg74
Nsg75
Nsg77
VAndrewArlink
p1920
sg79
Nsg80
VAndrew Arlink
p1921
sg82
Nsg84
Nsg86
I2494237140
sg87
Nsbag3
(g43
g5
Ntp1922
Rp1923
(dp1924
g10
Nsg48
Nsg50
Nsg52
Nsg54
Nsg55
Nsg22
Nsg57
Nsg58
Nsg60
Nsg62
Nsg63
Nsg64
Nsg65
Nsg66
Nsg67
Nsg69
Nsg70
Nsg71
Nsg73
Nsg74
Nsg75
Nsg77
Vmlong42947
p1925
sg79
Nsg80
VMarilyn Long
p1926
sg82
Nsg84
Nsg86
I538481859
sg87
Nsbag3
(g43
g5
Ntp1927
Rp1928
(dp1929
g10
Nsg48
Nsg50
Nsg52
Nsg54
Nsg55
Nsg22
Nsg57
Nsg58
Nsg60
Nsg62
Nsg63
Nsg64
Nsg65
Nsg66
Nsg67
Nsg69
Nsg70
Nsg71
Nsg73
Nsg74
Nsg75
Nsg77
VJOHNNDIBELLO
p1930
sg79
Nsg80
VJOHN N DIBELLO
p1931
sg82
Nsg84
Nsg86
I525857535
sg87
Nsbag3
(g43
g5
Ntp1932
Rp1933
(dp1934
g10
Nsg48
Nsg50
Nsg52
Nsg54
Nsg55
Nsg22
Nsg57
Nsg58
Nsg60
Nsg62
Nsg63
Nsg64
Nsg65
Nsg66
Nsg67
Nsg69
Nsg70
Nsg71
Nsg73
Nsg74
Nsg75
Nsg77
Vjudith5519
p1935
sg79
Nsg80
VJude505
p1936
sg82
Nsg84
Nsg86
I2440969560
sg87
Nsbag3
(g43
g5
Ntp1937
Rp1938
(dp1939
g10
Nsg48
Nsg50
Nsg52
Nsg54
Nsg55
Nsg22
Nsg57
Nsg58
Nsg60
Nsg62
Nsg63
Nsg64
Nsg65
Nsg66
Nsg67
Nsg69
Nsg70
Nsg71
Nsg73
Nsg74
Nsg75
Nsg77
Vlawrenleann1962
p1940
sg79
Nsg80
VLeann Rehm Lawrence
p1941
sg82
Nsg84
Nsg86
I837969043
sg87
Nsbag3
(g43
g5
Ntp1942
Rp1943
(dp1944
g10
Nsg48
Nsg50
Nsg52
Nsg54
Nsg55
Nsg22
Nsg57
Nsg58
Nsg60
Nsg62
Nsg63
Nsg64
Nsg65
Nsg66
Nsg67
Nsg69
Nsg70
Nsg71
Nsg73
Nsg74
Nsg75
Nsg77
Vwarpfactorbanjo
p1945
sg79
Nsg80
VJ Loveless
p1946
sg82
Nsg84
Nsg86
I162078051
sg87
Nsbasg34
Nsg35
Nsg36
Nsg37
VRT @lemonchronicle: @gatman7 @cheapcigar @jrstws @AndrewArlink @mlong42947 @JOHNNDIBELLO @judith5519 @lawrenleann1962 @warpfactorbanjo you \u2026
p1947
sg39
I00
sg40
Ven
p1948
sg42
g3
(g43
g5
Ntp1949
Rp1950
(dp1951
g10
V \ufe3b\u2566\u2564\u2500\u2500   \ufe3b\u2566\u2564\u2500\u2500   \ufe3b\u2566\u2564\u2500\u2500   \ufe3b\u2566\u2564\u2500\u2500
p1952
sg48
V333333
p1953
sg50
Ven-gb
p1954
sg52
VLondon
p1955
sg54
I4552
sg55
I25702
sg22
VSat Mar 09 23:39:32 +0000 2013
p1956
sg57
I00
sg58
VPatriot, Army Veteran from 40 yrs ago, love my rescued dogs, rifles, pistols, and freedom. God Bless all US Armed Forces, Active,Vets,& Deceased. #NRA #PJNET
p1957
sg60
Vhttps://pbs.twimg.com/profile_images/542439961106997251/Qt0kA7_R_normal.jpeg
p1958
sg62
I4549
sg63
I8473
sg64
I0
sg65
Nsg66
I00
sg67
Vhttps://pbs.twimg.com/profile_banners/1255621518/1418165233
p1959
sg69
I00
sg70
I00
sg71
VBD1C1C
p1960
sg73
I00
sg74
I00
sg75
Vhttp://abs.twimg.com/images/themes/theme1/bg.png
p1961
sg77
Vcheapcigar
p1962
sg79
I85
sg80
VSublimin_Al
p1963
sg82
VDDEEF6
p1964
sg84
Vhttp://t.co/mFeQgMWOgQ
p1965
sg86
I1255621518
sg87
VC0DEED
p1966
sbsg89
I1
sg90
V<a href="http://twitter.com/download/iphone" rel="nofollow">Twitter for iPhone</a>
p1967
sg92
(lp1968
sg86
I543701426372108288
sbag3
(g4
g5
Ntp1969
Rp1970
(dp1971
g9
I0
sg10
Nsg11
Nsg12
(lp1972
sg14
I00
sg15
g3
(g4
g5
Ntp1973
Rp1974
(dp1975
g9
I4
sg10
Nsg11
Nsg12
(lp1976
sg14
I00
sg15
Nsg16
Nsg17
(lp1977
sg19
Nsg20
Nsg21
Nsg22
VSat Dec 13 04:50:16 +0000 2014
p1978
sg24
Nsg25
Nsg26
Nsg27
Nsg28
Nsg29
Nsg30
I00
sg31
Nsg32
(lp1979
g3
(g43
g5
Ntp1980
Rp1981
(dp1982
g10
Nsg48
Nsg50
Nsg52
Nsg54
Nsg55
Nsg22
Nsg57
Nsg58
Nsg60
Nsg62
Nsg63
Nsg64
Nsg65
Nsg66
Nsg67
Nsg69
Nsg70
Nsg71
Nsg73
Nsg74
Nsg75
Nsg77
VCIA
p1983
sg79
Nsg80
VCIA
p1984
sg82
Nsg84
Nsg86
I2359926157
sg87
Nsbasg34
Nsg35
Nsg36
Nsg37
VOh hi @CIA now is a great time to release some records of Obama's past, say let's start with his birthplace! &amp; thank u all for your service!
p1985
sg39
I00
sg40
Ven
p1986
sg42
g3
(g43
g5
Ntp1987
Rp1988
(dp1989
g10
VThe US of fucking A!
p1990
sg48
V333333
p1991
sg50
Ven
p1992
sg52
Nsg54
I1231
sg55
I5890
sg22
VFri Aug 15 02:51:21 +0000 2014
p1993
sg57
I00
sg58
VLifestyle Coach for progressive Donkeys and general Oracle.
p1994
sg60
Vhttps://pbs.twimg.com/profile_images/500113904098226176/uRm2_gy1_normal.jpeg
p1995
sg62
I1982
sg63
I2754
sg64
Nsg65
Nsg66
I00
sg67
Vhttps://pbs.twimg.com/profile_banners/2733469417/1408071496
p1996
sg69
I00
sg70
I01
sg71
V009999
p1997
sg73
I00
sg74
I00
sg75
Vhttp://abs.twimg.com/images/themes/theme14/bg.gif
p1998
sg77
Vanyclinic
p1999
sg79
I5
sg80
VThe Counselor\u2122
p2000
sg82
VEFEFEF
p2001
sg84
Nsg86
I2733469417
sg87
V131516
p2002
sbsg89
I1
sg90
V<a href="http://twitter.com/download/iphone" rel="nofollow">Twitter for iPhone</a>
p2003
sg92
(lp2004
sg86
I543628949784625152
sbsg16
Nsg17
(lp2005
sg19
Nsg20
Nsg21
Nsg22
VSat Dec 13 09:37:15 +0000 2014
p2006
sg24
Nsg25
Nsg26
Nsg27
Nsg28
Nsg29
Nsg30
I00
sg31
Nsg32
(lp2007
g3
(g43
g5
Ntp2008
Rp2009
(dp2010
g10
Nsg48
Nsg50
Nsg52
Nsg54
Nsg55
Nsg22
Nsg57
Nsg58
Nsg60
Nsg62
Nsg63
Nsg64
Nsg65
Nsg66
Nsg67
Nsg69
Nsg70
Nsg71
Nsg73
Nsg74
Nsg75
Nsg77
Vanyclinic
p2011
sg79
Nsg80
VThe Counselor\u2122
p2012
sg82
Nsg84
Nsg86
I2733469417
sg87
Nsbag3
(g43
g5
Ntp2013
Rp2014
(dp2015
g10
Nsg48
Nsg50
Nsg52
Nsg54
Nsg55
Nsg22
Nsg57
Nsg58
Nsg60
Nsg62
Nsg63
Nsg64
Nsg65
Nsg66
Nsg67
Nsg69
Nsg70
Nsg71
Nsg73
Nsg74
Nsg75
Nsg77
VCIA
p2016
sg79
Nsg80
VCIA
p2017
sg82
Nsg84
Nsg86
I2359926157
sg87
Nsbasg34
Nsg35
Nsg36
Nsg37
VRT @anyclinic: Oh hi @CIA now is a great time to release some records of Obama's past, say let's start with his birthplace! &amp; thank u all f\u2026
p2018
sg39
I00
sg40
Ven
p2019
sg42
g3
(g43
g5
Ntp2020
Rp2021
(dp2022
g10
V \ufe3b\u2566\u2564\u2500\u2500   \ufe3b\u2566\u2564\u2500\u2500   \ufe3b\u2566\u2564\u2500\u2500   \ufe3b\u2566\u2564\u2500\u2500
p2023
sg48
V333333
p2024
sg50
Ven-gb
p2025
sg52
VLondon
p2026
sg54
I4552
sg55
I25702
sg22
VSat Mar 09 23:39:32 +0000 2013
p2027
sg57
I00
sg58
VPatriot, Army Veteran from 40 yrs ago, love my rescued dogs, rifles, pistols, and freedom. God Bless all US Armed Forces, Active,Vets,& Deceased. #NRA #PJNET
p2028
sg60
Vhttps://pbs.twimg.com/profile_images/542439961106997251/Qt0kA7_R_normal.jpeg
p2029
sg62
I4549
sg63
I8473
sg64
I0
sg65
Nsg66
I00
sg67
Vhttps://pbs.twimg.com/profile_banners/1255621518/1418165233
p2030
sg69
I00
sg70
I00
sg71
VBD1C1C
p2031
sg73
I00
sg74
I00
sg75
Vhttp://abs.twimg.com/images/themes/theme1/bg.png
p2032
sg77
Vcheapcigar
p2033
sg79
I85
sg80
VSublimin_Al
p2034
sg82
VDDEEF6
p2035
sg84
Vhttp://t.co/mFeQgMWOgQ
p2036
sg86
I1255621518
sg87
VC0DEED
p2037
sbsg89
I1
sg90
V<a href="http://twitter.com/download/iphone" rel="nofollow">Twitter for iPhone</a>
p2038
sg92
(lp2039
sg86
I543701173057093632
sbag3
(g4
g5
Ntp2040
Rp2041
(dp2042
g9
I0
sg10
Nsg11
Nsg12
(lp2043
g3
(g608
g5
Ntp2044
Rp2045
(dp2046
g612
VDemlogic
p2047
sbasg14
I00
sg15
g3
(g4
g5
Ntp2048
Rp2049
(dp2050
g9
I360
sg10
Nsg11
Nsg12
(lp2051
g3
(g608
g5
Ntp2052
Rp2053
(dp2054
g612
VDemlogic
p2055
sbasg14
I00
sg15
Nsg16
Nsg17
(lp2056
(dp2057
Vexpanded_url
p2058
Vhttp://twitter.com/MDColangelo/status/542472805435330562/photo/1
p2059
sVdisplay_url
p2060
Vpic.twitter.com/ltJ7sWpJ3N
p2061
sVurl
p2062
Vhttp://t.co/ltJ7sWpJ3N
p2063
sVmedia_url_https
p2064
Vhttps://pbs.twimg.com/media/B4dAIo5CMAAFeCN.jpg
p2065
sVid_str
p2066
V542472797281202176
p2067
sVsizes
p2068
(dp2069
Vsmall
p2070
(dp2071
Vh
p2072
I332
sVresize
p2073
Vfit
p2074
sVw
p2075
I340
ssVlarge
p2076
(dp2077
Vh
p2078
I479
sVresize
p2079
Vfit
p2080
sVw
p2081
I490
ssVmedium
p2082
(dp2083
Vh
p2084
I479
sVresize
p2085
Vfit
p2086
sVw
p2087
I490
ssVthumb
p2088
(dp2089
Vh
p2090
I150
sVresize
p2091
Vcrop
p2092
sVw
p2093
I150
sssVindices
p2094
(lp2095
I126
aI148
asVtype
p2096
Vphoto
p2097
sVid
p2098
I542472797281202176
sVmedia_url
p2099
Vhttp://pbs.twimg.com/media/B4dAIo5CMAAFeCN.jpg
p2100
sasg19
Nsg20
Nsg21
Nsg22
VWed Dec 10 00:16:10 +0000 2014
p2101
sg24
Nsg25
I00
sg26
Nsg27
Nsg28
Nsg29
Nsg30
I00
sg31
Nsg32
(lp2102
sg34
Nsg35
Nsg36
Nsg37
VWhat's worse..burned alive &amp;jumping to your death..or having water poured on your face &amp; sleep deprivation? #Demlogic http://t.co/ltJ7sWpJ3N
p2103
sg39
I00
sg40
Ven
p2104
sg42
g3
(g43
g5
Ntp2105
Rp2106
(dp2107
g10
VFredericksburg, Va
p2108
sg48
V333333
p2109
sg50
Ven
p2110
sg52
Nsg54
I1834
sg55
I2738
sg22
VFri Nov 01 01:22:44 +0000 2013
p2111
sg57
I00
sg58
VExec. Vice President of Johnson Realty Advisors |Community Service | Commercial Real Estate | Outdoors | Conservative | Good Wine | Good Food | Good Friends
p2112
sg60
Vhttps://pbs.twimg.com/profile_images/500974515053395968/dcQPfU5H_normal.jpeg
p2113
sg62
I2007
sg63
I4728
sg64
Nsg65
Nsg66
I00
sg67
Vhttps://pbs.twimg.com/profile_banners/2162637748/1406942907
p2114
sg69
I00
sg70
I00
sg71
V0084B4
p2115
sg73
I01
sg74
I00
sg75
Vhttp://abs.twimg.com/images/themes/theme1/bg.png
p2116
sg77
VMDColangelo
p2117
sg79
I15
sg80
VMichael D. Colangelo
p2118
sg82
VDDEEF6
p2119
sg84
Nsg86
I2162637748
sg87
VC0DEED
p2120
sbsg89
I604
sg90
V<a href="http://twitter.com/download/iphone" rel="nofollow">Twitter for iPhone</a>
p2121
sg92
(lp2122
sg86
I542472805435330562
sbsg16
Nsg17
(lp2123
(dp2124
Vsource_user_id
p2125
I2162637748
sVsource_status_id_str
p2126
V542472805435330562
p2127
sVexpanded_url
p2128
Vhttp://twitter.com/MDColangelo/status/542472805435330562/photo/1
p2129
sVdisplay_url
p2130
Vpic.twitter.com/ltJ7sWpJ3N
p2131
sVurl
p2132
Vhttp://t.co/ltJ7sWpJ3N
p2133
sVmedia_url_https
p2134
Vhttps://pbs.twimg.com/media/B4dAIo5CMAAFeCN.jpg
p2135
sVsource_user_id_str
p2136
V2162637748
p2137
sVsource_status_id
p2138
I542472805435330562
sVid_str
p2139
V542472797281202176
p2140
sVsizes
p2141
(dp2142
Vsmall
p2143
(dp2144
Vh
p2145
I332
sVresize
p2146
Vfit
p2147
sVw
p2148
I340
ssVlarge
p2149
(dp2150
Vh
p2151
I479
sVresize
p2152
Vfit
p2153
sVw
p2154
I490
ssVmedium
p2155
(dp2156
Vh
p2157
I479
sVresize
p2158
Vfit
p2159
sVw
p2160
I490
ssVthumb
p2161
(dp2162
Vh
p2163
I150
sVresize
p2164
Vcrop
p2165
sVw
p2166
I150
sssVindices
p2167
(lp2168
I147
aI148
asVtype
p2169
Vphoto
p2170
sVid
p2171
I542472797281202176
sVmedia_url
p2172
Vhttp://pbs.twimg.com/media/B4dAIo5CMAAFeCN.jpg
p2173
sasg19
Nsg20
Nsg21
Nsg22
VSat Dec 13 09:36:54 +0000 2014
p2174
sg24
Nsg25
I01
sg26
Nsg27
Nsg28
Nsg29
Nsg30
I00
sg31
Nsg32
(lp2175
g3
(g43
g5
Ntp2176
Rp2177
(dp2178
g10
Nsg48
Nsg50
Nsg52
Nsg54
Nsg55
Nsg22
Nsg57
Nsg58
Nsg60
Nsg62
Nsg63
Nsg64
Nsg65
Nsg66
Nsg67
Nsg69
Nsg70
Nsg71
Nsg73
Nsg74
Nsg75
Nsg77
VMDColangelo
p2179
sg79
Nsg80
VMichael D. Colangelo
p2180
sg82
Nsg84
Nsg86
I2162637748
sg87
Nsbasg34
Nsg35
Nsg36
Nsg37
VRT @MDColangelo: What's worse..burned alive &amp;jumping to your death..or having water poured on your face &amp; sleep deprivation? #Demlogic http\u2026
p2181
sg39
I00
sg40
Ven
p2182
sg42
g3
(g43
g5
Ntp2183
Rp2184
(dp2185
g10
V \ufe3b\u2566\u2564\u2500\u2500   \ufe3b\u2566\u2564\u2500\u2500   \ufe3b\u2566\u2564\u2500\u2500   \ufe3b\u2566\u2564\u2500\u2500
p2186
sg48
V333333
p2187
sg50
Ven-gb
p2188
sg52
VLondon
p2189
sg54
I4552
sg55
I25702
sg22
VSat Mar 09 23:39:32 +0000 2013
p2190
sg57
I00
sg58
VPatriot, Army Veteran from 40 yrs ago, love my rescued dogs, rifles, pistols, and freedom. God Bless all US Armed Forces, Active,Vets,& Deceased. #NRA #PJNET
p2191
sg60
Vhttps://pbs.twimg.com/profile_images/542439961106997251/Qt0kA7_R_normal.jpeg
p2192
sg62
I4549
sg63
I8473
sg64
I0
sg65
Nsg66
I00
sg67
Vhttps://pbs.twimg.com/profile_banners/1255621518/1418165233
p2193
sg69
I00
sg70
I00
sg71
VBD1C1C
p2194
sg73
I00
sg74
I00
sg75
Vhttp://abs.twimg.com/images/themes/theme1/bg.png
p2195
sg77
Vcheapcigar
p2196
sg79
I85
sg80
VSublimin_Al
p2197
sg82
VDDEEF6
p2198
sg84
Vhttp://t.co/mFeQgMWOgQ
p2199
sg86
I1255621518
sg87
VC0DEED
p2200
sbsg89
I604
sg90
V<a href="http://twitter.com/download/iphone" rel="nofollow">Twitter for iPhone</a>
p2201
sg92
(lp2202
sg86
I543701083731005440
sbag3
(g4
g5
Ntp2203
Rp2204
(dp2205
g9
I0
sg10
Nsg11
Nsg12
(lp2206
sg14
I00
sg15
Nsg16
Nsg17
(lp2207
sg19
Nsg20
Nsg21
Nsg22
VFri Dec 12 17:28:58 +0000 2014
p2208
sg24
Nsg25
Nsg26
Nsg27
Nsg28
Nsg29
Nsg30
I00
sg31
Nsg32
(lp2209
sg34
Nsg35
Nsg36
Nsg37
VIt seems as though blacks no longer seek equality.  They want to be the black crackas now, and dummy dem lib whites are helping them.
p2210
sg39
I00
sg40
Ven
p2211
sg42
g3
(g43
g5
Ntp2212
Rp2213
(dp2214
g10
V \ufe3b\u2566\u2564\u2500\u2500   \ufe3b\u2566\u2564\u2500\u2500   \ufe3b\u2566\u2564\u2500\u2500   \ufe3b\u2566\u2564\u2500\u2500
p2215
sg48
V333333
p2216
sg50
Ven-gb
p2217
sg52
VLondon
p2218
sg54
I4552
sg55
I25702
sg22
VSat Mar 09 23:39:32 +0000 2013
p2219
sg57
I00
sg58
VPatriot, Army Veteran from 40 yrs ago, love my rescued dogs, rifles, pistols, and freedom. God Bless all US Armed Forces, Active,Vets,& Deceased. #NRA #PJNET
p2220
sg60
Vhttps://pbs.twimg.com/profile_images/542439961106997251/Qt0kA7_R_normal.jpeg
p2221
sg62
I4549
sg63
I8473
sg64
I0
sg65
Nsg66
I00
sg67
Vhttps://pbs.twimg.com/profile_banners/1255621518/1418165233
p2222
sg69
I00
sg70
I00
sg71
VBD1C1C
p2223
sg73
I00
sg74
I00
sg75
Vhttp://abs.twimg.com/images/themes/theme1/bg.png
p2224
sg77
Vcheapcigar
p2225
sg79
I85
sg80
VSublimin_Al
p2226
sg82
VDDEEF6
p2227
sg84
Vhttp://t.co/mFeQgMWOgQ
p2228
sg86
I1255621518
sg87
VC0DEED
p2229
sbsg89
I0
sg90
V<a href="http://twitter.com" rel="nofollow">Twitter Web Client</a>
p2230
sg92
(lp2231
sg86
I543457494165913600
sbag3
(g4
g5
Ntp2232
Rp2233
(dp2234
g9
I0
sg10
Nsg11
Nsg12
(lp2235
sg14
I00
sg15
g3
(g4
g5
Ntp2236
Rp2237
(dp2238
g9
I3
sg10
Nsg11
Nsg12
(lp2239
sg14
I00
sg15
Nsg16
Nsg17
(lp2240
(dp2241
Vexpanded_url
p2242
Vhttp://twitter.com/DogoodII/status/543451533975646208/photo/1
p2243
sVdisplay_url
p2244
Vpic.twitter.com/i0VBZ7L8E2
p2245
sVurl
p2246
Vhttp://t.co/i0VBZ7L8E2
p2247
sVmedia_url_https
p2248
Vhttps://pbs.twimg.com/media/B4q6RrZCAAES_7_.png
p2249
sVid_str
p2250
V543451517919821825
p2251
sVsizes
p2252
(dp2253
Vlarge
p2254
(dp2255
Vh
p2256
I576
sVresize
p2257
Vfit
p2258
sVw
p2259
I1024
ssVsmall
p2260
(dp2261
Vh
p2262
I191
sVresize
p2263
Vfit
p2264
sVw
p2265
I340
ssVmedium
p2266
(dp2267
Vh
p2268
I337
sVresize
p2269
Vfit
p2270
sVw
p2271
I600
ssVthumb
p2272
(dp2273
Vh
p2274
I150
sVresize
p2275
Vcrop
p2276
sVw
p2277
I150
sssVindices
p2278
(lp2279
I88
aI110
asVtype
p2280
Vphoto
p2281
sVid
p2282
I543451517919821825
sVmedia_url
p2283
Vhttp://pbs.twimg.com/media/B4q6RrZCAAES_7_.png
p2284
sasg19
Nsg20
Nsg21
Nsg22
VFri Dec 12 17:05:17 +0000 2014
p2285
sg24
Nsg25
I00
sg26
Nsg27
Nsg28
Nsg29
Nsg30
I00
sg31
Nsg32
(lp2286
sg34
Nsg35
Nsg36
Nsg37
VFresh new leaders needed now. How can we help break the poverty cycle? No more BS talk, http://t.co/i0VBZ7L8E2
p2287
sg39
I00
sg40
Ven
p2288
sg42
g3
(g43
g5
Ntp2289
Rp2290
(dp2291
g10
VFreedom, USA
p2292
sg48
V333333
p2293
sg50
Ven
p2294
sg52
Nsg54
I1353
sg55
I9794
sg22
VSun Dec 15 15:05:02 +0000 2013
p2295
sg57
I00
sg58
VIn the spirit of Benjamin Franklin, who used the name Silence Dogood, to get his thoughts published in his local newspaper Letter to the Editor.
p2296
sg60
Vhttps://pbs.twimg.com/profile_images/459473197113417728/nwvBxG8D_normal.jpeg
p2297
sg62
I1981
sg63
I273
sg64
Nsg65
Nsg66
I00
sg67
Nsg69
I00
sg70
I00
sg71
V0084B4
p2298
sg73
I00
sg74
I00
sg75
Vhttp://abs.twimg.com/images/themes/theme1/bg.png
p2299
sg77
VDogoodII
p2300
sg79
I14
sg80
VSilence Dogood II
p2301
sg82
VDDEEF6
p2302
sg84
Nsg86
I2227207840
sg87
VC0DEED
p2303
sbsg89
I5
sg90
V<a href="http://twitter.com" rel="nofollow">Twitter Web Client</a>
p2304
sg92
(lp2305
sg86
I543451533975646208
sbsg16
Nsg17
(lp2306
(dp2307
Vsource_user_id
p2308
I2227207840
sVsource_status_id_str
p2309
V543451533975646208
p2310
sVexpanded_url
p2311
Vhttp://twitter.com/DogoodII/status/543451533975646208/photo/1
p2312
sVdisplay_url
p2313
Vpic.twitter.com/i0VBZ7L8E2
p2314
sVurl
p2315
Vhttp://t.co/i0VBZ7L8E2
p2316
sVmedia_url_https
p2317
Vhttps://pbs.twimg.com/media/B4q6RrZCAAES_7_.png
p2318
sVsource_user_id_str
p2319
V2227207840
p2320
sVsource_status_id
p2321
I543451533975646208
sVid_str
p2322
V543451517919821825
p2323
sVsizes
p2324
(dp2325
Vlarge
p2326
(dp2327
Vh
p2328
I576
sVresize
p2329
Vfit
p2330
sVw
p2331
I1024
ssVsmall
p2332
(dp2333
Vh
p2334
I191
sVresize
p2335
Vfit
p2336
sVw
p2337
I340
ssVmedium
p2338
(dp2339
Vh
p2340
I337
sVresize
p2341
Vfit
p2342
sVw
p2343
I600
ssVthumb
p2344
(dp2345
Vh
p2346
I150
sVresize
p2347
Vcrop
p2348
sVw
p2349
I150
sssVindices
p2350
(lp2351
I102
aI124
asVtype
p2352
Vphoto
p2353
sVid
p2354
I543451517919821825
sVmedia_url
p2355
Vhttp://pbs.twimg.com/media/B4q6RrZCAAES_7_.png
p2356
sasg19
Nsg20
Nsg21
Nsg22
VFri Dec 12 17:24:40 +0000 2014
p2357
sg24
Nsg25
I01
sg26
Nsg27
Nsg28
Nsg29
Nsg30
I00
sg31
Nsg32
(lp2358
g3
(g43
g5
Ntp2359
Rp2360
(dp2361
g10
Nsg48
Nsg50
Nsg52
Nsg54
Nsg55
Nsg22
Nsg57
Nsg58
Nsg60
Nsg62
Nsg63
Nsg64
Nsg65
Nsg66
Nsg67
Nsg69
Nsg70
Nsg71
Nsg73
Nsg74
Nsg75
Nsg77
VDogoodII
p2362
sg79
Nsg80
VSilence Dogood II
p2363
sg82
Nsg84
Nsg86
I2227207840
sg87
Nsbasg34
Nsg35
Nsg36
Nsg37
VRT @DogoodII: Fresh new leaders needed now. How can we help break the poverty cycle? No more BS talk, http://t.co/i0VBZ7L8E2
p2364
sg39
I00
sg40
Ven
p2365
sg42
g3
(g43
g5
Ntp2366
Rp2367
(dp2368
g10
V \ufe3b\u2566\u2564\u2500\u2500   \ufe3b\u2566\u2564\u2500\u2500   \ufe3b\u2566\u2564\u2500\u2500   \ufe3b\u2566\u2564\u2500\u2500
p2369
sg48
V333333
p2370
sg50
Ven-gb
p2371
sg52
VLondon
p2372
sg54
I4552
sg55
I25702
sg22
VSat Mar 09 23:39:32 +0000 2013
p2373
sg57
I00
sg58
VPatriot, Army Veteran from 40 yrs ago, love my rescued dogs, rifles, pistols, and freedom. God Bless all US Armed Forces, Active,Vets,& Deceased. #NRA #PJNET
p2374
sg60
Vhttps://pbs.twimg.com/profile_images/542439961106997251/Qt0kA7_R_normal.jpeg
p2375
sg62
I4549
sg63
I8473
sg64
I0
sg65
Nsg66
I00
sg67
Vhttps://pbs.twimg.com/profile_banners/1255621518/1418165233
p2376
sg69
I00
sg70
I00
sg71
VBD1C1C
p2377
sg73
I00
sg74
I00
sg75
Vhttp://abs.twimg.com/images/themes/theme1/bg.png
p2378
sg77
Vcheapcigar
p2379
sg79
I85
sg80
VSublimin_Al
p2380
sg82
VDDEEF6
p2381
sg84
Vhttp://t.co/mFeQgMWOgQ
p2382
sg86
I1255621518
sg87
VC0DEED
p2383
sbsg89
I5
sg90
V<a href="http://twitter.com" rel="nofollow">Twitter Web Client</a>
p2384
sg92
(lp2385
sg86
I543456414266826752
sbag3
(g4
g5
Ntp2386
Rp2387
(dp2388
g9
I0
sg10
Nsg11
Nsg12
(lp2389
sg14
I00
sg15
Nsg16
Nsg17
(lp2390
sg19
Nsg20
Nsg21
Nsg22
VFri Dec 12 17:22:59 +0000 2014
p2391
sg24
Nsg25
Nsg26
Vmarthamaccallum
p2392
sg27
Nsg28
I46681100
sg29
Nsg30
I00
sg31
Nsg32
(lp2393
g3
(g43
g5
Ntp2394
Rp2395
(dp2396
g10
Nsg48
Nsg50
Nsg52
Nsg54
Nsg55
Nsg22
Nsg57
Nsg58
Nsg60
Nsg62
Nsg63
Nsg64
Nsg65
Nsg66
Nsg67
Nsg69
Nsg70
Nsg71
Nsg73
Nsg74
Nsg75
Nsg77
Vmarthamaccallum
p2397
sg79
Nsg80
Vmartha maccallum
p2398
sg82
Nsg84
Nsg86
I46681100
sg87
Nsbag3
(g43
g5
Ntp2399
Rp2400
(dp2401
g10
Nsg48
Nsg50
Nsg52
Nsg54
Nsg55
Nsg22
Nsg57
Nsg58
Nsg60
Nsg62
Nsg63
Nsg64
Nsg65
Nsg66
Nsg67
Nsg69
Nsg70
Nsg71
Nsg73
Nsg74
Nsg75
Nsg77
VOmegaMan58
p2402
sg79
Nsg80
VRobert Neville
p2403
sg82
Nsg84
Nsg86
I1206885618
sg87
Nsbasg34
Nsg35
Nsg36
I543387532357271552
sg37
V@marthamaccallum @OmegaMan58  $40 million isn't as much as it used to be.  It only purchases 3 dozen luxury yachts for the Senators.
p2404
sg39
I00
sg40
Ven
p2405
sg42
g3
(g43
g5
Ntp2406
Rp2407
(dp2408
g10
V \ufe3b\u2566\u2564\u2500\u2500   \ufe3b\u2566\u2564\u2500\u2500   \ufe3b\u2566\u2564\u2500\u2500   \ufe3b\u2566\u2564\u2500\u2500
p2409
sg48
V333333
p2410
sg50
Ven-gb
p2411
sg52
VLondon
p2412
sg54
I4552
sg55
I25702
sg22
VSat Mar 09 23:39:32 +0000 2013
p2413
sg57
I00
sg58
VPatriot, Army Veteran from 40 yrs ago, love my rescued dogs, rifles, pistols, and freedom. God Bless all US Armed Forces, Active,Vets,& Deceased. #NRA #PJNET
p2414
sg60
Vhttps://pbs.twimg.com/profile_images/542439961106997251/Qt0kA7_R_normal.jpeg
p2415
sg62
I4549
sg63
I8473
sg64
I0
sg65
Nsg66
I00
sg67
Vhttps://pbs.twimg.com/profile_banners/1255621518/1418165233
p2416
sg69
I00
sg70
I00
sg71
VBD1C1C
p2417
sg73
I00
sg74
I00
sg75
Vhttp://abs.twimg.com/images/themes/theme1/bg.png
p2418
sg77
Vcheapcigar
p2419
sg79
I85
sg80
VSublimin_Al
p2420
sg82
VDDEEF6
p2421
sg84
Vhttp://t.co/mFeQgMWOgQ
p2422
sg86
I1255621518
sg87
VC0DEED
p2423
sbsg89
I0
sg90
V<a href="http://twitter.com" rel="nofollow">Twitter Web Client</a>
p2424
sg92
(lp2425
sg86
I543455989241237504
sbag3
(g4
g5
Ntp2426
Rp2427
(dp2428
g9
I0
sg10
Nsg11
Nsg12
(lp2429
sg14
I00
sg15
g3
(g4
g5
Ntp2430
Rp2431
(dp2432
g9
I208
sg10
Nsg11
Nsg12
(lp2433
sg14
I00
sg15
Nsg16
Nsg17
(lp2434
sg19
Nsg20
Nsg21
Nsg22
VFri Dec 12 12:50:58 +0000 2014
p2435
sg24
Nsg25
Nsg26
Nsg27
Nsg28
Nsg29
Nsg30
I00
sg31
Nsg32
(lp2436
sg34
Nsg35
Nsg36
Nsg37
VWhy did it cost $40 million to produce "Torture Report" - compiled by Dem senate staff. Don't they get paid a salary?
p2437
sg39
I00
sg40
Ven
p2438
sg42
g3
(g43
g5
Ntp2439
Rp2440
(dp2441
g10
VNew York NY
p2442
sg48
V333333
p2443
sg50
Ven
p2444
sg52
VCentral Time (US & Canada)
p2445
sg54
I160141
sg55
I2920
sg22
VFri Jun 12 15:56:49 +0000 2009
p2446
sg57
I01
sg58
V@AmericaNewsroom Anchor,  @FoxNews,  Jersey girl and St. Lawrence University grad. Love Dan, my 3 beautiful kids, politics, sports and theater.
p2447
sg60
Vhttps://pbs.twimg.com/profile_images/414889836424986624/OZ0wGNDK_normal.jpeg
p2448
sg62
I236
sg63
I8
sg64
I-21600
sg65
Nsg66
I00
sg67
Vhttps://pbs.twimg.com/profile_banners/46681100/1409066202
p2449
sg69
I00
sg70
I00
sg71
V0084B4
p2450
sg73
I01
sg74
I00
sg75
Vhttp://pbs.twimg.com/profile_background_images/439075807919484928/m6Y_Ssbd.png
p2451
sg77
Vmarthamaccallum
p2452
sg79
I2089
sg80
Vmartha maccallum
p2453
sg82
VDDEEF6
p2454
sg84
Nsg86
I46681100
sg87
VC0DEED
p2455
sbsg89
I322
sg90
V<a href="http://twitter.com" rel="nofollow">Twitter Web Client</a>
p2456
sg92
(lp2457
sg86
I543387532357271552
sbsg16
Nsg17
(lp2458
sg19
Nsg20
Nsg21
Nsg22
VFri Dec 12 17:20:55 +0000 2014
p2459
sg24
Nsg25
Nsg26
Nsg27
Nsg28
Nsg29
Nsg30
I00
sg31
Nsg32
(lp2460
g3
(g43
g5
Ntp2461
Rp2462
(dp2463
g10
Nsg48
Nsg50
Nsg52
Nsg54
Nsg55
Nsg22
Nsg57
Nsg58
Nsg60
Nsg62
Nsg63
Nsg64
Nsg65
Nsg66
Nsg67
Nsg69
Nsg70
Nsg71
Nsg73
Nsg74
Nsg75
Nsg77
Vmarthamaccallum
p2464
sg79
Nsg80
Vmartha maccallum
p2465
sg82
Nsg84
Nsg86
I46681100
sg87
Nsbasg34
Nsg35
Nsg36
Nsg37
VRT @marthamaccallum: Why did it cost $40 million to produce "Torture Report" - compiled by Dem senate staff. Don't they get paid a salary?
p2466
sg39
I00
sg40
Ven
p2467
sg42
g3
(g43
g5
Ntp2468
Rp2469
(dp2470
g10
V \ufe3b\u2566\u2564\u2500\u2500   \ufe3b\u2566\u2564\u2500\u2500   \ufe3b\u2566\u2564\u2500\u2500   \ufe3b\u2566\u2564\u2500\u2500
p2471
sg48
V333333
p2472
sg50
Ven-gb
p2473
sg52
VLondon
p2474
sg54
I4552
sg55
I25702
sg22
VSat Mar 09 23:39:32 +0000 2013
p2475
sg57
I00
sg58
VPatriot, Army Veteran from 40 yrs ago, love my rescued dogs, rifles, pistols, and freedom. God Bless all US Armed Forces, Active,Vets,& Deceased. #NRA #PJNET
p2476
sg60
Vhttps://pbs.twimg.com/profile_images/542439961106997251/Qt0kA7_R_normal.jpeg
p2477
sg62
I4549
sg63
I8473
sg64
I0
sg65
Nsg66
I00
sg67
Vhttps://pbs.twimg.com/profile_banners/1255621518/1418165233
p2478
sg69
I00
sg70
I00
sg71
VBD1C1C
p2479
sg73
I00
sg74
I00
sg75
Vhttp://abs.twimg.com/images/themes/theme1/bg.png
p2480
sg77
Vcheapcigar
p2481
sg79
I85
sg80
VSublimin_Al
p2482
sg82
VDDEEF6
p2483
sg84
Vhttp://t.co/mFeQgMWOgQ
p2484
sg86
I1255621518
sg87
VC0DEED
p2485
sbsg89
I322
sg90
V<a href="http://twitter.com" rel="nofollow">Twitter Web Client</a>
p2486
sg92
(lp2487
sg86
I543455471341146112
sbag3
(g4
g5
Ntp2488
Rp2489
(dp2490
g9
I0
sg10
Nsg11
Nsg12
(lp2491
sg14
I00
sg15
g3
(g4
g5
Ntp2492
Rp2493
(dp2494
g9
I0
sg10
Nsg11
Nsg12
(lp2495
sg14
I00
sg15
Nsg16
Nsg17
(lp2496
sg19
Nsg20
Nsg21
Nsg22
VFri Dec 12 17:17:39 +0000 2014
p2497
sg24
Nsg25
I00
sg26
Nsg27
Nsg28
Nsg29
Nsg30
I00
sg31
Nsg32
(lp2498
sg34
Nsg35
Nsg36
Nsg37
VBibi Netanyahu Utterly Destroyed Obama With THESE Six Words via Conservative Tribune - For the ... http://t.co/mTuZNrC4WG
p2499
sg39
I00
sg40
Ven
p2500
sg42
g3
(g43
g5
Ntp2501
Rp2502
(dp2503
g10
V New Jersey
p2504
sg48
V000000
p2505
sg50
Ven
p2506
sg52
Nsg54
I2552
sg55
I30736
sg22
VMon Feb 28 20:01:35 +0000 2011
p2507
sg57
I00
sg58
VOATHKEEPER \u000a\u039c\u039f\u039b\u03a9\u039d \u039b\u0391\u0392\u0395
p2508
sg60
Vhttps://pbs.twimg.com/profile_images/453018873298964480/Op-Py2_X_normal.jpeg
p2509
sg62
I2453
sg63
I4668
sg64
Nsg65
Nsg66
I00
sg67
Vhttps://pbs.twimg.com/profile_banners/258921256/1409238680
p2510
sg69
I00
sg70
I00
sg71
V0084B4
p2511
sg73
I01
sg74
I00
sg75
Vhttp://abs.twimg.com/images/themes/theme1/bg.png
p2512
sg77
VLuigiDario1o
p2513
sg79
I40
sg80
VLuigi
p2514
sg82
V000000
p2515
sg84
Vhttp://t.co/jroOinPTWV
p2516
sg86
I258921256
sg87
V000000
p2517
sbsg89
I3
sg90
V<a href="http://linkis.com" rel="nofollow">Linkis.com</a>
p2518
sg92
(lp2519
g3
(g94
g5
Ntp2520
Rp2521
(dp2522
g98
Vhttp://t.co/mTuZNrC4WG
p2523
sg100
Vhttp://ln.is/tinyurl.com/YT8Vw
p2524
sbasg86
I543454649022676992
sbsg16
Nsg17
(lp2525
sg19
Nsg20
Nsg21
Nsg22
VFri Dec 12 17:19:42 +0000 2014
p2526
sg24
Nsg25
I01
sg26
Nsg27
Nsg28
Nsg29
Nsg30
I00
sg31
Nsg32
(lp2527
g3
(g43
g5
Ntp2528
Rp2529
(dp2530
g10
Nsg48
Nsg50
Nsg52
Nsg54
Nsg55
Nsg22
Nsg57
Nsg58
Nsg60
Nsg62
Nsg63
Nsg64
Nsg65
Nsg66
Nsg67
Nsg69
Nsg70
Nsg71
Nsg73
Nsg74
Nsg75
Nsg77
VLuigiDario1o
p2531
sg79
Nsg80
VLuigi
p2532
sg82
Nsg84
Nsg86
I258921256
sg87
Nsbasg34
Nsg35
Nsg36
Nsg37
VRT @LuigiDario1o: Bibi Netanyahu Utterly Destroyed Obama With THESE Six Words via Conservative Tribune - For the ... http://t.co/mTuZNrC4WG
p2533
sg39
I00
sg40
Ven
p2534
sg42
g3
(g43
g5
Ntp2535
Rp2536
(dp2537
g10
V \ufe3b\u2566\u2564\u2500\u2500   \ufe3b\u2566\u2564\u2500\u2500   \ufe3b\u2566\u2564\u2500\u2500   \ufe3b\u2566\u2564\u2500\u2500
p2538
sg48
V333333
p2539
sg50
Ven-gb
p2540
sg52
VLondon
p2541
sg54
I4552
sg55
I25702
sg22
VSat Mar 09 23:39:32 +0000 2013
p2542
sg57
I00
sg58
VPatriot, Army Veteran from 40 yrs ago, love my rescued dogs, rifles, pistols, and freedom. God Bless all US Armed Forces, Active,Vets,& Deceased. #NRA #PJNET
p2543
sg60
Vhttps://pbs.twimg.com/profile_images/542439961106997251/Qt0kA7_R_normal.jpeg
p2544
sg62
I4549
sg63
I8473
sg64
I0
sg65
Nsg66
I00
sg67
Vhttps://pbs.twimg.com/profile_banners/1255621518/1418165233
p2545
sg69
I00
sg70
I00
sg71
VBD1C1C
p2546
sg73
I00
sg74
I00
sg75
Vhttp://abs.twimg.com/images/themes/theme1/bg.png
p2547
sg77
Vcheapcigar
p2548
sg79
I85
sg80
VSublimin_Al
p2549
sg82
VDDEEF6
p2550
sg84
Vhttp://t.co/mFeQgMWOgQ
p2551
sg86
I1255621518
sg87
VC0DEED
p2552
sbsg89
I3
sg90
V<a href="http://twitter.com" rel="nofollow">Twitter Web Client</a>
p2553
sg92
(lp2554
g3
(g94
g5
Ntp2555
Rp2556
(dp2557
g98
Vhttp://t.co/mTuZNrC4WG
p2558
sg100
Vhttp://ln.is/tinyurl.com/YT8Vw
p2559
sbasg86
I543455163827355649
sbag3
(g4
g5
Ntp2560
Rp2561
(dp2562
g9
I0
sg10
Nsg11
Nsg12
(lp2563
g3
(g608
g5
Ntp2564
Rp2565
(dp2566
g612
Vff
p2567
sbasg14
I00
sg15
g3
(g4
g5
Ntp2568
Rp2569
(dp2570
g9
I4
sg10
Nsg11
Nsg12
(lp2571
g3
(g608
g5
Ntp2572
Rp2573
(dp2574
g612
Vff
p2575
sbasg14
I00
sg15
Nsg16
Nsg17
(lp2576
sg19
Nsg20
Nsg21
Nsg22
VFri Dec 12 17:04:29 +0000 2014
p2577
sg24
Nsg25
Nsg26
Nsg27
Nsg28
Nsg29
Nsg30
I00
sg31
Nsg32
(lp2578
g3
(g43
g5
Ntp2579
Rp2580
(dp2581
g10
Nsg48
Nsg50
Nsg52
Nsg54
Nsg55
Nsg22
Nsg57
Nsg58
Nsg60
Nsg62
Nsg63
Nsg64
Nsg65
Nsg66
Nsg67
Nsg69
Nsg70
Nsg71
Nsg73
Nsg74
Nsg75
Nsg77
VGenesSmile
p2582
sg79
Nsg80
VKrissy Chase
p2583
sg82
Nsg84
Nsg86
I74827928
sg87
Nsbag3
(g43
g5
Ntp2584
Rp2585
(dp2586
g10
Nsg48
Nsg50
Nsg52
Nsg54
Nsg55
Nsg22
Nsg57
Nsg58
Nsg60
Nsg62
Nsg63
Nsg64
Nsg65
Nsg66
Nsg67
Nsg69
Nsg70
Nsg71
Nsg73
Nsg74
Nsg75
Nsg77
VGreen_Star1
p2587
sg79
Nsg80
VRalph E McCrum
p2588
sg82
Nsg84
Nsg86
I53590352
sg87
Nsbag3
(g43
g5
Ntp2589
Rp2590
(dp2591
g10
Nsg48
Nsg50
Nsg52
Nsg54
Nsg55
Nsg22
Nsg57
Nsg58
Nsg60
Nsg62
Nsg63
Nsg64
Nsg65
Nsg66
Nsg67
Nsg69
Nsg70
Nsg71
Nsg73
Nsg74
Nsg75
Nsg77
VShaunTrades
p2592
sg79
Nsg80
VMoney Talks
p2593
sg82
Nsg84
Nsg86
I213315220
sg87
Nsbag3
(g43
g5
Ntp2594
Rp2595
(dp2596
g10
Nsg48
Nsg50
Nsg52
Nsg54
Nsg55
Nsg22
Nsg57
Nsg58
Nsg60
Nsg62
Nsg63
Nsg64
Nsg65
Nsg66
Nsg67
Nsg69
Nsg70
Nsg71
Nsg73
Nsg74
Nsg75
Nsg77
Vcheapcigar
p2597
sg79
Nsg80
VSublimin_Al
p2598
sg82
Nsg84
Nsg86
I1255621518
sg87
Nsbag3
(g43
g5
Ntp2599
Rp2600
(dp2601
g10
Nsg48
Nsg50
Nsg52
Nsg54
Nsg55
Nsg22
Nsg57
Nsg58
Nsg60
Nsg62
Nsg63
Nsg64
Nsg65
Nsg66
Nsg67
Nsg69
Nsg70
Nsg71
Nsg73
Nsg74
Nsg75
Nsg77
VWANAGL
p2602
sg79
Nsg80
VWANAGL #OiP 
p2603
sg82
Nsg84
Nsg86
I719756991
sg87
Nsbag3
(g43
g5
Ntp2604
Rp2605
(dp2606
g10
Nsg48
Nsg50
Nsg52
Nsg54
Nsg55
Nsg22
Nsg57
Nsg58
Nsg60
Nsg62
Nsg63
Nsg64
Nsg65
Nsg66
Nsg67
Nsg69
Nsg70
Nsg71
Nsg73
Nsg74
Nsg75
Nsg77
Vtexasflutegal
p2607
sg79
Nsg80
VJeannette Burleigh
p2608
sg82
Nsg84
Nsg86
I156791542
sg87
Nsbag3
(g43
g5
Ntp2609
Rp2610
(dp2611
g10
Nsg48
Nsg50
Nsg52
Nsg54
Nsg55
Nsg22
Nsg57
Nsg58
Nsg60
Nsg62
Nsg63
Nsg64
Nsg65
Nsg66
Nsg67
Nsg69
Nsg70
Nsg71
Nsg73
Nsg74
Nsg75
Nsg77
VSuperman6869
p2612
sg79
Nsg80
VSuperman
p2613
sg82
Nsg84
Nsg86
I137820750
sg87
Nsbag3
(g43
g5
Ntp2614
Rp2615
(dp2616
g10
Nsg48
Nsg50
Nsg52
Nsg54
Nsg55
Nsg22
Nsg57
Nsg58
Nsg60
Nsg62
Nsg63
Nsg64
Nsg65
Nsg66
Nsg67
Nsg69
Nsg70
Nsg71
Nsg73
Nsg74
Nsg75
Nsg77
VQueen_V1216
p2617
sg79
Nsg80
VVickie Barnachea
p2618
sg82
Nsg84
Nsg86
I265645992
sg87
Nsbag3
(g43
g5
Ntp2619
Rp2620
(dp2621
g10
Nsg48
Nsg50
Nsg52
Nsg54
Nsg55
Nsg22
Nsg57
Nsg58
Nsg60
Nsg62
Nsg63
Nsg64
Nsg65
Nsg66
Nsg67
Nsg69
Nsg70
Nsg71
Nsg73
Nsg74
Nsg75
Nsg77
VTrickerKeeTs
p2622
sg79
Nsg80
VTricker KeeTs
p2623
sg82
Nsg84
Nsg86
I2738347879
sg87
Nsbag3
(g43
g5
Ntp2624
Rp2625
(dp2626
g10
Nsg48
Nsg50
Nsg52
Nsg54
Nsg55
Nsg22
Nsg57
Nsg58
Nsg60
Nsg62
Nsg63
Nsg64
Nsg65
Nsg66
Nsg67
Nsg69
Nsg70
Nsg71
Nsg73
Nsg74
Nsg75
Nsg77
Vyrwol7
p2627
sg79
Nsg80
VColleen White 
p2628
sg82
Nsg84
Nsg86
I412776430
sg87
Nsbag3
(g43
g5
Ntp2629
Rp2630
(dp2631
g10
Nsg48
Nsg50
Nsg52
Nsg54
Nsg55
Nsg22
Nsg57
Nsg58
Nsg60
Nsg62
Nsg63
Nsg64
Nsg65
Nsg66
Nsg67
Nsg69
Nsg70
Nsg71
Nsg73
Nsg74
Nsg75
Nsg77
VDaggy1
p2632
sg79
Nsg80
VDagwood Bumstead
p2633
sg82
Nsg84
Nsg86
I24305174
sg87
Nsbasg34
Nsg35
Nsg36
Nsg37
V#ff @GenesSmile @Green_Star1 @ShaunTrades @cheapcigar @WANAGL @texasflutegal @Superman6869 @Queen_V1216 @TrickerKeeTs @yrwol7 @Daggy1
p2634
sg39
I00
sg40
Vund
p2635
sg42
g3
(g43
g5
Ntp2636
Rp2637
(dp2638
g10
VNew York: Behind enemy lines
p2639
sg48
V895429
p2640
sg50
Ven
p2641
sg52
VQuito
p2642
sg54
I7887
sg55
I40146
sg22
VThu Apr 30 14:59:16 +0000 2009
p2643
sg57
I00
sg58
VFree Markets, Libertarian, Constitution, Science, Politics, TEA Party.  The Republic is threatened; No one may stand idle.
p2644
sg60
Vhttps://pbs.twimg.com/profile_images/1522440980/9c1f68d8-f920-4c08-ad95-7addf28b5833_normal.png
p2645
sg62
I8299
sg63
I317
sg64
I-18000
sg65
Nsg66
I00
sg67
Vhttps://pbs.twimg.com/profile_banners/36681617/1394949487
p2646
sg69
I00
sg70
I00
sg71
V39BD91
p2647
sg73
I00
sg74
I00
sg75
Vhttp://pbs.twimg.com/profile_background_images/263722096/x4767c8d7a44c41d8d6b5571c8513098.jpg
p2648
sg77
Vgatman7
p2649
sg79
I144
sg80
VGeorge Thompson
p2650
sg82
VD9F7B2
p2651
sg84
Nsg86
I36681617
sg87
VE2ED4C
p2652
sbsg89
I4
sg90
V<a href="https://market.android.com/details?id=com.msi.followhelper" rel="nofollow">Android Follow Friday Assistant</a>
p2653
sg92
(lp2654
sg86
I543451334599782400
sbsg16
Nsg17
(lp2655
sg19
Nsg20
Nsg21
Nsg22
VFri Dec 12 17:13:23 +0000 2014
p2656
sg24
Nsg25
Nsg26
Nsg27
Nsg28
Nsg29
Nsg30
I00
sg31
Nsg32
(lp2657
g3
(g43
g5
Ntp2658
Rp2659
(dp2660
g10
Nsg48
Nsg50
Nsg52
Nsg54
Nsg55
Nsg22
Nsg57
Nsg58
Nsg60
Nsg62
Nsg63
Nsg64
Nsg65
Nsg66
Nsg67
Nsg69
Nsg70
Nsg71
Nsg73
Nsg74
Nsg75
Nsg77
Vgatman7
p2661
sg79
Nsg80
VGeorge Thompson
p2662
sg82
Nsg84
Nsg86
I36681617
sg87
Nsbag3
(g43
g5
Ntp2663
Rp2664
(dp2665
g10
Nsg48
Nsg50
Nsg52
Nsg54
Nsg55
Nsg22
Nsg57
Nsg58
Nsg60
Nsg62
Nsg63
Nsg64
Nsg65
Nsg66
Nsg67
Nsg69
Nsg70
Nsg71
Nsg73
Nsg74
Nsg75
Nsg77
VGenesSmile
p2666
sg79
Nsg80
VKrissy Chase
p2667
sg82
Nsg84
Nsg86
I74827928
sg87
Nsbag3
(g43
g5
Ntp2668
Rp2669
(dp2670
g10
Nsg48
Nsg50
Nsg52
Nsg54
Nsg55
Nsg22
Nsg57
Nsg58
Nsg60
Nsg62
Nsg63
Nsg64
Nsg65
Nsg66
Nsg67
Nsg69
Nsg70
Nsg71
Nsg73
Nsg74
Nsg75
Nsg77
VGreen_Star1
p2671
sg79
Nsg80
VRalph E McCrum
p2672
sg82
Nsg84
Nsg86
I53590352
sg87
Nsbag3
(g43
g5
Ntp2673
Rp2674
(dp2675
g10
Nsg48
Nsg50
Nsg52
Nsg54
Nsg55
Nsg22
Nsg57
Nsg58
Nsg60
Nsg62
Nsg63
Nsg64
Nsg65
Nsg66
Nsg67
Nsg69
Nsg70
Nsg71
Nsg73
Nsg74
Nsg75
Nsg77
VShaunTrades
p2676
sg79
Nsg80
VMoney Talks
p2677
sg82
Nsg84
Nsg86
I213315220
sg87
Nsbag3
(g43
g5
Ntp2678
Rp2679
(dp2680
g10
Nsg48
Nsg50
Nsg52
Nsg54
Nsg55
Nsg22
Nsg57
Nsg58
Nsg60
Nsg62
Nsg63
Nsg64
Nsg65
Nsg66
Nsg67
Nsg69
Nsg70
Nsg71
Nsg73
Nsg74
Nsg75
Nsg77
Vcheapcigar
p2681
sg79
Nsg80
VSublimin_Al
p2682
sg82
Nsg84
Nsg86
I1255621518
sg87
Nsbag3
(g43
g5
Ntp2683
Rp2684
(dp2685
g10
Nsg48
Nsg50
Nsg52
Nsg54
Nsg55
Nsg22
Nsg57
Nsg58
Nsg60
Nsg62
Nsg63
Nsg64
Nsg65
Nsg66
Nsg67
Nsg69
Nsg70
Nsg71
Nsg73
Nsg74
Nsg75
Nsg77
VWANAGL
p2686
sg79
Nsg80
VWANAGL #OiP 
p2687
sg82
Nsg84
Nsg86
I719756991
sg87
Nsbag3
(g43
g5
Ntp2688
Rp2689
(dp2690
g10
Nsg48
Nsg50
Nsg52
Nsg54
Nsg55
Nsg22
Nsg57
Nsg58
Nsg60
Nsg62
Nsg63
Nsg64
Nsg65
Nsg66
Nsg67
Nsg69
Nsg70
Nsg71
Nsg73
Nsg74
Nsg75
Nsg77
Vtexasflutegal
p2691
sg79
Nsg80
VJeannette Burleigh
p2692
sg82
Nsg84
Nsg86
I156791542
sg87
Nsbag3
(g43
g5
Ntp2693
Rp2694
(dp2695
g10
Nsg48
Nsg50
Nsg52
Nsg54
Nsg55
Nsg22
Nsg57
Nsg58
Nsg60
Nsg62
Nsg63
Nsg64
Nsg65
Nsg66
Nsg67
Nsg69
Nsg70
Nsg71
Nsg73
Nsg74
Nsg75
Nsg77
VSuperman6869
p2696
sg79
Nsg80
VSuperman
p2697
sg82
Nsg84
Nsg86
I137820750
sg87
Nsbag3
(g43
g5
Ntp2698
Rp2699
(dp2700
g10
Nsg48
Nsg50
Nsg52
Nsg54
Nsg55
Nsg22
Nsg57
Nsg58
Nsg60
Nsg62
Nsg63
Nsg64
Nsg65
Nsg66
Nsg67
Nsg69
Nsg70
Nsg71
Nsg73
Nsg74
Nsg75
Nsg77
VQueen_V1216
p2701
sg79
Nsg80
VVickie Barnachea
p2702
sg82
Nsg84
Nsg86
I265645992
sg87
Nsbag3
(g43
g5
Ntp2703
Rp2704
(dp2705
g10
Nsg48
Nsg50
Nsg52
Nsg54
Nsg55
Nsg22
Nsg57
Nsg58
Nsg60
Nsg62
Nsg63
Nsg64
Nsg65
Nsg66
Nsg67
Nsg69
Nsg70
Nsg71
Nsg73
Nsg74
Nsg75
Nsg77
VTrickerKeeTs
p2706
sg79
Nsg80
VTricker KeeTs
p2707
sg82
Nsg84
Nsg86
I2738347879
sg87
Nsbag3
(g43
g5
Ntp2708
Rp2709
(dp2710
g10
Nsg48
Nsg50
Nsg52
Nsg54
Nsg55
Nsg22
Nsg57
Nsg58
Nsg60
Nsg62
Nsg63
Nsg64
Nsg65
Nsg66
Nsg67
Nsg69
Nsg70
Nsg71
Nsg73
Nsg74
Nsg75
Nsg77
Vyrwol7
p2711
sg79
Nsg80
VColleen White 
p2712
sg82
Nsg84
Nsg86
I412776430
sg87
Nsbag3
(g43
g5
Ntp2713
Rp2714
(dp2715
g10
Nsg48
Nsg50
Nsg52
Nsg54
Nsg55
Nsg22
Nsg57
Nsg58
Nsg60
Nsg62
Nsg63
Nsg64
Nsg65
Nsg66
Nsg67
Nsg69
Nsg70
Nsg71
Nsg73
Nsg74
Nsg75
Nsg77
VDaggy1
p2716
sg79
Nsg80
VDagwood Bumstead
p2717
sg82
Nsg84
Nsg86
I24305174
sg87
Nsbasg34
Nsg35
Nsg36
Nsg37
VRT @gatman7: #ff @GenesSmile @Green_Star1 @ShaunTrades @cheapcigar @WANAGL @texasflutegal @Superman6869 @Queen_V1216 @TrickerKeeTs @yrwol7 \u2026
p2718
sg39
I00
sg40
Vund
p2719
sg42
g3
(g43
g5
Ntp2720
Rp2721
(dp2722
g10
V \ufe3b\u2566\u2564\u2500\u2500   \ufe3b\u2566\u2564\u2500\u2500   \ufe3b\u2566\u2564\u2500\u2500   \ufe3b\u2566\u2564\u2500\u2500
p2723
sg48
V333333
p2724
sg50
Ven-gb
p2725
sg52
VLondon
p2726
sg54
I4552
sg55
I25702
sg22
VSat Mar 09 23:39:32 +0000 2013
p2727
sg57
I00
sg58
VPatriot, Army Veteran from 40 yrs ago, love my rescued dogs, rifles, pistols, and freedom. God Bless all US Armed Forces, Active,Vets,& Deceased. #NRA #PJNET
p2728
sg60
Vhttps://pbs.twimg.com/profile_images/542439961106997251/Qt0kA7_R_normal.jpeg
p2729
sg62
I4549
sg63
I8473
sg64
I0
sg65
Nsg66
I00
sg67
Vhttps://pbs.twimg.com/profile_banners/1255621518/1418165233
p2730
sg69
I00
sg70
I00
sg71
VBD1C1C
p2731
sg73
I00
sg74
I00
sg75
Vhttp://abs.twimg.com/images/themes/theme1/bg.png
p2732
sg77
Vcheapcigar
p2733
sg79
I85
sg80
VSublimin_Al
p2734
sg82
VDDEEF6
p2735
sg84
Vhttp://t.co/mFeQgMWOgQ
p2736
sg86
I1255621518
sg87
VC0DEED
p2737
sbsg89
I4
sg90
V<a href="http://twitter.com" rel="nofollow">Twitter Web Client</a>
p2738
sg92
(lp2739
sg86
I543453572957237248
sbaa.