(lp0
S'latain5'
p1
a(lp2
ccopy_reg
_reconstructor
p3
(ctwitter.status
Status
p4
c__builtin__
object
p5
Ntp6
Rp7
(dp8
S'_favorite_count'
p9
I0
sS'_location'
p10
NsS'_withheld_scope'
p11
NsS'hashtags'
p12
(lp13
sS'_truncated'
p14
I00
sS'_retweeted_status'
p15
NsS'_withheld_copyright'
p16
NsS'media'
p17
(lp18
(dp19
Vexpanded_url
p20
Vhttp://twitter.com/latain5/status/544199410444677120/photo/1
p21
sVdisplay_url
p22
Vpic.twitter.com/nA862FmvR0
p23
sVurl
p24
Vhttp://t.co/nA862FmvR0
p25
sVmedia_url_https
p26
Vhttps://pbs.twimg.com/media/B41ievxIgAImc7b.jpg
p27
sVid_str
p28
V544199410339840002
p29
sVsizes
p30
(dp31
Vlarge
p32
(dp33
Vh
p34
I368
sVresize
p35
Vfit
p36
sVw
p37
I700
ssVsmall
p38
(dp39
Vh
p40
I178
sVresize
p41
Vfit
p42
sVw
p43
I340
ssVmedium
p44
(dp45
Vh
p46
I315
sVresize
p47
Vfit
p48
sVw
p49
I600
ssVthumb
p50
(dp51
Vh
p52
I150
sVresize
p53
Vcrop
p54
sVw
p55
I150
sssVindices
p56
(lp57
I98
aI120
asVtype
p58
Vphoto
p59
sVid
p60
I544199410339840002
sVmedia_url
p61
Vhttp://pbs.twimg.com/media/B41ievxIgAImc7b.jpg
p62
sasS'_place'
p63
NsS'_contributors'
p64
NsS'_current_user_retweet'
p65
NsS'_created_at'
p66
VSun Dec 14 18:37:04 +0000 2014
p67
sS'_scopes'
p68
NsS'_possibly_sensitive'
p69
I00
sS'_in_reply_to_screen_name'
p70
NsS'_coordinates'
p71
NsS'_in_reply_to_user_id'
p72
NsS'_geo'
p73
NsS'_favorited'
p74
I00
sS'_withheld_in_countries'
p75
NsS'user_mentions'
p76
(lp77
sS'_now'
p78
NsS'_id_str'
p79
NsS'_in_reply_to_status_id'
p80
NsS'_text'
p81
VDon't let anything stand in your way of success! Click here to learn more. http://t.co/yxEOGhohQ0 http://t.co/nA862FmvR0
p82
sS'_retweeted'
p83
I00
sS'lang'
p84
Ven
p85
sS'_user'
p86
g3
(ctwitter.user
User
p87
g5
Ntp88
Rp89
(dp90
g10
VLouisiana
p91
sS'_profile_text_color'
p92
V333333
p93
sS'_lang'
p94
Ven
p95
sS'_time_zone'
p96
NsS'_followers_count'
p97
I48
sS'_statuses_count'
p98
I1864
sg66
VSat Dec 31 19:38:07 +0000 2011
p99
sS'_verified'
p100
I00
sS'_description'
p101
VI am a Independent Gold Plexus Ambassador from Louisiana. I am looking for self-starters reps to join my team. Order here http://t.co/icq4e7LkJ6
p102
sS'_profile_image_url'
p103
Vhttps://pbs.twimg.com/profile_images/2288171610/qu30o4xzwl1ksm87x4ep_normal.jpeg
p104
sS'_friends_count'
p105
I81
sS'_favourites_count'
p106
I95
sS'_utc_offset'
p107
NsS'_status'
p108
NsS'_protected'
p109
I00
sS'_profile_banner_url'
p110
Vhttps://pbs.twimg.com/profile_banners/451624502/1389151367
p111
sS'_notifications'
p112
I00
sS'_profile_background_tile'
p113
I00
sS'_profile_link_color'
p114
V0084B4
p115
sS'_geo_enabled'
p116
I01
sS'_contributors_enabled'
p117
I00
sS'_profile_background_image_url'
p118
Vhttp://abs.twimg.com/images/themes/theme1/bg.png
p119
sS'_screen_name'
p120
Vlatain5
p121
sS'_listed_count'
p122
I0
sS'_name'
p123
VRuth H
p124
sS'_profile_sidebar_fill_color'
p125
VDDEEF6
p126
sS'_url'
p127
Vhttp://t.co/mPDnAK041J
p128
sS'_id'
p129
I451624502
sS'_profile_background_color'
p130
VC0DEED
p131
sbsS'_retweet_count'
p132
I0
sS'_source'
p133
V<a href="http://myplexusbuilder.com/" rel="nofollow">My Plexus Builder</a>
p134
sS'urls'
p135
(lp136
g3
(ctwitter.url
Url
p137
g5
Ntp138
Rp139
(dp140
S'url'
p141
Vhttp://t.co/yxEOGhohQ0
p142
sS'expanded_url'
p143
Vhttp://ltl.is/pLxVi
p144
sbasg129
I544199410444677120
sbag3
(g4
g5
Ntp145
Rp146
(dp147
g9
I0
sg10
Nsg11
Nsg12
(lp148
sg14
I00
sg15
Nsg16
Nsg17
(lp149
sg63
Nsg64
Nsg65
Nsg66
VSat Dec 13 15:23:04 +0000 2014
p150
sg68
Nsg69
I00
sg70
Nsg71
Nsg72
Nsg73
Nsg74
I00
sg75
Nsg76
(lp151
sg78
Nsg79
Nsg80
Nsg81
V"Some people grumble because roses have thorns; I am grateful that thorns have roses." Alphonse Karr http://t.co/yxEOGhohQ0
p152
sg83
I00
sg84
Ven
p153
sg86
g3
(g87
g5
Ntp154
Rp155
(dp156
g10
VLouisiana
p157
sg92
V333333
p158
sg94
Ven
p159
sg96
Nsg97
I48
sg98
I1864
sg66
VSat Dec 31 19:38:07 +0000 2011
p160
sg100
I00
sg101
VI am a Independent Gold Plexus Ambassador from Louisiana. I am looking for self-starters reps to join my team. Order here http://t.co/icq4e7LkJ6
p161
sg103
Vhttps://pbs.twimg.com/profile_images/2288171610/qu30o4xzwl1ksm87x4ep_normal.jpeg
p162
sg105
I81
sg106
I95
sg107
Nsg108
Nsg109
I00
sg110
Vhttps://pbs.twimg.com/profile_banners/451624502/1389151367
p163
sg112
I00
sg113
I00
sg114
V0084B4
p164
sg116
I01
sg117
I00
sg118
Vhttp://abs.twimg.com/images/themes/theme1/bg.png
p165
sg120
Vlatain5
p166
sg122
I0
sg123
VRuth H
p167
sg125
VDDEEF6
p168
sg127
Vhttp://t.co/mPDnAK041J
p169
sg129
I451624502
sg130
VC0DEED
p170
sbsg132
I0
sg133
V<a href="http://myplexusbuilder.com/" rel="nofollow">My Plexus Builder</a>
p171
sg135
(lp172
g3
(g137
g5
Ntp173
Rp174
(dp175
g141
Vhttp://t.co/yxEOGhohQ0
p176
sg143
Vhttp://ltl.is/pLxVi
p177
sbasg129
I543788197495717888
sbag3
(g4
g5
Ntp178
Rp179
(dp180
g9
I0
sg10
Nsg11
Nsg12
(lp181
sg14
I00
sg15
Nsg16
Nsg17
(lp182
sg63
Nsg64
Nsg65
Nsg66
VFri Dec 12 17:57:03 +0000 2014
p183
sg68
Nsg69
I00
sg70
Nsg71
Nsg72
Nsg73
Nsg74
I00
sg75
Nsg76
(lp184
sg78
Nsg79
Nsg80
Nsg81
VFor more info click the link. http://t.co/jmjTh1w3ES
p185
sg83
I00
sg84
Ven
p186
sg86
g3
(g87
g5
Ntp187
Rp188
(dp189
g10
VLouisiana
p190
sg92
V333333
p191
sg94
Ven
p192
sg96
Nsg97
I48
sg98
I1864
sg66
VSat Dec 31 19:38:07 +0000 2011
p193
sg100
I00
sg101
VI am a Independent Gold Plexus Ambassador from Louisiana. I am looking for self-starters reps to join my team. Order here http://t.co/icq4e7LkJ6
p194
sg103
Vhttps://pbs.twimg.com/profile_images/2288171610/qu30o4xzwl1ksm87x4ep_normal.jpeg
p195
sg105
I81
sg106
I95
sg107
Nsg108
Nsg109
I00
sg110
Vhttps://pbs.twimg.com/profile_banners/451624502/1389151367
p196
sg112
I00
sg113
I00
sg114
V0084B4
p197
sg116
I01
sg117
I00
sg118
Vhttp://abs.twimg.com/images/themes/theme1/bg.png
p198
sg120
Vlatain5
p199
sg122
I0
sg123
VRuth H
p200
sg125
VDDEEF6
p201
sg127
Vhttp://t.co/mPDnAK041J
p202
sg129
I451624502
sg130
VC0DEED
p203
sbsg132
I0
sg133
V<a href="http://myplexusbuilder.com/" rel="nofollow">My Plexus Builder</a>
p204
sg135
(lp205
g3
(g137
g5
Ntp206
Rp207
(dp208
g141
Vhttp://t.co/jmjTh1w3ES
p209
sg143
Vhttp://ltl.is/uvJ5C
p210
sbasg129
I543464562344067073
sbag3
(g4
g5
Ntp211
Rp212
(dp213
g9
I0
sg10
Nsg11
Nsg12
(lp214
sg14
I00
sg15
Nsg16
Nsg17
(lp215
(dp216
Vexpanded_url
p217
Vhttp://twitter.com/latain5/status/543080788963909632/photo/1
p218
sVdisplay_url
p219
Vpic.twitter.com/DDWCMKzqLa
p220
sVurl
p221
Vhttp://t.co/DDWCMKzqLa
p222
sVmedia_url_https
p223
Vhttps://pbs.twimg.com/media/B4lpGaDIEAIUL-u.jpg
p224
sVid_str
p225
V543080788867420162
p226
sVsizes
p227
(dp228
Vlarge
p229
(dp230
Vh
p231
I537
sVresize
p232
Vfit
p233
sVw
p234
I1024
ssVsmall
p235
(dp236
Vh
p237
I178
sVresize
p238
Vfit
p239
sVw
p240
I340
ssVmedium
p241
(dp242
Vh
p243
I315
sVresize
p244
Vfit
p245
sVw
p246
I600
ssVthumb
p247
(dp248
Vh
p249
I150
sVresize
p250
Vcrop
p251
sVw
p252
I150
sssVindices
p253
(lp254
I49
aI71
asVtype
p255
Vphoto
p256
sVid
p257
I543080788867420162
sVmedia_url
p258
Vhttp://pbs.twimg.com/media/B4lpGaDIEAIUL-u.jpg
p259
sasg63
Nsg64
Nsg65
Nsg66
VThu Dec 11 16:32:04 +0000 2014
p260
sg68
Nsg69
I00
sg70
Nsg71
Nsg72
Nsg73
Nsg74
I00
sg75
Nsg76
(lp261
sg78
Nsg79
Nsg80
Nsg81
VWhy wouldn't you want to? http://t.co/Lvy8lsNjCV http://t.co/DDWCMKzqLa
p262
sg83
I00
sg84
Ven
p263
sg86
g3
(g87
g5
Ntp264
Rp265
(dp266
g10
VLouisiana
p267
sg92
V333333
p268
sg94
Ven
p269
sg96
Nsg97
I48
sg98
I1864
sg66
VSat Dec 31 19:38:07 +0000 2011
p270
sg100
I00
sg101
VI am a Independent Gold Plexus Ambassador from Louisiana. I am looking for self-starters reps to join my team. Order here http://t.co/icq4e7LkJ6
p271
sg103
Vhttps://pbs.twimg.com/profile_images/2288171610/qu30o4xzwl1ksm87x4ep_normal.jpeg
p272
sg105
I81
sg106
I95
sg107
Nsg108
Nsg109
I00
sg110
Vhttps://pbs.twimg.com/profile_banners/451624502/1389151367
p273
sg112
I00
sg113
I00
sg114
V0084B4
p274
sg116
I01
sg117
I00
sg118
Vhttp://abs.twimg.com/images/themes/theme1/bg.png
p275
sg120
Vlatain5
p276
sg122
I0
sg123
VRuth H
p277
sg125
VDDEEF6
p278
sg127
Vhttp://t.co/mPDnAK041J
p279
sg129
I451624502
sg130
VC0DEED
p280
sbsg132
I0
sg133
V<a href="http://myplexusbuilder.com/" rel="nofollow">My Plexus Builder</a>
p281
sg135
(lp282
g3
(g137
g5
Ntp283
Rp284
(dp285
g141
Vhttp://t.co/Lvy8lsNjCV
p286
sg143
Vhttp://ltl.is/28aDo
p287
sbasg129
I543080788963909632
sbag3
(g4
g5
Ntp288
Rp289
(dp290
g9
I0
sg10
Nsg11
Nsg12
(lp291
sg14
I00
sg15
Nsg16
Nsg17
(lp292
(dp293
Vexpanded_url
p294
Vhttp://twitter.com/latain5/status/542726705459523584/photo/1
p295
sVdisplay_url
p296
Vpic.twitter.com/qwYbZ5eNUN
p297
sVurl
p298
Vhttp://t.co/qwYbZ5eNUN
p299
sVmedia_url_https
p300
Vhttps://pbs.twimg.com/media/B4gnECWIIAAu1X1.jpg
p301
sVid_str
p302
V542726705400782848
p303
sVsizes
p304
(dp305
Vlarge
p306
(dp307
Vh
p308
I537
sVresize
p309
Vfit
p310
sVw
p311
I1024
ssVsmall
p312
(dp313
Vh
p314
I178
sVresize
p315
Vfit
p316
sVw
p317
I340
ssVmedium
p318
(dp319
Vh
p320
I315
sVresize
p321
Vfit
p322
sVw
p323
I600
ssVthumb
p324
(dp325
Vh
p326
I150
sVresize
p327
Vcrop
p328
sVw
p329
I150
sssVindices
p330
(lp331
I85
aI107
asVtype
p332
Vphoto
p333
sVid
p334
I542726705400782848
sVmedia_url
p335
Vhttp://pbs.twimg.com/media/B4gnECWIIAAu1X1.jpg
p336
sasg63
Nsg64
Nsg65
Nsg66
VWed Dec 10 17:05:04 +0000 2014
p337
sg68
Nsg69
I00
sg70
Nsg71
Nsg72
Nsg73
Nsg74
I00
sg75
Nsg76
(lp338
sg78
Nsg79
Nsg80
Nsg81
VDon't wait! Click here to learn about this great opportunity! http://t.co/aYpeJKuHrg http://t.co/qwYbZ5eNUN
p339
sg83
I00
sg84
Ven
p340
sg86
g3
(g87
g5
Ntp341
Rp342
(dp343
g10
VLouisiana
p344
sg92
V333333
p345
sg94
Ven
p346
sg96
Nsg97
I48
sg98
I1864
sg66
VSat Dec 31 19:38:07 +0000 2011
p347
sg100
I00
sg101
VI am a Independent Gold Plexus Ambassador from Louisiana. I am looking for self-starters reps to join my team. Order here http://t.co/icq4e7LkJ6
p348
sg103
Vhttps://pbs.twimg.com/profile_images/2288171610/qu30o4xzwl1ksm87x4ep_normal.jpeg
p349
sg105
I81
sg106
I95
sg107
Nsg108
Nsg109
I00
sg110
Vhttps://pbs.twimg.com/profile_banners/451624502/1389151367
p350
sg112
I00
sg113
I00
sg114
V0084B4
p351
sg116
I01
sg117
I00
sg118
Vhttp://abs.twimg.com/images/themes/theme1/bg.png
p352
sg120
Vlatain5
p353
sg122
I0
sg123
VRuth H
p354
sg125
VDDEEF6
p355
sg127
Vhttp://t.co/mPDnAK041J
p356
sg129
I451624502
sg130
VC0DEED
p357
sbsg132
I0
sg133
V<a href="http://myplexusbuilder.com/" rel="nofollow">My Plexus Builder</a>
p358
sg135
(lp359
g3
(g137
g5
Ntp360
Rp361
(dp362
g141
Vhttp://t.co/aYpeJKuHrg
p363
sg143
Vhttp://ltl.is/Nc72Q
p364
sbasg129
I542726705459523584
sbag3
(g4
g5
Ntp365
Rp366
(dp367
g9
I0
sg10
Nsg11
Nsg12
(lp368
sg14
I00
sg15
Nsg16
Nsg17
(lp369
sg63
Nsg64
Nsg65
Nsg66
VWed Dec 10 00:52:06 +0000 2014
p370
sg68
Nsg69
I00
sg70
Nsg71
Nsg72
Nsg73
Nsg74
I00
sg75
Nsg76
(lp371
sg78
Nsg79
Nsg80
Nsg81
VDid you know 8 out of 10 Americans over the age of 25 are overweight? http://t.co/yxEOGhohQ0
p372
sg83
I00
sg84
Ven
p373
sg86
g3
(g87
g5
Ntp374
Rp375
(dp376
g10
VLouisiana
p377
sg92
V333333
p378
sg94
Ven
p379
sg96
Nsg97
I48
sg98
I1864
sg66
VSat Dec 31 19:38:07 +0000 2011
p380
sg100
I00
sg101
VI am a Independent Gold Plexus Ambassador from Louisiana. I am looking for self-starters reps to join my team. Order here http://t.co/icq4e7LkJ6
p381
sg103
Vhttps://pbs.twimg.com/profile_images/2288171610/qu30o4xzwl1ksm87x4ep_normal.jpeg
p382
sg105
I81
sg106
I95
sg107
Nsg108
Nsg109
I00
sg110
Vhttps://pbs.twimg.com/profile_banners/451624502/1389151367
p383
sg112
I00
sg113
I00
sg114
V0084B4
p384
sg116
I01
sg117
I00
sg118
Vhttp://abs.twimg.com/images/themes/theme1/bg.png
p385
sg120
Vlatain5
p386
sg122
I0
sg123
VRuth H
p387
sg125
VDDEEF6
p388
sg127
Vhttp://t.co/mPDnAK041J
p389
sg129
I451624502
sg130
VC0DEED
p390
sbsg132
I0
sg133
V<a href="http://myplexusbuilder.com/" rel="nofollow">My Plexus Builder</a>
p391
sg135
(lp392
g3
(g137
g5
Ntp393
Rp394
(dp395
g141
Vhttp://t.co/yxEOGhohQ0
p396
sg143
Vhttp://ltl.is/pLxVi
p397
sbasg129
I542481849948598272
sbag3
(g4
g5
Ntp398
Rp399
(dp400
g9
I1
sg10
Nsg11
Nsg12
(lp401
sg14
I00
sg15
Nsg16
Nsg17
(lp402
(dp403
Vexpanded_url
p404
Vhttp://twitter.com/latain5/status/542137063966277632/photo/1
p405
sVdisplay_url
p406
Vpic.twitter.com/OZJFtcYPqG
p407
sVurl
p408
Vhttp://t.co/OZJFtcYPqG
p409
sVmedia_url_https
p410
Vhttps://pbs.twimg.com/media/B4YOyYmIQAApAIz.jpg
p411
sVid_str
p412
V542137063903346688
p413
sVsizes
p414
(dp415
Vlarge
p416
(dp417
Vh
p418
I368
sVresize
p419
Vfit
p420
sVw
p421
I700
ssVsmall
p422
(dp423
Vh
p424
I178
sVresize
p425
Vfit
p426
sVw
p427
I340
ssVmedium
p428
(dp429
Vh
p430
I315
sVresize
p431
Vfit
p432
sVw
p433
I600
ssVthumb
p434
(dp435
Vh
p436
I150
sVresize
p437
Vcrop
p438
sVw
p439
I150
sssVindices
p440
(lp441
I88
aI110
asVtype
p442
Vphoto
p443
sVid
p444
I542137063903346688
sVmedia_url
p445
Vhttp://pbs.twimg.com/media/B4YOyYmIQAApAIz.jpg
p446
sasg63
Nsg64
Nsg65
Nsg66
VTue Dec 09 02:02:03 +0000 2014
p447
sg68
Nsg69
I00
sg70
Nsg71
Nsg72
Nsg73
Nsg74
I00
sg75
Nsg76
(lp448
sg78
Nsg79
Nsg80
Nsg81
VStay positive and look for better opportunities! Learn more here http://t.co/yxEOGhohQ0 http://t.co/OZJFtcYPqG
p449
sg83
I00
sg84
Ven
p450
sg86
g3
(g87
g5
Ntp451
Rp452
(dp453
g10
VLouisiana
p454
sg92
V333333
p455
sg94
Ven
p456
sg96
Nsg97
I48
sg98
I1864
sg66
VSat Dec 31 19:38:07 +0000 2011
p457
sg100
I00
sg101
VI am a Independent Gold Plexus Ambassador from Louisiana. I am looking for self-starters reps to join my team. Order here http://t.co/icq4e7LkJ6
p458
sg103
Vhttps://pbs.twimg.com/profile_images/2288171610/qu30o4xzwl1ksm87x4ep_normal.jpeg
p459
sg105
I81
sg106
I95
sg107
Nsg108
Nsg109
I00
sg110
Vhttps://pbs.twimg.com/profile_banners/451624502/1389151367
p460
sg112
I00
sg113
I00
sg114
V0084B4
p461
sg116
I01
sg117
I00
sg118
Vhttp://abs.twimg.com/images/themes/theme1/bg.png
p462
sg120
Vlatain5
p463
sg122
I0
sg123
VRuth H
p464
sg125
VDDEEF6
p465
sg127
Vhttp://t.co/mPDnAK041J
p466
sg129
I451624502
sg130
VC0DEED
p467
sbsg132
I0
sg133
V<a href="http://myplexusbuilder.com/" rel="nofollow">My Plexus Builder</a>
p468
sg135
(lp469
g3
(g137
g5
Ntp470
Rp471
(dp472
g141
Vhttp://t.co/yxEOGhohQ0
p473
sg143
Vhttp://ltl.is/pLxVi
p474
sbasg129
I542137063966277632
sbag3
(g4
g5
Ntp475
Rp476
(dp477
g9
I0
sg10
Nsg11
Nsg12
(lp478
sg14
I00
sg15
Nsg16
Nsg17
(lp479
sg63
Nsg64
Nsg65
Nsg66
VSun Dec 07 15:53:04 +0000 2014
p480
sg68
Nsg69
I00
sg70
Nsg71
Nsg72
Nsg73
Nsg74
I00
sg75
Nsg76
(lp481
sg78
Nsg79
Nsg80
Nsg81
V"You can never cross the ocean unless you have the courage to lose sight of the shore." -Christopher Columbus http://t.co/yxEOGhohQ0
p482
sg83
I00
sg84
Ven
p483
sg86
g3
(g87
g5
Ntp484
Rp485
(dp486
g10
VLouisiana
p487
sg92
V333333
p488
sg94
Ven
p489
sg96
Nsg97
I48
sg98
I1864
sg66
VSat Dec 31 19:38:07 +0000 2011
p490
sg100
I00
sg101
VI am a Independent Gold Plexus Ambassador from Louisiana. I am looking for self-starters reps to join my team. Order here http://t.co/icq4e7LkJ6
p491
sg103
Vhttps://pbs.twimg.com/profile_images/2288171610/qu30o4xzwl1ksm87x4ep_normal.jpeg
p492
sg105
I81
sg106
I95
sg107
Nsg108
Nsg109
I00
sg110
Vhttps://pbs.twimg.com/profile_banners/451624502/1389151367
p493
sg112
I00
sg113
I00
sg114
V0084B4
p494
sg116
I01
sg117
I00
sg118
Vhttp://abs.twimg.com/images/themes/theme1/bg.png
p495
sg120
Vlatain5
p496
sg122
I0
sg123
VRuth H
p497
sg125
VDDEEF6
p498
sg127
Vhttp://t.co/mPDnAK041J
p499
sg129
I451624502
sg130
VC0DEED
p500
sbsg132
I0
sg133
V<a href="http://myplexusbuilder.com/" rel="nofollow">My Plexus Builder</a>
p501
sg135
(lp502
g3
(g137
g5
Ntp503
Rp504
(dp505
g141
Vhttp://t.co/yxEOGhohQ0
p506
sg143
Vhttp://ltl.is/pLxVi
p507
sbasg129
I541621422247124993
sbag3
(g4
g5
Ntp508
Rp509
(dp510
g9
I0
sg10
Nsg11
Nsg12
(lp511
sg14
I00
sg15
Nsg16
Nsg17
(lp512
(dp513
Vexpanded_url
p514
Vhttp://twitter.com/latain5/status/541272122514235392/photo/1
p515
sVdisplay_url
p516
Vpic.twitter.com/UHUC6vr2jg
p517
sVurl
p518
Vhttp://t.co/UHUC6vr2jg
p519
sVmedia_url_https
p520
Vhttps://pbs.twimg.com/media/B4L8IKgIYAATbh6.jpg
p521
sVid_str
p522
V541272122426155008
p523
sVsizes
p524
(dp525
Vlarge
p526
(dp527
Vh
p528
I368
sVresize
p529
Vfit
p530
sVw
p531
I700
ssVsmall
p532
(dp533
Vh
p534
I178
sVresize
p535
Vfit
p536
sVw
p537
I340
ssVmedium
p538
(dp539
Vh
p540
I315
sVresize
p541
Vfit
p542
sVw
p543
I600
ssVthumb
p544
(dp545
Vh
p546
I150
sVresize
p547
Vcrop
p548
sVw
p549
I150
sssVindices
p550
(lp551
I89
aI111
asVtype
p552
Vphoto
p553
sVid
p554
I541272122426155008
sVmedia_url
p555
Vhttp://pbs.twimg.com/media/B4L8IKgIYAATbh6.jpg
p556
sasg63
Nsg64
Nsg65
Nsg66
VSat Dec 06 16:45:05 +0000 2014
p557
sg68
Nsg69
I00
sg70
Nsg71
Nsg72
Nsg73
Nsg74
I00
sg75
Nsg76
(lp558
sg78
Nsg79
Nsg80
Nsg81
VFill your life with positive things! Click here to find out more. http://t.co/yxEOGhohQ0 http://t.co/UHUC6vr2jg
p559
sg83
I00
sg84
Ven
p560
sg86
g3
(g87
g5
Ntp561
Rp562
(dp563
g10
VLouisiana
p564
sg92
V333333
p565
sg94
Ven
p566
sg96
Nsg97
I48
sg98
I1864
sg66
VSat Dec 31 19:38:07 +0000 2011
p567
sg100
I00
sg101
VI am a Independent Gold Plexus Ambassador from Louisiana. I am looking for self-starters reps to join my team. Order here http://t.co/icq4e7LkJ6
p568
sg103
Vhttps://pbs.twimg.com/profile_images/2288171610/qu30o4xzwl1ksm87x4ep_normal.jpeg
p569
sg105
I81
sg106
I95
sg107
Nsg108
Nsg109
I00
sg110
Vhttps://pbs.twimg.com/profile_banners/451624502/1389151367
p570
sg112
I00
sg113
I00
sg114
V0084B4
p571
sg116
I01
sg117
I00
sg118
Vhttp://abs.twimg.com/images/themes/theme1/bg.png
p572
sg120
Vlatain5
p573
sg122
I0
sg123
VRuth H
p574
sg125
VDDEEF6
p575
sg127
Vhttp://t.co/mPDnAK041J
p576
sg129
I451624502
sg130
VC0DEED
p577
sbsg132
I0
sg133
V<a href="http://myplexusbuilder.com/" rel="nofollow">My Plexus Builder</a>
p578
sg135
(lp579
g3
(g137
g5
Ntp580
Rp581
(dp582
g141
Vhttp://t.co/yxEOGhohQ0
p583
sg143
Vhttp://ltl.is/pLxVi
p584
sbasg129
I541272122514235392
sbag3
(g4
g5
Ntp585
Rp586
(dp587
g9
I0
sg10
Nsg11
Nsg12
(lp588
sg14
I00
sg15
Nsg16
Nsg17
(lp589
(dp590
Vexpanded_url
p591
Vhttp://twitter.com/latain5/status/540948739205394432/photo/1
p592
sVdisplay_url
p593
Vpic.twitter.com/6rZcaf8tW3
p594
sVurl
p595
Vhttp://t.co/6rZcaf8tW3
p596
sVmedia_url_https
p597
Vhttps://pbs.twimg.com/media/B4HWAx6IYAAAEqB.jpg
p598
sVid_str
p599
V540948739146670080
p600
sVsizes
p601
(dp602
Vlarge
p603
(dp604
Vh
p605
I537
sVresize
p606
Vfit
p607
sVw
p608
I1024
ssVsmall
p609
(dp610
Vh
p611
I178
sVresize
p612
Vfit
p613
sVw
p614
I340
ssVmedium
p615
(dp616
Vh
p617
I315
sVresize
p618
Vfit
p619
sVw
p620
I600
ssVthumb
p621
(dp622
Vh
p623
I150
sVresize
p624
Vcrop
p625
sVw
p626
I150
sssVindices
p627
(lp628
I47
aI69
asVtype
p629
Vphoto
p630
sVid
p631
I540948739146670080
sVmedia_url
p632
Vhttp://pbs.twimg.com/media/B4HWAx6IYAAAEqB.jpg
p633
sasg63
Nsg64
Nsg65
Nsg66
VFri Dec 05 19:20:04 +0000 2014
p634
sg68
Nsg69
I00
sg70
Nsg71
Nsg72
Nsg73
Nsg74
I00
sg75
Nsg76
(lp635
sg78
Nsg79
Nsg80
Nsg81
VDon't miss your chance! http://t.co/yxEOGhohQ0 http://t.co/6rZcaf8tW3
p636
sg83
I00
sg84
Ven
p637
sg86
g3
(g87
g5
Ntp638
Rp639
(dp640
g10
VLouisiana
p641
sg92
V333333
p642
sg94
Ven
p643
sg96
Nsg97
I48
sg98
I1864
sg66
VSat Dec 31 19:38:07 +0000 2011
p644
sg100
I00
sg101
VI am a Independent Gold Plexus Ambassador from Louisiana. I am looking for self-starters reps to join my team. Order here http://t.co/icq4e7LkJ6
p645
sg103
Vhttps://pbs.twimg.com/profile_images/2288171610/qu30o4xzwl1ksm87x4ep_normal.jpeg
p646
sg105
I81
sg106
I95
sg107
Nsg108
Nsg109
I00
sg110
Vhttps://pbs.twimg.com/profile_banners/451624502/1389151367
p647
sg112
I00
sg113
I00
sg114
V0084B4
p648
sg116
I01
sg117
I00
sg118
Vhttp://abs.twimg.com/images/themes/theme1/bg.png
p649
sg120
Vlatain5
p650
sg122
I0
sg123
VRuth H
p651
sg125
VDDEEF6
p652
sg127
Vhttp://t.co/mPDnAK041J
p653
sg129
I451624502
sg130
VC0DEED
p654
sbsg132
I0
sg133
V<a href="http://myplexusbuilder.com/" rel="nofollow">My Plexus Builder</a>
p655
sg135
(lp656
g3
(g137
g5
Ntp657
Rp658
(dp659
g141
Vhttp://t.co/yxEOGhohQ0
p660
sg143
Vhttp://ltl.is/pLxVi
p661
sbasg129
I540948739205394432
sbag3
(g4
g5
Ntp662
Rp663
(dp664
g9
I0
sg10
Nsg11
Nsg12
(lp665
sg14
I00
sg15
Nsg16
Nsg17
(lp666
sg63
Nsg64
Nsg65
Nsg66
VFri Dec 05 00:31:04 +0000 2014
p667
sg68
Nsg69
I00
sg70
Nsg71
Nsg72
Nsg73
Nsg74
I00
sg75
Nsg76
(lp668
sg78
Nsg79
Nsg80
Nsg81
V80% of direct sellers say direct selling meets or exceeds their expectations. http://t.co/isI5uPTZLM
p669
sg83
I00
sg84
Ven
p670
sg86
g3
(g87
g5
Ntp671
Rp672
(dp673
g10
VLouisiana
p674
sg92
V333333
p675
sg94
Ven
p676
sg96
Nsg97
I48
sg98
I1864
sg66
VSat Dec 31 19:38:07 +0000 2011
p677
sg100
I00
sg101
VI am a Independent Gold Plexus Ambassador from Louisiana. I am looking for self-starters reps to join my team. Order here http://t.co/icq4e7LkJ6
p678
sg103
Vhttps://pbs.twimg.com/profile_images/2288171610/qu30o4xzwl1ksm87x4ep_normal.jpeg
p679
sg105
I81
sg106
I95
sg107
Nsg108
Nsg109
I00
sg110
Vhttps://pbs.twimg.com/profile_banners/451624502/1389151367
p680
sg112
I00
sg113
I00
sg114
V0084B4
p681
sg116
I01
sg117
I00
sg118
Vhttp://abs.twimg.com/images/themes/theme1/bg.png
p682
sg120
Vlatain5
p683
sg122
I0
sg123
VRuth H
p684
sg125
VDDEEF6
p685
sg127
Vhttp://t.co/mPDnAK041J
p686
sg129
I451624502
sg130
VC0DEED
p687
sbsg132
I0
sg133
V<a href="http://myplexusbuilder.com/" rel="nofollow">My Plexus Builder</a>
p688
sg135
(lp689
g3
(g137
g5
Ntp690
Rp691
(dp692
g141
Vhttp://t.co/isI5uPTZLM
p693
sg143
Vhttp://ltl.is/XlHV4
p694
sbasg129
I540664615949324288
sbag3
(g4
g5
Ntp695
Rp696
(dp697
g9
I0
sg10
Nsg11
Nsg12
(lp698
sg14
I00
sg15
Nsg16
Nsg17
(lp699
(dp700
Vexpanded_url
p701
Vhttp://twitter.com/latain5/status/540182181168287744/photo/1
p702
sVdisplay_url
p703
Vpic.twitter.com/ELDh5MAu9n
p704
sVurl
p705
Vhttp://t.co/ELDh5MAu9n
p706
sVmedia_url_https
p707
Vhttps://pbs.twimg.com/media/B38c1OcIQAEpPao.jpg
p708
sVid_str
p709
V540182181042470913
p710
sVsizes
p711
(dp712
Vlarge
p713
(dp714
Vh
p715
I537
sVresize
p716
Vfit
p717
sVw
p718
I1024
ssVsmall
p719
(dp720
Vh
p721
I178
sVresize
p722
Vfit
p723
sVw
p724
I340
ssVmedium
p725
(dp726
Vh
p727
I315
sVresize
p728
Vfit
p729
sVw
p730
I600
ssVthumb
p731
(dp732
Vh
p733
I150
sVresize
p734
Vcrop
p735
sVw
p736
I150
sssVindices
p737
(lp738
I47
aI69
asVtype
p739
Vphoto
p740
sVid
p741
I540182181042470913
sVmedia_url
p742
Vhttp://pbs.twimg.com/media/B38c1OcIQAEpPao.jpg
p743
sasg63
Nsg64
Nsg65
Nsg66
VWed Dec 03 16:34:02 +0000 2014
p744
sg68
Nsg69
I00
sg70
Nsg71
Nsg72
Nsg73
Nsg74
I00
sg75
Nsg76
(lp745
sg78
Nsg79
Nsg80
Nsg81
VDon't miss your chance! http://t.co/yxEOGhohQ0 http://t.co/ELDh5MAu9n
p746
sg83
I00
sg84
Ven
p747
sg86
g3
(g87
g5
Ntp748
Rp749
(dp750
g10
VLouisiana
p751
sg92
V333333
p752
sg94
Ven
p753
sg96
Nsg97
I48
sg98
I1864
sg66
VSat Dec 31 19:38:07 +0000 2011
p754
sg100
I00
sg101
VI am a Independent Gold Plexus Ambassador from Louisiana. I am looking for self-starters reps to join my team. Order here http://t.co/icq4e7LkJ6
p755
sg103
Vhttps://pbs.twimg.com/profile_images/2288171610/qu30o4xzwl1ksm87x4ep_normal.jpeg
p756
sg105
I81
sg106
I95
sg107
Nsg108
Nsg109
I00
sg110
Vhttps://pbs.twimg.com/profile_banners/451624502/1389151367
p757
sg112
I00
sg113
I00
sg114
V0084B4
p758
sg116
I01
sg117
I00
sg118
Vhttp://abs.twimg.com/images/themes/theme1/bg.png
p759
sg120
Vlatain5
p760
sg122
I0
sg123
VRuth H
p761
sg125
VDDEEF6
p762
sg127
Vhttp://t.co/mPDnAK041J
p763
sg129
I451624502
sg130
VC0DEED
p764
sbsg132
I0
sg133
V<a href="http://myplexusbuilder.com/" rel="nofollow">My Plexus Builder</a>
p765
sg135
(lp766
g3
(g137
g5
Ntp767
Rp768
(dp769
g141
Vhttp://t.co/yxEOGhohQ0
p770
sg143
Vhttp://ltl.is/pLxVi
p771
sbasg129
I540182181168287744
sbag3
(g4
g5
Ntp772
Rp773
(dp774
g9
I0
sg10
Nsg11
Nsg12
(lp775
sg14
I00
sg15
Nsg16
Nsg17
(lp776
sg63
Nsg64
Nsg65
Nsg66
VTue Dec 02 20:39:03 +0000 2014
p777
sg68
Nsg69
I00
sg70
Nsg71
Nsg72
Nsg73
Nsg74
I00
sg75
Nsg76
(lp778
sg78
Nsg79
Nsg80
Nsg81
V"Americans from every walk of life can seize the opportunity of direct sales." - Former President Bill Clinton http://t.co/yxEOGhohQ0
p779
sg83
I00
sg84
Ven
p780
sg86
g3
(g87
g5
Ntp781
Rp782
(dp783
g10
VLouisiana
p784
sg92
V333333
p785
sg94
Ven
p786
sg96
Nsg97
I48
sg98
I1864
sg66
VSat Dec 31 19:38:07 +0000 2011
p787
sg100
I00
sg101
VI am a Independent Gold Plexus Ambassador from Louisiana. I am looking for self-starters reps to join my team. Order here http://t.co/icq4e7LkJ6
p788
sg103
Vhttps://pbs.twimg.com/profile_images/2288171610/qu30o4xzwl1ksm87x4ep_normal.jpeg
p789
sg105
I81
sg106
I95
sg107
Nsg108
Nsg109
I00
sg110
Vhttps://pbs.twimg.com/profile_banners/451624502/1389151367
p790
sg112
I00
sg113
I00
sg114
V0084B4
p791
sg116
I01
sg117
I00
sg118
Vhttp://abs.twimg.com/images/themes/theme1/bg.png
p792
sg120
Vlatain5
p793
sg122
I0
sg123
VRuth H
p794
sg125
VDDEEF6
p795
sg127
Vhttp://t.co/mPDnAK041J
p796
sg129
I451624502
sg130
VC0DEED
p797
sbsg132
I0
sg133
V<a href="http://myplexusbuilder.com/" rel="nofollow">My Plexus Builder</a>
p798
sg135
(lp799
g3
(g137
g5
Ntp800
Rp801
(dp802
g141
Vhttp://t.co/yxEOGhohQ0
p803
sg143
Vhttp://ltl.is/pLxVi
p804
sbasg129
I539881452331335680
sbag3
(g4
g5
Ntp805
Rp806
(dp807
g9
I1
sg10
Nsg11
Nsg12
(lp808
sg14
I00
sg15
Nsg16
Nsg17
(lp809
(dp810
Vexpanded_url
p811
Vhttp://twitter.com/latain5/status/539617619201241088/photo/1
p812
sVdisplay_url
p813
Vpic.twitter.com/dNF6CCaFnA
p814
sVurl
p815
Vhttp://t.co/dNF6CCaFnA
p816
sVmedia_url_https
p817
Vhttps://pbs.twimg.com/media/B30bXK-CEAADjX3.jpg
p818
sVid_str
p819
V539617615249805312
p820
sVsizes
p821
(dp822
Vlarge
p823
(dp824
Vh
p825
I631
sVresize
p826
Vfit
p827
sVw
p828
I637
ssVsmall
p829
(dp830
Vh
p831
I336
sVresize
p832
Vfit
p833
sVw
p834
I340
ssVmedium
p835
(dp836
Vh
p837
I594
sVresize
p838
Vfit
p839
sVw
p840
I600
ssVthumb
p841
(dp842
Vh
p843
I150
sVresize
p844
Vcrop
p845
sVw
p846
I150
sssVindices
p847
(lp848
I118
aI140
asVtype
p849
Vphoto
p850
sVid
p851
I539617615249805312
sVmedia_url
p852
Vhttp://pbs.twimg.com/media/B30bXK-CEAADjX3.jpg
p853
sasg63
Nsg64
Nsg65
Nsg66
VTue Dec 02 03:10:40 +0000 2014
p854
sg68
Nsg69
I00
sg70
Nsg71
Nsg72
Nsg73
Nsg74
I00
sg75
Nsg76
(lp855
sg78
Nsg79
Nsg80
Nsg81
VWeight loss, increased energy and more. There r many reasons 2try Plexus products. Ask me how! http://t.co/qV5Eu0wr1z http://t.co/dNF6CCaFnA
p856
sg83
I00
sg84
Ven
p857
sg86
g3
(g87
g5
Ntp858
Rp859
(dp860
g10
VLouisiana
p861
sg92
V333333
p862
sg94
Ven
p863
sg96
Nsg97
I48
sg98
I1864
sg66
VSat Dec 31 19:38:07 +0000 2011
p864
sg100
I00
sg101
VI am a Independent Gold Plexus Ambassador from Louisiana. I am looking for self-starters reps to join my team. Order here http://t.co/icq4e7LkJ6
p865
sg103
Vhttps://pbs.twimg.com/profile_images/2288171610/qu30o4xzwl1ksm87x4ep_normal.jpeg
p866
sg105
I81
sg106
I95
sg107
Nsg108
Nsg109
I00
sg110
Vhttps://pbs.twimg.com/profile_banners/451624502/1389151367
p867
sg112
I00
sg113
I00
sg114
V0084B4
p868
sg116
I01
sg117
I00
sg118
Vhttp://abs.twimg.com/images/themes/theme1/bg.png
p869
sg120
Vlatain5
p870
sg122
I0
sg123
VRuth H
p871
sg125
VDDEEF6
p872
sg127
Vhttp://t.co/mPDnAK041J
p873
sg129
I451624502
sg130
VC0DEED
p874
sbsg132
I0
sg133
V<a href="http://twitter.com/download/iphone" rel="nofollow">Twitter for iPhone</a>
p875
sg135
(lp876
g3
(g137
g5
Ntp877
Rp878
(dp879
g141
Vhttp://t.co/qV5Eu0wr1z
p880
sg143
Vhttp://ltl.is/5TJUl
p881
sbasg129
I539617619201241088
sbag3
(g4
g5
Ntp882
Rp883
(dp884
g9
I0
sg10
Nsg11
Nsg12
(lp885
sg14
I00
sg15
Nsg16
Nsg17
(lp886
sg63
Nsg64
Nsg65
Nsg66
VMon Dec 01 20:31:02 +0000 2014
p887
sg68
Nsg69
I00
sg70
Nsg71
Nsg72
Nsg73
Nsg74
I00
sg75
Nsg76
(lp888
sg78
Nsg79
Nsg80
Nsg81
V74% of US adults have purchased products from a direct seller. http://t.co/yxEOGhohQ0
p889
sg83
I00
sg84
Ven
p890
sg86
g3
(g87
g5
Ntp891
Rp892
(dp893
g10
VLouisiana
p894
sg92
V333333
p895
sg94
Ven
p896
sg96
Nsg97
I48
sg98
I1864
sg66
VSat Dec 31 19:38:07 +0000 2011
p897
sg100
I00
sg101
VI am a Independent Gold Plexus Ambassador from Louisiana. I am looking for self-starters reps to join my team. Order here http://t.co/icq4e7LkJ6
p898
sg103
Vhttps://pbs.twimg.com/profile_images/2288171610/qu30o4xzwl1ksm87x4ep_normal.jpeg
p899
sg105
I81
sg106
I95
sg107
Nsg108
Nsg109
I00
sg110
Vhttps://pbs.twimg.com/profile_banners/451624502/1389151367
p900
sg112
I00
sg113
I00
sg114
V0084B4
p901
sg116
I01
sg117
I00
sg118
Vhttp://abs.twimg.com/images/themes/theme1/bg.png
p902
sg120
Vlatain5
p903
sg122
I0
sg123
VRuth H
p904
sg125
VDDEEF6
p905
sg127
Vhttp://t.co/mPDnAK041J
p906
sg129
I451624502
sg130
VC0DEED
p907
sbsg132
I0
sg133
V<a href="http://myplexusbuilder.com/" rel="nofollow">My Plexus Builder</a>
p908
sg135
(lp909
g3
(g137
g5
Ntp910
Rp911
(dp912
g141
Vhttp://t.co/yxEOGhohQ0
p913
sg143
Vhttp://ltl.is/pLxVi
p914
sbasg129
I539517047903109120
sbag3
(g4
g5
Ntp915
Rp916
(dp917
g9
I0
sg10
Nsg11
Nsg12
(lp918
sg14
I00
sg15
Nsg16
Nsg17
(lp919
sg63
Nsg64
Nsg65
Nsg66
VMon Dec 01 02:35:03 +0000 2014
p920
sg68
Nsg69
I00
sg70
Nsg71
Nsg72
Nsg73
Nsg74
I00
sg75
Nsg76
(lp921
sg78
Nsg79
Nsg80
Nsg81
VWeight loss, increased energy and more. There are many reasons to try the Plexus products. Ask me how! http://t.co/qV5Eu0wr1z
p922
sg83
I00
sg84
Ven
p923
sg86
g3
(g87
g5
Ntp924
Rp925
(dp926
g10
VLouisiana
p927
sg92
V333333
p928
sg94
Ven
p929
sg96
Nsg97
I48
sg98
I1864
sg66
VSat Dec 31 19:38:07 +0000 2011
p930
sg100
I00
sg101
VI am a Independent Gold Plexus Ambassador from Louisiana. I am looking for self-starters reps to join my team. Order here http://t.co/icq4e7LkJ6
p931
sg103
Vhttps://pbs.twimg.com/profile_images/2288171610/qu30o4xzwl1ksm87x4ep_normal.jpeg
p932
sg105
I81
sg106
I95
sg107
Nsg108
Nsg109
I00
sg110
Vhttps://pbs.twimg.com/profile_banners/451624502/1389151367
p933
sg112
I00
sg113
I00
sg114
V0084B4
p934
sg116
I01
sg117
I00
sg118
Vhttp://abs.twimg.com/images/themes/theme1/bg.png
p935
sg120
Vlatain5
p936
sg122
I0
sg123
VRuth H
p937
sg125
VDDEEF6
p938
sg127
Vhttp://t.co/mPDnAK041J
p939
sg129
I451624502
sg130
VC0DEED
p940
sbsg132
I0
sg133
V<a href="http://myplexusbuilder.com/" rel="nofollow">My Plexus Builder</a>
p941
sg135
(lp942
g3
(g137
g5
Ntp943
Rp944
(dp945
g141
Vhttp://t.co/qV5Eu0wr1z
p946
sg143
Vhttp://ltl.is/5TJUl
p947
sbasg129
I539246266396717056
sbag3
(g4
g5
Ntp948
Rp949
(dp950
g9
I1
sg10
Nsg11
Nsg12
(lp951
sg14
I00
sg15
Nsg16
Nsg17
(lp952
sg63
Nsg64
Nsg65
Nsg66
VMon Dec 01 02:11:13 +0000 2014
p953
sg68
Nsg69
I00
sg70
Nsg71
Nsg72
Nsg73
Nsg74
I00
sg75
Nsg76
(lp954
sg78
Nsg79
Nsg80
Nsg81
VPlexus Black Friday Sale Ends Tonight at midnight! No coupon needed to take advantage of this special\u2026 http://t.co/XsULqoByP8
p955
sg83
I00
sg84
Ven
p956
sg86
g3
(g87
g5
Ntp957
Rp958
(dp959
g10
VLouisiana
p960
sg92
V333333
p961
sg94
Ven
p962
sg96
Nsg97
I48
sg98
I1864
sg66
VSat Dec 31 19:38:07 +0000 2011
p963
sg100
I00
sg101
VI am a Independent Gold Plexus Ambassador from Louisiana. I am looking for self-starters reps to join my team. Order here http://t.co/icq4e7LkJ6
p964
sg103
Vhttps://pbs.twimg.com/profile_images/2288171610/qu30o4xzwl1ksm87x4ep_normal.jpeg
p965
sg105
I81
sg106
I95
sg107
Nsg108
Nsg109
I00
sg110
Vhttps://pbs.twimg.com/profile_banners/451624502/1389151367
p966
sg112
I00
sg113
I00
sg114
V0084B4
p967
sg116
I01
sg117
I00
sg118
Vhttp://abs.twimg.com/images/themes/theme1/bg.png
p968
sg120
Vlatain5
p969
sg122
I0
sg123
VRuth H
p970
sg125
VDDEEF6
p971
sg127
Vhttp://t.co/mPDnAK041J
p972
sg129
I451624502
sg130
VC0DEED
p973
sbsg132
I0
sg133
V<a href="http://instagram.com" rel="nofollow">Instagram</a>
p974
sg135
(lp975
g3
(g137
g5
Ntp976
Rp977
(dp978
g141
Vhttp://t.co/XsULqoByP8
p979
sg143
Vhttp://instagram.com/p/wC_8xHH3WQ/
p980
sbasg129
I539240271247343616
sbag3
(g4
g5
Ntp981
Rp982
(dp983
g9
I0
sg10
Nsg11
Nsg12
(lp984
sg14
I00
sg15
Nsg16
Nsg17
(lp985
sg63
Nsg64
Nsg65
Nsg66
VSun Nov 30 23:44:39 +0000 2014
p986
sg68
Nsg69
I00
sg70
Nsg71
Nsg72
Nsg73
Nsg74
I00
sg75
Nsg76
(lp987
sg78
Nsg79
Nsg80
Nsg81
VPlexus Black Friday Sale Ends Tonight at midnight! No coupon needed to take advantage of this special from today\u2026 http://t.co/UWNbITktbV
p988
sg83
I00
sg84
Ven
p989
sg86
g3
(g87
g5
Ntp990
Rp991
(dp992
g10
VLouisiana
p993
sg92
V333333
p994
sg94
Ven
p995
sg96
Nsg97
I48
sg98
I1864
sg66
VSat Dec 31 19:38:07 +0000 2011
p996
sg100
I00
sg101
VI am a Independent Gold Plexus Ambassador from Louisiana. I am looking for self-starters reps to join my team. Order here http://t.co/icq4e7LkJ6
p997
sg103
Vhttps://pbs.twimg.com/profile_images/2288171610/qu30o4xzwl1ksm87x4ep_normal.jpeg
p998
sg105
I81
sg106
I95
sg107
Nsg108
Nsg109
I00
sg110
Vhttps://pbs.twimg.com/profile_banners/451624502/1389151367
p999
sg112
I00
sg113
I00
sg114
V0084B4
p1000
sg116
I01
sg117
I00
sg118
Vhttp://abs.twimg.com/images/themes/theme1/bg.png
p1001
sg120
Vlatain5
p1002
sg122
I0
sg123
VRuth H
p1003
sg125
VDDEEF6
p1004
sg127
Vhttp://t.co/mPDnAK041J
p1005
sg129
I451624502
sg130
VC0DEED
p1006
sbsg132
I0
sg133
V<a href="http://twitter.com/download/iphone" rel="nofollow">Twitter for iPhone</a>
p1007
sg135
(lp1008
g3
(g137
g5
Ntp1009
Rp1010
(dp1011
g141
Vhttp://t.co/UWNbITktbV
p1012
sg143
Vhttp://instagram.com/p/v6UZdNH3dR/
p1013
sbasg129
I539203384486936577
sbag3
(g4
g5
Ntp1014
Rp1015
(dp1016
g9
I0
sg10
Nsg11
Nsg12
(lp1017
sg14
I00
sg15
Nsg16
Nsg17
(lp1018
(dp1019
Vexpanded_url
p1020
Vhttp://twitter.com/latain5/status/538718033335025664/photo/1
p1021
sVdisplay_url
p1022
Vpic.twitter.com/yVYd46JxoS
p1023
sVurl
p1024
Vhttp://t.co/yVYd46JxoS
p1025
sVmedia_url_https
p1026
Vhttps://pbs.twimg.com/media/B3npMm3IUAIpbLB.jpg
p1027
sVid_str
p1028
V538718033246965762
p1029
sVsizes
p1030
(dp1031
Vlarge
p1032
(dp1033
Vh
p1034
I368
sVresize
p1035
Vfit
p1036
sVw
p1037
I700
ssVsmall
p1038
(dp1039
Vh
p1040
I178
sVresize
p1041
Vfit
p1042
sVw
p1043
I340
ssVmedium
p1044
(dp1045
Vh
p1046
I315
sVresize
p1047
Vfit
p1048
sVw
p1049
I600
ssVthumb
p1050
(dp1051
Vh
p1052
I150
sVresize
p1053
Vcrop
p1054
sVw
p1055
I150
sssVindices
p1056
(lp1057
I71
aI93
asVtype
p1058
Vphoto
p1059
sVid
p1060
I538718033246965762
sVmedia_url
p1061
Vhttp://pbs.twimg.com/media/B3npMm3IUAIpbLB.jpg
p1062
sasg63
Nsg64
Nsg65
Nsg66
VSat Nov 29 15:36:02 +0000 2014
p1063
sg68
Nsg69
I00
sg70
Nsg71
Nsg72
Nsg73
Nsg74
I00
sg75
Nsg76
(lp1064
sg78
Nsg79
Nsg80
Nsg81
VExpand your horizons, click here to learn more! http://t.co/yxEOGhohQ0 http://t.co/yVYd46JxoS
p1065
sg83
I00
sg84
Ven
p1066
sg86
g3
(g87
g5
Ntp1067
Rp1068
(dp1069
g10
VLouisiana
p1070
sg92
V333333
p1071
sg94
Ven
p1072
sg96
Nsg97
I48
sg98
I1864
sg66
VSat Dec 31 19:38:07 +0000 2011
p1073
sg100
I00
sg101
VI am a Independent Gold Plexus Ambassador from Louisiana. I am looking for self-starters reps to join my team. Order here http://t.co/icq4e7LkJ6
p1074
sg103
Vhttps://pbs.twimg.com/profile_images/2288171610/qu30o4xzwl1ksm87x4ep_normal.jpeg
p1075
sg105
I81
sg106
I95
sg107
Nsg108
Nsg109
I00
sg110
Vhttps://pbs.twimg.com/profile_banners/451624502/1389151367
p1076
sg112
I00
sg113
I00
sg114
V0084B4
p1077
sg116
I01
sg117
I00
sg118
Vhttp://abs.twimg.com/images/themes/theme1/bg.png
p1078
sg120
Vlatain5
p1079
sg122
I0
sg123
VRuth H
p1080
sg125
VDDEEF6
p1081
sg127
Vhttp://t.co/mPDnAK041J
p1082
sg129
I451624502
sg130
VC0DEED
p1083
sbsg132
I0
sg133
V<a href="http://myplexusbuilder.com/" rel="nofollow">My Plexus Builder</a>
p1084
sg135
(lp1085
g3
(g137
g5
Ntp1086
Rp1087
(dp1088
g141
Vhttp://t.co/yxEOGhohQ0
p1089
sg143
Vhttp://ltl.is/pLxVi
p1090
sbasg129
I538718033335025664
sbag3
(g4
g5
Ntp1091
Rp1092
(dp1093
g9
I0
sg10
Nsg11
Nsg12
(lp1094
sg14
I00
sg15
Nsg16
Nsg17
(lp1095
(dp1096
Vexpanded_url
p1097
Vhttp://twitter.com/latain5/status/538361181157982208/photo/1
p1098
sVdisplay_url
p1099
Vpic.twitter.com/1Rl1OhHqO2
p1100
sVurl
p1101
Vhttp://t.co/1Rl1OhHqO2
p1102
sVmedia_url_https
p1103
Vhttps://pbs.twimg.com/media/B3ikpFCIUAAKZVQ.jpg
p1104
sVid_str
p1105
V538361181103476736
p1106
sVsizes
p1107
(dp1108
Vlarge
p1109
(dp1110
Vh
p1111
I537
sVresize
p1112
Vfit
p1113
sVw
p1114
I1024
ssVsmall
p1115
(dp1116
Vh
p1117
I178
sVresize
p1118
Vfit
p1119
sVw
p1120
I340
ssVmedium
p1121
(dp1122
Vh
p1123
I315
sVresize
p1124
Vfit
p1125
sVw
p1126
I600
ssVthumb
p1127
(dp1128
Vh
p1129
I150
sVresize
p1130
Vcrop
p1131
sVw
p1132
I150
sssVindices
p1133
(lp1134
I83
aI105
asVtype
p1135
Vphoto
p1136
sVid
p1137
I538361181103476736
sVmedia_url
p1138
Vhttp://pbs.twimg.com/media/B3ikpFCIUAAKZVQ.jpg
p1139
sasg63
Nsg64
Nsg65
Nsg66
VFri Nov 28 15:58:02 +0000 2014
p1140
sg68
Nsg69
I00
sg70
Nsg71
Nsg72
Nsg73
Nsg74
I00
sg75
Nsg76
(lp1141
sg78
Nsg79
Nsg80
Nsg81
VStop waiting and click here to start doing something great! http://t.co/yxEOGhohQ0 http://t.co/1Rl1OhHqO2
p1142
sg83
I00
sg84
Ven
p1143
sg86
g3
(g87
g5
Ntp1144
Rp1145
(dp1146
g10
VLouisiana
p1147
sg92
V333333
p1148
sg94
Ven
p1149
sg96
Nsg97
I48
sg98
I1864
sg66
VSat Dec 31 19:38:07 +0000 2011
p1150
sg100
I00
sg101
VI am a Independent Gold Plexus Ambassador from Louisiana. I am looking for self-starters reps to join my team. Order here http://t.co/icq4e7LkJ6
p1151
sg103
Vhttps://pbs.twimg.com/profile_images/2288171610/qu30o4xzwl1ksm87x4ep_normal.jpeg
p1152
sg105
I81
sg106
I95
sg107
Nsg108
Nsg109
I00
sg110
Vhttps://pbs.twimg.com/profile_banners/451624502/1389151367
p1153
sg112
I00
sg113
I00
sg114
V0084B4
p1154
sg116
I01
sg117
I00
sg118
Vhttp://abs.twimg.com/images/themes/theme1/bg.png
p1155
sg120
Vlatain5
p1156
sg122
I0
sg123
VRuth H
p1157
sg125
VDDEEF6
p1158
sg127
Vhttp://t.co/mPDnAK041J
p1159
sg129
I451624502
sg130
VC0DEED
p1160
sbsg132
I0
sg133
V<a href="http://myplexusbuilder.com/" rel="nofollow">My Plexus Builder</a>
p1161
sg135
(lp1162
g3
(g137
g5
Ntp1163
Rp1164
(dp1165
g141
Vhttp://t.co/yxEOGhohQ0
p1166
sg143
Vhttp://ltl.is/pLxVi
p1167
sbasg129
I538361181157982208
sbaa.