(lp0
S'mama3curlies'
p1
a(lp2
ccopy_reg
_reconstructor
p3
(ctwitter
Status
p4
c__builtin__
object
p5
Ntp6
Rp7
(dp8
S'_favorite_count'
p9
I0
sS'_location'
p10
NsS'_withheld_scope'
p11
NsS'hashtags'
p12
(lp13
sS'_truncated'
p14
I00
sS'_retweeted_status'
p15
NsS'_withheld_copyright'
p16
NsS'media'
p17
(lp18
sS'_place'
p19
NsS'_contributors'
p20
NsS'_current_user_retweet'
p21
NsS'_created_at'
p22
VSun Dec 14 19:35:58 +0000 2014
p23
sS'_scopes'
p24
NsS'_possibly_sensitive'
p25
I00
sS'_in_reply_to_screen_name'
p26
NsS'_coordinates'
p27
NsS'_in_reply_to_user_id'
p28
NsS'_geo'
p29
NsS'_favorited'
p30
I00
sS'_withheld_in_countries'
p31
NsS'user_mentions'
p32
(lp33
g3
(ctwitter
User
p34
g5
Ntp35
Rp36
(dp37
g10
NsS'_profile_text_color'
p38
NsS'_lang'
p39
NsS'_time_zone'
p40
NsS'_followers_count'
p41
NsS'_statuses_count'
p42
Nsg22
NsS'_verified'
p43
NsS'_description'
p44
NsS'_profile_image_url'
p45
NsS'_friends_count'
p46
NsS'_favourites_count'
p47
NsS'_utc_offset'
p48
NsS'_status'
p49
NsS'_protected'
p50
NsS'_profile_banner_url'
p51
NsS'_notifications'
p52
NsS'_profile_background_tile'
p53
NsS'_profile_link_color'
p54
NsS'_geo_enabled'
p55
NsS'_contributors_enabled'
p56
NsS'_profile_background_image_url'
p57
NsS'_screen_name'
p58
VYonanas
p59
sS'_listed_count'
p60
NsS'_name'
p61
VYonanas
p62
sS'_profile_sidebar_fill_color'
p63
NsS'_url'
p64
NsS'_id'
p65
I207643638
sS'_profile_background_color'
p66
NsbasS'_now'
p67
NsS'_id_str'
p68
V544214231034249216
p69
sS'_in_reply_to_status_id'
p70
NsS'_text'
p71
VWant to Go @Yonanas on Maui? Enter to WIN a dream Maui vacation for 2 here:   http://t.co/P2UZzOK2EE
p72
sS'_retweeted'
p73
I00
sS'lang'
p74
Ven
p75
sS'_user'
p76
g3
(g34
g5
Ntp77
Rp78
(dp79
g10
V
p80
sg38
V333333
p81
sg39
Ven
p82
sg40
Nsg41
I77
sg42
I1196
sg22
VTue Mar 16 18:44:50 +0000 2010
p83
sg43
I00
sg44
g80
sg45
Vhttps://abs.twimg.com/sticky/default_profile_images/default_profile_3_normal.png
p84
sg46
I958
sg47
I60
sg48
Nsg49
Nsg50
I00
sg51
Nsg52
I00
sg53
I00
sg54
V0084B4
p85
sg55
I00
sg56
I00
sg57
Vhttp://abs.twimg.com/images/themes/theme1/bg.png
p86
sg58
Vmama3curlies
p87
sg60
I0
sg61
Vmay lynn mahler
p88
sg63
VDDEEF6
p89
sg64
Nsg65
I123634696
sg66
VC0DEED
p90
sbsS'_retweet_count'
p91
I0
sS'_source'
p92
V<a href="https://dev.twitter.com/docs/tfw" rel="nofollow">Twitter for Websites</a>
p93
sS'urls'
p94
(lp95
g3
(ctwitter
Url
p96
g5
Ntp97
Rp98
(dp99
S'url'
p100
Vhttp://t.co/P2UZzOK2EE
p101
sS'expanded_url'
p102
Vhttp://woobox.com/budhzm/clvdzl
p103
sbasg65
I544214231034249216
sbag3
(g4
g5
Ntp104
Rp105
(dp106
g9
I1
sg10
Nsg11
Nsg12
(lp107
sg14
I00
sg15
Nsg16
Nsg17
(lp108
sg19
Nsg20
Nsg21
Nsg22
VSun Dec 14 19:28:28 +0000 2014
p109
sg24
Nsg25
I00
sg26
Nsg27
Nsg28
Nsg29
Nsg30
I00
sg31
Nsg32
(lp110
sg67
Nsg68
V544212342255280128
p111
sg70
Nsg71
VWant to win Wagner Spray Tech Bundle? I just entered to win &amp; you can too:  http://t.co/9rBZM3pGDm
p112
sg73
I00
sg74
Ven
p113
sg76
g3
(g34
g5
Ntp114
Rp115
(dp116
g10
g80
sg38
V333333
p117
sg39
Ven
p118
sg40
Nsg41
I77
sg42
I1196
sg22
VTue Mar 16 18:44:50 +0000 2010
p119
sg43
I00
sg44
g80
sg45
Vhttps://abs.twimg.com/sticky/default_profile_images/default_profile_3_normal.png
p120
sg46
I958
sg47
I60
sg48
Nsg49
Nsg50
I00
sg51
Nsg52
I00
sg53
I00
sg54
V0084B4
p121
sg55
I00
sg56
I00
sg57
Vhttp://abs.twimg.com/images/themes/theme1/bg.png
p122
sg58
Vmama3curlies
p123
sg60
I0
sg61
Vmay lynn mahler
p124
sg63
VDDEEF6
p125
sg64
Nsg65
I123634696
sg66
VC0DEED
p126
sbsg91
I0
sg92
V<a href="https://dev.twitter.com/docs/tfw" rel="nofollow">Twitter for Websites</a>
p127
sg94
(lp128
g3
(g96
g5
Ntp129
Rp130
(dp131
g100
Vhttp://t.co/9rBZM3pGDm
p132
sg102
Vhttp://is.gd/yMcC0U
p133
sbasg65
I544212342255280128
sbag3
(g4
g5
Ntp134
Rp135
(dp136
g9
I0
sg10
Nsg11
Nsg12
(lp137
sg14
I00
sg15
Nsg16
Nsg17
(lp138
sg19
Nsg20
Nsg21
Nsg22
VSun Dec 14 19:27:24 +0000 2014
p139
sg24
Nsg25
I00
sg26
Nsg27
Nsg28
Nsg29
Nsg30
I00
sg31
Nsg32
(lp140
g3
(g34
g5
Ntp141
Rp142
(dp143
g10
Nsg38
Nsg39
Nsg40
Nsg41
Nsg42
Nsg22
Nsg43
Nsg44
Nsg45
Nsg46
Nsg47
Nsg48
Nsg49
Nsg50
Nsg51
Nsg52
Nsg53
Nsg54
Nsg55
Nsg56
Nsg57
Nsg58
VWagnerSprayTech
p144
sg60
Nsg61
VWagner SprayTech
p145
sg63
Nsg64
Nsg65
I33940024
sg66
Nsbasg67
Nsg68
V544212075430416384
p146
sg70
Nsg71
VI just enter the On The House Paint Your World sponsored by @wagnerspraytech http://t.co/9rBZM3pGDm
p147
sg73
I00
sg74
Ven
p148
sg76
g3
(g34
g5
Ntp149
Rp150
(dp151
g10
g80
sg38
V333333
p152
sg39
Ven
p153
sg40
Nsg41
I77
sg42
I1196
sg22
VTue Mar 16 18:44:50 +0000 2010
p154
sg43
I00
sg44
g80
sg45
Vhttps://abs.twimg.com/sticky/default_profile_images/default_profile_3_normal.png
p155
sg46
I958
sg47
I60
sg48
Nsg49
Nsg50
I00
sg51
Nsg52
I00
sg53
I00
sg54
V0084B4
p156
sg55
I00
sg56
I00
sg57
Vhttp://abs.twimg.com/images/themes/theme1/bg.png
p157
sg58
Vmama3curlies
p158
sg60
I0
sg61
Vmay lynn mahler
p159
sg63
VDDEEF6
p160
sg64
Nsg65
I123634696
sg66
VC0DEED
p161
sbsg91
I0
sg92
V<a href="https://dev.twitter.com/docs/tfw" rel="nofollow">Twitter for Websites</a>
p162
sg94
(lp163
g3
(g96
g5
Ntp164
Rp165
(dp166
g100
Vhttp://t.co/9rBZM3pGDm
p167
sg102
Vhttp://is.gd/yMcC0U
p168
sbasg65
I544212075430416384
sbag3
(g4
g5
Ntp169
Rp170
(dp171
g9
I0
sg10
Nsg11
Nsg12
(lp172
sg14
I00
sg15
Nsg16
Nsg17
(lp173
sg19
Nsg20
Nsg21
Nsg22
VSun Dec 14 18:43:42 +0000 2014
p174
sg24
Nsg25
I00
sg26
Nsg27
Nsg28
Nsg29
Nsg30
I00
sg31
Nsg32
(lp175
sg67
Nsg68
V544201077705289728
p176
sg70
Nsg71
VThe Bays English Muffins Toast to the Holidays Sweepstakes http://t.co/gIg0oHBqHt
p177
sg73
I00
sg74
Ven
p178
sg76
g3
(g34
g5
Ntp179
Rp180
(dp181
g10
g80
sg38
V333333
p182
sg39
Ven
p183
sg40
Nsg41
I77
sg42
I1196
sg22
VTue Mar 16 18:44:50 +0000 2010
p184
sg43
I00
sg44
g80
sg45
Vhttps://abs.twimg.com/sticky/default_profile_images/default_profile_3_normal.png
p185
sg46
I958
sg47
I60
sg48
Nsg49
Nsg50
I00
sg51
Nsg52
I00
sg53
I00
sg54
V0084B4
p186
sg55
I00
sg56
I00
sg57
Vhttp://abs.twimg.com/images/themes/theme1/bg.png
p187
sg58
Vmama3curlies
p188
sg60
I0
sg61
Vmay lynn mahler
p189
sg63
VDDEEF6
p190
sg64
Nsg65
I123634696
sg66
VC0DEED
p191
sbsg91
I0
sg92
V<a href="https://dev.twitter.com/docs/tfw" rel="nofollow">Twitter for Websites</a>
p192
sg94
(lp193
g3
(g96
g5
Ntp194
Rp195
(dp196
g100
Vhttp://t.co/gIg0oHBqHt
p197
sg102
Vhttp://woobox.com/cesy7x/clubjl
p198
sbasg65
I544201077705289728
sbag3
(g4
g5
Ntp199
Rp200
(dp201
g9
I0
sg10
Nsg11
Nsg12
(lp202
sg14
I00
sg15
Nsg16
Nsg17
(lp203
sg19
Nsg20
Nsg21
Nsg22
VSun Dec 14 18:30:07 +0000 2014
p204
sg24
Nsg25
I00
sg26
Nsg27
Nsg28
Nsg29
Nsg30
I00
sg31
Nsg32
(lp205
sg67
Nsg68
V544197660589060096
p206
sg70
Nsg71
VContigo's 12 Days of Giveaways http://t.co/CzjvxITF0T
p207
sg73
I00
sg74
Ven
p208
sg76
g3
(g34
g5
Ntp209
Rp210
(dp211
g10
g80
sg38
V333333
p212
sg39
Ven
p213
sg40
Nsg41
I77
sg42
I1196
sg22
VTue Mar 16 18:44:50 +0000 2010
p214
sg43
I00
sg44
g80
sg45
Vhttps://abs.twimg.com/sticky/default_profile_images/default_profile_3_normal.png
p215
sg46
I958
sg47
I60
sg48
Nsg49
Nsg50
I00
sg51
Nsg52
I00
sg53
I00
sg54
V0084B4
p216
sg55
I00
sg56
I00
sg57
Vhttp://abs.twimg.com/images/themes/theme1/bg.png
p217
sg58
Vmama3curlies
p218
sg60
I0
sg61
Vmay lynn mahler
p219
sg63
VDDEEF6
p220
sg64
Nsg65
I123634696
sg66
VC0DEED
p221
sbsg91
I0
sg92
V<a href="https://dev.twitter.com/docs/tfw" rel="nofollow">Twitter for Websites</a>
p222
sg94
(lp223
g3
(g96
g5
Ntp224
Rp225
(dp226
g100
Vhttp://t.co/CzjvxITF0T
p227
sg102
Vhttp://woobox.com/yzxmsf/cltvir
p228
sbasg65
I544197660589060096
sbag3
(g4
g5
Ntp229
Rp230
(dp231
g9
I0
sg10
Nsg11
Nsg12
(lp232
g3
(ctwitter
Hashtag
p233
g5
Ntp234
Rp235
(dp236
S'text'
p237
VRogersCoffeeGifts
p238
sbasg14
I00
sg15
Nsg16
Nsg17
(lp239
sg19
Nsg20
Nsg21
Nsg22
VSun Dec 14 18:27:15 +0000 2014
p240
sg24
Nsg25
I00
sg26
Nsg27
Nsg28
Nsg29
Nsg30
I00
sg31
Nsg32
(lp241
g3
(g34
g5
Ntp242
Rp243
(dp244
g10
Nsg38
Nsg39
Nsg40
Nsg41
Nsg42
Nsg22
Nsg43
Nsg44
Nsg45
Nsg46
Nsg47
Nsg48
Nsg49
Nsg50
Nsg51
Nsg52
Nsg53
Nsg54
Nsg55
Nsg56
Nsg57
Nsg58
Vrogerscoffee
p245
sg60
Nsg61
VRogers Family Coffee
p246
sg63
Nsg64
Nsg65
I64466020
sg66
Nsbasg67
Nsg68
V544196937327448064
p247
sg70
Nsg71
VI entered the 20 Days of Christmas giveaway from @RogersCoffee. Check it out New winner every day. #RogersCoffeeGifts http://t.co/WKpB0GfLKe
p248
sg73
I00
sg74
Ven
p249
sg76
g3
(g34
g5
Ntp250
Rp251
(dp252
g10
g80
sg38
V333333
p253
sg39
Ven
p254
sg40
Nsg41
I77
sg42
I1196
sg22
VTue Mar 16 18:44:50 +0000 2010
p255
sg43
I00
sg44
g80
sg45
Vhttps://abs.twimg.com/sticky/default_profile_images/default_profile_3_normal.png
p256
sg46
I958
sg47
I60
sg48
Nsg49
Nsg50
I00
sg51
Nsg52
I00
sg53
I00
sg54
V0084B4
p257
sg55
I00
sg56
I00
sg57
Vhttp://abs.twimg.com/images/themes/theme1/bg.png
p258
sg58
Vmama3curlies
p259
sg60
I0
sg61
Vmay lynn mahler
p260
sg63
VDDEEF6
p261
sg64
Nsg65
I123634696
sg66
VC0DEED
p262
sbsg91
I0
sg92
V<a href="https://dev.twitter.com/docs/tfw" rel="nofollow">Twitter for Websites</a>
p263
sg94
(lp264
g3
(g96
g5
Ntp265
Rp266
(dp267
g100
Vhttp://t.co/WKpB0GfLKe
p268
sg102
Vhttp://woobox.com/specsk/cltu1q
p269
sbasg65
I544196937327448064
sbag3
(g4
g5
Ntp270
Rp271
(dp272
g9
I0
sg10
Nsg11
Nsg12
(lp273
g3
(g233
g5
Ntp274
Rp275
(dp276
g237
VBigLots
p277
sbag3
(g233
g5
Ntp278
Rp279
(dp280
g237
VChristmasLikeCrazy
p281
sbasg14
I00
sg15
Nsg16
Nsg17
(lp282
sg19
Nsg20
Nsg21
Nsg22
VSun Dec 14 03:07:46 +0000 2014
p283
sg24
Nsg25
I00
sg26
Nsg27
Nsg28
Nsg29
Nsg30
I00
sg31
Nsg32
(lp284
sg67
Nsg68
V543965543959523328
p285
sg70
Nsg71
VI just entered the #BigLots #ChristmasLikeCrazy Sweeps for a chance to win! You should too &amp; I'll get a bonus entry! https://t.co/ByB9MK1im1
p286
sg73
I00
sg74
Ven
p287
sg76
g3
(g34
g5
Ntp288
Rp289
(dp290
g10
g80
sg38
V333333
p291
sg39
Ven
p292
sg40
Nsg41
I77
sg42
I1196
sg22
VTue Mar 16 18:44:50 +0000 2010
p293
sg43
I00
sg44
g80
sg45
Vhttps://abs.twimg.com/sticky/default_profile_images/default_profile_3_normal.png
p294
sg46
I958
sg47
I60
sg48
Nsg49
Nsg50
I00
sg51
Nsg52
I00
sg53
I00
sg54
V0084B4
p295
sg55
I00
sg56
I00
sg57
Vhttp://abs.twimg.com/images/themes/theme1/bg.png
p296
sg58
Vmama3curlies
p297
sg60
I0
sg61
Vmay lynn mahler
p298
sg63
VDDEEF6
p299
sg64
Nsg65
I123634696
sg66
VC0DEED
p300
sbsg91
I0
sg92
V<a href="https://dev.twitter.com/docs/tfw" rel="nofollow">Twitter for Websites</a>
p301
sg94
(lp302
g3
(g96
g5
Ntp303
Rp304
(dp305
g100
Vhttps://t.co/ByB9MK1im1
p306
sg102
Vhttps://biglotspromos.com/christmascrazy/?source=twitter_share&id=5328
p307
sbasg65
I543965543959523328
sbag3
(g4
g5
Ntp308
Rp309
(dp310
g9
I0
sg10
Nsg11
Nsg12
(lp311
sg14
I00
sg15
Nsg16
Nsg17
(lp312
sg19
Nsg20
Nsg21
Nsg22
VSun Dec 14 02:33:49 +0000 2014
p313
sg24
Nsg25
I00
sg26
Nsg27
Nsg28
Nsg29
Nsg30
I00
sg31
Nsg32
(lp314
sg67
Nsg68
V543956999872847872
p315
sg70
Nsg71
VHelp me win this awesome hot tub from Bullfrog Spas! https://t.co/mEYsdYD3rV
p316
sg73
I00
sg74
Ven
p317
sg76
g3
(g34
g5
Ntp318
Rp319
(dp320
g10
g80
sg38
V333333
p321
sg39
Ven
p322
sg40
Nsg41
I77
sg42
I1196
sg22
VTue Mar 16 18:44:50 +0000 2010
p323
sg43
I00
sg44
g80
sg45
Vhttps://abs.twimg.com/sticky/default_profile_images/default_profile_3_normal.png
p324
sg46
I958
sg47
I60
sg48
Nsg49
Nsg50
I00
sg51
Nsg52
I00
sg53
I00
sg54
V0084B4
p325
sg55
I00
sg56
I00
sg57
Vhttp://abs.twimg.com/images/themes/theme1/bg.png
p326
sg58
Vmama3curlies
p327
sg60
I0
sg61
Vmay lynn mahler
p328
sg63
VDDEEF6
p329
sg64
Nsg65
I123634696
sg66
VC0DEED
p330
sbsg91
I0
sg92
V<a href="https://dev.twitter.com/docs/tfw" rel="nofollow">Twitter for Websites</a>
p331
sg94
(lp332
g3
(g96
g5
Ntp333
Rp334
(dp335
g100
Vhttps://t.co/mEYsdYD3rV
p336
sg102
Vhttps://gleam.io/W2Uw1-la3R0X
p337
sbasg65
I543956999872847872
sbag3
(g4
g5
Ntp338
Rp339
(dp340
g9
I0
sg10
Nsg11
Nsg12
(lp341
g3
(g233
g5
Ntp342
Rp343
(dp344
g237
V12daysofbenefit
p345
sbasg14
I00
sg15
g3
(g4
g5
Ntp346
Rp347
(dp348
g9
I184
sg10
Nsg11
Nsg12
(lp349
g3
(g233
g5
Ntp350
Rp351
(dp352
g237
V12daysofbenefit
p353
sbasg14
I00
sg15
Nsg16
Nsg17
(lp354
sg19
Nsg20
Nsg21
Nsg22
VSat Dec 13 14:02:42 +0000 2014
p355
sg24
Nsg25
I00
sg26
Nsg27
Nsg28
Nsg29
Nsg30
I00
sg31
Nsg32
(lp356
g3
(g34
g5
Ntp357
Rp358
(dp359
g10
Nsg38
Nsg39
Nsg40
Nsg41
Nsg42
Nsg22
Nsg43
Nsg44
Nsg45
Nsg46
Nsg47
Nsg48
Nsg49
Nsg50
Nsg51
Nsg52
Nsg53
Nsg54
Nsg55
Nsg56
Nsg57
Nsg58
VBenefitBeauty
p360
sg60
Nsg61
VBenefit Cosmetics
p361
sg63
Nsg64
Nsg65
I18220767
sg66
Nsbag3
(g34
g5
Ntp362
Rp363
(dp364
g10
Nsg38
Nsg39
Nsg40
Nsg41
Nsg42
Nsg22
Nsg43
Nsg44
Nsg45
Nsg46
Nsg47
Nsg48
Nsg49
Nsg50
Nsg51
Nsg52
Nsg53
Nsg54
Nsg55
Nsg56
Nsg57
Nsg58
VAthleta
p365
sg60
Nsg61
VAthleta
p366
sg63
Nsg64
Nsg65
I18462632
sg66
Nsbasg67
Nsg68
V543767974981931008
p367
sg70
Nsg71
VRT &amp; follow @BenefitBeauty &amp; @Athleta for a chance to win a $500 gym-fabulous prize pack! #12daysofbenefit http://t.co/3W0EzAC8Og
p368
sg73
I00
sg74
Ven
p369
sg76
g3
(g34
g5
Ntp370
Rp371
(dp372
g10
VSan Francisco, CA
p373
sg38
V74A39A
p374
sg39
Ven
p375
sg40
VPacific Time (US & Canada)
p376
sg41
I431551
sg42
I29164
sg22
VThu Dec 18 18:14:32 +0000 2008
p377
sg43
I01
sg44
VThe official twitter of Benefit Cosmetics. Laughter is the best cosmetic!
p378
sg45
Vhttps://pbs.twimg.com/profile_images/2219271581/profile_normal.jpg
p379
sg46
I2131
sg47
I27334
sg48
I-28800
sg49
Nsg50
I00
sg51
Vhttps://pbs.twimg.com/profile_banners/18220767/1401401087
p380
sg52
I00
sg53
I00
sg54
VF16B95
p381
sg55
I01
sg56
I00
sg57
Vhttp://pbs.twimg.com/profile_background_images/378800000001354083/0386982dda99fecbd7407b7b0e82a62b.jpeg
p382
sg58
VBenefitBeauty
p383
sg60
I2657
sg61
VBenefit Cosmetics
p384
sg63
VF5F5F5
p385
sg64
Vhttp://t.co/FKn6v7mXzI
p386
sg65
I18220767
sg66
VFFFFFF
p387
sbsg91
I831
sg92
V<a href="http://www.offerpop.com" rel="nofollow">Offerpop Apps</a>
p388
sg94
(lp389
g3
(g96
g5
Ntp390
Rp391
(dp392
g100
Vhttp://t.co/3W0EzAC8Og
p393
sg102
Vhttp://bit.ly/1vOv31b
p394
sbasg65
I543767974981931008
sbsg16
Nsg17
(lp395
sg19
Nsg20
Nsg21
Nsg22
VSat Dec 13 23:18:50 +0000 2014
p396
sg24
Nsg25
I00
sg26
Nsg27
Nsg28
Nsg29
Nsg30
I00
sg31
Nsg32
(lp397
g3
(g34
g5
Ntp398
Rp399
(dp400
g10
Nsg38
Nsg39
Nsg40
Nsg41
Nsg42
Nsg22
Nsg43
Nsg44
Nsg45
Nsg46
Nsg47
Nsg48
Nsg49
Nsg50
Nsg51
Nsg52
Nsg53
Nsg54
Nsg55
Nsg56
Nsg57
Nsg58
VBenefitBeauty
p401
sg60
Nsg61
VBenefit Cosmetics
p402
sg63
Nsg64
Nsg65
I18220767
sg66
Nsbag3
(g34
g5
Ntp403
Rp404
(dp405
g10
Nsg38
Nsg39
Nsg40
Nsg41
Nsg42
Nsg22
Nsg43
Nsg44
Nsg45
Nsg46
Nsg47
Nsg48
Nsg49
Nsg50
Nsg51
Nsg52
Nsg53
Nsg54
Nsg55
Nsg56
Nsg57
Nsg58
VBenefitBeauty
p406
sg60
Nsg61
VBenefit Cosmetics
p407
sg63
Nsg64
Nsg65
I18220767
sg66
Nsbag3
(g34
g5
Ntp408
Rp409
(dp410
g10
Nsg38
Nsg39
Nsg40
Nsg41
Nsg42
Nsg22
Nsg43
Nsg44
Nsg45
Nsg46
Nsg47
Nsg48
Nsg49
Nsg50
Nsg51
Nsg52
Nsg53
Nsg54
Nsg55
Nsg56
Nsg57
Nsg58
VAthleta
p411
sg60
Nsg61
VAthleta
p412
sg63
Nsg64
Nsg65
I18462632
sg66
Nsbasg67
Nsg68
V543907931154948096
p413
sg70
Nsg71
VRT @BenefitBeauty: RT &amp; follow @BenefitBeauty &amp; @Athleta for a chance to win a $500 gym-fabulous prize pack! #12daysofbenefit http://t.co/3\u2026
p414
sg73
I00
sg74
Ven
p415
sg76
g3
(g34
g5
Ntp416
Rp417
(dp418
g10
g80
sg38
V333333
p419
sg39
Ven
p420
sg40
Nsg41
I77
sg42
I1196
sg22
VTue Mar 16 18:44:50 +0000 2010
p421
sg43
I00
sg44
g80
sg45
Vhttps://abs.twimg.com/sticky/default_profile_images/default_profile_3_normal.png
p422
sg46
I958
sg47
I60
sg48
Nsg49
Nsg50
I00
sg51
Nsg52
I00
sg53
I00
sg54
V0084B4
p423
sg55
I00
sg56
I00
sg57
Vhttp://abs.twimg.com/images/themes/theme1/bg.png
p424
sg58
Vmama3curlies
p425
sg60
I0
sg61
Vmay lynn mahler
p426
sg63
VDDEEF6
p427
sg64
Nsg65
I123634696
sg66
VC0DEED
p428
sbsg91
I831
sg92
V<a href="http://twitter.com" rel="nofollow">Twitter Web Client</a>
p429
sg94
(lp430
g3
(g96
g5
Ntp431
Rp432
(dp433
g100
Vhttp://t.co/3W0EzAC8Og
p434
sg102
Vhttp://bit.ly/1vOv31b
p435
sbasg65
I543907931154948096
sbag3
(g4
g5
Ntp436
Rp437
(dp438
g9
I0
sg10
Nsg11
Nsg12
(lp439
sg14
I00
sg15
Nsg16
Nsg17
(lp440
sg19
Nsg20
Nsg21
Nsg22
VSat Dec 13 23:15:37 +0000 2014
p441
sg24
Nsg25
I00
sg26
Nsg27
Nsg28
Nsg29
Nsg30
I00
sg31
Nsg32
(lp442
sg67
Nsg68
V543907119037022210
p443
sg70
Nsg71
VEnter Joico's 12 Days of Holy Jolly Giveaways! http://t.co/Fxl2T2UdvD
p444
sg73
I00
sg74
Ven
p445
sg76
g3
(g34
g5
Ntp446
Rp447
(dp448
g10
g80
sg38
V333333
p449
sg39
Ven
p450
sg40
Nsg41
I77
sg42
I1196
sg22
VTue Mar 16 18:44:50 +0000 2010
p451
sg43
I00
sg44
g80
sg45
Vhttps://abs.twimg.com/sticky/default_profile_images/default_profile_3_normal.png
p452
sg46
I958
sg47
I60
sg48
Nsg49
Nsg50
I00
sg51
Nsg52
I00
sg53
I00
sg54
V0084B4
p453
sg55
I00
sg56
I00
sg57
Vhttp://abs.twimg.com/images/themes/theme1/bg.png
p454
sg58
Vmama3curlies
p455
sg60
I0
sg61
Vmay lynn mahler
p456
sg63
VDDEEF6
p457
sg64
Nsg65
I123634696
sg66
VC0DEED
p458
sbsg91
I0
sg92
V<a href="https://dev.twitter.com/docs/tfw" rel="nofollow">Twitter for Websites</a>
p459
sg94
(lp460
g3
(g96
g5
Ntp461
Rp462
(dp463
g100
Vhttp://t.co/Fxl2T2UdvD
p464
sg102
Vhttp://joico.pgtb.me/v8qP9n/gQbfM?w=30134117&e=79076210
p465
sbasg65
I543907119037022210
sbag3
(g4
g5
Ntp466
Rp467
(dp468
g9
I0
sg10
Nsg11
Nsg12
(lp469
sg14
I00
sg15
Nsg16
Nsg17
(lp470
sg19
Nsg20
Nsg21
Nsg22
VSat Dec 13 23:08:11 +0000 2014
p471
sg24
Nsg25
I00
sg26
Nsg27
Nsg28
Nsg29
Nsg30
I00
sg31
Nsg32
(lp472
sg67
Nsg68
V543905250478784513
p473
sg70
Nsg71
VWinalimited-edition Hammitt Ahandmade,special-editionbag,reflectingthe craftsmanship&amp;timeless stylingofStearns&amp;Foster http://t.co/fjnuH3mdtz
p474
sg73
I00
sg74
Ven
p475
sg76
g3
(g34
g5
Ntp476
Rp477
(dp478
g10
g80
sg38
V333333
p479
sg39
Ven
p480
sg40
Nsg41
I77
sg42
I1196
sg22
VTue Mar 16 18:44:50 +0000 2010
p481
sg43
I00
sg44
g80
sg45
Vhttps://abs.twimg.com/sticky/default_profile_images/default_profile_3_normal.png
p482
sg46
I958
sg47
I60
sg48
Nsg49
Nsg50
I00
sg51
Nsg52
I00
sg53
I00
sg54
V0084B4
p483
sg55
I00
sg56
I00
sg57
Vhttp://abs.twimg.com/images/themes/theme1/bg.png
p484
sg58
Vmama3curlies
p485
sg60
I0
sg61
Vmay lynn mahler
p486
sg63
VDDEEF6
p487
sg64
Nsg65
I123634696
sg66
VC0DEED
p488
sbsg91
I0
sg92
V<a href="https://dev.twitter.com/docs/tfw" rel="nofollow">Twitter for Websites</a>
p489
sg94
(lp490
g3
(g96
g5
Ntp491
Rp492
(dp493
g100
Vhttp://t.co/fjnuH3mdtz
p494
sg102
Vhttp://woobox.com/yskqsw/cl78a5
p495
sbasg65
I543905250478784513
sbag3
(g4
g5
Ntp496
Rp497
(dp498
g9
I0
sg10
Nsg11
Nsg12
(lp499
g3
(g233
g5
Ntp500
Rp501
(dp502
g237
VKayHolidayPromo
p503
sbasg14
I00
sg15
Nsg16
Nsg17
(lp504
sg19
Nsg20
Nsg21
Nsg22
VSat Dec 13 23:00:23 +0000 2014
p505
sg24
Nsg25
I00
sg26
Nsg27
Nsg28
Nsg29
Nsg30
I00
sg31
Nsg32
(lp506
g3
(g34
g5
Ntp507
Rp508
(dp509
g10
Nsg38
Nsg39
Nsg40
Nsg41
Nsg42
Nsg22
Nsg43
Nsg44
Nsg45
Nsg46
Nsg47
Nsg48
Nsg49
Nsg50
Nsg51
Nsg52
Nsg53
Nsg54
Nsg55
Nsg56
Nsg57
Nsg58
VKayJewelers
p510
sg60
Nsg61
VKay Jewelers
p511
sg63
Nsg64
Nsg65
I482425439
sg66
Nsbasg67
Nsg68
V543903288119156736
p512
sg70
Nsg71
VI just entered to win this from @KayJewelers! No pur nec. Ends 12/14. 18+. #KayHolidayPromo http://t.co/BzGF5rA5BI
p513
sg73
I00
sg74
Ven
p514
sg76
g3
(g34
g5
Ntp515
Rp516
(dp517
g10
g80
sg38
V333333
p518
sg39
Ven
p519
sg40
Nsg41
I77
sg42
I1196
sg22
VTue Mar 16 18:44:50 +0000 2010
p520
sg43
I00
sg44
g80
sg45
Vhttps://abs.twimg.com/sticky/default_profile_images/default_profile_3_normal.png
p521
sg46
I958
sg47
I60
sg48
Nsg49
Nsg50
I00
sg51
Nsg52
I00
sg53
I00
sg54
V0084B4
p522
sg55
I00
sg56
I00
sg57
Vhttp://abs.twimg.com/images/themes/theme1/bg.png
p523
sg58
Vmama3curlies
p524
sg60
I0
sg61
Vmay lynn mahler
p525
sg63
VDDEEF6
p526
sg64
Nsg65
I123634696
sg66
VC0DEED
p527
sbsg91
I0
sg92
V<a href="https://dev.twitter.com/docs/tfw" rel="nofollow">Twitter for Websites</a>
p528
sg94
(lp529
g3
(g96
g5
Ntp530
Rp531
(dp532
g100
Vhttp://t.co/BzGF5rA5BI
p533
sg102
Vhttp://bit.ly/15Scd14
p534
sbasg65
I543903288119156736
sbag3
(g4
g5
Ntp535
Rp536
(dp537
g9
I0
sg10
Nsg11
Nsg12
(lp538
sg14
I00
sg15
Nsg16
Nsg17
(lp539
sg19
Nsg20
Nsg21
Nsg22
VSat Dec 13 22:55:41 +0000 2014
p540
sg24
Nsg25
I00
sg26
Nsg27
Nsg28
Nsg29
Nsg30
I00
sg31
Nsg32
(lp541
sg67
Nsg68
V543902106210410498
p542
sg70
Nsg71
Vhttp://t.co/wtGZLZRhWl is giving away a LG 50 " LED HDTV! http://t.co/8wutibfmkX
p543
sg73
I00
sg74
Ven
p544
sg76
g3
(g34
g5
Ntp545
Rp546
(dp547
g10
g80
sg38
V333333
p548
sg39
Ven
p549
sg40
Nsg41
I77
sg42
I1196
sg22
VTue Mar 16 18:44:50 +0000 2010
p550
sg43
I00
sg44
g80
sg45
Vhttps://abs.twimg.com/sticky/default_profile_images/default_profile_3_normal.png
p551
sg46
I958
sg47
I60
sg48
Nsg49
Nsg50
I00
sg51
Nsg52
I00
sg53
I00
sg54
V0084B4
p552
sg55
I00
sg56
I00
sg57
Vhttp://abs.twimg.com/images/themes/theme1/bg.png
p553
sg58
Vmama3curlies
p554
sg60
I0
sg61
Vmay lynn mahler
p555
sg63
VDDEEF6
p556
sg64
Nsg65
I123634696
sg66
VC0DEED
p557
sbsg91
I0
sg92
V<a href="https://dev.twitter.com/docs/tfw" rel="nofollow">Twitter for Websites</a>
p558
sg94
(lp559
g3
(g96
g5
Ntp560
Rp561
(dp562
g100
Vhttp://t.co/wtGZLZRhWl
p563
sg102
Vhttp://BeachCamera.com
p564
sbag3
(g96
g5
Ntp565
Rp566
(dp567
g100
Vhttp://t.co/8wutibfmkX
p568
sg102
Vhttp://woobox.com/9emsot/c8m1e8
p569
sbasg65
I543902106210410498
sbag3
(g4
g5
Ntp570
Rp571
(dp572
g9
I0
sg10
Nsg11
Nsg12
(lp573
g3
(g233
g5
Ntp574
Rp575
(dp576
g237
Vsomemoney
p577
sbag3
(g233
g5
Ntp578
Rp579
(dp580
g237
VSpon
p581
sbasg14
I00
sg15
Nsg16
Nsg17
(lp582
sg19
Nsg20
Nsg21
Nsg22
VSat Dec 13 22:24:45 +0000 2014
p583
sg24
Nsg25
I00
sg26
Nsg27
Nsg28
Nsg29
Nsg30
I00
sg31
Nsg32
(lp584
g3
(g34
g5
Ntp585
Rp586
(dp587
g10
Nsg38
Nsg39
Nsg40
Nsg41
Nsg42
Nsg22
Nsg43
Nsg44
Nsg45
Nsg46
Nsg47
Nsg48
Nsg49
Nsg50
Nsg51
Nsg52
Nsg53
Nsg54
Nsg55
Nsg56
Nsg57
Nsg58
VRetailMeNot
p588
sg60
Nsg61
VRetailMeNot.com
p589
sg63
Nsg64
Nsg65
I14655879
sg66
Nsbasg67
Nsg68
V543894318465818624
p590
sg70
Nsg71
VWin #somemoney from @RetailMeNot\u2014$250,000 total, $10,000 grand prizes &amp; over 5,000 winners! Enter here. #Spon http://t.co/4oKlptiZ1d
p591
sg73
I00
sg74
Ven
p592
sg76
g3
(g34
g5
Ntp593
Rp594
(dp595
g10
g80
sg38
V333333
p596
sg39
Ven
p597
sg40
Nsg41
I77
sg42
I1196
sg22
VTue Mar 16 18:44:50 +0000 2010
p598
sg43
I00
sg44
g80
sg45
Vhttps://abs.twimg.com/sticky/default_profile_images/default_profile_3_normal.png
p599
sg46
I958
sg47
I60
sg48
Nsg49
Nsg50
I00
sg51
Nsg52
I00
sg53
I00
sg54
V0084B4
p600
sg55
I00
sg56
I00
sg57
Vhttp://abs.twimg.com/images/themes/theme1/bg.png
p601
sg58
Vmama3curlies
p602
sg60
I0
sg61
Vmay lynn mahler
p603
sg63
VDDEEF6
p604
sg64
Nsg65
I123634696
sg66
VC0DEED
p605
sbsg91
I0
sg92
V<a href="https://dev.twitter.com/docs/tfw" rel="nofollow">Twitter for Websites</a>
p606
sg94
(lp607
g3
(g96
g5
Ntp608
Rp609
(dp610
g100
Vhttp://t.co/4oKlptiZ1d
p611
sg102
Vhttp://bit.ly/1ylnyPC
p612
sbasg65
I543894318465818624
sbag3
(g4
g5
Ntp613
Rp614
(dp615
g9
I0
sg10
Nsg11
Nsg12
(lp616
sg14
I00
sg15
Nsg16
Nsg17
(lp617
sg19
Nsg20
Nsg21
Nsg22
VSat Dec 13 22:01:54 +0000 2014
p618
sg24
Nsg25
I00
sg26
Nsg27
Nsg28
Nsg29
Nsg30
I00
sg31
Nsg32
(lp619
sg67
Nsg68
V543888569010384896
p620
sg70
Nsg71
VWIN a Dior Travel Brush Set and Golden Shock Lipstick https://t.co/lq4tkQt9w3
p621
sg73
I00
sg74
Ven
p622
sg76
g3
(g34
g5
Ntp623
Rp624
(dp625
g10
g80
sg38
V333333
p626
sg39
Ven
p627
sg40
Nsg41
I77
sg42
I1196
sg22
VTue Mar 16 18:44:50 +0000 2010
p628
sg43
I00
sg44
g80
sg45
Vhttps://abs.twimg.com/sticky/default_profile_images/default_profile_3_normal.png
p629
sg46
I958
sg47
I60
sg48
Nsg49
Nsg50
I00
sg51
Nsg52
I00
sg53
I00
sg54
V0084B4
p630
sg55
I00
sg56
I00
sg57
Vhttp://abs.twimg.com/images/themes/theme1/bg.png
p631
sg58
Vmama3curlies
p632
sg60
I0
sg61
Vmay lynn mahler
p633
sg63
VDDEEF6
p634
sg64
Nsg65
I123634696
sg66
VC0DEED
p635
sbsg91
I0
sg92
V<a href="https://dev.twitter.com/docs/tfw" rel="nofollow">Twitter for Websites</a>
p636
sg94
(lp637
g3
(g96
g5
Ntp638
Rp639
(dp640
g100
Vhttps://t.co/lq4tkQt9w3
p641
sg102
Vhttps://gleam.io/qbzc5-la3R0X
p642
sbasg65
I543888569010384896
sbag3
(g4
g5
Ntp643
Rp644
(dp645
g9
I0
sg10
Nsg11
Nsg12
(lp646
g3
(g233
g5
Ntp647
Rp648
(dp649
g237
VFREE
p650
sbasg14
I00
sg15
Nsg16
Nsg17
(lp651
sg19
Nsg20
Nsg21
Nsg22
VSat Dec 13 21:50:56 +0000 2014
p652
sg24
Nsg25
I00
sg26
Nsg27
Nsg28
Nsg29
Nsg30
I00
sg31
Nsg32
(lp653
g3
(g34
g5
Ntp654
Rp655
(dp656
g10
Nsg38
Nsg39
Nsg40
Nsg41
Nsg42
Nsg22
Nsg43
Nsg44
Nsg45
Nsg46
Nsg47
Nsg48
Nsg49
Nsg50
Nsg51
Nsg52
Nsg53
Nsg54
Nsg55
Nsg56
Nsg57
Nsg58
VNonnisBiscotti
p657
sg60
Nsg61
VNonnis Biscotti
p658
sg63
Nsg64
Nsg65
I78663561
sg66
Nsbasg67
Nsg68
V543885807820349441
p659
sg70
Nsg71
VShare why you think this is the most wonderful time of the year and enter to win a #FREE box of @NonnisBiscotti! http://t.co/ir32Zh72R6
p660
sg73
I00
sg74
Ven
p661
sg76
g3
(g34
g5
Ntp662
Rp663
(dp664
g10
g80
sg38
V333333
p665
sg39
Ven
p666
sg40
Nsg41
I77
sg42
I1196
sg22
VTue Mar 16 18:44:50 +0000 2010
p667
sg43
I00
sg44
g80
sg45
Vhttps://abs.twimg.com/sticky/default_profile_images/default_profile_3_normal.png
p668
sg46
I958
sg47
I60
sg48
Nsg49
Nsg50
I00
sg51
Nsg52
I00
sg53
I00
sg54
V0084B4
p669
sg55
I00
sg56
I00
sg57
Vhttp://abs.twimg.com/images/themes/theme1/bg.png
p670
sg58
Vmama3curlies
p671
sg60
I0
sg61
Vmay lynn mahler
p672
sg63
VDDEEF6
p673
sg64
Nsg65
I123634696
sg66
VC0DEED
p674
sbsg91
I0
sg92
V<a href="https://dev.twitter.com/docs/tfw" rel="nofollow">Twitter for Websites</a>
p675
sg94
(lp676
g3
(g96
g5
Ntp677
Rp678
(dp679
g100
Vhttp://t.co/ir32Zh72R6
p680
sg102
Vhttp://woobox.com/kcm285/ckrnyd
p681
sbasg65
I543885807820349441
sbag3
(g4
g5
Ntp682
Rp683
(dp684
g9
I0
sg10
Nsg11
Nsg12
(lp685
g3
(g233
g5
Ntp686
Rp687
(dp688
g237
VRogersCoffeeGifts
p689
sbasg14
I00
sg15
Nsg16
Nsg17
(lp690
sg19
Nsg20
Nsg21
Nsg22
VSat Dec 13 21:50:00 +0000 2014
p691
sg24
Nsg25
I00
sg26
Nsg27
Nsg28
Nsg29
Nsg30
I00
sg31
Nsg32
(lp692
g3
(g34
g5
Ntp693
Rp694
(dp695
g10
Nsg38
Nsg39
Nsg40
Nsg41
Nsg42
Nsg22
Nsg43
Nsg44
Nsg45
Nsg46
Nsg47
Nsg48
Nsg49
Nsg50
Nsg51
Nsg52
Nsg53
Nsg54
Nsg55
Nsg56
Nsg57
Nsg58
Vrogerscoffee
p696
sg60
Nsg61
VRogers Family Coffee
p697
sg63
Nsg64
Nsg65
I64466020
sg66
Nsbasg67
Nsg68
V543885576449978368
p698
sg70
Nsg71
VI entered the 20 Days of Christmas giveaway from @RogersCoffee. Check it out New winner every day. #RogersCoffeeGifts http://t.co/vnAatVIocM
p699
sg73
I00
sg74
Ven
p700
sg76
g3
(g34
g5
Ntp701
Rp702
(dp703
g10
g80
sg38
V333333
p704
sg39
Ven
p705
sg40
Nsg41
I77
sg42
I1196
sg22
VTue Mar 16 18:44:50 +0000 2010
p706
sg43
I00
sg44
g80
sg45
Vhttps://abs.twimg.com/sticky/default_profile_images/default_profile_3_normal.png
p707
sg46
I958
sg47
I60
sg48
Nsg49
Nsg50
I00
sg51
Nsg52
I00
sg53
I00
sg54
V0084B4
p708
sg55
I00
sg56
I00
sg57
Vhttp://abs.twimg.com/images/themes/theme1/bg.png
p709
sg58
Vmama3curlies
p710
sg60
I0
sg61
Vmay lynn mahler
p711
sg63
VDDEEF6
p712
sg64
Nsg65
I123634696
sg66
VC0DEED
p713
sbsg91
I0
sg92
V<a href="https://dev.twitter.com/docs/tfw" rel="nofollow">Twitter for Websites</a>
p714
sg94
(lp715
g3
(g96
g5
Ntp716
Rp717
(dp718
g100
Vhttp://t.co/vnAatVIocM
p719
sg102
Vhttp://woobox.com/9fmndh/cl5r4z
p720
sbasg65
I543885576449978368
sbag3
(g4
g5
Ntp721
Rp722
(dp723
g9
I0
sg10
Nsg11
Nsg12
(lp724
g3
(g233
g5
Ntp725
Rp726
(dp727
g237
VPopUpSantaSweepsEntry
p728
sbasg14
I00
sg15
Nsg16
Nsg17
(lp729
sg19
Nsg20
Nsg21
Nsg22
VSat Dec 13 21:32:33 +0000 2014
p730
sg24
Nsg25
I00
sg26
Nsg27
Nsg28
Nsg29
Nsg30
I00
sg31
Nsg32
(lp731
g3
(g34
g5
Ntp732
Rp733
(dp734
g10
Nsg38
Nsg39
Nsg40
Nsg41
Nsg42
Nsg22
Nsg43
Nsg44
Nsg45
Nsg46
Nsg47
Nsg48
Nsg49
Nsg50
Nsg51
Nsg52
Nsg53
Nsg54
Nsg55
Nsg56
Nsg57
Nsg58
VABCF25days
p735
sg60
Nsg61
V25 Days of Christmas
p736
sg63
Nsg64
Nsg65
I91432615
sg66
Nsbasg67
Nsg68
V543881181662433280
p737
sg70
Nsg71
VI just entered @ABCF25Days Pop Up Santa Sweepstakes! #PopUpSantaSweepsEntry http://t.co/vWvNEKORkE
p738
sg73
I00
sg74
Ven
p739
sg76
g3
(g34
g5
Ntp740
Rp741
(dp742
g10
g80
sg38
V333333
p743
sg39
Ven
p744
sg40
Nsg41
I77
sg42
I1196
sg22
VTue Mar 16 18:44:50 +0000 2010
p745
sg43
I00
sg44
g80
sg45
Vhttps://abs.twimg.com/sticky/default_profile_images/default_profile_3_normal.png
p746
sg46
I958
sg47
I60
sg48
Nsg49
Nsg50
I00
sg51
Nsg52
I00
sg53
I00
sg54
V0084B4
p747
sg55
I00
sg56
I00
sg57
Vhttp://abs.twimg.com/images/themes/theme1/bg.png
p748
sg58
Vmama3curlies
p749
sg60
I0
sg61
Vmay lynn mahler
p750
sg63
VDDEEF6
p751
sg64
Nsg65
I123634696
sg66
VC0DEED
p752
sbsg91
I0
sg92
V<a href="https://dev.twitter.com/docs/tfw" rel="nofollow">Twitter for Websites</a>
p753
sg94
(lp754
g3
(g96
g5
Ntp755
Rp756
(dp757
g100
Vhttp://t.co/vWvNEKORkE
p758
sg102
Vhttp://www.popupsanta.tv/day/13/sweepstakes
p759
sbasg65
I543881181662433280
sbag3
(g4
g5
Ntp760
Rp761
(dp762
g9
I0
sg10
Nsg11
Nsg12
(lp763
sg14
I00
sg15
Nsg16
Nsg17
(lp764
sg19
Nsg20
Nsg21
Nsg22
VSat Dec 13 17:01:31 +0000 2014
p765
sg24
Nsg25
I00
sg26
Nsg27
Nsg28
Nsg29
Nsg30
I00
sg31
Nsg32
(lp766
g3
(g34
g5
Ntp767
Rp768
(dp769
g10
Nsg38
Nsg39
Nsg40
Nsg41
Nsg42
Nsg22
Nsg43
Nsg44
Nsg45
Nsg46
Nsg47
Nsg48
Nsg49
Nsg50
Nsg51
Nsg52
Nsg53
Nsg54
Nsg55
Nsg56
Nsg57
Nsg58
Vbethany_house
p770
sg60
Nsg61
VBethany House
p771
sg63
Nsg64
Nsg65
I15291352
sg66
Nsbasg67
Nsg68
V543812973395853312
p772
sg70
Nsg71
VJust got this offer - 2014 Fiction Giveaway http://t.co/VONZqJLATf from @bethany_house
p773
sg73
I00
sg74
Ven
p774
sg76
g3
(g34
g5
Ntp775
Rp776
(dp777
g10
g80
sg38
V333333
p778
sg39
Ven
p779
sg40
Nsg41
I77
sg42
I1196
sg22
VTue Mar 16 18:44:50 +0000 2010
p780
sg43
I00
sg44
g80
sg45
Vhttps://abs.twimg.com/sticky/default_profile_images/default_profile_3_normal.png
p781
sg46
I958
sg47
I60
sg48
Nsg49
Nsg50
I00
sg51
Nsg52
I00
sg53
I00
sg54
V0084B4
p782
sg55
I00
sg56
I00
sg57
Vhttp://abs.twimg.com/images/themes/theme1/bg.png
p783
sg58
Vmama3curlies
p784
sg60
I0
sg61
Vmay lynn mahler
p785
sg63
VDDEEF6
p786
sg64
Nsg65
I123634696
sg66
VC0DEED
p787
sbsg91
I0
sg92
V<a href="https://dev.twitter.com/docs/tfw" rel="nofollow">Twitter for Websites</a>
p788
sg94
(lp789
g3
(g96
g5
Ntp790
Rp791
(dp792
g100
Vhttp://t.co/VONZqJLATf
p793
sg102
Vhttp://woobox.com/iaqkqg
p794
sbasg65
I543812973395853312
sbag3
(g4
g5
Ntp795
Rp796
(dp797
g9
I0
sg10
Nsg11
Nsg12
(lp798
sg14
I00
sg15
Nsg16
Nsg17
(lp799
sg19
Nsg20
Nsg21
Nsg22
VSat Dec 13 16:41:17 +0000 2014
p800
sg24
Nsg25
I00
sg26
Nsg27
Nsg28
Nsg29
Nsg30
I00
sg31
Nsg32
(lp801
sg67
Nsg68
V543807883394048000
p802
sg70
Nsg71
VContigo's 12 Days of Giveaways http://t.co/o6zLuAnHE5
p803
sg73
I00
sg74
Ven
p804
sg76
g3
(g34
g5
Ntp805
Rp806
(dp807
g10
g80
sg38
V333333
p808
sg39
Ven
p809
sg40
Nsg41
I77
sg42
I1196
sg22
VTue Mar 16 18:44:50 +0000 2010
p810
sg43
I00
sg44
g80
sg45
Vhttps://abs.twimg.com/sticky/default_profile_images/default_profile_3_normal.png
p811
sg46
I958
sg47
I60
sg48
Nsg49
Nsg50
I00
sg51
Nsg52
I00
sg53
I00
sg54
V0084B4
p812
sg55
I00
sg56
I00
sg57
Vhttp://abs.twimg.com/images/themes/theme1/bg.png
p813
sg58
Vmama3curlies
p814
sg60
I0
sg61
Vmay lynn mahler
p815
sg63
VDDEEF6
p816
sg64
Nsg65
I123634696
sg66
VC0DEED
p817
sbsg91
I0
sg92
V<a href="https://dev.twitter.com/docs/tfw" rel="nofollow">Twitter for Websites</a>
p818
sg94
(lp819
g3
(g96
g5
Ntp820
Rp821
(dp822
g100
Vhttp://t.co/o6zLuAnHE5
p823
sg102
Vhttp://woobox.com/yzxmsf/cl01qh
p824
sbasg65
I543807883394048000
sbaa.