(lp0
S'ErinsPlexus'
p1
a(lp2
ccopy_reg
_reconstructor
p3
(ctwitter.status
Status
p4
c__builtin__
object
p5
Ntp6
Rp7
(dp8
S'_favorite_count'
p9
I0
sS'_location'
p10
NsS'_withheld_scope'
p11
NsS'hashtags'
p12
(lp13
sS'_truncated'
p14
I00
sS'_retweeted_status'
p15
NsS'_withheld_copyright'
p16
NsS'media'
p17
(lp18
(dp19
Vexpanded_url
p20
Vhttp://twitter.com/ErinsPlexus/status/543788198590423040/photo/1
p21
sVdisplay_url
p22
Vpic.twitter.com/k2pZby5Qsw
p23
sVurl
p24
Vhttp://t.co/k2pZby5Qsw
p25
sVmedia_url_https
p26
Vhttps://pbs.twimg.com/media/B4vsfEBIMAEaOkH.jpg
p27
sVid_str
p28
V543788198426849281
p29
sVsizes
p30
(dp31
Vlarge
p32
(dp33
Vh
p34
I537
sVresize
p35
Vfit
p36
sVw
p37
I1024
ssVsmall
p38
(dp39
Vh
p40
I178
sVresize
p41
Vfit
p42
sVw
p43
I340
ssVmedium
p44
(dp45
Vh
p46
I315
sVresize
p47
Vfit
p48
sVw
p49
I600
ssVthumb
p50
(dp51
Vh
p52
I150
sVresize
p53
Vcrop
p54
sVw
p55
I150
sssVindices
p56
(lp57
I83
aI105
asVtype
p58
Vphoto
p59
sVid
p60
I543788198426849281
sVmedia_url
p61
Vhttp://pbs.twimg.com/media/B4vsfEBIMAEaOkH.jpg
p62
sasS'_place'
p63
NsS'_contributors'
p64
NsS'_current_user_retweet'
p65
NsS'_created_at'
p66
VSat Dec 13 15:23:04 +0000 2014
p67
sS'_scopes'
p68
NsS'_possibly_sensitive'
p69
I00
sS'_in_reply_to_screen_name'
p70
NsS'_coordinates'
p71
NsS'_in_reply_to_user_id'
p72
NsS'_geo'
p73
NsS'_favorited'
p74
I00
sS'_withheld_in_countries'
p75
NsS'user_mentions'
p76
(lp77
sS'_now'
p78
NsS'_id_str'
p79
NsS'_in_reply_to_status_id'
p80
NsS'_text'
p81
VWouldn't you rather have your morning meeting on the beach? http://t.co/WHTac0yD6x http://t.co/k2pZby5Qsw
p82
sS'_retweeted'
p83
I00
sS'lang'
p84
Ven
p85
sS'_user'
p86
g3
(ctwitter.user
User
p87
g5
Ntp88
Rp89
(dp90
g10
VBeaver, Utah
p91
sS'_profile_text_color'
p92
V333333
p93
sS'_lang'
p94
Ven
p95
sS'_time_zone'
p96
NsS'_followers_count'
p97
I21
sS'_statuses_count'
p98
I65
sg66
VTue Feb 25 17:41:23 +0000 2014
p99
sS'_verified'
p100
I00
sS'_description'
p101
V
p102
sS'_profile_image_url'
p103
Vhttps://pbs.twimg.com/profile_images/471774627157381120/fayhBRIh_normal.jpeg
p104
sS'_friends_count'
p105
I50
sS'_favourites_count'
p106
I0
sS'_utc_offset'
p107
NsS'_status'
p108
NsS'_protected'
p109
I00
sS'_profile_banner_url'
p110
Vhttps://pbs.twimg.com/profile_banners/2361437551/1401314452
p111
sS'_notifications'
p112
I00
sS'_profile_background_tile'
p113
I00
sS'_profile_link_color'
p114
V0084B4
p115
sS'_geo_enabled'
p116
I00
sS'_contributors_enabled'
p117
I00
sS'_profile_background_image_url'
p118
Vhttp://abs.twimg.com/images/themes/theme16/bg.gif
p119
sS'_screen_name'
p120
VErinsPlexus
p121
sS'_listed_count'
p122
I1
sS'_name'
p123
VErin Tibbetts Austin
p124
sS'_profile_sidebar_fill_color'
p125
VDDFFCC
p126
sS'_url'
p127
Vhttp://t.co/84YguYrLWL
p128
sS'_id'
p129
I2361437551
sS'_profile_background_color'
p130
V9AE4E8
p131
sbsS'_retweet_count'
p132
I0
sS'_source'
p133
V<a href="http://myplexusbuilder.com/" rel="nofollow">My Plexus Builder</a>
p134
sS'urls'
p135
(lp136
g3
(ctwitter.url
Url
p137
g5
Ntp138
Rp139
(dp140
S'url'
p141
Vhttp://t.co/WHTac0yD6x
p142
sS'expanded_url'
p143
Vhttp://ltl.is/IR3QV
p144
sbasg129
I543788198590423040
sbag3
(g4
g5
Ntp145
Rp146
(dp147
g9
I0
sg10
Nsg11
Nsg12
(lp148
sg14
I00
sg15
Nsg16
Nsg17
(lp149
sg63
Nsg64
Nsg65
Nsg66
VFri Dec 12 14:17:03 +0000 2014
p150
sg68
Nsg69
I00
sg70
Nsg71
Nsg72
Nsg73
Nsg74
I00
sg75
Nsg76
(lp151
sg78
Nsg79
Nsg80
Nsg81
VIf you're looking to lose body fat then changing your diet may not be enough. http://t.co/T67AGP02NM
p152
sg83
I00
sg84
Ven
p153
sg86
g3
(g87
g5
Ntp154
Rp155
(dp156
g10
VBeaver, Utah
p157
sg92
V333333
p158
sg94
Ven
p159
sg96
Nsg97
I21
sg98
I65
sg66
VTue Feb 25 17:41:23 +0000 2014
p160
sg100
I00
sg101
g102
sg103
Vhttps://pbs.twimg.com/profile_images/471774627157381120/fayhBRIh_normal.jpeg
p161
sg105
I50
sg106
I0
sg107
Nsg108
Nsg109
I00
sg110
Vhttps://pbs.twimg.com/profile_banners/2361437551/1401314452
p162
sg112
I00
sg113
I00
sg114
V0084B4
p163
sg116
I00
sg117
I00
sg118
Vhttp://abs.twimg.com/images/themes/theme16/bg.gif
p164
sg120
VErinsPlexus
p165
sg122
I1
sg123
VErin Tibbetts Austin
p166
sg125
VDDFFCC
p167
sg127
Vhttp://t.co/84YguYrLWL
p168
sg129
I2361437551
sg130
V9AE4E8
p169
sbsg132
I0
sg133
V<a href="http://myplexusbuilder.com/" rel="nofollow">My Plexus Builder</a>
p170
sg135
(lp171
g3
(g137
g5
Ntp172
Rp173
(dp174
g141
Vhttp://t.co/T67AGP02NM
p175
sg143
Vhttp://ltl.is/UPG7y
p176
sbasg129
I543409196444946433
sbag3
(g4
g5
Ntp177
Rp178
(dp179
g9
I0
sg10
Nsg11
Nsg12
(lp180
sg14
I00
sg15
Nsg16
Nsg17
(lp181
(dp182
Vexpanded_url
p183
Vhttp://twitter.com/ErinsPlexus/status/543113253078192129/photo/1
p184
sVdisplay_url
p185
Vpic.twitter.com/pPHTcrxWLz
p186
sVurl
p187
Vhttp://t.co/pPHTcrxWLz
p188
sVmedia_url_https
p189
Vhttps://pbs.twimg.com/media/B4mGoETIAAEwC-J.jpg
p190
sVid_str
p191
V543113252981702657
p192
sVsizes
p193
(dp194
Vlarge
p195
(dp196
Vh
p197
I537
sVresize
p198
Vfit
p199
sVw
p200
I1024
ssVsmall
p201
(dp202
Vh
p203
I178
sVresize
p204
Vfit
p205
sVw
p206
I340
ssVmedium
p207
(dp208
Vh
p209
I315
sVresize
p210
Vfit
p211
sVw
p212
I600
ssVthumb
p213
(dp214
Vh
p215
I150
sVresize
p216
Vcrop
p217
sVw
p218
I150
sssVindices
p219
(lp220
I83
aI105
asVtype
p221
Vphoto
p222
sVid
p223
I543113252981702657
sVmedia_url
p224
Vhttp://pbs.twimg.com/media/B4mGoETIAAEwC-J.jpg
p225
sasg63
Nsg64
Nsg65
Nsg66
VThu Dec 11 18:41:04 +0000 2014
p226
sg68
Nsg69
I00
sg70
Nsg71
Nsg72
Nsg73
Nsg74
I00
sg75
Nsg76
(lp227
sg78
Nsg79
Nsg80
Nsg81
VWouldn't you rather have your morning meeting on the beach? http://t.co/WHTac0yD6x http://t.co/pPHTcrxWLz
p228
sg83
I00
sg84
Ven
p229
sg86
g3
(g87
g5
Ntp230
Rp231
(dp232
g10
VBeaver, Utah
p233
sg92
V333333
p234
sg94
Ven
p235
sg96
Nsg97
I21
sg98
I65
sg66
VTue Feb 25 17:41:23 +0000 2014
p236
sg100
I00
sg101
g102
sg103
Vhttps://pbs.twimg.com/profile_images/471774627157381120/fayhBRIh_normal.jpeg
p237
sg105
I50
sg106
I0
sg107
Nsg108
Nsg109
I00
sg110
Vhttps://pbs.twimg.com/profile_banners/2361437551/1401314452
p238
sg112
I00
sg113
I00
sg114
V0084B4
p239
sg116
I00
sg117
I00
sg118
Vhttp://abs.twimg.com/images/themes/theme16/bg.gif
p240
sg120
VErinsPlexus
p241
sg122
I1
sg123
VErin Tibbetts Austin
p242
sg125
VDDFFCC
p243
sg127
Vhttp://t.co/84YguYrLWL
p244
sg129
I2361437551
sg130
V9AE4E8
p245
sbsg132
I0
sg133
V<a href="http://myplexusbuilder.com/" rel="nofollow">My Plexus Builder</a>
p246
sg135
(lp247
g3
(g137
g5
Ntp248
Rp249
(dp250
g141
Vhttp://t.co/WHTac0yD6x
p251
sg143
Vhttp://ltl.is/IR3QV
p252
sbasg129
I543113253078192129
sbag3
(g4
g5
Ntp253
Rp254
(dp255
g9
I0
sg10
Nsg11
Nsg12
(lp256
sg14
I00
sg15
Nsg16
Nsg17
(lp257
(dp258
Vexpanded_url
p259
Vhttp://twitter.com/ErinsPlexus/status/542768481352298496/photo/1
p260
sVdisplay_url
p261
Vpic.twitter.com/FyvlyfgT7Y
p262
sVurl
p263
Vhttp://t.co/FyvlyfgT7Y
p264
sVmedia_url_https
p265
Vhttps://pbs.twimg.com/media/B4hNDtSIUAEeq4y.jpg
p266
sVid_str
p267
V542768481188728833
p268
sVsizes
p269
(dp270
Vlarge
p271
(dp272
Vh
p273
I537
sVresize
p274
Vfit
p275
sVw
p276
I1024
ssVsmall
p277
(dp278
Vh
p279
I178
sVresize
p280
Vfit
p281
sVw
p282
I340
ssVmedium
p283
(dp284
Vh
p285
I315
sVresize
p286
Vfit
p287
sVw
p288
I600
ssVthumb
p289
(dp290
Vh
p291
I150
sVresize
p292
Vcrop
p293
sVw
p294
I150
sssVindices
p295
(lp296
I84
aI106
asVtype
p297
Vphoto
p298
sVid
p299
I542768481188728833
sVmedia_url
p300
Vhttp://pbs.twimg.com/media/B4hNDtSIUAEeq4y.jpg
p301
sasg63
Nsg64
Nsg65
Nsg66
VWed Dec 10 19:51:04 +0000 2014
p302
sg68
Nsg69
I00
sg70
Nsg71
Nsg72
Nsg73
Nsg74
I00
sg75
Nsg76
(lp303
sg78
Nsg79
Nsg80
Nsg81
VClick here to learn how to improve your financial situation! http://t.co/hDV9ubevH5 http://t.co/FyvlyfgT7Y
p304
sg83
I00
sg84
Ven
p305
sg86
g3
(g87
g5
Ntp306
Rp307
(dp308
g10
VBeaver, Utah
p309
sg92
V333333
p310
sg94
Ven
p311
sg96
Nsg97
I21
sg98
I65
sg66
VTue Feb 25 17:41:23 +0000 2014
p312
sg100
I00
sg101
g102
sg103
Vhttps://pbs.twimg.com/profile_images/471774627157381120/fayhBRIh_normal.jpeg
p313
sg105
I50
sg106
I0
sg107
Nsg108
Nsg109
I00
sg110
Vhttps://pbs.twimg.com/profile_banners/2361437551/1401314452
p314
sg112
I00
sg113
I00
sg114
V0084B4
p315
sg116
I00
sg117
I00
sg118
Vhttp://abs.twimg.com/images/themes/theme16/bg.gif
p316
sg120
VErinsPlexus
p317
sg122
I1
sg123
VErin Tibbetts Austin
p318
sg125
VDDFFCC
p319
sg127
Vhttp://t.co/84YguYrLWL
p320
sg129
I2361437551
sg130
V9AE4E8
p321
sbsg132
I0
sg133
V<a href="http://myplexusbuilder.com/" rel="nofollow">My Plexus Builder</a>
p322
sg135
(lp323
g3
(g137
g5
Ntp324
Rp325
(dp326
g141
Vhttp://t.co/hDV9ubevH5
p327
sg143
Vhttp://ltl.is/GgXVM
p328
sbasg129
I542768481352298496
sbag3
(g4
g5
Ntp329
Rp330
(dp331
g9
I0
sg10
Nsg11
Nsg12
(lp332
sg14
I00
sg15
Nsg16
Nsg17
(lp333
sg63
Nsg64
Nsg65
Nsg66
VWed Dec 10 14:16:07 +0000 2014
p334
sg68
Nsg69
I00
sg70
Nsg71
Nsg72
Nsg73
Nsg74
I00
sg75
Nsg76
(lp335
g3
(g87
g5
Ntp336
Rp337
(dp338
g10
Nsg92
Nsg94
Nsg96
Nsg97
Nsg98
Nsg66
Nsg100
Nsg101
Nsg103
Nsg105
Nsg106
Nsg107
Nsg108
Nsg109
Nsg110
Nsg112
Nsg113
Nsg114
Nsg116
Nsg117
Nsg118
Nsg120
Vgofundme
p339
sg122
Nsg123
VGoFundMe
p340
sg125
Nsg127
Nsg129
I112897540
sg130
Nsbasg78
Nsg79
Nsg80
Nsg81
VCheck it out! I donated to Car Fire Fund http://t.co/6iiQGhwa1Q via @gofundme
p341
sg83
I00
sg84
Ven
p342
sg86
g3
(g87
g5
Ntp343
Rp344
(dp345
g10
VBeaver, Utah
p346
sg92
V333333
p347
sg94
Ven
p348
sg96
Nsg97
I21
sg98
I65
sg66
VTue Feb 25 17:41:23 +0000 2014
p349
sg100
I00
sg101
g102
sg103
Vhttps://pbs.twimg.com/profile_images/471774627157381120/fayhBRIh_normal.jpeg
p350
sg105
I50
sg106
I0
sg107
Nsg108
Nsg109
I00
sg110
Vhttps://pbs.twimg.com/profile_banners/2361437551/1401314452
p351
sg112
I00
sg113
I00
sg114
V0084B4
p352
sg116
I00
sg117
I00
sg118
Vhttp://abs.twimg.com/images/themes/theme16/bg.gif
p353
sg120
VErinsPlexus
p354
sg122
I1
sg123
VErin Tibbetts Austin
p355
sg125
VDDFFCC
p356
sg127
Vhttp://t.co/84YguYrLWL
p357
sg129
I2361437551
sg130
V9AE4E8
p358
sbsg132
I0
sg133
V<a href="https://dev.twitter.com/docs/tfw" rel="nofollow">Twitter for Websites</a>
p359
sg135
(lp360
g3
(g137
g5
Ntp361
Rp362
(dp363
g141
Vhttp://t.co/6iiQGhwa1Q
p364
sg143
Vhttp://gofund.me/car_fire_fund
p365
sbasg129
I542684186444697604
sbag3
(g4
g5
Ntp366
Rp367
(dp368
g9
I0
sg10
Nsg11
Nsg12
(lp369
sg14
I00
sg15
Nsg16
Nsg17
(lp370
sg63
Nsg64
Nsg65
Nsg66
VTue Dec 09 21:45:08 +0000 2014
p371
sg68
Nsg69
I00
sg70
Nsg71
Nsg72
Nsg73
Nsg74
I00
sg75
Nsg76
(lp372
sg78
Nsg79
Nsg80
Nsg81
VFor an amazing opportunity just waiting for you click the link. http://t.co/ZFhP7YLYwT
p373
sg83
I00
sg84
Ven
p374
sg86
g3
(g87
g5
Ntp375
Rp376
(dp377
g10
VBeaver, Utah
p378
sg92
V333333
p379
sg94
Ven
p380
sg96
Nsg97
I21
sg98
I65
sg66
VTue Feb 25 17:41:23 +0000 2014
p381
sg100
I00
sg101
g102
sg103
Vhttps://pbs.twimg.com/profile_images/471774627157381120/fayhBRIh_normal.jpeg
p382
sg105
I50
sg106
I0
sg107
Nsg108
Nsg109
I00
sg110
Vhttps://pbs.twimg.com/profile_banners/2361437551/1401314452
p383
sg112
I00
sg113
I00
sg114
V0084B4
p384
sg116
I00
sg117
I00
sg118
Vhttp://abs.twimg.com/images/themes/theme16/bg.gif
p385
sg120
VErinsPlexus
p386
sg122
I1
sg123
VErin Tibbetts Austin
p387
sg125
VDDFFCC
p388
sg127
Vhttp://t.co/84YguYrLWL
p389
sg129
I2361437551
sg130
V9AE4E8
p390
sbsg132
I0
sg133
V<a href="http://myplexusbuilder.com/" rel="nofollow">My Plexus Builder</a>
p391
sg135
(lp392
g3
(g137
g5
Ntp393
Rp394
(dp395
g141
Vhttp://t.co/ZFhP7YLYwT
p396
sg143
Vhttp://ltl.is/4HQMp
p397
sbasg129
I542434797679702017
sbag3
(g4
g5
Ntp398
Rp399
(dp400
g9
I0
sg10
Nsg11
Nsg12
(lp401
sg14
I00
sg15
Nsg16
Nsg17
(lp402
(dp403
Vexpanded_url
p404
Vhttp://twitter.com/ErinsPlexus/status/541944552006111233/photo/1
p405
sVdisplay_url
p406
Vpic.twitter.com/MMekKodxPJ
p407
sVurl
p408
Vhttp://t.co/MMekKodxPJ
p409
sVmedia_url_https
p410
Vhttps://pbs.twimg.com/media/B4VfstlIMAEK_dc.jpg
p411
sVid_str
p412
V541944551922216961
p413
sVsizes
p414
(dp415
Vlarge
p416
(dp417
Vh
p418
I537
sVresize
p419
Vfit
p420
sVw
p421
I1024
ssVsmall
p422
(dp423
Vh
p424
I178
sVresize
p425
Vfit
p426
sVw
p427
I340
ssVmedium
p428
(dp429
Vh
p430
I315
sVresize
p431
Vfit
p432
sVw
p433
I600
ssVthumb
p434
(dp435
Vh
p436
I150
sVresize
p437
Vcrop
p438
sVw
p439
I150
sssVindices
p440
(lp441
I83
aI105
asVtype
p442
Vphoto
p443
sVid
p444
I541944551922216961
sVmedia_url
p445
Vhttp://pbs.twimg.com/media/B4VfstlIMAEK_dc.jpg
p446
sasg63
Nsg64
Nsg65
Nsg66
VMon Dec 08 13:17:04 +0000 2014
p447
sg68
Nsg69
I00
sg70
Nsg71
Nsg72
Nsg73
Nsg74
I00
sg75
Nsg76
(lp448
sg78
Nsg79
Nsg80
Nsg81
VWouldn't you rather have your morning meeting on the beach? http://t.co/WHTac0yD6x http://t.co/MMekKodxPJ
p449
sg83
I00
sg84
Ven
p450
sg86
g3
(g87
g5
Ntp451
Rp452
(dp453
g10
VBeaver, Utah
p454
sg92
V333333
p455
sg94
Ven
p456
sg96
Nsg97
I21
sg98
I65
sg66
VTue Feb 25 17:41:23 +0000 2014
p457
sg100
I00
sg101
g102
sg103
Vhttps://pbs.twimg.com/profile_images/471774627157381120/fayhBRIh_normal.jpeg
p458
sg105
I50
sg106
I0
sg107
Nsg108
Nsg109
I00
sg110
Vhttps://pbs.twimg.com/profile_banners/2361437551/1401314452
p459
sg112
I00
sg113
I00
sg114
V0084B4
p460
sg116
I00
sg117
I00
sg118
Vhttp://abs.twimg.com/images/themes/theme16/bg.gif
p461
sg120
VErinsPlexus
p462
sg122
I1
sg123
VErin Tibbetts Austin
p463
sg125
VDDFFCC
p464
sg127
Vhttp://t.co/84YguYrLWL
p465
sg129
I2361437551
sg130
V9AE4E8
p466
sbsg132
I0
sg133
V<a href="http://myplexusbuilder.com/" rel="nofollow">My Plexus Builder</a>
p467
sg135
(lp468
g3
(g137
g5
Ntp469
Rp470
(dp471
g141
Vhttp://t.co/WHTac0yD6x
p472
sg143
Vhttp://ltl.is/IR3QV
p473
sbasg129
I541944552006111233
sbag3
(g4
g5
Ntp474
Rp475
(dp476
g9
I0
sg10
Nsg11
Nsg12
(lp477
sg14
I00
sg15
Nsg16
Nsg17
(lp478
(dp479
Vexpanded_url
p480
Vhttp://twitter.com/ErinsPlexus/status/541657408867958785/photo/1
p481
sVdisplay_url
p482
Vpic.twitter.com/A8e4uspE8h
p483
sVurl
p484
Vhttp://t.co/A8e4uspE8h
p485
sVmedia_url_https
p486
Vhttps://pbs.twimg.com/media/B4Raix2IMAAVBXT.jpg
p487
sVid_str
p488
V541657408733720576
p489
sVsizes
p490
(dp491
Vlarge
p492
(dp493
Vh
p494
I537
sVresize
p495
Vfit
p496
sVw
p497
I1024
ssVsmall
p498
(dp499
Vh
p500
I178
sVresize
p501
Vfit
p502
sVw
p503
I340
ssVmedium
p504
(dp505
Vh
p506
I315
sVresize
p507
Vfit
p508
sVw
p509
I600
ssVthumb
p510
(dp511
Vh
p512
I150
sVresize
p513
Vcrop
p514
sVw
p515
I150
sssVindices
p516
(lp517
I45
aI67
asVtype
p518
Vphoto
p519
sVid
p520
I541657408733720576
sVmedia_url
p521
Vhttp://pbs.twimg.com/media/B4Raix2IMAAVBXT.jpg
p522
sasg63
Nsg64
Nsg65
Nsg66
VSun Dec 07 18:16:04 +0000 2014
p523
sg68
Nsg69
I00
sg70
Nsg71
Nsg72
Nsg73
Nsg74
I00
sg75
Nsg76
(lp524
sg78
Nsg79
Nsg80
Nsg81
VEnjoy more free time. http://t.co/WHTac0yD6x http://t.co/A8e4uspE8h
p525
sg83
I00
sg84
Ven
p526
sg86
g3
(g87
g5
Ntp527
Rp528
(dp529
g10
VBeaver, Utah
p530
sg92
V333333
p531
sg94
Ven
p532
sg96
Nsg97
I21
sg98
I65
sg66
VTue Feb 25 17:41:23 +0000 2014
p533
sg100
I00
sg101
g102
sg103
Vhttps://pbs.twimg.com/profile_images/471774627157381120/fayhBRIh_normal.jpeg
p534
sg105
I50
sg106
I0
sg107
Nsg108
Nsg109
I00
sg110
Vhttps://pbs.twimg.com/profile_banners/2361437551/1401314452
p535
sg112
I00
sg113
I00
sg114
V0084B4
p536
sg116
I00
sg117
I00
sg118
Vhttp://abs.twimg.com/images/themes/theme16/bg.gif
p537
sg120
VErinsPlexus
p538
sg122
I1
sg123
VErin Tibbetts Austin
p539
sg125
VDDFFCC
p540
sg127
Vhttp://t.co/84YguYrLWL
p541
sg129
I2361437551
sg130
V9AE4E8
p542
sbsg132
I0
sg133
V<a href="http://myplexusbuilder.com/" rel="nofollow">My Plexus Builder</a>
p543
sg135
(lp544
g3
(g137
g5
Ntp545
Rp546
(dp547
g141
Vhttp://t.co/WHTac0yD6x
p548
sg143
Vhttp://ltl.is/IR3QV
p549
sbasg129
I541657408867958785
sbag3
(g4
g5
Ntp550
Rp551
(dp552
g9
I0
sg10
Nsg11
Nsg12
(lp553
sg14
I00
sg15
Nsg16
Nsg17
(lp554
(dp555
Vexpanded_url
p556
Vhttp://twitter.com/ErinsPlexus/status/541375553149100032/photo/1
p557
sVdisplay_url
p558
Vpic.twitter.com/qy0aqMCVPz
p559
sVurl
p560
Vhttp://t.co/qy0aqMCVPz
p561
sVmedia_url_https
p562
Vhttps://pbs.twimg.com/media/B4NaMnwIAAABNaY.jpg
p563
sVid_str
p564
V541375553090355200
p565
sVsizes
p566
(dp567
Vlarge
p568
(dp569
Vh
p570
I537
sVresize
p571
Vfit
p572
sVw
p573
I1024
ssVsmall
p574
(dp575
Vh
p576
I178
sVresize
p577
Vfit
p578
sVw
p579
I340
ssVmedium
p580
(dp581
Vh
p582
I315
sVresize
p583
Vfit
p584
sVw
p585
I600
ssVthumb
p586
(dp587
Vh
p588
I150
sVresize
p589
Vcrop
p590
sVw
p591
I150
sssVindices
p592
(lp593
I72
aI94
asVtype
p594
Vphoto
p595
sVid
p596
I541375553090355200
sVmedia_url
p597
Vhttp://pbs.twimg.com/media/B4NaMnwIAAABNaY.jpg
p598
sasg63
Nsg64
Nsg65
Nsg66
VSat Dec 06 23:36:04 +0000 2014
p599
sg68
Nsg69
I00
sg70
Nsg71
Nsg72
Nsg73
Nsg74
I00
sg75
Nsg76
(lp600
sg78
Nsg79
Nsg80
Nsg81
VClick here to start creating your success story! http://t.co/hDV9ubevH5 http://t.co/qy0aqMCVPz
p601
sg83
I00
sg84
Ven
p602
sg86
g3
(g87
g5
Ntp603
Rp604
(dp605
g10
VBeaver, Utah
p606
sg92
V333333
p607
sg94
Ven
p608
sg96
Nsg97
I21
sg98
I65
sg66
VTue Feb 25 17:41:23 +0000 2014
p609
sg100
I00
sg101
g102
sg103
Vhttps://pbs.twimg.com/profile_images/471774627157381120/fayhBRIh_normal.jpeg
p610
sg105
I50
sg106
I0
sg107
Nsg108
Nsg109
I00
sg110
Vhttps://pbs.twimg.com/profile_banners/2361437551/1401314452
p611
sg112
I00
sg113
I00
sg114
V0084B4
p612
sg116
I00
sg117
I00
sg118
Vhttp://abs.twimg.com/images/themes/theme16/bg.gif
p613
sg120
VErinsPlexus
p614
sg122
I1
sg123
VErin Tibbetts Austin
p615
sg125
VDDFFCC
p616
sg127
Vhttp://t.co/84YguYrLWL
p617
sg129
I2361437551
sg130
V9AE4E8
p618
sbsg132
I0
sg133
V<a href="http://myplexusbuilder.com/" rel="nofollow">My Plexus Builder</a>
p619
sg135
(lp620
g3
(g137
g5
Ntp621
Rp622
(dp623
g141
Vhttp://t.co/hDV9ubevH5
p624
sg143
Vhttp://ltl.is/GgXVM
p625
sbasg129
I541375553149100032
sbag3
(g4
g5
Ntp626
Rp627
(dp628
g9
I0
sg10
Nsg11
Nsg12
(lp629
sg14
I00
sg15
Nsg16
Nsg17
(lp630
sg63
Nsg64
Nsg65
Nsg66
VFri Dec 05 19:39:07 +0000 2014
p631
sg68
Nsg69
I00
sg70
Nsg71
Nsg72
Nsg73
Nsg74
I00
sg75
Nsg76
(lp632
sg78
Nsg79
Nsg80
Nsg81
VDid you know 8 out of 10 Americans over the age of 25 are overweight? http://t.co/hDV9ubevH5
p633
sg83
I00
sg84
Ven
p634
sg86
g3
(g87
g5
Ntp635
Rp636
(dp637
g10
VBeaver, Utah
p638
sg92
V333333
p639
sg94
Ven
p640
sg96
Nsg97
I21
sg98
I65
sg66
VTue Feb 25 17:41:23 +0000 2014
p641
sg100
I00
sg101
g102
sg103
Vhttps://pbs.twimg.com/profile_images/471774627157381120/fayhBRIh_normal.jpeg
p642
sg105
I50
sg106
I0
sg107
Nsg108
Nsg109
I00
sg110
Vhttps://pbs.twimg.com/profile_banners/2361437551/1401314452
p643
sg112
I00
sg113
I00
sg114
V0084B4
p644
sg116
I00
sg117
I00
sg118
Vhttp://abs.twimg.com/images/themes/theme16/bg.gif
p645
sg120
VErinsPlexus
p646
sg122
I1
sg123
VErin Tibbetts Austin
p647
sg125
VDDFFCC
p648
sg127
Vhttp://t.co/84YguYrLWL
p649
sg129
I2361437551
sg130
V9AE4E8
p650
sbsg132
I0
sg133
V<a href="http://myplexusbuilder.com/" rel="nofollow">My Plexus Builder</a>
p651
sg135
(lp652
g3
(g137
g5
Ntp653
Rp654
(dp655
g141
Vhttp://t.co/hDV9ubevH5
p656
sg143
Vhttp://ltl.is/GgXVM
p657
sbasg129
I540953533387120641
sbag3
(g4
g5
Ntp658
Rp659
(dp660
g9
I0
sg10
Nsg11
Nsg12
(lp661
sg14
I00
sg15
Nsg16
Nsg17
(lp662
(dp663
Vexpanded_url
p664
Vhttp://twitter.com/ErinsPlexus/status/540627618148929536/photo/1
p665
sVdisplay_url
p666
Vpic.twitter.com/1S7eIVYIQx
p667
sVurl
p668
Vhttp://t.co/1S7eIVYIQx
p669
sVmedia_url_https
p670
Vhttps://pbs.twimg.com/media/B4Cx9EeIgAEOW2f.jpg
p671
sVid_str
p672
V540627618014724097
p673
sVsizes
p674
(dp675
Vlarge
p676
(dp677
Vh
p678
I537
sVresize
p679
Vfit
p680
sVw
p681
I1024
ssVsmall
p682
(dp683
Vh
p684
I178
sVresize
p685
Vfit
p686
sVw
p687
I340
ssVmedium
p688
(dp689
Vh
p690
I315
sVresize
p691
Vfit
p692
sVw
p693
I600
ssVthumb
p694
(dp695
Vh
p696
I150
sVresize
p697
Vcrop
p698
sVw
p699
I150
sssVindices
p700
(lp701
I83
aI105
asVtype
p702
Vphoto
p703
sVid
p704
I540627618014724097
sVmedia_url
p705
Vhttp://pbs.twimg.com/media/B4Cx9EeIgAEOW2f.jpg
p706
sasg63
Nsg64
Nsg65
Nsg66
VThu Dec 04 22:04:03 +0000 2014
p707
sg68
Nsg69
I00
sg70
Nsg71
Nsg72
Nsg73
Nsg74
I00
sg75
Nsg76
(lp708
sg78
Nsg79
Nsg80
Nsg81
VWouldn't you rather have your morning meeting on the beach? http://t.co/WHTac0yD6x http://t.co/1S7eIVYIQx
p709
sg83
I00
sg84
Ven
p710
sg86
g3
(g87
g5
Ntp711
Rp712
(dp713
g10
VBeaver, Utah
p714
sg92
V333333
p715
sg94
Ven
p716
sg96
Nsg97
I21
sg98
I65
sg66
VTue Feb 25 17:41:23 +0000 2014
p717
sg100
I00
sg101
g102
sg103
Vhttps://pbs.twimg.com/profile_images/471774627157381120/fayhBRIh_normal.jpeg
p718
sg105
I50
sg106
I0
sg107
Nsg108
Nsg109
I00
sg110
Vhttps://pbs.twimg.com/profile_banners/2361437551/1401314452
p719
sg112
I00
sg113
I00
sg114
V0084B4
p720
sg116
I00
sg117
I00
sg118
Vhttp://abs.twimg.com/images/themes/theme16/bg.gif
p721
sg120
VErinsPlexus
p722
sg122
I1
sg123
VErin Tibbetts Austin
p723
sg125
VDDFFCC
p724
sg127
Vhttp://t.co/84YguYrLWL
p725
sg129
I2361437551
sg130
V9AE4E8
p726
sbsg132
I0
sg133
V<a href="http://myplexusbuilder.com/" rel="nofollow">My Plexus Builder</a>
p727
sg135
(lp728
g3
(g137
g5
Ntp729
Rp730
(dp731
g141
Vhttp://t.co/WHTac0yD6x
p732
sg143
Vhttp://ltl.is/IR3QV
p733
sbasg129
I540627618148929536
sbag3
(g4
g5
Ntp734
Rp735
(dp736
g9
I0
sg10
Nsg11
Nsg12
(lp737
sg14
I00
sg15
Nsg16
Nsg17
(lp738
(dp739
Vexpanded_url
p740
Vhttp://twitter.com/ErinsPlexus/status/540284111081181184/photo/1
p741
sVdisplay_url
p742
Vpic.twitter.com/8DtylfJf80
p743
sVurl
p744
Vhttp://t.co/8DtylfJf80
p745
sVmedia_url_https
p746
Vhttps://pbs.twimg.com/media/B395iU3IcAEVq2D.jpg
p747
sVid_str
p748
V540284110930210817
p749
sVsizes
p750
(dp751
Vlarge
p752
(dp753
Vh
p754
I537
sVresize
p755
Vfit
p756
sVw
p757
I1024
ssVsmall
p758
(dp759
Vh
p760
I178
sVresize
p761
Vfit
p762
sVw
p763
I340
ssVmedium
p764
(dp765
Vh
p766
I315
sVresize
p767
Vfit
p768
sVw
p769
I600
ssVthumb
p770
(dp771
Vh
p772
I150
sVresize
p773
Vcrop
p774
sVw
p775
I150
sssVindices
p776
(lp777
I38
aI60
asVtype
p778
Vphoto
p779
sVid
p780
I540284110930210817
sVmedia_url
p781
Vhttp://pbs.twimg.com/media/B395iU3IcAEVq2D.jpg
p782
sasg63
Nsg64
Nsg65
Nsg66
VWed Dec 03 23:19:04 +0000 2014
p783
sg68
Nsg69
I00
sg70
Nsg71
Nsg72
Nsg73
Nsg74
I00
sg75
Nsg76
(lp784
sg78
Nsg79
Nsg80
Nsg81
VOwn your life. http://t.co/WHTac0yD6x http://t.co/8DtylfJf80
p785
sg83
I00
sg84
Ven
p786
sg86
g3
(g87
g5
Ntp787
Rp788
(dp789
g10
VBeaver, Utah
p790
sg92
V333333
p791
sg94
Ven
p792
sg96
Nsg97
I21
sg98
I65
sg66
VTue Feb 25 17:41:23 +0000 2014
p793
sg100
I00
sg101
g102
sg103
Vhttps://pbs.twimg.com/profile_images/471774627157381120/fayhBRIh_normal.jpeg
p794
sg105
I50
sg106
I0
sg107
Nsg108
Nsg109
I00
sg110
Vhttps://pbs.twimg.com/profile_banners/2361437551/1401314452
p795
sg112
I00
sg113
I00
sg114
V0084B4
p796
sg116
I00
sg117
I00
sg118
Vhttp://abs.twimg.com/images/themes/theme16/bg.gif
p797
sg120
VErinsPlexus
p798
sg122
I1
sg123
VErin Tibbetts Austin
p799
sg125
VDDFFCC
p800
sg127
Vhttp://t.co/84YguYrLWL
p801
sg129
I2361437551
sg130
V9AE4E8
p802
sbsg132
I0
sg133
V<a href="http://myplexusbuilder.com/" rel="nofollow">My Plexus Builder</a>
p803
sg135
(lp804
g3
(g137
g5
Ntp805
Rp806
(dp807
g141
Vhttp://t.co/WHTac0yD6x
p808
sg143
Vhttp://ltl.is/IR3QV
p809
sbasg129
I540284111081181184
sbag3
(g4
g5
Ntp810
Rp811
(dp812
g9
I0
sg10
Nsg11
Nsg12
(lp813
sg14
I00
sg15
Nsg16
Nsg17
(lp814
sg63
Nsg64
Nsg65
Nsg66
VTue Dec 02 15:44:03 +0000 2014
p815
sg68
Nsg69
I00
sg70
Nsg71
Nsg72
Nsg73
Nsg74
I00
sg75
Nsg76
(lp816
sg78
Nsg79
Nsg80
Nsg81
V80% of direct sellers say direct selling meets or exceeds their expectations. http://t.co/X8Jq6yqIZh
p817
sg83
I00
sg84
Ven
p818
sg86
g3
(g87
g5
Ntp819
Rp820
(dp821
g10
VBeaver, Utah
p822
sg92
V333333
p823
sg94
Ven
p824
sg96
Nsg97
I21
sg98
I65
sg66
VTue Feb 25 17:41:23 +0000 2014
p825
sg100
I00
sg101
g102
sg103
Vhttps://pbs.twimg.com/profile_images/471774627157381120/fayhBRIh_normal.jpeg
p826
sg105
I50
sg106
I0
sg107
Nsg108
Nsg109
I00
sg110
Vhttps://pbs.twimg.com/profile_banners/2361437551/1401314452
p827
sg112
I00
sg113
I00
sg114
V0084B4
p828
sg116
I00
sg117
I00
sg118
Vhttp://abs.twimg.com/images/themes/theme16/bg.gif
p829
sg120
VErinsPlexus
p830
sg122
I1
sg123
VErin Tibbetts Austin
p831
sg125
VDDFFCC
p832
sg127
Vhttp://t.co/84YguYrLWL
p833
sg129
I2361437551
sg130
V9AE4E8
p834
sbsg132
I0
sg133
V<a href="http://myplexusbuilder.com/" rel="nofollow">My Plexus Builder</a>
p835
sg135
(lp836
g3
(g137
g5
Ntp837
Rp838
(dp839
g141
Vhttp://t.co/X8Jq6yqIZh
p840
sg143
Vhttp://ltl.is/6vAUs
p841
sbasg129
I539807211628036098
sbag3
(g4
g5
Ntp842
Rp843
(dp844
g9
I0
sg10
Nsg11
Nsg12
(lp845
sg14
I00
sg15
Nsg16
Nsg17
(lp846
(dp847
Vexpanded_url
p848
Vhttp://twitter.com/ErinsPlexus/status/539579462137184257/photo/1
p849
sVdisplay_url
p850
Vpic.twitter.com/Dj3gGEEEAn
p851
sVurl
p852
Vhttp://t.co/Dj3gGEEEAn
p853
sVmedia_url_https
p854
Vhttps://pbs.twimg.com/media/B3z4qXVIAAED1Qh.jpg
p855
sVid_str
p856
V539579462078431233
p857
sVsizes
p858
(dp859
Vlarge
p860
(dp861
Vh
p862
I537
sVresize
p863
Vfit
p864
sVw
p865
I1024
ssVsmall
p866
(dp867
Vh
p868
I178
sVresize
p869
Vfit
p870
sVw
p871
I340
ssVmedium
p872
(dp873
Vh
p874
I315
sVresize
p875
Vfit
p876
sVw
p877
I600
ssVthumb
p878
(dp879
Vh
p880
I150
sVresize
p881
Vcrop
p882
sVw
p883
I150
sssVindices
p884
(lp885
I47
aI69
asVtype
p886
Vphoto
p887
sVid
p888
I539579462078431233
sVmedia_url
p889
Vhttp://pbs.twimg.com/media/B3z4qXVIAAED1Qh.jpg
p890
sasg63
Nsg64
Nsg65
Nsg66
VTue Dec 02 00:39:03 +0000 2014
p891
sg68
Nsg69
I00
sg70
Nsg71
Nsg72
Nsg73
Nsg74
I00
sg75
Nsg76
(lp892
sg78
Nsg79
Nsg80
Nsg81
VChange your luck today! http://t.co/hDV9ubevH5 http://t.co/Dj3gGEEEAn
p893
sg83
I00
sg84
Ven
p894
sg86
g3
(g87
g5
Ntp895
Rp896
(dp897
g10
VBeaver, Utah
p898
sg92
V333333
p899
sg94
Ven
p900
sg96
Nsg97
I21
sg98
I65
sg66
VTue Feb 25 17:41:23 +0000 2014
p901
sg100
I00
sg101
g102
sg103
Vhttps://pbs.twimg.com/profile_images/471774627157381120/fayhBRIh_normal.jpeg
p902
sg105
I50
sg106
I0
sg107
Nsg108
Nsg109
I00
sg110
Vhttps://pbs.twimg.com/profile_banners/2361437551/1401314452
p903
sg112
I00
sg113
I00
sg114
V0084B4
p904
sg116
I00
sg117
I00
sg118
Vhttp://abs.twimg.com/images/themes/theme16/bg.gif
p905
sg120
VErinsPlexus
p906
sg122
I1
sg123
VErin Tibbetts Austin
p907
sg125
VDDFFCC
p908
sg127
Vhttp://t.co/84YguYrLWL
p909
sg129
I2361437551
sg130
V9AE4E8
p910
sbsg132
I0
sg133
V<a href="http://myplexusbuilder.com/" rel="nofollow">My Plexus Builder</a>
p911
sg135
(lp912
g3
(g137
g5
Ntp913
Rp914
(dp915
g141
Vhttp://t.co/hDV9ubevH5
p916
sg143
Vhttp://ltl.is/GgXVM
p917
sbasg129
I539579462137184257
sbag3
(g4
g5
Ntp918
Rp919
(dp920
g9
I0
sg10
Nsg11
Nsg12
(lp921
sg14
I00
sg15
Nsg16
Nsg17
(lp922
(dp923
Vexpanded_url
p924
Vhttp://twitter.com/ErinsPlexus/status/539103069955694592/photo/1
p925
sVdisplay_url
p926
Vpic.twitter.com/e10niP34hU
p927
sVurl
p928
Vhttp://t.co/e10niP34hU
p929
sVmedia_url_https
p930
Vhttps://pbs.twimg.com/media/B3tHYrpIYAAdp3W.jpg
p931
sVid_str
p932
V539103069758578688
p933
sVsizes
p934
(dp935
Vlarge
p936
(dp937
Vh
p938
I537
sVresize
p939
Vfit
p940
sVw
p941
I1024
ssVsmall
p942
(dp943
Vh
p944
I178
sVresize
p945
Vfit
p946
sVw
p947
I340
ssVmedium
p948
(dp949
Vh
p950
I315
sVresize
p951
Vfit
p952
sVw
p953
I600
ssVthumb
p954
(dp955
Vh
p956
I150
sVresize
p957
Vcrop
p958
sVw
p959
I150
sssVindices
p960
(lp961
I50
aI72
asVtype
p962
Vphoto
p963
sVid
p964
I539103069758578688
sVmedia_url
p965
Vhttp://pbs.twimg.com/media/B3tHYrpIYAAdp3W.jpg
p966
sasg63
Nsg64
Nsg65
Nsg66
VSun Nov 30 17:06:02 +0000 2014
p967
sg68
Nsg69
I00
sg70
Nsg71
Nsg72
Nsg73
Nsg74
I00
sg75
Nsg76
(lp968
sg78
Nsg79
Nsg80
Nsg81
VOwn your life. Ask me how. http://t.co/WHTac0yD6x http://t.co/e10niP34hU
p969
sg83
I00
sg84
Ven
p970
sg86
g3
(g87
g5
Ntp971
Rp972
(dp973
g10
VBeaver, Utah
p974
sg92
V333333
p975
sg94
Ven
p976
sg96
Nsg97
I21
sg98
I65
sg66
VTue Feb 25 17:41:23 +0000 2014
p977
sg100
I00
sg101
g102
sg103
Vhttps://pbs.twimg.com/profile_images/471774627157381120/fayhBRIh_normal.jpeg
p978
sg105
I50
sg106
I0
sg107
Nsg108
Nsg109
I00
sg110
Vhttps://pbs.twimg.com/profile_banners/2361437551/1401314452
p979
sg112
I00
sg113
I00
sg114
V0084B4
p980
sg116
I00
sg117
I00
sg118
Vhttp://abs.twimg.com/images/themes/theme16/bg.gif
p981
sg120
VErinsPlexus
p982
sg122
I1
sg123
VErin Tibbetts Austin
p983
sg125
VDDFFCC
p984
sg127
Vhttp://t.co/84YguYrLWL
p985
sg129
I2361437551
sg130
V9AE4E8
p986
sbsg132
I0
sg133
V<a href="http://myplexusbuilder.com/" rel="nofollow">My Plexus Builder</a>
p987
sg135
(lp988
g3
(g137
g5
Ntp989
Rp990
(dp991
g141
Vhttp://t.co/WHTac0yD6x
p992
sg143
Vhttp://ltl.is/IR3QV
p993
sbasg129
I539103069955694592
sbag3
(g4
g5
Ntp994
Rp995
(dp996
g9
I0
sg10
Nsg11
Nsg12
(lp997
sg14
I00
sg15
Nsg16
Nsg17
(lp998
(dp999
Vexpanded_url
p1000
Vhttp://twitter.com/ErinsPlexus/status/538766359896023041/photo/1
p1001
sVdisplay_url
p1002
Vpic.twitter.com/SmqMTPe4pK
p1003
sVurl
p1004
Vhttp://t.co/SmqMTPe4pK
p1005
sVmedia_url_https
p1006
Vhttps://pbs.twimg.com/media/B3oVJlSIQAAlWXF.jpg
p1007
sVid_str
p1008
V538766359795351552
p1009
sVsizes
p1010
(dp1011
Vlarge
p1012
(dp1013
Vh
p1014
I537
sVresize
p1015
Vfit
p1016
sVw
p1017
I1024
ssVsmall
p1018
(dp1019
Vh
p1020
I178
sVresize
p1021
Vfit
p1022
sVw
p1023
I340
ssVmedium
p1024
(dp1025
Vh
p1026
I315
sVresize
p1027
Vfit
p1028
sVw
p1029
I600
ssVthumb
p1030
(dp1031
Vh
p1032
I150
sVresize
p1033
Vcrop
p1034
sVw
p1035
I150
sssVindices
p1036
(lp1037
I38
aI60
asVtype
p1038
Vphoto
p1039
sVid
p1040
I538766359795351552
sVmedia_url
p1041
Vhttp://pbs.twimg.com/media/B3oVJlSIQAAlWXF.jpg
p1042
sasg63
Nsg64
Nsg65
Nsg66
VSat Nov 29 18:48:04 +0000 2014
p1043
sg68
Nsg69
I00
sg70
Nsg71
Nsg72
Nsg73
Nsg74
I00
sg75
Nsg76
(lp1044
sg78
Nsg79
Nsg80
Nsg81
VOwn your life. http://t.co/WHTac0yD6x http://t.co/SmqMTPe4pK
p1045
sg83
I00
sg84
Ven
p1046
sg86
g3
(g87
g5
Ntp1047
Rp1048
(dp1049
g10
VBeaver, Utah
p1050
sg92
V333333
p1051
sg94
Ven
p1052
sg96
Nsg97
I21
sg98
I65
sg66
VTue Feb 25 17:41:23 +0000 2014
p1053
sg100
I00
sg101
g102
sg103
Vhttps://pbs.twimg.com/profile_images/471774627157381120/fayhBRIh_normal.jpeg
p1054
sg105
I50
sg106
I0
sg107
Nsg108
Nsg109
I00
sg110
Vhttps://pbs.twimg.com/profile_banners/2361437551/1401314452
p1055
sg112
I00
sg113
I00
sg114
V0084B4
p1056
sg116
I00
sg117
I00
sg118
Vhttp://abs.twimg.com/images/themes/theme16/bg.gif
p1057
sg120
VErinsPlexus
p1058
sg122
I1
sg123
VErin Tibbetts Austin
p1059
sg125
VDDFFCC
p1060
sg127
Vhttp://t.co/84YguYrLWL
p1061
sg129
I2361437551
sg130
V9AE4E8
p1062
sbsg132
I0
sg133
V<a href="http://myplexusbuilder.com/" rel="nofollow">My Plexus Builder</a>
p1063
sg135
(lp1064
g3
(g137
g5
Ntp1065
Rp1066
(dp1067
g141
Vhttp://t.co/WHTac0yD6x
p1068
sg143
Vhttp://ltl.is/IR3QV
p1069
sbasg129
I538766359896023041
sbag3
(g4
g5
Ntp1070
Rp1071
(dp1072
g9
I0
sg10
Nsg11
Nsg12
(lp1073
sg14
I00
sg15
Nsg16
Nsg17
(lp1074
(dp1075
Vexpanded_url
p1076
Vhttp://twitter.com/ErinsPlexus/status/538361435471249408/photo/1
p1077
sVdisplay_url
p1078
Vpic.twitter.com/WEnIWcscwv
p1079
sVurl
p1080
Vhttp://t.co/WEnIWcscwv
p1081
sVmedia_url_https
p1082
Vhttps://pbs.twimg.com/media/B3ik34TIEAA3E4u.jpg
p1083
sVid_str
p1084
V538361435383140352
p1085
sVsizes
p1086
(dp1087
Vlarge
p1088
(dp1089
Vh
p1090
I537
sVresize
p1091
Vfit
p1092
sVw
p1093
I1024
ssVsmall
p1094
(dp1095
Vh
p1096
I178
sVresize
p1097
Vfit
p1098
sVw
p1099
I340
ssVmedium
p1100
(dp1101
Vh
p1102
I315
sVresize
p1103
Vfit
p1104
sVw
p1105
I600
ssVthumb
p1106
(dp1107
Vh
p1108
I150
sVresize
p1109
Vcrop
p1110
sVw
p1111
I150
sssVindices
p1112
(lp1113
I70
aI92
asVtype
p1114
Vphoto
p1115
sVid
p1116
I538361435383140352
sVmedia_url
p1117
Vhttp://pbs.twimg.com/media/B3ik34TIEAA3E4u.jpg
p1118
sasg63
Nsg64
Nsg65
Nsg66
VFri Nov 28 15:59:03 +0000 2014
p1119
sg68
Nsg69
I00
sg70
Nsg71
Nsg72
Nsg73
Nsg74
I00
sg75
Nsg76
(lp1120
sg78
Nsg79
Nsg80
Nsg81
VIntroducing Plexus 96! Protein meal on the go. http://t.co/WHTac0yD6x http://t.co/WEnIWcscwv
p1121
sg83
I00
sg84
Ven
p1122
sg86
g3
(g87
g5
Ntp1123
Rp1124
(dp1125
g10
VBeaver, Utah
p1126
sg92
V333333
p1127
sg94
Ven
p1128
sg96
Nsg97
I21
sg98
I65
sg66
VTue Feb 25 17:41:23 +0000 2014
p1129
sg100
I00
sg101
g102
sg103
Vhttps://pbs.twimg.com/profile_images/471774627157381120/fayhBRIh_normal.jpeg
p1130
sg105
I50
sg106
I0
sg107
Nsg108
Nsg109
I00
sg110
Vhttps://pbs.twimg.com/profile_banners/2361437551/1401314452
p1131
sg112
I00
sg113
I00
sg114
V0084B4
p1132
sg116
I00
sg117
I00
sg118
Vhttp://abs.twimg.com/images/themes/theme16/bg.gif
p1133
sg120
VErinsPlexus
p1134
sg122
I1
sg123
VErin Tibbetts Austin
p1135
sg125
VDDFFCC
p1136
sg127
Vhttp://t.co/84YguYrLWL
p1137
sg129
I2361437551
sg130
V9AE4E8
p1138
sbsg132
I0
sg133
V<a href="http://myplexusbuilder.com/" rel="nofollow">My Plexus Builder</a>
p1139
sg135
(lp1140
g3
(g137
g5
Ntp1141
Rp1142
(dp1143
g141
Vhttp://t.co/WHTac0yD6x
p1144
sg143
Vhttp://ltl.is/IR3QV
p1145
sbasg129
I538361435471249408
sbag3
(g4
g5
Ntp1146
Rp1147
(dp1148
g9
I0
sg10
Nsg11
Nsg12
(lp1149
sg14
I00
sg15
Nsg16
Nsg17
(lp1150
(dp1151
Vexpanded_url
p1152
Vhttp://twitter.com/ErinsPlexus/status/538006849602473984/photo/1
p1153
sVdisplay_url
p1154
Vpic.twitter.com/h3caYPy9tS
p1155
sVurl
p1156
Vhttp://t.co/h3caYPy9tS
p1157
sVmedia_url_https
p1158
Vhttps://pbs.twimg.com/media/B3diYQuIUAAvk4d.jpg
p1159
sVid_str
p1160
V538006849438896128
p1161
sVsizes
p1162
(dp1163
Vlarge
p1164
(dp1165
Vh
p1166
I537
sVresize
p1167
Vfit
p1168
sVw
p1169
I1024
ssVsmall
p1170
(dp1171
Vh
p1172
I178
sVresize
p1173
Vfit
p1174
sVw
p1175
I340
ssVmedium
p1176
(dp1177
Vh
p1178
I315
sVresize
p1179
Vfit
p1180
sVw
p1181
I600
ssVthumb
p1182
(dp1183
Vh
p1184
I150
sVresize
p1185
Vcrop
p1186
sVw
p1187
I150
sssVindices
p1188
(lp1189
I50
aI72
asVtype
p1190
Vphoto
p1191
sVid
p1192
I538006849438896128
sVmedia_url
p1193
Vhttp://pbs.twimg.com/media/B3diYQuIUAAvk4d.jpg
p1194
sasg63
Nsg64
Nsg65
Nsg66
VThu Nov 27 16:30:03 +0000 2014
p1195
sg68
Nsg69
I00
sg70
Nsg71
Nsg72
Nsg73
Nsg74
I00
sg75
Nsg76
(lp1196
sg78
Nsg79
Nsg80
Nsg81
VOwn your life. Ask me how. http://t.co/WHTac0yD6x http://t.co/h3caYPy9tS
p1197
sg83
I00
sg84
Ven
p1198
sg86
g3
(g87
g5
Ntp1199
Rp1200
(dp1201
g10
VBeaver, Utah
p1202
sg92
V333333
p1203
sg94
Ven
p1204
sg96
Nsg97
I21
sg98
I65
sg66
VTue Feb 25 17:41:23 +0000 2014
p1205
sg100
I00
sg101
g102
sg103
Vhttps://pbs.twimg.com/profile_images/471774627157381120/fayhBRIh_normal.jpeg
p1206
sg105
I50
sg106
I0
sg107
Nsg108
Nsg109
I00
sg110
Vhttps://pbs.twimg.com/profile_banners/2361437551/1401314452
p1207
sg112
I00
sg113
I00
sg114
V0084B4
p1208
sg116
I00
sg117
I00
sg118
Vhttp://abs.twimg.com/images/themes/theme16/bg.gif
p1209
sg120
VErinsPlexus
p1210
sg122
I1
sg123
VErin Tibbetts Austin
p1211
sg125
VDDFFCC
p1212
sg127
Vhttp://t.co/84YguYrLWL
p1213
sg129
I2361437551
sg130
V9AE4E8
p1214
sbsg132
I0
sg133
V<a href="http://myplexusbuilder.com/" rel="nofollow">My Plexus Builder</a>
p1215
sg135
(lp1216
g3
(g137
g5
Ntp1217
Rp1218
(dp1219
g141
Vhttp://t.co/WHTac0yD6x
p1220
sg143
Vhttp://ltl.is/IR3QV
p1221
sbasg129
I538006849602473984
sbag3
(g4
g5
Ntp1222
Rp1223
(dp1224
g9
I0
sg10
Nsg11
Nsg12
(lp1225
sg14
I00
sg15
Nsg16
Nsg17
(lp1226
(dp1227
Vexpanded_url
p1228
Vhttp://twitter.com/ErinsPlexus/status/537786142478049280/photo/1
p1229
sVdisplay_url
p1230
Vpic.twitter.com/DvDzmXZDxk
p1231
sVurl
p1232
Vhttp://t.co/DvDzmXZDxk
p1233
sVmedia_url_https
p1234
Vhttps://pbs.twimg.com/media/B3aZpa_IQAAIhcm.jpg
p1235
sVid_str
p1236
V537786142415142912
p1237
sVsizes
p1238
(dp1239
Vlarge
p1240
(dp1241
Vh
p1242
I537
sVresize
p1243
Vfit
p1244
sVw
p1245
I1024
ssVsmall
p1246
(dp1247
Vh
p1248
I178
sVresize
p1249
Vfit
p1250
sVw
p1251
I340
ssVmedium
p1252
(dp1253
Vh
p1254
I315
sVresize
p1255
Vfit
p1256
sVw
p1257
I600
ssVthumb
p1258
(dp1259
Vh
p1260
I150
sVresize
p1261
Vcrop
p1262
sVw
p1263
I150
sssVindices
p1264
(lp1265
I84
aI106
asVtype
p1266
Vphoto
p1267
sVid
p1268
I537786142415142912
sVmedia_url
p1269
Vhttp://pbs.twimg.com/media/B3aZpa_IQAAIhcm.jpg
p1270
sasg63
Nsg64
Nsg65
Nsg66
VThu Nov 27 01:53:02 +0000 2014
p1271
sg68
Nsg69
I00
sg70
Nsg71
Nsg72
Nsg73
Nsg74
I00
sg75
Nsg76
(lp1272
sg78
Nsg79
Nsg80
Nsg81
VClick here to learn how to improve your financial situation! http://t.co/hDV9ubevH5 http://t.co/DvDzmXZDxk
p1273
sg83
I00
sg84
Ven
p1274
sg86
g3
(g87
g5
Ntp1275
Rp1276
(dp1277
g10
VBeaver, Utah
p1278
sg92
V333333
p1279
sg94
Ven
p1280
sg96
Nsg97
I21
sg98
I65
sg66
VTue Feb 25 17:41:23 +0000 2014
p1281
sg100
I00
sg101
g102
sg103
Vhttps://pbs.twimg.com/profile_images/471774627157381120/fayhBRIh_normal.jpeg
p1282
sg105
I50
sg106
I0
sg107
Nsg108
Nsg109
I00
sg110
Vhttps://pbs.twimg.com/profile_banners/2361437551/1401314452
p1283
sg112
I00
sg113
I00
sg114
V0084B4
p1284
sg116
I00
sg117
I00
sg118
Vhttp://abs.twimg.com/images/themes/theme16/bg.gif
p1285
sg120
VErinsPlexus
p1286
sg122
I1
sg123
VErin Tibbetts Austin
p1287
sg125
VDDFFCC
p1288
sg127
Vhttp://t.co/84YguYrLWL
p1289
sg129
I2361437551
sg130
V9AE4E8
p1290
sbsg132
I0
sg133
V<a href="http://myplexusbuilder.com/" rel="nofollow">My Plexus Builder</a>
p1291
sg135
(lp1292
g3
(g137
g5
Ntp1293
Rp1294
(dp1295
g141
Vhttp://t.co/hDV9ubevH5
p1296
sg143
Vhttp://ltl.is/GgXVM
p1297
sbasg129
I537786142478049280
sbag3
(g4
g5
Ntp1298
Rp1299
(dp1300
g9
I0
sg10
Nsg11
Nsg12
(lp1301
sg14
I00
sg15
Nsg16
Nsg17
(lp1302
(dp1303
Vexpanded_url
p1304
Vhttp://twitter.com/ErinsPlexus/status/537391819005657088/photo/1
p1305
sVdisplay_url
p1306
Vpic.twitter.com/advsTQwNlW
p1307
sVurl
p1308
Vhttp://t.co/advsTQwNlW
p1309
sVmedia_url_https
p1310
Vhttps://pbs.twimg.com/media/B3UzAxlIUAAjOve.jpg
p1311
sVid_str
p1312
V537391818942730240
p1313
sVsizes
p1314
(dp1315
Vlarge
p1316
(dp1317
Vh
p1318
I537
sVresize
p1319
Vfit
p1320
sVw
p1321
I1024
ssVsmall
p1322
(dp1323
Vh
p1324
I178
sVresize
p1325
Vfit
p1326
sVw
p1327
I340
ssVmedium
p1328
(dp1329
Vh
p1330
I315
sVresize
p1331
Vfit
p1332
sVw
p1333
I600
ssVthumb
p1334
(dp1335
Vh
p1336
I150
sVresize
p1337
Vcrop
p1338
sVw
p1339
I150
sssVindices
p1340
(lp1341
I83
aI105
asVtype
p1342
Vphoto
p1343
sVid
p1344
I537391818942730240
sVmedia_url
p1345
Vhttp://pbs.twimg.com/media/B3UzAxlIUAAjOve.jpg
p1346
sasg63
Nsg64
Nsg65
Nsg66
VTue Nov 25 23:46:08 +0000 2014
p1347
sg68
Nsg69
I00
sg70
Nsg71
Nsg72
Nsg73
Nsg74
I00
sg75
Nsg76
(lp1348
sg78
Nsg79
Nsg80
Nsg81
VStop waiting and click here to start doing something great! http://t.co/hDV9ubevH5 http://t.co/advsTQwNlW
p1349
sg83
I00
sg84
Ven
p1350
sg86
g3
(g87
g5
Ntp1351
Rp1352
(dp1353
g10
VBeaver, Utah
p1354
sg92
V333333
p1355
sg94
Ven
p1356
sg96
Nsg97
I21
sg98
I65
sg66
VTue Feb 25 17:41:23 +0000 2014
p1357
sg100
I00
sg101
g102
sg103
Vhttps://pbs.twimg.com/profile_images/471774627157381120/fayhBRIh_normal.jpeg
p1358
sg105
I50
sg106
I0
sg107
Nsg108
Nsg109
I00
sg110
Vhttps://pbs.twimg.com/profile_banners/2361437551/1401314452
p1359
sg112
I00
sg113
I00
sg114
V0084B4
p1360
sg116
I00
sg117
I00
sg118
Vhttp://abs.twimg.com/images/themes/theme16/bg.gif
p1361
sg120
VErinsPlexus
p1362
sg122
I1
sg123
VErin Tibbetts Austin
p1363
sg125
VDDFFCC
p1364
sg127
Vhttp://t.co/84YguYrLWL
p1365
sg129
I2361437551
sg130
V9AE4E8
p1366
sbsg132
I0
sg133
V<a href="http://myplexusbuilder.com/" rel="nofollow">My Plexus Builder</a>
p1367
sg135
(lp1368
g3
(g137
g5
Ntp1369
Rp1370
(dp1371
g141
Vhttp://t.co/hDV9ubevH5
p1372
sg143
Vhttp://ltl.is/GgXVM
p1373
sbasg129
I537391819005657088
sbaa.