(lp0
S'sakadezicel'
p1
a(lp2
ccopy_reg
_reconstructor
p3
(ctwitter
Status
p4
c__builtin__
object
p5
Ntp6
Rp7
(dp8
S'_favorite_count'
p9
I0
sS'_location'
p10
NsS'_withheld_scope'
p11
NsS'hashtags'
p12
(lp13
sS'_truncated'
p14
I00
sS'_retweeted_status'
p15
NsS'_withheld_copyright'
p16
NsS'media'
p17
(lp18
(dp19
Vexpanded_url
p20
Vhttp://twitter.com/sakadezicel/status/543344211505209345/photo/1
p21
sVdisplay_url
p22
Vpic.twitter.com/KplZeCVfvf
p23
sVurl
p24
Vhttp://t.co/KplZeCVfvf
p25
sVmedia_url_https
p26
Vhttps://pbs.twimg.com/media/B4pYrnqIQAAuhTr.jpg
p27
sVid_str
p28
V543344211454869504
p29
sVsizes
p30
(dp31
Vsmall
p32
(dp33
Vh
p34
I370
sVresize
p35
Vfit
p36
sVw
p37
I340
ssVlarge
p38
(dp39
Vh
p40
I560
sVresize
p41
Vfit
p42
sVw
p43
I514
ssVmedium
p44
(dp45
Vh
p46
I560
sVresize
p47
Vfit
p48
sVw
p49
I514
ssVthumb
p50
(dp51
Vh
p52
I150
sVresize
p53
Vcrop
p54
sVw
p55
I150
sssVindices
p56
(lp57
I94
aI116
asVtype
p58
Vphoto
p59
sVid
p60
I543344211454869504
sVmedia_url
p61
Vhttp://pbs.twimg.com/media/B4pYrnqIQAAuhTr.jpg
p62
sasS'_place'
p63
NsS'_contributors'
p64
NsS'_current_user_retweet'
p65
NsS'_created_at'
p66
VFri Dec 12 09:58:49 +0000 2014
p67
sS'_scopes'
p68
NsS'_possibly_sensitive'
p69
I00
sS'_in_reply_to_screen_name'
p70
NsS'_coordinates'
p71
NsS'_in_reply_to_user_id'
p72
NsS'_geo'
p73
NsS'_favorited'
p74
I00
sS'_withheld_in_countries'
p75
NsS'user_mentions'
p76
(lp77
g3
(ctwitter
User
p78
g5
Ntp79
Rp80
(dp81
g10
NsS'_profile_text_color'
p82
NsS'_lang'
p83
NsS'_time_zone'
p84
NsS'_followers_count'
p85
NsS'_statuses_count'
p86
Nsg66
NsS'_verified'
p87
NsS'_description'
p88
NsS'_profile_image_url'
p89
NsS'_friends_count'
p90
NsS'_favourites_count'
p91
NsS'_utc_offset'
p92
NsS'_status'
p93
NsS'_protected'
p94
NsS'_profile_banner_url'
p95
NsS'_notifications'
p96
NsS'_profile_background_tile'
p97
NsS'_profile_link_color'
p98
NsS'_geo_enabled'
p99
NsS'_contributors_enabled'
p100
NsS'_profile_background_image_url'
p101
NsS'_screen_name'
p102
Vjohnsuis
p103
sS'_listed_count'
p104
NsS'_name'
p105
VJohn Stephenson
p106
sS'_profile_sidebar_fill_color'
p107
NsS'_url'
p108
NsS'_id'
p109
I20512108
sS'_profile_background_color'
p110
NsbasS'_now'
p111
NsS'_id_str'
p112
V543344211505209345
p113
sS'_in_reply_to_status_id'
p114
NsS'_text'
p115
VAre you a JOHN? This Hoodies was designed for U! Click here: http://t.co/sHB3rToJm9 @johnsuis http://t.co/KplZeCVfvf
p116
sS'_retweeted'
p117
I00
sS'lang'
p118
Ven
p119
sS'_user'
p120
g3
(g78
g5
Ntp121
Rp122
(dp123
g10
V
p124
sg82
V333333
p125
sg83
Ven
p126
sg84
Nsg85
I4
sg86
I2957
sg66
VThu Oct 24 09:50:42 +0000 2013
p127
sg87
I00
sg88
g124
sg89
Vhttps://pbs.twimg.com/profile_images/531004179456593920/KNdfW5pl_normal.png
p128
sg90
I0
sg91
I0
sg92
Nsg93
Nsg94
I00
sg95
Nsg96
I00
sg97
I00
sg98
V0084B4
p129
sg99
I00
sg100
I00
sg101
Vhttp://abs.twimg.com/images/themes/theme1/bg.png
p130
sg102
Vsakadezicel
p131
sg104
I0
sg105
VAdalmund Potts
p132
sg107
VDDEEF6
p133
sg108
Nsg109
I2152642147
sg110
VC0DEED
p134
sbsS'_retweet_count'
p135
I0
sS'_source'
p136
V<a href="https://mobile.twitter.com" rel="nofollow">Mobile Web (M5)</a>
p137
sS'urls'
p138
(lp139
g3
(ctwitter
Url
p140
g5
Ntp141
Rp142
(dp143
S'url'
p144
Vhttp://t.co/sHB3rToJm9
p145
sS'expanded_url'
p146
Vhttp://teespring.com/JohnThingz
p147
sbasg109
I543344211505209345
sbag3
(g4
g5
Ntp148
Rp149
(dp150
g9
I0
sg10
Nsg11
Nsg12
(lp151
sg14
I00
sg15
Nsg16
Nsg17
(lp152
(dp153
Vexpanded_url
p154
Vhttp://twitter.com/sakadezicel/status/543330642671706112/photo/1
p155
sVdisplay_url
p156
Vpic.twitter.com/ylJjTE4QT0
p157
sVurl
p158
Vhttp://t.co/ylJjTE4QT0
p159
sVmedia_url_https
p160
Vhttps://pbs.twimg.com/media/B4pMVzSIMAAkjHW.jpg
p161
sVid_str
p162
V543330642478772224
p163
sVsizes
p164
(dp165
Vsmall
p166
(dp167
Vh
p168
I370
sVresize
p169
Vfit
p170
sVw
p171
I340
ssVlarge
p172
(dp173
Vh
p174
I560
sVresize
p175
Vfit
p176
sVw
p177
I514
ssVmedium
p178
(dp179
Vh
p180
I560
sVresize
p181
Vfit
p182
sVw
p183
I514
ssVthumb
p184
(dp185
Vh
p186
I150
sVresize
p187
Vcrop
p188
sVw
p189
I150
sssVindices
p190
(lp191
I95
aI117
asVtype
p192
Vphoto
p193
sVid
p194
I543330642478772224
sVmedia_url
p195
Vhttp://pbs.twimg.com/media/B4pMVzSIMAAkjHW.jpg
p196
sasg63
Nsg64
Nsg65
Nsg66
VFri Dec 12 09:04:54 +0000 2014
p197
sg68
Nsg69
I00
sg70
Nsg71
Nsg72
Nsg73
Nsg74
I00
sg75
Nsg76
(lp198
g3
(g78
g5
Ntp199
Rp200
(dp201
g10
Nsg82
Nsg83
Nsg84
Nsg85
Nsg86
Nsg66
Nsg87
Nsg88
Nsg89
Nsg90
Nsg91
Nsg92
Nsg93
Nsg94
Nsg95
Nsg96
Nsg97
Nsg98
Nsg99
Nsg100
Nsg101
Nsg102
Vjmyers101
p202
sg104
Nsg105
VJohn Myers
p203
sg107
Nsg108
Nsg109
I27304443
sg110
Nsbasg111
Nsg112
V543330642671706112
p204
sg114
Nsg115
VAre you a JOHN? This Hoodies was designed for U! Click here: http://t.co/sHB3rToJm9 @jmyers101 http://t.co/ylJjTE4QT0
p205
sg117
I00
sg118
Ven
p206
sg120
g3
(g78
g5
Ntp207
Rp208
(dp209
g10
g124
sg82
V333333
p210
sg83
Ven
p211
sg84
Nsg85
I4
sg86
I2957
sg66
VThu Oct 24 09:50:42 +0000 2013
p212
sg87
I00
sg88
g124
sg89
Vhttps://pbs.twimg.com/profile_images/531004179456593920/KNdfW5pl_normal.png
p213
sg90
I0
sg91
I0
sg92
Nsg93
Nsg94
I00
sg95
Nsg96
I00
sg97
I00
sg98
V0084B4
p214
sg99
I00
sg100
I00
sg101
Vhttp://abs.twimg.com/images/themes/theme1/bg.png
p215
sg102
Vsakadezicel
p216
sg104
I0
sg105
VAdalmund Potts
p217
sg107
VDDEEF6
p218
sg108
Nsg109
I2152642147
sg110
VC0DEED
p219
sbsg135
I0
sg136
V<a href="https://mobile.twitter.com" rel="nofollow">Mobile Web (M5)</a>
p220
sg138
(lp221
g3
(g140
g5
Ntp222
Rp223
(dp224
g144
Vhttp://t.co/sHB3rToJm9
p225
sg146
Vhttp://teespring.com/JohnThingz
p226
sbasg109
I543330642671706112
sbag3
(g4
g5
Ntp227
Rp228
(dp229
g9
I0
sg10
Nsg11
Nsg12
(lp230
sg14
I00
sg15
Nsg16
Nsg17
(lp231
(dp232
Vexpanded_url
p233
Vhttp://twitter.com/sakadezicel/status/543330342795755520/photo/1
p234
sVdisplay_url
p235
Vpic.twitter.com/sclC3f7Her
p236
sVurl
p237
Vhttp://t.co/sclC3f7Her
p238
sVmedia_url_https
p239
Vhttps://pbs.twimg.com/media/B4pMEWsIMAAIUBp.jpg
p240
sVid_str
p241
V543330342745419776
p242
sVsizes
p243
(dp244
Vsmall
p245
(dp246
Vh
p247
I370
sVresize
p248
Vfit
p249
sVw
p250
I340
ssVlarge
p251
(dp252
Vh
p253
I560
sVresize
p254
Vfit
p255
sVw
p256
I514
ssVmedium
p257
(dp258
Vh
p259
I560
sVresize
p260
Vfit
p261
sVw
p262
I514
ssVthumb
p263
(dp264
Vh
p265
I150
sVresize
p266
Vcrop
p267
sVw
p268
I150
sssVindices
p269
(lp270
I94
aI116
asVtype
p271
Vphoto
p272
sVid
p273
I543330342745419776
sVmedia_url
p274
Vhttp://pbs.twimg.com/media/B4pMEWsIMAAIUBp.jpg
p275
sasg63
Nsg64
Nsg65
Nsg66
VFri Dec 12 09:03:42 +0000 2014
p276
sg68
Nsg69
I00
sg70
Nsg71
Nsg72
Nsg73
Nsg74
I00
sg75
Nsg76
(lp277
g3
(g78
g5
Ntp278
Rp279
(dp280
g10
Nsg82
Nsg83
Nsg84
Nsg85
Nsg86
Nsg66
Nsg87
Nsg88
Nsg89
Nsg90
Nsg91
Nsg92
Nsg93
Nsg94
Nsg95
Nsg96
Nsg97
Nsg98
Nsg99
Nsg100
Nsg101
Nsg102
VCoachK08
p281
sg104
Nsg105
VJohn Kelder
p282
sg107
Nsg108
Nsg109
I35860489
sg110
Nsbasg111
Nsg112
V543330342795755520
p283
sg114
Nsg115
VAre you a JOHN? This Hoodies was designed for U! Click here: http://t.co/sHB3rToJm9 @CoachK08 http://t.co/sclC3f7Her
p284
sg117
I00
sg118
Ven
p285
sg120
g3
(g78
g5
Ntp286
Rp287
(dp288
g10
g124
sg82
V333333
p289
sg83
Ven
p290
sg84
Nsg85
I4
sg86
I2957
sg66
VThu Oct 24 09:50:42 +0000 2013
p291
sg87
I00
sg88
g124
sg89
Vhttps://pbs.twimg.com/profile_images/531004179456593920/KNdfW5pl_normal.png
p292
sg90
I0
sg91
I0
sg92
Nsg93
Nsg94
I00
sg95
Nsg96
I00
sg97
I00
sg98
V0084B4
p293
sg99
I00
sg100
I00
sg101
Vhttp://abs.twimg.com/images/themes/theme1/bg.png
p294
sg102
Vsakadezicel
p295
sg104
I0
sg105
VAdalmund Potts
p296
sg107
VDDEEF6
p297
sg108
Nsg109
I2152642147
sg110
VC0DEED
p298
sbsg135
I0
sg136
V<a href="https://mobile.twitter.com" rel="nofollow">Mobile Web (M5)</a>
p299
sg138
(lp300
g3
(g140
g5
Ntp301
Rp302
(dp303
g144
Vhttp://t.co/sHB3rToJm9
p304
sg146
Vhttp://teespring.com/JohnThingz
p305
sbasg109
I543330342795755520
sbag3
(g4
g5
Ntp306
Rp307
(dp308
g9
I0
sg10
Nsg11
Nsg12
(lp309
sg14
I00
sg15
Nsg16
Nsg17
(lp310
(dp311
Vexpanded_url
p312
Vhttp://twitter.com/sakadezicel/status/543330043209195520/photo/1
p313
sVdisplay_url
p314
Vpic.twitter.com/LfPJYmZ8Kt
p315
sVurl
p316
Vhttp://t.co/LfPJYmZ8Kt
p317
sVmedia_url_https
p318
Vhttps://pbs.twimg.com/media/B4pLy6ZIAAA00nX.jpg
p319
sVid_str
p320
V543330043091746816
p321
sVsizes
p322
(dp323
Vsmall
p324
(dp325
Vh
p326
I370
sVresize
p327
Vfit
p328
sVw
p329
I340
ssVlarge
p330
(dp331
Vh
p332
I560
sVresize
p333
Vfit
p334
sVw
p335
I514
ssVmedium
p336
(dp337
Vh
p338
I560
sVresize
p339
Vfit
p340
sVw
p341
I514
ssVthumb
p342
(dp343
Vh
p344
I150
sVresize
p345
Vcrop
p346
sVw
p347
I150
sssVindices
p348
(lp349
I95
aI117
asVtype
p350
Vphoto
p351
sVid
p352
I543330043091746816
sVmedia_url
p353
Vhttp://pbs.twimg.com/media/B4pLy6ZIAAA00nX.jpg
p354
sasg63
Nsg64
Nsg65
Nsg66
VFri Dec 12 09:02:31 +0000 2014
p355
sg68
Nsg69
I00
sg70
Nsg71
Nsg72
Nsg73
Nsg74
I00
sg75
Nsg76
(lp356
g3
(g78
g5
Ntp357
Rp358
(dp359
g10
Nsg82
Nsg83
Nsg84
Nsg85
Nsg86
Nsg66
Nsg87
Nsg88
Nsg89
Nsg90
Nsg91
Nsg92
Nsg93
Nsg94
Nsg95
Nsg96
Nsg97
Nsg98
Nsg99
Nsg100
Nsg101
Nsg102
VGill_John
p360
sg104
Nsg105
VJohn Demer 
p361
sg107
Nsg108
Nsg109
I229681151
sg110
Nsbasg111
Nsg112
V543330043209195520
p362
sg114
Nsg115
VAre you a JOHN? This Hoodies was designed for U! Click here: http://t.co/sHB3rToJm9 @Gill_John http://t.co/LfPJYmZ8Kt
p363
sg117
I00
sg118
Ven
p364
sg120
g3
(g78
g5
Ntp365
Rp366
(dp367
g10
g124
sg82
V333333
p368
sg83
Ven
p369
sg84
Nsg85
I4
sg86
I2957
sg66
VThu Oct 24 09:50:42 +0000 2013
p370
sg87
I00
sg88
g124
sg89
Vhttps://pbs.twimg.com/profile_images/531004179456593920/KNdfW5pl_normal.png
p371
sg90
I0
sg91
I0
sg92
Nsg93
Nsg94
I00
sg95
Nsg96
I00
sg97
I00
sg98
V0084B4
p372
sg99
I00
sg100
I00
sg101
Vhttp://abs.twimg.com/images/themes/theme1/bg.png
p373
sg102
Vsakadezicel
p374
sg104
I0
sg105
VAdalmund Potts
p375
sg107
VDDEEF6
p376
sg108
Nsg109
I2152642147
sg110
VC0DEED
p377
sbsg135
I0
sg136
V<a href="https://mobile.twitter.com" rel="nofollow">Mobile Web (M5)</a>
p378
sg138
(lp379
g3
(g140
g5
Ntp380
Rp381
(dp382
g144
Vhttp://t.co/sHB3rToJm9
p383
sg146
Vhttp://teespring.com/JohnThingz
p384
sbasg109
I543330043209195520
sbag3
(g4
g5
Ntp385
Rp386
(dp387
g9
I0
sg10
Nsg11
Nsg12
(lp388
sg14
I00
sg15
Nsg16
Nsg17
(lp389
(dp390
Vexpanded_url
p391
Vhttp://twitter.com/sakadezicel/status/543329743152881664/photo/1
p392
sVdisplay_url
p393
Vpic.twitter.com/7FKurrNc3u
p394
sVurl
p395
Vhttp://t.co/7FKurrNc3u
p396
sVmedia_url_https
p397
Vhttps://pbs.twimg.com/media/B4pLhcxIMAAUCoQ.jpg
p398
sVid_str
p399
V543329743081582592
p400
sVsizes
p401
(dp402
Vsmall
p403
(dp404
Vh
p405
I370
sVresize
p406
Vfit
p407
sVw
p408
I340
ssVlarge
p409
(dp410
Vh
p411
I560
sVresize
p412
Vfit
p413
sVw
p414
I514
ssVmedium
p415
(dp416
Vh
p417
I560
sVresize
p418
Vfit
p419
sVw
p420
I514
ssVthumb
p421
(dp422
Vh
p423
I150
sVresize
p424
Vcrop
p425
sVw
p426
I150
sssVindices
p427
(lp428
I97
aI119
asVtype
p429
Vphoto
p430
sVid
p431
I543329743081582592
sVmedia_url
p432
Vhttp://pbs.twimg.com/media/B4pLhcxIMAAUCoQ.jpg
p433
sasg63
Nsg64
Nsg65
Nsg66
VFri Dec 12 09:01:20 +0000 2014
p434
sg68
Nsg69
I00
sg70
Nsg71
Nsg72
Nsg73
Nsg74
I00
sg75
Nsg76
(lp435
g3
(g78
g5
Ntp436
Rp437
(dp438
g10
Nsg82
Nsg83
Nsg84
Nsg85
Nsg86
Nsg66
Nsg87
Nsg88
Nsg89
Nsg90
Nsg91
Nsg92
Nsg93
Nsg94
Nsg95
Nsg96
Nsg97
Nsg98
Nsg99
Nsg100
Nsg101
Nsg102
VArtrightnow
p439
sg104
Nsg105
VJohn Borys
p440
sg107
Nsg108
Nsg109
I59069505
sg110
Nsbasg111
Nsg112
V543329743152881664
p441
sg114
Nsg115
VAre you a JOHN? This Hoodies was designed for U! Click here: http://t.co/sHB3rToJm9 @Artrightnow http://t.co/7FKurrNc3u
p442
sg117
I00
sg118
Ven
p443
sg120
g3
(g78
g5
Ntp444
Rp445
(dp446
g10
g124
sg82
V333333
p447
sg83
Ven
p448
sg84
Nsg85
I4
sg86
I2957
sg66
VThu Oct 24 09:50:42 +0000 2013
p449
sg87
I00
sg88
g124
sg89
Vhttps://pbs.twimg.com/profile_images/531004179456593920/KNdfW5pl_normal.png
p450
sg90
I0
sg91
I0
sg92
Nsg93
Nsg94
I00
sg95
Nsg96
I00
sg97
I00
sg98
V0084B4
p451
sg99
I00
sg100
I00
sg101
Vhttp://abs.twimg.com/images/themes/theme1/bg.png
p452
sg102
Vsakadezicel
p453
sg104
I0
sg105
VAdalmund Potts
p454
sg107
VDDEEF6
p455
sg108
Nsg109
I2152642147
sg110
VC0DEED
p456
sbsg135
I0
sg136
V<a href="https://mobile.twitter.com" rel="nofollow">Mobile Web (M5)</a>
p457
sg138
(lp458
g3
(g140
g5
Ntp459
Rp460
(dp461
g144
Vhttp://t.co/sHB3rToJm9
p462
sg146
Vhttp://teespring.com/JohnThingz
p463
sbasg109
I543329743152881664
sbag3
(g4
g5
Ntp464
Rp465
(dp466
g9
I0
sg10
Nsg11
Nsg12
(lp467
sg14
I00
sg15
Nsg16
Nsg17
(lp468
(dp469
Vexpanded_url
p470
Vhttp://twitter.com/sakadezicel/status/543329442781999104/photo/1
p471
sVdisplay_url
p472
Vpic.twitter.com/YXEcanVBpK
p473
sVurl
p474
Vhttp://t.co/YXEcanVBpK
p475
sVmedia_url_https
p476
Vhttps://pbs.twimg.com/media/B4pLP9AIEAAJfEz.jpg
p477
sVid_str
p478
V543329442496778240
p479
sVsizes
p480
(dp481
Vsmall
p482
(dp483
Vh
p484
I370
sVresize
p485
Vfit
p486
sVw
p487
I340
ssVlarge
p488
(dp489
Vh
p490
I560
sVresize
p491
Vfit
p492
sVw
p493
I514
ssVmedium
p494
(dp495
Vh
p496
I560
sVresize
p497
Vfit
p498
sVw
p499
I514
ssVthumb
p500
(dp501
Vh
p502
I150
sVresize
p503
Vcrop
p504
sVw
p505
I150
sssVindices
p506
(lp507
I97
aI119
asVtype
p508
Vphoto
p509
sVid
p510
I543329442496778240
sVmedia_url
p511
Vhttp://pbs.twimg.com/media/B4pLP9AIEAAJfEz.jpg
p512
sasg63
Nsg64
Nsg65
Nsg66
VFri Dec 12 09:00:08 +0000 2014
p513
sg68
Nsg69
I00
sg70
Nsg71
Nsg72
Nsg73
Nsg74
I00
sg75
Nsg76
(lp514
g3
(g78
g5
Ntp515
Rp516
(dp517
g10
Nsg82
Nsg83
Nsg84
Nsg85
Nsg86
Nsg66
Nsg87
Nsg88
Nsg89
Nsg90
Nsg91
Nsg92
Nsg93
Nsg94
Nsg95
Nsg96
Nsg97
Nsg98
Nsg99
Nsg100
Nsg101
Nsg102
VWillloughby
p518
sg104
Nsg105
VJayW
p519
sg107
Nsg108
Nsg109
I510021071
sg110
Nsbasg111
Nsg112
V543329442781999104
p520
sg114
Nsg115
VAre you a JOHN? This Hoodies was designed for U! Click here: http://t.co/sHB3rToJm9 @Willloughby http://t.co/YXEcanVBpK
p521
sg117
I00
sg118
Ven
p522
sg120
g3
(g78
g5
Ntp523
Rp524
(dp525
g10
g124
sg82
V333333
p526
sg83
Ven
p527
sg84
Nsg85
I4
sg86
I2957
sg66
VThu Oct 24 09:50:42 +0000 2013
p528
sg87
I00
sg88
g124
sg89
Vhttps://pbs.twimg.com/profile_images/531004179456593920/KNdfW5pl_normal.png
p529
sg90
I0
sg91
I0
sg92
Nsg93
Nsg94
I00
sg95
Nsg96
I00
sg97
I00
sg98
V0084B4
p530
sg99
I00
sg100
I00
sg101
Vhttp://abs.twimg.com/images/themes/theme1/bg.png
p531
sg102
Vsakadezicel
p532
sg104
I0
sg105
VAdalmund Potts
p533
sg107
VDDEEF6
p534
sg108
Nsg109
I2152642147
sg110
VC0DEED
p535
sbsg135
I0
sg136
V<a href="https://mobile.twitter.com" rel="nofollow">Mobile Web (M5)</a>
p536
sg138
(lp537
g3
(g140
g5
Ntp538
Rp539
(dp540
g144
Vhttp://t.co/sHB3rToJm9
p541
sg146
Vhttp://teespring.com/JohnThingz
p542
sbasg109
I543329442781999104
sbag3
(g4
g5
Ntp543
Rp544
(dp545
g9
I0
sg10
Nsg11
Nsg12
(lp546
sg14
I00
sg15
Nsg16
Nsg17
(lp547
(dp548
Vexpanded_url
p549
Vhttp://twitter.com/sakadezicel/status/543329142666952704/photo/1
p550
sVdisplay_url
p551
Vpic.twitter.com/gulqwpC5zJ
p552
sVurl
p553
Vhttp://t.co/gulqwpC5zJ
p554
sVmedia_url_https
p555
Vhttps://pbs.twimg.com/media/B4pK-f0IEAMTg9i.jpg
p556
sVid_str
p557
V543329142604042243
p558
sVsizes
p559
(dp560
Vsmall
p561
(dp562
Vh
p563
I370
sVresize
p564
Vfit
p565
sVw
p566
I340
ssVlarge
p567
(dp568
Vh
p569
I560
sVresize
p570
Vfit
p571
sVw
p572
I514
ssVmedium
p573
(dp574
Vh
p575
I560
sVresize
p576
Vfit
p577
sVw
p578
I514
ssVthumb
p579
(dp580
Vh
p581
I150
sVresize
p582
Vcrop
p583
sVw
p584
I150
sssVindices
p585
(lp586
I95
aI117
asVtype
p587
Vphoto
p588
sVid
p589
I543329142604042243
sVmedia_url
p590
Vhttp://pbs.twimg.com/media/B4pK-f0IEAMTg9i.jpg
p591
sasg63
Nsg64
Nsg65
Nsg66
VFri Dec 12 08:58:56 +0000 2014
p592
sg68
Nsg69
I00
sg70
Nsg71
Nsg72
Nsg73
Nsg74
I00
sg75
Nsg76
(lp593
g3
(g78
g5
Ntp594
Rp595
(dp596
g10
Nsg82
Nsg83
Nsg84
Nsg85
Nsg86
Nsg66
Nsg87
Nsg88
Nsg89
Nsg90
Nsg91
Nsg92
Nsg93
Nsg94
Nsg95
Nsg96
Nsg97
Nsg98
Nsg99
Nsg100
Nsg101
Nsg102
VJohnRFish
p597
sg104
Nsg105
VJohn Fisher
p598
sg107
Nsg108
Nsg109
I52406969
sg110
Nsbasg111
Nsg112
V543329142666952704
p599
sg114
Nsg115
VAre you a JOHN? This Hoodies was designed for U! Click here: http://t.co/sHB3rToJm9 @JohnRFish http://t.co/gulqwpC5zJ
p600
sg117
I00
sg118
Ven
p601
sg120
g3
(g78
g5
Ntp602
Rp603
(dp604
g10
g124
sg82
V333333
p605
sg83
Ven
p606
sg84
Nsg85
I4
sg86
I2957
sg66
VThu Oct 24 09:50:42 +0000 2013
p607
sg87
I00
sg88
g124
sg89
Vhttps://pbs.twimg.com/profile_images/531004179456593920/KNdfW5pl_normal.png
p608
sg90
I0
sg91
I0
sg92
Nsg93
Nsg94
I00
sg95
Nsg96
I00
sg97
I00
sg98
V0084B4
p609
sg99
I00
sg100
I00
sg101
Vhttp://abs.twimg.com/images/themes/theme1/bg.png
p610
sg102
Vsakadezicel
p611
sg104
I0
sg105
VAdalmund Potts
p612
sg107
VDDEEF6
p613
sg108
Nsg109
I2152642147
sg110
VC0DEED
p614
sbsg135
I0
sg136
V<a href="https://mobile.twitter.com" rel="nofollow">Mobile Web (M5)</a>
p615
sg138
(lp616
g3
(g140
g5
Ntp617
Rp618
(dp619
g144
Vhttp://t.co/sHB3rToJm9
p620
sg146
Vhttp://teespring.com/JohnThingz
p621
sbasg109
I543329142666952704
sbag3
(g4
g5
Ntp622
Rp623
(dp624
g9
I0
sg10
Nsg11
Nsg12
(lp625
sg14
I00
sg15
Nsg16
Nsg17
(lp626
(dp627
Vexpanded_url
p628
Vhttp://twitter.com/sakadezicel/status/543318340555776000/photo/1
p629
sVdisplay_url
p630
Vpic.twitter.com/BDNXFvkBIV
p631
sVurl
p632
Vhttp://t.co/BDNXFvkBIV
p633
sVmedia_url_https
p634
Vhttps://pbs.twimg.com/media/B4pBJu1IYAIN4zD.jpg
p635
sVid_str
p636
V543318340497072130
p637
sVsizes
p638
(dp639
Vsmall
p640
(dp641
Vh
p642
I370
sVresize
p643
Vfit
p644
sVw
p645
I340
ssVlarge
p646
(dp647
Vh
p648
I560
sVresize
p649
Vfit
p650
sVw
p651
I514
ssVmedium
p652
(dp653
Vh
p654
I560
sVresize
p655
Vfit
p656
sVw
p657
I514
ssVthumb
p658
(dp659
Vh
p660
I150
sVresize
p661
Vcrop
p662
sVw
p663
I150
sssVindices
p664
(lp665
I97
aI119
asVtype
p666
Vphoto
p667
sVid
p668
I543318340497072130
sVmedia_url
p669
Vhttp://pbs.twimg.com/media/B4pBJu1IYAIN4zD.jpg
p670
sasg63
Nsg64
Nsg65
Nsg66
VFri Dec 12 08:16:01 +0000 2014
p671
sg68
Nsg69
I00
sg70
Nsg71
Nsg72
Nsg73
Nsg74
I00
sg75
Nsg76
(lp672
g3
(g78
g5
Ntp673
Rp674
(dp675
g10
Nsg82
Nsg83
Nsg84
Nsg85
Nsg86
Nsg66
Nsg87
Nsg88
Nsg89
Nsg90
Nsg91
Nsg92
Nsg93
Nsg94
Nsg95
Nsg96
Nsg97
Nsg98
Nsg99
Nsg100
Nsg101
Nsg102
VJ_Westphal2
p676
sg104
Nsg105
VChef John
p677
sg107
Nsg108
Nsg109
I339438367
sg110
Nsbasg111
Nsg112
V543318340555776000
p678
sg114
Nsg115
VAre you a JOHN? This Hoodies was designed for U! Click here: http://t.co/sHB3rToJm9 @J_Westphal2 http://t.co/BDNXFvkBIV
p679
sg117
I00
sg118
Ven
p680
sg120
g3
(g78
g5
Ntp681
Rp682
(dp683
g10
g124
sg82
V333333
p684
sg83
Ven
p685
sg84
Nsg85
I4
sg86
I2957
sg66
VThu Oct 24 09:50:42 +0000 2013
p686
sg87
I00
sg88
g124
sg89
Vhttps://pbs.twimg.com/profile_images/531004179456593920/KNdfW5pl_normal.png
p687
sg90
I0
sg91
I0
sg92
Nsg93
Nsg94
I00
sg95
Nsg96
I00
sg97
I00
sg98
V0084B4
p688
sg99
I00
sg100
I00
sg101
Vhttp://abs.twimg.com/images/themes/theme1/bg.png
p689
sg102
Vsakadezicel
p690
sg104
I0
sg105
VAdalmund Potts
p691
sg107
VDDEEF6
p692
sg108
Nsg109
I2152642147
sg110
VC0DEED
p693
sbsg135
I0
sg136
V<a href="https://mobile.twitter.com" rel="nofollow">Mobile Web (M5)</a>
p694
sg138
(lp695
g3
(g140
g5
Ntp696
Rp697
(dp698
g144
Vhttp://t.co/sHB3rToJm9
p699
sg146
Vhttp://teespring.com/JohnThingz
p700
sbasg109
I543318340555776000
sbag3
(g4
g5
Ntp701
Rp702
(dp703
g9
I0
sg10
Nsg11
Nsg12
(lp704
sg14
I00
sg15
Nsg16
Nsg17
(lp705
(dp706
Vexpanded_url
p707
Vhttp://twitter.com/sakadezicel/status/543318040520441856/photo/1
p708
sVdisplay_url
p709
Vpic.twitter.com/WoAJDDTPo5
p710
sVurl
p711
Vhttp://t.co/WoAJDDTPo5
p712
sVmedia_url_https
p713
Vhttps://pbs.twimg.com/media/B4pA4REIAAAMDdd.jpg
p714
sVid_str
p715
V543318040449122304
p716
sVsizes
p717
(dp718
Vsmall
p719
(dp720
Vh
p721
I370
sVresize
p722
Vfit
p723
sVw
p724
I340
ssVlarge
p725
(dp726
Vh
p727
I560
sVresize
p728
Vfit
p729
sVw
p730
I514
ssVmedium
p731
(dp732
Vh
p733
I560
sVresize
p734
Vfit
p735
sVw
p736
I514
ssVthumb
p737
(dp738
Vh
p739
I150
sVresize
p740
Vcrop
p741
sVw
p742
I150
sssVindices
p743
(lp744
I96
aI118
asVtype
p745
Vphoto
p746
sVid
p747
I543318040449122304
sVmedia_url
p748
Vhttp://pbs.twimg.com/media/B4pA4REIAAAMDdd.jpg
p749
sasg63
Nsg64
Nsg65
Nsg66
VFri Dec 12 08:14:49 +0000 2014
p750
sg68
Nsg69
I00
sg70
Nsg71
Nsg72
Nsg73
Nsg74
I00
sg75
Nsg76
(lp751
g3
(g78
g5
Ntp752
Rp753
(dp754
g10
Nsg82
Nsg83
Nsg84
Nsg85
Nsg86
Nsg66
Nsg87
Nsg88
Nsg89
Nsg90
Nsg91
Nsg92
Nsg93
Nsg94
Nsg95
Nsg96
Nsg97
Nsg98
Nsg99
Nsg100
Nsg101
Nsg102
Vwoolfhound
p755
sg104
Nsg105
VJohn Whiteside
p756
sg107
Nsg108
Nsg109
I55552850
sg110
Nsbasg111
Nsg112
V543318040520441856
p757
sg114
Nsg115
VAre you a JOHN? This Hoodies was designed for U! Click here: http://t.co/sHB3rToJm9 @woolfhound http://t.co/WoAJDDTPo5
p758
sg117
I00
sg118
Ven
p759
sg120
g3
(g78
g5
Ntp760
Rp761
(dp762
g10
g124
sg82
V333333
p763
sg83
Ven
p764
sg84
Nsg85
I4
sg86
I2957
sg66
VThu Oct 24 09:50:42 +0000 2013
p765
sg87
I00
sg88
g124
sg89
Vhttps://pbs.twimg.com/profile_images/531004179456593920/KNdfW5pl_normal.png
p766
sg90
I0
sg91
I0
sg92
Nsg93
Nsg94
I00
sg95
Nsg96
I00
sg97
I00
sg98
V0084B4
p767
sg99
I00
sg100
I00
sg101
Vhttp://abs.twimg.com/images/themes/theme1/bg.png
p768
sg102
Vsakadezicel
p769
sg104
I0
sg105
VAdalmund Potts
p770
sg107
VDDEEF6
p771
sg108
Nsg109
I2152642147
sg110
VC0DEED
p772
sbsg135
I0
sg136
V<a href="https://mobile.twitter.com" rel="nofollow">Mobile Web (M5)</a>
p773
sg138
(lp774
g3
(g140
g5
Ntp775
Rp776
(dp777
g144
Vhttp://t.co/sHB3rToJm9
p778
sg146
Vhttp://teespring.com/JohnThingz
p779
sbasg109
I543318040520441856
sbag3
(g4
g5
Ntp780
Rp781
(dp782
g9
I0
sg10
Nsg11
Nsg12
(lp783
sg14
I00
sg15
Nsg16
Nsg17
(lp784
(dp785
Vexpanded_url
p786
Vhttp://twitter.com/sakadezicel/status/543317740384432128/photo/1
p787
sVdisplay_url
p788
Vpic.twitter.com/M35R2XBKM0
p789
sVurl
p790
Vhttp://t.co/M35R2XBKM0
p791
sVmedia_url_https
p792
Vhttps://pbs.twimg.com/media/B4pAmy4IMAAMJFX.jpg
p793
sVid_str
p794
V543317740287963136
p795
sVsizes
p796
(dp797
Vsmall
p798
(dp799
Vh
p800
I370
sVresize
p801
Vfit
p802
sVw
p803
I340
ssVlarge
p804
(dp805
Vh
p806
I560
sVresize
p807
Vfit
p808
sVw
p809
I514
ssVmedium
p810
(dp811
Vh
p812
I560
sVresize
p813
Vfit
p814
sVw
p815
I514
ssVthumb
p816
(dp817
Vh
p818
I150
sVresize
p819
Vcrop
p820
sVw
p821
I150
sssVindices
p822
(lp823
I94
aI116
asVtype
p824
Vphoto
p825
sVid
p826
I543317740287963136
sVmedia_url
p827
Vhttp://pbs.twimg.com/media/B4pAmy4IMAAMJFX.jpg
p828
sasg63
Nsg64
Nsg65
Nsg66
VFri Dec 12 08:13:38 +0000 2014
p829
sg68
Nsg69
I00
sg70
Nsg71
Nsg72
Nsg73
Nsg74
I00
sg75
Nsg76
(lp830
g3
(g78
g5
Ntp831
Rp832
(dp833
g10
Nsg82
Nsg83
Nsg84
Nsg85
Nsg86
Nsg66
Nsg87
Nsg88
Nsg89
Nsg90
Nsg91
Nsg92
Nsg93
Nsg94
Nsg95
Nsg96
Nsg97
Nsg98
Nsg99
Nsg100
Nsg101
Nsg102
VJClurkin
p834
sg104
Nsg105
VJohn McClurkin
p835
sg107
Nsg108
Nsg109
I324169453
sg110
Nsbasg111
Nsg112
V543317740384432128
p836
sg114
Nsg115
VAre you a JOHN? This Hoodies was designed for U! Click here: http://t.co/sHB3rToJm9 @JClurkin http://t.co/M35R2XBKM0
p837
sg117
I00
sg118
Ven
p838
sg120
g3
(g78
g5
Ntp839
Rp840
(dp841
g10
g124
sg82
V333333
p842
sg83
Ven
p843
sg84
Nsg85
I4
sg86
I2957
sg66
VThu Oct 24 09:50:42 +0000 2013
p844
sg87
I00
sg88
g124
sg89
Vhttps://pbs.twimg.com/profile_images/531004179456593920/KNdfW5pl_normal.png
p845
sg90
I0
sg91
I0
sg92
Nsg93
Nsg94
I00
sg95
Nsg96
I00
sg97
I00
sg98
V0084B4
p846
sg99
I00
sg100
I00
sg101
Vhttp://abs.twimg.com/images/themes/theme1/bg.png
p847
sg102
Vsakadezicel
p848
sg104
I0
sg105
VAdalmund Potts
p849
sg107
VDDEEF6
p850
sg108
Nsg109
I2152642147
sg110
VC0DEED
p851
sbsg135
I0
sg136
V<a href="https://mobile.twitter.com" rel="nofollow">Mobile Web (M5)</a>
p852
sg138
(lp853
g3
(g140
g5
Ntp854
Rp855
(dp856
g144
Vhttp://t.co/sHB3rToJm9
p857
sg146
Vhttp://teespring.com/JohnThingz
p858
sbasg109
I543317740384432128
sbag3
(g4
g5
Ntp859
Rp860
(dp861
g9
I0
sg10
Nsg11
Nsg12
(lp862
sg14
I00
sg15
Nsg16
Nsg17
(lp863
(dp864
Vexpanded_url
p865
Vhttp://twitter.com/sakadezicel/status/543317440546242560/photo/1
p866
sVdisplay_url
p867
Vpic.twitter.com/mVdtMYQz7k
p868
sVurl
p869
Vhttp://t.co/mVdtMYQz7k
p870
sVmedia_url_https
p871
Vhttps://pbs.twimg.com/media/B4pAVWFIMAE5SKq.jpg
p872
sVid_str
p873
V543317440500084737
p874
sVsizes
p875
(dp876
Vsmall
p877
(dp878
Vh
p879
I370
sVresize
p880
Vfit
p881
sVw
p882
I340
ssVlarge
p883
(dp884
Vh
p885
I560
sVresize
p886
Vfit
p887
sVw
p888
I514
ssVmedium
p889
(dp890
Vh
p891
I560
sVresize
p892
Vfit
p893
sVw
p894
I514
ssVthumb
p895
(dp896
Vh
p897
I150
sVresize
p898
Vcrop
p899
sVw
p900
I150
sssVindices
p901
(lp902
I92
aI114
asVtype
p903
Vphoto
p904
sVid
p905
I543317440500084737
sVmedia_url
p906
Vhttp://pbs.twimg.com/media/B4pAVWFIMAE5SKq.jpg
p907
sasg63
Nsg64
Nsg65
Nsg66
VFri Dec 12 08:12:26 +0000 2014
p908
sg68
Nsg69
I00
sg70
Nsg71
Nsg72
Nsg73
Nsg74
I00
sg75
Nsg76
(lp909
g3
(g78
g5
Ntp910
Rp911
(dp912
g10
Nsg82
Nsg83
Nsg84
Nsg85
Nsg86
Nsg66
Nsg87
Nsg88
Nsg89
Nsg90
Nsg91
Nsg92
Nsg93
Nsg94
Nsg95
Nsg96
Nsg97
Nsg98
Nsg99
Nsg100
Nsg101
Nsg102
VStormD
p913
sg104
Nsg105
VJohn Sweeney
p914
sg107
Nsg108
Nsg109
I19039795
sg110
Nsbasg111
Nsg112
V543317440546242560
p915
sg114
Nsg115
VAre you a JOHN? This Hoodies was designed for U! Click here: http://t.co/sHB3rToJm9 @StormD http://t.co/mVdtMYQz7k
p916
sg117
I00
sg118
Ven
p917
sg120
g3
(g78
g5
Ntp918
Rp919
(dp920
g10
g124
sg82
V333333
p921
sg83
Ven
p922
sg84
Nsg85
I4
sg86
I2957
sg66
VThu Oct 24 09:50:42 +0000 2013
p923
sg87
I00
sg88
g124
sg89
Vhttps://pbs.twimg.com/profile_images/531004179456593920/KNdfW5pl_normal.png
p924
sg90
I0
sg91
I0
sg92
Nsg93
Nsg94
I00
sg95
Nsg96
I00
sg97
I00
sg98
V0084B4
p925
sg99
I00
sg100
I00
sg101
Vhttp://abs.twimg.com/images/themes/theme1/bg.png
p926
sg102
Vsakadezicel
p927
sg104
I0
sg105
VAdalmund Potts
p928
sg107
VDDEEF6
p929
sg108
Nsg109
I2152642147
sg110
VC0DEED
p930
sbsg135
I0
sg136
V<a href="https://mobile.twitter.com" rel="nofollow">Mobile Web (M5)</a>
p931
sg138
(lp932
g3
(g140
g5
Ntp933
Rp934
(dp935
g144
Vhttp://t.co/sHB3rToJm9
p936
sg146
Vhttp://teespring.com/JohnThingz
p937
sbasg109
I543317440546242560
sbag3
(g4
g5
Ntp938
Rp939
(dp940
g9
I0
sg10
Nsg11
Nsg12
(lp941
sg14
I00
sg15
Nsg16
Nsg17
(lp942
(dp943
Vexpanded_url
p944
Vhttp://twitter.com/sakadezicel/status/543317140594765824/photo/1
p945
sVdisplay_url
p946
Vpic.twitter.com/idX32NqbIo
p947
sVurl
p948
Vhttp://t.co/idX32NqbIo
p949
sVmedia_url_https
p950
Vhttps://pbs.twimg.com/media/B4pAD4dIcAEQ1Bh.jpg
p951
sVid_str
p952
V543317140489924609
p953
sVsizes
p954
(dp955
Vsmall
p956
(dp957
Vh
p958
I370
sVresize
p959
Vfit
p960
sVw
p961
I340
ssVlarge
p962
(dp963
Vh
p964
I560
sVresize
p965
Vfit
p966
sVw
p967
I514
ssVmedium
p968
(dp969
Vh
p970
I560
sVresize
p971
Vfit
p972
sVw
p973
I514
ssVthumb
p974
(dp975
Vh
p976
I150
sVresize
p977
Vcrop
p978
sVw
p979
I150
sssVindices
p980
(lp981
I98
aI120
asVtype
p982
Vphoto
p983
sVid
p984
I543317140489924609
sVmedia_url
p985
Vhttp://pbs.twimg.com/media/B4pAD4dIcAEQ1Bh.jpg
p986
sasg63
Nsg64
Nsg65
Nsg66
VFri Dec 12 08:11:15 +0000 2014
p987
sg68
Nsg69
I00
sg70
Nsg71
Nsg72
Nsg73
Nsg74
I00
sg75
Nsg76
(lp988
g3
(g78
g5
Ntp989
Rp990
(dp991
g10
Nsg82
Nsg83
Nsg84
Nsg85
Nsg86
Nsg66
Nsg87
Nsg88
Nsg89
Nsg90
Nsg91
Nsg92
Nsg93
Nsg94
Nsg95
Nsg96
Nsg97
Nsg98
Nsg99
Nsg100
Nsg101
Nsg102
Vmolinayadigg
p992
sg104
Nsg105
VJohn Molina
p993
sg107
Nsg108
Nsg109
I15489865
sg110
Nsbasg111
Nsg112
V543317140594765824
p994
sg114
Nsg115
VAre you a JOHN? This Hoodies was designed for U! Click here: http://t.co/sHB3rToJm9 @molinayadigg http://t.co/idX32NqbIo
p995
sg117
I00
sg118
Ven
p996
sg120
g3
(g78
g5
Ntp997
Rp998
(dp999
g10
g124
sg82
V333333
p1000
sg83
Ven
p1001
sg84
Nsg85
I4
sg86
I2957
sg66
VThu Oct 24 09:50:42 +0000 2013
p1002
sg87
I00
sg88
g124
sg89
Vhttps://pbs.twimg.com/profile_images/531004179456593920/KNdfW5pl_normal.png
p1003
sg90
I0
sg91
I0
sg92
Nsg93
Nsg94
I00
sg95
Nsg96
I00
sg97
I00
sg98
V0084B4
p1004
sg99
I00
sg100
I00
sg101
Vhttp://abs.twimg.com/images/themes/theme1/bg.png
p1005
sg102
Vsakadezicel
p1006
sg104
I0
sg105
VAdalmund Potts
p1007
sg107
VDDEEF6
p1008
sg108
Nsg109
I2152642147
sg110
VC0DEED
p1009
sbsg135
I0
sg136
V<a href="https://mobile.twitter.com" rel="nofollow">Mobile Web (M5)</a>
p1010
sg138
(lp1011
g3
(g140
g5
Ntp1012
Rp1013
(dp1014
g144
Vhttp://t.co/sHB3rToJm9
p1015
sg146
Vhttp://teespring.com/JohnThingz
p1016
sbasg109
I543317140594765824
sbag3
(g4
g5
Ntp1017
Rp1018
(dp1019
g9
I0
sg10
Nsg11
Nsg12
(lp1020
sg14
I00
sg15
Nsg16
Nsg17
(lp1021
(dp1022
Vexpanded_url
p1023
Vhttp://twitter.com/sakadezicel/status/543316840517480448/photo/1
p1024
sVdisplay_url
p1025
Vpic.twitter.com/WIieknGQ7n
p1026
sVurl
p1027
Vhttp://t.co/WIieknGQ7n
p1028
sVmedia_url_https
p1029
Vhttps://pbs.twimg.com/media/B4o_yalIEAADCKr.jpg
p1030
sVid_str
p1031
V543316840412614656
p1032
sVsizes
p1033
(dp1034
Vsmall
p1035
(dp1036
Vh
p1037
I370
sVresize
p1038
Vfit
p1039
sVw
p1040
I340
ssVlarge
p1041
(dp1042
Vh
p1043
I560
sVresize
p1044
Vfit
p1045
sVw
p1046
I514
ssVmedium
p1047
(dp1048
Vh
p1049
I560
sVresize
p1050
Vfit
p1051
sVw
p1052
I514
ssVthumb
p1053
(dp1054
Vh
p1055
I150
sVresize
p1056
Vcrop
p1057
sVw
p1058
I150
sssVindices
p1059
(lp1060
I97
aI119
asVtype
p1061
Vphoto
p1062
sVid
p1063
I543316840412614656
sVmedia_url
p1064
Vhttp://pbs.twimg.com/media/B4o_yalIEAADCKr.jpg
p1065
sasg63
Nsg64
Nsg65
Nsg66
VFri Dec 12 08:10:03 +0000 2014
p1066
sg68
Nsg69
I00
sg70
Nsg71
Nsg72
Nsg73
Nsg74
I00
sg75
Nsg76
(lp1067
g3
(g78
g5
Ntp1068
Rp1069
(dp1070
g10
Nsg82
Nsg83
Nsg84
Nsg85
Nsg86
Nsg66
Nsg87
Nsg88
Nsg89
Nsg90
Nsg91
Nsg92
Nsg93
Nsg94
Nsg95
Nsg96
Nsg97
Nsg98
Nsg99
Nsg100
Nsg101
Nsg102
VJohnWoodArt
p1071
sg104
Nsg105
VJohn W Wood
p1072
sg107
Nsg108
Nsg109
I31084752
sg110
Nsbasg111
Nsg112
V543316840517480448
p1073
sg114
Nsg115
VAre you a JOHN? This Hoodies was designed for U! Click here: http://t.co/sHB3rToJm9 @JohnWoodArt http://t.co/WIieknGQ7n
p1074
sg117
I00
sg118
Ven
p1075
sg120
g3
(g78
g5
Ntp1076
Rp1077
(dp1078
g10
g124
sg82
V333333
p1079
sg83
Ven
p1080
sg84
Nsg85
I4
sg86
I2957
sg66
VThu Oct 24 09:50:42 +0000 2013
p1081
sg87
I00
sg88
g124
sg89
Vhttps://pbs.twimg.com/profile_images/531004179456593920/KNdfW5pl_normal.png
p1082
sg90
I0
sg91
I0
sg92
Nsg93
Nsg94
I00
sg95
Nsg96
I00
sg97
I00
sg98
V0084B4
p1083
sg99
I00
sg100
I00
sg101
Vhttp://abs.twimg.com/images/themes/theme1/bg.png
p1084
sg102
Vsakadezicel
p1085
sg104
I0
sg105
VAdalmund Potts
p1086
sg107
VDDEEF6
p1087
sg108
Nsg109
I2152642147
sg110
VC0DEED
p1088
sbsg135
I0
sg136
V<a href="https://mobile.twitter.com" rel="nofollow">Mobile Web (M5)</a>
p1089
sg138
(lp1090
g3
(g140
g5
Ntp1091
Rp1092
(dp1093
g144
Vhttp://t.co/sHB3rToJm9
p1094
sg146
Vhttp://teespring.com/JohnThingz
p1095
sbasg109
I543316840517480448
sbag3
(g4
g5
Ntp1096
Rp1097
(dp1098
g9
I0
sg10
Nsg11
Nsg12
(lp1099
sg14
I00
sg15
Nsg16
Nsg17
(lp1100
(dp1101
Vexpanded_url
p1102
Vhttp://twitter.com/sakadezicel/status/543316540385685504/photo/1
p1103
sVdisplay_url
p1104
Vpic.twitter.com/P2T84yudkb
p1105
sVurl
p1106
Vhttp://t.co/P2T84yudkb
p1107
sVmedia_url_https
p1108
Vhttps://pbs.twimg.com/media/B4o_g8vIMAA1g6S.jpg
p1109
sVid_str
p1110
V543316540343726080
p1111
sVsizes
p1112
(dp1113
Vsmall
p1114
(dp1115
Vh
p1116
I370
sVresize
p1117
Vfit
p1118
sVw
p1119
I340
ssVlarge
p1120
(dp1121
Vh
p1122
I560
sVresize
p1123
Vfit
p1124
sVw
p1125
I514
ssVmedium
p1126
(dp1127
Vh
p1128
I560
sVresize
p1129
Vfit
p1130
sVw
p1131
I514
ssVthumb
p1132
(dp1133
Vh
p1134
I150
sVresize
p1135
Vcrop
p1136
sVw
p1137
I150
sssVindices
p1138
(lp1139
I96
aI118
asVtype
p1140
Vphoto
p1141
sVid
p1142
I543316540343726080
sVmedia_url
p1143
Vhttp://pbs.twimg.com/media/B4o_g8vIMAA1g6S.jpg
p1144
sasg63
Nsg64
Nsg65
Nsg66
VFri Dec 12 08:08:52 +0000 2014
p1145
sg68
Nsg69
I00
sg70
Nsg71
Nsg72
Nsg73
Nsg74
I00
sg75
Nsg76
(lp1146
g3
(g78
g5
Ntp1147
Rp1148
(dp1149
g10
Nsg82
Nsg83
Nsg84
Nsg85
Nsg86
Nsg66
Nsg87
Nsg88
Nsg89
Nsg90
Nsg91
Nsg92
Nsg93
Nsg94
Nsg95
Nsg96
Nsg97
Nsg98
Nsg99
Nsg100
Nsg101
Nsg102
VJohn_Ewert
p1150
sg104
Nsg105
VJohn Ewert
p1151
sg107
Nsg108
Nsg109
I69701114
sg110
Nsbasg111
Nsg112
V543316540385685504
p1152
sg114
Nsg115
VAre you a JOHN? This Hoodies was designed for U! Click here: http://t.co/sHB3rToJm9 @John_Ewert http://t.co/P2T84yudkb
p1153
sg117
I00
sg118
Ven
p1154
sg120
g3
(g78
g5
Ntp1155
Rp1156
(dp1157
g10
g124
sg82
V333333
p1158
sg83
Ven
p1159
sg84
Nsg85
I4
sg86
I2957
sg66
VThu Oct 24 09:50:42 +0000 2013
p1160
sg87
I00
sg88
g124
sg89
Vhttps://pbs.twimg.com/profile_images/531004179456593920/KNdfW5pl_normal.png
p1161
sg90
I0
sg91
I0
sg92
Nsg93
Nsg94
I00
sg95
Nsg96
I00
sg97
I00
sg98
V0084B4
p1162
sg99
I00
sg100
I00
sg101
Vhttp://abs.twimg.com/images/themes/theme1/bg.png
p1163
sg102
Vsakadezicel
p1164
sg104
I0
sg105
VAdalmund Potts
p1165
sg107
VDDEEF6
p1166
sg108
Nsg109
I2152642147
sg110
VC0DEED
p1167
sbsg135
I0
sg136
V<a href="https://mobile.twitter.com" rel="nofollow">Mobile Web (M5)</a>
p1168
sg138
(lp1169
g3
(g140
g5
Ntp1170
Rp1171
(dp1172
g144
Vhttp://t.co/sHB3rToJm9
p1173
sg146
Vhttp://teespring.com/JohnThingz
p1174
sbasg109
I543316540385685504
sbag3
(g4
g5
Ntp1175
Rp1176
(dp1177
g9
I0
sg10
Nsg11
Nsg12
(lp1178
sg14
I00
sg15
Nsg16
Nsg17
(lp1179
(dp1180
Vexpanded_url
p1181
Vhttp://twitter.com/sakadezicel/status/543316240299991040/photo/1
p1182
sVdisplay_url
p1183
Vpic.twitter.com/aQAwOyhNBc
p1184
sVurl
p1185
Vhttp://t.co/aQAwOyhNBc
p1186
sVmedia_url_https
p1187
Vhttps://pbs.twimg.com/media/B4o_PelIcAA8wjm.jpg
p1188
sVid_str
p1189
V543316240190959616
p1190
sVsizes
p1191
(dp1192
Vsmall
p1193
(dp1194
Vh
p1195
I370
sVresize
p1196
Vfit
p1197
sVw
p1198
I340
ssVlarge
p1199
(dp1200
Vh
p1201
I560
sVresize
p1202
Vfit
p1203
sVw
p1204
I514
ssVmedium
p1205
(dp1206
Vh
p1207
I560
sVresize
p1208
Vfit
p1209
sVw
p1210
I514
ssVthumb
p1211
(dp1212
Vh
p1213
I150
sVresize
p1214
Vcrop
p1215
sVw
p1216
I150
sssVindices
p1217
(lp1218
I96
aI118
asVtype
p1219
Vphoto
p1220
sVid
p1221
I543316240190959616
sVmedia_url
p1222
Vhttp://pbs.twimg.com/media/B4o_PelIcAA8wjm.jpg
p1223
sasg63
Nsg64
Nsg65
Nsg66
VFri Dec 12 08:07:40 +0000 2014
p1224
sg68
Nsg69
I00
sg70
Nsg71
Nsg72
Nsg73
Nsg74
I00
sg75
Nsg76
(lp1225
g3
(g78
g5
Ntp1226
Rp1227
(dp1228
g10
Nsg82
Nsg83
Nsg84
Nsg85
Nsg86
Nsg66
Nsg87
Nsg88
Nsg89
Nsg90
Nsg91
Nsg92
Nsg93
Nsg94
Nsg95
Nsg96
Nsg97
Nsg98
Nsg99
Nsg100
Nsg101
Nsg102
Vjsoriano21
p1229
sg104
Nsg105
VJohn Soriano
p1230
sg107
Nsg108
Nsg109
I68899508
sg110
Nsbasg111
Nsg112
V543316240299991040
p1231
sg114
Nsg115
VAre you a JOHN? This Hoodies was designed for U! Click here: http://t.co/sHB3rToJm9 @jsoriano21 http://t.co/aQAwOyhNBc
p1232
sg117
I00
sg118
Ven
p1233
sg120
g3
(g78
g5
Ntp1234
Rp1235
(dp1236
g10
g124
sg82
V333333
p1237
sg83
Ven
p1238
sg84
Nsg85
I4
sg86
I2957
sg66
VThu Oct 24 09:50:42 +0000 2013
p1239
sg87
I00
sg88
g124
sg89
Vhttps://pbs.twimg.com/profile_images/531004179456593920/KNdfW5pl_normal.png
p1240
sg90
I0
sg91
I0
sg92
Nsg93
Nsg94
I00
sg95
Nsg96
I00
sg97
I00
sg98
V0084B4
p1241
sg99
I00
sg100
I00
sg101
Vhttp://abs.twimg.com/images/themes/theme1/bg.png
p1242
sg102
Vsakadezicel
p1243
sg104
I0
sg105
VAdalmund Potts
p1244
sg107
VDDEEF6
p1245
sg108
Nsg109
I2152642147
sg110
VC0DEED
p1246
sbsg135
I0
sg136
V<a href="https://mobile.twitter.com" rel="nofollow">Mobile Web (M5)</a>
p1247
sg138
(lp1248
g3
(g140
g5
Ntp1249
Rp1250
(dp1251
g144
Vhttp://t.co/sHB3rToJm9
p1252
sg146
Vhttp://teespring.com/JohnThingz
p1253
sbasg109
I543316240299991040
sbag3
(g4
g5
Ntp1254
Rp1255
(dp1256
g9
I0
sg10
Nsg11
Nsg12
(lp1257
sg14
I00
sg15
Nsg16
Nsg17
(lp1258
(dp1259
Vexpanded_url
p1260
Vhttp://twitter.com/sakadezicel/status/543315939824238592/photo/1
p1261
sVdisplay_url
p1262
Vpic.twitter.com/MlSmaMXeIl
p1263
sVurl
p1264
Vhttp://t.co/MlSmaMXeIl
p1265
sVmedia_url_https
p1266
Vhttps://pbs.twimg.com/media/B4o-9_aIgAA-a_g.jpg
p1267
sVid_str
p1268
V543315939765551104
p1269
sVsizes
p1270
(dp1271
Vsmall
p1272
(dp1273
Vh
p1274
I370
sVresize
p1275
Vfit
p1276
sVw
p1277
I340
ssVlarge
p1278
(dp1279
Vh
p1280
I560
sVresize
p1281
Vfit
p1282
sVw
p1283
I514
ssVmedium
p1284
(dp1285
Vh
p1286
I560
sVresize
p1287
Vfit
p1288
sVw
p1289
I514
ssVthumb
p1290
(dp1291
Vh
p1292
I150
sVresize
p1293
Vcrop
p1294
sVw
p1295
I150
sssVindices
p1296
(lp1297
I97
aI119
asVtype
p1298
Vphoto
p1299
sVid
p1300
I543315939765551104
sVmedia_url
p1301
Vhttp://pbs.twimg.com/media/B4o-9_aIgAA-a_g.jpg
p1302
sasg63
Nsg64
Nsg65
Nsg66
VFri Dec 12 08:06:29 +0000 2014
p1303
sg68
Nsg69
I00
sg70
Nsg71
Nsg72
Nsg73
Nsg74
I00
sg75
Nsg76
(lp1304
g3
(g78
g5
Ntp1305
Rp1306
(dp1307
g10
Nsg82
Nsg83
Nsg84
Nsg85
Nsg86
Nsg66
Nsg87
Nsg88
Nsg89
Nsg90
Nsg91
Nsg92
Nsg93
Nsg94
Nsg95
Nsg96
Nsg97
Nsg98
Nsg99
Nsg100
Nsg101
Nsg102
Vjohnthunder
p1308
sg104
Nsg105
Vjohnthunder
p1309
sg107
Nsg108
Nsg109
I14274975
sg110
Nsbasg111
Nsg112
V543315939824238592
p1310
sg114
Nsg115
VAre you a JOHN? This Hoodies was designed for U! Click here: http://t.co/sHB3rToJm9 @johnthunder http://t.co/MlSmaMXeIl
p1311
sg117
I00
sg118
Ven
p1312
sg120
g3
(g78
g5
Ntp1313
Rp1314
(dp1315
g10
g124
sg82
V333333
p1316
sg83
Ven
p1317
sg84
Nsg85
I4
sg86
I2957
sg66
VThu Oct 24 09:50:42 +0000 2013
p1318
sg87
I00
sg88
g124
sg89
Vhttps://pbs.twimg.com/profile_images/531004179456593920/KNdfW5pl_normal.png
p1319
sg90
I0
sg91
I0
sg92
Nsg93
Nsg94
I00
sg95
Nsg96
I00
sg97
I00
sg98
V0084B4
p1320
sg99
I00
sg100
I00
sg101
Vhttp://abs.twimg.com/images/themes/theme1/bg.png
p1321
sg102
Vsakadezicel
p1322
sg104
I0
sg105
VAdalmund Potts
p1323
sg107
VDDEEF6
p1324
sg108
Nsg109
I2152642147
sg110
VC0DEED
p1325
sbsg135
I0
sg136
V<a href="https://mobile.twitter.com" rel="nofollow">Mobile Web (M5)</a>
p1326
sg138
(lp1327
g3
(g140
g5
Ntp1328
Rp1329
(dp1330
g144
Vhttp://t.co/sHB3rToJm9
p1331
sg146
Vhttp://teespring.com/JohnThingz
p1332
sbasg109
I543315939824238592
sbag3
(g4
g5
Ntp1333
Rp1334
(dp1335
g9
I0
sg10
Nsg11
Nsg12
(lp1336
sg14
I00
sg15
Nsg16
Nsg17
(lp1337
(dp1338
Vexpanded_url
p1339
Vhttp://twitter.com/sakadezicel/status/543315639902175232/photo/1
p1340
sVdisplay_url
p1341
Vpic.twitter.com/Z61SCLmjsg
p1342
sVurl
p1343
Vhttp://t.co/Z61SCLmjsg
p1344
sVmedia_url_https
p1345
Vhttps://pbs.twimg.com/media/B4o-siCIEAAKoCi.jpg
p1346
sVid_str
p1347
V543315639822454784
p1348
sVsizes
p1349
(dp1350
Vsmall
p1351
(dp1352
Vh
p1353
I370
sVresize
p1354
Vfit
p1355
sVw
p1356
I340
ssVlarge
p1357
(dp1358
Vh
p1359
I560
sVresize
p1360
Vfit
p1361
sVw
p1362
I514
ssVmedium
p1363
(dp1364
Vh
p1365
I560
sVresize
p1366
Vfit
p1367
sVw
p1368
I514
ssVthumb
p1369
(dp1370
Vh
p1371
I150
sVresize
p1372
Vcrop
p1373
sVw
p1374
I150
sssVindices
p1375
(lp1376
I98
aI120
asVtype
p1377
Vphoto
p1378
sVid
p1379
I543315639822454784
sVmedia_url
p1380
Vhttp://pbs.twimg.com/media/B4o-siCIEAAKoCi.jpg
p1381
sasg63
Nsg64
Nsg65
Nsg66
VFri Dec 12 08:05:17 +0000 2014
p1382
sg68
Nsg69
I00
sg70
Nsg71
Nsg72
Nsg73
Nsg74
I00
sg75
Nsg76
(lp1383
g3
(g78
g5
Ntp1384
Rp1385
(dp1386
g10
Nsg82
Nsg83
Nsg84
Nsg85
Nsg86
Nsg66
Nsg87
Nsg88
Nsg89
Nsg90
Nsg91
Nsg92
Nsg93
Nsg94
Nsg95
Nsg96
Nsg97
Nsg98
Nsg99
Nsg100
Nsg101
Nsg102
Vwelshjrc1984
p1387
sg104
Nsg105
VJohn Connolly
p1388
sg107
Nsg108
Nsg109
I25607076
sg110
Nsbasg111
Nsg112
V543315639902175232
p1389
sg114
Nsg115
VAre you a JOHN? This Hoodies was designed for U! Click here: http://t.co/sHB3rToJm9 @welshjrc1984 http://t.co/Z61SCLmjsg
p1390
sg117
I00
sg118
Ven
p1391
sg120
g3
(g78
g5
Ntp1392
Rp1393
(dp1394
g10
g124
sg82
V333333
p1395
sg83
Ven
p1396
sg84
Nsg85
I4
sg86
I2957
sg66
VThu Oct 24 09:50:42 +0000 2013
p1397
sg87
I00
sg88
g124
sg89
Vhttps://pbs.twimg.com/profile_images/531004179456593920/KNdfW5pl_normal.png
p1398
sg90
I0
sg91
I0
sg92
Nsg93
Nsg94
I00
sg95
Nsg96
I00
sg97
I00
sg98
V0084B4
p1399
sg99
I00
sg100
I00
sg101
Vhttp://abs.twimg.com/images/themes/theme1/bg.png
p1400
sg102
Vsakadezicel
p1401
sg104
I0
sg105
VAdalmund Potts
p1402
sg107
VDDEEF6
p1403
sg108
Nsg109
I2152642147
sg110
VC0DEED
p1404
sbsg135
I0
sg136
V<a href="https://mobile.twitter.com" rel="nofollow">Mobile Web (M5)</a>
p1405
sg138
(lp1406
g3
(g140
g5
Ntp1407
Rp1408
(dp1409
g144
Vhttp://t.co/sHB3rToJm9
p1410
sg146
Vhttp://teespring.com/JohnThingz
p1411
sbasg109
I543315639902175232
sbag3
(g4
g5
Ntp1412
Rp1413
(dp1414
g9
I0
sg10
Nsg11
Nsg12
(lp1415
sg14
I00
sg15
Nsg16
Nsg17
(lp1416
(dp1417
Vexpanded_url
p1418
Vhttp://twitter.com/sakadezicel/status/543315340097519616/photo/1
p1419
sVdisplay_url
p1420
Vpic.twitter.com/hhZY9emwzZ
p1421
sVurl
p1422
Vhttp://t.co/hhZY9emwzZ
p1423
sVmedia_url_https
p1424
Vhttps://pbs.twimg.com/media/B4o-bE9IIAADpru.jpg
p1425
sVid_str
p1426
V543315339959083008
p1427
sVsizes
p1428
(dp1429
Vsmall
p1430
(dp1431
Vh
p1432
I370
sVresize
p1433
Vfit
p1434
sVw
p1435
I340
ssVlarge
p1436
(dp1437
Vh
p1438
I560
sVresize
p1439
Vfit
p1440
sVw
p1441
I514
ssVmedium
p1442
(dp1443
Vh
p1444
I560
sVresize
p1445
Vfit
p1446
sVw
p1447
I514
ssVthumb
p1448
(dp1449
Vh
p1450
I150
sVresize
p1451
Vcrop
p1452
sVw
p1453
I150
sssVindices
p1454
(lp1455
I100
aI122
asVtype
p1456
Vphoto
p1457
sVid
p1458
I543315339959083008
sVmedia_url
p1459
Vhttp://pbs.twimg.com/media/B4o-bE9IIAADpru.jpg
p1460
sasg63
Nsg64
Nsg65
Nsg66
VFri Dec 12 08:04:06 +0000 2014
p1461
sg68
Nsg69
I00
sg70
Nsg71
Nsg72
Nsg73
Nsg74
I00
sg75
Nsg76
(lp1462
g3
(g78
g5
Ntp1463
Rp1464
(dp1465
g10
Nsg82
Nsg83
Nsg84
Nsg85
Nsg86
Nsg66
Nsg87
Nsg88
Nsg89
Nsg90
Nsg91
Nsg92
Nsg93
Nsg94
Nsg95
Nsg96
Nsg97
Nsg98
Nsg99
Nsg100
Nsg101
Nsg102
Vjohnquick81098
p1466
sg104
Nsg105
VJohn Quick
p1467
sg107
Nsg108
Nsg109
I2196230344
sg110
Nsbasg111
Nsg112
V543315340097519616
p1468
sg114
Nsg115
VAre you a JOHN? This Hoodies was designed for U! Click here: http://t.co/sHB3rToJm9 @johnquick81098 http://t.co/hhZY9emwzZ
p1469
sg117
I00
sg118
Ven
p1470
sg120
g3
(g78
g5
Ntp1471
Rp1472
(dp1473
g10
g124
sg82
V333333
p1474
sg83
Ven
p1475
sg84
Nsg85
I4
sg86
I2957
sg66
VThu Oct 24 09:50:42 +0000 2013
p1476
sg87
I00
sg88
g124
sg89
Vhttps://pbs.twimg.com/profile_images/531004179456593920/KNdfW5pl_normal.png
p1477
sg90
I0
sg91
I0
sg92
Nsg93
Nsg94
I00
sg95
Nsg96
I00
sg97
I00
sg98
V0084B4
p1478
sg99
I00
sg100
I00
sg101
Vhttp://abs.twimg.com/images/themes/theme1/bg.png
p1479
sg102
Vsakadezicel
p1480
sg104
I0
sg105
VAdalmund Potts
p1481
sg107
VDDEEF6
p1482
sg108
Nsg109
I2152642147
sg110
VC0DEED
p1483
sbsg135
I0
sg136
V<a href="https://mobile.twitter.com" rel="nofollow">Mobile Web (M5)</a>
p1484
sg138
(lp1485
g3
(g140
g5
Ntp1486
Rp1487
(dp1488
g144
Vhttp://t.co/sHB3rToJm9
p1489
sg146
Vhttp://teespring.com/JohnThingz
p1490
sbasg109
I543315340097519616
sbag3
(g4
g5
Ntp1491
Rp1492
(dp1493
g9
I0
sg10
Nsg11
Nsg12
(lp1494
sg14
I00
sg15
Nsg16
Nsg17
(lp1495
(dp1496
Vexpanded_url
p1497
Vhttp://twitter.com/sakadezicel/status/543315040032784385/photo/1
p1498
sVdisplay_url
p1499
Vpic.twitter.com/sbT5iIx6zQ
p1500
sVurl
p1501
Vhttp://t.co/sbT5iIx6zQ
p1502
sVmedia_url_https
p1503
Vhttps://pbs.twimg.com/media/B4o-JnXIcAAKCZy.jpg
p1504
sVid_str
p1505
V543315039957315584
p1506
sVsizes
p1507
(dp1508
Vsmall
p1509
(dp1510
Vh
p1511
I370
sVresize
p1512
Vfit
p1513
sVw
p1514
I340
ssVlarge
p1515
(dp1516
Vh
p1517
I560
sVresize
p1518
Vfit
p1519
sVw
p1520
I514
ssVmedium
p1521
(dp1522
Vh
p1523
I560
sVresize
p1524
Vfit
p1525
sVw
p1526
I514
ssVthumb
p1527
(dp1528
Vh
p1529
I150
sVresize
p1530
Vcrop
p1531
sVw
p1532
I150
sssVindices
p1533
(lp1534
I98
aI120
asVtype
p1535
Vphoto
p1536
sVid
p1537
I543315039957315584
sVmedia_url
p1538
Vhttp://pbs.twimg.com/media/B4o-JnXIcAAKCZy.jpg
p1539
sasg63
Nsg64
Nsg65
Nsg66
VFri Dec 12 08:02:54 +0000 2014
p1540
sg68
Nsg69
I00
sg70
Nsg71
Nsg72
Nsg73
Nsg74
I00
sg75
Nsg76
(lp1541
g3
(g78
g5
Ntp1542
Rp1543
(dp1544
g10
Nsg82
Nsg83
Nsg84
Nsg85
Nsg86
Nsg66
Nsg87
Nsg88
Nsg89
Nsg90
Nsg91
Nsg92
Nsg93
Nsg94
Nsg95
Nsg96
Nsg97
Nsg98
Nsg99
Nsg100
Nsg101
Nsg102
VImMrNovember
p1545
sg104
Nsg105
VJohn Mullen
p1546
sg107
Nsg108
Nsg109
I20437476
sg110
Nsbasg111
Nsg112
V543315040032784385
p1547
sg114
Nsg115
VAre you a JOHN? This Hoodies was designed for U! Click here: http://t.co/sHB3rToJm9 @ImMrNovember http://t.co/sbT5iIx6zQ
p1548
sg117
I00
sg118
Ven
p1549
sg120
g3
(g78
g5
Ntp1550
Rp1551
(dp1552
g10
g124
sg82
V333333
p1553
sg83
Ven
p1554
sg84
Nsg85
I4
sg86
I2957
sg66
VThu Oct 24 09:50:42 +0000 2013
p1555
sg87
I00
sg88
g124
sg89
Vhttps://pbs.twimg.com/profile_images/531004179456593920/KNdfW5pl_normal.png
p1556
sg90
I0
sg91
I0
sg92
Nsg93
Nsg94
I00
sg95
Nsg96
I00
sg97
I00
sg98
V0084B4
p1557
sg99
I00
sg100
I00
sg101
Vhttp://abs.twimg.com/images/themes/theme1/bg.png
p1558
sg102
Vsakadezicel
p1559
sg104
I0
sg105
VAdalmund Potts
p1560
sg107
VDDEEF6
p1561
sg108
Nsg109
I2152642147
sg110
VC0DEED
p1562
sbsg135
I0
sg136
V<a href="https://mobile.twitter.com" rel="nofollow">Mobile Web (M5)</a>
p1563
sg138
(lp1564
g3
(g140
g5
Ntp1565
Rp1566
(dp1567
g144
Vhttp://t.co/sHB3rToJm9
p1568
sg146
Vhttp://teespring.com/JohnThingz
p1569
sbasg109
I543315040032784385
sbag3
(g4
g5
Ntp1570
Rp1571
(dp1572
g9
I0
sg10
Nsg11
Nsg12
(lp1573
sg14
I00
sg15
Nsg16
Nsg17
(lp1574
(dp1575
Vexpanded_url
p1576
Vhttp://twitter.com/sakadezicel/status/543314740052000768/photo/1
p1577
sVdisplay_url
p1578
Vpic.twitter.com/46P6hb4ur8
p1579
sVurl
p1580
Vhttp://t.co/46P6hb4ur8
p1581
sVmedia_url_https
p1582
Vhttps://pbs.twimg.com/media/B4o94JxIYAAWAgt.jpg
p1583
sVid_str
p1584
V543314739955523584
p1585
sVsizes
p1586
(dp1587
Vsmall
p1588
(dp1589
Vh
p1590
I370
sVresize
p1591
Vfit
p1592
sVw
p1593
I340
ssVlarge
p1594
(dp1595
Vh
p1596
I560
sVresize
p1597
Vfit
p1598
sVw
p1599
I514
ssVmedium
p1600
(dp1601
Vh
p1602
I560
sVresize
p1603
Vfit
p1604
sVw
p1605
I514
ssVthumb
p1606
(dp1607
Vh
p1608
I150
sVresize
p1609
Vcrop
p1610
sVw
p1611
I150
sssVindices
p1612
(lp1613
I99
aI121
asVtype
p1614
Vphoto
p1615
sVid
p1616
I543314739955523584
sVmedia_url
p1617
Vhttp://pbs.twimg.com/media/B4o94JxIYAAWAgt.jpg
p1618
sasg63
Nsg64
Nsg65
Nsg66
VFri Dec 12 08:01:42 +0000 2014
p1619
sg68
Nsg69
I00
sg70
Nsg71
Nsg72
Nsg73
Nsg74
I00
sg75
Nsg76
(lp1620
g3
(g78
g5
Ntp1621
Rp1622
(dp1623
g10
Nsg82
Nsg83
Nsg84
Nsg85
Nsg86
Nsg66
Nsg87
Nsg88
Nsg89
Nsg90
Nsg91
Nsg92
Nsg93
Nsg94
Nsg95
Nsg96
Nsg97
Nsg98
Nsg99
Nsg100
Nsg101
Nsg102
VJohnBaird1888
p1624
sg104
Nsg105
VJohn Baird
p1625
sg107
Nsg108
Nsg109
I263772458
sg110
Nsbasg111
Nsg112
V543314740052000768
p1626
sg114
Nsg115
VAre you a JOHN? This Hoodies was designed for U! Click here: http://t.co/sHB3rToJm9 @JohnBaird1888 http://t.co/46P6hb4ur8
p1627
sg117
I00
sg118
Ven
p1628
sg120
g3
(g78
g5
Ntp1629
Rp1630
(dp1631
g10
g124
sg82
V333333
p1632
sg83
Ven
p1633
sg84
Nsg85
I4
sg86
I2957
sg66
VThu Oct 24 09:50:42 +0000 2013
p1634
sg87
I00
sg88
g124
sg89
Vhttps://pbs.twimg.com/profile_images/531004179456593920/KNdfW5pl_normal.png
p1635
sg90
I0
sg91
I0
sg92
Nsg93
Nsg94
I00
sg95
Nsg96
I00
sg97
I00
sg98
V0084B4
p1636
sg99
I00
sg100
I00
sg101
Vhttp://abs.twimg.com/images/themes/theme1/bg.png
p1637
sg102
Vsakadezicel
p1638
sg104
I0
sg105
VAdalmund Potts
p1639
sg107
VDDEEF6
p1640
sg108
Nsg109
I2152642147
sg110
VC0DEED
p1641
sbsg135
I0
sg136
V<a href="https://mobile.twitter.com" rel="nofollow">Mobile Web (M5)</a>
p1642
sg138
(lp1643
g3
(g140
g5
Ntp1644
Rp1645
(dp1646
g144
Vhttp://t.co/sHB3rToJm9
p1647
sg146
Vhttp://teespring.com/JohnThingz
p1648
sbasg109
I543314740052000768
sbaa.