(lp0
S'MeetNewMates'
p1
a(lp2
ccopy_reg
_reconstructor
p3
(ctwitter.status
Status
p4
c__builtin__
object
p5
Ntp6
Rp7
(dp8
S'_favorite_count'
p9
I0
sS'_location'
p10
NsS'_withheld_scope'
p11
NsS'hashtags'
p12
(lp13
g3
(ctwitter.hashtag
Hashtag
p14
g5
Ntp15
Rp16
(dp17
S'text'
p18
Vsnapchatuncut
p19
sbag3
(g14
g5
Ntp20
Rp21
(dp22
g18
Vadultsonly
p23
sbag3
(g14
g5
Ntp24
Rp25
(dp26
g18
Vdating
p27
sbasS'_truncated'
p28
I00
sS'_retweeted_status'
p29
NsS'_withheld_copyright'
p30
NsS'media'
p31
(lp32
(dp33
Vexpanded_url
p34
Vhttp://twitter.com/MeetNewMates/status/544212394176966656/photo/1
p35
sVdisplay_url
p36
Vpic.twitter.com/OExMIhCwDH
p37
sVurl
p38
Vhttp://t.co/OExMIhCwDH
p39
sVmedia_url_https
p40
Vhttps://pbs.twimg.com/media/B41uSgJIYAAdYYz.jpg
p41
sVid_str
p42
V544212394126630912
p43
sVsizes
p44
(dp45
Vsmall
p46
(dp47
Vh
p48
I317
sVresize
p49
Vfit
p50
sVw
p51
I236
ssVlarge
p52
(dp53
Vh
p54
I317
sVresize
p55
Vfit
p56
sVw
p57
I236
ssVmedium
p58
(dp59
Vh
p60
I317
sVresize
p61
Vfit
p62
sVw
p63
I236
ssVthumb
p64
(dp65
Vh
p66
I150
sVresize
p67
Vcrop
p68
sVw
p69
I150
sssVindices
p70
(lp71
I103
aI125
asVtype
p72
Vphoto
p73
sVid
p74
I544212394126630912
sVmedia_url
p75
Vhttp://pbs.twimg.com/media/B41uSgJIYAAdYYz.jpg
p76
sasS'_place'
p77
NsS'_contributors'
p78
NsS'_current_user_retweet'
p79
NsS'_created_at'
p80
VSun Dec 14 19:28:40 +0000 2014
p81
sS'_scopes'
p82
NsS'_possibly_sensitive'
p83
I00
sS'_in_reply_to_screen_name'
p84
NsS'_coordinates'
p85
NsS'_in_reply_to_user_id'
p86
NsS'_geo'
p87
NsS'_favorited'
p88
I00
sS'_withheld_in_countries'
p89
NsS'user_mentions'
p90
(lp91
sS'_now'
p92
NsS'_id_str'
p93
NsS'_in_reply_to_status_id'
p94
NsS'_text'
p95
VCome on Girls Sign Up &gt;&gt; FREE &gt;&gt; http://t.co/SCLhzN7njq #snapchatuncut #adultsonly #dating http://t.co/OExMIhCwDH
p96
sS'_retweeted'
p97
I00
sS'lang'
p98
Ven
p99
sS'_user'
p100
g3
(ctwitter.user
User
p101
g5
Ntp102
Rp103
(dp104
g10
V
p105
sS'_profile_text_color'
p106
V333333
p107
sS'_lang'
p108
Ven-gb
p109
sS'_time_zone'
p110
NsS'_followers_count'
p111
I31360
sS'_statuses_count'
p112
I7365
sg80
VThu Jul 24 11:00:43 +0000 2014
p113
sS'_verified'
p114
I00
sS'_description'
p115
VMeet New Friends, Lovers, Partners from all over the World Join Friend Finder for Free - Click Below
p116
sS'_profile_image_url'
p117
Vhttps://pbs.twimg.com/profile_images/505016486704861184/CXqJe3GX_normal.png
p118
sS'_friends_count'
p119
I116
sS'_favourites_count'
p120
I4
sS'_utc_offset'
p121
NsS'_status'
p122
NsS'_protected'
p123
I00
sS'_profile_banner_url'
p124
Vhttps://pbs.twimg.com/profile_banners/2676514064/1409240244
p125
sS'_notifications'
p126
I00
sS'_profile_background_tile'
p127
I00
sS'_profile_link_color'
p128
V0084B4
p129
sS'_geo_enabled'
p130
I00
sS'_contributors_enabled'
p131
I00
sS'_profile_background_image_url'
p132
Vhttp://abs.twimg.com/images/themes/theme1/bg.png
p133
sS'_screen_name'
p134
VMeetNewMates
p135
sS'_listed_count'
p136
I24
sS'_name'
p137
VFriendFinder
p138
sS'_profile_sidebar_fill_color'
p139
VDDEEF6
p140
sS'_url'
p141
Vhttp://t.co/iqkUUg5zN9
p142
sS'_id'
p143
I2676514064
sS'_profile_background_color'
p144
VC0DEED
p145
sbsS'_retweet_count'
p146
I0
sS'_source'
p147
V<a href="http://www.socialoomph.com" rel="nofollow">SocialOomph</a>
p148
sS'urls'
p149
(lp150
g3
(ctwitter.url
Url
p151
g5
Ntp152
Rp153
(dp154
S'url'
p155
Vhttp://t.co/SCLhzN7njq
p156
sS'expanded_url'
p157
Vhttp://adultfriendfinder.com/go/g1426289
p158
sbasg143
I544212394176966656
sbag3
(g4
g5
Ntp159
Rp160
(dp161
g9
I0
sg10
Nsg11
Nsg12
(lp162
g3
(g14
g5
Ntp163
Rp164
(dp165
g18
Vadults
p166
sbag3
(g14
g5
Ntp167
Rp168
(dp169
g18
Vhot
p170
sbag3
(g14
g5
Ntp171
Rp172
(dp173
g18
Vswingers
p174
sbag3
(g14
g5
Ntp175
Rp176
(dp177
g18
Vbondage
p178
sbag3
(g14
g5
Ntp179
Rp180
(dp181
g18
Vbdsm
p182
sbag3
(g14
g5
Ntp183
Rp184
(dp185
g18
Vsex
p186
sbasg28
I00
sg29
Nsg30
Nsg31
(lp187
(dp188
Vexpanded_url
p189
Vhttp://twitter.com/MeetNewMates/status/544206247365705728/photo/1
p190
sVdisplay_url
p191
Vpic.twitter.com/HtBos15nm8
p192
sVurl
p193
Vhttp://t.co/HtBos15nm8
p194
sVmedia_url_https
p195
Vhttps://pbs.twimg.com/media/B41oss1IIAAgkyP.jpg
p196
sVid_str
p197
V544206247139221504
p198
sVsizes
p199
(dp200
Vsmall
p201
(dp202
Vh
p203
I191
sVresize
p204
Vfit
p205
sVw
p206
I340
ssVlarge
p207
(dp208
Vh
p209
I576
sVresize
p210
Vfit
p211
sVw
p212
I1024
ssVmedium
p213
(dp214
Vh
p215
I337
sVresize
p216
Vfit
p217
sVw
p218
I600
ssVthumb
p219
(dp220
Vh
p221
I150
sVresize
p222
Vcrop
p223
sVw
p224
I150
sssVindices
p225
(lp226
I104
aI126
asVtype
p227
Vphoto
p228
sVid
p229
I544206247139221504
sVmedia_url
p230
Vhttp://pbs.twimg.com/media/B41oss1IIAAgkyP.jpg
p231
sasg77
Nsg78
Nsg79
Nsg80
VSun Dec 14 19:04:14 +0000 2014
p232
sg82
Nsg83
I00
sg84
Nsg85
Nsg86
Nsg87
Nsg88
I00
sg89
Nsg90
(lp233
sg92
Nsg93
Nsg94
Nsg95
VJoin ALT Free Now Click Here &gt;&gt; http://t.co/QiEsjF8s1z #adults #hot #swingers #bondage #bdsm #sex http://t.co/HtBos15nm8
p234
sg97
I00
sg98
Ven
p235
sg100
g3
(g101
g5
Ntp236
Rp237
(dp238
g10
g105
sg106
V333333
p239
sg108
Ven-gb
p240
sg110
Nsg111
I31360
sg112
I7365
sg80
VThu Jul 24 11:00:43 +0000 2014
p241
sg114
I00
sg115
VMeet New Friends, Lovers, Partners from all over the World Join Friend Finder for Free - Click Below
p242
sg117
Vhttps://pbs.twimg.com/profile_images/505016486704861184/CXqJe3GX_normal.png
p243
sg119
I116
sg120
I4
sg121
Nsg122
Nsg123
I00
sg124
Vhttps://pbs.twimg.com/profile_banners/2676514064/1409240244
p244
sg126
I00
sg127
I00
sg128
V0084B4
p245
sg130
I00
sg131
I00
sg132
Vhttp://abs.twimg.com/images/themes/theme1/bg.png
p246
sg134
VMeetNewMates
p247
sg136
I24
sg137
VFriendFinder
p248
sg139
VDDEEF6
p249
sg141
Vhttp://t.co/iqkUUg5zN9
p250
sg143
I2676514064
sg144
VC0DEED
p251
sbsg146
I0
sg147
V<a href="http://www.socialoomph.com" rel="nofollow">SocialOomph</a>
p252
sg149
(lp253
g3
(g151
g5
Ntp254
Rp255
(dp256
g155
Vhttp://t.co/QiEsjF8s1z
p257
sg157
Vhttp://alt.com/go/g1426366-ppc
p258
sbasg143
I544206247365705728
sbag3
(g4
g5
Ntp259
Rp260
(dp261
g9
I0
sg10
Nsg11
Nsg12
(lp262
g3
(g14
g5
Ntp263
Rp264
(dp265
g18
Vxxx
p266
sbasg28
I00
sg29
Nsg30
Nsg31
(lp267
(dp268
Vexpanded_url
p269
Vhttp://twitter.com/MeetNewMates/status/544199763068190720/photo/1
p270
sVdisplay_url
p271
Vpic.twitter.com/rCoUwzI4Vh
p272
sVurl
p273
Vhttp://t.co/rCoUwzI4Vh
p274
sVmedia_url_https
p275
Vhttps://pbs.twimg.com/media/B41izRlIgAAGli5.jpg
p276
sVid_str
p277
V544199763013697536
p278
sVsizes
p279
(dp280
Vsmall
p281
(dp282
Vh
p283
I221
sVresize
p284
Vfit
p285
sVw
p286
I340
ssVlarge
p287
(dp288
Vh
p289
I424
sVresize
p290
Vfit
p291
sVw
p292
I650
ssVmedium
p293
(dp294
Vh
p295
I391
sVresize
p296
Vfit
p297
sVw
p298
I600
ssVthumb
p299
(dp300
Vh
p301
I150
sVresize
p302
Vcrop
p303
sVw
p304
I150
sssVindices
p305
(lp306
I93
aI115
asVtype
p307
Vphoto
p308
sVid
p309
I544199763013697536
sVmedia_url
p310
Vhttp://pbs.twimg.com/media/B41izRlIgAAGli5.jpg
p311
sasg77
Nsg78
Nsg79
Nsg80
VSun Dec 14 18:38:28 +0000 2014
p312
sg82
Nsg83
I00
sg84
Nsg85
Nsg86
Nsg87
Nsg88
I00
sg89
Nsg90
(lp313
sg92
Nsg93
Nsg94
Nsg95
VSign Up Meet Me Here now Free &gt;&gt; http://t.co/brG6jWRNyd message me profile #02665 #xxx http://t.co/rCoUwzI4Vh
p314
sg97
I00
sg98
Ven
p315
sg100
g3
(g101
g5
Ntp316
Rp317
(dp318
g10
g105
sg106
V333333
p319
sg108
Ven-gb
p320
sg110
Nsg111
I31360
sg112
I7365
sg80
VThu Jul 24 11:00:43 +0000 2014
p321
sg114
I00
sg115
VMeet New Friends, Lovers, Partners from all over the World Join Friend Finder for Free - Click Below
p322
sg117
Vhttps://pbs.twimg.com/profile_images/505016486704861184/CXqJe3GX_normal.png
p323
sg119
I116
sg120
I4
sg121
Nsg122
Nsg123
I00
sg124
Vhttps://pbs.twimg.com/profile_banners/2676514064/1409240244
p324
sg126
I00
sg127
I00
sg128
V0084B4
p325
sg130
I00
sg131
I00
sg132
Vhttp://abs.twimg.com/images/themes/theme1/bg.png
p326
sg134
VMeetNewMates
p327
sg136
I24
sg137
VFriendFinder
p328
sg139
VDDEEF6
p329
sg141
Vhttp://t.co/iqkUUg5zN9
p330
sg143
I2676514064
sg144
VC0DEED
p331
sbsg146
I0
sg147
V<a href="http://www.socialoomph.com" rel="nofollow">SocialOomph</a>
p332
sg149
(lp333
g3
(g151
g5
Ntp334
Rp335
(dp336
g155
Vhttp://t.co/brG6jWRNyd
p337
sg157
Vhttp://friendfinder.com/go/g1426289
p338
sbasg143
I544199763068190720
sbag3
(g4
g5
Ntp339
Rp340
(dp341
g9
I0
sg10
Nsg11
Nsg12
(lp342
g3
(g14
g5
Ntp343
Rp344
(dp345
g18
Vdating
p346
sbag3
(g14
g5
Ntp347
Rp348
(dp349
g18
Vhangouts
p350
sbag3
(g14
g5
Ntp351
Rp352
(dp353
g18
Vchatrooms
p354
sbasg28
I00
sg29
Nsg30
Nsg31
(lp355
(dp356
Vexpanded_url
p357
Vhttp://twitter.com/MeetNewMates/status/544193519897034752/photo/1
p358
sVdisplay_url
p359
Vpic.twitter.com/yNd54r0WkM
p360
sVurl
p361
Vhttp://t.co/yNd54r0WkM
p362
sVmedia_url_https
p363
Vhttps://pbs.twimg.com/media/B41dH3-IIAATIB6.jpg
p364
sVid_str
p365
V544193519846694912
p366
sVsizes
p367
(dp368
Vsmall
p369
(dp370
Vh
p371
I400
sVresize
p372
Vfit
p373
sVw
p374
I284
ssVlarge
p375
(dp376
Vh
p377
I400
sVresize
p378
Vfit
p379
sVw
p380
I284
ssVmedium
p381
(dp382
Vh
p383
I400
sVresize
p384
Vfit
p385
sVw
p386
I284
ssVthumb
p387
(dp388
Vh
p389
I150
sVresize
p390
Vcrop
p391
sVw
p392
I150
sssVindices
p393
(lp394
I97
aI119
asVtype
p395
Vphoto
p396
sVid
p397
I544193519846694912
sVmedia_url
p398
Vhttp://pbs.twimg.com/media/B41dH3-IIAATIB6.jpg
p399
sasg77
Nsg78
Nsg79
Nsg80
VSun Dec 14 18:13:40 +0000 2014
p400
sg82
Nsg83
I00
sg84
Nsg85
Nsg86
Nsg87
Nsg88
I00
sg89
Nsg90
(lp401
sg92
Nsg93
Nsg94
Nsg95
VCome on Girls Sign Up &gt;&gt; FREE &gt;&gt; http://t.co/brG6jWRNyd #dating #hangouts #chatrooms http://t.co/yNd54r0WkM
p402
sg97
I00
sg98
Ven
p403
sg100
g3
(g101
g5
Ntp404
Rp405
(dp406
g10
g105
sg106
V333333
p407
sg108
Ven-gb
p408
sg110
Nsg111
I31360
sg112
I7365
sg80
VThu Jul 24 11:00:43 +0000 2014
p409
sg114
I00
sg115
VMeet New Friends, Lovers, Partners from all over the World Join Friend Finder for Free - Click Below
p410
sg117
Vhttps://pbs.twimg.com/profile_images/505016486704861184/CXqJe3GX_normal.png
p411
sg119
I116
sg120
I4
sg121
Nsg122
Nsg123
I00
sg124
Vhttps://pbs.twimg.com/profile_banners/2676514064/1409240244
p412
sg126
I00
sg127
I00
sg128
V0084B4
p413
sg130
I00
sg131
I00
sg132
Vhttp://abs.twimg.com/images/themes/theme1/bg.png
p414
sg134
VMeetNewMates
p415
sg136
I24
sg137
VFriendFinder
p416
sg139
VDDEEF6
p417
sg141
Vhttp://t.co/iqkUUg5zN9
p418
sg143
I2676514064
sg144
VC0DEED
p419
sbsg146
I0
sg147
V<a href="http://www.socialoomph.com" rel="nofollow">SocialOomph</a>
p420
sg149
(lp421
g3
(g151
g5
Ntp422
Rp423
(dp424
g155
Vhttp://t.co/brG6jWRNyd
p425
sg157
Vhttp://friendfinder.com/go/g1426289
p426
sbasg143
I544193519897034752
sbag3
(g4
g5
Ntp427
Rp428
(dp429
g9
I0
sg10
Nsg11
Nsg12
(lp430
g3
(g14
g5
Ntp431
Rp432
(dp433
g18
Vlove
p434
sbag3
(g14
g5
Ntp435
Rp436
(dp437
g18
Vsex
p438
sbag3
(g14
g5
Ntp439
Rp440
(dp441
g18
Vmarriage
p442
sbasg28
I00
sg29
Nsg30
Nsg31
(lp443
(dp444
Vexpanded_url
p445
Vhttp://twitter.com/MeetNewMates/status/544187207314337792/photo/1
p446
sVdisplay_url
p447
Vpic.twitter.com/8ReFlyZrt2
p448
sVurl
p449
Vhttp://t.co/8ReFlyZrt2
p450
sVmedia_url_https
p451
Vhttps://pbs.twimg.com/media/B41XYbnIMAAAjnW.jpg
p452
sVid_str
p453
V544187207222046720
p454
sVsizes
p455
(dp456
Vsmall
p457
(dp458
Vh
p459
I475
sVresize
p460
Vfit
p461
sVw
p462
I340
ssVlarge
p463
(dp464
Vh
p465
I700
sVresize
p466
Vfit
p467
sVw
p468
I500
ssVmedium
p469
(dp470
Vh
p471
I700
sVresize
p472
Vfit
p473
sVw
p474
I500
ssVthumb
p475
(dp476
Vh
p477
I150
sVresize
p478
Vcrop
p479
sVw
p480
I150
sssVindices
p481
(lp482
I100
aI122
asVtype
p483
Vphoto
p484
sVid
p485
I544187207222046720
sVmedia_url
p486
Vhttp://pbs.twimg.com/media/B41XYbnIMAAAjnW.jpg
p487
sasg77
Nsg78
Nsg79
Nsg80
VSun Dec 14 17:48:35 +0000 2014
p488
sg82
Nsg83
I00
sg84
Nsg85
Nsg86
Nsg87
Nsg88
I00
sg89
Nsg90
(lp489
sg92
Nsg93
Nsg94
Nsg95
VMessage me Free Membership&gt;&gt; http://t.co/brG6jWRNyd my profile is #01383 #love #sex #marriage http://t.co/8ReFlyZrt2
p490
sg97
I00
sg98
Ven
p491
sg100
g3
(g101
g5
Ntp492
Rp493
(dp494
g10
g105
sg106
V333333
p495
sg108
Ven-gb
p496
sg110
Nsg111
I31360
sg112
I7365
sg80
VThu Jul 24 11:00:43 +0000 2014
p497
sg114
I00
sg115
VMeet New Friends, Lovers, Partners from all over the World Join Friend Finder for Free - Click Below
p498
sg117
Vhttps://pbs.twimg.com/profile_images/505016486704861184/CXqJe3GX_normal.png
p499
sg119
I116
sg120
I4
sg121
Nsg122
Nsg123
I00
sg124
Vhttps://pbs.twimg.com/profile_banners/2676514064/1409240244
p500
sg126
I00
sg127
I00
sg128
V0084B4
p501
sg130
I00
sg131
I00
sg132
Vhttp://abs.twimg.com/images/themes/theme1/bg.png
p502
sg134
VMeetNewMates
p503
sg136
I24
sg137
VFriendFinder
p504
sg139
VDDEEF6
p505
sg141
Vhttp://t.co/iqkUUg5zN9
p506
sg143
I2676514064
sg144
VC0DEED
p507
sbsg146
I0
sg147
V<a href="http://www.socialoomph.com" rel="nofollow">SocialOomph</a>
p508
sg149
(lp509
g3
(g151
g5
Ntp510
Rp511
(dp512
g155
Vhttp://t.co/brG6jWRNyd
p513
sg157
Vhttp://friendfinder.com/go/g1426289
p514
sbasg143
I544187207314337792
sbag3
(g4
g5
Ntp515
Rp516
(dp517
g9
I0
sg10
Nsg11
Nsg12
(lp518
g3
(g14
g5
Ntp519
Rp520
(dp521
g18
Vfollowme
p522
sbag3
(g14
g5
Ntp523
Rp524
(dp525
g18
Vfollowers
p526
sbasg28
I00
sg29
Nsg30
Nsg31
(lp527
(dp528
Vexpanded_url
p529
Vhttp://twitter.com/MeetNewMates/status/544180959168724992/photo/1
p530
sVdisplay_url
p531
Vpic.twitter.com/S2Ly5XKBMh
p532
sVurl
p533
Vhttp://t.co/S2Ly5XKBMh
p534
sVmedia_url_https
p535
Vhttps://pbs.twimg.com/media/B41RsvlIEAAP7Fo.jpg
p536
sVid_str
p537
V544180959109976064
p538
sVsizes
p539
(dp540
Vlarge
p541
(dp542
Vh
p543
I614
sVresize
p544
Vfit
p545
sVw
p546
I397
ssVsmall
p547
(dp548
Vh
p549
I525
sVresize
p550
Vfit
p551
sVw
p552
I340
ssVmedium
p553
(dp554
Vh
p555
I614
sVresize
p556
Vfit
p557
sVw
p558
I397
ssVthumb
p559
(dp560
Vh
p561
I150
sVresize
p562
Vcrop
p563
sVw
p564
I150
sssVindices
p565
(lp566
I101
aI123
asVtype
p567
Vphoto
p568
sVid
p569
I544180959109976064
sVmedia_url
p570
Vhttp://pbs.twimg.com/media/B41RsvlIEAAP7Fo.jpg
p571
sasg77
Nsg78
Nsg79
Nsg80
VSun Dec 14 17:23:45 +0000 2014
p572
sg82
Nsg83
I00
sg84
Nsg85
Nsg86
Nsg87
Nsg88
I00
sg89
Nsg90
(lp573
sg92
Nsg93
Nsg94
Nsg95
VJoin Me Now Free Membership&gt;&gt; http://t.co/qsX0dgUTtP my profile is #04982 #followme #followers http://t.co/S2Ly5XKBMh
p574
sg97
I00
sg98
Ven
p575
sg100
g3
(g101
g5
Ntp576
Rp577
(dp578
g10
g105
sg106
V333333
p579
sg108
Ven-gb
p580
sg110
Nsg111
I31360
sg112
I7365
sg80
VThu Jul 24 11:00:43 +0000 2014
p581
sg114
I00
sg115
VMeet New Friends, Lovers, Partners from all over the World Join Friend Finder for Free - Click Below
p582
sg117
Vhttps://pbs.twimg.com/profile_images/505016486704861184/CXqJe3GX_normal.png
p583
sg119
I116
sg120
I4
sg121
Nsg122
Nsg123
I00
sg124
Vhttps://pbs.twimg.com/profile_banners/2676514064/1409240244
p584
sg126
I00
sg127
I00
sg128
V0084B4
p585
sg130
I00
sg131
I00
sg132
Vhttp://abs.twimg.com/images/themes/theme1/bg.png
p586
sg134
VMeetNewMates
p587
sg136
I24
sg137
VFriendFinder
p588
sg139
VDDEEF6
p589
sg141
Vhttp://t.co/iqkUUg5zN9
p590
sg143
I2676514064
sg144
VC0DEED
p591
sbsg146
I0
sg147
V<a href="http://www.socialoomph.com" rel="nofollow">SocialOomph</a>
p592
sg149
(lp593
g3
(g151
g5
Ntp594
Rp595
(dp596
g155
Vhttp://t.co/qsX0dgUTtP
p597
sg157
Vhttp://friendfinder.com/go/g1426366
p598
sbasg143
I544180959168724992
sbag3
(g4
g5
Ntp599
Rp600
(dp601
g9
I0
sg10
Nsg11
Nsg12
(lp602
g3
(g14
g5
Ntp603
Rp604
(dp605
g18
Vcommunity
p606
sbag3
(g14
g5
Ntp607
Rp608
(dp609
g18
Vsingles
p610
sbasg28
I00
sg29
Nsg30
Nsg31
(lp611
(dp612
Vexpanded_url
p613
Vhttp://twitter.com/MeetNewMates/status/544174627782950912/photo/1
p614
sVdisplay_url
p615
Vpic.twitter.com/5du5W7cL8V
p616
sVurl
p617
Vhttp://t.co/5du5W7cL8V
p618
sVmedia_url_https
p619
Vhttps://pbs.twimg.com/media/B41L8NHIAAEO1aQ.jpg
p620
sVid_str
p621
V544174627665477633
p622
sVsizes
p623
(dp624
Vlarge
p625
(dp626
Vh
p627
I822
sVresize
p628
Vfit
p629
sVw
p630
I474
ssVsmall
p631
(dp632
Vh
p633
I589
sVresize
p634
Vfit
p635
sVw
p636
I340
ssVmedium
p637
(dp638
Vh
p639
I822
sVresize
p640
Vfit
p641
sVw
p642
I474
ssVthumb
p643
(dp644
Vh
p645
I150
sVresize
p646
Vcrop
p647
sVw
p648
I150
sssVindices
p649
(lp650
I99
aI121
asVtype
p651
Vphoto
p652
sVid
p653
I544174627665477633
sVmedia_url
p654
Vhttp://pbs.twimg.com/media/B41L8NHIAAEO1aQ.jpg
p655
sasg77
Nsg78
Nsg79
Nsg80
VSun Dec 14 16:58:36 +0000 2014
p656
sg82
Nsg83
I00
sg84
Nsg85
Nsg86
Nsg87
Nsg88
I00
sg89
Nsg90
(lp657
sg92
Nsg93
Nsg94
Nsg95
VMessage me now Free Membership&gt; http://t.co/qsX0dgUTtP my profile is #67352 #community #singles http://t.co/5du5W7cL8V
p658
sg97
I00
sg98
Ven
p659
sg100
g3
(g101
g5
Ntp660
Rp661
(dp662
g10
g105
sg106
V333333
p663
sg108
Ven-gb
p664
sg110
Nsg111
I31360
sg112
I7365
sg80
VThu Jul 24 11:00:43 +0000 2014
p665
sg114
I00
sg115
VMeet New Friends, Lovers, Partners from all over the World Join Friend Finder for Free - Click Below
p666
sg117
Vhttps://pbs.twimg.com/profile_images/505016486704861184/CXqJe3GX_normal.png
p667
sg119
I116
sg120
I4
sg121
Nsg122
Nsg123
I00
sg124
Vhttps://pbs.twimg.com/profile_banners/2676514064/1409240244
p668
sg126
I00
sg127
I00
sg128
V0084B4
p669
sg130
I00
sg131
I00
sg132
Vhttp://abs.twimg.com/images/themes/theme1/bg.png
p670
sg134
VMeetNewMates
p671
sg136
I24
sg137
VFriendFinder
p672
sg139
VDDEEF6
p673
sg141
Vhttp://t.co/iqkUUg5zN9
p674
sg143
I2676514064
sg144
VC0DEED
p675
sbsg146
I0
sg147
V<a href="http://www.socialoomph.com" rel="nofollow">SocialOomph</a>
p676
sg149
(lp677
g3
(g151
g5
Ntp678
Rp679
(dp680
g155
Vhttp://t.co/qsX0dgUTtP
p681
sg157
Vhttp://friendfinder.com/go/g1426366
p682
sbasg143
I544174627782950912
sbag3
(g4
g5
Ntp683
Rp684
(dp685
g9
I0
sg10
Nsg11
Nsg12
(lp686
g3
(g14
g5
Ntp687
Rp688
(dp689
g18
Vtwittersex
p690
sbag3
(g14
g5
Ntp691
Rp692
(dp693
g18
Vlovefinder
p694
sbasg28
I00
sg29
Nsg30
Nsg31
(lp695
(dp696
Vexpanded_url
p697
Vhttp://twitter.com/MeetNewMates/status/544168458939035648/photo/1
p698
sVdisplay_url
p699
Vpic.twitter.com/GJX6qK1Uha
p700
sVurl
p701
Vhttp://t.co/GJX6qK1Uha
p702
sVmedia_url_https
p703
Vhttps://pbs.twimg.com/media/B41GVIkIEAIu4AR.jpg
p704
sVid_str
p705
V544168458871902210
p706
sVsizes
p707
(dp708
Vlarge
p709
(dp710
Vh
p711
I747
sVresize
p712
Vfit
p713
sVw
p714
I500
ssVsmall
p715
(dp716
Vh
p717
I507
sVresize
p718
Vfit
p719
sVw
p720
I340
ssVmedium
p721
(dp722
Vh
p723
I747
sVresize
p724
Vfit
p725
sVw
p726
I500
ssVthumb
p727
(dp728
Vh
p729
I150
sVresize
p730
Vcrop
p731
sVw
p732
I150
sssVindices
p733
(lp734
I101
aI123
asVtype
p735
Vphoto
p736
sVid
p737
I544168458871902210
sVmedia_url
p738
Vhttp://pbs.twimg.com/media/B41GVIkIEAIu4AR.jpg
p739
sasg77
Nsg78
Nsg79
Nsg80
VSun Dec 14 16:34:05 +0000 2014
p740
sg82
Nsg83
I00
sg84
Nsg85
Nsg86
Nsg87
Nsg88
I00
sg89
Nsg90
(lp741
sg92
Nsg93
Nsg94
Nsg95
VJoin Here now Free&gt;&gt; http://t.co/qsX0dgUTtP  message me profile #02855 #twittersex #lovefinder http://t.co/GJX6qK1Uha
p742
sg97
I00
sg98
Ven
p743
sg100
g3
(g101
g5
Ntp744
Rp745
(dp746
g10
g105
sg106
V333333
p747
sg108
Ven-gb
p748
sg110
Nsg111
I31360
sg112
I7365
sg80
VThu Jul 24 11:00:43 +0000 2014
p749
sg114
I00
sg115
VMeet New Friends, Lovers, Partners from all over the World Join Friend Finder for Free - Click Below
p750
sg117
Vhttps://pbs.twimg.com/profile_images/505016486704861184/CXqJe3GX_normal.png
p751
sg119
I116
sg120
I4
sg121
Nsg122
Nsg123
I00
sg124
Vhttps://pbs.twimg.com/profile_banners/2676514064/1409240244
p752
sg126
I00
sg127
I00
sg128
V0084B4
p753
sg130
I00
sg131
I00
sg132
Vhttp://abs.twimg.com/images/themes/theme1/bg.png
p754
sg134
VMeetNewMates
p755
sg136
I24
sg137
VFriendFinder
p756
sg139
VDDEEF6
p757
sg141
Vhttp://t.co/iqkUUg5zN9
p758
sg143
I2676514064
sg144
VC0DEED
p759
sbsg146
I0
sg147
V<a href="http://www.socialoomph.com" rel="nofollow">SocialOomph</a>
p760
sg149
(lp761
g3
(g151
g5
Ntp762
Rp763
(dp764
g155
Vhttp://t.co/qsX0dgUTtP
p765
sg157
Vhttp://friendfinder.com/go/g1426366
p766
sbasg143
I544168458939035648
sbag3
(g4
g5
Ntp767
Rp768
(dp769
g9
I0
sg10
Nsg11
Nsg12
(lp770
sg28
I00
sg29
g3
(g4
g5
Ntp771
Rp772
(dp773
g9
I187
sg10
Nsg11
Nsg12
(lp774
sg28
I00
sg29
Nsg30
Nsg31
(lp775
(dp776
Vexpanded_url
p777
Vhttp://twitter.com/golife07/status/542783492342296576/photo/1
p778
sVdisplay_url
p779
Vpic.twitter.com/vUbF87XZaE
p780
sVurl
p781
Vhttp://t.co/vUbF87XZaE
p782
sVmedia_url_https
p783
Vhttps://pbs.twimg.com/media/B4hatdxCEAA0a70.jpg
p784
sVid_str
p785
V542783492229042176
p786
sVsizes
p787
(dp788
Vlarge
p789
(dp790
Vh
p791
I403
sVresize
p792
Vfit
p793
sVw
p794
I806
ssVsmall
p795
(dp796
Vh
p797
I170
sVresize
p798
Vfit
p799
sVw
p800
I340
ssVmedium
p801
(dp802
Vh
p803
I300
sVresize
p804
Vfit
p805
sVw
p806
I600
ssVthumb
p807
(dp808
Vh
p809
I150
sVresize
p810
Vcrop
p811
sVw
p812
I150
sssVindices
p813
(lp814
I114
aI136
asVtype
p815
Vphoto
p816
sVid
p817
I542783492229042176
sVmedia_url
p818
Vhttp://pbs.twimg.com/media/B4hatdxCEAA0a70.jpg
p819
sasg77
Nsg78
Nsg79
Nsg80
VWed Dec 10 20:50:43 +0000 2014
p820
sg82
Nsg83
I00
sg84
Nsg85
Nsg86
Nsg87
Nsg88
I00
sg89
Nsg90
(lp821
sg92
Nsg93
Nsg94
Nsg95
VAdrenaline junkies are everywhere. We all have that one friend who always wants you to try http://t.co/QynqY57PKF http://t.co/vUbF87XZaE
p822
sg97
I00
sg98
Ven
p823
sg100
g3
(g101
g5
Ntp824
Rp825
(dp826
g10
Vunited state
p827
sg106
V333333
p828
sg108
Ven
p829
sg110
VArizona
p830
sg111
I30394
sg112
I362
sg80
VFri Jun 27 02:09:35 +0000 2014
p831
sg114
I00
sg115
g105
sg117
Vhttps://pbs.twimg.com/profile_images/497089835572543488/lLArXo3k_normal.jpeg
p832
sg119
I24351
sg120
I3
sg121
I-25200
sg122
Nsg123
I00
sg124
Vhttps://pbs.twimg.com/profile_banners/2590619737/1410464635
p833
sg126
I00
sg127
I00
sg128
V0084B4
p834
sg130
I00
sg131
I00
sg132
Vhttp://abs.twimg.com/images/themes/theme1/bg.png
p835
sg134
Vgolife07
p836
sg136
I65
sg137
VGo life
p837
sg139
VDDEEF6
p838
sg141
Nsg143
I2590619737
sg144
VC0DEED
p839
sbsg146
I281
sg147
V<a href="http://hashtagads.com" rel="nofollow">Hash_Tag_Ads</a>
p840
sg149
(lp841
g3
(g151
g5
Ntp842
Rp843
(dp844
g155
Vhttp://t.co/QynqY57PKF
p845
sg157
Vhttp://bit.ly/1zxAuEn
p846
sbasg143
I542783492342296576
sbsg30
Nsg31
(lp847
(dp848
Vsource_user_id
p849
I2590619737
sVsource_status_id_str
p850
V542783492342296576
p851
sVexpanded_url
p852
Vhttp://twitter.com/golife07/status/542783492342296576/photo/1
p853
sVdisplay_url
p854
Vpic.twitter.com/vUbF87XZaE
p855
sVurl
p856
Vhttp://t.co/vUbF87XZaE
p857
sVmedia_url_https
p858
Vhttps://pbs.twimg.com/media/B4hatdxCEAA0a70.jpg
p859
sVsource_user_id_str
p860
V2590619737
p861
sVsource_status_id
p862
I542783492342296576
sVid_str
p863
V542783492229042176
p864
sVsizes
p865
(dp866
Vlarge
p867
(dp868
Vh
p869
I403
sVresize
p870
Vfit
p871
sVw
p872
I806
ssVsmall
p873
(dp874
Vh
p875
I170
sVresize
p876
Vfit
p877
sVw
p878
I340
ssVmedium
p879
(dp880
Vh
p881
I300
sVresize
p882
Vfit
p883
sVw
p884
I600
ssVthumb
p885
(dp886
Vh
p887
I150
sVresize
p888
Vcrop
p889
sVw
p890
I150
sssVindices
p891
(lp892
I139
aI140
asVtype
p893
Vphoto
p894
sVid
p895
I542783492229042176
sVmedia_url
p896
Vhttp://pbs.twimg.com/media/B4hatdxCEAA0a70.jpg
p897
sasg77
Nsg78
Nsg79
Nsg80
VSun Dec 14 16:26:17 +0000 2014
p898
sg82
Nsg83
I00
sg84
Nsg85
Nsg86
Nsg87
Nsg88
I00
sg89
Nsg90
(lp899
g3
(g101
g5
Ntp900
Rp901
(dp902
g10
Nsg106
Nsg108
Nsg110
Nsg111
Nsg112
Nsg80
Nsg114
Nsg115
Nsg117
Nsg119
Nsg120
Nsg121
Nsg122
Nsg123
Nsg124
Nsg126
Nsg127
Nsg128
Nsg130
Nsg131
Nsg132
Nsg134
Vgolife07
p903
sg136
Nsg137
VGo life
p904
sg139
Nsg141
Nsg143
I2590619737
sg144
Nsbasg92
Nsg93
Nsg94
Nsg95
VRT @golife07: Adrenaline junkies are everywhere. We all have that one friend who always wants you to try http://t.co/QynqY57PKF http://t.co\u2026
p905
sg97
I00
sg98
Ven
p906
sg100
g3
(g101
g5
Ntp907
Rp908
(dp909
g10
g105
sg106
V333333
p910
sg108
Ven-gb
p911
sg110
Nsg111
I31360
sg112
I7365
sg80
VThu Jul 24 11:00:43 +0000 2014
p912
sg114
I00
sg115
VMeet New Friends, Lovers, Partners from all over the World Join Friend Finder for Free - Click Below
p913
sg117
Vhttps://pbs.twimg.com/profile_images/505016486704861184/CXqJe3GX_normal.png
p914
sg119
I116
sg120
I4
sg121
Nsg122
Nsg123
I00
sg124
Vhttps://pbs.twimg.com/profile_banners/2676514064/1409240244
p915
sg126
I00
sg127
I00
sg128
V0084B4
p916
sg130
I00
sg131
I00
sg132
Vhttp://abs.twimg.com/images/themes/theme1/bg.png
p917
sg134
VMeetNewMates
p918
sg136
I24
sg137
VFriendFinder
p919
sg139
VDDEEF6
p920
sg141
Vhttp://t.co/iqkUUg5zN9
p921
sg143
I2676514064
sg144
VC0DEED
p922
sbsg146
I281
sg147
V<a href="http://twitter.com/download/iphone" rel="nofollow">Twitter for iPhone</a>
p923
sg149
(lp924
g3
(g151
g5
Ntp925
Rp926
(dp927
g155
Vhttp://t.co/QynqY57PKF
p928
sg157
Vhttp://bit.ly/1zxAuEn
p929
sbasg143
I544166496357072897
sbag3
(g4
g5
Ntp930
Rp931
(dp932
g9
I0
sg10
Nsg11
Nsg12
(lp933
sg28
I00
sg29
g3
(g4
g5
Ntp934
Rp935
(dp936
g9
I75
sg10
Nsg11
Nsg12
(lp937
sg28
I00
sg29
Nsg30
Nsg31
(lp938
(dp939
Vexpanded_url
p940
Vhttp://twitter.com/golife07/status/542993941524512768/photo/1
p941
sVdisplay_url
p942
Vpic.twitter.com/acfTpoURwV
p943
sVurl
p944
Vhttp://t.co/acfTpoURwV
p945
sVmedia_url_https
p946
Vhttps://pbs.twimg.com/media/B4kaHOLCIAA9dyb.jpg
p947
sVid_str
p948
V542993941440634880
p949
sVsizes
p950
(dp951
Vlarge
p952
(dp953
Vh
p954
I300
sVresize
p955
Vfit
p956
sVw
p957
I600
ssVsmall
p958
(dp959
Vh
p960
I170
sVresize
p961
Vfit
p962
sVw
p963
I340
ssVmedium
p964
(dp965
Vh
p966
I300
sVresize
p967
Vfit
p968
sVw
p969
I600
ssVthumb
p970
(dp971
Vh
p972
I150
sVresize
p973
Vcrop
p974
sVw
p975
I150
sssVindices
p976
(lp977
I83
aI105
asVtype
p978
Vphoto
p979
sVid
p980
I542993941440634880
sVmedia_url
p981
Vhttp://pbs.twimg.com/media/B4kaHOLCIAA9dyb.jpg
p982
sasg77
Nsg78
Nsg79
Nsg80
VThu Dec 11 10:46:58 +0000 2014
p983
sg82
Nsg83
I00
sg84
Nsg85
Nsg86
Nsg87
Nsg88
I00
sg89
Nsg90
(lp984
sg92
Nsg93
Nsg94
Nsg95
V\u20181\u2019 Secret Your Trainer Doesn\u2019t Want You To Know, Revealed! http://t.co/DjYfBCubxc http://t.co/acfTpoURwV
p985
sg97
I00
sg98
Ven
p986
sg100
g3
(g101
g5
Ntp987
Rp988
(dp989
g10
Vunited state
p990
sg106
V333333
p991
sg108
Ven
p992
sg110
VArizona
p993
sg111
I30394
sg112
I362
sg80
VFri Jun 27 02:09:35 +0000 2014
p994
sg114
I00
sg115
g105
sg117
Vhttps://pbs.twimg.com/profile_images/497089835572543488/lLArXo3k_normal.jpeg
p995
sg119
I24351
sg120
I3
sg121
I-25200
sg122
Nsg123
I00
sg124
Vhttps://pbs.twimg.com/profile_banners/2590619737/1410464635
p996
sg126
I00
sg127
I00
sg128
V0084B4
p997
sg130
I00
sg131
I00
sg132
Vhttp://abs.twimg.com/images/themes/theme1/bg.png
p998
sg134
Vgolife07
p999
sg136
I65
sg137
VGo life
p1000
sg139
VDDEEF6
p1001
sg141
Nsg143
I2590619737
sg144
VC0DEED
p1002
sbsg146
I155
sg147
V<a href="http://hashtagads.com" rel="nofollow">Hash_Tag_Ads</a>
p1003
sg149
(lp1004
g3
(g151
g5
Ntp1005
Rp1006
(dp1007
g155
Vhttp://t.co/DjYfBCubxc
p1008
sg157
Vhttp://bit.ly/1GnC6kr
p1009
sbasg143
I542993941524512768
sbsg30
Nsg31
(lp1010
(dp1011
Vsource_user_id
p1012
I2590619737
sVsource_status_id_str
p1013
V542993941524512768
p1014
sVexpanded_url
p1015
Vhttp://twitter.com/golife07/status/542993941524512768/photo/1
p1016
sVdisplay_url
p1017
Vpic.twitter.com/acfTpoURwV
p1018
sVurl
p1019
Vhttp://t.co/acfTpoURwV
p1020
sVmedia_url_https
p1021
Vhttps://pbs.twimg.com/media/B4kaHOLCIAA9dyb.jpg
p1022
sVsource_user_id_str
p1023
V2590619737
p1024
sVsource_status_id
p1025
I542993941524512768
sVid_str
p1026
V542993941440634880
p1027
sVsizes
p1028
(dp1029
Vlarge
p1030
(dp1031
Vh
p1032
I300
sVresize
p1033
Vfit
p1034
sVw
p1035
I600
ssVsmall
p1036
(dp1037
Vh
p1038
I170
sVresize
p1039
Vfit
p1040
sVw
p1041
I340
ssVmedium
p1042
(dp1043
Vh
p1044
I300
sVresize
p1045
Vfit
p1046
sVw
p1047
I600
ssVthumb
p1048
(dp1049
Vh
p1050
I150
sVresize
p1051
Vcrop
p1052
sVw
p1053
I150
sssVindices
p1054
(lp1055
I97
aI119
asVtype
p1056
Vphoto
p1057
sVid
p1058
I542993941440634880
sVmedia_url
p1059
Vhttp://pbs.twimg.com/media/B4kaHOLCIAA9dyb.jpg
p1060
sasg77
Nsg78
Nsg79
Nsg80
VSun Dec 14 16:26:13 +0000 2014
p1061
sg82
Nsg83
I00
sg84
Nsg85
Nsg86
Nsg87
Nsg88
I00
sg89
Nsg90
(lp1062
g3
(g101
g5
Ntp1063
Rp1064
(dp1065
g10
Nsg106
Nsg108
Nsg110
Nsg111
Nsg112
Nsg80
Nsg114
Nsg115
Nsg117
Nsg119
Nsg120
Nsg121
Nsg122
Nsg123
Nsg124
Nsg126
Nsg127
Nsg128
Nsg130
Nsg131
Nsg132
Nsg134
Vgolife07
p1066
sg136
Nsg137
VGo life
p1067
sg139
Nsg141
Nsg143
I2590619737
sg144
Nsbasg92
Nsg93
Nsg94
Nsg95
VRT @golife07: \u20181\u2019 Secret Your Trainer Doesn\u2019t Want You To Know, Revealed! http://t.co/DjYfBCubxc http://t.co/acfTpoURwV
p1068
sg97
I00
sg98
Ven
p1069
sg100
g3
(g101
g5
Ntp1070
Rp1071
(dp1072
g10
g105
sg106
V333333
p1073
sg108
Ven-gb
p1074
sg110
Nsg111
I31360
sg112
I7365
sg80
VThu Jul 24 11:00:43 +0000 2014
p1075
sg114
I00
sg115
VMeet New Friends, Lovers, Partners from all over the World Join Friend Finder for Free - Click Below
p1076
sg117
Vhttps://pbs.twimg.com/profile_images/505016486704861184/CXqJe3GX_normal.png
p1077
sg119
I116
sg120
I4
sg121
Nsg122
Nsg123
I00
sg124
Vhttps://pbs.twimg.com/profile_banners/2676514064/1409240244
p1078
sg126
I00
sg127
I00
sg128
V0084B4
p1079
sg130
I00
sg131
I00
sg132
Vhttp://abs.twimg.com/images/themes/theme1/bg.png
p1080
sg134
VMeetNewMates
p1081
sg136
I24
sg137
VFriendFinder
p1082
sg139
VDDEEF6
p1083
sg141
Vhttp://t.co/iqkUUg5zN9
p1084
sg143
I2676514064
sg144
VC0DEED
p1085
sbsg146
I155
sg147
V<a href="http://twitter.com/download/iphone" rel="nofollow">Twitter for iPhone</a>
p1086
sg149
(lp1087
g3
(g151
g5
Ntp1088
Rp1089
(dp1090
g155
Vhttp://t.co/DjYfBCubxc
p1091
sg157
Vhttp://bit.ly/1GnC6kr
p1092
sbasg143
I544166479718268928
sbag3
(g4
g5
Ntp1093
Rp1094
(dp1095
g9
I0
sg10
Nsg11
Nsg12
(lp1096
sg28
I00
sg29
g3
(g4
g5
Ntp1097
Rp1098
(dp1099
g9
I64
sg10
Nsg11
Nsg12
(lp1100
sg28
I00
sg29
Nsg30
Nsg31
(lp1101
(dp1102
Vexpanded_url
p1103
Vhttp://twitter.com/golife07/status/543109808023289857/photo/1
p1104
sVdisplay_url
p1105
Vpic.twitter.com/pzKGGpvLS5
p1106
sVurl
p1107
Vhttp://t.co/pzKGGpvLS5
p1108
sVmedia_url_https
p1109
Vhttps://pbs.twimg.com/media/B4mDfiaCcAAmlTa.jpg
p1110
sVid_str
p1111
V543109807910055936
p1112
sVsizes
p1113
(dp1114
Vlarge
p1115
(dp1116
Vh
p1117
I300
sVresize
p1118
Vfit
p1119
sVw
p1120
I600
ssVsmall
p1121
(dp1122
Vh
p1123
I170
sVresize
p1124
Vfit
p1125
sVw
p1126
I340
ssVmedium
p1127
(dp1128
Vh
p1129
I300
sVresize
p1130
Vfit
p1131
sVw
p1132
I600
ssVthumb
p1133
(dp1134
Vh
p1135
I150
sVresize
p1136
Vcrop
p1137
sVw
p1138
I150
sssVindices
p1139
(lp1140
I82
aI104
asVtype
p1141
Vphoto
p1142
sVid
p1143
I543109807910055936
sVmedia_url
p1144
Vhttp://pbs.twimg.com/media/B4mDfiaCcAAmlTa.jpg
p1145
sasg77
Nsg78
Nsg79
Nsg80
VThu Dec 11 18:27:23 +0000 2014
p1146
sg82
Nsg83
I00
sg84
Nsg85
Nsg86
Nsg87
Nsg88
I00
sg89
Nsg90
(lp1147
sg92
Nsg93
Nsg94
Nsg95
V1\u2019 Secret Your Trainer Doesn\u2019t Want You To Know, Revealed! http://t.co/t50fAxGIjp http://t.co/pzKGGpvLS5
p1148
sg97
I00
sg98
Ven
p1149
sg100
g3
(g101
g5
Ntp1150
Rp1151
(dp1152
g10
Vunited state
p1153
sg106
V333333
p1154
sg108
Ven
p1155
sg110
VArizona
p1156
sg111
I30394
sg112
I362
sg80
VFri Jun 27 02:09:35 +0000 2014
p1157
sg114
I00
sg115
g105
sg117
Vhttps://pbs.twimg.com/profile_images/497089835572543488/lLArXo3k_normal.jpeg
p1158
sg119
I24351
sg120
I3
sg121
I-25200
sg122
Nsg123
I00
sg124
Vhttps://pbs.twimg.com/profile_banners/2590619737/1410464635
p1159
sg126
I00
sg127
I00
sg128
V0084B4
p1160
sg130
I00
sg131
I00
sg132
Vhttp://abs.twimg.com/images/themes/theme1/bg.png
p1161
sg134
Vgolife07
p1162
sg136
I65
sg137
VGo life
p1163
sg139
VDDEEF6
p1164
sg141
Nsg143
I2590619737
sg144
VC0DEED
p1165
sbsg146
I146
sg147
V<a href="http://hashtagads.com" rel="nofollow">Hash_Tag_Ads</a>
p1166
sg149
(lp1167
g3
(g151
g5
Ntp1168
Rp1169
(dp1170
g155
Vhttp://t.co/t50fAxGIjp
p1171
sg157
Vhttp://bit.ly/1zBPYXP
p1172
sbasg143
I543109808023289857
sbsg30
Nsg31
(lp1173
(dp1174
Vsource_user_id
p1175
I2590619737
sVsource_status_id_str
p1176
V543109808023289857
p1177
sVexpanded_url
p1178
Vhttp://twitter.com/golife07/status/543109808023289857/photo/1
p1179
sVdisplay_url
p1180
Vpic.twitter.com/pzKGGpvLS5
p1181
sVurl
p1182
Vhttp://t.co/pzKGGpvLS5
p1183
sVmedia_url_https
p1184
Vhttps://pbs.twimg.com/media/B4mDfiaCcAAmlTa.jpg
p1185
sVsource_user_id_str
p1186
V2590619737
p1187
sVsource_status_id
p1188
I543109808023289857
sVid_str
p1189
V543109807910055936
p1190
sVsizes
p1191
(dp1192
Vlarge
p1193
(dp1194
Vh
p1195
I300
sVresize
p1196
Vfit
p1197
sVw
p1198
I600
ssVsmall
p1199
(dp1200
Vh
p1201
I170
sVresize
p1202
Vfit
p1203
sVw
p1204
I340
ssVmedium
p1205
(dp1206
Vh
p1207
I300
sVresize
p1208
Vfit
p1209
sVw
p1210
I600
ssVthumb
p1211
(dp1212
Vh
p1213
I150
sVresize
p1214
Vcrop
p1215
sVw
p1216
I150
sssVindices
p1217
(lp1218
I96
aI118
asVtype
p1219
Vphoto
p1220
sVid
p1221
I543109807910055936
sVmedia_url
p1222
Vhttp://pbs.twimg.com/media/B4mDfiaCcAAmlTa.jpg
p1223
sasg77
Nsg78
Nsg79
Nsg80
VSun Dec 14 16:26:10 +0000 2014
p1224
sg82
Nsg83
I00
sg84
Nsg85
Nsg86
Nsg87
Nsg88
I00
sg89
Nsg90
(lp1225
g3
(g101
g5
Ntp1226
Rp1227
(dp1228
g10
Nsg106
Nsg108
Nsg110
Nsg111
Nsg112
Nsg80
Nsg114
Nsg115
Nsg117
Nsg119
Nsg120
Nsg121
Nsg122
Nsg123
Nsg124
Nsg126
Nsg127
Nsg128
Nsg130
Nsg131
Nsg132
Nsg134
Vgolife07
p1229
sg136
Nsg137
VGo life
p1230
sg139
Nsg141
Nsg143
I2590619737
sg144
Nsbasg92
Nsg93
Nsg94
Nsg95
VRT @golife07: 1\u2019 Secret Your Trainer Doesn\u2019t Want You To Know, Revealed! http://t.co/t50fAxGIjp http://t.co/pzKGGpvLS5
p1231
sg97
I00
sg98
Ven
p1232
sg100
g3
(g101
g5
Ntp1233
Rp1234
(dp1235
g10
g105
sg106
V333333
p1236
sg108
Ven-gb
p1237
sg110
Nsg111
I31360
sg112
I7365
sg80
VThu Jul 24 11:00:43 +0000 2014
p1238
sg114
I00
sg115
VMeet New Friends, Lovers, Partners from all over the World Join Friend Finder for Free - Click Below
p1239
sg117
Vhttps://pbs.twimg.com/profile_images/505016486704861184/CXqJe3GX_normal.png
p1240
sg119
I116
sg120
I4
sg121
Nsg122
Nsg123
I00
sg124
Vhttps://pbs.twimg.com/profile_banners/2676514064/1409240244
p1241
sg126
I00
sg127
I00
sg128
V0084B4
p1242
sg130
I00
sg131
I00
sg132
Vhttp://abs.twimg.com/images/themes/theme1/bg.png
p1243
sg134
VMeetNewMates
p1244
sg136
I24
sg137
VFriendFinder
p1245
sg139
VDDEEF6
p1246
sg141
Vhttp://t.co/iqkUUg5zN9
p1247
sg143
I2676514064
sg144
VC0DEED
p1248
sbsg146
I146
sg147
V<a href="http://twitter.com/download/iphone" rel="nofollow">Twitter for iPhone</a>
p1249
sg149
(lp1250
g3
(g151
g5
Ntp1251
Rp1252
(dp1253
g155
Vhttp://t.co/t50fAxGIjp
p1254
sg157
Vhttp://bit.ly/1zBPYXP
p1255
sbasg143
I544166464924946433
sbag3
(g4
g5
Ntp1256
Rp1257
(dp1258
g9
I0
sg10
Nsg11
Nsg12
(lp1259
sg28
I00
sg29
g3
(g4
g5
Ntp1260
Rp1261
(dp1262
g9
I98
sg10
Nsg11
Nsg12
(lp1263
sg28
I00
sg29
Nsg30
Nsg31
(lp1264
(dp1265
Vexpanded_url
p1266
Vhttp://twitter.com/loverspoint2/status/543280807058493440/photo/1
p1267
sVdisplay_url
p1268
Vpic.twitter.com/fdXZbHV548
p1269
sVurl
p1270
Vhttp://t.co/fdXZbHV548
p1271
sVmedia_url_https
p1272
Vhttps://pbs.twimg.com/media/B4ofA_qCUAArzEb.jpg
p1273
sVid_str
p1274
V543280806999773184
p1275
sVsizes
p1276
(dp1277
Vlarge
p1278
(dp1279
Vh
p1280
I234
sVresize
p1281
Vfit
p1282
sVw
p1283
I468
ssVsmall
p1284
(dp1285
Vh
p1286
I170
sVresize
p1287
Vfit
p1288
sVw
p1289
I340
ssVmedium
p1290
(dp1291
Vh
p1292
I234
sVresize
p1293
Vfit
p1294
sVw
p1295
I468
ssVthumb
p1296
(dp1297
Vh
p1298
I150
sVresize
p1299
Vcrop
p1300
sVw
p1301
I150
sssVindices
p1302
(lp1303
I83
aI105
asVtype
p1304
Vphoto
p1305
sVid
p1306
I543280806999773184
sVmedia_url
p1307
Vhttp://pbs.twimg.com/media/B4ofA_qCUAArzEb.jpg
p1308
sasg77
Nsg78
Nsg79
Nsg80
VFri Dec 12 05:46:52 +0000 2014
p1309
sg82
Nsg83
I00
sg84
Nsg85
Nsg86
Nsg87
Nsg88
I00
sg89
Nsg90
(lp1310
sg92
Nsg93
Nsg94
Nsg95
VLazy Girls Solution to Longer Hair. Inches in Wks--&gt;&gt; http://t.co/6qhFhczLwK http://t.co/fdXZbHV548
p1311
sg97
I00
sg98
Ven
p1312
sg100
g3
(g101
g5
Ntp1313
Rp1314
(dp1315
g10
g105
sg106
V333333
p1316
sg108
Ven
p1317
sg110
Nsg111
I15321
sg112
I66
sg80
VSun Nov 02 16:32:20 +0000 2014
p1318
sg114
I00
sg115
g105
sg117
Vhttps://pbs.twimg.com/profile_images/528953548852064256/wFuOVa4v_normal.jpeg
p1319
sg119
I14307
sg120
I4
sg121
Nsg122
Nsg123
I00
sg124
Vhttps://pbs.twimg.com/profile_banners/2887666525/1414947497
p1320
sg126
I00
sg127
I00
sg128
V0084B4
p1321
sg130
I00
sg131
I00
sg132
Vhttp://abs.twimg.com/images/themes/theme1/bg.png
p1322
sg134
Vloverspoint2
p1323
sg136
I4
sg137
VLoverspoint
p1324
sg139
VDDEEF6
p1325
sg141
Nsg143
I2887666525
sg144
VC0DEED
p1326
sbsg146
I161
sg147
V<a href="http://hashtagads.com" rel="nofollow">Hash_Tag_Ads</a>
p1327
sg149
(lp1328
g3
(g151
g5
Ntp1329
Rp1330
(dp1331
g155
Vhttp://t.co/6qhFhczLwK
p1332
sg157
Vhttp://bit.ly/1yFBTVo
p1333
sbasg143
I543280807058493440
sbsg30
Nsg31
(lp1334
(dp1335
Vsource_user_id
p1336
I2887666525
sVsource_status_id_str
p1337
V543280807058493440
p1338
sVexpanded_url
p1339
Vhttp://twitter.com/loverspoint2/status/543280807058493440/photo/1
p1340
sVdisplay_url
p1341
Vpic.twitter.com/fdXZbHV548
p1342
sVurl
p1343
Vhttp://t.co/fdXZbHV548
p1344
sVmedia_url_https
p1345
Vhttps://pbs.twimg.com/media/B4ofA_qCUAArzEb.jpg
p1346
sVsource_user_id_str
p1347
V2887666525
p1348
sVsource_status_id
p1349
I543280807058493440
sVid_str
p1350
V543280806999773184
p1351
sVsizes
p1352
(dp1353
Vlarge
p1354
(dp1355
Vh
p1356
I234
sVresize
p1357
Vfit
p1358
sVw
p1359
I468
ssVsmall
p1360
(dp1361
Vh
p1362
I170
sVresize
p1363
Vfit
p1364
sVw
p1365
I340
ssVmedium
p1366
(dp1367
Vh
p1368
I234
sVresize
p1369
Vfit
p1370
sVw
p1371
I468
ssVthumb
p1372
(dp1373
Vh
p1374
I150
sVresize
p1375
Vcrop
p1376
sVw
p1377
I150
sssVindices
p1378
(lp1379
I101
aI123
asVtype
p1380
Vphoto
p1381
sVid
p1382
I543280806999773184
sVmedia_url
p1383
Vhttp://pbs.twimg.com/media/B4ofA_qCUAArzEb.jpg
p1384
sasg77
Nsg78
Nsg79
Nsg80
VSun Dec 14 16:25:49 +0000 2014
p1385
sg82
Nsg83
I00
sg84
Nsg85
Nsg86
Nsg87
Nsg88
I00
sg89
Nsg90
(lp1386
g3
(g101
g5
Ntp1387
Rp1388
(dp1389
g10
Nsg106
Nsg108
Nsg110
Nsg111
Nsg112
Nsg80
Nsg114
Nsg115
Nsg117
Nsg119
Nsg120
Nsg121
Nsg122
Nsg123
Nsg124
Nsg126
Nsg127
Nsg128
Nsg130
Nsg131
Nsg132
Nsg134
Vloverspoint2
p1390
sg136
Nsg137
VLoverspoint
p1391
sg139
Nsg141
Nsg143
I2887666525
sg144
Nsbasg92
Nsg93
Nsg94
Nsg95
VRT @loverspoint2: Lazy Girls Solution to Longer Hair. Inches in Wks--&gt;&gt; http://t.co/6qhFhczLwK http://t.co/fdXZbHV548
p1392
sg97
I00
sg98
Ven
p1393
sg100
g3
(g101
g5
Ntp1394
Rp1395
(dp1396
g10
g105
sg106
V333333
p1397
sg108
Ven-gb
p1398
sg110
Nsg111
I31360
sg112
I7365
sg80
VThu Jul 24 11:00:43 +0000 2014
p1399
sg114
I00
sg115
VMeet New Friends, Lovers, Partners from all over the World Join Friend Finder for Free - Click Below
p1400
sg117
Vhttps://pbs.twimg.com/profile_images/505016486704861184/CXqJe3GX_normal.png
p1401
sg119
I116
sg120
I4
sg121
Nsg122
Nsg123
I00
sg124
Vhttps://pbs.twimg.com/profile_banners/2676514064/1409240244
p1402
sg126
I00
sg127
I00
sg128
V0084B4
p1403
sg130
I00
sg131
I00
sg132
Vhttp://abs.twimg.com/images/themes/theme1/bg.png
p1404
sg134
VMeetNewMates
p1405
sg136
I24
sg137
VFriendFinder
p1406
sg139
VDDEEF6
p1407
sg141
Vhttp://t.co/iqkUUg5zN9
p1408
sg143
I2676514064
sg144
VC0DEED
p1409
sbsg146
I161
sg147
V<a href="http://twitter.com/download/iphone" rel="nofollow">Twitter for iPhone</a>
p1410
sg149
(lp1411
g3
(g151
g5
Ntp1412
Rp1413
(dp1414
g155
Vhttp://t.co/6qhFhczLwK
p1415
sg157
Vhttp://bit.ly/1yFBTVo
p1416
sbasg143
I544166379394707456
sbag3
(g4
g5
Ntp1417
Rp1418
(dp1419
g9
I0
sg10
Nsg11
Nsg12
(lp1420
sg28
I00
sg29
g3
(g4
g5
Ntp1421
Rp1422
(dp1423
g9
I119
sg10
Nsg11
Nsg12
(lp1424
sg28
I00
sg29
Nsg30
Nsg31
(lp1425
(dp1426
Vexpanded_url
p1427
Vhttp://twitter.com/loverspoint2/status/543281901851537409/photo/1
p1428
sVdisplay_url
p1429
Vpic.twitter.com/CSuEycrMvC
p1430
sVurl
p1431
Vhttp://t.co/CSuEycrMvC
p1432
sVmedia_url_https
p1433
Vhttps://pbs.twimg.com/media/B4ogAt7CUAAX830.jpg
p1434
sVid_str
p1435
V543281901750865920
p1436
sVsizes
p1437
(dp1438
Vlarge
p1439
(dp1440
Vh
p1441
I400
sVresize
p1442
Vfit
p1443
sVw
p1444
I800
ssVsmall
p1445
(dp1446
Vh
p1447
I170
sVresize
p1448
Vfit
p1449
sVw
p1450
I340
ssVmedium
p1451
(dp1452
Vh
p1453
I300
sVresize
p1454
Vfit
p1455
sVw
p1456
I600
ssVthumb
p1457
(dp1458
Vh
p1459
I150
sVresize
p1460
Vcrop
p1461
sVw
p1462
I150
sssVindices
p1463
(lp1464
I110
aI132
asVtype
p1465
Vphoto
p1466
sVid
p1467
I543281901750865920
sVmedia_url
p1468
Vhttp://pbs.twimg.com/media/B4ogAt7CUAAX830.jpg
p1469
sasg77
Nsg78
Nsg79
Nsg80
VFri Dec 12 05:51:13 +0000 2014
p1470
sg82
Nsg83
I00
sg84
Nsg85
Nsg86
Nsg87
Nsg88
I00
sg89
Nsg90
(lp1471
sg92
Nsg93
Nsg94
Nsg95
VGrow Long Natural Hair In '3' Weeks. Women Have Been Waiting for This For a LONG time. http://t.co/5xV2GdF7Hq http://t.co/CSuEycrMvC
p1472
sg97
I00
sg98
Ven
p1473
sg100
g3
(g101
g5
Ntp1474
Rp1475
(dp1476
g10
g105
sg106
V333333
p1477
sg108
Ven
p1478
sg110
Nsg111
I15321
sg112
I66
sg80
VSun Nov 02 16:32:20 +0000 2014
p1479
sg114
I00
sg115
g105
sg117
Vhttps://pbs.twimg.com/profile_images/528953548852064256/wFuOVa4v_normal.jpeg
p1480
sg119
I14307
sg120
I4
sg121
Nsg122
Nsg123
I00
sg124
Vhttps://pbs.twimg.com/profile_banners/2887666525/1414947497
p1481
sg126
I00
sg127
I00
sg128
V0084B4
p1482
sg130
I00
sg131
I00
sg132
Vhttp://abs.twimg.com/images/themes/theme1/bg.png
p1483
sg134
Vloverspoint2
p1484
sg136
I4
sg137
VLoverspoint
p1485
sg139
VDDEEF6
p1486
sg141
Nsg143
I2887666525
sg144
VC0DEED
p1487
sbsg146
I181
sg147
V<a href="http://hashtagads.com" rel="nofollow">Hash_Tag_Ads</a>
p1488
sg149
(lp1489
g3
(g151
g5
Ntp1490
Rp1491
(dp1492
g155
Vhttp://t.co/5xV2GdF7Hq
p1493
sg157
Vhttp://bit.ly/1yFClTB
p1494
sbasg143
I543281901851537409
sbsg30
Nsg31
(lp1495
(dp1496
Vsource_user_id
p1497
I2887666525
sVsource_status_id_str
p1498
V543281901851537409
p1499
sVexpanded_url
p1500
Vhttp://twitter.com/loverspoint2/status/543281901851537409/photo/1
p1501
sVdisplay_url
p1502
Vpic.twitter.com/CSuEycrMvC
p1503
sVurl
p1504
Vhttp://t.co/CSuEycrMvC
p1505
sVmedia_url_https
p1506
Vhttps://pbs.twimg.com/media/B4ogAt7CUAAX830.jpg
p1507
sVsource_user_id_str
p1508
V2887666525
p1509
sVsource_status_id
p1510
I543281901851537409
sVid_str
p1511
V543281901750865920
p1512
sVsizes
p1513
(dp1514
Vlarge
p1515
(dp1516
Vh
p1517
I400
sVresize
p1518
Vfit
p1519
sVw
p1520
I800
ssVsmall
p1521
(dp1522
Vh
p1523
I170
sVresize
p1524
Vfit
p1525
sVw
p1526
I340
ssVmedium
p1527
(dp1528
Vh
p1529
I300
sVresize
p1530
Vfit
p1531
sVw
p1532
I600
ssVthumb
p1533
(dp1534
Vh
p1535
I150
sVresize
p1536
Vcrop
p1537
sVw
p1538
I150
sssVindices
p1539
(lp1540
I139
aI140
asVtype
p1541
Vphoto
p1542
sVid
p1543
I543281901750865920
sVmedia_url
p1544
Vhttp://pbs.twimg.com/media/B4ogAt7CUAAX830.jpg
p1545
sasg77
Nsg78
Nsg79
Nsg80
VSun Dec 14 16:25:45 +0000 2014
p1546
sg82
Nsg83
I00
sg84
Nsg85
Nsg86
Nsg87
Nsg88
I00
sg89
Nsg90
(lp1547
g3
(g101
g5
Ntp1548
Rp1549
(dp1550
g10
Nsg106
Nsg108
Nsg110
Nsg111
Nsg112
Nsg80
Nsg114
Nsg115
Nsg117
Nsg119
Nsg120
Nsg121
Nsg122
Nsg123
Nsg124
Nsg126
Nsg127
Nsg128
Nsg130
Nsg131
Nsg132
Nsg134
Vloverspoint2
p1551
sg136
Nsg137
VLoverspoint
p1552
sg139
Nsg141
Nsg143
I2887666525
sg144
Nsbasg92
Nsg93
Nsg94
Nsg95
VRT @loverspoint2: Grow Long Natural Hair In '3' Weeks. Women Have Been Waiting for This For a LONG time. http://t.co/5xV2GdF7Hq http://t.co\u2026
p1553
sg97
I00
sg98
Ven
p1554
sg100
g3
(g101
g5
Ntp1555
Rp1556
(dp1557
g10
g105
sg106
V333333
p1558
sg108
Ven-gb
p1559
sg110
Nsg111
I31360
sg112
I7365
sg80
VThu Jul 24 11:00:43 +0000 2014
p1560
sg114
I00
sg115
VMeet New Friends, Lovers, Partners from all over the World Join Friend Finder for Free - Click Below
p1561
sg117
Vhttps://pbs.twimg.com/profile_images/505016486704861184/CXqJe3GX_normal.png
p1562
sg119
I116
sg120
I4
sg121
Nsg122
Nsg123
I00
sg124
Vhttps://pbs.twimg.com/profile_banners/2676514064/1409240244
p1563
sg126
I00
sg127
I00
sg128
V0084B4
p1564
sg130
I00
sg131
I00
sg132
Vhttp://abs.twimg.com/images/themes/theme1/bg.png
p1565
sg134
VMeetNewMates
p1566
sg136
I24
sg137
VFriendFinder
p1567
sg139
VDDEEF6
p1568
sg141
Vhttp://t.co/iqkUUg5zN9
p1569
sg143
I2676514064
sg144
VC0DEED
p1570
sbsg146
I181
sg147
V<a href="http://twitter.com/download/iphone" rel="nofollow">Twitter for iPhone</a>
p1571
sg149
(lp1572
g3
(g151
g5
Ntp1573
Rp1574
(dp1575
g155
Vhttp://t.co/5xV2GdF7Hq
p1576
sg157
Vhttp://bit.ly/1yFClTB
p1577
sbasg143
I544166360000237568
sbag3
(g4
g5
Ntp1578
Rp1579
(dp1580
g9
I0
sg10
Nsg11
Nsg12
(lp1581
sg28
I00
sg29
g3
(g4
g5
Ntp1582
Rp1583
(dp1584
g9
I111
sg10
Nsg11
Nsg12
(lp1585
sg28
I00
sg29
Nsg30
Nsg31
(lp1586
(dp1587
Vexpanded_url
p1588
Vhttp://twitter.com/loverspoint2/status/543376812613435392/photo/1
p1589
sVdisplay_url
p1590
Vpic.twitter.com/ja0El6vjE5
p1591
sVurl
p1592
Vhttp://t.co/ja0El6vjE5
p1593
sVmedia_url_https
p1594
Vhttps://pbs.twimg.com/media/B4p2VQJCUAE9_Fu.jpg
p1595
sVid_str
p1596
V543376812533764097
p1597
sVsizes
p1598
(dp1599
Vlarge
p1600
(dp1601
Vh
p1602
I300
sVresize
p1603
Vfit
p1604
sVw
p1605
I600
ssVsmall
p1606
(dp1607
Vh
p1608
I170
sVresize
p1609
Vfit
p1610
sVw
p1611
I340
ssVmedium
p1612
(dp1613
Vh
p1614
I300
sVresize
p1615
Vfit
p1616
sVw
p1617
I600
ssVthumb
p1618
(dp1619
Vh
p1620
I150
sVresize
p1621
Vcrop
p1622
sVw
p1623
I150
sssVindices
p1624
(lp1625
I118
aI140
asVtype
p1626
Vphoto
p1627
sVid
p1628
I543376812533764097
sVmedia_url
p1629
Vhttp://pbs.twimg.com/media/B4p2VQJCUAE9_Fu.jpg
p1630
sasg77
Nsg78
Nsg79
Nsg80
VFri Dec 12 12:08:22 +0000 2014
p1631
sg82
Nsg83
I00
sg84
Nsg85
Nsg86
Nsg87
Nsg88
I00
sg89
Nsg90
(lp1632
sg92
Nsg93
Nsg94
Nsg95
VFinally A Trick That Even The Celebrties Don't Yet. This Secret Will Grow Hair Inches In Weeks http://t.co/8T77s5B6z9 http://t.co/ja0El6vjE5
p1633
sg97
I00
sg98
Ven
p1634
sg100
g3
(g101
g5
Ntp1635
Rp1636
(dp1637
g10
g105
sg106
V333333
p1638
sg108
Ven
p1639
sg110
Nsg111
I15321
sg112
I66
sg80
VSun Nov 02 16:32:20 +0000 2014
p1640
sg114
I00
sg115
g105
sg117
Vhttps://pbs.twimg.com/profile_images/528953548852064256/wFuOVa4v_normal.jpeg
p1641
sg119
I14307
sg120
I4
sg121
Nsg122
Nsg123
I00
sg124
Vhttps://pbs.twimg.com/profile_banners/2887666525/1414947497
p1642
sg126
I00
sg127
I00
sg128
V0084B4
p1643
sg130
I00
sg131
I00
sg132
Vhttp://abs.twimg.com/images/themes/theme1/bg.png
p1644
sg134
Vloverspoint2
p1645
sg136
I4
sg137
VLoverspoint
p1646
sg139
VDDEEF6
p1647
sg141
Nsg143
I2887666525
sg144
VC0DEED
p1648
sbsg146
I233
sg147
V<a href="http://hashtagads.com" rel="nofollow">Hash_Tag_Ads</a>
p1649
sg149
(lp1650
g3
(g151
g5
Ntp1651
Rp1652
(dp1653
g155
Vhttp://t.co/8T77s5B6z9
p1654
sg157
Vhttp://bit.ly/1uvG6K4
p1655
sbasg143
I543376812613435392
sbsg30
Nsg31
(lp1656
(dp1657
Vsource_user_id
p1658
I2887666525
sVsource_status_id_str
p1659
V543376812613435392
p1660
sVexpanded_url
p1661
Vhttp://twitter.com/loverspoint2/status/543376812613435392/photo/1
p1662
sVdisplay_url
p1663
Vpic.twitter.com/ja0El6vjE5
p1664
sVurl
p1665
Vhttp://t.co/ja0El6vjE5
p1666
sVmedia_url_https
p1667
Vhttps://pbs.twimg.com/media/B4p2VQJCUAE9_Fu.jpg
p1668
sVsource_user_id_str
p1669
V2887666525
p1670
sVsource_status_id
p1671
I543376812613435392
sVid_str
p1672
V543376812533764097
p1673
sVsizes
p1674
(dp1675
Vlarge
p1676
(dp1677
Vh
p1678
I300
sVresize
p1679
Vfit
p1680
sVw
p1681
I600
ssVsmall
p1682
(dp1683
Vh
p1684
I170
sVresize
p1685
Vfit
p1686
sVw
p1687
I340
ssVmedium
p1688
(dp1689
Vh
p1690
I300
sVresize
p1691
Vfit
p1692
sVw
p1693
I600
ssVthumb
p1694
(dp1695
Vh
p1696
I150
sVresize
p1697
Vcrop
p1698
sVw
p1699
I150
sssVindices
p1700
(lp1701
I139
aI140
asVtype
p1702
Vphoto
p1703
sVid
p1704
I543376812533764097
sVmedia_url
p1705
Vhttp://pbs.twimg.com/media/B4p2VQJCUAE9_Fu.jpg
p1706
sasg77
Nsg78
Nsg79
Nsg80
VSun Dec 14 16:25:41 +0000 2014
p1707
sg82
Nsg83
I00
sg84
Nsg85
Nsg86
Nsg87
Nsg88
I00
sg89
Nsg90
(lp1708
g3
(g101
g5
Ntp1709
Rp1710
(dp1711
g10
Nsg106
Nsg108
Nsg110
Nsg111
Nsg112
Nsg80
Nsg114
Nsg115
Nsg117
Nsg119
Nsg120
Nsg121
Nsg122
Nsg123
Nsg124
Nsg126
Nsg127
Nsg128
Nsg130
Nsg131
Nsg132
Nsg134
Vloverspoint2
p1712
sg136
Nsg137
VLoverspoint
p1713
sg139
Nsg141
Nsg143
I2887666525
sg144
Nsbasg92
Nsg93
Nsg94
Nsg95
VRT @loverspoint2: Finally A Trick That Even The Celebrties Don't Yet. This Secret Will Grow Hair Inches In Weeks http://t.co/8T77s5B6z9 htt\u2026
p1714
sg97
I00
sg98
Ven
p1715
sg100
g3
(g101
g5
Ntp1716
Rp1717
(dp1718
g10
g105
sg106
V333333
p1719
sg108
Ven-gb
p1720
sg110
Nsg111
I31360
sg112
I7365
sg80
VThu Jul 24 11:00:43 +0000 2014
p1721
sg114
I00
sg115
VMeet New Friends, Lovers, Partners from all over the World Join Friend Finder for Free - Click Below
p1722
sg117
Vhttps://pbs.twimg.com/profile_images/505016486704861184/CXqJe3GX_normal.png
p1723
sg119
I116
sg120
I4
sg121
Nsg122
Nsg123
I00
sg124
Vhttps://pbs.twimg.com/profile_banners/2676514064/1409240244
p1724
sg126
I00
sg127
I00
sg128
V0084B4
p1725
sg130
I00
sg131
I00
sg132
Vhttp://abs.twimg.com/images/themes/theme1/bg.png
p1726
sg134
VMeetNewMates
p1727
sg136
I24
sg137
VFriendFinder
p1728
sg139
VDDEEF6
p1729
sg141
Vhttp://t.co/iqkUUg5zN9
p1730
sg143
I2676514064
sg144
VC0DEED
p1731
sbsg146
I233
sg147
V<a href="http://twitter.com/download/iphone" rel="nofollow">Twitter for iPhone</a>
p1732
sg149
(lp1733
g3
(g151
g5
Ntp1734
Rp1735
(dp1736
g155
Vhttp://t.co/8T77s5B6z9
p1737
sg157
Vhttp://bit.ly/1uvG6K4
p1738
sbasg143
I544166345051754496
sbag3
(g4
g5
Ntp1739
Rp1740
(dp1741
g9
I0
sg10
Nsg11
Nsg12
(lp1742
sg28
I00
sg29
g3
(g4
g5
Ntp1743
Rp1744
(dp1745
g9
I39
sg10
Nsg11
Nsg12
(lp1746
sg28
I00
sg29
Nsg30
Nsg31
(lp1747
(dp1748
Vexpanded_url
p1749
Vhttp://twitter.com/google_usa2014/status/543583678735986688/photo/1
p1750
sVdisplay_url
p1751
Vpic.twitter.com/ohDzjq96ms
p1752
sVurl
p1753
Vhttp://t.co/ohDzjq96ms
p1754
sVmedia_url_https
p1755
Vhttps://pbs.twimg.com/media/B4syaXhCMAAWM1M.jpg
p1756
sVid_str
p1757
V543583608598835200
p1758
sVsizes
p1759
(dp1760
Vlarge
p1761
(dp1762
Vh
p1763
I720
sVresize
p1764
Vfit
p1765
sVw
p1766
I480
ssVsmall
p1767
(dp1768
Vh
p1769
I510
sVresize
p1770
Vfit
p1771
sVw
p1772
I340
ssVmedium
p1773
(dp1774
Vh
p1775
I720
sVresize
p1776
Vfit
p1777
sVw
p1778
I480
ssVthumb
p1779
(dp1780
Vh
p1781
I150
sVresize
p1782
Vcrop
p1783
sVw
p1784
I150
sssVindices
p1785
(lp1786
I50
aI72
asVtype
p1787
Vphoto
p1788
sVid
p1789
I543583608598835200
sVmedia_url
p1790
Vhttp://pbs.twimg.com/media/B4syaXhCMAAWM1M.jpg
p1791
sasg77
Nsg78
Nsg79
Nsg80
VSat Dec 13 01:50:22 +0000 2014
p1792
sg82
Nsg83
I00
sg84
Nsg85
Nsg86
Nsg87
Nsg88
I00
sg89
Nsg90
(lp1793
sg92
Nsg93
Nsg94
Nsg95
VTinder Bots Need Some Work http://t.co/7rs18DX0cX http://t.co/ohDzjq96ms
p1794
sg97
I00
sg98
Ven
p1795
sg100
g3
(g101
g5
Ntp1796
Rp1797
(dp1798
g10
VUSA
p1799
sg106
V333333
p1800
sg108
Ven
p1801
sg110
Nsg111
I1235
sg112
I118
sg80
VSat Nov 29 21:07:04 +0000 2014
p1802
sg114
I00
sg115
g105
sg117
Vhttps://pbs.twimg.com/profile_images/538980331508887552/GzlROeM-_normal.jpeg
p1803
sg119
I536
sg120
I8
sg121
Nsg122
Nsg123
I00
sg124
Vhttps://pbs.twimg.com/profile_banners/2914120729/1417337897
p1804
sg126
I00
sg127
I00
sg128
V0084B4
p1805
sg130
I00
sg131
I00
sg132
Vhttp://abs.twimg.com/images/themes/theme1/bg.png
p1806
sg134
Vgoogle_usa2014
p1807
sg136
I7
sg137
Vgoogle\u2601
p1808
sg139
VDDEEF6
p1809
sg141
Nsg143
I2914120729
sg144
VC0DEED
p1810
sbsg146
I29
sg147
V<a href="http://twitter.com/download/android" rel="nofollow">Twitter for Android</a>
p1811
sg149
(lp1812
g3
(g151
g5
Ntp1813
Rp1814
(dp1815
g155
Vhttp://t.co/7rs18DX0cX
p1816
sg157
Vhttp://ujjwal-karmakar.viralgalleries.me/tinder-bots-need-some-work-1
p1817
sbasg143
I543583678735986688
sbsg30
Nsg31
(lp1818
(dp1819
Vsource_user_id
p1820
I2914120729
sVsource_status_id_str
p1821
V543583678735986688
p1822
sVexpanded_url
p1823
Vhttp://twitter.com/google_usa2014/status/543583678735986688/photo/1
p1824
sVdisplay_url
p1825
Vpic.twitter.com/ohDzjq96ms
p1826
sVurl
p1827
Vhttp://t.co/ohDzjq96ms
p1828
sVmedia_url_https
p1829
Vhttps://pbs.twimg.com/media/B4syaXhCMAAWM1M.jpg
p1830
sVsource_user_id_str
p1831
V2914120729
p1832
sVsource_status_id
p1833
I543583678735986688
sVid_str
p1834
V543583608598835200
p1835
sVsizes
p1836
(dp1837
Vlarge
p1838
(dp1839
Vh
p1840
I720
sVresize
p1841
Vfit
p1842
sVw
p1843
I480
ssVsmall
p1844
(dp1845
Vh
p1846
I510
sVresize
p1847
Vfit
p1848
sVw
p1849
I340
ssVmedium
p1850
(dp1851
Vh
p1852
I720
sVresize
p1853
Vfit
p1854
sVw
p1855
I480
ssVthumb
p1856
(dp1857
Vh
p1858
I150
sVresize
p1859
Vcrop
p1860
sVw
p1861
I150
sssVindices
p1862
(lp1863
I70
aI92
asVtype
p1864
Vphoto
p1865
sVid
p1866
I543583608598835200
sVmedia_url
p1867
Vhttp://pbs.twimg.com/media/B4syaXhCMAAWM1M.jpg
p1868
sasg77
Nsg78
Nsg79
Nsg80
VSun Dec 14 16:25:16 +0000 2014
p1869
sg82
Nsg83
I00
sg84
Nsg85
Nsg86
Nsg87
Nsg88
I00
sg89
Nsg90
(lp1870
g3
(g101
g5
Ntp1871
Rp1872
(dp1873
g10
Nsg106
Nsg108
Nsg110
Nsg111
Nsg112
Nsg80
Nsg114
Nsg115
Nsg117
Nsg119
Nsg120
Nsg121
Nsg122
Nsg123
Nsg124
Nsg126
Nsg127
Nsg128
Nsg130
Nsg131
Nsg132
Nsg134
Vgoogle_usa2014
p1874
sg136
Nsg137
Vgoogle\u2601
p1875
sg139
Nsg141
Nsg143
I2914120729
sg144
Nsbasg92
Nsg93
Nsg94
Nsg95
VRT @google_usa2014: Tinder Bots Need Some Work http://t.co/7rs18DX0cX http://t.co/ohDzjq96ms
p1876
sg97
I00
sg98
Ven
p1877
sg100
g3
(g101
g5
Ntp1878
Rp1879
(dp1880
g10
g105
sg106
V333333
p1881
sg108
Ven-gb
p1882
sg110
Nsg111
I31360
sg112
I7365
sg80
VThu Jul 24 11:00:43 +0000 2014
p1883
sg114
I00
sg115
VMeet New Friends, Lovers, Partners from all over the World Join Friend Finder for Free - Click Below
p1884
sg117
Vhttps://pbs.twimg.com/profile_images/505016486704861184/CXqJe3GX_normal.png
p1885
sg119
I116
sg120
I4
sg121
Nsg122
Nsg123
I00
sg124
Vhttps://pbs.twimg.com/profile_banners/2676514064/1409240244
p1886
sg126
I00
sg127
I00
sg128
V0084B4
p1887
sg130
I00
sg131
I00
sg132
Vhttp://abs.twimg.com/images/themes/theme1/bg.png
p1888
sg134
VMeetNewMates
p1889
sg136
I24
sg137
VFriendFinder
p1890
sg139
VDDEEF6
p1891
sg141
Vhttp://t.co/iqkUUg5zN9
p1892
sg143
I2676514064
sg144
VC0DEED
p1893
sbsg146
I29
sg147
V<a href="http://twitter.com/download/iphone" rel="nofollow">Twitter for iPhone</a>
p1894
sg149
(lp1895
g3
(g151
g5
Ntp1896
Rp1897
(dp1898
g155
Vhttp://t.co/7rs18DX0cX
p1899
sg157
Vhttp://ujjwal-karmakar.viralgalleries.me/tinder-bots-need-some-work-1
p1900
sbasg143
I544166241976741888
sbag3
(g4
g5
Ntp1901
Rp1902
(dp1903
g9
I0
sg10
Nsg11
Nsg12
(lp1904
sg28
I00
sg29
g3
(g4
g5
Ntp1905
Rp1906
(dp1907
g9
I35
sg10
Nsg11
Nsg12
(lp1908
sg28
I00
sg29
Nsg30
Nsg31
(lp1909
(dp1910
Vexpanded_url
p1911
Vhttp://twitter.com/google_usa2014/status/543584045980868608/photo/1
p1912
sVdisplay_url
p1913
Vpic.twitter.com/VKyikcUz7R
p1914
sVurl
p1915
Vhttp://t.co/VKyikcUz7R
p1916
sVmedia_url_https
p1917
Vhttps://pbs.twimg.com/media/B4sywvuCYAEAra-.jpg
p1918
sVid_str
p1919
V543583993052946433
p1920
sVsizes
p1921
(dp1922
Vsmall
p1923
(dp1924
Vh
p1925
I495
sVresize
p1926
Vfit
p1927
sVw
p1928
I340
ssVlarge
p1929
(dp1930
Vh
p1931
I671
sVresize
p1932
Vfit
p1933
sVw
p1934
I460
ssVmedium
p1935
(dp1936
Vh
p1937
I671
sVresize
p1938
Vfit
p1939
sVw
p1940
I460
ssVthumb
p1941
(dp1942
Vh
p1943
I150
sVresize
p1944
Vcrop
p1945
sVw
p1946
I150
sssVindices
p1947
(lp1948
I49
aI71
asVtype
p1949
Vphoto
p1950
sVid
p1951
I543583993052946433
sVmedia_url
p1952
Vhttp://pbs.twimg.com/media/B4sywvuCYAEAra-.jpg
p1953
sasg77
Nsg78
Nsg79
Nsg80
VSat Dec 13 01:51:50 +0000 2014
p1954
sg82
Nsg83
I00
sg84
Nsg85
Nsg86
Nsg87
Nsg88
I00
sg89
Nsg90
(lp1955
sg92
Nsg93
Nsg94
Nsg95
VShocking Sex Tips For Men http://t.co/W71N1vIaoV http://t.co/VKyikcUz7R
p1956
sg97
I00
sg98
Ven
p1957
sg100
g3
(g101
g5
Ntp1958
Rp1959
(dp1960
g10
VUSA
p1961
sg106
V333333
p1962
sg108
Ven
p1963
sg110
Nsg111
I1235
sg112
I118
sg80
VSat Nov 29 21:07:04 +0000 2014
p1964
sg114
I00
sg115
g105
sg117
Vhttps://pbs.twimg.com/profile_images/538980331508887552/GzlROeM-_normal.jpeg
p1965
sg119
I536
sg120
I8
sg121
Nsg122
Nsg123
I00
sg124
Vhttps://pbs.twimg.com/profile_banners/2914120729/1417337897
p1966
sg126
I00
sg127
I00
sg128
V0084B4
p1967
sg130
I00
sg131
I00
sg132
Vhttp://abs.twimg.com/images/themes/theme1/bg.png
p1968
sg134
Vgoogle_usa2014
p1969
sg136
I7
sg137
Vgoogle\u2601
p1970
sg139
VDDEEF6
p1971
sg141
Nsg143
I2914120729
sg144
VC0DEED
p1972
sbsg146
I29
sg147
V<a href="http://twitter.com/download/android" rel="nofollow">Twitter for Android</a>
p1973
sg149
(lp1974
g3
(g151
g5
Ntp1975
Rp1976
(dp1977
g155
Vhttp://t.co/W71N1vIaoV
p1978
sg157
Vhttp://ujjwal-karmakar.viralgalleries.me/shocking-sex-tips-for-men
p1979
sbasg143
I543584045980868608
sbsg30
Nsg31
(lp1980
(dp1981
Vsource_user_id
p1982
I2914120729
sVsource_status_id_str
p1983
V543584045980868608
p1984
sVexpanded_url
p1985
Vhttp://twitter.com/google_usa2014/status/543584045980868608/photo/1
p1986
sVdisplay_url
p1987
Vpic.twitter.com/VKyikcUz7R
p1988
sVurl
p1989
Vhttp://t.co/VKyikcUz7R
p1990
sVmedia_url_https
p1991
Vhttps://pbs.twimg.com/media/B4sywvuCYAEAra-.jpg
p1992
sVsource_user_id_str
p1993
V2914120729
p1994
sVsource_status_id
p1995
I543584045980868608
sVid_str
p1996
V543583993052946433
p1997
sVsizes
p1998
(dp1999
Vsmall
p2000
(dp2001
Vh
p2002
I495
sVresize
p2003
Vfit
p2004
sVw
p2005
I340
ssVlarge
p2006
(dp2007
Vh
p2008
I671
sVresize
p2009
Vfit
p2010
sVw
p2011
I460
ssVmedium
p2012
(dp2013
Vh
p2014
I671
sVresize
p2015
Vfit
p2016
sVw
p2017
I460
ssVthumb
p2018
(dp2019
Vh
p2020
I150
sVresize
p2021
Vcrop
p2022
sVw
p2023
I150
sssVindices
p2024
(lp2025
I69
aI91
asVtype
p2026
Vphoto
p2027
sVid
p2028
I543583993052946433
sVmedia_url
p2029
Vhttp://pbs.twimg.com/media/B4sywvuCYAEAra-.jpg
p2030
sasg77
Nsg78
Nsg79
Nsg80
VSun Dec 14 16:25:13 +0000 2014
p2031
sg82
Nsg83
I00
sg84
Nsg85
Nsg86
Nsg87
Nsg88
I00
sg89
Nsg90
(lp2032
g3
(g101
g5
Ntp2033
Rp2034
(dp2035
g10
Nsg106
Nsg108
Nsg110
Nsg111
Nsg112
Nsg80
Nsg114
Nsg115
Nsg117
Nsg119
Nsg120
Nsg121
Nsg122
Nsg123
Nsg124
Nsg126
Nsg127
Nsg128
Nsg130
Nsg131
Nsg132
Nsg134
Vgoogle_usa2014
p2036
sg136
Nsg137
Vgoogle\u2601
p2037
sg139
Nsg141
Nsg143
I2914120729
sg144
Nsbasg92
Nsg93
Nsg94
Nsg95
VRT @google_usa2014: Shocking Sex Tips For Men http://t.co/W71N1vIaoV http://t.co/VKyikcUz7R
p2038
sg97
I00
sg98
Ven
p2039
sg100
g3
(g101
g5
Ntp2040
Rp2041
(dp2042
g10
g105
sg106
V333333
p2043
sg108
Ven-gb
p2044
sg110
Nsg111
I31360
sg112
I7365
sg80
VThu Jul 24 11:00:43 +0000 2014
p2045
sg114
I00
sg115
VMeet New Friends, Lovers, Partners from all over the World Join Friend Finder for Free - Click Below
p2046
sg117
Vhttps://pbs.twimg.com/profile_images/505016486704861184/CXqJe3GX_normal.png
p2047
sg119
I116
sg120
I4
sg121
Nsg122
Nsg123
I00
sg124
Vhttps://pbs.twimg.com/profile_banners/2676514064/1409240244
p2048
sg126
I00
sg127
I00
sg128
V0084B4
p2049
sg130
I00
sg131
I00
sg132
Vhttp://abs.twimg.com/images/themes/theme1/bg.png
p2050
sg134
VMeetNewMates
p2051
sg136
I24
sg137
VFriendFinder
p2052
sg139
VDDEEF6
p2053
sg141
Vhttp://t.co/iqkUUg5zN9
p2054
sg143
I2676514064
sg144
VC0DEED
p2055
sbsg146
I29
sg147
V<a href="http://twitter.com/download/iphone" rel="nofollow">Twitter for iPhone</a>
p2056
sg149
(lp2057
g3
(g151
g5
Ntp2058
Rp2059
(dp2060
g155
Vhttp://t.co/W71N1vIaoV
p2061
sg157
Vhttp://ujjwal-karmakar.viralgalleries.me/shocking-sex-tips-for-men
p2062
sbasg143
I544166227489591296
sbag3
(g4
g5
Ntp2063
Rp2064
(dp2065
g9
I0
sg10
Nsg11
Nsg12
(lp2066
sg28
I00
sg29
g3
(g4
g5
Ntp2067
Rp2068
(dp2069
g9
I37
sg10
Nsg11
Nsg12
(lp2070
sg28
I00
sg29
Nsg30
Nsg31
(lp2071
(dp2072
Vexpanded_url
p2073
Vhttp://twitter.com/google_usa2014/status/543584297194504192/photo/1
p2074
sVdisplay_url
p2075
Vpic.twitter.com/JbRx58wnuX
p2076
sVurl
p2077
Vhttp://t.co/JbRx58wnuX
p2078
sVmedia_url_https
p2079
Vhttps://pbs.twimg.com/media/B4szCOLCIAAz4co.jpg
p2080
sVid_str
p2081
V543584293285404672
p2082
sVsizes
p2083
(dp2084
Vsmall
p2085
(dp2086
Vh
p2087
I339
sVresize
p2088
Vfit
p2089
sVw
p2090
I340
ssVlarge
p2091
(dp2092
Vh
p2093
I453
sVresize
p2094
Vfit
p2095
sVw
p2096
I454
ssVmedium
p2097
(dp2098
Vh
p2099
I453
sVresize
p2100
Vfit
p2101
sVw
p2102
I454
ssVthumb
p2103
(dp2104
Vh
p2105
I150
sVresize
p2106
Vcrop
p2107
sVw
p2108
I150
sssVindices
p2109
(lp2110
I74
aI96
asVtype
p2111
Vphoto
p2112
sVid
p2113
I543584293285404672
sVmedia_url
p2114
Vhttp://pbs.twimg.com/media/B4szCOLCIAAz4co.jpg
p2115
sasg77
Nsg78
Nsg79
Nsg80
VSat Dec 13 01:52:50 +0000 2014
p2116
sg82
Nsg83
I00
sg84
Nsg85
Nsg86
Nsg87
Nsg88
I00
sg89
Nsg90
(lp2117
sg92
Nsg93
Nsg94
Nsg95
VYeah... never as good as it looks in the magazine. http://t.co/GtXq4kOEG9 http://t.co/JbRx58wnuX
p2118
sg97
I00
sg98
Ven
p2119
sg100
g3
(g101
g5
Ntp2120
Rp2121
(dp2122
g10
VUSA
p2123
sg106
V333333
p2124
sg108
Ven
p2125
sg110
Nsg111
I1235
sg112
I118
sg80
VSat Nov 29 21:07:04 +0000 2014
p2126
sg114
I00
sg115
g105
sg117
Vhttps://pbs.twimg.com/profile_images/538980331508887552/GzlROeM-_normal.jpeg
p2127
sg119
I536
sg120
I8
sg121
Nsg122
Nsg123
I00
sg124
Vhttps://pbs.twimg.com/profile_banners/2914120729/1417337897
p2128
sg126
I00
sg127
I00
sg128
V0084B4
p2129
sg130
I00
sg131
I00
sg132
Vhttp://abs.twimg.com/images/themes/theme1/bg.png
p2130
sg134
Vgoogle_usa2014
p2131
sg136
I7
sg137
Vgoogle\u2601
p2132
sg139
VDDEEF6
p2133
sg141
Nsg143
I2914120729
sg144
VC0DEED
p2134
sbsg146
I48
sg147
V<a href="http://twitter.com/download/android" rel="nofollow">Twitter for Android</a>
p2135
sg149
(lp2136
g3
(g151
g5
Ntp2137
Rp2138
(dp2139
g155
Vhttp://t.co/GtXq4kOEG9
p2140
sg157
Vhttp://ujjwal-karmakar.viralgalleries.me/sex-positions-expectation-vs-reality
p2141
sbasg143
I543584297194504192
sbsg30
Nsg31
(lp2142
(dp2143
Vsource_user_id
p2144
I2914120729
sVsource_status_id_str
p2145
V543584297194504192
p2146
sVexpanded_url
p2147
Vhttp://twitter.com/google_usa2014/status/543584297194504192/photo/1
p2148
sVdisplay_url
p2149
Vpic.twitter.com/JbRx58wnuX
p2150
sVurl
p2151
Vhttp://t.co/JbRx58wnuX
p2152
sVmedia_url_https
p2153
Vhttps://pbs.twimg.com/media/B4szCOLCIAAz4co.jpg
p2154
sVsource_user_id_str
p2155
V2914120729
p2156
sVsource_status_id
p2157
I543584297194504192
sVid_str
p2158
V543584293285404672
p2159
sVsizes
p2160
(dp2161
Vsmall
p2162
(dp2163
Vh
p2164
I339
sVresize
p2165
Vfit
p2166
sVw
p2167
I340
ssVlarge
p2168
(dp2169
Vh
p2170
I453
sVresize
p2171
Vfit
p2172
sVw
p2173
I454
ssVmedium
p2174
(dp2175
Vh
p2176
I453
sVresize
p2177
Vfit
p2178
sVw
p2179
I454
ssVthumb
p2180
(dp2181
Vh
p2182
I150
sVresize
p2183
Vcrop
p2184
sVw
p2185
I150
sssVindices
p2186
(lp2187
I94
aI116
asVtype
p2188
Vphoto
p2189
sVid
p2190
I543584293285404672
sVmedia_url
p2191
Vhttp://pbs.twimg.com/media/B4szCOLCIAAz4co.jpg
p2192
sasg77
Nsg78
Nsg79
Nsg80
VSun Dec 14 16:25:10 +0000 2014
p2193
sg82
Nsg83
I00
sg84
Nsg85
Nsg86
Nsg87
Nsg88
I00
sg89
Nsg90
(lp2194
g3
(g101
g5
Ntp2195
Rp2196
(dp2197
g10
Nsg106
Nsg108
Nsg110
Nsg111
Nsg112
Nsg80
Nsg114
Nsg115
Nsg117
Nsg119
Nsg120
Nsg121
Nsg122
Nsg123
Nsg124
Nsg126
Nsg127
Nsg128
Nsg130
Nsg131
Nsg132
Nsg134
Vgoogle_usa2014
p2198
sg136
Nsg137
Vgoogle\u2601
p2199
sg139
Nsg141
Nsg143
I2914120729
sg144
Nsbasg92
Nsg93
Nsg94
Nsg95
VRT @google_usa2014: Yeah... never as good as it looks in the magazine. http://t.co/GtXq4kOEG9 http://t.co/JbRx58wnuX
p2200
sg97
I00
sg98
Ven
p2201
sg100
g3
(g101
g5
Ntp2202
Rp2203
(dp2204
g10
g105
sg106
V333333
p2205
sg108
Ven-gb
p2206
sg110
Nsg111
I31360
sg112
I7365
sg80
VThu Jul 24 11:00:43 +0000 2014
p2207
sg114
I00
sg115
VMeet New Friends, Lovers, Partners from all over the World Join Friend Finder for Free - Click Below
p2208
sg117
Vhttps://pbs.twimg.com/profile_images/505016486704861184/CXqJe3GX_normal.png
p2209
sg119
I116
sg120
I4
sg121
Nsg122
Nsg123
I00
sg124
Vhttps://pbs.twimg.com/profile_banners/2676514064/1409240244
p2210
sg126
I00
sg127
I00
sg128
V0084B4
p2211
sg130
I00
sg131
I00
sg132
Vhttp://abs.twimg.com/images/themes/theme1/bg.png
p2212
sg134
VMeetNewMates
p2213
sg136
I24
sg137
VFriendFinder
p2214
sg139
VDDEEF6
p2215
sg141
Vhttp://t.co/iqkUUg5zN9
p2216
sg143
I2676514064
sg144
VC0DEED
p2217
sbsg146
I48
sg147
V<a href="http://twitter.com/download/iphone" rel="nofollow">Twitter for iPhone</a>
p2218
sg149
(lp2219
g3
(g151
g5
Ntp2220
Rp2221
(dp2222
g155
Vhttp://t.co/GtXq4kOEG9
p2223
sg157
Vhttp://ujjwal-karmakar.viralgalleries.me/sex-positions-expectation-vs-reality
p2224
sbasg143
I544166214701166592
sbag3
(g4
g5
Ntp2225
Rp2226
(dp2227
g9
I0
sg10
Nsg11
Nsg12
(lp2228
sg28
I00
sg29
g3
(g4
g5
Ntp2229
Rp2230
(dp2231
g9
I250
sg10
Nsg11
Nsg12
(lp2232
sg28
I00
sg29
Nsg30
Nsg31
(lp2233
(dp2234
Vexpanded_url
p2235
Vhttp://twitter.com/QuotesRaining/status/542660988449742849/photo/1
p2236
sVdisplay_url
p2237
Vpic.twitter.com/tnU1uzHPZg
p2238
sVurl
p2239
Vhttp://t.co/tnU1uzHPZg
p2240
sVmedia_url_https
p2241
Vhttps://pbs.twimg.com/media/B4frStPCAAEjATf.png
p2242
sVid_str
p2243
V542660986734247937
p2244
sVsizes
p2245
(dp2246
Vsmall
p2247
(dp2248
Vh
p2249
I227
sVresize
p2250
Vfit
p2251
sVw
p2252
I340
ssVlarge
p2253
(dp2254
Vh
p2255
I435
sVresize
p2256
Vfit
p2257
sVw
p2258
I650
ssVmedium
p2259
(dp2260
Vh
p2261
I401
sVresize
p2262
Vfit
p2263
sVw
p2264
I600
ssVthumb
p2265
(dp2266
Vh
p2267
I150
sVresize
p2268
Vcrop
p2269
sVw
p2270
I150
sssVindices
p2271
(lp2272
I107
aI129
asVtype
p2273
Vphoto
p2274
sVid
p2275
I542660986734247937
sVmedia_url
p2276
Vhttp://pbs.twimg.com/media/B4frStPCAAEjATf.png
p2277
sasg77
Nsg78
Nsg79
Nsg80
VWed Dec 10 12:43:56 +0000 2014
p2278
sg82
Nsg83
I00
sg84
Nsg85
Nsg86
Nsg87
Nsg88
I00
sg89
Nsg90
(lp2279
sg92
Nsg93
Nsg94
Nsg95
VTwins Can Do The Coolest Things On Halloween...And These 17 Awesome Pairs Prove It. http://t.co/aPcK7QchnV http://t.co/tnU1uzHPZg
p2280
sg97
I00
sg98
Ven
p2281
sg100
g3
(g101
g5
Ntp2282
Rp2283
(dp2284
g10
g105
sg106
V333333
p2285
sg108
Ven
p2286
sg110
VNew Delhi
p2287
sg111
I36304
sg112
I2834
sg80
VWed Feb 27 03:08:43 +0000 2013
p2288
sg114
I00
sg115
VQuotes are Treasure
p2289
sg117
Vhttps://pbs.twimg.com/profile_images/518447051596496896/pd8y4et9_normal.jpeg
p2290
sg119
I12607
sg120
I3
sg121
I19800
sg122
Nsg123
I00
sg124
Vhttps://pbs.twimg.com/profile_banners/1223508265/1406830981
p2291
sg126
I00
sg127
I00
sg128
V0084B4
p2292
sg130
I00
sg131
I00
sg132
Vhttp://abs.twimg.com/images/themes/theme1/bg.png
p2293
sg134
VQuotesRaining
p2294
sg136
I184
sg137
VQuotes Raining
p2295
sg139
VDDEEF6
p2296
sg141
Nsg143
I1223508265
sg144
VC0DEED
p2297
sbsg146
I286
sg147
V<a href="http://twitter.com" rel="nofollow">Twitter Web Client</a>
p2298
sg149
(lp2299
g3
(g151
g5
Ntp2300
Rp2301
(dp2302
g155
Vhttp://t.co/aPcK7QchnV
p2303
sg157
Vhttp://shareiton.net/s7g58-twins-can-do-the-coolest-things-on-halloweenand-these-17-awesome-pairs-prove-it
p2304
sbasg143
I542660988449742849
sbsg30
Nsg31
(lp2305
(dp2306
Vsource_user_id
p2307
I1223508265
sVsource_status_id_str
p2308
V542660988449742849
p2309
sVexpanded_url
p2310
Vhttp://twitter.com/QuotesRaining/status/542660988449742849/photo/1
p2311
sVdisplay_url
p2312
Vpic.twitter.com/tnU1uzHPZg
p2313
sVurl
p2314
Vhttp://t.co/tnU1uzHPZg
p2315
sVmedia_url_https
p2316
Vhttps://pbs.twimg.com/media/B4frStPCAAEjATf.png
p2317
sVsource_user_id_str
p2318
V1223508265
p2319
sVsource_status_id
p2320
I542660988449742849
sVid_str
p2321
V542660986734247937
p2322
sVsizes
p2323
(dp2324
Vsmall
p2325
(dp2326
Vh
p2327
I227
sVresize
p2328
Vfit
p2329
sVw
p2330
I340
ssVlarge
p2331
(dp2332
Vh
p2333
I435
sVresize
p2334
Vfit
p2335
sVw
p2336
I650
ssVmedium
p2337
(dp2338
Vh
p2339
I401
sVresize
p2340
Vfit
p2341
sVw
p2342
I600
ssVthumb
p2343
(dp2344
Vh
p2345
I150
sVresize
p2346
Vcrop
p2347
sVw
p2348
I150
sssVindices
p2349
(lp2350
I126
aI140
asVtype
p2351
Vphoto
p2352
sVid
p2353
I542660986734247937
sVmedia_url
p2354
Vhttp://pbs.twimg.com/media/B4frStPCAAEjATf.png
p2355
sasg77
Nsg78
Nsg79
Nsg80
VSun Dec 14 16:24:56 +0000 2014
p2356
sg82
Nsg83
I00
sg84
Nsg85
Nsg86
Nsg87
Nsg88
I00
sg89
Nsg90
(lp2357
g3
(g101
g5
Ntp2358
Rp2359
(dp2360
g10
Nsg106
Nsg108
Nsg110
Nsg111
Nsg112
Nsg80
Nsg114
Nsg115
Nsg117
Nsg119
Nsg120
Nsg121
Nsg122
Nsg123
Nsg124
Nsg126
Nsg127
Nsg128
Nsg130
Nsg131
Nsg132
Nsg134
VQuotesRaining
p2361
sg136
Nsg137
VQuotes Raining
p2362
sg139
Nsg141
Nsg143
I1223508265
sg144
Nsbasg92
Nsg93
Nsg94
Nsg95
VRT @QuotesRaining: Twins Can Do The Coolest Things On Halloween...And These 17 Awesome Pairs Prove It. http://t.co/aPcK7QchnV http://t.co/t\u2026
p2363
sg97
I00
sg98
Ven
p2364
sg100
g3
(g101
g5
Ntp2365
Rp2366
(dp2367
g10
g105
sg106
V333333
p2368
sg108
Ven-gb
p2369
sg110
Nsg111
I31360
sg112
I7365
sg80
VThu Jul 24 11:00:43 +0000 2014
p2370
sg114
I00
sg115
VMeet New Friends, Lovers, Partners from all over the World Join Friend Finder for Free - Click Below
p2371
sg117
Vhttps://pbs.twimg.com/profile_images/505016486704861184/CXqJe3GX_normal.png
p2372
sg119
I116
sg120
I4
sg121
Nsg122
Nsg123
I00
sg124
Vhttps://pbs.twimg.com/profile_banners/2676514064/1409240244
p2373
sg126
I00
sg127
I00
sg128
V0084B4
p2374
sg130
I00
sg131
I00
sg132
Vhttp://abs.twimg.com/images/themes/theme1/bg.png
p2375
sg134
VMeetNewMates
p2376
sg136
I24
sg137
VFriendFinder
p2377
sg139
VDDEEF6
p2378
sg141
Vhttp://t.co/iqkUUg5zN9
p2379
sg143
I2676514064
sg144
VC0DEED
p2380
sbsg146
I286
sg147
V<a href="http://twitter.com/download/iphone" rel="nofollow">Twitter for iPhone</a>
p2381
sg149
(lp2382
g3
(g151
g5
Ntp2383
Rp2384
(dp2385
g155
Vhttp://t.co/aPcK7QchnV
p2386
sg157
Vhttp://shareiton.net/s7g58-twins-can-do-the-coolest-things-on-halloweenand-these-17-awesome-pairs-prove-it
p2387
sbasg143
I544166156652019712
sbag3
(g4
g5
Ntp2388
Rp2389
(dp2390
g9
I0
sg10
Nsg11
Nsg12
(lp2391
sg28
I00
sg29
g3
(g4
g5
Ntp2392
Rp2393
(dp2394
g9
I228
sg10
Nsg11
Nsg12
(lp2395
sg28
I00
sg29
Nsg30
Nsg31
(lp2396
(dp2397
Vexpanded_url
p2398
Vhttp://twitter.com/QuotesRaining/status/542661500146446336/photo/1
p2399
sVdisplay_url
p2400
Vpic.twitter.com/kFconMSEnU
p2401
sVurl
p2402
Vhttp://t.co/kFconMSEnU
p2403
sVmedia_url_https
p2404
Vhttps://pbs.twimg.com/media/B4frwfqCEAAc38G.jpg
p2405
sVid_str
p2406
V542661498485477376
p2407
sVsizes
p2408
(dp2409
Vlarge
p2410
(dp2411
Vh
p2412
I448
sVresize
p2413
Vfit
p2414
sVw
p2415
I650
ssVsmall
p2416
(dp2417
Vh
p2418
I234
sVresize
p2419
Vfit
p2420
sVw
p2421
I340
ssVmedium
p2422
(dp2423
Vh
p2424
I413
sVresize
p2425
Vfit
p2426
sVw
p2427
I600
ssVthumb
p2428
(dp2429
Vh
p2430
I150
sVresize
p2431
Vcrop
p2432
sVw
p2433
I150
sssVindices
p2434
(lp2435
I98
aI120
asVtype
p2436
Vphoto
p2437
sVid
p2438
I542661498485477376
sVmedia_url
p2439
Vhttp://pbs.twimg.com/media/B4frwfqCEAAc38G.jpg
p2440
sasg77
Nsg78
Nsg79
Nsg80
VWed Dec 10 12:45:58 +0000 2014
p2441
sg82
Nsg83
I00
sg84
Nsg85
Nsg86
Nsg87
Nsg88
I00
sg89
Nsg90
(lp2442
sg92
Nsg93
Nsg94
Nsg95
V22 Hidden Secrets You Missed In Disney Movies. Each One Just Blew My Mind. http://t.co/l6Svwzlzyr http://t.co/kFconMSEnU
p2443
sg97
I00
sg98
Ven
p2444
sg100
g3
(g101
g5
Ntp2445
Rp2446
(dp2447
g10
g105
sg106
V333333
p2448
sg108
Ven
p2449
sg110
VNew Delhi
p2450
sg111
I36304
sg112
I2834
sg80
VWed Feb 27 03:08:43 +0000 2013
p2451
sg114
I00
sg115
VQuotes are Treasure
p2452
sg117
Vhttps://pbs.twimg.com/profile_images/518447051596496896/pd8y4et9_normal.jpeg
p2453
sg119
I12607
sg120
I3
sg121
I19800
sg122
Nsg123
I00
sg124
Vhttps://pbs.twimg.com/profile_banners/1223508265/1406830981
p2454
sg126
I00
sg127
I00
sg128
V0084B4
p2455
sg130
I00
sg131
I00
sg132
Vhttp://abs.twimg.com/images/themes/theme1/bg.png
p2456
sg134
VQuotesRaining
p2457
sg136
I184
sg137
VQuotes Raining
p2458
sg139
VDDEEF6
p2459
sg141
Nsg143
I1223508265
sg144
VC0DEED
p2460
sbsg146
I245
sg147
V<a href="http://twitter.com" rel="nofollow">Twitter Web Client</a>
p2461
sg149
(lp2462
g3
(g151
g5
Ntp2463
Rp2464
(dp2465
g155
Vhttp://t.co/l6Svwzlzyr
p2466
sg157
Vhttp://shareiton.net/s7g5a-22-hidden-secrets-you-missed-in-disney-movies-each-one-just-blew-my-mind
p2467
sbasg143
I542661500146446336
sbsg30
Nsg31
(lp2468
(dp2469
Vsource_user_id
p2470
I1223508265
sVsource_status_id_str
p2471
V542661500146446336
p2472
sVexpanded_url
p2473
Vhttp://twitter.com/QuotesRaining/status/542661500146446336/photo/1
p2474
sVdisplay_url
p2475
Vpic.twitter.com/kFconMSEnU
p2476
sVurl
p2477
Vhttp://t.co/kFconMSEnU
p2478
sVmedia_url_https
p2479
Vhttps://pbs.twimg.com/media/B4frwfqCEAAc38G.jpg
p2480
sVsource_user_id_str
p2481
V1223508265
p2482
sVsource_status_id
p2483
I542661500146446336
sVid_str
p2484
V542661498485477376
p2485
sVsizes
p2486
(dp2487
Vlarge
p2488
(dp2489
Vh
p2490
I448
sVresize
p2491
Vfit
p2492
sVw
p2493
I650
ssVsmall
p2494
(dp2495
Vh
p2496
I234
sVresize
p2497
Vfit
p2498
sVw
p2499
I340
ssVmedium
p2500
(dp2501
Vh
p2502
I413
sVresize
p2503
Vfit
p2504
sVw
p2505
I600
ssVthumb
p2506
(dp2507
Vh
p2508
I150
sVresize
p2509
Vcrop
p2510
sVw
p2511
I150
sssVindices
p2512
(lp2513
I117
aI139
asVtype
p2514
Vphoto
p2515
sVid
p2516
I542661498485477376
sVmedia_url
p2517
Vhttp://pbs.twimg.com/media/B4frwfqCEAAc38G.jpg
p2518
sasg77
Nsg78
Nsg79
Nsg80
VSun Dec 14 16:24:54 +0000 2014
p2519
sg82
Nsg83
I00
sg84
Nsg85
Nsg86
Nsg87
Nsg88
I00
sg89
Nsg90
(lp2520
g3
(g101
g5
Ntp2521
Rp2522
(dp2523
g10
Nsg106
Nsg108
Nsg110
Nsg111
Nsg112
Nsg80
Nsg114
Nsg115
Nsg117
Nsg119
Nsg120
Nsg121
Nsg122
Nsg123
Nsg124
Nsg126
Nsg127
Nsg128
Nsg130
Nsg131
Nsg132
Nsg134
VQuotesRaining
p2524
sg136
Nsg137
VQuotes Raining
p2525
sg139
Nsg141
Nsg143
I1223508265
sg144
Nsbasg92
Nsg93
Nsg94
Nsg95
VRT @QuotesRaining: 22 Hidden Secrets You Missed In Disney Movies. Each One Just Blew My Mind. http://t.co/l6Svwzlzyr http://t.co/kFconMSEnU
p2526
sg97
I00
sg98
Ven
p2527
sg100
g3
(g101
g5
Ntp2528
Rp2529
(dp2530
g10
g105
sg106
V333333
p2531
sg108
Ven-gb
p2532
sg110
Nsg111
I31360
sg112
I7365
sg80
VThu Jul 24 11:00:43 +0000 2014
p2533
sg114
I00
sg115
VMeet New Friends, Lovers, Partners from all over the World Join Friend Finder for Free - Click Below
p2534
sg117
Vhttps://pbs.twimg.com/profile_images/505016486704861184/CXqJe3GX_normal.png
p2535
sg119
I116
sg120
I4
sg121
Nsg122
Nsg123
I00
sg124
Vhttps://pbs.twimg.com/profile_banners/2676514064/1409240244
p2536
sg126
I00
sg127
I00
sg128
V0084B4
p2537
sg130
I00
sg131
I00
sg132
Vhttp://abs.twimg.com/images/themes/theme1/bg.png
p2538
sg134
VMeetNewMates
p2539
sg136
I24
sg137
VFriendFinder
p2540
sg139
VDDEEF6
p2541
sg141
Vhttp://t.co/iqkUUg5zN9
p2542
sg143
I2676514064
sg144
VC0DEED
p2543
sbsg146
I245
sg147
V<a href="http://twitter.com/download/iphone" rel="nofollow">Twitter for iPhone</a>
p2544
sg149
(lp2545
g3
(g151
g5
Ntp2546
Rp2547
(dp2548
g155
Vhttp://t.co/l6Svwzlzyr
p2549
sg157
Vhttp://shareiton.net/s7g5a-22-hidden-secrets-you-missed-in-disney-movies-each-one-just-blew-my-mind
p2550
sbasg143
I544166147537768448
sbag3
(g4
g5
Ntp2551
Rp2552
(dp2553
g9
I0
sg10
Nsg11
Nsg12
(lp2554
sg28
I00
sg29
g3
(g4
g5
Ntp2555
Rp2556
(dp2557
g9
I130
sg10
Nsg11
Nsg12
(lp2558
sg28
I00
sg29
Nsg30
Nsg31
(lp2559
(dp2560
Vexpanded_url
p2561
Vhttp://twitter.com/QuotesRaining/status/542662171679666177/photo/1
p2562
sVdisplay_url
p2563
Vpic.twitter.com/VI1YKSQWit
p2564
sVurl
p2565
Vhttp://t.co/VI1YKSQWit
p2566
sVmedia_url_https
p2567
Vhttps://pbs.twimg.com/media/B4fsXjeCUAE6hLa.png
p2568
sVid_str
p2569
V542662169523802113
p2570
sVsizes
p2571
(dp2572
Vsmall
p2573
(dp2574
Vh
p2575
I194
sVresize
p2576
Vfit
p2577
sVw
p2578
I340
ssVlarge
p2579
(dp2580
Vh
p2581
I371
sVresize
p2582
Vfit
p2583
sVw
p2584
I650
ssVmedium
p2585
(dp2586
Vh
p2587
I342
sVresize
p2588
Vfit
p2589
sVw
p2590
I600
ssVthumb
p2591
(dp2592
Vh
p2593
I150
sVresize
p2594
Vcrop
p2595
sVw
p2596
I150
sssVindices
p2597
(lp2598
I113
aI135
asVtype
p2599
Vphoto
p2600
sVid
p2601
I542662169523802113
sVmedia_url
p2602
Vhttp://pbs.twimg.com/media/B4fsXjeCUAE6hLa.png
p2603
sasg77
Nsg78
Nsg79
Nsg80
VWed Dec 10 12:48:38 +0000 2014
p2604
sg82
Nsg83
I00
sg84
Nsg85
Nsg86
Nsg87
Nsg88
I00
sg89
Nsg90
(lp2605
sg92
Nsg93
Nsg94
Nsg95
VGoogle Is A Giant Company, But Very Few People Know These 13 Facts... Until Now. #7? WOW. http://t.co/LrzVd0nhd6 http://t.co/VI1YKSQWit
p2606
sg97
I00
sg98
Ven
p2607
sg100
g3
(g101
g5
Ntp2608
Rp2609
(dp2610
g10
g105
sg106
V333333
p2611
sg108
Ven
p2612
sg110
VNew Delhi
p2613
sg111
I36304
sg112
I2834
sg80
VWed Feb 27 03:08:43 +0000 2013
p2614
sg114
I00
sg115
VQuotes are Treasure
p2615
sg117
Vhttps://pbs.twimg.com/profile_images/518447051596496896/pd8y4et9_normal.jpeg
p2616
sg119
I12607
sg120
I3
sg121
I19800
sg122
Nsg123
I00
sg124
Vhttps://pbs.twimg.com/profile_banners/1223508265/1406830981
p2617
sg126
I00
sg127
I00
sg128
V0084B4
p2618
sg130
I00
sg131
I00
sg132
Vhttp://abs.twimg.com/images/themes/theme1/bg.png
p2619
sg134
VQuotesRaining
p2620
sg136
I184
sg137
VQuotes Raining
p2621
sg139
VDDEEF6
p2622
sg141
Nsg143
I1223508265
sg144
VC0DEED
p2623
sbsg146
I203
sg147
V<a href="http://twitter.com" rel="nofollow">Twitter Web Client</a>
p2624
sg149
(lp2625
g3
(g151
g5
Ntp2626
Rp2627
(dp2628
g155
Vhttp://t.co/LrzVd0nhd6
p2629
sg157
Vhttp://shareiton.net/s7g5c-google-is-a-giant-company-but-very-few-people-know-these-13-facts-until-now-7-wow
p2630
sbasg143
I542662171679666177
sbsg30
Nsg31
(lp2631
(dp2632
Vsource_user_id
p2633
I1223508265
sVsource_status_id_str
p2634
V542662171679666177
p2635
sVexpanded_url
p2636
Vhttp://twitter.com/QuotesRaining/status/542662171679666177/photo/1
p2637
sVdisplay_url
p2638
Vpic.twitter.com/VI1YKSQWit
p2639
sVurl
p2640
Vhttp://t.co/VI1YKSQWit
p2641
sVmedia_url_https
p2642
Vhttps://pbs.twimg.com/media/B4fsXjeCUAE6hLa.png
p2643
sVsource_user_id_str
p2644
V1223508265
p2645
sVsource_status_id
p2646
I542662171679666177
sVid_str
p2647
V542662169523802113
p2648
sVsizes
p2649
(dp2650
Vsmall
p2651
(dp2652
Vh
p2653
I194
sVresize
p2654
Vfit
p2655
sVw
p2656
I340
ssVlarge
p2657
(dp2658
Vh
p2659
I371
sVresize
p2660
Vfit
p2661
sVw
p2662
I650
ssVmedium
p2663
(dp2664
Vh
p2665
I342
sVresize
p2666
Vfit
p2667
sVw
p2668
I600
ssVthumb
p2669
(dp2670
Vh
p2671
I150
sVresize
p2672
Vcrop
p2673
sVw
p2674
I150
sssVindices
p2675
(lp2676
I139
aI140
asVtype
p2677
Vphoto
p2678
sVid
p2679
I542662169523802113
sVmedia_url
p2680
Vhttp://pbs.twimg.com/media/B4fsXjeCUAE6hLa.png
p2681
sasg77
Nsg78
Nsg79
Nsg80
VSun Dec 14 16:24:52 +0000 2014
p2682
sg82
Nsg83
I00
sg84
Nsg85
Nsg86
Nsg87
Nsg88
I00
sg89
Nsg90
(lp2683
g3
(g101
g5
Ntp2684
Rp2685
(dp2686
g10
Nsg106
Nsg108
Nsg110
Nsg111
Nsg112
Nsg80
Nsg114
Nsg115
Nsg117
Nsg119
Nsg120
Nsg121
Nsg122
Nsg123
Nsg124
Nsg126
Nsg127
Nsg128
Nsg130
Nsg131
Nsg132
Nsg134
VQuotesRaining
p2687
sg136
Nsg137
VQuotes Raining
p2688
sg139
Nsg141
Nsg143
I1223508265
sg144
Nsbasg92
Nsg93
Nsg94
Nsg95
VRT @QuotesRaining: Google Is A Giant Company, But Very Few People Know These 13 Facts... Until Now. #7? WOW. http://t.co/LrzVd0nhd6 http://\u2026
p2689
sg97
I00
sg98
Ven
p2690
sg100
g3
(g101
g5
Ntp2691
Rp2692
(dp2693
g10
g105
sg106
V333333
p2694
sg108
Ven-gb
p2695
sg110
Nsg111
I31360
sg112
I7365
sg80
VThu Jul 24 11:00:43 +0000 2014
p2696
sg114
I00
sg115
VMeet New Friends, Lovers, Partners from all over the World Join Friend Finder for Free - Click Below
p2697
sg117
Vhttps://pbs.twimg.com/profile_images/505016486704861184/CXqJe3GX_normal.png
p2698
sg119
I116
sg120
I4
sg121
Nsg122
Nsg123
I00
sg124
Vhttps://pbs.twimg.com/profile_banners/2676514064/1409240244
p2699
sg126
I00
sg127
I00
sg128
V0084B4
p2700
sg130
I00
sg131
I00
sg132
Vhttp://abs.twimg.com/images/themes/theme1/bg.png
p2701
sg134
VMeetNewMates
p2702
sg136
I24
sg137
VFriendFinder
p2703
sg139
VDDEEF6
p2704
sg141
Vhttp://t.co/iqkUUg5zN9
p2705
sg143
I2676514064
sg144
VC0DEED
p2706
sbsg146
I203
sg147
V<a href="http://twitter.com/download/iphone" rel="nofollow">Twitter for iPhone</a>
p2707
sg149
(lp2708
g3
(g151
g5
Ntp2709
Rp2710
(dp2711
g155
Vhttp://t.co/LrzVd0nhd6
p2712
sg157
Vhttp://shareiton.net/s7g5c-google-is-a-giant-company-but-very-few-people-know-these-13-facts-until-now-7-wow
p2713
sbasg143
I544166141057564672
sbaa.