(lp0
S'NinjaRealtor1'
p1
a(lp2
ccopy_reg
_reconstructor
p3
(ctwitter
Status
p4
c__builtin__
object
p5
Ntp6
Rp7
(dp8
S'_favorite_count'
p9
I0
sS'_location'
p10
NsS'_withheld_scope'
p11
NsS'hashtags'
p12
(lp13
sS'_truncated'
p14
I00
sS'_retweeted_status'
p15
NsS'_withheld_copyright'
p16
NsS'media'
p17
(lp18
sS'_place'
p19
NsS'_contributors'
p20
NsS'_current_user_retweet'
p21
NsS'_created_at'
p22
VSat Dec 13 18:44:18 +0000 2014
p23
sS'_scopes'
p24
NsS'_possibly_sensitive'
p25
I00
sS'_in_reply_to_screen_name'
p26
NsS'_coordinates'
p27
NsS'_in_reply_to_user_id'
p28
NsS'_geo'
p29
NsS'_favorited'
p30
I00
sS'_withheld_in_countries'
p31
NsS'user_mentions'
p32
(lp33
sS'_now'
p34
NsS'_id_str'
p35
V543838842051379200
p36
sS'_in_reply_to_status_id'
p37
NsS'_text'
p38
VWant to know what your home is worth FREE CLICK HERE! http://t.co/do7E6GLIoG
p39
sS'_retweeted'
p40
I00
sS'lang'
p41
Ven
p42
sS'_user'
p43
g3
(ctwitter
User
p44
g5
Ntp45
Rp46
(dp47
g10
VMissouri
p48
sS'_profile_text_color'
p49
V5E412F
p50
sS'_lang'
p51
Ven
p52
sS'_time_zone'
p53
VCentral Time (US & Canada)
p54
sS'_followers_count'
p55
I452
sS'_statuses_count'
p56
I819
sg22
VThu Mar 26 02:49:08 +0000 2009
p57
sS'_verified'
p58
I00
sS'_description'
p59
VYOUR REALTOR FOR LIFE!
p60
sS'_profile_image_url'
p61
Vhttps://pbs.twimg.com/profile_images/501759529306959872/LF3kNyYE_normal.jpeg
p62
sS'_friends_count'
p63
I656
sS'_favourites_count'
p64
I2
sS'_utc_offset'
p65
I-21600
sS'_status'
p66
NsS'_protected'
p67
I00
sS'_profile_banner_url'
p68
Vhttps://pbs.twimg.com/profile_banners/26670961/1356980187
p69
sS'_notifications'
p70
I00
sS'_profile_background_tile'
p71
I01
sS'_profile_link_color'
p72
VCE7734
p73
sS'_geo_enabled'
p74
I00
sS'_contributors_enabled'
p75
I00
sS'_profile_background_image_url'
p76
Vhttp://pbs.twimg.com/profile_background_images/655824261/x44519636f7df4a920b9929a76726d8e.png
p77
sS'_screen_name'
p78
VNinjaRealtor1
p79
sS'_listed_count'
p80
I7
sS'_name'
p81
VAmanda Alejandro
p82
sS'_profile_sidebar_fill_color'
p83
V78C0A8
p84
sS'_url'
p85
Vhttp://t.co/7nGnxrIxm2
p86
sS'_id'
p87
I26670961
sS'_profile_background_color'
p88
VFCEBB6
p89
sbsS'_retweet_count'
p90
I0
sS'_source'
p91
V<a href="http://www.upsidesocialtoolkit.com" rel="nofollow">Social Network Toolkit</a>
p92
sS'urls'
p93
(lp94
g3
(ctwitter
Url
p95
g5
Ntp96
Rp97
(dp98
S'url'
p99
Vhttp://t.co/do7E6GLIoG
p100
sS'expanded_url'
p101
Vhttp://soctk.com/2Vy
p102
sbasg87
I543838842051379200
sbag3
(g4
g5
Ntp103
Rp104
(dp105
g9
I0
sg10
Nsg11
Nsg12
(lp106
sg14
I00
sg15
Nsg16
Nsg17
(lp107
sg19
Nsg20
Nsg21
Nsg22
VFri Dec 12 20:03:17 +0000 2014
p108
sg24
Nsg25
I00
sg26
Nsg27
Nsg28
Nsg29
Nsg30
I00
sg31
Nsg32
(lp109
sg34
Nsg35
V543496330401021954
p110
sg37
Nsg38
VGET A FREE LIST OF BANK OWNED HOMES NOW! http://t.co/DqWnjZLy6V
p111
sg40
I00
sg41
Ven
p112
sg43
g3
(g44
g5
Ntp113
Rp114
(dp115
g10
VMissouri
p116
sg49
V5E412F
p117
sg51
Ven
p118
sg53
VCentral Time (US & Canada)
p119
sg55
I452
sg56
I819
sg22
VThu Mar 26 02:49:08 +0000 2009
p120
sg58
I00
sg59
VYOUR REALTOR FOR LIFE!
p121
sg61
Vhttps://pbs.twimg.com/profile_images/501759529306959872/LF3kNyYE_normal.jpeg
p122
sg63
I656
sg64
I2
sg65
I-21600
sg66
Nsg67
I00
sg68
Vhttps://pbs.twimg.com/profile_banners/26670961/1356980187
p123
sg70
I00
sg71
I01
sg72
VCE7734
p124
sg74
I00
sg75
I00
sg76
Vhttp://pbs.twimg.com/profile_background_images/655824261/x44519636f7df4a920b9929a76726d8e.png
p125
sg78
VNinjaRealtor1
p126
sg80
I7
sg81
VAmanda Alejandro
p127
sg83
V78C0A8
p128
sg85
Vhttp://t.co/7nGnxrIxm2
p129
sg87
I26670961
sg88
VFCEBB6
p130
sbsg90
I0
sg91
V<a href="http://www.upsidesocialtoolkit.com" rel="nofollow">Social Network Toolkit</a>
p131
sg93
(lp132
g3
(g95
g5
Ntp133
Rp134
(dp135
g99
Vhttp://t.co/DqWnjZLy6V
p136
sg101
Vhttp://soctk.com/2Wh
p137
sbasg87
I543496330401021954
sbag3
(g4
g5
Ntp138
Rp139
(dp140
g9
I0
sg10
Nsg11
Nsg12
(lp141
sg14
I00
sg15
Nsg16
Nsg17
(lp142
sg19
Nsg20
Nsg21
Nsg22
VFri Dec 12 18:20:03 +0000 2014
p143
sg24
Nsg25
I00
sg26
Nsg27
Nsg28
Nsg29
Nsg30
I00
sg31
Nsg32
(lp144
sg34
Nsg35
V543470350827552768
p145
sg37
Nsg38
VWant to know your homes value free CLICK HERE! http://t.co/xDSMIYV0ZT
p146
sg40
I00
sg41
Ven
p147
sg43
g3
(g44
g5
Ntp148
Rp149
(dp150
g10
VMissouri
p151
sg49
V5E412F
p152
sg51
Ven
p153
sg53
VCentral Time (US & Canada)
p154
sg55
I452
sg56
I819
sg22
VThu Mar 26 02:49:08 +0000 2009
p155
sg58
I00
sg59
VYOUR REALTOR FOR LIFE!
p156
sg61
Vhttps://pbs.twimg.com/profile_images/501759529306959872/LF3kNyYE_normal.jpeg
p157
sg63
I656
sg64
I2
sg65
I-21600
sg66
Nsg67
I00
sg68
Vhttps://pbs.twimg.com/profile_banners/26670961/1356980187
p158
sg70
I00
sg71
I01
sg72
VCE7734
p159
sg74
I00
sg75
I00
sg76
Vhttp://pbs.twimg.com/profile_background_images/655824261/x44519636f7df4a920b9929a76726d8e.png
p160
sg78
VNinjaRealtor1
p161
sg80
I7
sg81
VAmanda Alejandro
p162
sg83
V78C0A8
p163
sg85
Vhttp://t.co/7nGnxrIxm2
p164
sg87
I26670961
sg88
VFCEBB6
p165
sbsg90
I0
sg91
V<a href="http://www.upsidesocialtoolkit.com" rel="nofollow">Social Network Toolkit</a>
p166
sg93
(lp167
g3
(g95
g5
Ntp168
Rp169
(dp170
g99
Vhttp://t.co/xDSMIYV0ZT
p171
sg101
Vhttp://soctk.com/2VZ
p172
sbasg87
I543470350827552768
sbag3
(g4
g5
Ntp173
Rp174
(dp175
g9
I0
sg10
Nsg11
Nsg12
(lp176
sg14
I00
sg15
Nsg16
Nsg17
(lp177
sg19
Nsg20
Nsg21
Nsg22
VThu Dec 11 20:06:05 +0000 2014
p178
sg24
Nsg25
I00
sg26
Nsg27
Nsg28
Nsg29
Nsg30
I00
sg31
Nsg32
(lp179
sg34
Nsg35
V543134645932797952
p180
sg37
Nsg38
VGET A FREE LIST OF BANK OWNED HOMES NOW! http://t.co/DqWnjZLy6V
p181
sg40
I00
sg41
Ven
p182
sg43
g3
(g44
g5
Ntp183
Rp184
(dp185
g10
VMissouri
p186
sg49
V5E412F
p187
sg51
Ven
p188
sg53
VCentral Time (US & Canada)
p189
sg55
I452
sg56
I819
sg22
VThu Mar 26 02:49:08 +0000 2009
p190
sg58
I00
sg59
VYOUR REALTOR FOR LIFE!
p191
sg61
Vhttps://pbs.twimg.com/profile_images/501759529306959872/LF3kNyYE_normal.jpeg
p192
sg63
I656
sg64
I2
sg65
I-21600
sg66
Nsg67
I00
sg68
Vhttps://pbs.twimg.com/profile_banners/26670961/1356980187
p193
sg70
I00
sg71
I01
sg72
VCE7734
p194
sg74
I00
sg75
I00
sg76
Vhttp://pbs.twimg.com/profile_background_images/655824261/x44519636f7df4a920b9929a76726d8e.png
p195
sg78
VNinjaRealtor1
p196
sg80
I7
sg81
VAmanda Alejandro
p197
sg83
V78C0A8
p198
sg85
Vhttp://t.co/7nGnxrIxm2
p199
sg87
I26670961
sg88
VFCEBB6
p200
sbsg90
I0
sg91
V<a href="http://www.upsidesocialtoolkit.com" rel="nofollow">Social Network Toolkit</a>
p201
sg93
(lp202
g3
(g95
g5
Ntp203
Rp204
(dp205
g99
Vhttp://t.co/DqWnjZLy6V
p206
sg101
Vhttp://soctk.com/2Wh
p207
sbasg87
I543134645932797952
sbag3
(g4
g5
Ntp208
Rp209
(dp210
g9
I0
sg10
Nsg11
Nsg12
(lp211
sg14
I00
sg15
Nsg16
Nsg17
(lp212
sg19
Nsg20
Nsg21
Nsg22
VThu Dec 11 18:42:11 +0000 2014
p213
sg24
Nsg25
I00
sg26
Nsg27
Nsg28
Nsg29
Nsg30
I00
sg31
Nsg32
(lp214
sg34
Nsg35
V543113534629236736
p215
sg37
Nsg38
VWant to know what your home is worth FREE CLICK HERE! http://t.co/do7E6GLIoG
p216
sg40
I00
sg41
Ven
p217
sg43
g3
(g44
g5
Ntp218
Rp219
(dp220
g10
VMissouri
p221
sg49
V5E412F
p222
sg51
Ven
p223
sg53
VCentral Time (US & Canada)
p224
sg55
I452
sg56
I819
sg22
VThu Mar 26 02:49:08 +0000 2009
p225
sg58
I00
sg59
VYOUR REALTOR FOR LIFE!
p226
sg61
Vhttps://pbs.twimg.com/profile_images/501759529306959872/LF3kNyYE_normal.jpeg
p227
sg63
I656
sg64
I2
sg65
I-21600
sg66
Nsg67
I00
sg68
Vhttps://pbs.twimg.com/profile_banners/26670961/1356980187
p228
sg70
I00
sg71
I01
sg72
VCE7734
p229
sg74
I00
sg75
I00
sg76
Vhttp://pbs.twimg.com/profile_background_images/655824261/x44519636f7df4a920b9929a76726d8e.png
p230
sg78
VNinjaRealtor1
p231
sg80
I7
sg81
VAmanda Alejandro
p232
sg83
V78C0A8
p233
sg85
Vhttp://t.co/7nGnxrIxm2
p234
sg87
I26670961
sg88
VFCEBB6
p235
sbsg90
I0
sg91
V<a href="http://www.upsidesocialtoolkit.com" rel="nofollow">Social Network Toolkit</a>
p236
sg93
(lp237
g3
(g95
g5
Ntp238
Rp239
(dp240
g99
Vhttp://t.co/do7E6GLIoG
p241
sg101
Vhttp://soctk.com/2Vy
p242
sbasg87
I543113534629236736
sbag3
(g4
g5
Ntp243
Rp244
(dp245
g9
I0
sg10
Nsg11
Nsg12
(lp246
sg14
I00
sg15
Nsg16
Nsg17
(lp247
sg19
Nsg20
Nsg21
Nsg22
VThu Dec 11 17:19:02 +0000 2014
p248
sg24
Nsg25
I00
sg26
Nsg27
Nsg28
Nsg29
Nsg30
I00
sg31
Nsg32
(lp249
sg34
Nsg35
V543092609741512704
p250
sg37
Nsg38
Vhttp://t.co/491H0aMZtt http://t.co/WasMjwty23
p251
sg40
I00
sg41
Vund
p252
sg43
g3
(g44
g5
Ntp253
Rp254
(dp255
g10
VMissouri
p256
sg49
V5E412F
p257
sg51
Ven
p258
sg53
VCentral Time (US & Canada)
p259
sg55
I452
sg56
I819
sg22
VThu Mar 26 02:49:08 +0000 2009
p260
sg58
I00
sg59
VYOUR REALTOR FOR LIFE!
p261
sg61
Vhttps://pbs.twimg.com/profile_images/501759529306959872/LF3kNyYE_normal.jpeg
p262
sg63
I656
sg64
I2
sg65
I-21600
sg66
Nsg67
I00
sg68
Vhttps://pbs.twimg.com/profile_banners/26670961/1356980187
p263
sg70
I00
sg71
I01
sg72
VCE7734
p264
sg74
I00
sg75
I00
sg76
Vhttp://pbs.twimg.com/profile_background_images/655824261/x44519636f7df4a920b9929a76726d8e.png
p265
sg78
VNinjaRealtor1
p266
sg80
I7
sg81
VAmanda Alejandro
p267
sg83
V78C0A8
p268
sg85
Vhttp://t.co/7nGnxrIxm2
p269
sg87
I26670961
sg88
VFCEBB6
p270
sbsg90
I0
sg91
V<a href="http://www.facebook.com/twitter" rel="nofollow">Facebook</a>
p271
sg93
(lp272
g3
(g95
g5
Ntp273
Rp274
(dp275
g99
Vhttp://t.co/491H0aMZtt
p276
sg101
Vhttp://www.searchallproperties.com/listings/2000787/7024-ST.-LOUIS-MISSOURI
p277
sbag3
(g95
g5
Ntp278
Rp279
(dp280
g99
Vhttp://t.co/WasMjwty23
p281
sg101
Vhttp://fb.me/1No67tJK5
p282
sbasg87
I543092609741512704
sbag3
(g4
g5
Ntp283
Rp284
(dp285
g9
I0
sg10
Nsg11
Nsg12
(lp286
sg14
I00
sg15
Nsg16
Nsg17
(lp287
sg19
Nsg20
Nsg21
Nsg22
VWed Dec 10 20:11:03 +0000 2014
p288
sg24
Nsg25
I00
sg26
Nsg27
Nsg28
Nsg29
Nsg30
I00
sg31
Nsg32
(lp289
sg34
Nsg35
V542773508456316929
p290
sg37
Nsg38
VWant to know your homes value free CLICK HERE! http://t.co/xDSMIYV0ZT
p291
sg40
I00
sg41
Ven
p292
sg43
g3
(g44
g5
Ntp293
Rp294
(dp295
g10
VMissouri
p296
sg49
V5E412F
p297
sg51
Ven
p298
sg53
VCentral Time (US & Canada)
p299
sg55
I452
sg56
I819
sg22
VThu Mar 26 02:49:08 +0000 2009
p300
sg58
I00
sg59
VYOUR REALTOR FOR LIFE!
p301
sg61
Vhttps://pbs.twimg.com/profile_images/501759529306959872/LF3kNyYE_normal.jpeg
p302
sg63
I656
sg64
I2
sg65
I-21600
sg66
Nsg67
I00
sg68
Vhttps://pbs.twimg.com/profile_banners/26670961/1356980187
p303
sg70
I00
sg71
I01
sg72
VCE7734
p304
sg74
I00
sg75
I00
sg76
Vhttp://pbs.twimg.com/profile_background_images/655824261/x44519636f7df4a920b9929a76726d8e.png
p305
sg78
VNinjaRealtor1
p306
sg80
I7
sg81
VAmanda Alejandro
p307
sg83
V78C0A8
p308
sg85
Vhttp://t.co/7nGnxrIxm2
p309
sg87
I26670961
sg88
VFCEBB6
p310
sbsg90
I0
sg91
V<a href="http://www.upsidesocialtoolkit.com" rel="nofollow">Social Network Toolkit</a>
p311
sg93
(lp312
g3
(g95
g5
Ntp313
Rp314
(dp315
g99
Vhttp://t.co/xDSMIYV0ZT
p316
sg101
Vhttp://soctk.com/2VZ
p317
sbasg87
I542773508456316929
sbag3
(g4
g5
Ntp318
Rp319
(dp320
g9
I0
sg10
Nsg11
Nsg12
(lp321
sg14
I00
sg15
Nsg16
Nsg17
(lp322
sg19
Nsg20
Nsg21
Nsg22
VTue Dec 09 21:52:05 +0000 2014
p323
sg24
Nsg25
I00
sg26
Nsg27
Nsg28
Nsg29
Nsg30
I00
sg31
Nsg32
(lp324
sg34
Nsg35
V542436546918363136
p325
sg37
Nsg38
VGET A FREE LIST OF BANK OWNED HOMES NOW! http://t.co/qXo5UJD7Uy
p326
sg40
I00
sg41
Ven
p327
sg43
g3
(g44
g5
Ntp328
Rp329
(dp330
g10
VMissouri
p331
sg49
V5E412F
p332
sg51
Ven
p333
sg53
VCentral Time (US & Canada)
p334
sg55
I452
sg56
I819
sg22
VThu Mar 26 02:49:08 +0000 2009
p335
sg58
I00
sg59
VYOUR REALTOR FOR LIFE!
p336
sg61
Vhttps://pbs.twimg.com/profile_images/501759529306959872/LF3kNyYE_normal.jpeg
p337
sg63
I656
sg64
I2
sg65
I-21600
sg66
Nsg67
I00
sg68
Vhttps://pbs.twimg.com/profile_banners/26670961/1356980187
p338
sg70
I00
sg71
I01
sg72
VCE7734
p339
sg74
I00
sg75
I00
sg76
Vhttp://pbs.twimg.com/profile_background_images/655824261/x44519636f7df4a920b9929a76726d8e.png
p340
sg78
VNinjaRealtor1
p341
sg80
I7
sg81
VAmanda Alejandro
p342
sg83
V78C0A8
p343
sg85
Vhttp://t.co/7nGnxrIxm2
p344
sg87
I26670961
sg88
VFCEBB6
p345
sbsg90
I0
sg91
V<a href="http://www.upsidesocialtoolkit.com" rel="nofollow">Social Network Toolkit</a>
p346
sg93
(lp347
g3
(g95
g5
Ntp348
Rp349
(dp350
g99
Vhttp://t.co/qXo5UJD7Uy
p351
sg101
Vhttp://soctk.com/2Wh
p352
sbasg87
I542436546918363136
sbag3
(g4
g5
Ntp353
Rp354
(dp355
g9
I0
sg10
Nsg11
Nsg12
(lp356
sg14
I00
sg15
Nsg16
Nsg17
(lp357
sg19
Nsg20
Nsg21
Nsg22
VTue Dec 09 20:28:12 +0000 2014
p358
sg24
Nsg25
I00
sg26
Nsg27
Nsg28
Nsg29
Nsg30
I00
sg31
Nsg32
(lp359
sg34
Nsg35
V542415439150596096
p360
sg37
Nsg38
VWant to know what your home is worth FREE CLICK HERE! http://t.co/7K4Us1elnJ
p361
sg40
I00
sg41
Ven
p362
sg43
g3
(g44
g5
Ntp363
Rp364
(dp365
g10
VMissouri
p366
sg49
V5E412F
p367
sg51
Ven
p368
sg53
VCentral Time (US & Canada)
p369
sg55
I452
sg56
I819
sg22
VThu Mar 26 02:49:08 +0000 2009
p370
sg58
I00
sg59
VYOUR REALTOR FOR LIFE!
p371
sg61
Vhttps://pbs.twimg.com/profile_images/501759529306959872/LF3kNyYE_normal.jpeg
p372
sg63
I656
sg64
I2
sg65
I-21600
sg66
Nsg67
I00
sg68
Vhttps://pbs.twimg.com/profile_banners/26670961/1356980187
p373
sg70
I00
sg71
I01
sg72
VCE7734
p374
sg74
I00
sg75
I00
sg76
Vhttp://pbs.twimg.com/profile_background_images/655824261/x44519636f7df4a920b9929a76726d8e.png
p375
sg78
VNinjaRealtor1
p376
sg80
I7
sg81
VAmanda Alejandro
p377
sg83
V78C0A8
p378
sg85
Vhttp://t.co/7nGnxrIxm2
p379
sg87
I26670961
sg88
VFCEBB6
p380
sbsg90
I0
sg91
V<a href="http://www.upsidesocialtoolkit.com" rel="nofollow">Social Network Toolkit</a>
p381
sg93
(lp382
g3
(g95
g5
Ntp383
Rp384
(dp385
g99
Vhttp://t.co/7K4Us1elnJ
p386
sg101
Vhttp://soctk.com/2Vy
p387
sbasg87
I542415439150596096
sbag3
(g4
g5
Ntp388
Rp389
(dp390
g9
I0
sg10
Nsg11
Nsg12
(lp391
sg14
I00
sg15
Nsg16
Nsg17
(lp392
sg19
Nsg20
Nsg21
Nsg22
VMon Dec 08 20:10:40 +0000 2014
p393
sg24
Nsg25
I00
sg26
Nsg27
Nsg28
Nsg29
Nsg30
I00
sg31
Nsg32
(lp394
sg34
Nsg35
V542048638701408256
p395
sg37
Nsg38
VWant to know your homes value free CLICK HERE! http://t.co/xDSMIYV0ZT
p396
sg40
I00
sg41
Ven
p397
sg43
g3
(g44
g5
Ntp398
Rp399
(dp400
g10
VMissouri
p401
sg49
V5E412F
p402
sg51
Ven
p403
sg53
VCentral Time (US & Canada)
p404
sg55
I452
sg56
I819
sg22
VThu Mar 26 02:49:08 +0000 2009
p405
sg58
I00
sg59
VYOUR REALTOR FOR LIFE!
p406
sg61
Vhttps://pbs.twimg.com/profile_images/501759529306959872/LF3kNyYE_normal.jpeg
p407
sg63
I656
sg64
I2
sg65
I-21600
sg66
Nsg67
I00
sg68
Vhttps://pbs.twimg.com/profile_banners/26670961/1356980187
p408
sg70
I00
sg71
I01
sg72
VCE7734
p409
sg74
I00
sg75
I00
sg76
Vhttp://pbs.twimg.com/profile_background_images/655824261/x44519636f7df4a920b9929a76726d8e.png
p410
sg78
VNinjaRealtor1
p411
sg80
I7
sg81
VAmanda Alejandro
p412
sg83
V78C0A8
p413
sg85
Vhttp://t.co/7nGnxrIxm2
p414
sg87
I26670961
sg88
VFCEBB6
p415
sbsg90
I0
sg91
V<a href="http://www.upsidesocialtoolkit.com" rel="nofollow">Social Network Toolkit</a>
p416
sg93
(lp417
g3
(g95
g5
Ntp418
Rp419
(dp420
g99
Vhttp://t.co/xDSMIYV0ZT
p421
sg101
Vhttp://soctk.com/2VZ
p422
sbasg87
I542048638701408256
sbag3
(g4
g5
Ntp423
Rp424
(dp425
g9
I0
sg10
Nsg11
Nsg12
(lp426
sg14
I00
sg15
Nsg16
Nsg17
(lp427
sg19
Nsg20
Nsg21
Nsg22
VSun Dec 07 21:14:05 +0000 2014
p428
sg24
Nsg25
I00
sg26
Nsg27
Nsg28
Nsg29
Nsg30
I00
sg31
Nsg32
(lp429
sg34
Nsg35
V541702206878416896
p430
sg37
Nsg38
VGET A FREE LIST OF BANK OWNED HOMES NOW! http://t.co/DqWnjZLy6V
p431
sg40
I00
sg41
Ven
p432
sg43
g3
(g44
g5
Ntp433
Rp434
(dp435
g10
VMissouri
p436
sg49
V5E412F
p437
sg51
Ven
p438
sg53
VCentral Time (US & Canada)
p439
sg55
I452
sg56
I819
sg22
VThu Mar 26 02:49:08 +0000 2009
p440
sg58
I00
sg59
VYOUR REALTOR FOR LIFE!
p441
sg61
Vhttps://pbs.twimg.com/profile_images/501759529306959872/LF3kNyYE_normal.jpeg
p442
sg63
I656
sg64
I2
sg65
I-21600
sg66
Nsg67
I00
sg68
Vhttps://pbs.twimg.com/profile_banners/26670961/1356980187
p443
sg70
I00
sg71
I01
sg72
VCE7734
p444
sg74
I00
sg75
I00
sg76
Vhttp://pbs.twimg.com/profile_background_images/655824261/x44519636f7df4a920b9929a76726d8e.png
p445
sg78
VNinjaRealtor1
p446
sg80
I7
sg81
VAmanda Alejandro
p447
sg83
V78C0A8
p448
sg85
Vhttp://t.co/7nGnxrIxm2
p449
sg87
I26670961
sg88
VFCEBB6
p450
sbsg90
I0
sg91
V<a href="http://www.upsidesocialtoolkit.com" rel="nofollow">Social Network Toolkit</a>
p451
sg93
(lp452
g3
(g95
g5
Ntp453
Rp454
(dp455
g99
Vhttp://t.co/DqWnjZLy6V
p456
sg101
Vhttp://soctk.com/2Wh
p457
sbasg87
I541702206878416896
sbag3
(g4
g5
Ntp458
Rp459
(dp460
g9
I0
sg10
Nsg11
Nsg12
(lp461
sg14
I00
sg15
Nsg16
Nsg17
(lp462
sg19
Nsg20
Nsg21
Nsg22
VSun Dec 07 19:32:28 +0000 2014
p463
sg24
Nsg25
I00
sg26
Nsg27
Nsg28
Nsg29
Nsg30
I00
sg31
Nsg32
(lp464
sg34
Nsg35
V541676634039132160
p465
sg37
Nsg38
VWant to know your homes value free CLICK HERE! http://t.co/xDSMIYV0ZT
p466
sg40
I00
sg41
Ven
p467
sg43
g3
(g44
g5
Ntp468
Rp469
(dp470
g10
VMissouri
p471
sg49
V5E412F
p472
sg51
Ven
p473
sg53
VCentral Time (US & Canada)
p474
sg55
I452
sg56
I819
sg22
VThu Mar 26 02:49:08 +0000 2009
p475
sg58
I00
sg59
VYOUR REALTOR FOR LIFE!
p476
sg61
Vhttps://pbs.twimg.com/profile_images/501759529306959872/LF3kNyYE_normal.jpeg
p477
sg63
I656
sg64
I2
sg65
I-21600
sg66
Nsg67
I00
sg68
Vhttps://pbs.twimg.com/profile_banners/26670961/1356980187
p478
sg70
I00
sg71
I01
sg72
VCE7734
p479
sg74
I00
sg75
I00
sg76
Vhttp://pbs.twimg.com/profile_background_images/655824261/x44519636f7df4a920b9929a76726d8e.png
p480
sg78
VNinjaRealtor1
p481
sg80
I7
sg81
VAmanda Alejandro
p482
sg83
V78C0A8
p483
sg85
Vhttp://t.co/7nGnxrIxm2
p484
sg87
I26670961
sg88
VFCEBB6
p485
sbsg90
I0
sg91
V<a href="http://www.upsidesocialtoolkit.com" rel="nofollow">Social Network Toolkit</a>
p486
sg93
(lp487
g3
(g95
g5
Ntp488
Rp489
(dp490
g99
Vhttp://t.co/xDSMIYV0ZT
p491
sg101
Vhttp://soctk.com/2VZ
p492
sbasg87
I541676634039132160
sbag3
(g4
g5
Ntp493
Rp494
(dp495
g9
I0
sg10
Nsg11
Nsg12
(lp496
sg14
I00
sg15
Nsg16
Nsg17
(lp497
sg19
Nsg20
Nsg21
Nsg22
VSat Dec 06 22:47:24 +0000 2014
p498
sg24
Nsg25
Nsg26
Nsg27
Nsg28
Nsg29
Nsg30
I00
sg31
Nsg32
(lp499
sg34
Nsg35
V541363304497569792
p500
sg37
Nsg38
VYes I am are you looking at my biz pic
p501
sg40
I00
sg41
Ven
p502
sg43
g3
(g44
g5
Ntp503
Rp504
(dp505
g10
VMissouri
p506
sg49
V5E412F
p507
sg51
Ven
p508
sg53
VCentral Time (US & Canada)
p509
sg55
I452
sg56
I819
sg22
VThu Mar 26 02:49:08 +0000 2009
p510
sg58
I00
sg59
VYOUR REALTOR FOR LIFE!
p511
sg61
Vhttps://pbs.twimg.com/profile_images/501759529306959872/LF3kNyYE_normal.jpeg
p512
sg63
I656
sg64
I2
sg65
I-21600
sg66
Nsg67
I00
sg68
Vhttps://pbs.twimg.com/profile_banners/26670961/1356980187
p513
sg70
I00
sg71
I01
sg72
VCE7734
p514
sg74
I00
sg75
I00
sg76
Vhttp://pbs.twimg.com/profile_background_images/655824261/x44519636f7df4a920b9929a76726d8e.png
p515
sg78
VNinjaRealtor1
p516
sg80
I7
sg81
VAmanda Alejandro
p517
sg83
V78C0A8
p518
sg85
Vhttp://t.co/7nGnxrIxm2
p519
sg87
I26670961
sg88
VFCEBB6
p520
sbsg90
I0
sg91
V<a href="http://www.cloudhopper.com/" rel="nofollow">Cloudhopper</a>
p521
sg93
(lp522
sg87
I541363304497569792
sbag3
(g4
g5
Ntp523
Rp524
(dp525
g9
I0
sg10
Nsg11
Nsg12
(lp526
sg14
I00
sg15
Nsg16
Nsg17
(lp527
sg19
Nsg20
Nsg21
Nsg22
VSat Dec 06 19:44:21 +0000 2014
p528
sg24
Nsg25
I00
sg26
Nsg27
Nsg28
Nsg29
Nsg30
I00
sg31
Nsg32
(lp529
sg34
Nsg35
V541317236531953664
p530
sg37
Nsg38
VWant to know what your home is worth FREE CLICK HERE! http://t.co/do7E6GLIoG
p531
sg40
I00
sg41
Ven
p532
sg43
g3
(g44
g5
Ntp533
Rp534
(dp535
g10
VMissouri
p536
sg49
V5E412F
p537
sg51
Ven
p538
sg53
VCentral Time (US & Canada)
p539
sg55
I452
sg56
I819
sg22
VThu Mar 26 02:49:08 +0000 2009
p540
sg58
I00
sg59
VYOUR REALTOR FOR LIFE!
p541
sg61
Vhttps://pbs.twimg.com/profile_images/501759529306959872/LF3kNyYE_normal.jpeg
p542
sg63
I656
sg64
I2
sg65
I-21600
sg66
Nsg67
I00
sg68
Vhttps://pbs.twimg.com/profile_banners/26670961/1356980187
p543
sg70
I00
sg71
I01
sg72
VCE7734
p544
sg74
I00
sg75
I00
sg76
Vhttp://pbs.twimg.com/profile_background_images/655824261/x44519636f7df4a920b9929a76726d8e.png
p545
sg78
VNinjaRealtor1
p546
sg80
I7
sg81
VAmanda Alejandro
p547
sg83
V78C0A8
p548
sg85
Vhttp://t.co/7nGnxrIxm2
p549
sg87
I26670961
sg88
VFCEBB6
p550
sbsg90
I0
sg91
V<a href="http://www.upsidesocialtoolkit.com" rel="nofollow">Social Network Toolkit</a>
p551
sg93
(lp552
g3
(g95
g5
Ntp553
Rp554
(dp555
g99
Vhttp://t.co/do7E6GLIoG
p556
sg101
Vhttp://soctk.com/2Vy
p557
sbasg87
I541317236531953664
sbag3
(g4
g5
Ntp558
Rp559
(dp560
g9
I0
sg10
Nsg11
Nsg12
(lp561
sg14
I00
sg15
Nsg16
Nsg17
(lp562
sg19
Nsg20
Nsg21
Nsg22
VSat Dec 06 17:20:31 +0000 2014
p563
sg24
Nsg25
I00
sg26
Nsg27
Nsg28
Nsg29
Nsg30
I00
sg31
Nsg32
(lp564
sg34
Nsg35
V541281042016251905
p565
sg37
Nsg38
VLOOKING TO SELL FOR MORE FREE EVALUATION NO SALES PRESSURE  http://t.co/8SFwB3iSer
p566
sg40
I00
sg41
Ven
p567
sg43
g3
(g44
g5
Ntp568
Rp569
(dp570
g10
VMissouri
p571
sg49
V5E412F
p572
sg51
Ven
p573
sg53
VCentral Time (US & Canada)
p574
sg55
I452
sg56
I819
sg22
VThu Mar 26 02:49:08 +0000 2009
p575
sg58
I00
sg59
VYOUR REALTOR FOR LIFE!
p576
sg61
Vhttps://pbs.twimg.com/profile_images/501759529306959872/LF3kNyYE_normal.jpeg
p577
sg63
I656
sg64
I2
sg65
I-21600
sg66
Nsg67
I00
sg68
Vhttps://pbs.twimg.com/profile_banners/26670961/1356980187
p578
sg70
I00
sg71
I01
sg72
VCE7734
p579
sg74
I00
sg75
I00
sg76
Vhttp://pbs.twimg.com/profile_background_images/655824261/x44519636f7df4a920b9929a76726d8e.png
p580
sg78
VNinjaRealtor1
p581
sg80
I7
sg81
VAmanda Alejandro
p582
sg83
V78C0A8
p583
sg85
Vhttp://t.co/7nGnxrIxm2
p584
sg87
I26670961
sg88
VFCEBB6
p585
sbsg90
I0
sg91
V<a href="http://www.facebook.com/twitter" rel="nofollow">Facebook</a>
p586
sg93
(lp587
g3
(g95
g5
Ntp588
Rp589
(dp590
g99
Vhttp://t.co/8SFwB3iSer
p591
sg101
Vhttp://soctk.com/2X4
p592
sbasg87
I541281042016251905
sbag3
(g4
g5
Ntp593
Rp594
(dp595
g9
I0
sg10
Nsg11
Nsg12
(lp596
sg14
I00
sg15
Nsg16
Nsg17
(lp597
sg19
Nsg20
Nsg21
Nsg22
VSat Dec 06 04:03:03 +0000 2014
p598
sg24
Nsg25
I00
sg26
Nsg27
Nsg28
Nsg29
Nsg30
I00
sg31
Nsg32
(lp599
sg34
Nsg35
V541080354346778625
p600
sg37
Nsg38
VPOOL TWO TIER DECK GREAT ST. LOUIS LOCATION  http://t.co/Yr87o4CVtT
p601
sg40
I00
sg41
Ven
p602
sg43
g3
(g44
g5
Ntp603
Rp604
(dp605
g10
VMissouri
p606
sg49
V5E412F
p607
sg51
Ven
p608
sg53
VCentral Time (US & Canada)
p609
sg55
I452
sg56
I819
sg22
VThu Mar 26 02:49:08 +0000 2009
p610
sg58
I00
sg59
VYOUR REALTOR FOR LIFE!
p611
sg61
Vhttps://pbs.twimg.com/profile_images/501759529306959872/LF3kNyYE_normal.jpeg
p612
sg63
I656
sg64
I2
sg65
I-21600
sg66
Nsg67
I00
sg68
Vhttps://pbs.twimg.com/profile_banners/26670961/1356980187
p613
sg70
I00
sg71
I01
sg72
VCE7734
p614
sg74
I00
sg75
I00
sg76
Vhttp://pbs.twimg.com/profile_background_images/655824261/x44519636f7df4a920b9929a76726d8e.png
p615
sg78
VNinjaRealtor1
p616
sg80
I7
sg81
VAmanda Alejandro
p617
sg83
V78C0A8
p618
sg85
Vhttp://t.co/7nGnxrIxm2
p619
sg87
I26670961
sg88
VFCEBB6
p620
sbsg90
I0
sg91
V<a href="http://www.facebook.com/twitter" rel="nofollow">Facebook</a>
p621
sg93
(lp622
g3
(g95
g5
Ntp623
Rp624
(dp625
g99
Vhttp://t.co/Yr87o4CVtT
p626
sg101
Vhttp://soctk.com/2Xv
p627
sbasg87
I541080354346778625
sbag3
(g4
g5
Ntp628
Rp629
(dp630
g9
I0
sg10
Nsg11
Nsg12
(lp631
sg14
I00
sg15
Nsg16
Nsg17
(lp632
sg19
Nsg20
Nsg21
Nsg22
VSat Dec 06 03:54:33 +0000 2014
p633
sg24
Nsg25
I00
sg26
Nsg27
Nsg28
Nsg29
Nsg30
I00
sg31
Nsg32
(lp634
sg34
Nsg35
V541078213204930560
p635
sg37
Nsg38
VWHY ARE YOU SEARCHING OTHER SITES FOR HOME STILL. 100 percent accurate and free! http://t.co/ocsuvOj7bJ
p636
sg40
I00
sg41
Ven
p637
sg43
g3
(g44
g5
Ntp638
Rp639
(dp640
g10
VMissouri
p641
sg49
V5E412F
p642
sg51
Ven
p643
sg53
VCentral Time (US & Canada)
p644
sg55
I452
sg56
I819
sg22
VThu Mar 26 02:49:08 +0000 2009
p645
sg58
I00
sg59
VYOUR REALTOR FOR LIFE!
p646
sg61
Vhttps://pbs.twimg.com/profile_images/501759529306959872/LF3kNyYE_normal.jpeg
p647
sg63
I656
sg64
I2
sg65
I-21600
sg66
Nsg67
I00
sg68
Vhttps://pbs.twimg.com/profile_banners/26670961/1356980187
p648
sg70
I00
sg71
I01
sg72
VCE7734
p649
sg74
I00
sg75
I00
sg76
Vhttp://pbs.twimg.com/profile_background_images/655824261/x44519636f7df4a920b9929a76726d8e.png
p650
sg78
VNinjaRealtor1
p651
sg80
I7
sg81
VAmanda Alejandro
p652
sg83
V78C0A8
p653
sg85
Vhttp://t.co/7nGnxrIxm2
p654
sg87
I26670961
sg88
VFCEBB6
p655
sbsg90
I0
sg91
V<a href="http://www.facebook.com/twitter" rel="nofollow">Facebook</a>
p656
sg93
(lp657
g3
(g95
g5
Ntp658
Rp659
(dp660
g99
Vhttp://t.co/ocsuvOj7bJ
p661
sg101
Vhttp://soctk.com/2VU
p662
sbasg87
I541078213204930560
sbag3
(g4
g5
Ntp663
Rp664
(dp665
g9
I0
sg10
Nsg11
Nsg12
(lp666
sg14
I00
sg15
Nsg16
Nsg17
(lp667
sg19
Nsg20
Nsg21
Nsg22
VSat Dec 06 03:45:31 +0000 2014
p668
sg24
Nsg25
I00
sg26
Nsg27
Nsg28
Nsg29
Nsg30
I00
sg31
Nsg32
(lp669
sg34
Nsg35
V541075941351751682
p670
sg37
Nsg38
VSee what our clients are saying... http://t.co/qIknDel2ma
p671
sg40
I00
sg41
Ven
p672
sg43
g3
(g44
g5
Ntp673
Rp674
(dp675
g10
VMissouri
p676
sg49
V5E412F
p677
sg51
Ven
p678
sg53
VCentral Time (US & Canada)
p679
sg55
I452
sg56
I819
sg22
VThu Mar 26 02:49:08 +0000 2009
p680
sg58
I00
sg59
VYOUR REALTOR FOR LIFE!
p681
sg61
Vhttps://pbs.twimg.com/profile_images/501759529306959872/LF3kNyYE_normal.jpeg
p682
sg63
I656
sg64
I2
sg65
I-21600
sg66
Nsg67
I00
sg68
Vhttps://pbs.twimg.com/profile_banners/26670961/1356980187
p683
sg70
I00
sg71
I01
sg72
VCE7734
p684
sg74
I00
sg75
I00
sg76
Vhttp://pbs.twimg.com/profile_background_images/655824261/x44519636f7df4a920b9929a76726d8e.png
p685
sg78
VNinjaRealtor1
p686
sg80
I7
sg81
VAmanda Alejandro
p687
sg83
V78C0A8
p688
sg85
Vhttp://t.co/7nGnxrIxm2
p689
sg87
I26670961
sg88
VFCEBB6
p690
sbsg90
I0
sg91
V<a href="http://www.facebook.com/twitter" rel="nofollow">Facebook</a>
p691
sg93
(lp692
g3
(g95
g5
Ntp693
Rp694
(dp695
g99
Vhttp://t.co/qIknDel2ma
p696
sg101
Vhttp://soctk.com/2Wf
p697
sbasg87
I541075941351751682
sbag3
(g4
g5
Ntp698
Rp699
(dp700
g9
I0
sg10
Nsg11
Nsg12
(lp701
sg14
I00
sg15
Nsg16
Nsg17
(lp702
sg19
Nsg20
Nsg21
Nsg22
VSat Dec 06 01:52:39 +0000 2014
p703
sg24
Nsg25
I00
sg26
Nsg27
Nsg28
Nsg29
Nsg30
I00
sg31
Nsg32
(lp704
sg34
Nsg35
V541047536656867329
p705
sg37
Nsg38
VGET THE HOMES HOT LIST BEFORE THEY HIT THE MARKET NOW FREE! http://t.co/eVUgFNKOsf
p706
sg40
I00
sg41
Ven
p707
sg43
g3
(g44
g5
Ntp708
Rp709
(dp710
g10
VMissouri
p711
sg49
V5E412F
p712
sg51
Ven
p713
sg53
VCentral Time (US & Canada)
p714
sg55
I452
sg56
I819
sg22
VThu Mar 26 02:49:08 +0000 2009
p715
sg58
I00
sg59
VYOUR REALTOR FOR LIFE!
p716
sg61
Vhttps://pbs.twimg.com/profile_images/501759529306959872/LF3kNyYE_normal.jpeg
p717
sg63
I656
sg64
I2
sg65
I-21600
sg66
Nsg67
I00
sg68
Vhttps://pbs.twimg.com/profile_banners/26670961/1356980187
p718
sg70
I00
sg71
I01
sg72
VCE7734
p719
sg74
I00
sg75
I00
sg76
Vhttp://pbs.twimg.com/profile_background_images/655824261/x44519636f7df4a920b9929a76726d8e.png
p720
sg78
VNinjaRealtor1
p721
sg80
I7
sg81
VAmanda Alejandro
p722
sg83
V78C0A8
p723
sg85
Vhttp://t.co/7nGnxrIxm2
p724
sg87
I26670961
sg88
VFCEBB6
p725
sbsg90
I0
sg91
V<a href="http://www.facebook.com/twitter" rel="nofollow">Facebook</a>
p726
sg93
(lp727
g3
(g95
g5
Ntp728
Rp729
(dp730
g99
Vhttp://t.co/eVUgFNKOsf
p731
sg101
Vhttp://soctk.com/2Xr
p732
sbasg87
I541047536656867329
sbag3
(g4
g5
Ntp733
Rp734
(dp735
g9
I0
sg10
Nsg11
Nsg12
(lp736
sg14
I00
sg15
Nsg16
Nsg17
(lp737
sg19
Nsg20
Nsg21
Nsg22
VFri Dec 05 21:11:05 +0000 2014
p738
sg24
Nsg25
I00
sg26
Nsg27
Nsg28
Nsg29
Nsg30
I00
sg31
Nsg32
(lp739
sg34
Nsg35
V540976679402094592
p740
sg37
Nsg38
VGET A FREE LIST OF BANK OWNED HOMES NOW! http://t.co/DqWnjZLy6V
p741
sg40
I00
sg41
Ven
p742
sg43
g3
(g44
g5
Ntp743
Rp744
(dp745
g10
VMissouri
p746
sg49
V5E412F
p747
sg51
Ven
p748
sg53
VCentral Time (US & Canada)
p749
sg55
I452
sg56
I819
sg22
VThu Mar 26 02:49:08 +0000 2009
p750
sg58
I00
sg59
VYOUR REALTOR FOR LIFE!
p751
sg61
Vhttps://pbs.twimg.com/profile_images/501759529306959872/LF3kNyYE_normal.jpeg
p752
sg63
I656
sg64
I2
sg65
I-21600
sg66
Nsg67
I00
sg68
Vhttps://pbs.twimg.com/profile_banners/26670961/1356980187
p753
sg70
I00
sg71
I01
sg72
VCE7734
p754
sg74
I00
sg75
I00
sg76
Vhttp://pbs.twimg.com/profile_background_images/655824261/x44519636f7df4a920b9929a76726d8e.png
p755
sg78
VNinjaRealtor1
p756
sg80
I7
sg81
VAmanda Alejandro
p757
sg83
V78C0A8
p758
sg85
Vhttp://t.co/7nGnxrIxm2
p759
sg87
I26670961
sg88
VFCEBB6
p760
sbsg90
I0
sg91
V<a href="http://www.upsidesocialtoolkit.com" rel="nofollow">Social Network Toolkit</a>
p761
sg93
(lp762
g3
(g95
g5
Ntp763
Rp764
(dp765
g99
Vhttp://t.co/DqWnjZLy6V
p766
sg101
Vhttp://soctk.com/2Wh
p767
sbasg87
I540976679402094592
sbaa.