(lp0
S'Km2sweet'
p1
a(lp2
ccopy_reg
_reconstructor
p3
(ctwitter
Status
p4
c__builtin__
object
p5
Ntp6
Rp7
(dp8
S'_favorite_count'
p9
I0
sS'_location'
p10
NsS'_withheld_scope'
p11
NsS'hashtags'
p12
(lp13
g3
(ctwitter
Hashtag
p14
g5
Ntp15
Rp16
(dp17
S'text'
p18
VReadySetGive
p19
sbasS'_truncated'
p20
I00
sS'_retweeted_status'
p21
NsS'_withheld_copyright'
p22
NsS'media'
p23
(lp24
sS'_place'
p25
NsS'_contributors'
p26
NsS'_current_user_retweet'
p27
NsS'_created_at'
p28
VSat Dec 13 18:35:24 +0000 2014
p29
sS'_scopes'
p30
NsS'_possibly_sensitive'
p31
I00
sS'_in_reply_to_screen_name'
p32
NsS'_coordinates'
p33
NsS'_in_reply_to_user_id'
p34
NsS'_geo'
p35
NsS'_favorited'
p36
I00
sS'_withheld_in_countries'
p37
NsS'user_mentions'
p38
(lp39
g3
(ctwitter
User
p40
g5
Ntp41
Rp42
(dp43
g10
NsS'_profile_text_color'
p44
NsS'_lang'
p45
NsS'_time_zone'
p46
NsS'_followers_count'
p47
NsS'_statuses_count'
p48
Nsg28
NsS'_verified'
p49
NsS'_description'
p50
NsS'_profile_image_url'
p51
NsS'_friends_count'
p52
NsS'_favourites_count'
p53
NsS'_utc_offset'
p54
NsS'_status'
p55
NsS'_protected'
p56
NsS'_profile_banner_url'
p57
NsS'_notifications'
p58
NsS'_profile_background_tile'
p59
NsS'_profile_link_color'
p60
NsS'_geo_enabled'
p61
NsS'_contributors_enabled'
p62
NsS'_profile_background_image_url'
p63
NsS'_screen_name'
p64
VBobbiBrown
p65
sS'_listed_count'
p66
NsS'_name'
p67
VBobbiBrown Cosmetics
p68
sS'_profile_sidebar_fill_color'
p69
NsS'_url'
p70
NsS'_id'
p71
I43121121
sS'_profile_background_color'
p72
NsbasS'_now'
p73
NsS'_id_str'
p74
V543836601890009088
p75
sS'_in_reply_to_status_id'
p76
NsS'_text'
p77
VI just entered @BobbiBrown's #ReadySetGive Giveaway and you should, too! It's the gift that keeps on giving. http://t.co/0UYZhignS5
p78
sS'_retweeted'
p79
I00
sS'lang'
p80
Ven
p81
sS'_user'
p82
g3
(g40
g5
Ntp83
Rp84
(dp85
g10
VSumter
p86
sg44
V3D1957
p87
sg45
Ven
p88
sg46
VEastern Time (US & Canada)
p89
sg47
I63
sg48
I3239
sg28
VFri Mar 20 16:26:22 +0000 2009
p90
sg49
I00
sg50
VHappily married stay at home mom with 4 beautiful children. Loving God and loving life!
p91
sg51
Vhttps://pbs.twimg.com/profile_images/524609962367275009/imMr8lde_normal.jpeg
p92
sg52
I303
sg53
I762
sg54
I-18000
sg55
Nsg56
I00
sg57
Vhttps://pbs.twimg.com/profile_banners/25529287/1412018541
p93
sg58
I00
sg59
I01
sg60
VFF0000
p94
sg61
I00
sg62
I00
sg63
Vhttp://abs.twimg.com/images/themes/theme10/bg.gif
p95
sg64
VKm2sweet
p96
sg66
I0
sg67
VKimberly Rogers
p97
sg69
V7AC3EE
p98
sg70
Nsg71
I25529287
sg72
V642D8B
p99
sbsS'_retweet_count'
p100
I0
sS'_source'
p101
V<a href="https://dev.twitter.com/docs/tfw" rel="nofollow">Twitter for Websites</a>
p102
sS'urls'
p103
(lp104
g3
(ctwitter
Url
p105
g5
Ntp106
Rp107
(dp108
S'url'
p109
Vhttp://t.co/0UYZhignS5
p110
sS'expanded_url'
p111
Vhttp://bbrwn.co/BBHoliday
p112
sbasg71
I543836601890009088
sbag3
(g4
g5
Ntp113
Rp114
(dp115
g9
I0
sg10
Nsg11
Nsg12
(lp116
g3
(g14
g5
Ntp117
Rp118
(dp119
g18
VWIS10FHF
p120
sbasg20
I00
sg21
g3
(g4
g5
Ntp121
Rp122
(dp123
g9
I1
sg10
Nsg11
Nsg12
(lp124
g3
(g14
g5
Ntp125
Rp126
(dp127
g18
VWIS10FHF
p128
sbasg20
I00
sg21
Nsg22
Nsg23
(lp129
sg25
Nsg26
Nsg27
Nsg28
VFri Dec 12 23:24:33 +0000 2014
p130
sg30
Nsg31
I00
sg32
Nsg33
Nsg34
Nsg35
Nsg36
I00
sg37
Nsg38
(lp131
sg73
Nsg74
V543546980501561345
p132
sg76
Nsg77
V40 families left to be adopted, folks. WILL YOU HELP? Call 822-2004, 758-1020 OR visit http://t.co/o2vbkjCMxA to adopt a family! #WIS10FHF
p133
sg79
I00
sg80
Ven
p134
sg82
g3
(g40
g5
Ntp135
Rp136
(dp137
g10
VColumbia, SC
p138
sg44
V666666
p139
sg45
Ven
p140
sg46
VEastern Time (US & Canada)
p141
sg47
I35638
sg48
I93187
sg28
VMon Sep 22 15:26:00 +0000 2008
p142
sg49
I00
sg50
VBreaking News, Weather and Sports
p143
sg51
Vhttps://pbs.twimg.com/profile_images/528331648111108096/c3zPfoKh_normal.jpeg
p144
sg52
I2267
sg53
I556
sg54
I-18000
sg55
Nsg56
I00
sg57
Vhttps://pbs.twimg.com/profile_banners/16404646/1398225532
p145
sg58
I00
sg59
I00
sg60
V030A94
p146
sg61
I01
sg62
I00
sg63
Vhttp://pbs.twimg.com/profile_background_images/438067672652062720/vBf8ZFK_.png
p147
sg64
Vwis10
p148
sg66
I684
sg67
VWIS News 10
p149
sg69
V000000
p150
sg70
Vhttp://t.co/g55246iYn7
p151
sg71
I16404646
sg72
V030A94
p152
sbsg100
I5
sg101
V<a href="http://www.shoutlet.com" rel="nofollow">Shoutlet API</a>
p153
sg103
(lp154
g3
(g105
g5
Ntp155
Rp156
(dp157
g109
Vhttp://t.co/o2vbkjCMxA
p158
sg111
Vhttp://shout.lt/NSXM
p159
sbasg71
I543546980501561345
sbsg22
Nsg23
(lp160
sg25
Nsg26
Nsg27
Nsg28
VSat Dec 13 02:23:07 +0000 2014
p161
sg30
Nsg31
I00
sg32
Nsg33
Nsg34
Nsg35
Nsg36
I00
sg37
Nsg38
(lp162
g3
(g40
g5
Ntp163
Rp164
(dp165
g10
Nsg44
Nsg45
Nsg46
Nsg47
Nsg48
Nsg28
Nsg49
Nsg50
Nsg51
Nsg52
Nsg53
Nsg54
Nsg55
Nsg56
Nsg57
Nsg58
Nsg59
Nsg60
Nsg61
Nsg62
Nsg63
Nsg64
Vwis10
p166
sg66
Nsg67
VWIS News 10
p167
sg69
Nsg70
Nsg71
I16404646
sg72
Nsbasg73
Nsg74
V543591917528055808
p168
sg76
Nsg77
VRT @wis10: 40 families left to be adopted, folks. WILL YOU HELP? Call 822-2004, 758-1020 OR visit http://t.co/o2vbkjCMxA to adopt a family!\u2026
p169
sg79
I00
sg80
Ven
p170
sg82
g3
(g40
g5
Ntp171
Rp172
(dp173
g10
VSumter
p174
sg44
V3D1957
p175
sg45
Ven
p176
sg46
VEastern Time (US & Canada)
p177
sg47
I63
sg48
I3239
sg28
VFri Mar 20 16:26:22 +0000 2009
p178
sg49
I00
sg50
VHappily married stay at home mom with 4 beautiful children. Loving God and loving life!
p179
sg51
Vhttps://pbs.twimg.com/profile_images/524609962367275009/imMr8lde_normal.jpeg
p180
sg52
I303
sg53
I762
sg54
I-18000
sg55
Nsg56
I00
sg57
Vhttps://pbs.twimg.com/profile_banners/25529287/1412018541
p181
sg58
I00
sg59
I01
sg60
VFF0000
p182
sg61
I00
sg62
I00
sg63
Vhttp://abs.twimg.com/images/themes/theme10/bg.gif
p183
sg64
VKm2sweet
p184
sg66
I0
sg67
VKimberly Rogers
p185
sg69
V7AC3EE
p186
sg70
Nsg71
I25529287
sg72
V642D8B
p187
sbsg100
I5
sg101
V<a href="https://twitter.com/download/android" rel="nofollow">Twitter for Android Tablets</a>
p188
sg103
(lp189
g3
(g105
g5
Ntp190
Rp191
(dp192
g109
Vhttp://t.co/o2vbkjCMxA
p193
sg111
Vhttp://shout.lt/NSXM
p194
sbasg71
I543591917528055808
sbag3
(g4
g5
Ntp195
Rp196
(dp197
g9
I0
sg10
Nsg11
Nsg12
(lp198
g3
(g14
g5
Ntp199
Rp200
(dp201
g18
VDisneysDescendants
p202
sbasg20
I00
sg21
g3
(g4
g5
Ntp203
Rp204
(dp205
g9
I585
sg10
Nsg11
Nsg12
(lp206
g3
(g14
g5
Ntp207
Rp208
(dp209
g18
VDisneysDescendants
p210
sbasg20
I00
sg21
Nsg22
Nsg23
(lp211
sg25
Nsg26
Nsg27
Nsg28
VSat Dec 13 00:15:05 +0000 2014
p212
sg30
Nsg31
I00
sg32
Nsg33
Nsg34
Nsg35
Nsg36
I00
sg37
Nsg38
(lp213
g3
(g40
g5
Ntp214
Rp215
(dp216
g10
Nsg44
Nsg45
Nsg46
Nsg47
Nsg48
Nsg28
Nsg49
Nsg50
Nsg51
Nsg52
Nsg53
Nsg54
Nsg55
Nsg56
Nsg57
Nsg58
Nsg59
Nsg60
Nsg61
Nsg62
Nsg63
Nsg64
VDisneyChannel
p217
sg66
Nsg67
VDisney Channel
p218
sg69
Nsg70
Nsg71
I1909344061
sg72
Nsbasg73
Nsg74
V543559696762675201
p219
sg76
Nsg77
VBeing bad runs in the family. See the new teaser for @DisneyChannel's #DisneysDescendants:\u000ahttps://t.co/Q72dKwx7Gi
p220
sg79
I00
sg80
Ven
p221
sg82
g3
(g40
g5
Ntp222
Rp223
(dp224
g10
V
p225
sg44
V000000
p226
sg45
Ven
p227
sg46
VPacific Time (US & Canada)
p228
sg47
I4031179
sg48
I3516
sg28
VThu Aug 20 20:40:59 +0000 2009
p229
sg49
I01
sg50
VWe seek to estimate the future and its bearing on our existence, as well as dwelling fondly on the past or indulging in escapist dreams. - Walt Disney
p230
sg51
Vhttps://pbs.twimg.com/profile_images/424003458266456065/6c52t6fR_normal.jpeg
p231
sg52
I45
sg53
I0
sg54
I-28800
sg55
Nsg56
I00
sg57
Vhttps://pbs.twimg.com/profile_banners/67418441/1415569471
p232
sg58
I00
sg59
I00
sg60
V0E5A82
p233
sg61
I00
sg62
I00
sg63
Vhttp://pbs.twimg.com/profile_background_images/531563275222126593/_puQY8fA.jpeg
p234
sg64
VDisney
p235
sg66
I9913
sg67
VDisney
p236
sg69
VCFE6FF
p237
sg70
Vhttp://t.co/1iB1VeGL8q
p238
sg71
I67418441
sg72
VFCFCFC
p239
sbsg100
I267
sg101
V<a href="http://twitter.com" rel="nofollow">Twitter Web Client</a>
p240
sg103
(lp241
g3
(g105
g5
Ntp242
Rp243
(dp244
g109
Vhttps://t.co/Q72dKwx7Gi
p245
sg111
Vhttps://amp.twimg.com/v/70a53880-0a78-4b65-969d-82d8ef262b59
p246
sbasg71
I543559696762675201
sbsg22
Nsg23
(lp247
sg25
Nsg26
Nsg27
Nsg28
VSat Dec 13 02:17:55 +0000 2014
p248
sg30
Nsg31
I00
sg32
Nsg33
Nsg34
Nsg35
Nsg36
I00
sg37
Nsg38
(lp249
g3
(g40
g5
Ntp250
Rp251
(dp252
g10
Nsg44
Nsg45
Nsg46
Nsg47
Nsg48
Nsg28
Nsg49
Nsg50
Nsg51
Nsg52
Nsg53
Nsg54
Nsg55
Nsg56
Nsg57
Nsg58
Nsg59
Nsg60
Nsg61
Nsg62
Nsg63
Nsg64
VDisney
p253
sg66
Nsg67
VDisney
p254
sg69
Nsg70
Nsg71
I67418441
sg72
Nsbag3
(g40
g5
Ntp255
Rp256
(dp257
g10
Nsg44
Nsg45
Nsg46
Nsg47
Nsg48
Nsg28
Nsg49
Nsg50
Nsg51
Nsg52
Nsg53
Nsg54
Nsg55
Nsg56
Nsg57
Nsg58
Nsg59
Nsg60
Nsg61
Nsg62
Nsg63
Nsg64
VDisneyChannel
p258
sg66
Nsg67
VDisney Channel
p259
sg69
Nsg70
Nsg71
I1909344061
sg72
Nsbasg73
Nsg74
V543590610603872256
p260
sg76
Nsg77
VRT @Disney: Being bad runs in the family. See the new teaser for @DisneyChannel's #DisneysDescendants:\u000ahttps://t.co/Q72dKwx7Gi
p261
sg79
I00
sg80
Ven
p262
sg82
g3
(g40
g5
Ntp263
Rp264
(dp265
g10
VSumter
p266
sg44
V3D1957
p267
sg45
Ven
p268
sg46
VEastern Time (US & Canada)
p269
sg47
I63
sg48
I3239
sg28
VFri Mar 20 16:26:22 +0000 2009
p270
sg49
I00
sg50
VHappily married stay at home mom with 4 beautiful children. Loving God and loving life!
p271
sg51
Vhttps://pbs.twimg.com/profile_images/524609962367275009/imMr8lde_normal.jpeg
p272
sg52
I303
sg53
I762
sg54
I-18000
sg55
Nsg56
I00
sg57
Vhttps://pbs.twimg.com/profile_banners/25529287/1412018541
p273
sg58
I00
sg59
I01
sg60
VFF0000
p274
sg61
I00
sg62
I00
sg63
Vhttp://abs.twimg.com/images/themes/theme10/bg.gif
p275
sg64
VKm2sweet
p276
sg66
I0
sg67
VKimberly Rogers
p277
sg69
V7AC3EE
p278
sg70
Nsg71
I25529287
sg72
V642D8B
p279
sbsg100
I267
sg101
V<a href="https://twitter.com/download/android" rel="nofollow">Twitter for Android Tablets</a>
p280
sg103
(lp281
g3
(g105
g5
Ntp282
Rp283
(dp284
g109
Vhttps://t.co/Q72dKwx7Gi
p285
sg111
Vhttps://amp.twimg.com/v/70a53880-0a78-4b65-969d-82d8ef262b59
p286
sbasg71
I543590610603872256
sbag3
(g4
g5
Ntp287
Rp288
(dp289
g9
I0
sg10
Nsg11
Nsg12
(lp290
g3
(g14
g5
Ntp291
Rp292
(dp293
g18
VCocaColaTrivia
p294
sbasg20
I00
sg21
Nsg22
Nsg23
(lp295
sg25
Nsg26
Nsg27
Nsg28
VFri Dec 12 21:57:13 +0000 2014
p296
sg30
Nsg31
I00
sg32
Nsg33
Nsg34
Nsg35
Nsg36
I00
sg37
Nsg38
(lp297
sg73
Nsg74
V543525000938926080
p298
sg76
Nsg77
VI just dominated #CocaColaTrivia. Are you a trivia buff? Check it out on http://t.co/3HRs7QxTtu and show off your stuff.
p299
sg79
I00
sg80
Ven
p300
sg82
g3
(g40
g5
Ntp301
Rp302
(dp303
g10
VSumter
p304
sg44
V3D1957
p305
sg45
Ven
p306
sg46
VEastern Time (US & Canada)
p307
sg47
I63
sg48
I3239
sg28
VFri Mar 20 16:26:22 +0000 2009
p308
sg49
I00
sg50
VHappily married stay at home mom with 4 beautiful children. Loving God and loving life!
p309
sg51
Vhttps://pbs.twimg.com/profile_images/524609962367275009/imMr8lde_normal.jpeg
p310
sg52
I303
sg53
I762
sg54
I-18000
sg55
Nsg56
I00
sg57
Vhttps://pbs.twimg.com/profile_banners/25529287/1412018541
p311
sg58
I00
sg59
I01
sg60
VFF0000
p312
sg61
I00
sg62
I00
sg63
Vhttp://abs.twimg.com/images/themes/theme10/bg.gif
p313
sg64
VKm2sweet
p314
sg66
I0
sg67
VKimberly Rogers
p315
sg69
V7AC3EE
p316
sg70
Nsg71
I25529287
sg72
V642D8B
p317
sbsg100
I0
sg101
V<a href="https://dev.twitter.com/docs/tfw" rel="nofollow">Twitter for Websites</a>
p318
sg103
(lp319
g3
(g105
g5
Ntp320
Rp321
(dp322
g109
Vhttp://t.co/3HRs7QxTtu
p323
sg111
Vhttp://cokeurl.com/trivia
p324
sbasg71
I543525000938926080
sbag3
(g4
g5
Ntp325
Rp326
(dp327
g9
I0
sg10
Nsg11
Nsg12
(lp328
g3
(g14
g5
Ntp329
Rp330
(dp331
g18
VKayHolidayPromo
p332
sbasg20
I00
sg21
Nsg22
Nsg23
(lp333
sg25
Nsg26
Nsg27
Nsg28
VFri Dec 12 21:17:18 +0000 2014
p334
sg30
Nsg31
Nsg32
Nsg33
Nsg34
Nsg35
Nsg36
I00
sg37
Nsg38
(lp335
g3
(g40
g5
Ntp336
Rp337
(dp338
g10
Nsg44
Nsg45
Nsg46
Nsg47
Nsg48
Nsg28
Nsg49
Nsg50
Nsg51
Nsg52
Nsg53
Nsg54
Nsg55
Nsg56
Nsg57
Nsg58
Nsg59
Nsg60
Nsg61
Nsg62
Nsg63
Nsg64
VKayJewelers
p339
sg66
Nsg67
VKay Jewelers
p340
sg69
Nsg70
Nsg71
I482425439
sg72
Nsbasg73
Nsg74
V543514958852390912
p341
sg76
Nsg77
VI just entered to win this from @KayJewelers! No pur nec. Ends 12/14. 18+. #KayHolidayPromo
p342
sg79
I00
sg80
Ven
p343
sg82
g3
(g40
g5
Ntp344
Rp345
(dp346
g10
VSumter
p347
sg44
V3D1957
p348
sg45
Ven
p349
sg46
VEastern Time (US & Canada)
p350
sg47
I63
sg48
I3239
sg28
VFri Mar 20 16:26:22 +0000 2009
p351
sg49
I00
sg50
VHappily married stay at home mom with 4 beautiful children. Loving God and loving life!
p352
sg51
Vhttps://pbs.twimg.com/profile_images/524609962367275009/imMr8lde_normal.jpeg
p353
sg52
I303
sg53
I762
sg54
I-18000
sg55
Nsg56
I00
sg57
Vhttps://pbs.twimg.com/profile_banners/25529287/1412018541
p354
sg58
I00
sg59
I01
sg60
VFF0000
p355
sg61
I00
sg62
I00
sg63
Vhttp://abs.twimg.com/images/themes/theme10/bg.gif
p356
sg64
VKm2sweet
p357
sg66
I0
sg67
VKimberly Rogers
p358
sg69
V7AC3EE
p359
sg70
Nsg71
I25529287
sg72
V642D8B
p360
sbsg100
I0
sg101
V<a href="https://dev.twitter.com/docs/tfw" rel="nofollow">Twitter for Websites</a>
p361
sg103
(lp362
sg71
I543514958852390912
sbag3
(g4
g5
Ntp363
Rp364
(dp365
g9
I0
sg10
Nsg11
Nsg12
(lp366
sg20
I00
sg21
g3
(g4
g5
Ntp367
Rp368
(dp369
g9
I1
sg10
Nsg11
Nsg12
(lp370
sg20
I00
sg21
Nsg22
Nsg23
(lp371
sg25
Nsg26
Nsg27
Nsg28
VFri Dec 12 19:23:04 +0000 2014
p372
sg30
Nsg31
I00
sg32
Nsg33
Nsg34
Nsg35
Nsg36
I00
sg37
Nsg38
(lp373
sg73
Nsg74
V543486210648580096
p374
sg76
Nsg77
VWe're making another push to Cram A Cruiser full of toys for local children. Cpl. James Sinkler will accept... http://t.co/hdJKxYji9I
p375
sg79
I00
sg80
Ven
p376
sg82
g3
(g40
g5
Ntp377
Rp378
(dp379
g10
VSumter, SC
p380
sg44
V333333
p381
sg45
Ven
p382
sg46
VEastern Time (US & Canada)
p383
sg47
I931
sg48
I1388
sg28
VMon Aug 16 17:38:45 +0000 2010
p384
sg49
I00
sg50
VThe Twitter home of the Sumter, SC Police Department, located at 107 E. Hampton Avenue, Sumter SC 29150, Russell F. Roark III, Chief of Police
p385
sg51
Vhttps://pbs.twimg.com/profile_images/450995795357999104/orriuZND_normal.png
p386
sg52
I82
sg53
I73
sg54
I-18000
sg55
Nsg56
I00
sg57
Vhttps://pbs.twimg.com/profile_banners/179169363/1396360769
p387
sg58
I00
sg59
I01
sg60
V93A644
p388
sg61
I00
sg62
I00
sg63
Vhttp://pbs.twimg.com/profile_background_images/450996198338355200/-d15DS5k.png
p389
sg64
Vsumterscpolice
p390
sg66
I20
sg67
VSumter Police Dept.
p391
sg69
VFFFFFF
p392
sg70
Vhttp://t.co/EhkPRgj3N4
p393
sg71
I179169363
sg72
VB2DFDA
p394
sbsg100
I1
sg101
V<a href="http://www.facebook.com/twitter" rel="nofollow">Facebook</a>
p395
sg103
(lp396
g3
(g105
g5
Ntp397
Rp398
(dp399
g109
Vhttp://t.co/hdJKxYji9I
p400
sg111
Vhttp://fb.me/1HVC2doNZ
p401
sbasg71
I543486210648580096
sbsg22
Nsg23
(lp402
sg25
Nsg26
Nsg27
Nsg28
VFri Dec 12 20:08:20 +0000 2014
p403
sg30
Nsg31
I00
sg32
Nsg33
Nsg34
Nsg35
Nsg36
I00
sg37
Nsg38
(lp404
g3
(g40
g5
Ntp405
Rp406
(dp407
g10
Nsg44
Nsg45
Nsg46
Nsg47
Nsg48
Nsg28
Nsg49
Nsg50
Nsg51
Nsg52
Nsg53
Nsg54
Nsg55
Nsg56
Nsg57
Nsg58
Nsg59
Nsg60
Nsg61
Nsg62
Nsg63
Nsg64
Vsumterscpolice
p408
sg66
Nsg67
VSumter Police Dept.
p409
sg69
Nsg70
Nsg71
I179169363
sg72
Nsbasg73
Nsg74
V543497601472294912
p410
sg76
Nsg77
VRT @sumterscpolice: We're making another push to Cram A Cruiser full of toys for local children. Cpl. James Sinkler will accept... http://t\u2026
p411
sg79
I00
sg80
Ven
p412
sg82
g3
(g40
g5
Ntp413
Rp414
(dp415
g10
VSumter
p416
sg44
V3D1957
p417
sg45
Ven
p418
sg46
VEastern Time (US & Canada)
p419
sg47
I63
sg48
I3239
sg28
VFri Mar 20 16:26:22 +0000 2009
p420
sg49
I00
sg50
VHappily married stay at home mom with 4 beautiful children. Loving God and loving life!
p421
sg51
Vhttps://pbs.twimg.com/profile_images/524609962367275009/imMr8lde_normal.jpeg
p422
sg52
I303
sg53
I762
sg54
I-18000
sg55
Nsg56
I00
sg57
Vhttps://pbs.twimg.com/profile_banners/25529287/1412018541
p423
sg58
I00
sg59
I01
sg60
VFF0000
p424
sg61
I00
sg62
I00
sg63
Vhttp://abs.twimg.com/images/themes/theme10/bg.gif
p425
sg64
VKm2sweet
p426
sg66
I0
sg67
VKimberly Rogers
p427
sg69
V7AC3EE
p428
sg70
Nsg71
I25529287
sg72
V642D8B
p429
sbsg100
I1
sg101
V<a href="https://twitter.com/download/android" rel="nofollow">Twitter for Android Tablets</a>
p430
sg103
(lp431
g3
(g105
g5
Ntp432
Rp433
(dp434
g109
Vhttp://t.co/hdJKxYji9I
p435
sg111
Vhttp://fb.me/1HVC2doNZ
p436
sbasg71
I543497601472294912
sbag3
(g4
g5
Ntp437
Rp438
(dp439
g9
I0
sg10
Nsg11
Nsg12
(lp440
sg20
I00
sg21
Nsg22
Nsg23
(lp441
sg25
Nsg26
Nsg27
Nsg28
VFri Dec 12 19:48:15 +0000 2014
p442
sg30
Nsg31
I00
sg32
Nsg33
Nsg34
Nsg35
Nsg36
I00
sg37
Nsg38
(lp443
sg73
Nsg74
V543492545871740928
p444
sg76
Nsg77
VNow faith is the substance of things hoped for, the evidence of things not seen. http://t.co/6YKyjH9dvf
p445
sg79
I00
sg80
Ven
p446
sg82
g3
(g40
g5
Ntp447
Rp448
(dp449
g10
VSumter
p450
sg44
V3D1957
p451
sg45
Ven
p452
sg46
VEastern Time (US & Canada)
p453
sg47
I63
sg48
I3239
sg28
VFri Mar 20 16:26:22 +0000 2009
p454
sg49
I00
sg50
VHappily married stay at home mom with 4 beautiful children. Loving God and loving life!
p455
sg51
Vhttps://pbs.twimg.com/profile_images/524609962367275009/imMr8lde_normal.jpeg
p456
sg52
I303
sg53
I762
sg54
I-18000
sg55
Nsg56
I00
sg57
Vhttps://pbs.twimg.com/profile_banners/25529287/1412018541
p457
sg58
I00
sg59
I01
sg60
VFF0000
p458
sg61
I00
sg62
I00
sg63
Vhttp://abs.twimg.com/images/themes/theme10/bg.gif
p459
sg64
VKm2sweet
p460
sg66
I0
sg67
VKimberly Rogers
p461
sg69
V7AC3EE
p462
sg70
Nsg71
I25529287
sg72
V642D8B
p463
sbsg100
I0
sg101
V<a href="http://www.youversion.com" rel="nofollow">Bible</a>
p464
sg103
(lp465
g3
(g105
g5
Ntp466
Rp467
(dp468
g109
Vhttp://t.co/6YKyjH9dvf
p469
sg111
Vhttp://bible.com/114/heb.11.1.nkjv
p470
sbasg71
I543492545871740928
sbag3
(g4
g5
Ntp471
Rp472
(dp473
g9
I0
sg10
Nsg11
Nsg12
(lp474
sg20
I00
sg21
Nsg22
Nsg23
(lp475
sg25
Nsg26
Nsg27
Nsg28
VFri Dec 12 04:36:47 +0000 2014
p476
sg30
Nsg31
Nsg32
VNutellaUSA
p477
sg33
Nsg34
I414207210
sg35
Nsg36
I00
sg37
Nsg38
(lp478
g3
(g40
g5
Ntp479
Rp480
(dp481
g10
Nsg44
Nsg45
Nsg46
Nsg47
Nsg48
Nsg28
Nsg49
Nsg50
Nsg51
Nsg52
Nsg53
Nsg54
Nsg55
Nsg56
Nsg57
Nsg58
Nsg59
Nsg60
Nsg61
Nsg62
Nsg63
Nsg64
VNutellaUSA
p482
sg66
Nsg67
VNutella
p483
sg69
Nsg70
Nsg71
I414207210
sg72
Nsbasg73
Nsg74
V543263167342968832
p484
sg76
I543238871283015680
sg77
V@NutellaUSA I would love to have it so I can make some Nutella french toast for the family for Christmas morning!
p485
sg79
I00
sg80
Ven
p486
sg82
g3
(g40
g5
Ntp487
Rp488
(dp489
g10
VSumter
p490
sg44
V3D1957
p491
sg45
Ven
p492
sg46
VEastern Time (US & Canada)
p493
sg47
I63
sg48
I3239
sg28
VFri Mar 20 16:26:22 +0000 2009
p494
sg49
I00
sg50
VHappily married stay at home mom with 4 beautiful children. Loving God and loving life!
p495
sg51
Vhttps://pbs.twimg.com/profile_images/524609962367275009/imMr8lde_normal.jpeg
p496
sg52
I303
sg53
I762
sg54
I-18000
sg55
Nsg56
I00
sg57
Vhttps://pbs.twimg.com/profile_banners/25529287/1412018541
p497
sg58
I00
sg59
I01
sg60
VFF0000
p498
sg61
I00
sg62
I00
sg63
Vhttp://abs.twimg.com/images/themes/theme10/bg.gif
p499
sg64
VKm2sweet
p500
sg66
I0
sg67
VKimberly Rogers
p501
sg69
V7AC3EE
p502
sg70
Nsg71
I25529287
sg72
V642D8B
p503
sbsg100
I0
sg101
V<a href="https://twitter.com/download/android" rel="nofollow">Twitter for Android Tablets</a>
p504
sg103
(lp505
sg71
I543263167342968832
sbag3
(g4
g5
Ntp506
Rp507
(dp508
g9
I0
sg10
Nsg11
Nsg12
(lp509
g3
(g14
g5
Ntp510
Rp511
(dp512
g18
VPopUpSantaSweepsEntry
p513
sbasg20
I00
sg21
Nsg22
Nsg23
(lp514
sg25
Nsg26
Nsg27
Nsg28
VThu Dec 11 23:30:34 +0000 2014
p515
sg30
Nsg31
I00
sg32
Nsg33
Nsg34
Nsg35
Nsg36
I00
sg37
Nsg38
(lp516
g3
(g40
g5
Ntp517
Rp518
(dp519
g10
Nsg44
Nsg45
Nsg46
Nsg47
Nsg48
Nsg28
Nsg49
Nsg50
Nsg51
Nsg52
Nsg53
Nsg54
Nsg55
Nsg56
Nsg57
Nsg58
Nsg59
Nsg60
Nsg61
Nsg62
Nsg63
Nsg64
VABCF25days
p520
sg66
Nsg67
V25 Days of Christmas
p521
sg69
Nsg70
Nsg71
I91432615
sg72
Nsbasg73
Nsg74
V543186108763217923
p522
sg76
Nsg77
VI just entered @ABCF25Days Pop Up Santa Sweepstakes! #PopUpSantaSweepsEntry http://t.co/NKZz72nrxv
p523
sg79
I00
sg80
Ven
p524
sg82
g3
(g40
g5
Ntp525
Rp526
(dp527
g10
VSumter
p528
sg44
V3D1957
p529
sg45
Ven
p530
sg46
VEastern Time (US & Canada)
p531
sg47
I63
sg48
I3239
sg28
VFri Mar 20 16:26:22 +0000 2009
p532
sg49
I00
sg50
VHappily married stay at home mom with 4 beautiful children. Loving God and loving life!
p533
sg51
Vhttps://pbs.twimg.com/profile_images/524609962367275009/imMr8lde_normal.jpeg
p534
sg52
I303
sg53
I762
sg54
I-18000
sg55
Nsg56
I00
sg57
Vhttps://pbs.twimg.com/profile_banners/25529287/1412018541
p535
sg58
I00
sg59
I01
sg60
VFF0000
p536
sg61
I00
sg62
I00
sg63
Vhttp://abs.twimg.com/images/themes/theme10/bg.gif
p537
sg64
VKm2sweet
p538
sg66
I0
sg67
VKimberly Rogers
p539
sg69
V7AC3EE
p540
sg70
Nsg71
I25529287
sg72
V642D8B
p541
sbsg100
I0
sg101
V<a href="https://dev.twitter.com/docs/tfw" rel="nofollow">Twitter for Websites</a>
p542
sg103
(lp543
g3
(g105
g5
Ntp544
Rp545
(dp546
g109
Vhttp://t.co/NKZz72nrxv
p547
sg111
Vhttp://www.popupsanta.tv/day/11/sweepstakes
p548
sbasg71
I543186108763217923
sbag3
(g4
g5
Ntp549
Rp550
(dp551
g9
I0
sg10
Nsg11
Nsg12
(lp552
g3
(g14
g5
Ntp553
Rp554
(dp555
g18
VReadySetGive
p556
sbasg20
I00
sg21
Nsg22
Nsg23
(lp557
sg25
Nsg26
Nsg27
Nsg28
VThu Dec 11 23:10:04 +0000 2014
p558
sg30
Nsg31
I00
sg32
Nsg33
Nsg34
Nsg35
Nsg36
I00
sg37
Nsg38
(lp559
g3
(g40
g5
Ntp560
Rp561
(dp562
g10
Nsg44
Nsg45
Nsg46
Nsg47
Nsg48
Nsg28
Nsg49
Nsg50
Nsg51
Nsg52
Nsg53
Nsg54
Nsg55
Nsg56
Nsg57
Nsg58
Nsg59
Nsg60
Nsg61
Nsg62
Nsg63
Nsg64
VBobbiBrown
p563
sg66
Nsg67
VBobbiBrown Cosmetics
p564
sg69
Nsg70
Nsg71
I43121121
sg72
Nsbasg73
Nsg74
V543180948829769728
p565
sg76
Nsg77
VI just entered @BobbiBrown's #ReadySetGive Giveaway and you should, too! It's the gift that keeps on giving. http://t.co/0UYZhignS5
p566
sg79
I00
sg80
Ven
p567
sg82
g3
(g40
g5
Ntp568
Rp569
(dp570
g10
VSumter
p571
sg44
V3D1957
p572
sg45
Ven
p573
sg46
VEastern Time (US & Canada)
p574
sg47
I63
sg48
I3239
sg28
VFri Mar 20 16:26:22 +0000 2009
p575
sg49
I00
sg50
VHappily married stay at home mom with 4 beautiful children. Loving God and loving life!
p576
sg51
Vhttps://pbs.twimg.com/profile_images/524609962367275009/imMr8lde_normal.jpeg
p577
sg52
I303
sg53
I762
sg54
I-18000
sg55
Nsg56
I00
sg57
Vhttps://pbs.twimg.com/profile_banners/25529287/1412018541
p578
sg58
I00
sg59
I01
sg60
VFF0000
p579
sg61
I00
sg62
I00
sg63
Vhttp://abs.twimg.com/images/themes/theme10/bg.gif
p580
sg64
VKm2sweet
p581
sg66
I0
sg67
VKimberly Rogers
p582
sg69
V7AC3EE
p583
sg70
Nsg71
I25529287
sg72
V642D8B
p584
sbsg100
I0
sg101
V<a href="https://dev.twitter.com/docs/tfw" rel="nofollow">Twitter for Websites</a>
p585
sg103
(lp586
g3
(g105
g5
Ntp587
Rp588
(dp589
g109
Vhttp://t.co/0UYZhignS5
p590
sg111
Vhttp://bbrwn.co/BBHoliday
p591
sbasg71
I543180948829769728
sbag3
(g4
g5
Ntp592
Rp593
(dp594
g9
I0
sg10
Nsg11
Nsg12
(lp595
sg20
I00
sg21
Nsg22
Nsg23
(lp596
sg25
Nsg26
Nsg27
Nsg28
VThu Dec 11 17:33:45 +0000 2014
p597
sg30
Nsg31
I00
sg32
Nsg33
Nsg34
Nsg35
Nsg36
I00
sg37
Nsg38
(lp598
sg73
Nsg74
V543096312032280577
p599
sg76
Nsg77
Vhttps://t.co/hJIVYkGmvv
p600
sg79
I00
sg80
Vund
p601
sg82
g3
(g40
g5
Ntp602
Rp603
(dp604
g10
VSumter
p605
sg44
V3D1957
p606
sg45
Ven
p607
sg46
VEastern Time (US & Canada)
p608
sg47
I63
sg48
I3239
sg28
VFri Mar 20 16:26:22 +0000 2009
p609
sg49
I00
sg50
VHappily married stay at home mom with 4 beautiful children. Loving God and loving life!
p610
sg51
Vhttps://pbs.twimg.com/profile_images/524609962367275009/imMr8lde_normal.jpeg
p611
sg52
I303
sg53
I762
sg54
I-18000
sg55
Nsg56
I00
sg57
Vhttps://pbs.twimg.com/profile_banners/25529287/1412018541
p612
sg58
I00
sg59
I01
sg60
VFF0000
p613
sg61
I00
sg62
I00
sg63
Vhttp://abs.twimg.com/images/themes/theme10/bg.gif
p614
sg64
VKm2sweet
p615
sg66
I0
sg67
VKimberly Rogers
p616
sg69
V7AC3EE
p617
sg70
Nsg71
I25529287
sg72
V642D8B
p618
sbsg100
I0
sg101
V<a href="https://dev.twitter.com/docs/tfw" rel="nofollow">Twitter for Websites</a>
p619
sg103
(lp620
g3
(g105
g5
Ntp621
Rp622
(dp623
g109
Vhttps://t.co/hJIVYkGmvv
p624
sg111
Vhttps://zayconfoods.com/refer/zf416974
p625
sbasg71
I543096312032280577
sbag3
(g4
g5
Ntp626
Rp627
(dp628
g9
I0
sg10
Nsg11
Nsg12
(lp629
g3
(g14
g5
Ntp630
Rp631
(dp632
g18
VPopUpSantaSweepsEntry
p633
sbasg20
I00
sg21
Nsg22
Nsg23
(lp634
sg25
Nsg26
Nsg27
Nsg28
VThu Dec 11 05:19:09 +0000 2014
p635
sg30
Nsg31
I00
sg32
Nsg33
Nsg34
Nsg35
Nsg36
I00
sg37
Nsg38
(lp636
g3
(g40
g5
Ntp637
Rp638
(dp639
g10
Nsg44
Nsg45
Nsg46
Nsg47
Nsg48
Nsg28
Nsg49
Nsg50
Nsg51
Nsg52
Nsg53
Nsg54
Nsg55
Nsg56
Nsg57
Nsg58
Nsg59
Nsg60
Nsg61
Nsg62
Nsg63
Nsg64
VABCF25days
p640
sg66
Nsg67
V25 Days of Christmas
p641
sg69
Nsg70
Nsg71
I91432615
sg72
Nsbasg73
Nsg74
V542911444308590592
p642
sg76
Nsg77
VI just entered @ABCF25Days Pop Up Santa Sweepstakes! #PopUpSantaSweepsEntry http://t.co/daNmaiW6At
p643
sg79
I00
sg80
Ven
p644
sg82
g3
(g40
g5
Ntp645
Rp646
(dp647
g10
VSumter
p648
sg44
V3D1957
p649
sg45
Ven
p650
sg46
VEastern Time (US & Canada)
p651
sg47
I63
sg48
I3239
sg28
VFri Mar 20 16:26:22 +0000 2009
p652
sg49
I00
sg50
VHappily married stay at home mom with 4 beautiful children. Loving God and loving life!
p653
sg51
Vhttps://pbs.twimg.com/profile_images/524609962367275009/imMr8lde_normal.jpeg
p654
sg52
I303
sg53
I762
sg54
I-18000
sg55
Nsg56
I00
sg57
Vhttps://pbs.twimg.com/profile_banners/25529287/1412018541
p655
sg58
I00
sg59
I01
sg60
VFF0000
p656
sg61
I00
sg62
I00
sg63
Vhttp://abs.twimg.com/images/themes/theme10/bg.gif
p657
sg64
VKm2sweet
p658
sg66
I0
sg67
VKimberly Rogers
p659
sg69
V7AC3EE
p660
sg70
Nsg71
I25529287
sg72
V642D8B
p661
sbsg100
I0
sg101
V<a href="https://dev.twitter.com/docs/tfw" rel="nofollow">Twitter for Websites</a>
p662
sg103
(lp663
g3
(g105
g5
Ntp664
Rp665
(dp666
g109
Vhttp://t.co/daNmaiW6At
p667
sg111
Vhttp://www.popupsanta.tv/day/10/sweepstakes
p668
sbasg71
I542911444308590592
sbag3
(g4
g5
Ntp669
Rp670
(dp671
g9
I0
sg10
Nsg11
Nsg12
(lp672
g3
(g14
g5
Ntp673
Rp674
(dp675
g18
Vtimetobelieve
p676
sbag3
(g14
g5
Ntp677
Rp678
(dp679
g18
Vfreesamp
p680
sbasg20
I00
sg21
Nsg22
Nsg23
(lp681
sg25
Nsg26
Nsg27
Nsg28
VWed Dec 10 19:25:46 +0000 2014
p682
sg30
Nsg31
I00
sg32
Nsg33
Nsg34
Nsg35
Nsg36
I00
sg37
Nsg38
(lp683
sg73
Nsg74
V542762114549833728
p684
sg76
Nsg77
V100% taste. 0% artificial preservatives. Click here for a $0.55 off #timetobelieve #freesamp http://t.co/T4DGoyrBPr
p685
sg79
I00
sg80
Ven
p686
sg82
g3
(g40
g5
Ntp687
Rp688
(dp689
g10
VSumter
p690
sg44
V3D1957
p691
sg45
Ven
p692
sg46
VEastern Time (US & Canada)
p693
sg47
I63
sg48
I3239
sg28
VFri Mar 20 16:26:22 +0000 2009
p694
sg49
I00
sg50
VHappily married stay at home mom with 4 beautiful children. Loving God and loving life!
p695
sg51
Vhttps://pbs.twimg.com/profile_images/524609962367275009/imMr8lde_normal.jpeg
p696
sg52
I303
sg53
I762
sg54
I-18000
sg55
Nsg56
I00
sg57
Vhttps://pbs.twimg.com/profile_banners/25529287/1412018541
p697
sg58
I00
sg59
I01
sg60
VFF0000
p698
sg61
I00
sg62
I00
sg63
Vhttp://abs.twimg.com/images/themes/theme10/bg.gif
p699
sg64
VKm2sweet
p700
sg66
I0
sg67
VKimberly Rogers
p701
sg69
V7AC3EE
p702
sg70
Nsg71
I25529287
sg72
V642D8B
p703
sbsg100
I0
sg101
V<a href="http://www.sml360.com" rel="nofollow">SML Production</a>
p704
sg103
(lp705
g3
(g105
g5
Ntp706
Rp707
(dp708
g109
Vhttp://t.co/T4DGoyrBPr
p709
sg111
Vhttp://h5.sml360.com/-/m9w7
p710
sbasg71
I542762114549833728
sbag3
(g4
g5
Ntp711
Rp712
(dp713
g9
I0
sg10
Nsg11
Nsg12
(lp714
g3
(g14
g5
Ntp715
Rp716
(dp717
g18
VKayHolidayPromo
p718
sbasg20
I00
sg21
Nsg22
Nsg23
(lp719
sg25
Nsg26
Nsg27
Nsg28
VWed Dec 10 14:49:14 +0000 2014
p720
sg30
Nsg31
I00
sg32
Nsg33
Nsg34
Nsg35
Nsg36
I00
sg37
Nsg38
(lp721
g3
(g40
g5
Ntp722
Rp723
(dp724
g10
Nsg44
Nsg45
Nsg46
Nsg47
Nsg48
Nsg28
Nsg49
Nsg50
Nsg51
Nsg52
Nsg53
Nsg54
Nsg55
Nsg56
Nsg57
Nsg58
Nsg59
Nsg60
Nsg61
Nsg62
Nsg63
Nsg64
VKayJewelers
p725
sg66
Nsg67
VKay Jewelers
p726
sg69
Nsg70
Nsg71
I482425439
sg72
Nsbasg73
Nsg74
V542692520388341760
p727
sg76
Nsg77
VI just entered to win this from @KayJewelers! No pur nec. Ends 12/14. 18+. #KayHolidayPromo http://t.co/QpuKrW8jkI
p728
sg79
I00
sg80
Ven
p729
sg82
g3
(g40
g5
Ntp730
Rp731
(dp732
g10
VSumter
p733
sg44
V3D1957
p734
sg45
Ven
p735
sg46
VEastern Time (US & Canada)
p736
sg47
I63
sg48
I3239
sg28
VFri Mar 20 16:26:22 +0000 2009
p737
sg49
I00
sg50
VHappily married stay at home mom with 4 beautiful children. Loving God and loving life!
p738
sg51
Vhttps://pbs.twimg.com/profile_images/524609962367275009/imMr8lde_normal.jpeg
p739
sg52
I303
sg53
I762
sg54
I-18000
sg55
Nsg56
I00
sg57
Vhttps://pbs.twimg.com/profile_banners/25529287/1412018541
p740
sg58
I00
sg59
I01
sg60
VFF0000
p741
sg61
I00
sg62
I00
sg63
Vhttp://abs.twimg.com/images/themes/theme10/bg.gif
p742
sg64
VKm2sweet
p743
sg66
I0
sg67
VKimberly Rogers
p744
sg69
V7AC3EE
p745
sg70
Nsg71
I25529287
sg72
V642D8B
p746
sbsg100
I0
sg101
V<a href="https://dev.twitter.com/docs/tfw" rel="nofollow">Twitter for Websites</a>
p747
sg103
(lp748
g3
(g105
g5
Ntp749
Rp750
(dp751
g109
Vhttp://t.co/QpuKrW8jkI
p752
sg111
Vhttp://bit.ly/1Gelbkd
p753
sbasg71
I542692520388341760
sbag3
(g4
g5
Ntp754
Rp755
(dp756
g9
I0
sg10
Nsg11
Nsg12
(lp757
g3
(g14
g5
Ntp758
Rp759
(dp760
g18
Vgiveaway
p761
sbasg20
I00
sg21
Nsg22
Nsg23
(lp762
sg25
Nsg26
Nsg27
Nsg28
VWed Dec 10 14:14:09 +0000 2014
p763
sg30
Nsg31
I00
sg32
Nsg33
Nsg34
Nsg35
Nsg36
I00
sg37
Nsg38
(lp764
g3
(g40
g5
Ntp765
Rp766
(dp767
g10
Nsg44
Nsg45
Nsg46
Nsg47
Nsg48
Nsg28
Nsg49
Nsg50
Nsg51
Nsg52
Nsg53
Nsg54
Nsg55
Nsg56
Nsg57
Nsg58
Nsg59
Nsg60
Nsg61
Nsg62
Nsg63
Nsg64
VTHINaddictives
p768
sg66
Nsg67
VTHINaddictives
p769
sg69
Nsg70
Nsg71
I776363719
sg72
Nsbasg73
Nsg74
V542683693546893312
p770
sg76
Nsg77
VTry your luck in our instant win #giveaway. You could win a free box of @THINaddictives! http://t.co/aGfJi6x2JK
p771
sg79
I00
sg80
Ven
p772
sg82
g3
(g40
g5
Ntp773
Rp774
(dp775
g10
VSumter
p776
sg44
V3D1957
p777
sg45
Ven
p778
sg46
VEastern Time (US & Canada)
p779
sg47
I63
sg48
I3239
sg28
VFri Mar 20 16:26:22 +0000 2009
p780
sg49
I00
sg50
VHappily married stay at home mom with 4 beautiful children. Loving God and loving life!
p781
sg51
Vhttps://pbs.twimg.com/profile_images/524609962367275009/imMr8lde_normal.jpeg
p782
sg52
I303
sg53
I762
sg54
I-18000
sg55
Nsg56
I00
sg57
Vhttps://pbs.twimg.com/profile_banners/25529287/1412018541
p783
sg58
I00
sg59
I01
sg60
VFF0000
p784
sg61
I00
sg62
I00
sg63
Vhttp://abs.twimg.com/images/themes/theme10/bg.gif
p785
sg64
VKm2sweet
p786
sg66
I0
sg67
VKimberly Rogers
p787
sg69
V7AC3EE
p788
sg70
Nsg71
I25529287
sg72
V642D8B
p789
sbsg100
I0
sg101
V<a href="https://dev.twitter.com/docs/tfw" rel="nofollow">Twitter for Websites</a>
p790
sg103
(lp791
g3
(g105
g5
Ntp792
Rp793
(dp794
g109
Vhttp://t.co/aGfJi6x2JK
p795
sg111
Vhttp://woobox.com/2rpdtz
p796
sbasg71
I542683693546893312
sbag3
(g4
g5
Ntp797
Rp798
(dp799
g9
I0
sg10
Nsg11
Nsg12
(lp800
sg20
I00
sg21
Nsg22
Nsg23
(lp801
sg25
Nsg26
Nsg27
Nsg28
VWed Dec 10 06:09:19 +0000 2014
p802
sg30
Nsg31
I00
sg32
Nsg33
Nsg34
Nsg35
Nsg36
I00
sg37
Nsg38
(lp803
sg73
Nsg74
V542561678442119169
p804
sg76
Nsg77
V\U0001f34c\U0001f602 Butt! \U0001f602\U0001f34c follow for more Minions! https://t.co/Adn95b05Eh
p805
sg79
I00
sg80
Ven
p806
sg82
g3
(g40
g5
Ntp807
Rp808
(dp809
g10
VSumter
p810
sg44
V3D1957
p811
sg45
Ven
p812
sg46
VEastern Time (US & Canada)
p813
sg47
I63
sg48
I3239
sg28
VFri Mar 20 16:26:22 +0000 2009
p814
sg49
I00
sg50
VHappily married stay at home mom with 4 beautiful children. Loving God and loving life!
p815
sg51
Vhttps://pbs.twimg.com/profile_images/524609962367275009/imMr8lde_normal.jpeg
p816
sg52
I303
sg53
I762
sg54
I-18000
sg55
Nsg56
I00
sg57
Vhttps://pbs.twimg.com/profile_banners/25529287/1412018541
p817
sg58
I00
sg59
I01
sg60
VFF0000
p818
sg61
I00
sg62
I00
sg63
Vhttp://abs.twimg.com/images/themes/theme10/bg.gif
p819
sg64
VKm2sweet
p820
sg66
I0
sg67
VKimberly Rogers
p821
sg69
V7AC3EE
p822
sg70
Nsg71
I25529287
sg72
V642D8B
p823
sbsg100
I0
sg101
V<a href="http://vine.co" rel="nofollow">Vine - Make a Scene</a>
p824
sg103
(lp825
g3
(g105
g5
Ntp826
Rp827
(dp828
g109
Vhttps://t.co/Adn95b05Eh
p829
sg111
Vhttps://vine.co/v/Or0m2P0r32E
p830
sbasg71
I542561678442119169
sbag3
(g4
g5
Ntp831
Rp832
(dp833
g9
I0
sg10
Nsg11
Nsg12
(lp834
g3
(g14
g5
Ntp835
Rp836
(dp837
g18
VDominosQuikly
p838
sbasg20
I00
sg21
Nsg22
Nsg23
(lp839
sg25
Nsg26
Nsg27
Nsg28
VTue Dec 09 21:55:49 +0000 2014
p840
sg30
Nsg31
I00
sg32
Nsg33
Nsg34
Nsg35
Nsg36
I00
sg37
Nsg38
(lp841
g3
(g40
g5
Ntp842
Rp843
(dp844
g10
Nsg44
Nsg45
Nsg46
Nsg47
Nsg48
Nsg28
Nsg49
Nsg50
Nsg51
Nsg52
Nsg53
Nsg54
Nsg55
Nsg56
Nsg57
Nsg58
Nsg59
Nsg60
Nsg61
Nsg62
Nsg63
Nsg64
Vdominos
p845
sg66
Nsg67
VDomino's Pizza
p846
sg69
Nsg70
Nsg71
I31444922
sg72
Nsbasg73
Nsg74
V542437488023707649
p847
sg76
Nsg77
VIt's back! @Dominos is giving away 50,000 gift cards sometime soon! First come, first served. https://t.co/6tg81E7Wn5 #DominosQuikly
p848
sg79
I00
sg80
Ven
p849
sg82
g3
(g40
g5
Ntp850
Rp851
(dp852
g10
VSumter
p853
sg44
V3D1957
p854
sg45
Ven
p855
sg46
VEastern Time (US & Canada)
p856
sg47
I63
sg48
I3239
sg28
VFri Mar 20 16:26:22 +0000 2009
p857
sg49
I00
sg50
VHappily married stay at home mom with 4 beautiful children. Loving God and loving life!
p858
sg51
Vhttps://pbs.twimg.com/profile_images/524609962367275009/imMr8lde_normal.jpeg
p859
sg52
I303
sg53
I762
sg54
I-18000
sg55
Nsg56
I00
sg57
Vhttps://pbs.twimg.com/profile_banners/25529287/1412018541
p860
sg58
I00
sg59
I01
sg60
VFF0000
p861
sg61
I00
sg62
I00
sg63
Vhttp://abs.twimg.com/images/themes/theme10/bg.gif
p862
sg64
VKm2sweet
p863
sg66
I0
sg67
VKimberly Rogers
p864
sg69
V7AC3EE
p865
sg70
Nsg71
I25529287
sg72
V642D8B
p866
sbsg100
I0
sg101
V<a href="https://dev.twitter.com/docs/tfw" rel="nofollow">Twitter for Websites</a>
p867
sg103
(lp868
g3
(g105
g5
Ntp869
Rp870
(dp871
g109
Vhttps://t.co/6tg81E7Wn5
p872
sg111
Vhttps://m.quikly.com/726-dominos/t/D7LQ2nY-twt
p873
sbasg71
I542437488023707649
sbag3
(g4
g5
Ntp874
Rp875
(dp876
g9
I0
sg10
Nsg11
Nsg12
(lp877
g3
(g14
g5
Ntp878
Rp879
(dp880
g18
VFREE
p881
sbag3
(g14
g5
Ntp882
Rp883
(dp884
g18
Vshoneys12days
p885
sbasg20
I00
sg21
Nsg22
Nsg23
(lp886
sg25
Nsg26
Nsg27
Nsg28
VTue Dec 09 17:55:12 +0000 2014
p887
sg30
Nsg31
I00
sg32
Nsg33
Nsg34
Nsg35
Nsg36
I00
sg37
Nsg38
(lp888
sg73
Nsg74
V542376935234367489
p889
sg76
Nsg77
VJoin Shoney's E-Club for a #FREE dessert coupon and a chance to win a $1,500 shopping spree: http://t.co/TWnIxNHgSr #shoneys12days
p890
sg79
I00
sg80
Ven
p891
sg82
g3
(g40
g5
Ntp892
Rp893
(dp894
g10
VSumter
p895
sg44
V3D1957
p896
sg45
Ven
p897
sg46
VEastern Time (US & Canada)
p898
sg47
I63
sg48
I3239
sg28
VFri Mar 20 16:26:22 +0000 2009
p899
sg49
I00
sg50
VHappily married stay at home mom with 4 beautiful children. Loving God and loving life!
p900
sg51
Vhttps://pbs.twimg.com/profile_images/524609962367275009/imMr8lde_normal.jpeg
p901
sg52
I303
sg53
I762
sg54
I-18000
sg55
Nsg56
I00
sg57
Vhttps://pbs.twimg.com/profile_banners/25529287/1412018541
p902
sg58
I00
sg59
I01
sg60
VFF0000
p903
sg61
I00
sg62
I00
sg63
Vhttp://abs.twimg.com/images/themes/theme10/bg.gif
p904
sg64
VKm2sweet
p905
sg66
I0
sg67
VKimberly Rogers
p906
sg69
V7AC3EE
p907
sg70
Nsg71
I25529287
sg72
V642D8B
p908
sbsg100
I0
sg101
V<a href="https://dev.twitter.com/docs/tfw" rel="nofollow">Twitter for Websites</a>
p909
sg103
(lp910
g3
(g105
g5
Ntp911
Rp912
(dp913
g109
Vhttp://t.co/TWnIxNHgSr
p914
sg111
Vhttp://shoneys.com/12days
p915
sbasg71
I542376935234367489
sbag3
(g4
g5
Ntp916
Rp917
(dp918
g9
I0
sg10
Nsg11
Nsg12
(lp919
g3
(g14
g5
Ntp920
Rp921
(dp922
g18
VTheWalkingDead
p923
sbasg20
I00
sg21
g3
(g4
g5
Ntp924
Rp925
(dp926
g9
I2888
sg10
Nsg11
Nsg12
(lp927
g3
(g14
g5
Ntp928
Rp929
(dp930
g18
VTheWalkingDead
p931
sbasg20
I00
sg21
Nsg22
Nsg23
(lp932
(dp933
Vexpanded_url
p934
Vhttp://twitter.com/WalkingDead_AMC/status/542363548991893504/photo/1
p935
sVdisplay_url
p936
Vpic.twitter.com/ndIqOOlrQp
p937
sVurl
p938
Vhttp://t.co/ndIqOOlrQp
p939
sVmedia_url_https
p940
Vhttps://pbs.twimg.com/media/B4bcxg1IcAAgIYk.png
p941
sVid_str
p942
V542363548329209856
p943
sVsizes
p944
(dp945
Vsmall
p946
(dp947
Vh
p948
I170
sVresize
p949
Vfit
p950
sVw
p951
I340
ssVlarge
p952
(dp953
Vh
p954
I512
sVresize
p955
Vfit
p956
sVw
p957
I1024
ssVmedium
p958
(dp959
Vh
p960
I300
sVresize
p961
Vfit
p962
sVw
p963
I600
ssVthumb
p964
(dp965
Vh
p966
I150
sVresize
p967
Vcrop
p968
sVw
p969
I150
sssVindices
p970
(lp971
I90
aI112
asVtype
p972
Vphoto
p973
sVid
p974
I542363548329209856
sVmedia_url
p975
Vhttp://pbs.twimg.com/media/B4bcxg1IcAAgIYk.png
p976
sasg25
Nsg26
Nsg27
Nsg28
VTue Dec 09 17:02:01 +0000 2014
p977
sg30
Nsg31
I00
sg32
Nsg33
Nsg34
Nsg35
Nsg36
I00
sg37
Nsg38
(lp978
sg73
Nsg74
V542363548991893504
p979
sg76
Nsg77
VRETWEET if you\u2019d want Rick and Daryl in your group during the apocalypse. #TheWalkingDead http://t.co/ndIqOOlrQp
p980
sg79
I00
sg80
Ven
p981
sg82
g3
(g40
g5
Ntp982
Rp983
(dp984
g10
g225
sg44
V333333
p985
sg45
Ven
p986
sg46
VEastern Time (US & Canada)
p987
sg47
I3038718
sg48
I64912
sg28
VWed Aug 12 22:29:52 +0000 2009
p988
sg49
I01
sg50
VThe official account of #TheWalkingDead on @AMC_TV. For more info, go to http://t.co/fwGCD4gotX.\u000a\u000ahttp://t.co/qNtOUVYqUE
p989
sg51
Vhttps://pbs.twimg.com/profile_images/378800000851831398/8105b21908d7cd029d3150d196cfceeb_normal.png
p990
sg52
I602
sg53
I3801
sg54
I-18000
sg55
Nsg56
I00
sg57
Vhttps://pbs.twimg.com/profile_banners/65184105/1413214533
p991
sg58
I00
sg59
I00
sg60
VAD0C0C
p992
sg61
I01
sg62
I00
sg63
Vhttp://pbs.twimg.com/profile_background_images/450712363847544832/OCIOb6qG.png
p993
sg64
VWalkingDead_AMC
p994
sg66
I9897
sg67
VThe Walking Dead AMC
p995
sg69
VEFEFEF
p996
sg70
Vhttp://t.co/44Dby77eQS
p997
sg71
I65184105
sg72
V000000
p998
sbsg100
I4989
sg101
V<a href="http://www.hootsuite.com" rel="nofollow">Hootsuite</a>
p999
sg103
(lp1000
sg71
I542363548991893504
sbsg22
Nsg23
(lp1001
(dp1002
Vsource_user_id
p1003
I65184105
sVsource_status_id_str
p1004
V542363548991893504
p1005
sVexpanded_url
p1006
Vhttp://twitter.com/WalkingDead_AMC/status/542363548991893504/photo/1
p1007
sVdisplay_url
p1008
Vpic.twitter.com/ndIqOOlrQp
p1009
sVurl
p1010
Vhttp://t.co/ndIqOOlrQp
p1011
sVmedia_url_https
p1012
Vhttps://pbs.twimg.com/media/B4bcxg1IcAAgIYk.png
p1013
sVsource_user_id_str
p1014
V65184105
p1015
sVsource_status_id
p1016
I542363548991893504
sVid_str
p1017
V542363548329209856
p1018
sVsizes
p1019
(dp1020
Vsmall
p1021
(dp1022
Vh
p1023
I170
sVresize
p1024
Vfit
p1025
sVw
p1026
I340
ssVlarge
p1027
(dp1028
Vh
p1029
I512
sVresize
p1030
Vfit
p1031
sVw
p1032
I1024
ssVmedium
p1033
(dp1034
Vh
p1035
I300
sVresize
p1036
Vfit
p1037
sVw
p1038
I600
ssVthumb
p1039
(dp1040
Vh
p1041
I150
sVresize
p1042
Vcrop
p1043
sVw
p1044
I150
sssVindices
p1045
(lp1046
I111
aI133
asVtype
p1047
Vphoto
p1048
sVid
p1049
I542363548329209856
sVmedia_url
p1050
Vhttp://pbs.twimg.com/media/B4bcxg1IcAAgIYk.png
p1051
sasg25
Nsg26
Nsg27
Nsg28
VTue Dec 09 17:25:40 +0000 2014
p1052
sg30
Nsg31
I00
sg32
Nsg33
Nsg34
Nsg35
Nsg36
I00
sg37
Nsg38
(lp1053
g3
(g40
g5
Ntp1054
Rp1055
(dp1056
g10
Nsg44
Nsg45
Nsg46
Nsg47
Nsg48
Nsg28
Nsg49
Nsg50
Nsg51
Nsg52
Nsg53
Nsg54
Nsg55
Nsg56
Nsg57
Nsg58
Nsg59
Nsg60
Nsg61
Nsg62
Nsg63
Nsg64
VWalkingDead_AMC
p1057
sg66
Nsg67
VThe Walking Dead AMC
p1058
sg69
Nsg70
Nsg71
I65184105
sg72
Nsbasg73
Nsg74
V542369500935774208
p1059
sg76
Nsg77
VRT @WalkingDead_AMC: RETWEET if you\u2019d want Rick and Daryl in your group during the apocalypse. #TheWalkingDead http://t.co/ndIqOOlrQp
p1060
sg79
I00
sg80
Ven
p1061
sg82
g3
(g40
g5
Ntp1062
Rp1063
(dp1064
g10
VSumter
p1065
sg44
V3D1957
p1066
sg45
Ven
p1067
sg46
VEastern Time (US & Canada)
p1068
sg47
I63
sg48
I3239
sg28
VFri Mar 20 16:26:22 +0000 2009
p1069
sg49
I00
sg50
VHappily married stay at home mom with 4 beautiful children. Loving God and loving life!
p1070
sg51
Vhttps://pbs.twimg.com/profile_images/524609962367275009/imMr8lde_normal.jpeg
p1071
sg52
I303
sg53
I762
sg54
I-18000
sg55
Nsg56
I00
sg57
Vhttps://pbs.twimg.com/profile_banners/25529287/1412018541
p1072
sg58
I00
sg59
I01
sg60
VFF0000
p1073
sg61
I00
sg62
I00
sg63
Vhttp://abs.twimg.com/images/themes/theme10/bg.gif
p1074
sg64
VKm2sweet
p1075
sg66
I0
sg67
VKimberly Rogers
p1076
sg69
V7AC3EE
p1077
sg70
Nsg71
I25529287
sg72
V642D8B
p1078
sbsg100
I4989
sg101
V<a href="http://twitter.com/download/iphone" rel="nofollow">Twitter for iPhone</a>
p1079
sg103
(lp1080
sg71
I542369500935774208
sbag3
(g4
g5
Ntp1081
Rp1082
(dp1083
g9
I0
sg10
Nsg11
Nsg12
(lp1084
g3
(g14
g5
Ntp1085
Rp1086
(dp1087
g18
VWIN
p1088
sbasg20
I00
sg21
Nsg22
Nsg23
(lp1089
sg25
Nsg26
Nsg27
Nsg28
VTue Dec 09 13:59:54 +0000 2014
p1090
sg30
Nsg31
I00
sg32
Nsg33
Nsg34
Nsg35
Nsg36
I00
sg37
Nsg38
(lp1091
g3
(g40
g5
Ntp1092
Rp1093
(dp1094
g10
Nsg44
Nsg45
Nsg46
Nsg47
Nsg48
Nsg28
Nsg49
Nsg50
Nsg51
Nsg52
Nsg53
Nsg54
Nsg55
Nsg56
Nsg57
Nsg58
Nsg59
Nsg60
Nsg61
Nsg62
Nsg63
Nsg64
VPurex
p1095
sg66
Nsg67
VPurex
p1096
sg69
Nsg70
Nsg71
I17456140
sg72
Nsbag3
(g40
g5
Ntp1097
Rp1098
(dp1099
g10
Nsg44
Nsg45
Nsg46
Nsg47
Nsg48
Nsg28
Nsg49
Nsg50
Nsg51
Nsg52
Nsg53
Nsg54
Nsg55
Nsg56
Nsg57
Nsg58
Nsg59
Nsg60
Nsg61
Nsg62
Nsg63
Nsg64
Vsimonschuster
p1100
sg66
Nsg67
VSimon & Schuster
p1101
sg69
Nsg70
Nsg71
I24886025
sg72
Nsbasg73
Nsg74
V542317717135429632
p1102
sg76
Nsg77
VKeep spirits bright and #WIN with @Purex, @SimonSchuster, and My Studio Girl http://t.co/lzNEIKUypk http://t.co/jDMnTmeLbE
p1103
sg79
I00
sg80
Ven
p1104
sg82
g3
(g40
g5
Ntp1105
Rp1106
(dp1107
g10
VSumter
p1108
sg44
V3D1957
p1109
sg45
Ven
p1110
sg46
VEastern Time (US & Canada)
p1111
sg47
I63
sg48
I3239
sg28
VFri Mar 20 16:26:22 +0000 2009
p1112
sg49
I00
sg50
VHappily married stay at home mom with 4 beautiful children. Loving God and loving life!
p1113
sg51
Vhttps://pbs.twimg.com/profile_images/524609962367275009/imMr8lde_normal.jpeg
p1114
sg52
I303
sg53
I762
sg54
I-18000
sg55
Nsg56
I00
sg57
Vhttps://pbs.twimg.com/profile_banners/25529287/1412018541
p1115
sg58
I00
sg59
I01
sg60
VFF0000
p1116
sg61
I00
sg62
I00
sg63
Vhttp://abs.twimg.com/images/themes/theme10/bg.gif
p1117
sg64
VKm2sweet
p1118
sg66
I0
sg67
VKimberly Rogers
p1119
sg69
V7AC3EE
p1120
sg70
Nsg71
I25529287
sg72
V642D8B
p1121
sbsg100
I0
sg101
V<a href="https://dev.twitter.com/docs/tfw" rel="nofollow">Twitter for Websites</a>
p1122
sg103
(lp1123
g3
(g105
g5
Ntp1124
Rp1125
(dp1126
g109
Vhttp://t.co/lzNEIKUypk
p1127
sg111
Vhttp://go.purex.com/5DJF
p1128
sbag3
(g105
g5
Ntp1129
Rp1130
(dp1131
g109
Vhttp://t.co/jDMnTmeLbE
p1132
sg111
Vhttp://www.purex.com/promotions/win-with-purex-simon-schuster-my-studio-girl-december-2014/
p1133
sbasg71
I542317717135429632
sbaa.