(lp0
S'ShannonGolladay'
p1
a(lp2
ccopy_reg
_reconstructor
p3
(ctwitter.status
Status
p4
c__builtin__
object
p5
Ntp6
Rp7
(dp8
S'_favorite_count'
p9
I0
sS'_location'
p10
NsS'_withheld_scope'
p11
NsS'hashtags'
p12
(lp13
sS'_truncated'
p14
I00
sS'_retweeted_status'
p15
NsS'_withheld_copyright'
p16
NsS'media'
p17
(lp18
sS'_place'
p19
NsS'_contributors'
p20
NsS'_current_user_retweet'
p21
NsS'_created_at'
p22
VSun Dec 14 15:31:26 +0000 2014
p23
sS'_scopes'
p24
NsS'_possibly_sensitive'
p25
I00
sS'_in_reply_to_screen_name'
p26
NsS'_coordinates'
p27
NsS'_in_reply_to_user_id'
p28
NsS'_geo'
p29
NsS'_favorited'
p30
I00
sS'_withheld_in_countries'
p31
NsS'user_mentions'
p32
(lp33
sS'_now'
p34
NsS'_id_str'
p35
NsS'_in_reply_to_status_id'
p36
NsS'_text'
p37
VGood morning! I love this quote! :) @ click my bio link to add me on FB http://t.co/mS4voNHs4c
p38
sS'_retweeted'
p39
I00
sS'lang'
p40
Ven
p41
sS'_user'
p42
g3
(ctwitter.user
User
p43
g5
Ntp44
Rp45
(dp46
g10
VArizona
p47
sS'_profile_text_color'
p48
VB40B43
p49
sS'_lang'
p50
Ven
p51
sS'_time_zone'
p52
VArizona
p53
sS'_followers_count'
p54
I317
sS'_statuses_count'
p55
I4200
sg22
VSat Nov 17 04:06:44 +0000 2012
p56
sS'_verified'
p57
I00
sS'_description'
p58
VIt's more than just weight loss! It's about the lifestyle. I am a mom of two helping other moms living a more fulfilling life!
p59
sS'_profile_image_url'
p60
Vhttps://pbs.twimg.com/profile_images/518889520876380161/ll60hC0f_normal.jpeg
p61
sS'_friends_count'
p62
I693
sS'_favourites_count'
p63
I7
sS'_utc_offset'
p64
I-25200
sS'_status'
p65
NsS'_protected'
p66
I00
sS'_profile_banner_url'
p67
NsS'_notifications'
p68
I00
sS'_profile_background_tile'
p69
I01
sS'_profile_link_color'
p70
V362720
p71
sS'_geo_enabled'
p72
I00
sS'_contributors_enabled'
p73
I00
sS'_profile_background_image_url'
p74
Vhttp://pbs.twimg.com/profile_background_images/378800000114185710/59cc5066ab13b766da81c858f76cbc7c.gif
p75
sS'_screen_name'
p76
VShannonGolladay
p77
sS'_listed_count'
p78
I3
sS'_name'
p79
VShannon Golladay
p80
sS'_profile_sidebar_fill_color'
p81
VE5507E
p82
sS'_url'
p83
Vhttp://t.co/nAkLuKx2kZ
p84
sS'_id'
p85
I952891922
sS'_profile_background_color'
p86
VFF6699
p87
sbsS'_retweet_count'
p88
I0
sS'_source'
p89
V<a href="http://instagram.com" rel="nofollow">Instagram</a>
p90
sS'urls'
p91
(lp92
g3
(ctwitter.url
Url
p93
g5
Ntp94
Rp95
(dp96
S'url'
p97
Vhttp://t.co/mS4voNHs4c
p98
sS'expanded_url'
p99
Vhttp://instagram.com/p/wl53A7QY1A/
p100
sbasg85
I544152691577208832
sbag3
(g4
g5
Ntp101
Rp102
(dp103
g9
I0
sg10
Nsg11
Nsg12
(lp104
sg14
I00
sg15
Nsg16
Nsg17
(lp105
sg19
Nsg20
Nsg21
Nsg22
VSun Dec 14 04:01:57 +0000 2014
p106
sg24
Nsg25
I00
sg26
Nsg27
Nsg28
Nsg29
Nsg30
I00
sg31
Nsg32
(lp107
sg34
Nsg35
Nsg36
Nsg37
VI'm grateful for awesome friends! We had a fun night out! http://t.co/YFEbXLgwV2
p108
sg39
I00
sg40
Ven
p109
sg42
g3
(g43
g5
Ntp110
Rp111
(dp112
g10
VArizona
p113
sg48
VB40B43
p114
sg50
Ven
p115
sg52
VArizona
p116
sg54
I317
sg55
I4200
sg22
VSat Nov 17 04:06:44 +0000 2012
p117
sg57
I00
sg58
VIt's more than just weight loss! It's about the lifestyle. I am a mom of two helping other moms living a more fulfilling life!
p118
sg60
Vhttps://pbs.twimg.com/profile_images/518889520876380161/ll60hC0f_normal.jpeg
p119
sg62
I693
sg63
I7
sg64
I-25200
sg65
Nsg66
I00
sg67
Nsg68
I00
sg69
I01
sg70
V362720
p120
sg72
I00
sg73
I00
sg74
Vhttp://pbs.twimg.com/profile_background_images/378800000114185710/59cc5066ab13b766da81c858f76cbc7c.gif
p121
sg76
VShannonGolladay
p122
sg78
I3
sg79
VShannon Golladay
p123
sg81
VE5507E
p124
sg83
Vhttp://t.co/nAkLuKx2kZ
p125
sg85
I952891922
sg86
VFF6699
p126
sbsg88
I0
sg89
V<a href="http://www.facebook.com/twitter" rel="nofollow">Facebook</a>
p127
sg91
(lp128
g3
(g93
g5
Ntp129
Rp130
(dp131
g97
Vhttp://t.co/YFEbXLgwV2
p132
sg99
Vhttp://fb.me/2Ptw9bUTO
p133
sbasg85
I543979176953659392
sbag3
(g4
g5
Ntp134
Rp135
(dp136
g9
I0
sg10
Nsg11
Nsg12
(lp137
sg14
I00
sg15
Nsg16
Nsg17
(lp138
sg19
Nsg20
Nsg21
Nsg22
VSun Dec 14 01:30:01 +0000 2014
p139
sg24
Nsg25
I00
sg26
Nsg27
Nsg28
Nsg29
Nsg30
I00
sg31
Nsg32
(lp140
sg34
Nsg35
Nsg36
Nsg37
VI love this thought! SHARE it if you think it might help someone else today. :) http://t.co/cJDBesW6cF
p141
sg39
I00
sg40
Ven
p142
sg42
g3
(g43
g5
Ntp143
Rp144
(dp145
g10
VArizona
p146
sg48
VB40B43
p147
sg50
Ven
p148
sg52
VArizona
p149
sg54
I317
sg55
I4200
sg22
VSat Nov 17 04:06:44 +0000 2012
p150
sg57
I00
sg58
VIt's more than just weight loss! It's about the lifestyle. I am a mom of two helping other moms living a more fulfilling life!
p151
sg60
Vhttps://pbs.twimg.com/profile_images/518889520876380161/ll60hC0f_normal.jpeg
p152
sg62
I693
sg63
I7
sg64
I-25200
sg65
Nsg66
I00
sg67
Nsg68
I00
sg69
I01
sg70
V362720
p153
sg72
I00
sg73
I00
sg74
Vhttp://pbs.twimg.com/profile_background_images/378800000114185710/59cc5066ab13b766da81c858f76cbc7c.gif
p154
sg76
VShannonGolladay
p155
sg78
I3
sg79
VShannon Golladay
p156
sg81
VE5507E
p157
sg83
Vhttp://t.co/nAkLuKx2kZ
p158
sg85
I952891922
sg86
VFF6699
p159
sbsg88
I0
sg89
V<a href="http://www.facebook.com/twitter" rel="nofollow">Facebook</a>
p160
sg91
(lp161
g3
(g93
g5
Ntp162
Rp163
(dp164
g97
Vhttp://t.co/cJDBesW6cF
p165
sg99
Vhttp://fb.me/1H1U0azw8
p166
sbasg85
I543940944023007232
sbag3
(g4
g5
Ntp167
Rp168
(dp169
g9
I0
sg10
Nsg11
Nsg12
(lp170
sg14
I00
sg15
Nsg16
Nsg17
(lp171
sg19
Nsg20
Nsg21
Nsg22
VSat Dec 13 20:07:01 +0000 2014
p172
sg24
Nsg25
I00
sg26
Nsg27
Nsg28
Nsg29
Nsg30
I00
sg31
Nsg32
(lp173
sg34
Nsg35
Nsg36
Nsg37
VWe are opening up a Behind the Scenes of Coaching group that starts on Monday, Dec. 15 to answer questions about... http://t.co/mSMuYIY0SA
p174
sg39
I00
sg40
Ven
p175
sg42
g3
(g43
g5
Ntp176
Rp177
(dp178
g10
VArizona
p179
sg48
VB40B43
p180
sg50
Ven
p181
sg52
VArizona
p182
sg54
I317
sg55
I4200
sg22
VSat Nov 17 04:06:44 +0000 2012
p183
sg57
I00
sg58
VIt's more than just weight loss! It's about the lifestyle. I am a mom of two helping other moms living a more fulfilling life!
p184
sg60
Vhttps://pbs.twimg.com/profile_images/518889520876380161/ll60hC0f_normal.jpeg
p185
sg62
I693
sg63
I7
sg64
I-25200
sg65
Nsg66
I00
sg67
Nsg68
I00
sg69
I01
sg70
V362720
p186
sg72
I00
sg73
I00
sg74
Vhttp://pbs.twimg.com/profile_background_images/378800000114185710/59cc5066ab13b766da81c858f76cbc7c.gif
p187
sg76
VShannonGolladay
p188
sg78
I3
sg79
VShannon Golladay
p189
sg81
VE5507E
p190
sg83
Vhttp://t.co/nAkLuKx2kZ
p191
sg85
I952891922
sg86
VFF6699
p192
sbsg88
I0
sg89
V<a href="http://www.facebook.com/twitter" rel="nofollow">Facebook</a>
p193
sg91
(lp194
g3
(g93
g5
Ntp195
Rp196
(dp197
g97
Vhttp://t.co/mSMuYIY0SA
p198
sg99
Vhttp://fb.me/6WHPqhsW6
p199
sbasg85
I543859658650570754
sbag3
(g4
g5
Ntp200
Rp201
(dp202
g9
I0
sg10
Nsg11
Nsg12
(lp203
sg14
I00
sg15
Nsg16
Nsg17
(lp204
sg19
Nsg20
Nsg21
Nsg22
VSat Dec 13 19:52:42 +0000 2014
p205
sg24
Nsg25
I00
sg26
Nsg27
Nsg28
Nsg29
Nsg30
I00
sg31
Nsg32
(lp206
sg34
Nsg35
Nsg36
Nsg37
VWe are opening a Behind the Scenes of Beachbody Coaching group on Facebook this Monday, Dec. 15! Click\u2026 http://t.co/ndqv4hVDWJ
p207
sg39
I00
sg40
Ven
p208
sg42
g3
(g43
g5
Ntp209
Rp210
(dp211
g10
VArizona
p212
sg48
VB40B43
p213
sg50
Ven
p214
sg52
VArizona
p215
sg54
I317
sg55
I4200
sg22
VSat Nov 17 04:06:44 +0000 2012
p216
sg57
I00
sg58
VIt's more than just weight loss! It's about the lifestyle. I am a mom of two helping other moms living a more fulfilling life!
p217
sg60
Vhttps://pbs.twimg.com/profile_images/518889520876380161/ll60hC0f_normal.jpeg
p218
sg62
I693
sg63
I7
sg64
I-25200
sg65
Nsg66
I00
sg67
Nsg68
I00
sg69
I01
sg70
V362720
p219
sg72
I00
sg73
I00
sg74
Vhttp://pbs.twimg.com/profile_background_images/378800000114185710/59cc5066ab13b766da81c858f76cbc7c.gif
p220
sg76
VShannonGolladay
p221
sg78
I3
sg79
VShannon Golladay
p222
sg81
VE5507E
p223
sg83
Vhttp://t.co/nAkLuKx2kZ
p224
sg85
I952891922
sg86
VFF6699
p225
sbsg88
I0
sg89
V<a href="http://instagram.com" rel="nofollow">Instagram</a>
p226
sg91
(lp227
g3
(g93
g5
Ntp228
Rp229
(dp230
g97
Vhttp://t.co/ndqv4hVDWJ
p231
sg99
Vhttp://instagram.com/p/wjy9udwY52/
p232
sbasg85
I543856055118094337
sbag3
(g4
g5
Ntp233
Rp234
(dp235
g9
I0
sg10
Nsg11
Nsg12
(lp236
sg14
I00
sg15
Nsg16
Nsg17
(lp237
sg19
Nsg20
Nsg21
Nsg22
VSat Dec 13 19:47:12 +0000 2014
p238
sg24
Nsg25
I00
sg26
Nsg27
Nsg28
Nsg29
Nsg30
I00
sg31
Nsg32
(lp239
sg34
Nsg35
Nsg36
Nsg37
VWe are opening up a Behind the Scenes of Coaching group that starts on Monday, Dec. 15 to answer questions about... http://t.co/v9S3wfiAkh
p240
sg39
I00
sg40
Ven
p241
sg42
g3
(g43
g5
Ntp242
Rp243
(dp244
g10
VArizona
p245
sg48
VB40B43
p246
sg50
Ven
p247
sg52
VArizona
p248
sg54
I317
sg55
I4200
sg22
VSat Nov 17 04:06:44 +0000 2012
p249
sg57
I00
sg58
VIt's more than just weight loss! It's about the lifestyle. I am a mom of two helping other moms living a more fulfilling life!
p250
sg60
Vhttps://pbs.twimg.com/profile_images/518889520876380161/ll60hC0f_normal.jpeg
p251
sg62
I693
sg63
I7
sg64
I-25200
sg65
Nsg66
I00
sg67
Nsg68
I00
sg69
I01
sg70
V362720
p252
sg72
I00
sg73
I00
sg74
Vhttp://pbs.twimg.com/profile_background_images/378800000114185710/59cc5066ab13b766da81c858f76cbc7c.gif
p253
sg76
VShannonGolladay
p254
sg78
I3
sg79
VShannon Golladay
p255
sg81
VE5507E
p256
sg83
Vhttp://t.co/nAkLuKx2kZ
p257
sg85
I952891922
sg86
VFF6699
p258
sbsg88
I0
sg89
V<a href="http://www.facebook.com/twitter" rel="nofollow">Facebook</a>
p259
sg91
(lp260
g3
(g93
g5
Ntp261
Rp262
(dp263
g97
Vhttp://t.co/v9S3wfiAkh
p264
sg99
Vhttp://fb.me/49bHTFRqN
p265
sbasg85
I543854671568576512
sbag3
(g4
g5
Ntp266
Rp267
(dp268
g9
I0
sg10
Nsg11
Nsg12
(lp269
sg14
I00
sg15
Nsg16
Nsg17
(lp270
sg19
Nsg20
Nsg21
Nsg22
VSat Dec 13 18:06:56 +0000 2014
p271
sg24
Nsg25
I00
sg26
Nsg27
Nsg28
Nsg29
Nsg30
I00
sg31
Nsg32
(lp272
sg34
Nsg35
Nsg36
Nsg37
VIt's here!! Have you heard of the Insanity workouts before? They just released a 30 min. Insanity workout that is... http://t.co/vAphZ9MCDV
p273
sg39
I00
sg40
Ven
p274
sg42
g3
(g43
g5
Ntp275
Rp276
(dp277
g10
VArizona
p278
sg48
VB40B43
p279
sg50
Ven
p280
sg52
VArizona
p281
sg54
I317
sg55
I4200
sg22
VSat Nov 17 04:06:44 +0000 2012
p282
sg57
I00
sg58
VIt's more than just weight loss! It's about the lifestyle. I am a mom of two helping other moms living a more fulfilling life!
p283
sg60
Vhttps://pbs.twimg.com/profile_images/518889520876380161/ll60hC0f_normal.jpeg
p284
sg62
I693
sg63
I7
sg64
I-25200
sg65
Nsg66
I00
sg67
Nsg68
I00
sg69
I01
sg70
V362720
p285
sg72
I00
sg73
I00
sg74
Vhttp://pbs.twimg.com/profile_background_images/378800000114185710/59cc5066ab13b766da81c858f76cbc7c.gif
p286
sg76
VShannonGolladay
p287
sg78
I3
sg79
VShannon Golladay
p288
sg81
VE5507E
p289
sg83
Vhttp://t.co/nAkLuKx2kZ
p290
sg85
I952891922
sg86
VFF6699
p291
sbsg88
I0
sg89
V<a href="http://www.facebook.com/twitter" rel="nofollow">Facebook</a>
p292
sg91
(lp293
g3
(g93
g5
Ntp294
Rp295
(dp296
g97
Vhttp://t.co/vAphZ9MCDV
p297
sg99
Vhttp://fb.me/1FixyHjTq
p298
sbasg85
I543829438740586497
sbag3
(g4
g5
Ntp299
Rp300
(dp301
g9
I0
sg10
Nsg11
Nsg12
(lp302
sg14
I00
sg15
Nsg16
Nsg17
(lp303
sg19
Nsg20
Nsg21
Nsg22
VSat Dec 13 16:47:33 +0000 2014
p304
sg24
Nsg25
I00
sg26
Nsg27
Nsg28
Nsg29
Nsg30
I00
sg31
Nsg32
(lp305
sg34
Nsg35
Nsg36
Nsg37
VIt's here!!!! Have you heard of the Insanity workout before? They just released a 30 min Insanity\u2026 http://t.co/GtYwWDkEJ8
p306
sg39
I00
sg40
Ven
p307
sg42
g3
(g43
g5
Ntp308
Rp309
(dp310
g10
VArizona
p311
sg48
VB40B43
p312
sg50
Ven
p313
sg52
VArizona
p314
sg54
I317
sg55
I4200
sg22
VSat Nov 17 04:06:44 +0000 2012
p315
sg57
I00
sg58
VIt's more than just weight loss! It's about the lifestyle. I am a mom of two helping other moms living a more fulfilling life!
p316
sg60
Vhttps://pbs.twimg.com/profile_images/518889520876380161/ll60hC0f_normal.jpeg
p317
sg62
I693
sg63
I7
sg64
I-25200
sg65
Nsg66
I00
sg67
Nsg68
I00
sg69
I01
sg70
V362720
p318
sg72
I00
sg73
I00
sg74
Vhttp://pbs.twimg.com/profile_background_images/378800000114185710/59cc5066ab13b766da81c858f76cbc7c.gif
p319
sg76
VShannonGolladay
p320
sg78
I3
sg79
VShannon Golladay
p321
sg81
VE5507E
p322
sg83
Vhttp://t.co/nAkLuKx2kZ
p323
sg85
I952891922
sg86
VFF6699
p324
sbsg88
I0
sg89
V<a href="http://instagram.com" rel="nofollow">Instagram</a>
p325
sg91
(lp326
g3
(g93
g5
Ntp327
Rp328
(dp329
g97
Vhttp://t.co/GtYwWDkEJ8
p330
sg99
Vhttp://instagram.com/p/wjdxprwYw6/
p331
sbasg85
I543809459680985088
sbag3
(g4
g5
Ntp332
Rp333
(dp334
g9
I0
sg10
Nsg11
Nsg12
(lp335
sg14
I00
sg15
Nsg16
Nsg17
(lp336
sg19
Nsg20
Nsg21
Nsg22
VFri Dec 12 22:54:42 +0000 2014
p337
sg24
Nsg25
I00
sg26
Nsg27
Nsg28
Nsg29
Nsg30
I00
sg31
Nsg32
(lp338
sg34
Nsg35
Nsg36
Nsg37
VIt was so fun going to lunch with my friend, Brianne, today!! I'm grateful for amazing friends like\u2026 http://t.co/JUmpSdPdsa
p339
sg39
I00
sg40
Ven
p340
sg42
g3
(g43
g5
Ntp341
Rp342
(dp343
g10
VArizona
p344
sg48
VB40B43
p345
sg50
Ven
p346
sg52
VArizona
p347
sg54
I317
sg55
I4200
sg22
VSat Nov 17 04:06:44 +0000 2012
p348
sg57
I00
sg58
VIt's more than just weight loss! It's about the lifestyle. I am a mom of two helping other moms living a more fulfilling life!
p349
sg60
Vhttps://pbs.twimg.com/profile_images/518889520876380161/ll60hC0f_normal.jpeg
p350
sg62
I693
sg63
I7
sg64
I-25200
sg65
Nsg66
I00
sg67
Nsg68
I00
sg69
I01
sg70
V362720
p351
sg72
I00
sg73
I00
sg74
Vhttp://pbs.twimg.com/profile_background_images/378800000114185710/59cc5066ab13b766da81c858f76cbc7c.gif
p352
sg76
VShannonGolladay
p353
sg78
I3
sg79
VShannon Golladay
p354
sg81
VE5507E
p355
sg83
Vhttp://t.co/nAkLuKx2kZ
p356
sg85
I952891922
sg86
VFF6699
p357
sbsg88
I0
sg89
V<a href="http://instagram.com" rel="nofollow">Instagram</a>
p358
sg91
(lp359
g3
(g93
g5
Ntp360
Rp361
(dp362
g97
Vhttp://t.co/JUmpSdPdsa
p363
sg99
Vhttp://instagram.com/p/whi_8DwY4B/
p364
sbasg85
I543539470822572032
sbag3
(g4
g5
Ntp365
Rp366
(dp367
g9
I0
sg10
Nsg11
Nsg12
(lp368
sg14
I00
sg15
Nsg16
Nsg17
(lp369
sg19
Nsg20
Nsg21
Nsg22
VFri Dec 12 17:22:00 +0000 2014
p370
sg24
Nsg25
I00
sg26
Nsg27
Nsg28
Nsg29
Nsg30
I00
sg31
Nsg32
(lp371
sg34
Nsg35
Nsg36
Nsg37
V"If you working towards significant goals, you will face significant resistance. Big goals don't let you float.... http://t.co/OoWdvthHBi
p372
sg39
I00
sg40
Ven
p373
sg42
g3
(g43
g5
Ntp374
Rp375
(dp376
g10
VArizona
p377
sg48
VB40B43
p378
sg50
Ven
p379
sg52
VArizona
p380
sg54
I317
sg55
I4200
sg22
VSat Nov 17 04:06:44 +0000 2012
p381
sg57
I00
sg58
VIt's more than just weight loss! It's about the lifestyle. I am a mom of two helping other moms living a more fulfilling life!
p382
sg60
Vhttps://pbs.twimg.com/profile_images/518889520876380161/ll60hC0f_normal.jpeg
p383
sg62
I693
sg63
I7
sg64
I-25200
sg65
Nsg66
I00
sg67
Nsg68
I00
sg69
I01
sg70
V362720
p384
sg72
I00
sg73
I00
sg74
Vhttp://pbs.twimg.com/profile_background_images/378800000114185710/59cc5066ab13b766da81c858f76cbc7c.gif
p385
sg76
VShannonGolladay
p386
sg78
I3
sg79
VShannon Golladay
p387
sg81
VE5507E
p388
sg83
Vhttp://t.co/nAkLuKx2kZ
p389
sg85
I952891922
sg86
VFF6699
p390
sbsg88
I0
sg89
V<a href="http://www.facebook.com/twitter" rel="nofollow">Facebook</a>
p391
sg91
(lp392
g3
(g93
g5
Ntp393
Rp394
(dp395
g97
Vhttp://t.co/OoWdvthHBi
p396
sg99
Vhttp://fb.me/7uNkSfYBr
p397
sbasg85
I543455741487878146
sbag3
(g4
g5
Ntp398
Rp399
(dp400
g9
I0
sg10
Nsg11
Nsg12
(lp401
sg14
I00
sg15
Nsg16
Nsg17
(lp402
sg19
Nsg20
Nsg21
Nsg22
VFri Dec 12 17:10:18 +0000 2014
p403
sg24
Nsg25
Nsg26
Nsg27
Nsg28
Nsg29
Nsg30
I00
sg31
Nsg32
(lp404
sg34
Nsg35
Nsg36
Nsg37
V"Only about 3 percent of adults have written goals. And these are the most successful and highest-paid people in every field." ~ Brian Tracy
p405
sg39
I00
sg40
Ven
p406
sg42
g3
(g43
g5
Ntp407
Rp408
(dp409
g10
VArizona
p410
sg48
VB40B43
p411
sg50
Ven
p412
sg52
VArizona
p413
sg54
I317
sg55
I4200
sg22
VSat Nov 17 04:06:44 +0000 2012
p414
sg57
I00
sg58
VIt's more than just weight loss! It's about the lifestyle. I am a mom of two helping other moms living a more fulfilling life!
p415
sg60
Vhttps://pbs.twimg.com/profile_images/518889520876380161/ll60hC0f_normal.jpeg
p416
sg62
I693
sg63
I7
sg64
I-25200
sg65
Nsg66
I00
sg67
Nsg68
I00
sg69
I01
sg70
V362720
p417
sg72
I00
sg73
I00
sg74
Vhttp://pbs.twimg.com/profile_background_images/378800000114185710/59cc5066ab13b766da81c858f76cbc7c.gif
p418
sg76
VShannonGolladay
p419
sg78
I3
sg79
VShannon Golladay
p420
sg81
VE5507E
p421
sg83
Vhttp://t.co/nAkLuKx2kZ
p422
sg85
I952891922
sg86
VFF6699
p423
sbsg88
I0
sg89
V<a href="http://www.facebook.com/twitter" rel="nofollow">Facebook</a>
p424
sg91
(lp425
sg85
I543452798994907136
sbag3
(g4
g5
Ntp426
Rp427
(dp428
g9
I0
sg10
Nsg11
Nsg12
(lp429
sg14
I00
sg15
Nsg16
Nsg17
(lp430
sg19
Nsg20
Nsg21
Nsg22
VFri Dec 12 16:10:47 +0000 2014
p431
sg24
Nsg25
I00
sg26
Nsg27
Nsg28
Nsg29
Nsg30
I00
sg31
Nsg32
(lp432
sg34
Nsg35
Nsg36
Nsg37
VHappy Friday! My results are in from the 3 Day Refresh! I lost 1.5 lbs. I usually lose 3-4 lbs., but I had less... http://t.co/B0kz14KxQQ
p433
sg39
I00
sg40
Ven
p434
sg42
g3
(g43
g5
Ntp435
Rp436
(dp437
g10
VArizona
p438
sg48
VB40B43
p439
sg50
Ven
p440
sg52
VArizona
p441
sg54
I317
sg55
I4200
sg22
VSat Nov 17 04:06:44 +0000 2012
p442
sg57
I00
sg58
VIt's more than just weight loss! It's about the lifestyle. I am a mom of two helping other moms living a more fulfilling life!
p443
sg60
Vhttps://pbs.twimg.com/profile_images/518889520876380161/ll60hC0f_normal.jpeg
p444
sg62
I693
sg63
I7
sg64
I-25200
sg65
Nsg66
I00
sg67
Nsg68
I00
sg69
I01
sg70
V362720
p445
sg72
I00
sg73
I00
sg74
Vhttp://pbs.twimg.com/profile_background_images/378800000114185710/59cc5066ab13b766da81c858f76cbc7c.gif
p446
sg76
VShannonGolladay
p447
sg78
I3
sg79
VShannon Golladay
p448
sg81
VE5507E
p449
sg83
Vhttp://t.co/nAkLuKx2kZ
p450
sg85
I952891922
sg86
VFF6699
p451
sbsg88
I0
sg89
V<a href="http://www.facebook.com/twitter" rel="nofollow">Facebook</a>
p452
sg91
(lp453
g3
(g93
g5
Ntp454
Rp455
(dp456
g97
Vhttp://t.co/B0kz14KxQQ
p457
sg99
Vhttp://fb.me/47ujsy85N
p458
sbasg85
I543437820984303616
sbag3
(g4
g5
Ntp459
Rp460
(dp461
g9
I0
sg10
Nsg11
Nsg12
(lp462
sg14
I00
sg15
Nsg16
Nsg17
(lp463
sg19
Nsg20
Nsg21
Nsg22
VFri Dec 12 15:35:31 +0000 2014
p464
sg24
Nsg25
I00
sg26
Nsg27
Nsg28
Nsg29
Nsg30
I00
sg31
Nsg32
(lp465
sg34
Nsg35
Nsg36
Nsg37
VI posted a new photo to Facebook http://t.co/RTQYcK4pi2
p466
sg39
I00
sg40
Ven
p467
sg42
g3
(g43
g5
Ntp468
Rp469
(dp470
g10
VArizona
p471
sg48
VB40B43
p472
sg50
Ven
p473
sg52
VArizona
p474
sg54
I317
sg55
I4200
sg22
VSat Nov 17 04:06:44 +0000 2012
p475
sg57
I00
sg58
VIt's more than just weight loss! It's about the lifestyle. I am a mom of two helping other moms living a more fulfilling life!
p476
sg60
Vhttps://pbs.twimg.com/profile_images/518889520876380161/ll60hC0f_normal.jpeg
p477
sg62
I693
sg63
I7
sg64
I-25200
sg65
Nsg66
I00
sg67
Nsg68
I00
sg69
I01
sg70
V362720
p478
sg72
I00
sg73
I00
sg74
Vhttp://pbs.twimg.com/profile_background_images/378800000114185710/59cc5066ab13b766da81c858f76cbc7c.gif
p479
sg76
VShannonGolladay
p480
sg78
I3
sg79
VShannon Golladay
p481
sg81
VE5507E
p482
sg83
Vhttp://t.co/nAkLuKx2kZ
p483
sg85
I952891922
sg86
VFF6699
p484
sbsg88
I0
sg89
V<a href="http://www.facebook.com/twitter" rel="nofollow">Facebook</a>
p485
sg91
(lp486
g3
(g93
g5
Ntp487
Rp488
(dp489
g97
Vhttp://t.co/RTQYcK4pi2
p490
sg99
Vhttp://fb.me/3LlrGeBpL
p491
sbasg85
I543428944205066241
sbag3
(g4
g5
Ntp492
Rp493
(dp494
g9
I0
sg10
Nsg11
Nsg12
(lp495
sg14
I00
sg15
Nsg16
Nsg17
(lp496
sg19
Nsg20
Nsg21
Nsg22
VFri Dec 12 15:35:31 +0000 2014
p497
sg24
Nsg25
I00
sg26
Nsg27
Nsg28
Nsg29
Nsg30
I00
sg31
Nsg32
(lp498
sg34
Nsg35
Nsg36
Nsg37
VI posted a new photo to Facebook http://t.co/lJrCSH7MK2
p499
sg39
I00
sg40
Ven
p500
sg42
g3
(g43
g5
Ntp501
Rp502
(dp503
g10
VArizona
p504
sg48
VB40B43
p505
sg50
Ven
p506
sg52
VArizona
p507
sg54
I317
sg55
I4200
sg22
VSat Nov 17 04:06:44 +0000 2012
p508
sg57
I00
sg58
VIt's more than just weight loss! It's about the lifestyle. I am a mom of two helping other moms living a more fulfilling life!
p509
sg60
Vhttps://pbs.twimg.com/profile_images/518889520876380161/ll60hC0f_normal.jpeg
p510
sg62
I693
sg63
I7
sg64
I-25200
sg65
Nsg66
I00
sg67
Nsg68
I00
sg69
I01
sg70
V362720
p511
sg72
I00
sg73
I00
sg74
Vhttp://pbs.twimg.com/profile_background_images/378800000114185710/59cc5066ab13b766da81c858f76cbc7c.gif
p512
sg76
VShannonGolladay
p513
sg78
I3
sg79
VShannon Golladay
p514
sg81
VE5507E
p515
sg83
Vhttp://t.co/nAkLuKx2kZ
p516
sg85
I952891922
sg86
VFF6699
p517
sbsg88
I0
sg89
V<a href="http://www.facebook.com/twitter" rel="nofollow">Facebook</a>
p518
sg91
(lp519
g3
(g93
g5
Ntp520
Rp521
(dp522
g97
Vhttp://t.co/lJrCSH7MK2
p523
sg99
Vhttp://fb.me/2BOS9Bwrt
p524
sbasg85
I543428944016318465
sbag3
(g4
g5
Ntp525
Rp526
(dp527
g9
I0
sg10
Nsg11
Nsg12
(lp528
sg14
I00
sg15
Nsg16
Nsg17
(lp529
sg19
Nsg20
Nsg21
Nsg22
VFri Dec 12 15:35:31 +0000 2014
p530
sg24
Nsg25
I00
sg26
Nsg27
Nsg28
Nsg29
Nsg30
I00
sg31
Nsg32
(lp531
sg34
Nsg35
Nsg36
Nsg37
VI posted a new photo to Facebook http://t.co/rEC2mk6GT2
p532
sg39
I00
sg40
Ven
p533
sg42
g3
(g43
g5
Ntp534
Rp535
(dp536
g10
VArizona
p537
sg48
VB40B43
p538
sg50
Ven
p539
sg52
VArizona
p540
sg54
I317
sg55
I4200
sg22
VSat Nov 17 04:06:44 +0000 2012
p541
sg57
I00
sg58
VIt's more than just weight loss! It's about the lifestyle. I am a mom of two helping other moms living a more fulfilling life!
p542
sg60
Vhttps://pbs.twimg.com/profile_images/518889520876380161/ll60hC0f_normal.jpeg
p543
sg62
I693
sg63
I7
sg64
I-25200
sg65
Nsg66
I00
sg67
Nsg68
I00
sg69
I01
sg70
V362720
p544
sg72
I00
sg73
I00
sg74
Vhttp://pbs.twimg.com/profile_background_images/378800000114185710/59cc5066ab13b766da81c858f76cbc7c.gif
p545
sg76
VShannonGolladay
p546
sg78
I3
sg79
VShannon Golladay
p547
sg81
VE5507E
p548
sg83
Vhttp://t.co/nAkLuKx2kZ
p549
sg85
I952891922
sg86
VFF6699
p550
sbsg88
I0
sg89
V<a href="http://www.facebook.com/twitter" rel="nofollow">Facebook</a>
p551
sg91
(lp552
g3
(g93
g5
Ntp553
Rp554
(dp555
g97
Vhttp://t.co/rEC2mk6GT2
p556
sg99
Vhttp://fb.me/4cWAO2rd5
p557
sbasg85
I543428943945027585
sbag3
(g4
g5
Ntp558
Rp559
(dp560
g9
I0
sg10
Nsg11
Nsg12
(lp561
sg14
I00
sg15
Nsg16
Nsg17
(lp562
sg19
Nsg20
Nsg21
Nsg22
VFri Dec 12 15:35:31 +0000 2014
p563
sg24
Nsg25
I00
sg26
Nsg27
Nsg28
Nsg29
Nsg30
I00
sg31
Nsg32
(lp564
sg34
Nsg35
Nsg36
Nsg37
VI posted a new photo to Facebook http://t.co/8v8xNPOyLB
p565
sg39
I00
sg40
Ven
p566
sg42
g3
(g43
g5
Ntp567
Rp568
(dp569
g10
VArizona
p570
sg48
VB40B43
p571
sg50
Ven
p572
sg52
VArizona
p573
sg54
I317
sg55
I4200
sg22
VSat Nov 17 04:06:44 +0000 2012
p574
sg57
I00
sg58
VIt's more than just weight loss! It's about the lifestyle. I am a mom of two helping other moms living a more fulfilling life!
p575
sg60
Vhttps://pbs.twimg.com/profile_images/518889520876380161/ll60hC0f_normal.jpeg
p576
sg62
I693
sg63
I7
sg64
I-25200
sg65
Nsg66
I00
sg67
Nsg68
I00
sg69
I01
sg70
V362720
p577
sg72
I00
sg73
I00
sg74
Vhttp://pbs.twimg.com/profile_background_images/378800000114185710/59cc5066ab13b766da81c858f76cbc7c.gif
p578
sg76
VShannonGolladay
p579
sg78
I3
sg79
VShannon Golladay
p580
sg81
VE5507E
p581
sg83
Vhttp://t.co/nAkLuKx2kZ
p582
sg85
I952891922
sg86
VFF6699
p583
sbsg88
I0
sg89
V<a href="http://www.facebook.com/twitter" rel="nofollow">Facebook</a>
p584
sg91
(lp585
g3
(g93
g5
Ntp586
Rp587
(dp588
g97
Vhttp://t.co/8v8xNPOyLB
p589
sg99
Vhttp://fb.me/2PVVQuS5B
p590
sbasg85
I543428943282319360
sbag3
(g4
g5
Ntp591
Rp592
(dp593
g9
I0
sg10
Nsg11
Nsg12
(lp594
sg14
I00
sg15
Nsg16
Nsg17
(lp595
sg19
Nsg20
Nsg21
Nsg22
VFri Dec 12 15:35:31 +0000 2014
p596
sg24
Nsg25
I00
sg26
Nsg27
Nsg28
Nsg29
Nsg30
I00
sg31
Nsg32
(lp597
sg34
Nsg35
Nsg36
Nsg37
VI posted a new photo to Facebook http://t.co/WIxe8Nt9JO
p598
sg39
I00
sg40
Ven
p599
sg42
g3
(g43
g5
Ntp600
Rp601
(dp602
g10
VArizona
p603
sg48
VB40B43
p604
sg50
Ven
p605
sg52
VArizona
p606
sg54
I317
sg55
I4200
sg22
VSat Nov 17 04:06:44 +0000 2012
p607
sg57
I00
sg58
VIt's more than just weight loss! It's about the lifestyle. I am a mom of two helping other moms living a more fulfilling life!
p608
sg60
Vhttps://pbs.twimg.com/profile_images/518889520876380161/ll60hC0f_normal.jpeg
p609
sg62
I693
sg63
I7
sg64
I-25200
sg65
Nsg66
I00
sg67
Nsg68
I00
sg69
I01
sg70
V362720
p610
sg72
I00
sg73
I00
sg74
Vhttp://pbs.twimg.com/profile_background_images/378800000114185710/59cc5066ab13b766da81c858f76cbc7c.gif
p611
sg76
VShannonGolladay
p612
sg78
I3
sg79
VShannon Golladay
p613
sg81
VE5507E
p614
sg83
Vhttp://t.co/nAkLuKx2kZ
p615
sg85
I952891922
sg86
VFF6699
p616
sbsg88
I0
sg89
V<a href="http://www.facebook.com/twitter" rel="nofollow">Facebook</a>
p617
sg91
(lp618
g3
(g93
g5
Ntp619
Rp620
(dp621
g97
Vhttp://t.co/WIxe8Nt9JO
p622
sg99
Vhttp://fb.me/4c2SN7E5r
p623
sbasg85
I543428943169486848
sbag3
(g4
g5
Ntp624
Rp625
(dp626
g9
I0
sg10
Nsg11
Nsg12
(lp627
sg14
I00
sg15
Nsg16
Nsg17
(lp628
sg19
Nsg20
Nsg21
Nsg22
VFri Dec 12 15:35:31 +0000 2014
p629
sg24
Nsg25
I00
sg26
Nsg27
Nsg28
Nsg29
Nsg30
I00
sg31
Nsg32
(lp630
sg34
Nsg35
Nsg36
Nsg37
VI posted a new photo to Facebook http://t.co/ngNS8siA8j
p631
sg39
I00
sg40
Ven
p632
sg42
g3
(g43
g5
Ntp633
Rp634
(dp635
g10
VArizona
p636
sg48
VB40B43
p637
sg50
Ven
p638
sg52
VArizona
p639
sg54
I317
sg55
I4200
sg22
VSat Nov 17 04:06:44 +0000 2012
p640
sg57
I00
sg58
VIt's more than just weight loss! It's about the lifestyle. I am a mom of two helping other moms living a more fulfilling life!
p641
sg60
Vhttps://pbs.twimg.com/profile_images/518889520876380161/ll60hC0f_normal.jpeg
p642
sg62
I693
sg63
I7
sg64
I-25200
sg65
Nsg66
I00
sg67
Nsg68
I00
sg69
I01
sg70
V362720
p643
sg72
I00
sg73
I00
sg74
Vhttp://pbs.twimg.com/profile_background_images/378800000114185710/59cc5066ab13b766da81c858f76cbc7c.gif
p644
sg76
VShannonGolladay
p645
sg78
I3
sg79
VShannon Golladay
p646
sg81
VE5507E
p647
sg83
Vhttp://t.co/nAkLuKx2kZ
p648
sg85
I952891922
sg86
VFF6699
p649
sbsg88
I0
sg89
V<a href="http://www.facebook.com/twitter" rel="nofollow">Facebook</a>
p650
sg91
(lp651
g3
(g93
g5
Ntp652
Rp653
(dp654
g97
Vhttp://t.co/ngNS8siA8j
p655
sg99
Vhttp://fb.me/1th3wHiFa
p656
sbasg85
I543428943169085440
sbag3
(g4
g5
Ntp657
Rp658
(dp659
g9
I0
sg10
Nsg11
Nsg12
(lp660
sg14
I00
sg15
Nsg16
Nsg17
(lp661
sg19
Nsg20
Nsg21
Nsg22
VFri Dec 12 15:35:31 +0000 2014
p662
sg24
Nsg25
I00
sg26
Nsg27
Nsg28
Nsg29
Nsg30
I00
sg31
Nsg32
(lp663
sg34
Nsg35
Nsg36
Nsg37
VI posted a new photo to Facebook http://t.co/bqO7VUuthh
p664
sg39
I00
sg40
Ven
p665
sg42
g3
(g43
g5
Ntp666
Rp667
(dp668
g10
VArizona
p669
sg48
VB40B43
p670
sg50
Ven
p671
sg52
VArizona
p672
sg54
I317
sg55
I4200
sg22
VSat Nov 17 04:06:44 +0000 2012
p673
sg57
I00
sg58
VIt's more than just weight loss! It's about the lifestyle. I am a mom of two helping other moms living a more fulfilling life!
p674
sg60
Vhttps://pbs.twimg.com/profile_images/518889520876380161/ll60hC0f_normal.jpeg
p675
sg62
I693
sg63
I7
sg64
I-25200
sg65
Nsg66
I00
sg67
Nsg68
I00
sg69
I01
sg70
V362720
p676
sg72
I00
sg73
I00
sg74
Vhttp://pbs.twimg.com/profile_background_images/378800000114185710/59cc5066ab13b766da81c858f76cbc7c.gif
p677
sg76
VShannonGolladay
p678
sg78
I3
sg79
VShannon Golladay
p679
sg81
VE5507E
p680
sg83
Vhttp://t.co/nAkLuKx2kZ
p681
sg85
I952891922
sg86
VFF6699
p682
sbsg88
I0
sg89
V<a href="http://www.facebook.com/twitter" rel="nofollow">Facebook</a>
p683
sg91
(lp684
g3
(g93
g5
Ntp685
Rp686
(dp687
g97
Vhttp://t.co/bqO7VUuthh
p688
sg99
Vhttp://fb.me/1qV8yOjlF
p689
sbasg85
I543428942863269889
sbag3
(g4
g5
Ntp690
Rp691
(dp692
g9
I0
sg10
Nsg11
Nsg12
(lp693
sg14
I00
sg15
Nsg16
Nsg17
(lp694
sg19
Nsg20
Nsg21
Nsg22
VFri Dec 12 15:35:31 +0000 2014
p695
sg24
Nsg25
I00
sg26
Nsg27
Nsg28
Nsg29
Nsg30
I00
sg31
Nsg32
(lp696
sg34
Nsg35
Nsg36
Nsg37
VI posted a new photo to Facebook http://t.co/6Xg9T4CarT
p697
sg39
I00
sg40
Ven
p698
sg42
g3
(g43
g5
Ntp699
Rp700
(dp701
g10
VArizona
p702
sg48
VB40B43
p703
sg50
Ven
p704
sg52
VArizona
p705
sg54
I317
sg55
I4200
sg22
VSat Nov 17 04:06:44 +0000 2012
p706
sg57
I00
sg58
VIt's more than just weight loss! It's about the lifestyle. I am a mom of two helping other moms living a more fulfilling life!
p707
sg60
Vhttps://pbs.twimg.com/profile_images/518889520876380161/ll60hC0f_normal.jpeg
p708
sg62
I693
sg63
I7
sg64
I-25200
sg65
Nsg66
I00
sg67
Nsg68
I00
sg69
I01
sg70
V362720
p709
sg72
I00
sg73
I00
sg74
Vhttp://pbs.twimg.com/profile_background_images/378800000114185710/59cc5066ab13b766da81c858f76cbc7c.gif
p710
sg76
VShannonGolladay
p711
sg78
I3
sg79
VShannon Golladay
p712
sg81
VE5507E
p713
sg83
Vhttp://t.co/nAkLuKx2kZ
p714
sg85
I952891922
sg86
VFF6699
p715
sbsg88
I0
sg89
V<a href="http://www.facebook.com/twitter" rel="nofollow">Facebook</a>
p716
sg91
(lp717
g3
(g93
g5
Ntp718
Rp719
(dp720
g97
Vhttp://t.co/6Xg9T4CarT
p721
sg99
Vhttp://fb.me/84EawgiiQ
p722
sbasg85
I543428942859091969
sbaa.