(lp0
S'Rajendra9Prasad'
p1
a(lp2
ccopy_reg
_reconstructor
p3
(ctwitter.status
Status
p4
c__builtin__
object
p5
Ntp6
Rp7
(dp8
S'_favorite_count'
p9
I0
sS'_location'
p10
NsS'_withheld_scope'
p11
NsS'hashtags'
p12
(lp13
g3
(ctwitter.hashtag
Hashtag
p14
g5
Ntp15
Rp16
(dp17
S'text'
p18
VKFHunt
p19
sbasS'_truncated'
p20
I00
sS'_retweeted_status'
p21
NsS'_withheld_copyright'
p22
NsS'media'
p23
(lp24
(dp25
Vsource_user_id
p26
I436652553
sVsource_status_id_str
p27
V544188076310806528
p28
sVexpanded_url
p29
Vhttp://twitter.com/Rajendra9Prasad/status/544188076310806528/photo/1
p30
sVdisplay_url
p31
Vpic.twitter.com/jchUj2qIfL
p32
sVurl
p33
Vhttp://t.co/jchUj2qIfL
p34
sVmedia_url_https
p35
Vhttps://pbs.twimg.com/media/B41YK7VCQAA6t2g.png
p36
sVsource_user_id_str
p37
V436652553
p38
sVsource_status_id
p39
I544188076310806528
sVid_str
p40
V544188074729553920
p41
sVsizes
p42
(dp43
Vsmall
p44
(dp45
Vh
p46
I482
sVresize
p47
Vfit
p48
sVw
p49
I340
ssVlarge
p50
(dp51
Vh
p52
I599
sVresize
p53
Vfit
p54
sVw
p55
I422
ssVmedium
p56
(dp57
Vh
p58
I599
sVresize
p59
Vfit
p60
sVw
p61
I422
ssVthumb
p62
(dp63
Vh
p64
I150
sVresize
p65
Vcrop
p66
sVw
p67
I150
sssVindices
p68
(lp69
I111
aI133
asVtype
p70
Vphoto
p71
sVid
p72
I544188074729553920
sVmedia_url
p73
Vhttp://pbs.twimg.com/media/B41YK7VCQAA6t2g.png
p74
sasS'_place'
p75
NsS'_contributors'
p76
NsS'_current_user_retweet'
p77
NsS'_created_at'
p78
VSun Dec 14 17:55:56 +0000 2014
p79
sS'_scopes'
p80
NsS'_possibly_sensitive'
p81
I00
sS'_in_reply_to_screen_name'
p82
Vndtvgoodtimes
p83
sS'_coordinates'
p84
NsS'_in_reply_to_user_id'
p85
I38412590
sS'_geo'
p86
NsS'_favorited'
p87
I00
sS'_withheld_in_countries'
p88
NsS'user_mentions'
p89
(lp90
g3
(ctwitter.user
User
p91
g5
Ntp92
Rp93
(dp94
g10
NsS'_profile_text_color'
p95
NsS'_lang'
p96
NsS'_time_zone'
p97
NsS'_followers_count'
p98
NsS'_statuses_count'
p99
Nsg78
NsS'_verified'
p100
NsS'_description'
p101
NsS'_profile_image_url'
p102
NsS'_friends_count'
p103
NsS'_favourites_count'
p104
NsS'_utc_offset'
p105
NsS'_status'
p106
NsS'_protected'
p107
NsS'_profile_banner_url'
p108
NsS'_notifications'
p109
NsS'_profile_background_tile'
p110
NsS'_profile_link_color'
p111
NsS'_geo_enabled'
p112
NsS'_contributors_enabled'
p113
NsS'_profile_background_image_url'
p114
NsS'_screen_name'
p115
Vndtvgoodtimes
p116
sS'_listed_count'
p117
NsS'_name'
p118
VNDTV Good Times
p119
sS'_profile_sidebar_fill_color'
p120
NsS'_url'
p121
NsS'_id'
p122
I38412590
sS'_profile_background_color'
p123
Nsbag3
(g91
g5
Ntp124
Rp125
(dp126
g10
Nsg95
Nsg96
Nsg97
Nsg98
Nsg99
Nsg78
Nsg100
Nsg101
Nsg102
Nsg103
Nsg104
Nsg105
Nsg106
Nsg107
Nsg108
Nsg109
Nsg110
Nsg111
Nsg112
Nsg113
Nsg114
Nsg115
Vlovecolorbar
p127
sg117
Nsg118
VColorBar Cosmetics
p128
sg120
Nsg121
Nsg122
I135629397
sg123
Nsbag3
(g91
g5
Ntp129
Rp130
(dp131
g10
Nsg95
Nsg96
Nsg97
Nsg98
Nsg99
Nsg78
Nsg100
Nsg101
Nsg102
Nsg103
Nsg104
Nsg105
Nsg106
Nsg107
Nsg108
Nsg109
Nsg110
Nsg111
Nsg112
Nsg113
Nsg114
Nsg115
VPanasonic_mob
p132
sg117
Nsg118
VPanasonic Mobiles
p133
sg120
Nsg121
Nsg122
I2904256754
sg123
NsbasS'_now'
p134
NsS'_id_str'
p135
NsS'_in_reply_to_status_id'
p136
I544182796646760448
sS'_text'
p137
V@ndtvgoodtimes @lovecolorbar @Panasonic_mob  #KFHunt \u000aA1) limeroad,A2) amrita,A3) Atul Kasbekar, Model- Mehnaz http://t.co/jchUj2qIfL 27
p138
sS'_retweeted'
p139
I00
sS'lang'
p140
Vet
p141
sS'_user'
p142
g3
(g91
g5
Ntp143
Rp144
(dp145
g10
VSUper 
p146
sg95
V663B12
p147
sg96
Ven
p148
sg97
VNew Delhi
p149
sg98
I384
sg99
I103554
sg78
VWed Dec 14 11:54:58 +0000 2011
p150
sg100
I00
sg101
V
p151
sg102
Vhttps://pbs.twimg.com/profile_images/378800000665499222/9abcdeb5ede71b2127ae77df46e06ba6_normal.png
p152
sg103
I756
sg104
I13311
sg105
I19800
sg106
Nsg107
I00
sg108
Vhttps://pbs.twimg.com/profile_banners/436652553/1417338198
p153
sg109
I00
sg110
I00
sg111
V1F98C7
p154
sg112
I01
sg113
I00
sg114
Vhttp://abs.twimg.com/images/themes/theme2/bg.gif
p155
sg115
VRajendra9Prasad
p156
sg117
I2
sg118
VRajendra9Prasad
p157
sg120
VDAECF4
p158
sg121
Nsg122
I436652553
sg123
VC6E2EE
p159
sbsS'_retweet_count'
p160
I0
sS'_source'
p161
V<a href="http://twitter.com" rel="nofollow">Twitter Web Client</a>
p162
sS'urls'
p163
(lp164
sg122
I544189058377711616
sbag3
(g4
g5
Ntp165
Rp166
(dp167
g9
I0
sg10
Nsg11
Nsg12
(lp168
g3
(g14
g5
Ntp169
Rp170
(dp171
g18
VKFHunt
p172
sbasg20
I00
sg21
Nsg22
Nsg23
(lp173
(dp174
Vsource_user_id
p175
I436652553
sVsource_status_id_str
p176
V544188076310806528
p177
sVexpanded_url
p178
Vhttp://twitter.com/Rajendra9Prasad/status/544188076310806528/photo/1
p179
sVdisplay_url
p180
Vpic.twitter.com/jchUj2qIfL
p181
sVurl
p182
Vhttp://t.co/jchUj2qIfL
p183
sVmedia_url_https
p184
Vhttps://pbs.twimg.com/media/B41YK7VCQAA6t2g.png
p185
sVsource_user_id_str
p186
V436652553
p187
sVsource_status_id
p188
I544188076310806528
sVid_str
p189
V544188074729553920
p190
sVsizes
p191
(dp192
Vsmall
p193
(dp194
Vh
p195
I482
sVresize
p196
Vfit
p197
sVw
p198
I340
ssVlarge
p199
(dp200
Vh
p201
I599
sVresize
p202
Vfit
p203
sVw
p204
I422
ssVmedium
p205
(dp206
Vh
p207
I599
sVresize
p208
Vfit
p209
sVw
p210
I422
ssVthumb
p211
(dp212
Vh
p213
I150
sVresize
p214
Vcrop
p215
sVw
p216
I150
sssVindices
p217
(lp218
I111
aI133
asVtype
p219
Vphoto
p220
sVid
p221
I544188074729553920
sVmedia_url
p222
Vhttp://pbs.twimg.com/media/B41YK7VCQAA6t2g.png
p223
sasg75
Nsg76
Nsg77
Nsg78
VSun Dec 14 17:55:51 +0000 2014
p224
sg80
Nsg81
I00
sg82
Vndtvgoodtimes
p225
sg84
Nsg85
I38412590
sg86
Nsg87
I00
sg88
Nsg89
(lp226
g3
(g91
g5
Ntp227
Rp228
(dp229
g10
Nsg95
Nsg96
Nsg97
Nsg98
Nsg99
Nsg78
Nsg100
Nsg101
Nsg102
Nsg103
Nsg104
Nsg105
Nsg106
Nsg107
Nsg108
Nsg109
Nsg110
Nsg111
Nsg112
Nsg113
Nsg114
Nsg115
Vndtvgoodtimes
p230
sg117
Nsg118
VNDTV Good Times
p231
sg120
Nsg121
Nsg122
I38412590
sg123
Nsbag3
(g91
g5
Ntp232
Rp233
(dp234
g10
Nsg95
Nsg96
Nsg97
Nsg98
Nsg99
Nsg78
Nsg100
Nsg101
Nsg102
Nsg103
Nsg104
Nsg105
Nsg106
Nsg107
Nsg108
Nsg109
Nsg110
Nsg111
Nsg112
Nsg113
Nsg114
Nsg115
Vlovecolorbar
p235
sg117
Nsg118
VColorBar Cosmetics
p236
sg120
Nsg121
Nsg122
I135629397
sg123
Nsbag3
(g91
g5
Ntp237
Rp238
(dp239
g10
Nsg95
Nsg96
Nsg97
Nsg98
Nsg99
Nsg78
Nsg100
Nsg101
Nsg102
Nsg103
Nsg104
Nsg105
Nsg106
Nsg107
Nsg108
Nsg109
Nsg110
Nsg111
Nsg112
Nsg113
Nsg114
Nsg115
VPanasonic_mob
p240
sg117
Nsg118
VPanasonic Mobiles
p241
sg120
Nsg121
Nsg122
I2904256754
sg123
Nsbasg134
Nsg135
Nsg136
I544182796646760448
sg137
V@ndtvgoodtimes @lovecolorbar @Panasonic_mob  #KFHunt \u000aA1) limeroad,A2) amrita,A3) Atul Kasbekar, Model- Mehnaz http://t.co/jchUj2qIfL 26
p242
sg139
I00
sg140
Vet
p243
sg142
g3
(g91
g5
Ntp244
Rp245
(dp246
g10
VSUper 
p247
sg95
V663B12
p248
sg96
Ven
p249
sg97
VNew Delhi
p250
sg98
I384
sg99
I103554
sg78
VWed Dec 14 11:54:58 +0000 2011
p251
sg100
I00
sg101
g151
sg102
Vhttps://pbs.twimg.com/profile_images/378800000665499222/9abcdeb5ede71b2127ae77df46e06ba6_normal.png
p252
sg103
I756
sg104
I13311
sg105
I19800
sg106
Nsg107
I00
sg108
Vhttps://pbs.twimg.com/profile_banners/436652553/1417338198
p253
sg109
I00
sg110
I00
sg111
V1F98C7
p254
sg112
I01
sg113
I00
sg114
Vhttp://abs.twimg.com/images/themes/theme2/bg.gif
p255
sg115
VRajendra9Prasad
p256
sg117
I2
sg118
VRajendra9Prasad
p257
sg120
VDAECF4
p258
sg121
Nsg122
I436652553
sg123
VC6E2EE
p259
sbsg160
I0
sg161
V<a href="http://twitter.com" rel="nofollow">Twitter Web Client</a>
p260
sg163
(lp261
sg122
I544189038266048512
sbag3
(g4
g5
Ntp262
Rp263
(dp264
g9
I0
sg10
Nsg11
Nsg12
(lp265
g3
(g14
g5
Ntp266
Rp267
(dp268
g18
VKFHunt
p269
sbasg20
I00
sg21
Nsg22
Nsg23
(lp270
(dp271
Vsource_user_id
p272
I436652553
sVsource_status_id_str
p273
V544188076310806528
p274
sVexpanded_url
p275
Vhttp://twitter.com/Rajendra9Prasad/status/544188076310806528/photo/1
p276
sVdisplay_url
p277
Vpic.twitter.com/jchUj2qIfL
p278
sVurl
p279
Vhttp://t.co/jchUj2qIfL
p280
sVmedia_url_https
p281
Vhttps://pbs.twimg.com/media/B41YK7VCQAA6t2g.png
p282
sVsource_user_id_str
p283
V436652553
p284
sVsource_status_id
p285
I544188076310806528
sVid_str
p286
V544188074729553920
p287
sVsizes
p288
(dp289
Vsmall
p290
(dp291
Vh
p292
I482
sVresize
p293
Vfit
p294
sVw
p295
I340
ssVlarge
p296
(dp297
Vh
p298
I599
sVresize
p299
Vfit
p300
sVw
p301
I422
ssVmedium
p302
(dp303
Vh
p304
I599
sVresize
p305
Vfit
p306
sVw
p307
I422
ssVthumb
p308
(dp309
Vh
p310
I150
sVresize
p311
Vcrop
p312
sVw
p313
I150
sssVindices
p314
(lp315
I111
aI133
asVtype
p316
Vphoto
p317
sVid
p318
I544188074729553920
sVmedia_url
p319
Vhttp://pbs.twimg.com/media/B41YK7VCQAA6t2g.png
p320
sasg75
Nsg76
Nsg77
Nsg78
VSun Dec 14 17:55:48 +0000 2014
p321
sg80
Nsg81
I00
sg82
Vndtvgoodtimes
p322
sg84
Nsg85
I38412590
sg86
Nsg87
I00
sg88
Nsg89
(lp323
g3
(g91
g5
Ntp324
Rp325
(dp326
g10
Nsg95
Nsg96
Nsg97
Nsg98
Nsg99
Nsg78
Nsg100
Nsg101
Nsg102
Nsg103
Nsg104
Nsg105
Nsg106
Nsg107
Nsg108
Nsg109
Nsg110
Nsg111
Nsg112
Nsg113
Nsg114
Nsg115
Vndtvgoodtimes
p327
sg117
Nsg118
VNDTV Good Times
p328
sg120
Nsg121
Nsg122
I38412590
sg123
Nsbag3
(g91
g5
Ntp329
Rp330
(dp331
g10
Nsg95
Nsg96
Nsg97
Nsg98
Nsg99
Nsg78
Nsg100
Nsg101
Nsg102
Nsg103
Nsg104
Nsg105
Nsg106
Nsg107
Nsg108
Nsg109
Nsg110
Nsg111
Nsg112
Nsg113
Nsg114
Nsg115
Vlovecolorbar
p332
sg117
Nsg118
VColorBar Cosmetics
p333
sg120
Nsg121
Nsg122
I135629397
sg123
Nsbag3
(g91
g5
Ntp334
Rp335
(dp336
g10
Nsg95
Nsg96
Nsg97
Nsg98
Nsg99
Nsg78
Nsg100
Nsg101
Nsg102
Nsg103
Nsg104
Nsg105
Nsg106
Nsg107
Nsg108
Nsg109
Nsg110
Nsg111
Nsg112
Nsg113
Nsg114
Nsg115
VPanasonic_mob
p337
sg117
Nsg118
VPanasonic Mobiles
p338
sg120
Nsg121
Nsg122
I2904256754
sg123
Nsbasg134
Nsg135
Nsg136
I544182796646760448
sg137
V@ndtvgoodtimes @lovecolorbar @Panasonic_mob  #KFHunt \u000aA1) limeroad,A2) amrita,A3) Atul Kasbekar, Model- Mehnaz http://t.co/jchUj2qIfL 25
p339
sg139
I00
sg140
Vet
p340
sg142
g3
(g91
g5
Ntp341
Rp342
(dp343
g10
VSUper 
p344
sg95
V663B12
p345
sg96
Ven
p346
sg97
VNew Delhi
p347
sg98
I384
sg99
I103554
sg78
VWed Dec 14 11:54:58 +0000 2011
p348
sg100
I00
sg101
g151
sg102
Vhttps://pbs.twimg.com/profile_images/378800000665499222/9abcdeb5ede71b2127ae77df46e06ba6_normal.png
p349
sg103
I756
sg104
I13311
sg105
I19800
sg106
Nsg107
I00
sg108
Vhttps://pbs.twimg.com/profile_banners/436652553/1417338198
p350
sg109
I00
sg110
I00
sg111
V1F98C7
p351
sg112
I01
sg113
I00
sg114
Vhttp://abs.twimg.com/images/themes/theme2/bg.gif
p352
sg115
VRajendra9Prasad
p353
sg117
I2
sg118
VRajendra9Prasad
p354
sg120
VDAECF4
p355
sg121
Nsg122
I436652553
sg123
VC6E2EE
p356
sbsg160
I0
sg161
V<a href="http://twitter.com" rel="nofollow">Twitter Web Client</a>
p357
sg163
(lp358
sg122
I544189022638075904
sbag3
(g4
g5
Ntp359
Rp360
(dp361
g9
I0
sg10
Nsg11
Nsg12
(lp362
g3
(g14
g5
Ntp363
Rp364
(dp365
g18
VKFHunt
p366
sbasg20
I00
sg21
Nsg22
Nsg23
(lp367
(dp368
Vsource_user_id
p369
I436652553
sVsource_status_id_str
p370
V544188076310806528
p371
sVexpanded_url
p372
Vhttp://twitter.com/Rajendra9Prasad/status/544188076310806528/photo/1
p373
sVdisplay_url
p374
Vpic.twitter.com/jchUj2qIfL
p375
sVurl
p376
Vhttp://t.co/jchUj2qIfL
p377
sVmedia_url_https
p378
Vhttps://pbs.twimg.com/media/B41YK7VCQAA6t2g.png
p379
sVsource_user_id_str
p380
V436652553
p381
sVsource_status_id
p382
I544188076310806528
sVid_str
p383
V544188074729553920
p384
sVsizes
p385
(dp386
Vsmall
p387
(dp388
Vh
p389
I482
sVresize
p390
Vfit
p391
sVw
p392
I340
ssVlarge
p393
(dp394
Vh
p395
I599
sVresize
p396
Vfit
p397
sVw
p398
I422
ssVmedium
p399
(dp400
Vh
p401
I599
sVresize
p402
Vfit
p403
sVw
p404
I422
ssVthumb
p405
(dp406
Vh
p407
I150
sVresize
p408
Vcrop
p409
sVw
p410
I150
sssVindices
p411
(lp412
I111
aI133
asVtype
p413
Vphoto
p414
sVid
p415
I544188074729553920
sVmedia_url
p416
Vhttp://pbs.twimg.com/media/B41YK7VCQAA6t2g.png
p417
sasg75
Nsg76
Nsg77
Nsg78
VSun Dec 14 17:55:43 +0000 2014
p418
sg80
Nsg81
I00
sg82
Vndtvgoodtimes
p419
sg84
Nsg85
I38412590
sg86
Nsg87
I00
sg88
Nsg89
(lp420
g3
(g91
g5
Ntp421
Rp422
(dp423
g10
Nsg95
Nsg96
Nsg97
Nsg98
Nsg99
Nsg78
Nsg100
Nsg101
Nsg102
Nsg103
Nsg104
Nsg105
Nsg106
Nsg107
Nsg108
Nsg109
Nsg110
Nsg111
Nsg112
Nsg113
Nsg114
Nsg115
Vndtvgoodtimes
p424
sg117
Nsg118
VNDTV Good Times
p425
sg120
Nsg121
Nsg122
I38412590
sg123
Nsbag3
(g91
g5
Ntp426
Rp427
(dp428
g10
Nsg95
Nsg96
Nsg97
Nsg98
Nsg99
Nsg78
Nsg100
Nsg101
Nsg102
Nsg103
Nsg104
Nsg105
Nsg106
Nsg107
Nsg108
Nsg109
Nsg110
Nsg111
Nsg112
Nsg113
Nsg114
Nsg115
Vlovecolorbar
p429
sg117
Nsg118
VColorBar Cosmetics
p430
sg120
Nsg121
Nsg122
I135629397
sg123
Nsbag3
(g91
g5
Ntp431
Rp432
(dp433
g10
Nsg95
Nsg96
Nsg97
Nsg98
Nsg99
Nsg78
Nsg100
Nsg101
Nsg102
Nsg103
Nsg104
Nsg105
Nsg106
Nsg107
Nsg108
Nsg109
Nsg110
Nsg111
Nsg112
Nsg113
Nsg114
Nsg115
VPanasonic_mob
p434
sg117
Nsg118
VPanasonic Mobiles
p435
sg120
Nsg121
Nsg122
I2904256754
sg123
Nsbasg134
Nsg135
Nsg136
I544182796646760448
sg137
V@ndtvgoodtimes @lovecolorbar @Panasonic_mob  #KFHunt \u000aA1) limeroad,A2) amrita,A3) Atul Kasbekar, Model- Mehnaz http://t.co/jchUj2qIfL 24
p436
sg139
I00
sg140
Vet
p437
sg142
g3
(g91
g5
Ntp438
Rp439
(dp440
g10
VSUper 
p441
sg95
V663B12
p442
sg96
Ven
p443
sg97
VNew Delhi
p444
sg98
I384
sg99
I103554
sg78
VWed Dec 14 11:54:58 +0000 2011
p445
sg100
I00
sg101
g151
sg102
Vhttps://pbs.twimg.com/profile_images/378800000665499222/9abcdeb5ede71b2127ae77df46e06ba6_normal.png
p446
sg103
I756
sg104
I13311
sg105
I19800
sg106
Nsg107
I00
sg108
Vhttps://pbs.twimg.com/profile_banners/436652553/1417338198
p447
sg109
I00
sg110
I00
sg111
V1F98C7
p448
sg112
I01
sg113
I00
sg114
Vhttp://abs.twimg.com/images/themes/theme2/bg.gif
p449
sg115
VRajendra9Prasad
p450
sg117
I2
sg118
VRajendra9Prasad
p451
sg120
VDAECF4
p452
sg121
Nsg122
I436652553
sg123
VC6E2EE
p453
sbsg160
I0
sg161
V<a href="http://twitter.com" rel="nofollow">Twitter Web Client</a>
p454
sg163
(lp455
sg122
I544189003679805440
sbag3
(g4
g5
Ntp456
Rp457
(dp458
g9
I0
sg10
Nsg11
Nsg12
(lp459
g3
(g14
g5
Ntp460
Rp461
(dp462
g18
VKFHunt
p463
sbasg20
I00
sg21
Nsg22
Nsg23
(lp464
(dp465
Vsource_user_id
p466
I436652553
sVsource_status_id_str
p467
V544188076310806528
p468
sVexpanded_url
p469
Vhttp://twitter.com/Rajendra9Prasad/status/544188076310806528/photo/1
p470
sVdisplay_url
p471
Vpic.twitter.com/jchUj2qIfL
p472
sVurl
p473
Vhttp://t.co/jchUj2qIfL
p474
sVmedia_url_https
p475
Vhttps://pbs.twimg.com/media/B41YK7VCQAA6t2g.png
p476
sVsource_user_id_str
p477
V436652553
p478
sVsource_status_id
p479
I544188076310806528
sVid_str
p480
V544188074729553920
p481
sVsizes
p482
(dp483
Vsmall
p484
(dp485
Vh
p486
I482
sVresize
p487
Vfit
p488
sVw
p489
I340
ssVlarge
p490
(dp491
Vh
p492
I599
sVresize
p493
Vfit
p494
sVw
p495
I422
ssVmedium
p496
(dp497
Vh
p498
I599
sVresize
p499
Vfit
p500
sVw
p501
I422
ssVthumb
p502
(dp503
Vh
p504
I150
sVresize
p505
Vcrop
p506
sVw
p507
I150
sssVindices
p508
(lp509
I111
aI133
asVtype
p510
Vphoto
p511
sVid
p512
I544188074729553920
sVmedia_url
p513
Vhttp://pbs.twimg.com/media/B41YK7VCQAA6t2g.png
p514
sasg75
Nsg76
Nsg77
Nsg78
VSun Dec 14 17:55:35 +0000 2014
p515
sg80
Nsg81
I00
sg82
Vndtvgoodtimes
p516
sg84
Nsg85
I38412590
sg86
Nsg87
I00
sg88
Nsg89
(lp517
g3
(g91
g5
Ntp518
Rp519
(dp520
g10
Nsg95
Nsg96
Nsg97
Nsg98
Nsg99
Nsg78
Nsg100
Nsg101
Nsg102
Nsg103
Nsg104
Nsg105
Nsg106
Nsg107
Nsg108
Nsg109
Nsg110
Nsg111
Nsg112
Nsg113
Nsg114
Nsg115
Vndtvgoodtimes
p521
sg117
Nsg118
VNDTV Good Times
p522
sg120
Nsg121
Nsg122
I38412590
sg123
Nsbag3
(g91
g5
Ntp523
Rp524
(dp525
g10
Nsg95
Nsg96
Nsg97
Nsg98
Nsg99
Nsg78
Nsg100
Nsg101
Nsg102
Nsg103
Nsg104
Nsg105
Nsg106
Nsg107
Nsg108
Nsg109
Nsg110
Nsg111
Nsg112
Nsg113
Nsg114
Nsg115
Vlovecolorbar
p526
sg117
Nsg118
VColorBar Cosmetics
p527
sg120
Nsg121
Nsg122
I135629397
sg123
Nsbag3
(g91
g5
Ntp528
Rp529
(dp530
g10
Nsg95
Nsg96
Nsg97
Nsg98
Nsg99
Nsg78
Nsg100
Nsg101
Nsg102
Nsg103
Nsg104
Nsg105
Nsg106
Nsg107
Nsg108
Nsg109
Nsg110
Nsg111
Nsg112
Nsg113
Nsg114
Nsg115
VPanasonic_mob
p531
sg117
Nsg118
VPanasonic Mobiles
p532
sg120
Nsg121
Nsg122
I2904256754
sg123
Nsbasg134
Nsg135
Nsg136
Nsg137
V@ndtvgoodtimes @lovecolorbar @Panasonic_mob  #KFHunt \u000aA1) limeroad,A2) amrita,A3) Atul Kasbekar, Model- Mehnaz http://t.co/jchUj2qIfL 23
p533
sg139
I00
sg140
Vet
p534
sg142
g3
(g91
g5
Ntp535
Rp536
(dp537
g10
VSUper 
p538
sg95
V663B12
p539
sg96
Ven
p540
sg97
VNew Delhi
p541
sg98
I384
sg99
I103554
sg78
VWed Dec 14 11:54:58 +0000 2011
p542
sg100
I00
sg101
g151
sg102
Vhttps://pbs.twimg.com/profile_images/378800000665499222/9abcdeb5ede71b2127ae77df46e06ba6_normal.png
p543
sg103
I756
sg104
I13311
sg105
I19800
sg106
Nsg107
I00
sg108
Vhttps://pbs.twimg.com/profile_banners/436652553/1417338198
p544
sg109
I00
sg110
I00
sg111
V1F98C7
p545
sg112
I01
sg113
I00
sg114
Vhttp://abs.twimg.com/images/themes/theme2/bg.gif
p546
sg115
VRajendra9Prasad
p547
sg117
I2
sg118
VRajendra9Prasad
p548
sg120
VDAECF4
p549
sg121
Nsg122
I436652553
sg123
VC6E2EE
p550
sbsg160
I0
sg161
V<a href="http://twitter.com" rel="nofollow">Twitter Web Client</a>
p551
sg163
(lp552
sg122
I544188967881420801
sbag3
(g4
g5
Ntp553
Rp554
(dp555
g9
I0
sg10
Nsg11
Nsg12
(lp556
g3
(g14
g5
Ntp557
Rp558
(dp559
g18
VKFHunt
p560
sbasg20
I00
sg21
Nsg22
Nsg23
(lp561
(dp562
Vsource_user_id
p563
I436652553
sVsource_status_id_str
p564
V544188076310806528
p565
sVexpanded_url
p566
Vhttp://twitter.com/Rajendra9Prasad/status/544188076310806528/photo/1
p567
sVdisplay_url
p568
Vpic.twitter.com/jchUj2qIfL
p569
sVurl
p570
Vhttp://t.co/jchUj2qIfL
p571
sVmedia_url_https
p572
Vhttps://pbs.twimg.com/media/B41YK7VCQAA6t2g.png
p573
sVsource_user_id_str
p574
V436652553
p575
sVsource_status_id
p576
I544188076310806528
sVid_str
p577
V544188074729553920
p578
sVsizes
p579
(dp580
Vsmall
p581
(dp582
Vh
p583
I482
sVresize
p584
Vfit
p585
sVw
p586
I340
ssVlarge
p587
(dp588
Vh
p589
I599
sVresize
p590
Vfit
p591
sVw
p592
I422
ssVmedium
p593
(dp594
Vh
p595
I599
sVresize
p596
Vfit
p597
sVw
p598
I422
ssVthumb
p599
(dp600
Vh
p601
I150
sVresize
p602
Vcrop
p603
sVw
p604
I150
sssVindices
p605
(lp606
I111
aI133
asVtype
p607
Vphoto
p608
sVid
p609
I544188074729553920
sVmedia_url
p610
Vhttp://pbs.twimg.com/media/B41YK7VCQAA6t2g.png
p611
sasg75
Nsg76
Nsg77
Nsg78
VSun Dec 14 17:55:19 +0000 2014
p612
sg80
Nsg81
I00
sg82
Vndtvgoodtimes
p613
sg84
Nsg85
I38412590
sg86
Nsg87
I00
sg88
Nsg89
(lp614
g3
(g91
g5
Ntp615
Rp616
(dp617
g10
Nsg95
Nsg96
Nsg97
Nsg98
Nsg99
Nsg78
Nsg100
Nsg101
Nsg102
Nsg103
Nsg104
Nsg105
Nsg106
Nsg107
Nsg108
Nsg109
Nsg110
Nsg111
Nsg112
Nsg113
Nsg114
Nsg115
Vndtvgoodtimes
p618
sg117
Nsg118
VNDTV Good Times
p619
sg120
Nsg121
Nsg122
I38412590
sg123
Nsbag3
(g91
g5
Ntp620
Rp621
(dp622
g10
Nsg95
Nsg96
Nsg97
Nsg98
Nsg99
Nsg78
Nsg100
Nsg101
Nsg102
Nsg103
Nsg104
Nsg105
Nsg106
Nsg107
Nsg108
Nsg109
Nsg110
Nsg111
Nsg112
Nsg113
Nsg114
Nsg115
Vlovecolorbar
p623
sg117
Nsg118
VColorBar Cosmetics
p624
sg120
Nsg121
Nsg122
I135629397
sg123
Nsbag3
(g91
g5
Ntp625
Rp626
(dp627
g10
Nsg95
Nsg96
Nsg97
Nsg98
Nsg99
Nsg78
Nsg100
Nsg101
Nsg102
Nsg103
Nsg104
Nsg105
Nsg106
Nsg107
Nsg108
Nsg109
Nsg110
Nsg111
Nsg112
Nsg113
Nsg114
Nsg115
VPanasonic_mob
p628
sg117
Nsg118
VPanasonic Mobiles
p629
sg120
Nsg121
Nsg122
I2904256754
sg123
Nsbasg134
Nsg135
Nsg136
Nsg137
V@ndtvgoodtimes @lovecolorbar @Panasonic_mob  #KFHunt \u000aA1) limeroad,A2) amrita,A3) Atul Kasbekar, Model- Mehnaz http://t.co/jchUj2qIfL 21
p630
sg139
I00
sg140
Vet
p631
sg142
g3
(g91
g5
Ntp632
Rp633
(dp634
g10
VSUper 
p635
sg95
V663B12
p636
sg96
Ven
p637
sg97
VNew Delhi
p638
sg98
I384
sg99
I103554
sg78
VWed Dec 14 11:54:58 +0000 2011
p639
sg100
I00
sg101
g151
sg102
Vhttps://pbs.twimg.com/profile_images/378800000665499222/9abcdeb5ede71b2127ae77df46e06ba6_normal.png
p640
sg103
I756
sg104
I13311
sg105
I19800
sg106
Nsg107
I00
sg108
Vhttps://pbs.twimg.com/profile_banners/436652553/1417338198
p641
sg109
I00
sg110
I00
sg111
V1F98C7
p642
sg112
I01
sg113
I00
sg114
Vhttp://abs.twimg.com/images/themes/theme2/bg.gif
p643
sg115
VRajendra9Prasad
p644
sg117
I2
sg118
VRajendra9Prasad
p645
sg120
VDAECF4
p646
sg121
Nsg122
I436652553
sg123
VC6E2EE
p647
sbsg160
I0
sg161
V<a href="http://twitter.com" rel="nofollow">Twitter Web Client</a>
p648
sg163
(lp649
sg122
I544188900449599489
sbag3
(g4
g5
Ntp650
Rp651
(dp652
g9
I0
sg10
Nsg11
Nsg12
(lp653
g3
(g14
g5
Ntp654
Rp655
(dp656
g18
VKFHunt
p657
sbasg20
I00
sg21
Nsg22
Nsg23
(lp658
(dp659
Vsource_user_id
p660
I436652553
sVsource_status_id_str
p661
V544188076310806528
p662
sVexpanded_url
p663
Vhttp://twitter.com/Rajendra9Prasad/status/544188076310806528/photo/1
p664
sVdisplay_url
p665
Vpic.twitter.com/jchUj2qIfL
p666
sVurl
p667
Vhttp://t.co/jchUj2qIfL
p668
sVmedia_url_https
p669
Vhttps://pbs.twimg.com/media/B41YK7VCQAA6t2g.png
p670
sVsource_user_id_str
p671
V436652553
p672
sVsource_status_id
p673
I544188076310806528
sVid_str
p674
V544188074729553920
p675
sVsizes
p676
(dp677
Vsmall
p678
(dp679
Vh
p680
I482
sVresize
p681
Vfit
p682
sVw
p683
I340
ssVlarge
p684
(dp685
Vh
p686
I599
sVresize
p687
Vfit
p688
sVw
p689
I422
ssVmedium
p690
(dp691
Vh
p692
I599
sVresize
p693
Vfit
p694
sVw
p695
I422
ssVthumb
p696
(dp697
Vh
p698
I150
sVresize
p699
Vcrop
p700
sVw
p701
I150
sssVindices
p702
(lp703
I111
aI133
asVtype
p704
Vphoto
p705
sVid
p706
I544188074729553920
sVmedia_url
p707
Vhttp://pbs.twimg.com/media/B41YK7VCQAA6t2g.png
p708
sasg75
Nsg76
Nsg77
Nsg78
VSun Dec 14 17:55:13 +0000 2014
p709
sg80
Nsg81
I00
sg82
Vndtvgoodtimes
p710
sg84
Nsg85
I38412590
sg86
Nsg87
I00
sg88
Nsg89
(lp711
g3
(g91
g5
Ntp712
Rp713
(dp714
g10
Nsg95
Nsg96
Nsg97
Nsg98
Nsg99
Nsg78
Nsg100
Nsg101
Nsg102
Nsg103
Nsg104
Nsg105
Nsg106
Nsg107
Nsg108
Nsg109
Nsg110
Nsg111
Nsg112
Nsg113
Nsg114
Nsg115
Vndtvgoodtimes
p715
sg117
Nsg118
VNDTV Good Times
p716
sg120
Nsg121
Nsg122
I38412590
sg123
Nsbag3
(g91
g5
Ntp717
Rp718
(dp719
g10
Nsg95
Nsg96
Nsg97
Nsg98
Nsg99
Nsg78
Nsg100
Nsg101
Nsg102
Nsg103
Nsg104
Nsg105
Nsg106
Nsg107
Nsg108
Nsg109
Nsg110
Nsg111
Nsg112
Nsg113
Nsg114
Nsg115
Vlovecolorbar
p720
sg117
Nsg118
VColorBar Cosmetics
p721
sg120
Nsg121
Nsg122
I135629397
sg123
Nsbag3
(g91
g5
Ntp722
Rp723
(dp724
g10
Nsg95
Nsg96
Nsg97
Nsg98
Nsg99
Nsg78
Nsg100
Nsg101
Nsg102
Nsg103
Nsg104
Nsg105
Nsg106
Nsg107
Nsg108
Nsg109
Nsg110
Nsg111
Nsg112
Nsg113
Nsg114
Nsg115
VPanasonic_mob
p725
sg117
Nsg118
VPanasonic Mobiles
p726
sg120
Nsg121
Nsg122
I2904256754
sg123
Nsbasg134
Nsg135
Nsg136
Nsg137
V@ndtvgoodtimes @lovecolorbar @Panasonic_mob  #KFHunt \u000aA1) limeroad,A2) amrita,A3) Atul Kasbekar, Model- Mehnaz http://t.co/jchUj2qIfL 20
p727
sg139
I00
sg140
Vet
p728
sg142
g3
(g91
g5
Ntp729
Rp730
(dp731
g10
VSUper 
p732
sg95
V663B12
p733
sg96
Ven
p734
sg97
VNew Delhi
p735
sg98
I384
sg99
I103554
sg78
VWed Dec 14 11:54:58 +0000 2011
p736
sg100
I00
sg101
g151
sg102
Vhttps://pbs.twimg.com/profile_images/378800000665499222/9abcdeb5ede71b2127ae77df46e06ba6_normal.png
p737
sg103
I756
sg104
I13311
sg105
I19800
sg106
Nsg107
I00
sg108
Vhttps://pbs.twimg.com/profile_banners/436652553/1417338198
p738
sg109
I00
sg110
I00
sg111
V1F98C7
p739
sg112
I01
sg113
I00
sg114
Vhttp://abs.twimg.com/images/themes/theme2/bg.gif
p740
sg115
VRajendra9Prasad
p741
sg117
I2
sg118
VRajendra9Prasad
p742
sg120
VDAECF4
p743
sg121
Nsg122
I436652553
sg123
VC6E2EE
p744
sbsg160
I0
sg161
V<a href="http://twitter.com" rel="nofollow">Twitter Web Client</a>
p745
sg163
(lp746
sg122
I544188877540302848
sbag3
(g4
g5
Ntp747
Rp748
(dp749
g9
I0
sg10
Nsg11
Nsg12
(lp750
g3
(g14
g5
Ntp751
Rp752
(dp753
g18
VKFHunt
p754
sbasg20
I00
sg21
Nsg22
Nsg23
(lp755
(dp756
Vsource_user_id
p757
I436652553
sVsource_status_id_str
p758
V544188076310806528
p759
sVexpanded_url
p760
Vhttp://twitter.com/Rajendra9Prasad/status/544188076310806528/photo/1
p761
sVdisplay_url
p762
Vpic.twitter.com/jchUj2qIfL
p763
sVurl
p764
Vhttp://t.co/jchUj2qIfL
p765
sVmedia_url_https
p766
Vhttps://pbs.twimg.com/media/B41YK7VCQAA6t2g.png
p767
sVsource_user_id_str
p768
V436652553
p769
sVsource_status_id
p770
I544188076310806528
sVid_str
p771
V544188074729553920
p772
sVsizes
p773
(dp774
Vsmall
p775
(dp776
Vh
p777
I482
sVresize
p778
Vfit
p779
sVw
p780
I340
ssVlarge
p781
(dp782
Vh
p783
I599
sVresize
p784
Vfit
p785
sVw
p786
I422
ssVmedium
p787
(dp788
Vh
p789
I599
sVresize
p790
Vfit
p791
sVw
p792
I422
ssVthumb
p793
(dp794
Vh
p795
I150
sVresize
p796
Vcrop
p797
sVw
p798
I150
sssVindices
p799
(lp800
I111
aI133
asVtype
p801
Vphoto
p802
sVid
p803
I544188074729553920
sVmedia_url
p804
Vhttp://pbs.twimg.com/media/B41YK7VCQAA6t2g.png
p805
sasg75
Nsg76
Nsg77
Nsg78
VSun Dec 14 17:55:10 +0000 2014
p806
sg80
Nsg81
I00
sg82
Vndtvgoodtimes
p807
sg84
Nsg85
I38412590
sg86
Nsg87
I00
sg88
Nsg89
(lp808
g3
(g91
g5
Ntp809
Rp810
(dp811
g10
Nsg95
Nsg96
Nsg97
Nsg98
Nsg99
Nsg78
Nsg100
Nsg101
Nsg102
Nsg103
Nsg104
Nsg105
Nsg106
Nsg107
Nsg108
Nsg109
Nsg110
Nsg111
Nsg112
Nsg113
Nsg114
Nsg115
Vndtvgoodtimes
p812
sg117
Nsg118
VNDTV Good Times
p813
sg120
Nsg121
Nsg122
I38412590
sg123
Nsbag3
(g91
g5
Ntp814
Rp815
(dp816
g10
Nsg95
Nsg96
Nsg97
Nsg98
Nsg99
Nsg78
Nsg100
Nsg101
Nsg102
Nsg103
Nsg104
Nsg105
Nsg106
Nsg107
Nsg108
Nsg109
Nsg110
Nsg111
Nsg112
Nsg113
Nsg114
Nsg115
Vlovecolorbar
p817
sg117
Nsg118
VColorBar Cosmetics
p818
sg120
Nsg121
Nsg122
I135629397
sg123
Nsbag3
(g91
g5
Ntp819
Rp820
(dp821
g10
Nsg95
Nsg96
Nsg97
Nsg98
Nsg99
Nsg78
Nsg100
Nsg101
Nsg102
Nsg103
Nsg104
Nsg105
Nsg106
Nsg107
Nsg108
Nsg109
Nsg110
Nsg111
Nsg112
Nsg113
Nsg114
Nsg115
VPanasonic_mob
p822
sg117
Nsg118
VPanasonic Mobiles
p823
sg120
Nsg121
Nsg122
I2904256754
sg123
Nsbasg134
Nsg135
Nsg136
Nsg137
V@ndtvgoodtimes @lovecolorbar @Panasonic_mob  #KFHunt \u000aA1) limeroad,A2) amrita,A3) Atul Kasbekar, Model- Mehnaz http://t.co/jchUj2qIfL 19
p824
sg139
I00
sg140
Vet
p825
sg142
g3
(g91
g5
Ntp826
Rp827
(dp828
g10
VSUper 
p829
sg95
V663B12
p830
sg96
Ven
p831
sg97
VNew Delhi
p832
sg98
I384
sg99
I103554
sg78
VWed Dec 14 11:54:58 +0000 2011
p833
sg100
I00
sg101
g151
sg102
Vhttps://pbs.twimg.com/profile_images/378800000665499222/9abcdeb5ede71b2127ae77df46e06ba6_normal.png
p834
sg103
I756
sg104
I13311
sg105
I19800
sg106
Nsg107
I00
sg108
Vhttps://pbs.twimg.com/profile_banners/436652553/1417338198
p835
sg109
I00
sg110
I00
sg111
V1F98C7
p836
sg112
I01
sg113
I00
sg114
Vhttp://abs.twimg.com/images/themes/theme2/bg.gif
p837
sg115
VRajendra9Prasad
p838
sg117
I2
sg118
VRajendra9Prasad
p839
sg120
VDAECF4
p840
sg121
Nsg122
I436652553
sg123
VC6E2EE
p841
sbsg160
I0
sg161
V<a href="http://twitter.com" rel="nofollow">Twitter Web Client</a>
p842
sg163
(lp843
sg122
I544188863158046720
sbag3
(g4
g5
Ntp844
Rp845
(dp846
g9
I0
sg10
Nsg11
Nsg12
(lp847
g3
(g14
g5
Ntp848
Rp849
(dp850
g18
VKFHunt
p851
sbasg20
I00
sg21
Nsg22
Nsg23
(lp852
(dp853
Vsource_user_id
p854
I436652553
sVsource_status_id_str
p855
V544188076310806528
p856
sVexpanded_url
p857
Vhttp://twitter.com/Rajendra9Prasad/status/544188076310806528/photo/1
p858
sVdisplay_url
p859
Vpic.twitter.com/jchUj2qIfL
p860
sVurl
p861
Vhttp://t.co/jchUj2qIfL
p862
sVmedia_url_https
p863
Vhttps://pbs.twimg.com/media/B41YK7VCQAA6t2g.png
p864
sVsource_user_id_str
p865
V436652553
p866
sVsource_status_id
p867
I544188076310806528
sVid_str
p868
V544188074729553920
p869
sVsizes
p870
(dp871
Vsmall
p872
(dp873
Vh
p874
I482
sVresize
p875
Vfit
p876
sVw
p877
I340
ssVlarge
p878
(dp879
Vh
p880
I599
sVresize
p881
Vfit
p882
sVw
p883
I422
ssVmedium
p884
(dp885
Vh
p886
I599
sVresize
p887
Vfit
p888
sVw
p889
I422
ssVthumb
p890
(dp891
Vh
p892
I150
sVresize
p893
Vcrop
p894
sVw
p895
I150
sssVindices
p896
(lp897
I111
aI133
asVtype
p898
Vphoto
p899
sVid
p900
I544188074729553920
sVmedia_url
p901
Vhttp://pbs.twimg.com/media/B41YK7VCQAA6t2g.png
p902
sasg75
Nsg76
Nsg77
Nsg78
VSun Dec 14 17:55:06 +0000 2014
p903
sg80
Nsg81
I00
sg82
Vndtvgoodtimes
p904
sg84
Nsg85
I38412590
sg86
Nsg87
I00
sg88
Nsg89
(lp905
g3
(g91
g5
Ntp906
Rp907
(dp908
g10
Nsg95
Nsg96
Nsg97
Nsg98
Nsg99
Nsg78
Nsg100
Nsg101
Nsg102
Nsg103
Nsg104
Nsg105
Nsg106
Nsg107
Nsg108
Nsg109
Nsg110
Nsg111
Nsg112
Nsg113
Nsg114
Nsg115
Vndtvgoodtimes
p909
sg117
Nsg118
VNDTV Good Times
p910
sg120
Nsg121
Nsg122
I38412590
sg123
Nsbag3
(g91
g5
Ntp911
Rp912
(dp913
g10
Nsg95
Nsg96
Nsg97
Nsg98
Nsg99
Nsg78
Nsg100
Nsg101
Nsg102
Nsg103
Nsg104
Nsg105
Nsg106
Nsg107
Nsg108
Nsg109
Nsg110
Nsg111
Nsg112
Nsg113
Nsg114
Nsg115
Vlovecolorbar
p914
sg117
Nsg118
VColorBar Cosmetics
p915
sg120
Nsg121
Nsg122
I135629397
sg123
Nsbag3
(g91
g5
Ntp916
Rp917
(dp918
g10
Nsg95
Nsg96
Nsg97
Nsg98
Nsg99
Nsg78
Nsg100
Nsg101
Nsg102
Nsg103
Nsg104
Nsg105
Nsg106
Nsg107
Nsg108
Nsg109
Nsg110
Nsg111
Nsg112
Nsg113
Nsg114
Nsg115
VPanasonic_mob
p919
sg117
Nsg118
VPanasonic Mobiles
p920
sg120
Nsg121
Nsg122
I2904256754
sg123
Nsbasg134
Nsg135
Nsg136
Nsg137
V@ndtvgoodtimes @lovecolorbar @Panasonic_mob  #KFHunt \u000aA1) limeroad,A2) amrita,A3) Atul Kasbekar, Model- Mehnaz http://t.co/jchUj2qIfL 18
p921
sg139
I00
sg140
Vet
p922
sg142
g3
(g91
g5
Ntp923
Rp924
(dp925
g10
VSUper 
p926
sg95
V663B12
p927
sg96
Ven
p928
sg97
VNew Delhi
p929
sg98
I384
sg99
I103554
sg78
VWed Dec 14 11:54:58 +0000 2011
p930
sg100
I00
sg101
g151
sg102
Vhttps://pbs.twimg.com/profile_images/378800000665499222/9abcdeb5ede71b2127ae77df46e06ba6_normal.png
p931
sg103
I756
sg104
I13311
sg105
I19800
sg106
Nsg107
I00
sg108
Vhttps://pbs.twimg.com/profile_banners/436652553/1417338198
p932
sg109
I00
sg110
I00
sg111
V1F98C7
p933
sg112
I01
sg113
I00
sg114
Vhttp://abs.twimg.com/images/themes/theme2/bg.gif
p934
sg115
VRajendra9Prasad
p935
sg117
I2
sg118
VRajendra9Prasad
p936
sg120
VDAECF4
p937
sg121
Nsg122
I436652553
sg123
VC6E2EE
p938
sbsg160
I0
sg161
V<a href="http://twitter.com" rel="nofollow">Twitter Web Client</a>
p939
sg163
(lp940
sg122
I544188849505579009
sbag3
(g4
g5
Ntp941
Rp942
(dp943
g9
I0
sg10
Nsg11
Nsg12
(lp944
g3
(g14
g5
Ntp945
Rp946
(dp947
g18
VKFHunt
p948
sbasg20
I00
sg21
Nsg22
Nsg23
(lp949
(dp950
Vsource_user_id
p951
I436652553
sVsource_status_id_str
p952
V544188076310806528
p953
sVexpanded_url
p954
Vhttp://twitter.com/Rajendra9Prasad/status/544188076310806528/photo/1
p955
sVdisplay_url
p956
Vpic.twitter.com/jchUj2qIfL
p957
sVurl
p958
Vhttp://t.co/jchUj2qIfL
p959
sVmedia_url_https
p960
Vhttps://pbs.twimg.com/media/B41YK7VCQAA6t2g.png
p961
sVsource_user_id_str
p962
V436652553
p963
sVsource_status_id
p964
I544188076310806528
sVid_str
p965
V544188074729553920
p966
sVsizes
p967
(dp968
Vsmall
p969
(dp970
Vh
p971
I482
sVresize
p972
Vfit
p973
sVw
p974
I340
ssVlarge
p975
(dp976
Vh
p977
I599
sVresize
p978
Vfit
p979
sVw
p980
I422
ssVmedium
p981
(dp982
Vh
p983
I599
sVresize
p984
Vfit
p985
sVw
p986
I422
ssVthumb
p987
(dp988
Vh
p989
I150
sVresize
p990
Vcrop
p991
sVw
p992
I150
sssVindices
p993
(lp994
I111
aI133
asVtype
p995
Vphoto
p996
sVid
p997
I544188074729553920
sVmedia_url
p998
Vhttp://pbs.twimg.com/media/B41YK7VCQAA6t2g.png
p999
sasg75
Nsg76
Nsg77
Nsg78
VSun Dec 14 17:55:02 +0000 2014
p1000
sg80
Nsg81
I00
sg82
Vndtvgoodtimes
p1001
sg84
Nsg85
I38412590
sg86
Nsg87
I00
sg88
Nsg89
(lp1002
g3
(g91
g5
Ntp1003
Rp1004
(dp1005
g10
Nsg95
Nsg96
Nsg97
Nsg98
Nsg99
Nsg78
Nsg100
Nsg101
Nsg102
Nsg103
Nsg104
Nsg105
Nsg106
Nsg107
Nsg108
Nsg109
Nsg110
Nsg111
Nsg112
Nsg113
Nsg114
Nsg115
Vndtvgoodtimes
p1006
sg117
Nsg118
VNDTV Good Times
p1007
sg120
Nsg121
Nsg122
I38412590
sg123
Nsbag3
(g91
g5
Ntp1008
Rp1009
(dp1010
g10
Nsg95
Nsg96
Nsg97
Nsg98
Nsg99
Nsg78
Nsg100
Nsg101
Nsg102
Nsg103
Nsg104
Nsg105
Nsg106
Nsg107
Nsg108
Nsg109
Nsg110
Nsg111
Nsg112
Nsg113
Nsg114
Nsg115
Vlovecolorbar
p1011
sg117
Nsg118
VColorBar Cosmetics
p1012
sg120
Nsg121
Nsg122
I135629397
sg123
Nsbag3
(g91
g5
Ntp1013
Rp1014
(dp1015
g10
Nsg95
Nsg96
Nsg97
Nsg98
Nsg99
Nsg78
Nsg100
Nsg101
Nsg102
Nsg103
Nsg104
Nsg105
Nsg106
Nsg107
Nsg108
Nsg109
Nsg110
Nsg111
Nsg112
Nsg113
Nsg114
Nsg115
VPanasonic_mob
p1016
sg117
Nsg118
VPanasonic Mobiles
p1017
sg120
Nsg121
Nsg122
I2904256754
sg123
Nsbasg134
Nsg135
Nsg136
Nsg137
V@ndtvgoodtimes @lovecolorbar @Panasonic_mob  #KFHunt \u000aA1) limeroad,A2) amrita,A3) Atul Kasbekar, Model- Mehnaz http://t.co/jchUj2qIfL 17
p1018
sg139
I00
sg140
Vet
p1019
sg142
g3
(g91
g5
Ntp1020
Rp1021
(dp1022
g10
VSUper 
p1023
sg95
V663B12
p1024
sg96
Ven
p1025
sg97
VNew Delhi
p1026
sg98
I384
sg99
I103554
sg78
VWed Dec 14 11:54:58 +0000 2011
p1027
sg100
I00
sg101
g151
sg102
Vhttps://pbs.twimg.com/profile_images/378800000665499222/9abcdeb5ede71b2127ae77df46e06ba6_normal.png
p1028
sg103
I756
sg104
I13311
sg105
I19800
sg106
Nsg107
I00
sg108
Vhttps://pbs.twimg.com/profile_banners/436652553/1417338198
p1029
sg109
I00
sg110
I00
sg111
V1F98C7
p1030
sg112
I01
sg113
I00
sg114
Vhttp://abs.twimg.com/images/themes/theme2/bg.gif
p1031
sg115
VRajendra9Prasad
p1032
sg117
I2
sg118
VRajendra9Prasad
p1033
sg120
VDAECF4
p1034
sg121
Nsg122
I436652553
sg123
VC6E2EE
p1035
sbsg160
I0
sg161
V<a href="http://twitter.com" rel="nofollow">Twitter Web Client</a>
p1036
sg163
(lp1037
sg122
I544188830253711360
sbag3
(g4
g5
Ntp1038
Rp1039
(dp1040
g9
I0
sg10
Nsg11
Nsg12
(lp1041
g3
(g14
g5
Ntp1042
Rp1043
(dp1044
g18
VKFHunt
p1045
sbasg20
I00
sg21
Nsg22
Nsg23
(lp1046
(dp1047
Vsource_user_id
p1048
I436652553
sVsource_status_id_str
p1049
V544188076310806528
p1050
sVexpanded_url
p1051
Vhttp://twitter.com/Rajendra9Prasad/status/544188076310806528/photo/1
p1052
sVdisplay_url
p1053
Vpic.twitter.com/jchUj2qIfL
p1054
sVurl
p1055
Vhttp://t.co/jchUj2qIfL
p1056
sVmedia_url_https
p1057
Vhttps://pbs.twimg.com/media/B41YK7VCQAA6t2g.png
p1058
sVsource_user_id_str
p1059
V436652553
p1060
sVsource_status_id
p1061
I544188076310806528
sVid_str
p1062
V544188074729553920
p1063
sVsizes
p1064
(dp1065
Vsmall
p1066
(dp1067
Vh
p1068
I482
sVresize
p1069
Vfit
p1070
sVw
p1071
I340
ssVlarge
p1072
(dp1073
Vh
p1074
I599
sVresize
p1075
Vfit
p1076
sVw
p1077
I422
ssVmedium
p1078
(dp1079
Vh
p1080
I599
sVresize
p1081
Vfit
p1082
sVw
p1083
I422
ssVthumb
p1084
(dp1085
Vh
p1086
I150
sVresize
p1087
Vcrop
p1088
sVw
p1089
I150
sssVindices
p1090
(lp1091
I111
aI133
asVtype
p1092
Vphoto
p1093
sVid
p1094
I544188074729553920
sVmedia_url
p1095
Vhttp://pbs.twimg.com/media/B41YK7VCQAA6t2g.png
p1096
sasg75
Nsg76
Nsg77
Nsg78
VSun Dec 14 17:54:57 +0000 2014
p1097
sg80
Nsg81
I00
sg82
Vndtvgoodtimes
p1098
sg84
Nsg85
I38412590
sg86
Nsg87
I00
sg88
Nsg89
(lp1099
g3
(g91
g5
Ntp1100
Rp1101
(dp1102
g10
Nsg95
Nsg96
Nsg97
Nsg98
Nsg99
Nsg78
Nsg100
Nsg101
Nsg102
Nsg103
Nsg104
Nsg105
Nsg106
Nsg107
Nsg108
Nsg109
Nsg110
Nsg111
Nsg112
Nsg113
Nsg114
Nsg115
Vndtvgoodtimes
p1103
sg117
Nsg118
VNDTV Good Times
p1104
sg120
Nsg121
Nsg122
I38412590
sg123
Nsbag3
(g91
g5
Ntp1105
Rp1106
(dp1107
g10
Nsg95
Nsg96
Nsg97
Nsg98
Nsg99
Nsg78
Nsg100
Nsg101
Nsg102
Nsg103
Nsg104
Nsg105
Nsg106
Nsg107
Nsg108
Nsg109
Nsg110
Nsg111
Nsg112
Nsg113
Nsg114
Nsg115
Vlovecolorbar
p1108
sg117
Nsg118
VColorBar Cosmetics
p1109
sg120
Nsg121
Nsg122
I135629397
sg123
Nsbag3
(g91
g5
Ntp1110
Rp1111
(dp1112
g10
Nsg95
Nsg96
Nsg97
Nsg98
Nsg99
Nsg78
Nsg100
Nsg101
Nsg102
Nsg103
Nsg104
Nsg105
Nsg106
Nsg107
Nsg108
Nsg109
Nsg110
Nsg111
Nsg112
Nsg113
Nsg114
Nsg115
VPanasonic_mob
p1113
sg117
Nsg118
VPanasonic Mobiles
p1114
sg120
Nsg121
Nsg122
I2904256754
sg123
Nsbasg134
Nsg135
Nsg136
Nsg137
V@ndtvgoodtimes @lovecolorbar @Panasonic_mob  #KFHunt \u000aA1) limeroad,A2) amrita,A3) Atul Kasbekar, Model- Mehnaz http://t.co/jchUj2qIfL 16
p1115
sg139
I00
sg140
Vet
p1116
sg142
g3
(g91
g5
Ntp1117
Rp1118
(dp1119
g10
VSUper 
p1120
sg95
V663B12
p1121
sg96
Ven
p1122
sg97
VNew Delhi
p1123
sg98
I384
sg99
I103554
sg78
VWed Dec 14 11:54:58 +0000 2011
p1124
sg100
I00
sg101
g151
sg102
Vhttps://pbs.twimg.com/profile_images/378800000665499222/9abcdeb5ede71b2127ae77df46e06ba6_normal.png
p1125
sg103
I756
sg104
I13311
sg105
I19800
sg106
Nsg107
I00
sg108
Vhttps://pbs.twimg.com/profile_banners/436652553/1417338198
p1126
sg109
I00
sg110
I00
sg111
V1F98C7
p1127
sg112
I01
sg113
I00
sg114
Vhttp://abs.twimg.com/images/themes/theme2/bg.gif
p1128
sg115
VRajendra9Prasad
p1129
sg117
I2
sg118
VRajendra9Prasad
p1130
sg120
VDAECF4
p1131
sg121
Nsg122
I436652553
sg123
VC6E2EE
p1132
sbsg160
I0
sg161
V<a href="http://twitter.com" rel="nofollow">Twitter Web Client</a>
p1133
sg163
(lp1134
sg122
I544188808351076352
sbag3
(g4
g5
Ntp1135
Rp1136
(dp1137
g9
I0
sg10
Nsg11
Nsg12
(lp1138
g3
(g14
g5
Ntp1139
Rp1140
(dp1141
g18
VKFHunt
p1142
sbasg20
I00
sg21
Nsg22
Nsg23
(lp1143
(dp1144
Vsource_user_id
p1145
I436652553
sVsource_status_id_str
p1146
V544188076310806528
p1147
sVexpanded_url
p1148
Vhttp://twitter.com/Rajendra9Prasad/status/544188076310806528/photo/1
p1149
sVdisplay_url
p1150
Vpic.twitter.com/jchUj2qIfL
p1151
sVurl
p1152
Vhttp://t.co/jchUj2qIfL
p1153
sVmedia_url_https
p1154
Vhttps://pbs.twimg.com/media/B41YK7VCQAA6t2g.png
p1155
sVsource_user_id_str
p1156
V436652553
p1157
sVsource_status_id
p1158
I544188076310806528
sVid_str
p1159
V544188074729553920
p1160
sVsizes
p1161
(dp1162
Vsmall
p1163
(dp1164
Vh
p1165
I482
sVresize
p1166
Vfit
p1167
sVw
p1168
I340
ssVlarge
p1169
(dp1170
Vh
p1171
I599
sVresize
p1172
Vfit
p1173
sVw
p1174
I422
ssVmedium
p1175
(dp1176
Vh
p1177
I599
sVresize
p1178
Vfit
p1179
sVw
p1180
I422
ssVthumb
p1181
(dp1182
Vh
p1183
I150
sVresize
p1184
Vcrop
p1185
sVw
p1186
I150
sssVindices
p1187
(lp1188
I111
aI133
asVtype
p1189
Vphoto
p1190
sVid
p1191
I544188074729553920
sVmedia_url
p1192
Vhttp://pbs.twimg.com/media/B41YK7VCQAA6t2g.png
p1193
sasg75
Nsg76
Nsg77
Nsg78
VSun Dec 14 17:54:53 +0000 2014
p1194
sg80
Nsg81
I00
sg82
Vndtvgoodtimes
p1195
sg84
Nsg85
I38412590
sg86
Nsg87
I00
sg88
Nsg89
(lp1196
g3
(g91
g5
Ntp1197
Rp1198
(dp1199
g10
Nsg95
Nsg96
Nsg97
Nsg98
Nsg99
Nsg78
Nsg100
Nsg101
Nsg102
Nsg103
Nsg104
Nsg105
Nsg106
Nsg107
Nsg108
Nsg109
Nsg110
Nsg111
Nsg112
Nsg113
Nsg114
Nsg115
Vndtvgoodtimes
p1200
sg117
Nsg118
VNDTV Good Times
p1201
sg120
Nsg121
Nsg122
I38412590
sg123
Nsbag3
(g91
g5
Ntp1202
Rp1203
(dp1204
g10
Nsg95
Nsg96
Nsg97
Nsg98
Nsg99
Nsg78
Nsg100
Nsg101
Nsg102
Nsg103
Nsg104
Nsg105
Nsg106
Nsg107
Nsg108
Nsg109
Nsg110
Nsg111
Nsg112
Nsg113
Nsg114
Nsg115
Vlovecolorbar
p1205
sg117
Nsg118
VColorBar Cosmetics
p1206
sg120
Nsg121
Nsg122
I135629397
sg123
Nsbag3
(g91
g5
Ntp1207
Rp1208
(dp1209
g10
Nsg95
Nsg96
Nsg97
Nsg98
Nsg99
Nsg78
Nsg100
Nsg101
Nsg102
Nsg103
Nsg104
Nsg105
Nsg106
Nsg107
Nsg108
Nsg109
Nsg110
Nsg111
Nsg112
Nsg113
Nsg114
Nsg115
VPanasonic_mob
p1210
sg117
Nsg118
VPanasonic Mobiles
p1211
sg120
Nsg121
Nsg122
I2904256754
sg123
Nsbasg134
Nsg135
Nsg136
Nsg137
V@ndtvgoodtimes @lovecolorbar @Panasonic_mob  #KFHunt \u000aA1) limeroad,A2) amrita,A3) Atul Kasbekar, Model- Mehnaz http://t.co/jchUj2qIfL 15
p1212
sg139
I00
sg140
Vet
p1213
sg142
g3
(g91
g5
Ntp1214
Rp1215
(dp1216
g10
VSUper 
p1217
sg95
V663B12
p1218
sg96
Ven
p1219
sg97
VNew Delhi
p1220
sg98
I384
sg99
I103554
sg78
VWed Dec 14 11:54:58 +0000 2011
p1221
sg100
I00
sg101
g151
sg102
Vhttps://pbs.twimg.com/profile_images/378800000665499222/9abcdeb5ede71b2127ae77df46e06ba6_normal.png
p1222
sg103
I756
sg104
I13311
sg105
I19800
sg106
Nsg107
I00
sg108
Vhttps://pbs.twimg.com/profile_banners/436652553/1417338198
p1223
sg109
I00
sg110
I00
sg111
V1F98C7
p1224
sg112
I01
sg113
I00
sg114
Vhttp://abs.twimg.com/images/themes/theme2/bg.gif
p1225
sg115
VRajendra9Prasad
p1226
sg117
I2
sg118
VRajendra9Prasad
p1227
sg120
VDAECF4
p1228
sg121
Nsg122
I436652553
sg123
VC6E2EE
p1229
sbsg160
I0
sg161
V<a href="http://twitter.com" rel="nofollow">Twitter Web Client</a>
p1230
sg163
(lp1231
sg122
I544188792232374272
sbag3
(g4
g5
Ntp1232
Rp1233
(dp1234
g9
I0
sg10
Nsg11
Nsg12
(lp1235
g3
(g14
g5
Ntp1236
Rp1237
(dp1238
g18
VKFHunt
p1239
sbasg20
I00
sg21
Nsg22
Nsg23
(lp1240
(dp1241
Vsource_user_id
p1242
I436652553
sVsource_status_id_str
p1243
V544188076310806528
p1244
sVexpanded_url
p1245
Vhttp://twitter.com/Rajendra9Prasad/status/544188076310806528/photo/1
p1246
sVdisplay_url
p1247
Vpic.twitter.com/jchUj2qIfL
p1248
sVurl
p1249
Vhttp://t.co/jchUj2qIfL
p1250
sVmedia_url_https
p1251
Vhttps://pbs.twimg.com/media/B41YK7VCQAA6t2g.png
p1252
sVsource_user_id_str
p1253
V436652553
p1254
sVsource_status_id
p1255
I544188076310806528
sVid_str
p1256
V544188074729553920
p1257
sVsizes
p1258
(dp1259
Vsmall
p1260
(dp1261
Vh
p1262
I482
sVresize
p1263
Vfit
p1264
sVw
p1265
I340
ssVlarge
p1266
(dp1267
Vh
p1268
I599
sVresize
p1269
Vfit
p1270
sVw
p1271
I422
ssVmedium
p1272
(dp1273
Vh
p1274
I599
sVresize
p1275
Vfit
p1276
sVw
p1277
I422
ssVthumb
p1278
(dp1279
Vh
p1280
I150
sVresize
p1281
Vcrop
p1282
sVw
p1283
I150
sssVindices
p1284
(lp1285
I111
aI133
asVtype
p1286
Vphoto
p1287
sVid
p1288
I544188074729553920
sVmedia_url
p1289
Vhttp://pbs.twimg.com/media/B41YK7VCQAA6t2g.png
p1290
sasg75
Nsg76
Nsg77
Nsg78
VSun Dec 14 17:54:48 +0000 2014
p1291
sg80
Nsg81
I00
sg82
Vndtvgoodtimes
p1292
sg84
Nsg85
I38412590
sg86
Nsg87
I00
sg88
Nsg89
(lp1293
g3
(g91
g5
Ntp1294
Rp1295
(dp1296
g10
Nsg95
Nsg96
Nsg97
Nsg98
Nsg99
Nsg78
Nsg100
Nsg101
Nsg102
Nsg103
Nsg104
Nsg105
Nsg106
Nsg107
Nsg108
Nsg109
Nsg110
Nsg111
Nsg112
Nsg113
Nsg114
Nsg115
Vndtvgoodtimes
p1297
sg117
Nsg118
VNDTV Good Times
p1298
sg120
Nsg121
Nsg122
I38412590
sg123
Nsbag3
(g91
g5
Ntp1299
Rp1300
(dp1301
g10
Nsg95
Nsg96
Nsg97
Nsg98
Nsg99
Nsg78
Nsg100
Nsg101
Nsg102
Nsg103
Nsg104
Nsg105
Nsg106
Nsg107
Nsg108
Nsg109
Nsg110
Nsg111
Nsg112
Nsg113
Nsg114
Nsg115
Vlovecolorbar
p1302
sg117
Nsg118
VColorBar Cosmetics
p1303
sg120
Nsg121
Nsg122
I135629397
sg123
Nsbag3
(g91
g5
Ntp1304
Rp1305
(dp1306
g10
Nsg95
Nsg96
Nsg97
Nsg98
Nsg99
Nsg78
Nsg100
Nsg101
Nsg102
Nsg103
Nsg104
Nsg105
Nsg106
Nsg107
Nsg108
Nsg109
Nsg110
Nsg111
Nsg112
Nsg113
Nsg114
Nsg115
VPanasonic_mob
p1307
sg117
Nsg118
VPanasonic Mobiles
p1308
sg120
Nsg121
Nsg122
I2904256754
sg123
Nsbasg134
Nsg135
Nsg136
Nsg137
V@ndtvgoodtimes @lovecolorbar @Panasonic_mob  #KFHunt \u000aA1) limeroad,A2) amrita,A3) Atul Kasbekar, Model- Mehnaz http://t.co/jchUj2qIfL 14
p1309
sg139
I00
sg140
Vet
p1310
sg142
g3
(g91
g5
Ntp1311
Rp1312
(dp1313
g10
VSUper 
p1314
sg95
V663B12
p1315
sg96
Ven
p1316
sg97
VNew Delhi
p1317
sg98
I384
sg99
I103554
sg78
VWed Dec 14 11:54:58 +0000 2011
p1318
sg100
I00
sg101
g151
sg102
Vhttps://pbs.twimg.com/profile_images/378800000665499222/9abcdeb5ede71b2127ae77df46e06ba6_normal.png
p1319
sg103
I756
sg104
I13311
sg105
I19800
sg106
Nsg107
I00
sg108
Vhttps://pbs.twimg.com/profile_banners/436652553/1417338198
p1320
sg109
I00
sg110
I00
sg111
V1F98C7
p1321
sg112
I01
sg113
I00
sg114
Vhttp://abs.twimg.com/images/themes/theme2/bg.gif
p1322
sg115
VRajendra9Prasad
p1323
sg117
I2
sg118
VRajendra9Prasad
p1324
sg120
VDAECF4
p1325
sg121
Nsg122
I436652553
sg123
VC6E2EE
p1326
sbsg160
I0
sg161
V<a href="http://twitter.com" rel="nofollow">Twitter Web Client</a>
p1327
sg163
(lp1328
sg122
I544188771806101504
sbag3
(g4
g5
Ntp1329
Rp1330
(dp1331
g9
I0
sg10
Nsg11
Nsg12
(lp1332
g3
(g14
g5
Ntp1333
Rp1334
(dp1335
g18
VKFHunt
p1336
sbasg20
I00
sg21
Nsg22
Nsg23
(lp1337
(dp1338
Vsource_user_id
p1339
I436652553
sVsource_status_id_str
p1340
V544188076310806528
p1341
sVexpanded_url
p1342
Vhttp://twitter.com/Rajendra9Prasad/status/544188076310806528/photo/1
p1343
sVdisplay_url
p1344
Vpic.twitter.com/jchUj2qIfL
p1345
sVurl
p1346
Vhttp://t.co/jchUj2qIfL
p1347
sVmedia_url_https
p1348
Vhttps://pbs.twimg.com/media/B41YK7VCQAA6t2g.png
p1349
sVsource_user_id_str
p1350
V436652553
p1351
sVsource_status_id
p1352
I544188076310806528
sVid_str
p1353
V544188074729553920
p1354
sVsizes
p1355
(dp1356
Vsmall
p1357
(dp1358
Vh
p1359
I482
sVresize
p1360
Vfit
p1361
sVw
p1362
I340
ssVlarge
p1363
(dp1364
Vh
p1365
I599
sVresize
p1366
Vfit
p1367
sVw
p1368
I422
ssVmedium
p1369
(dp1370
Vh
p1371
I599
sVresize
p1372
Vfit
p1373
sVw
p1374
I422
ssVthumb
p1375
(dp1376
Vh
p1377
I150
sVresize
p1378
Vcrop
p1379
sVw
p1380
I150
sssVindices
p1381
(lp1382
I111
aI133
asVtype
p1383
Vphoto
p1384
sVid
p1385
I544188074729553920
sVmedia_url
p1386
Vhttp://pbs.twimg.com/media/B41YK7VCQAA6t2g.png
p1387
sasg75
Nsg76
Nsg77
Nsg78
VSun Dec 14 17:54:44 +0000 2014
p1388
sg80
Nsg81
I00
sg82
Vndtvgoodtimes
p1389
sg84
Nsg85
I38412590
sg86
Nsg87
I00
sg88
Nsg89
(lp1390
g3
(g91
g5
Ntp1391
Rp1392
(dp1393
g10
Nsg95
Nsg96
Nsg97
Nsg98
Nsg99
Nsg78
Nsg100
Nsg101
Nsg102
Nsg103
Nsg104
Nsg105
Nsg106
Nsg107
Nsg108
Nsg109
Nsg110
Nsg111
Nsg112
Nsg113
Nsg114
Nsg115
Vndtvgoodtimes
p1394
sg117
Nsg118
VNDTV Good Times
p1395
sg120
Nsg121
Nsg122
I38412590
sg123
Nsbag3
(g91
g5
Ntp1396
Rp1397
(dp1398
g10
Nsg95
Nsg96
Nsg97
Nsg98
Nsg99
Nsg78
Nsg100
Nsg101
Nsg102
Nsg103
Nsg104
Nsg105
Nsg106
Nsg107
Nsg108
Nsg109
Nsg110
Nsg111
Nsg112
Nsg113
Nsg114
Nsg115
Vlovecolorbar
p1399
sg117
Nsg118
VColorBar Cosmetics
p1400
sg120
Nsg121
Nsg122
I135629397
sg123
Nsbag3
(g91
g5
Ntp1401
Rp1402
(dp1403
g10
Nsg95
Nsg96
Nsg97
Nsg98
Nsg99
Nsg78
Nsg100
Nsg101
Nsg102
Nsg103
Nsg104
Nsg105
Nsg106
Nsg107
Nsg108
Nsg109
Nsg110
Nsg111
Nsg112
Nsg113
Nsg114
Nsg115
VPanasonic_mob
p1404
sg117
Nsg118
VPanasonic Mobiles
p1405
sg120
Nsg121
Nsg122
I2904256754
sg123
Nsbasg134
Nsg135
Nsg136
Nsg137
V@ndtvgoodtimes @lovecolorbar @Panasonic_mob  #KFHunt \u000aA1) limeroad,A2) amrita,A3) Atul Kasbekar, Model- Mehnaz http://t.co/jchUj2qIfL 12
p1406
sg139
I00
sg140
Vet
p1407
sg142
g3
(g91
g5
Ntp1408
Rp1409
(dp1410
g10
VSUper 
p1411
sg95
V663B12
p1412
sg96
Ven
p1413
sg97
VNew Delhi
p1414
sg98
I384
sg99
I103554
sg78
VWed Dec 14 11:54:58 +0000 2011
p1415
sg100
I00
sg101
g151
sg102
Vhttps://pbs.twimg.com/profile_images/378800000665499222/9abcdeb5ede71b2127ae77df46e06ba6_normal.png
p1416
sg103
I756
sg104
I13311
sg105
I19800
sg106
Nsg107
I00
sg108
Vhttps://pbs.twimg.com/profile_banners/436652553/1417338198
p1417
sg109
I00
sg110
I00
sg111
V1F98C7
p1418
sg112
I01
sg113
I00
sg114
Vhttp://abs.twimg.com/images/themes/theme2/bg.gif
p1419
sg115
VRajendra9Prasad
p1420
sg117
I2
sg118
VRajendra9Prasad
p1421
sg120
VDAECF4
p1422
sg121
Nsg122
I436652553
sg123
VC6E2EE
p1423
sbsg160
I0
sg161
V<a href="http://twitter.com" rel="nofollow">Twitter Web Client</a>
p1424
sg163
(lp1425
sg122
I544188755817410560
sbag3
(g4
g5
Ntp1426
Rp1427
(dp1428
g9
I0
sg10
Nsg11
Nsg12
(lp1429
g3
(g14
g5
Ntp1430
Rp1431
(dp1432
g18
VKFHunt
p1433
sbasg20
I00
sg21
Nsg22
Nsg23
(lp1434
(dp1435
Vsource_user_id
p1436
I436652553
sVsource_status_id_str
p1437
V544188076310806528
p1438
sVexpanded_url
p1439
Vhttp://twitter.com/Rajendra9Prasad/status/544188076310806528/photo/1
p1440
sVdisplay_url
p1441
Vpic.twitter.com/jchUj2qIfL
p1442
sVurl
p1443
Vhttp://t.co/jchUj2qIfL
p1444
sVmedia_url_https
p1445
Vhttps://pbs.twimg.com/media/B41YK7VCQAA6t2g.png
p1446
sVsource_user_id_str
p1447
V436652553
p1448
sVsource_status_id
p1449
I544188076310806528
sVid_str
p1450
V544188074729553920
p1451
sVsizes
p1452
(dp1453
Vsmall
p1454
(dp1455
Vh
p1456
I482
sVresize
p1457
Vfit
p1458
sVw
p1459
I340
ssVlarge
p1460
(dp1461
Vh
p1462
I599
sVresize
p1463
Vfit
p1464
sVw
p1465
I422
ssVmedium
p1466
(dp1467
Vh
p1468
I599
sVresize
p1469
Vfit
p1470
sVw
p1471
I422
ssVthumb
p1472
(dp1473
Vh
p1474
I150
sVresize
p1475
Vcrop
p1476
sVw
p1477
I150
sssVindices
p1478
(lp1479
I111
aI133
asVtype
p1480
Vphoto
p1481
sVid
p1482
I544188074729553920
sVmedia_url
p1483
Vhttp://pbs.twimg.com/media/B41YK7VCQAA6t2g.png
p1484
sasg75
Nsg76
Nsg77
Nsg78
VSun Dec 14 17:53:52 +0000 2014
p1485
sg80
Nsg81
I00
sg82
Vndtvgoodtimes
p1486
sg84
Nsg85
I38412590
sg86
Nsg87
I00
sg88
Nsg89
(lp1487
g3
(g91
g5
Ntp1488
Rp1489
(dp1490
g10
Nsg95
Nsg96
Nsg97
Nsg98
Nsg99
Nsg78
Nsg100
Nsg101
Nsg102
Nsg103
Nsg104
Nsg105
Nsg106
Nsg107
Nsg108
Nsg109
Nsg110
Nsg111
Nsg112
Nsg113
Nsg114
Nsg115
Vndtvgoodtimes
p1491
sg117
Nsg118
VNDTV Good Times
p1492
sg120
Nsg121
Nsg122
I38412590
sg123
Nsbag3
(g91
g5
Ntp1493
Rp1494
(dp1495
g10
Nsg95
Nsg96
Nsg97
Nsg98
Nsg99
Nsg78
Nsg100
Nsg101
Nsg102
Nsg103
Nsg104
Nsg105
Nsg106
Nsg107
Nsg108
Nsg109
Nsg110
Nsg111
Nsg112
Nsg113
Nsg114
Nsg115
Vlovecolorbar
p1496
sg117
Nsg118
VColorBar Cosmetics
p1497
sg120
Nsg121
Nsg122
I135629397
sg123
Nsbag3
(g91
g5
Ntp1498
Rp1499
(dp1500
g10
Nsg95
Nsg96
Nsg97
Nsg98
Nsg99
Nsg78
Nsg100
Nsg101
Nsg102
Nsg103
Nsg104
Nsg105
Nsg106
Nsg107
Nsg108
Nsg109
Nsg110
Nsg111
Nsg112
Nsg113
Nsg114
Nsg115
VPanasonic_mob
p1501
sg117
Nsg118
VPanasonic Mobiles
p1502
sg120
Nsg121
Nsg122
I2904256754
sg123
Nsbasg134
Nsg135
Nsg136
I544182796646760448
sg137
V@ndtvgoodtimes @lovecolorbar @Panasonic_mob  #KFHunt \u000aA1) limeroad,A2) amrita,A3) Atul Kasbekar, Model- Mehnaz http://t.co/jchUj2qIfL 11
p1503
sg139
I00
sg140
Vet
p1504
sg142
g3
(g91
g5
Ntp1505
Rp1506
(dp1507
g10
VSUper 
p1508
sg95
V663B12
p1509
sg96
Ven
p1510
sg97
VNew Delhi
p1511
sg98
I384
sg99
I103554
sg78
VWed Dec 14 11:54:58 +0000 2011
p1512
sg100
I00
sg101
g151
sg102
Vhttps://pbs.twimg.com/profile_images/378800000665499222/9abcdeb5ede71b2127ae77df46e06ba6_normal.png
p1513
sg103
I756
sg104
I13311
sg105
I19800
sg106
Nsg107
I00
sg108
Vhttps://pbs.twimg.com/profile_banners/436652553/1417338198
p1514
sg109
I00
sg110
I00
sg111
V1F98C7
p1515
sg112
I01
sg113
I00
sg114
Vhttp://abs.twimg.com/images/themes/theme2/bg.gif
p1516
sg115
VRajendra9Prasad
p1517
sg117
I2
sg118
VRajendra9Prasad
p1518
sg120
VDAECF4
p1519
sg121
Nsg122
I436652553
sg123
VC6E2EE
p1520
sbsg160
I0
sg161
V<a href="http://twitter.com" rel="nofollow">Twitter Web Client</a>
p1521
sg163
(lp1522
sg122
I544188535314468865
sbag3
(g4
g5
Ntp1523
Rp1524
(dp1525
g9
I0
sg10
Nsg11
Nsg12
(lp1526
g3
(g14
g5
Ntp1527
Rp1528
(dp1529
g18
VKFHunt
p1530
sbasg20
I00
sg21
Nsg22
Nsg23
(lp1531
(dp1532
Vsource_user_id
p1533
I436652553
sVsource_status_id_str
p1534
V544188076310806528
p1535
sVexpanded_url
p1536
Vhttp://twitter.com/Rajendra9Prasad/status/544188076310806528/photo/1
p1537
sVdisplay_url
p1538
Vpic.twitter.com/jchUj2qIfL
p1539
sVurl
p1540
Vhttp://t.co/jchUj2qIfL
p1541
sVmedia_url_https
p1542
Vhttps://pbs.twimg.com/media/B41YK7VCQAA6t2g.png
p1543
sVsource_user_id_str
p1544
V436652553
p1545
sVsource_status_id
p1546
I544188076310806528
sVid_str
p1547
V544188074729553920
p1548
sVsizes
p1549
(dp1550
Vsmall
p1551
(dp1552
Vh
p1553
I482
sVresize
p1554
Vfit
p1555
sVw
p1556
I340
ssVlarge
p1557
(dp1558
Vh
p1559
I599
sVresize
p1560
Vfit
p1561
sVw
p1562
I422
ssVmedium
p1563
(dp1564
Vh
p1565
I599
sVresize
p1566
Vfit
p1567
sVw
p1568
I422
ssVthumb
p1569
(dp1570
Vh
p1571
I150
sVresize
p1572
Vcrop
p1573
sVw
p1574
I150
sssVindices
p1575
(lp1576
I111
aI133
asVtype
p1577
Vphoto
p1578
sVid
p1579
I544188074729553920
sVmedia_url
p1580
Vhttp://pbs.twimg.com/media/B41YK7VCQAA6t2g.png
p1581
sasg75
Nsg76
Nsg77
Nsg78
VSun Dec 14 17:53:40 +0000 2014
p1582
sg80
Nsg81
I00
sg82
Vndtvgoodtimes
p1583
sg84
Nsg85
I38412590
sg86
Nsg87
I00
sg88
Nsg89
(lp1584
g3
(g91
g5
Ntp1585
Rp1586
(dp1587
g10
Nsg95
Nsg96
Nsg97
Nsg98
Nsg99
Nsg78
Nsg100
Nsg101
Nsg102
Nsg103
Nsg104
Nsg105
Nsg106
Nsg107
Nsg108
Nsg109
Nsg110
Nsg111
Nsg112
Nsg113
Nsg114
Nsg115
Vndtvgoodtimes
p1588
sg117
Nsg118
VNDTV Good Times
p1589
sg120
Nsg121
Nsg122
I38412590
sg123
Nsbag3
(g91
g5
Ntp1590
Rp1591
(dp1592
g10
Nsg95
Nsg96
Nsg97
Nsg98
Nsg99
Nsg78
Nsg100
Nsg101
Nsg102
Nsg103
Nsg104
Nsg105
Nsg106
Nsg107
Nsg108
Nsg109
Nsg110
Nsg111
Nsg112
Nsg113
Nsg114
Nsg115
Vlovecolorbar
p1593
sg117
Nsg118
VColorBar Cosmetics
p1594
sg120
Nsg121
Nsg122
I135629397
sg123
Nsbag3
(g91
g5
Ntp1595
Rp1596
(dp1597
g10
Nsg95
Nsg96
Nsg97
Nsg98
Nsg99
Nsg78
Nsg100
Nsg101
Nsg102
Nsg103
Nsg104
Nsg105
Nsg106
Nsg107
Nsg108
Nsg109
Nsg110
Nsg111
Nsg112
Nsg113
Nsg114
Nsg115
VPanasonic_mob
p1598
sg117
Nsg118
VPanasonic Mobiles
p1599
sg120
Nsg121
Nsg122
I2904256754
sg123
Nsbasg134
Nsg135
Nsg136
I544182796646760448
sg137
V@ndtvgoodtimes @lovecolorbar @Panasonic_mob  #KFHunt \u000aA1) limeroad,A2) amrita,A3) Atul Kasbekar, Model- Mehnaz http://t.co/jchUj2qIfL 10
p1600
sg139
I00
sg140
Vet
p1601
sg142
g3
(g91
g5
Ntp1602
Rp1603
(dp1604
g10
VSUper 
p1605
sg95
V663B12
p1606
sg96
Ven
p1607
sg97
VNew Delhi
p1608
sg98
I384
sg99
I103554
sg78
VWed Dec 14 11:54:58 +0000 2011
p1609
sg100
I00
sg101
g151
sg102
Vhttps://pbs.twimg.com/profile_images/378800000665499222/9abcdeb5ede71b2127ae77df46e06ba6_normal.png
p1610
sg103
I756
sg104
I13311
sg105
I19800
sg106
Nsg107
I00
sg108
Vhttps://pbs.twimg.com/profile_banners/436652553/1417338198
p1611
sg109
I00
sg110
I00
sg111
V1F98C7
p1612
sg112
I01
sg113
I00
sg114
Vhttp://abs.twimg.com/images/themes/theme2/bg.gif
p1613
sg115
VRajendra9Prasad
p1614
sg117
I2
sg118
VRajendra9Prasad
p1615
sg120
VDAECF4
p1616
sg121
Nsg122
I436652553
sg123
VC6E2EE
p1617
sbsg160
I0
sg161
V<a href="http://twitter.com" rel="nofollow">Twitter Web Client</a>
p1618
sg163
(lp1619
sg122
I544188488799641600
sbag3
(g4
g5
Ntp1620
Rp1621
(dp1622
g9
I0
sg10
Nsg11
Nsg12
(lp1623
g3
(g14
g5
Ntp1624
Rp1625
(dp1626
g18
VKFHunt
p1627
sbasg20
I00
sg21
Nsg22
Nsg23
(lp1628
(dp1629
Vsource_user_id
p1630
I436652553
sVsource_status_id_str
p1631
V544188076310806528
p1632
sVexpanded_url
p1633
Vhttp://twitter.com/Rajendra9Prasad/status/544188076310806528/photo/1
p1634
sVdisplay_url
p1635
Vpic.twitter.com/jchUj2qIfL
p1636
sVurl
p1637
Vhttp://t.co/jchUj2qIfL
p1638
sVmedia_url_https
p1639
Vhttps://pbs.twimg.com/media/B41YK7VCQAA6t2g.png
p1640
sVsource_user_id_str
p1641
V436652553
p1642
sVsource_status_id
p1643
I544188076310806528
sVid_str
p1644
V544188074729553920
p1645
sVsizes
p1646
(dp1647
Vsmall
p1648
(dp1649
Vh
p1650
I482
sVresize
p1651
Vfit
p1652
sVw
p1653
I340
ssVlarge
p1654
(dp1655
Vh
p1656
I599
sVresize
p1657
Vfit
p1658
sVw
p1659
I422
ssVmedium
p1660
(dp1661
Vh
p1662
I599
sVresize
p1663
Vfit
p1664
sVw
p1665
I422
ssVthumb
p1666
(dp1667
Vh
p1668
I150
sVresize
p1669
Vcrop
p1670
sVw
p1671
I150
sssVindices
p1672
(lp1673
I111
aI133
asVtype
p1674
Vphoto
p1675
sVid
p1676
I544188074729553920
sVmedia_url
p1677
Vhttp://pbs.twimg.com/media/B41YK7VCQAA6t2g.png
p1678
sasg75
Nsg76
Nsg77
Nsg78
VSun Dec 14 17:53:35 +0000 2014
p1679
sg80
Nsg81
I00
sg82
Vndtvgoodtimes
p1680
sg84
Nsg85
I38412590
sg86
Nsg87
I00
sg88
Nsg89
(lp1681
g3
(g91
g5
Ntp1682
Rp1683
(dp1684
g10
Nsg95
Nsg96
Nsg97
Nsg98
Nsg99
Nsg78
Nsg100
Nsg101
Nsg102
Nsg103
Nsg104
Nsg105
Nsg106
Nsg107
Nsg108
Nsg109
Nsg110
Nsg111
Nsg112
Nsg113
Nsg114
Nsg115
Vndtvgoodtimes
p1685
sg117
Nsg118
VNDTV Good Times
p1686
sg120
Nsg121
Nsg122
I38412590
sg123
Nsbag3
(g91
g5
Ntp1687
Rp1688
(dp1689
g10
Nsg95
Nsg96
Nsg97
Nsg98
Nsg99
Nsg78
Nsg100
Nsg101
Nsg102
Nsg103
Nsg104
Nsg105
Nsg106
Nsg107
Nsg108
Nsg109
Nsg110
Nsg111
Nsg112
Nsg113
Nsg114
Nsg115
Vlovecolorbar
p1690
sg117
Nsg118
VColorBar Cosmetics
p1691
sg120
Nsg121
Nsg122
I135629397
sg123
Nsbag3
(g91
g5
Ntp1692
Rp1693
(dp1694
g10
Nsg95
Nsg96
Nsg97
Nsg98
Nsg99
Nsg78
Nsg100
Nsg101
Nsg102
Nsg103
Nsg104
Nsg105
Nsg106
Nsg107
Nsg108
Nsg109
Nsg110
Nsg111
Nsg112
Nsg113
Nsg114
Nsg115
VPanasonic_mob
p1695
sg117
Nsg118
VPanasonic Mobiles
p1696
sg120
Nsg121
Nsg122
I2904256754
sg123
Nsbasg134
Nsg135
Nsg136
I544182796646760448
sg137
V@ndtvgoodtimes @lovecolorbar @Panasonic_mob  #KFHunt \u000aA1) limeroad,A2) amrita,A3) Atul Kasbekar, Model- Mehnaz http://t.co/jchUj2qIfL 9
p1697
sg139
I00
sg140
Vet
p1698
sg142
g3
(g91
g5
Ntp1699
Rp1700
(dp1701
g10
VSUper 
p1702
sg95
V663B12
p1703
sg96
Ven
p1704
sg97
VNew Delhi
p1705
sg98
I384
sg99
I103554
sg78
VWed Dec 14 11:54:58 +0000 2011
p1706
sg100
I00
sg101
g151
sg102
Vhttps://pbs.twimg.com/profile_images/378800000665499222/9abcdeb5ede71b2127ae77df46e06ba6_normal.png
p1707
sg103
I756
sg104
I13311
sg105
I19800
sg106
Nsg107
I00
sg108
Vhttps://pbs.twimg.com/profile_banners/436652553/1417338198
p1708
sg109
I00
sg110
I00
sg111
V1F98C7
p1709
sg112
I01
sg113
I00
sg114
Vhttp://abs.twimg.com/images/themes/theme2/bg.gif
p1710
sg115
VRajendra9Prasad
p1711
sg117
I2
sg118
VRajendra9Prasad
p1712
sg120
VDAECF4
p1713
sg121
Nsg122
I436652553
sg123
VC6E2EE
p1714
sbsg160
I0
sg161
V<a href="http://twitter.com" rel="nofollow">Twitter Web Client</a>
p1715
sg163
(lp1716
sg122
I544188464288104448
sbag3
(g4
g5
Ntp1717
Rp1718
(dp1719
g9
I0
sg10
Nsg11
Nsg12
(lp1720
g3
(g14
g5
Ntp1721
Rp1722
(dp1723
g18
VKFHunt
p1724
sbasg20
I00
sg21
Nsg22
Nsg23
(lp1725
(dp1726
Vsource_user_id
p1727
I436652553
sVsource_status_id_str
p1728
V544188076310806528
p1729
sVexpanded_url
p1730
Vhttp://twitter.com/Rajendra9Prasad/status/544188076310806528/photo/1
p1731
sVdisplay_url
p1732
Vpic.twitter.com/jchUj2qIfL
p1733
sVurl
p1734
Vhttp://t.co/jchUj2qIfL
p1735
sVmedia_url_https
p1736
Vhttps://pbs.twimg.com/media/B41YK7VCQAA6t2g.png
p1737
sVsource_user_id_str
p1738
V436652553
p1739
sVsource_status_id
p1740
I544188076310806528
sVid_str
p1741
V544188074729553920
p1742
sVsizes
p1743
(dp1744
Vsmall
p1745
(dp1746
Vh
p1747
I482
sVresize
p1748
Vfit
p1749
sVw
p1750
I340
ssVlarge
p1751
(dp1752
Vh
p1753
I599
sVresize
p1754
Vfit
p1755
sVw
p1756
I422
ssVmedium
p1757
(dp1758
Vh
p1759
I599
sVresize
p1760
Vfit
p1761
sVw
p1762
I422
ssVthumb
p1763
(dp1764
Vh
p1765
I150
sVresize
p1766
Vcrop
p1767
sVw
p1768
I150
sssVindices
p1769
(lp1770
I111
aI133
asVtype
p1771
Vphoto
p1772
sVid
p1773
I544188074729553920
sVmedia_url
p1774
Vhttp://pbs.twimg.com/media/B41YK7VCQAA6t2g.png
p1775
sasg75
Nsg76
Nsg77
Nsg78
VSun Dec 14 17:53:31 +0000 2014
p1776
sg80
Nsg81
I00
sg82
Vndtvgoodtimes
p1777
sg84
Nsg85
I38412590
sg86
Nsg87
I00
sg88
Nsg89
(lp1778
g3
(g91
g5
Ntp1779
Rp1780
(dp1781
g10
Nsg95
Nsg96
Nsg97
Nsg98
Nsg99
Nsg78
Nsg100
Nsg101
Nsg102
Nsg103
Nsg104
Nsg105
Nsg106
Nsg107
Nsg108
Nsg109
Nsg110
Nsg111
Nsg112
Nsg113
Nsg114
Nsg115
Vndtvgoodtimes
p1782
sg117
Nsg118
VNDTV Good Times
p1783
sg120
Nsg121
Nsg122
I38412590
sg123
Nsbag3
(g91
g5
Ntp1784
Rp1785
(dp1786
g10
Nsg95
Nsg96
Nsg97
Nsg98
Nsg99
Nsg78
Nsg100
Nsg101
Nsg102
Nsg103
Nsg104
Nsg105
Nsg106
Nsg107
Nsg108
Nsg109
Nsg110
Nsg111
Nsg112
Nsg113
Nsg114
Nsg115
Vlovecolorbar
p1787
sg117
Nsg118
VColorBar Cosmetics
p1788
sg120
Nsg121
Nsg122
I135629397
sg123
Nsbag3
(g91
g5
Ntp1789
Rp1790
(dp1791
g10
Nsg95
Nsg96
Nsg97
Nsg98
Nsg99
Nsg78
Nsg100
Nsg101
Nsg102
Nsg103
Nsg104
Nsg105
Nsg106
Nsg107
Nsg108
Nsg109
Nsg110
Nsg111
Nsg112
Nsg113
Nsg114
Nsg115
VPanasonic_mob
p1792
sg117
Nsg118
VPanasonic Mobiles
p1793
sg120
Nsg121
Nsg122
I2904256754
sg123
Nsbasg134
Nsg135
Nsg136
I544182796646760448
sg137
V@ndtvgoodtimes @lovecolorbar @Panasonic_mob  #KFHunt \u000aA1) limeroad,A2) amrita,A3) Atul Kasbekar, Model- Mehnaz http://t.co/jchUj2qIfL 8
p1794
sg139
I00
sg140
Vet
p1795
sg142
g3
(g91
g5
Ntp1796
Rp1797
(dp1798
g10
VSUper 
p1799
sg95
V663B12
p1800
sg96
Ven
p1801
sg97
VNew Delhi
p1802
sg98
I384
sg99
I103554
sg78
VWed Dec 14 11:54:58 +0000 2011
p1803
sg100
I00
sg101
g151
sg102
Vhttps://pbs.twimg.com/profile_images/378800000665499222/9abcdeb5ede71b2127ae77df46e06ba6_normal.png
p1804
sg103
I756
sg104
I13311
sg105
I19800
sg106
Nsg107
I00
sg108
Vhttps://pbs.twimg.com/profile_banners/436652553/1417338198
p1805
sg109
I00
sg110
I00
sg111
V1F98C7
p1806
sg112
I01
sg113
I00
sg114
Vhttp://abs.twimg.com/images/themes/theme2/bg.gif
p1807
sg115
VRajendra9Prasad
p1808
sg117
I2
sg118
VRajendra9Prasad
p1809
sg120
VDAECF4
p1810
sg121
Nsg122
I436652553
sg123
VC6E2EE
p1811
sbsg160
I0
sg161
V<a href="http://twitter.com" rel="nofollow">Twitter Web Client</a>
p1812
sg163
(lp1813
sg122
I544188450715344898
sbag3
(g4
g5
Ntp1814
Rp1815
(dp1816
g9
I0
sg10
Nsg11
Nsg12
(lp1817
g3
(g14
g5
Ntp1818
Rp1819
(dp1820
g18
VKFHunt
p1821
sbasg20
I00
sg21
Nsg22
Nsg23
(lp1822
(dp1823
Vsource_user_id
p1824
I436652553
sVsource_status_id_str
p1825
V544188076310806528
p1826
sVexpanded_url
p1827
Vhttp://twitter.com/Rajendra9Prasad/status/544188076310806528/photo/1
p1828
sVdisplay_url
p1829
Vpic.twitter.com/jchUj2qIfL
p1830
sVurl
p1831
Vhttp://t.co/jchUj2qIfL
p1832
sVmedia_url_https
p1833
Vhttps://pbs.twimg.com/media/B41YK7VCQAA6t2g.png
p1834
sVsource_user_id_str
p1835
V436652553
p1836
sVsource_status_id
p1837
I544188076310806528
sVid_str
p1838
V544188074729553920
p1839
sVsizes
p1840
(dp1841
Vsmall
p1842
(dp1843
Vh
p1844
I482
sVresize
p1845
Vfit
p1846
sVw
p1847
I340
ssVlarge
p1848
(dp1849
Vh
p1850
I599
sVresize
p1851
Vfit
p1852
sVw
p1853
I422
ssVmedium
p1854
(dp1855
Vh
p1856
I599
sVresize
p1857
Vfit
p1858
sVw
p1859
I422
ssVthumb
p1860
(dp1861
Vh
p1862
I150
sVresize
p1863
Vcrop
p1864
sVw
p1865
I150
sssVindices
p1866
(lp1867
I111
aI133
asVtype
p1868
Vphoto
p1869
sVid
p1870
I544188074729553920
sVmedia_url
p1871
Vhttp://pbs.twimg.com/media/B41YK7VCQAA6t2g.png
p1872
sasg75
Nsg76
Nsg77
Nsg78
VSun Dec 14 17:53:28 +0000 2014
p1873
sg80
Nsg81
I00
sg82
Vndtvgoodtimes
p1874
sg84
Nsg85
I38412590
sg86
Nsg87
I00
sg88
Nsg89
(lp1875
g3
(g91
g5
Ntp1876
Rp1877
(dp1878
g10
Nsg95
Nsg96
Nsg97
Nsg98
Nsg99
Nsg78
Nsg100
Nsg101
Nsg102
Nsg103
Nsg104
Nsg105
Nsg106
Nsg107
Nsg108
Nsg109
Nsg110
Nsg111
Nsg112
Nsg113
Nsg114
Nsg115
Vndtvgoodtimes
p1879
sg117
Nsg118
VNDTV Good Times
p1880
sg120
Nsg121
Nsg122
I38412590
sg123
Nsbag3
(g91
g5
Ntp1881
Rp1882
(dp1883
g10
Nsg95
Nsg96
Nsg97
Nsg98
Nsg99
Nsg78
Nsg100
Nsg101
Nsg102
Nsg103
Nsg104
Nsg105
Nsg106
Nsg107
Nsg108
Nsg109
Nsg110
Nsg111
Nsg112
Nsg113
Nsg114
Nsg115
Vlovecolorbar
p1884
sg117
Nsg118
VColorBar Cosmetics
p1885
sg120
Nsg121
Nsg122
I135629397
sg123
Nsbag3
(g91
g5
Ntp1886
Rp1887
(dp1888
g10
Nsg95
Nsg96
Nsg97
Nsg98
Nsg99
Nsg78
Nsg100
Nsg101
Nsg102
Nsg103
Nsg104
Nsg105
Nsg106
Nsg107
Nsg108
Nsg109
Nsg110
Nsg111
Nsg112
Nsg113
Nsg114
Nsg115
VPanasonic_mob
p1889
sg117
Nsg118
VPanasonic Mobiles
p1890
sg120
Nsg121
Nsg122
I2904256754
sg123
Nsbasg134
Nsg135
Nsg136
I544182796646760448
sg137
V@ndtvgoodtimes @lovecolorbar @Panasonic_mob  #KFHunt \u000aA1) limeroad,A2) amrita,A3) Atul Kasbekar, Model- Mehnaz http://t.co/jchUj2qIfL 7
p1891
sg139
I00
sg140
Vet
p1892
sg142
g3
(g91
g5
Ntp1893
Rp1894
(dp1895
g10
VSUper 
p1896
sg95
V663B12
p1897
sg96
Ven
p1898
sg97
VNew Delhi
p1899
sg98
I384
sg99
I103554
sg78
VWed Dec 14 11:54:58 +0000 2011
p1900
sg100
I00
sg101
g151
sg102
Vhttps://pbs.twimg.com/profile_images/378800000665499222/9abcdeb5ede71b2127ae77df46e06ba6_normal.png
p1901
sg103
I756
sg104
I13311
sg105
I19800
sg106
Nsg107
I00
sg108
Vhttps://pbs.twimg.com/profile_banners/436652553/1417338198
p1902
sg109
I00
sg110
I00
sg111
V1F98C7
p1903
sg112
I01
sg113
I00
sg114
Vhttp://abs.twimg.com/images/themes/theme2/bg.gif
p1904
sg115
VRajendra9Prasad
p1905
sg117
I2
sg118
VRajendra9Prasad
p1906
sg120
VDAECF4
p1907
sg121
Nsg122
I436652553
sg123
VC6E2EE
p1908
sbsg160
I0
sg161
V<a href="http://twitter.com" rel="nofollow">Twitter Web Client</a>
p1909
sg163
(lp1910
sg122
I544188437008355328
sbag3
(g4
g5
Ntp1911
Rp1912
(dp1913
g9
I0
sg10
Nsg11
Nsg12
(lp1914
g3
(g14
g5
Ntp1915
Rp1916
(dp1917
g18
VKFHunt
p1918
sbasg20
I00
sg21
Nsg22
Nsg23
(lp1919
(dp1920
Vsource_user_id
p1921
I436652553
sVsource_status_id_str
p1922
V544188076310806528
p1923
sVexpanded_url
p1924
Vhttp://twitter.com/Rajendra9Prasad/status/544188076310806528/photo/1
p1925
sVdisplay_url
p1926
Vpic.twitter.com/jchUj2qIfL
p1927
sVurl
p1928
Vhttp://t.co/jchUj2qIfL
p1929
sVmedia_url_https
p1930
Vhttps://pbs.twimg.com/media/B41YK7VCQAA6t2g.png
p1931
sVsource_user_id_str
p1932
V436652553
p1933
sVsource_status_id
p1934
I544188076310806528
sVid_str
p1935
V544188074729553920
p1936
sVsizes
p1937
(dp1938
Vsmall
p1939
(dp1940
Vh
p1941
I482
sVresize
p1942
Vfit
p1943
sVw
p1944
I340
ssVlarge
p1945
(dp1946
Vh
p1947
I599
sVresize
p1948
Vfit
p1949
sVw
p1950
I422
ssVmedium
p1951
(dp1952
Vh
p1953
I599
sVresize
p1954
Vfit
p1955
sVw
p1956
I422
ssVthumb
p1957
(dp1958
Vh
p1959
I150
sVresize
p1960
Vcrop
p1961
sVw
p1962
I150
sssVindices
p1963
(lp1964
I111
aI133
asVtype
p1965
Vphoto
p1966
sVid
p1967
I544188074729553920
sVmedia_url
p1968
Vhttp://pbs.twimg.com/media/B41YK7VCQAA6t2g.png
p1969
sasg75
Nsg76
Nsg77
Nsg78
VSun Dec 14 17:53:24 +0000 2014
p1970
sg80
Nsg81
I00
sg82
Vndtvgoodtimes
p1971
sg84
Nsg85
I38412590
sg86
Nsg87
I00
sg88
Nsg89
(lp1972
g3
(g91
g5
Ntp1973
Rp1974
(dp1975
g10
Nsg95
Nsg96
Nsg97
Nsg98
Nsg99
Nsg78
Nsg100
Nsg101
Nsg102
Nsg103
Nsg104
Nsg105
Nsg106
Nsg107
Nsg108
Nsg109
Nsg110
Nsg111
Nsg112
Nsg113
Nsg114
Nsg115
Vndtvgoodtimes
p1976
sg117
Nsg118
VNDTV Good Times
p1977
sg120
Nsg121
Nsg122
I38412590
sg123
Nsbag3
(g91
g5
Ntp1978
Rp1979
(dp1980
g10
Nsg95
Nsg96
Nsg97
Nsg98
Nsg99
Nsg78
Nsg100
Nsg101
Nsg102
Nsg103
Nsg104
Nsg105
Nsg106
Nsg107
Nsg108
Nsg109
Nsg110
Nsg111
Nsg112
Nsg113
Nsg114
Nsg115
Vlovecolorbar
p1981
sg117
Nsg118
VColorBar Cosmetics
p1982
sg120
Nsg121
Nsg122
I135629397
sg123
Nsbag3
(g91
g5
Ntp1983
Rp1984
(dp1985
g10
Nsg95
Nsg96
Nsg97
Nsg98
Nsg99
Nsg78
Nsg100
Nsg101
Nsg102
Nsg103
Nsg104
Nsg105
Nsg106
Nsg107
Nsg108
Nsg109
Nsg110
Nsg111
Nsg112
Nsg113
Nsg114
Nsg115
VPanasonic_mob
p1986
sg117
Nsg118
VPanasonic Mobiles
p1987
sg120
Nsg121
Nsg122
I2904256754
sg123
Nsbasg134
Nsg135
Nsg136
I544182796646760448
sg137
V@ndtvgoodtimes @lovecolorbar @Panasonic_mob  #KFHunt \u000aA1) limeroad,A2) amrita,A3) Atul Kasbekar, Model- Mehnaz http://t.co/jchUj2qIfL 6
p1988
sg139
I00
sg140
Vet
p1989
sg142
g3
(g91
g5
Ntp1990
Rp1991
(dp1992
g10
VSUper 
p1993
sg95
V663B12
p1994
sg96
Ven
p1995
sg97
VNew Delhi
p1996
sg98
I384
sg99
I103554
sg78
VWed Dec 14 11:54:58 +0000 2011
p1997
sg100
I00
sg101
g151
sg102
Vhttps://pbs.twimg.com/profile_images/378800000665499222/9abcdeb5ede71b2127ae77df46e06ba6_normal.png
p1998
sg103
I756
sg104
I13311
sg105
I19800
sg106
Nsg107
I00
sg108
Vhttps://pbs.twimg.com/profile_banners/436652553/1417338198
p1999
sg109
I00
sg110
I00
sg111
V1F98C7
p2000
sg112
I01
sg113
I00
sg114
Vhttp://abs.twimg.com/images/themes/theme2/bg.gif
p2001
sg115
VRajendra9Prasad
p2002
sg117
I2
sg118
VRajendra9Prasad
p2003
sg120
VDAECF4
p2004
sg121
Nsg122
I436652553
sg123
VC6E2EE
p2005
sbsg160
I0
sg161
V<a href="http://twitter.com" rel="nofollow">Twitter Web Client</a>
p2006
sg163
(lp2007
sg122
I544188420315045888
sbaa.