(lp0
S'iAmJanuaryJai\n'
p1
a(lp2
ccopy_reg
_reconstructor
p3
(ctwitter
Status
p4
c__builtin__
object
p5
Ntp6
Rp7
(dp8
S'_favorite_count'
p9
I2
sS'_location'
p10
NsS'_withheld_scope'
p11
NsS'hashtags'
p12
(lp13
g3
(ctwitter
Hashtag
p14
g5
Ntp15
Rp16
(dp17
S'text'
p18
Vpatientlywaiting
p19
sbasS'_truncated'
p20
I00
sS'_retweeted_status'
p21
NsS'_withheld_copyright'
p22
NsS'media'
p23
(lp24
sS'_place'
p25
NsS'_contributors'
p26
NsS'_current_user_retweet'
p27
NsS'_created_at'
p28
VSun Dec 14 14:43:54 +0000 2014
p29
sS'_scopes'
p30
NsS'_possibly_sensitive'
p31
NsS'_in_reply_to_screen_name'
p32
NsS'_coordinates'
p33
NsS'_in_reply_to_user_id'
p34
NsS'_geo'
p35
NsS'_favorited'
p36
I00
sS'_withheld_in_countries'
p37
NsS'user_mentions'
p38
(lp39
sS'_now'
p40
NsS'_id_str'
p41
V544140732333031424
p42
sS'_in_reply_to_status_id'
p43
NsS'_text'
p44
VIf there is one thing Washingtonians know how to do in glorious fashion, it's brunch baby! #patientlywaiting
p45
sS'_retweeted'
p46
I00
sS'lang'
p47
Ven
p48
sS'_user'
p49
g3
(ctwitter
User
p50
g5
Ntp51
Rp52
(dp53
g10
VDC \u2708\ufe0f TX
p54
sS'_profile_text_color'
p55
V333333
p56
sS'_lang'
p57
Ven
p58
sS'_time_zone'
p59
VEastern Time (US & Canada)
p60
sS'_followers_count'
p61
I554
sS'_statuses_count'
p62
I1887
sg28
VTue Nov 20 22:15:05 +0000 2012
p63
sS'_verified'
p64
I00
sS'_description'
p65
VAsst.Editor @GirlMeetsFood: Writer @JKnowsGoodFood @DCIndustree: Freelance Photographer: Wanderlust: Live music/concert junkie. Life is an adventure.
p66
sS'_profile_image_url'
p67
Vhttps://pbs.twimg.com/profile_images/532216169621504000/nL-GFTK1_normal.jpeg
p68
sS'_friends_count'
p69
I834
sS'_favourites_count'
p70
I458
sS'_utc_offset'
p71
I-18000
sS'_status'
p72
NsS'_protected'
p73
I00
sS'_profile_banner_url'
p74
Vhttps://pbs.twimg.com/profile_banners/961301256/1415725083
p75
sS'_notifications'
p76
I00
sS'_profile_background_tile'
p77
I01
sS'_profile_link_color'
p78
V050505
p79
sS'_geo_enabled'
p80
I00
sS'_contributors_enabled'
p81
I00
sS'_profile_background_image_url'
p82
Vhttp://pbs.twimg.com/profile_background_images/519698230615887872/YKZAFSJS.jpeg
p83
sS'_screen_name'
p84
ViAmJanuaryJai
p85
sS'_listed_count'
p86
I17
sS'_name'
p87
VJai
p88
sS'_profile_sidebar_fill_color'
p89
VDDEEF6
p90
sS'_url'
p91
NsS'_id'
p92
I961301256
sS'_profile_background_color'
p93
VC0DEED
p94
sbsS'_retweet_count'
p95
I0
sS'_source'
p96
V<a href="http://twitter.com/download/iphone" rel="nofollow">Twitter for iPhone</a>
p97
sS'urls'
p98
(lp99
sg92
I544140732333031424
sbag3
(g4
g5
Ntp100
Rp101
(dp102
g9
I1
sg10
Nsg11
Nsg12
(lp103
sg20
I00
sg21
Nsg22
Nsg23
(lp104
sg25
Nsg26
Nsg27
Nsg28
VThu Dec 11 12:21:42 +0000 2014
p105
sg30
Nsg31
Nsg32
Nsg33
Nsg34
Nsg35
Nsg36
I00
sg37
Nsg38
(lp106
sg40
Nsg41
V543017781021925376
p107
sg43
Nsg44
VBundle up
p108
sg46
I00
sg47
Ven
p109
sg49
g3
(g50
g5
Ntp110
Rp111
(dp112
g10
VDC \u2708\ufe0f TX
p113
sg55
V333333
p114
sg57
Ven
p115
sg59
VEastern Time (US & Canada)
p116
sg61
I554
sg62
I1887
sg28
VTue Nov 20 22:15:05 +0000 2012
p117
sg64
I00
sg65
VAsst.Editor @GirlMeetsFood: Writer @JKnowsGoodFood @DCIndustree: Freelance Photographer: Wanderlust: Live music/concert junkie. Life is an adventure.
p118
sg67
Vhttps://pbs.twimg.com/profile_images/532216169621504000/nL-GFTK1_normal.jpeg
p119
sg69
I834
sg70
I458
sg71
I-18000
sg72
Nsg73
I00
sg74
Vhttps://pbs.twimg.com/profile_banners/961301256/1415725083
p120
sg76
I00
sg77
I01
sg78
V050505
p121
sg80
I00
sg81
I00
sg82
Vhttp://pbs.twimg.com/profile_background_images/519698230615887872/YKZAFSJS.jpeg
p122
sg84
ViAmJanuaryJai
p123
sg86
I17
sg87
VJai
p124
sg89
VDDEEF6
p125
sg91
Nsg92
I961301256
sg93
VC0DEED
p126
sbsg95
I0
sg96
V<a href="http://twitter.com/download/iphone" rel="nofollow">Twitter for iPhone</a>
p127
sg98
(lp128
sg92
I543017781021925376
sbag3
(g4
g5
Ntp129
Rp130
(dp131
g9
I1
sg10
Nsg11
Nsg12
(lp132
sg20
I00
sg21
Nsg22
Nsg23
(lp133
sg25
Nsg26
Nsg27
Nsg28
VThu Dec 11 12:13:47 +0000 2014
p134
sg30
Nsg31
Nsg32
VTriciaWDC
p135
sg33
Nsg34
I219439017
sg35
Nsg36
I00
sg37
Nsg38
(lp136
g3
(g50
g5
Ntp137
Rp138
(dp139
g10
Nsg55
Nsg57
Nsg59
Nsg61
Nsg62
Nsg28
Nsg64
Nsg65
Nsg67
Nsg69
Nsg70
Nsg71
Nsg72
Nsg73
Nsg74
Nsg76
Nsg77
Nsg78
Nsg80
Nsg81
Nsg82
Nsg84
VTriciaWDC
p140
sg86
Nsg87
VTricia Barba
p141
sg89
Nsg91
Nsg92
I219439017
sg93
Nsbag3
(g50
g5
Ntp142
Rp143
(dp144
g10
Nsg55
Nsg57
Nsg59
Nsg61
Nsg62
Nsg28
Nsg64
Nsg65
Nsg67
Nsg69
Nsg70
Nsg71
Nsg72
Nsg73
Nsg74
Nsg76
Nsg77
Nsg78
Nsg80
Nsg81
Nsg82
Nsg84
VSaltandSundry
p145
sg86
Nsg87
VSalt & Sundry
p146
sg89
Nsg91
Nsg92
I496357706
sg93
Nsbag3
(g50
g5
Ntp147
Rp148
(dp149
g10
Nsg55
Nsg57
Nsg59
Nsg61
Nsg62
Nsg28
Nsg64
Nsg65
Nsg67
Nsg69
Nsg70
Nsg71
Nsg72
Nsg73
Nsg74
Nsg76
Nsg77
Nsg78
Nsg80
Nsg81
Nsg82
Nsg84
VGirlMeetsFood
p150
sg86
Nsg87
VGirl Meets Food
p151
sg89
Nsg91
Nsg92
I76685719
sg93
Nsbasg40
Nsg41
V543015787024646145
p152
sg43
I542854035083374592
sg44
V@TriciaWDC @SaltandSundry @GirlMeetsFood Anytime!
p153
sg46
I00
sg47
Ven
p154
sg49
g3
(g50
g5
Ntp155
Rp156
(dp157
g10
VDC \u2708\ufe0f TX
p158
sg55
V333333
p159
sg57
Ven
p160
sg59
VEastern Time (US & Canada)
p161
sg61
I554
sg62
I1887
sg28
VTue Nov 20 22:15:05 +0000 2012
p162
sg64
I00
sg65
VAsst.Editor @GirlMeetsFood: Writer @JKnowsGoodFood @DCIndustree: Freelance Photographer: Wanderlust: Live music/concert junkie. Life is an adventure.
p163
sg67
Vhttps://pbs.twimg.com/profile_images/532216169621504000/nL-GFTK1_normal.jpeg
p164
sg69
I834
sg70
I458
sg71
I-18000
sg72
Nsg73
I00
sg74
Vhttps://pbs.twimg.com/profile_banners/961301256/1415725083
p165
sg76
I00
sg77
I01
sg78
V050505
p166
sg80
I00
sg81
I00
sg82
Vhttp://pbs.twimg.com/profile_background_images/519698230615887872/YKZAFSJS.jpeg
p167
sg84
ViAmJanuaryJai
p168
sg86
I17
sg87
VJai
p169
sg89
VDDEEF6
p170
sg91
Nsg92
I961301256
sg93
VC0DEED
p171
sbsg95
I0
sg96
V<a href="http://twitter.com/download/iphone" rel="nofollow">Twitter for iPhone</a>
p172
sg98
(lp173
sg92
I543015787024646145
sbag3
(g4
g5
Ntp174
Rp175
(dp176
g9
I3
sg10
Nsg11
Nsg12
(lp177
g3
(g14
g5
Ntp178
Rp179
(dp180
g18
VNoKidHungry
p181
sbasg20
I00
sg21
Nsg22
Nsg23
(lp182
(dp183
Vexpanded_url
p184
Vhttp://twitter.com/iAmJanuaryJai/status/542826295470866432/photo/1
p185
sVdisplay_url
p186
Vpic.twitter.com/G1AZPPrreM
p187
sVurl
p188
Vhttp://t.co/G1AZPPrreM
p189
sVmedia_url_https
p190
Vhttps://pbs.twimg.com/media/B4iBjIkIcAAYTo2.jpg
p191
sVid_str
p192
V542826195692580864
p193
sVsizes
p194
(dp195
Vsmall
p196
(dp197
Vh
p198
I453
sVresize
p199
Vfit
p200
sVw
p201
I340
ssVlarge
p202
(dp203
Vh
p204
I1024
sVresize
p205
Vfit
p206
sVw
p207
I768
ssVmedium
p208
(dp209
Vh
p210
I800
sVresize
p211
Vfit
p212
sVw
p213
I600
ssVthumb
p214
(dp215
Vh
p216
I150
sVresize
p217
Vcrop
p218
sVw
p219
I150
sssVindices
p220
(lp221
I117
aI139
asVtype
p222
Vphoto
p223
sVid
p224
I542826195692580864
sVmedia_url
p225
Vhttp://pbs.twimg.com/media/B4iBjIkIcAAYTo2.jpg
p226
sasg25
Nsg26
Nsg27
Nsg28
VWed Dec 10 23:40:48 +0000 2014
p227
sg30
Nsg31
I00
sg32
VSaltandSundry
p228
sg33
Nsg34
I496357706
sg35
Nsg36
I00
sg37
Nsg38
(lp229
g3
(g50
g5
Ntp230
Rp231
(dp232
g10
Nsg55
Nsg57
Nsg59
Nsg61
Nsg62
Nsg28
Nsg64
Nsg65
Nsg67
Nsg69
Nsg70
Nsg71
Nsg72
Nsg73
Nsg74
Nsg76
Nsg77
Nsg78
Nsg80
Nsg81
Nsg82
Nsg84
VSaltandSundry
p233
sg86
Nsg87
VSalt & Sundry
p234
sg89
Nsg91
Nsg92
I496357706
sg93
Nsbag3
(g50
g5
Ntp235
Rp236
(dp237
g10
Nsg55
Nsg57
Nsg59
Nsg61
Nsg62
Nsg28
Nsg64
Nsg65
Nsg67
Nsg69
Nsg70
Nsg71
Nsg72
Nsg73
Nsg74
Nsg76
Nsg77
Nsg78
Nsg80
Nsg81
Nsg82
Nsg84
VTriciaWDC
p238
sg86
Nsg87
VTricia Barba
p239
sg89
Nsg91
Nsg92
I219439017
sg93
Nsbag3
(g50
g5
Ntp240
Rp241
(dp242
g10
Nsg55
Nsg57
Nsg59
Nsg61
Nsg62
Nsg28
Nsg64
Nsg65
Nsg67
Nsg69
Nsg70
Nsg71
Nsg72
Nsg73
Nsg74
Nsg76
Nsg77
Nsg78
Nsg80
Nsg81
Nsg82
Nsg84
VGirlMeetsFood
p243
sg86
Nsg87
VGirl Meets Food
p244
sg89
Nsg91
Nsg92
I76685719
sg93
Nsbasg40
Nsg41
V542826295470866432
p245
sg43
Nsg44
V@SaltandSundry 14th St location not only did I spy @TriciaWDC from @GirlMeetsFood but this gorg blanket #NoKidHungry http://t.co/G1AZPPrreM
p246
sg46
I00
sg47
Ven
p247
sg49
g3
(g50
g5
Ntp248
Rp249
(dp250
g10
VDC \u2708\ufe0f TX
p251
sg55
V333333
p252
sg57
Ven
p253
sg59
VEastern Time (US & Canada)
p254
sg61
I554
sg62
I1887
sg28
VTue Nov 20 22:15:05 +0000 2012
p255
sg64
I00
sg65
VAsst.Editor @GirlMeetsFood: Writer @JKnowsGoodFood @DCIndustree: Freelance Photographer: Wanderlust: Live music/concert junkie. Life is an adventure.
p256
sg67
Vhttps://pbs.twimg.com/profile_images/532216169621504000/nL-GFTK1_normal.jpeg
p257
sg69
I834
sg70
I458
sg71
I-18000
sg72
Nsg73
I00
sg74
Vhttps://pbs.twimg.com/profile_banners/961301256/1415725083
p258
sg76
I00
sg77
I01
sg78
V050505
p259
sg80
I00
sg81
I00
sg82
Vhttp://pbs.twimg.com/profile_background_images/519698230615887872/YKZAFSJS.jpeg
p260
sg84
ViAmJanuaryJai
p261
sg86
I17
sg87
VJai
p262
sg89
VDDEEF6
p263
sg91
Nsg92
I961301256
sg93
VC0DEED
p264
sbsg95
I2
sg96
V<a href="http://twitter.com/download/iphone" rel="nofollow">Twitter for iPhone</a>
p265
sg98
(lp266
sg92
I542826295470866432
sbag3
(g4
g5
Ntp267
Rp268
(dp269
g9
I0
sg10
Nsg11
Nsg12
(lp270
sg20
I00
sg21
Nsg22
Nsg23
(lp271
sg25
Nsg26
Nsg27
Nsg28
VWed Dec 10 20:14:22 +0000 2014
p272
sg30
Nsg31
Nsg32
VJSFashionista
p273
sg33
Nsg34
I64780763
sg35
Nsg36
I00
sg37
Nsg38
(lp274
g3
(g50
g5
Ntp275
Rp276
(dp277
g10
Nsg55
Nsg57
Nsg59
Nsg61
Nsg62
Nsg28
Nsg64
Nsg65
Nsg67
Nsg69
Nsg70
Nsg71
Nsg72
Nsg73
Nsg74
Nsg76
Nsg77
Nsg78
Nsg80
Nsg81
Nsg82
Nsg84
VJSFashionista
p278
sg86
Nsg87
VThe JSF
p279
sg89
Nsg91
Nsg92
I64780763
sg93
Nsbag3
(g50
g5
Ntp280
Rp281
(dp282
g10
Nsg55
Nsg57
Nsg59
Nsg61
Nsg62
Nsg28
Nsg64
Nsg65
Nsg67
Nsg69
Nsg70
Nsg71
Nsg72
Nsg73
Nsg74
Nsg76
Nsg77
Nsg78
Nsg80
Nsg81
Nsg82
Nsg84
VTylerFlorence
p283
sg86
Nsg87
VTyler Florence
p284
sg89
Nsg91
Nsg92
I18128265
sg93
Nsbag3
(g50
g5
Ntp285
Rp286
(dp287
g10
Nsg55
Nsg57
Nsg59
Nsg61
Nsg62
Nsg28
Nsg64
Nsg65
Nsg67
Nsg69
Nsg70
Nsg71
Nsg72
Nsg73
Nsg74
Nsg76
Nsg77
Nsg78
Nsg80
Nsg81
Nsg82
Nsg84
VWilliamsSonoma
p288
sg86
Nsg87
VWilliams-Sonoma
p289
sg89
Nsg91
Nsg92
I29247574
sg93
Nsbasg40
Nsg41
V542774342304935936
p290
sg43
I542773157224927232
sg44
V@JSFashionista @TylerFlorence @WilliamsSonoma Sounds like fun Emily!
p291
sg46
I00
sg47
Ven
p292
sg49
g3
(g50
g5
Ntp293
Rp294
(dp295
g10
VDC \u2708\ufe0f TX
p296
sg55
V333333
p297
sg57
Ven
p298
sg59
VEastern Time (US & Canada)
p299
sg61
I554
sg62
I1887
sg28
VTue Nov 20 22:15:05 +0000 2012
p300
sg64
I00
sg65
VAsst.Editor @GirlMeetsFood: Writer @JKnowsGoodFood @DCIndustree: Freelance Photographer: Wanderlust: Live music/concert junkie. Life is an adventure.
p301
sg67
Vhttps://pbs.twimg.com/profile_images/532216169621504000/nL-GFTK1_normal.jpeg
p302
sg69
I834
sg70
I458
sg71
I-18000
sg72
Nsg73
I00
sg74
Vhttps://pbs.twimg.com/profile_banners/961301256/1415725083
p303
sg76
I00
sg77
I01
sg78
V050505
p304
sg80
I00
sg81
I00
sg82
Vhttp://pbs.twimg.com/profile_background_images/519698230615887872/YKZAFSJS.jpeg
p305
sg84
ViAmJanuaryJai
p306
sg86
I17
sg87
VJai
p307
sg89
VDDEEF6
p308
sg91
Nsg92
I961301256
sg93
VC0DEED
p309
sbsg95
I0
sg96
V<a href="http://twitter.com/download/iphone" rel="nofollow">Twitter for iPhone</a>
p310
sg98
(lp311
sg92
I542774342304935936
sbag3
(g4
g5
Ntp312
Rp313
(dp314
g9
I2
sg10
Nsg11
Nsg12
(lp315
sg20
I00
sg21
Nsg22
Nsg23
(lp316
sg25
Nsg26
Nsg27
Nsg28
VWed Dec 10 18:41:51 +0000 2014
p317
sg30
Nsg31
Nsg32
VDannyG_inkster
p318
sg33
Nsg34
I2623640399
sg35
Nsg36
I00
sg37
Nsg38
(lp319
g3
(g50
g5
Ntp320
Rp321
(dp322
g10
Nsg55
Nsg57
Nsg59
Nsg61
Nsg62
Nsg28
Nsg64
Nsg65
Nsg67
Nsg69
Nsg70
Nsg71
Nsg72
Nsg73
Nsg74
Nsg76
Nsg77
Nsg78
Nsg80
Nsg81
Nsg82
Nsg84
VDannyG_inkster
p323
sg86
Nsg87
VDanny Gibson
p324
sg89
Nsg91
Nsg92
I2623640399
sg93
Nsbag3
(g50
g5
Ntp325
Rp326
(dp327
g10
Nsg55
Nsg57
Nsg59
Nsg61
Nsg62
Nsg28
Nsg64
Nsg65
Nsg67
Nsg69
Nsg70
Nsg71
Nsg72
Nsg73
Nsg74
Nsg76
Nsg77
Nsg78
Nsg80
Nsg81
Nsg82
Nsg84
Vkickstarter
p328
sg86
Nsg87
VKickstarter
p329
sg89
Nsg91
Nsg92
I16186995
sg93
Nsbasg40
Nsg41
V542751061384392704
p330
sg43
Nsg44
V@DannyG_inkster Watching you on @kickstarter currently
p331
sg46
I00
sg47
Ven
p332
sg49
g3
(g50
g5
Ntp333
Rp334
(dp335
g10
VDC \u2708\ufe0f TX
p336
sg55
V333333
p337
sg57
Ven
p338
sg59
VEastern Time (US & Canada)
p339
sg61
I554
sg62
I1887
sg28
VTue Nov 20 22:15:05 +0000 2012
p340
sg64
I00
sg65
VAsst.Editor @GirlMeetsFood: Writer @JKnowsGoodFood @DCIndustree: Freelance Photographer: Wanderlust: Live music/concert junkie. Life is an adventure.
p341
sg67
Vhttps://pbs.twimg.com/profile_images/532216169621504000/nL-GFTK1_normal.jpeg
p342
sg69
I834
sg70
I458
sg71
I-18000
sg72
Nsg73
I00
sg74
Vhttps://pbs.twimg.com/profile_banners/961301256/1415725083
p343
sg76
I00
sg77
I01
sg78
V050505
p344
sg80
I00
sg81
I00
sg82
Vhttp://pbs.twimg.com/profile_background_images/519698230615887872/YKZAFSJS.jpeg
p345
sg84
ViAmJanuaryJai
p346
sg86
I17
sg87
VJai
p347
sg89
VDDEEF6
p348
sg91
Nsg92
I961301256
sg93
VC0DEED
p349
sbsg95
I0
sg96
V<a href="http://twitter.com/download/iphone" rel="nofollow">Twitter for iPhone</a>
p350
sg98
(lp351
sg92
I542751061384392704
sbag3
(g4
g5
Ntp352
Rp353
(dp354
g9
I0
sg10
Nsg11
Nsg12
(lp355
sg20
I00
sg21
Nsg22
Nsg23
(lp356
sg25
Nsg26
Nsg27
Nsg28
VWed Dec 10 18:33:40 +0000 2014
p357
sg30
Nsg31
Nsg32
Nsg33
Nsg34
Nsg35
Nsg36
I00
sg37
Nsg38
(lp358
sg40
Nsg41
V542749003927285760
p359
sg43
Nsg44
VHow it took me two hours to get from Georgetown to Bethesda...I'll never know.
p360
sg46
I00
sg47
Ven
p361
sg49
g3
(g50
g5
Ntp362
Rp363
(dp364
g10
VDC \u2708\ufe0f TX
p365
sg55
V333333
p366
sg57
Ven
p367
sg59
VEastern Time (US & Canada)
p368
sg61
I554
sg62
I1887
sg28
VTue Nov 20 22:15:05 +0000 2012
p369
sg64
I00
sg65
VAsst.Editor @GirlMeetsFood: Writer @JKnowsGoodFood @DCIndustree: Freelance Photographer: Wanderlust: Live music/concert junkie. Life is an adventure.
p370
sg67
Vhttps://pbs.twimg.com/profile_images/532216169621504000/nL-GFTK1_normal.jpeg
p371
sg69
I834
sg70
I458
sg71
I-18000
sg72
Nsg73
I00
sg74
Vhttps://pbs.twimg.com/profile_banners/961301256/1415725083
p372
sg76
I00
sg77
I01
sg78
V050505
p373
sg80
I00
sg81
I00
sg82
Vhttp://pbs.twimg.com/profile_background_images/519698230615887872/YKZAFSJS.jpeg
p374
sg84
ViAmJanuaryJai
p375
sg86
I17
sg87
VJai
p376
sg89
VDDEEF6
p377
sg91
Nsg92
I961301256
sg93
VC0DEED
p378
sbsg95
I0
sg96
V<a href="http://twitter.com/download/iphone" rel="nofollow">Twitter for iPhone</a>
p379
sg98
(lp380
sg92
I542749003927285760
sbag3
(g4
g5
Ntp381
Rp382
(dp383
g9
I1
sg10
Nsg11
Nsg12
(lp384
sg20
I00
sg21
Nsg22
Nsg23
(lp385
sg25
Nsg26
Nsg27
Nsg28
VWed Dec 10 14:08:38 +0000 2014
p386
sg30
Nsg31
Nsg32
VCompassCoffeeDC
p387
sg33
Nsg34
I1532295133
sg35
Nsg36
I00
sg37
Nsg38
(lp388
g3
(g50
g5
Ntp389
Rp390
(dp391
g10
Nsg55
Nsg57
Nsg59
Nsg61
Nsg62
Nsg28
Nsg64
Nsg65
Nsg67
Nsg69
Nsg70
Nsg71
Nsg72
Nsg73
Nsg74
Nsg76
Nsg77
Nsg78
Nsg80
Nsg81
Nsg82
Nsg84
VCompassCoffeeDC
p392
sg86
Nsg87
VCompass Coffee
p393
sg89
Nsg91
Nsg92
I1532295133
sg93
Nsbasg40
Nsg41
V542682303202590720
p394
sg43
Nsg44
V@CompassCoffeeDC this morning and I spy a Nutella Mocha. Say what? I just might start fighting the traffic to get into Shaw early in the am
p395
sg46
I00
sg47
Ven
p396
sg49
g3
(g50
g5
Ntp397
Rp398
(dp399
g10
VDC \u2708\ufe0f TX
p400
sg55
V333333
p401
sg57
Ven
p402
sg59
VEastern Time (US & Canada)
p403
sg61
I554
sg62
I1887
sg28
VTue Nov 20 22:15:05 +0000 2012
p404
sg64
I00
sg65
VAsst.Editor @GirlMeetsFood: Writer @JKnowsGoodFood @DCIndustree: Freelance Photographer: Wanderlust: Live music/concert junkie. Life is an adventure.
p405
sg67
Vhttps://pbs.twimg.com/profile_images/532216169621504000/nL-GFTK1_normal.jpeg
p406
sg69
I834
sg70
I458
sg71
I-18000
sg72
Nsg73
I00
sg74
Vhttps://pbs.twimg.com/profile_banners/961301256/1415725083
p407
sg76
I00
sg77
I01
sg78
V050505
p408
sg80
I00
sg81
I00
sg82
Vhttp://pbs.twimg.com/profile_background_images/519698230615887872/YKZAFSJS.jpeg
p409
sg84
ViAmJanuaryJai
p410
sg86
I17
sg87
VJai
p411
sg89
VDDEEF6
p412
sg91
Nsg92
I961301256
sg93
VC0DEED
p413
sbsg95
I0
sg96
V<a href="http://twitter.com/download/iphone" rel="nofollow">Twitter for iPhone</a>
p414
sg98
(lp415
sg92
I542682303202590720
sbag3
(g4
g5
Ntp416
Rp417
(dp418
g9
I0
sg10
Nsg11
Nsg12
(lp419
g3
(g14
g5
Ntp420
Rp421
(dp422
g18
Vburgeroftheweek
p423
sbasg20
I00
sg21
g3
(g4
g5
Ntp424
Rp425
(dp426
g9
I2
sg10
Nsg11
Nsg12
(lp427
g3
(g14
g5
Ntp428
Rp429
(dp430
g18
Vburgeroftheweek
p431
sbasg20
I00
sg21
Nsg22
Nsg23
(lp432
(dp433
Vexpanded_url
p434
Vhttp://twitter.com/HolyCowDelRay/status/542432002863931393/photo/1
p435
sVdisplay_url
p436
Vpic.twitter.com/XwraDgFjN9
p437
sVurl
p438
Vhttp://t.co/XwraDgFjN9
p439
sVmedia_url_https
p440
Vhttps://pbs.twimg.com/media/B4cbB5mCUAAMiwP.jpg
p441
sVid_str
p442
V542431999575609344
p443
sVsizes
p444
(dp445
Vsmall
p446
(dp447
Vh
p448
I340
sVresize
p449
Vfit
p450
sVw
p451
I340
ssVlarge
p452
(dp453
Vh
p454
I1024
sVresize
p455
Vfit
p456
sVw
p457
I1024
ssVmedium
p458
(dp459
Vh
p460
I600
sVresize
p461
Vfit
p462
sVw
p463
I600
ssVthumb
p464
(dp465
Vh
p466
I150
sVresize
p467
Vcrop
p468
sVw
p469
I150
sssVindices
p470
(lp471
I111
aI133
asVtype
p472
Vphoto
p473
sVid
p474
I542431999575609344
sVmedia_url
p475
Vhttp://pbs.twimg.com/media/B4cbB5mCUAAMiwP.jpg
p476
sasg25
Nsg26
Nsg27
Nsg28
VTue Dec 09 21:34:02 +0000 2014
p477
sg30
Nsg31
I00
sg32
Nsg33
Nsg34
Nsg35
Nsg36
I00
sg37
Nsg38
(lp478
sg40
Nsg41
V542432002863931393
p479
sg43
Nsg44
VThe Joey Monroe: Smoked Mozzarella, Bourbon-Bacon Jam, Fried Egg, Crispy Onions, Garlic Aioli #burgeroftheweek http://t.co/XwraDgFjN9
p480
sg46
I00
sg47
Ven
p481
sg49
g3
(g50
g5
Ntp482
Rp483
(dp484
g10
VAlexandria VA - Del Ray Hood
p485
sg55
V333333
p486
sg57
Ven
p487
sg59
Nsg61
I984
sg62
I453
sg28
VWed Dec 12 22:16:32 +0000 2012
p488
sg64
I00
sg65
VGourmet Burgers in Alexandria, VA - Del Ray neighborhood. Featuring all natural burgers, handcut fries & shakes. $.25 from every burger goes to local Charities
p489
sg67
Vhttps://pbs.twimg.com/profile_images/2967663444/de103e472217fd8877115de53ed035ed_normal.png
p490
sg69
I801
sg70
I75
sg71
Nsg72
Nsg73
I00
sg74
Nsg76
I00
sg77
I00
sg78
V0084B4
p491
sg80
I00
sg81
I00
sg82
Vhttp://abs.twimg.com/images/themes/theme1/bg.png
p492
sg84
VHolyCowDelRay
p493
sg86
I29
sg87
VHoly Cow
p494
sg89
VDDEEF6
p495
sg91
Vhttp://t.co/3lqu3oQZ
p496
sg92
I1007431454
sg93
VC0DEED
p497
sbsg95
I4
sg96
V<a href="http://twitter.com/download/iphone" rel="nofollow">Twitter for iPhone</a>
p498
sg98
(lp499
sg92
I542432002863931393
sbsg22
Nsg23
(lp500
(dp501
Vsource_user_id
p502
I1007431454
sVsource_status_id_str
p503
V542432002863931393
p504
sVexpanded_url
p505
Vhttp://twitter.com/HolyCowDelRay/status/542432002863931393/photo/1
p506
sVdisplay_url
p507
Vpic.twitter.com/XwraDgFjN9
p508
sVurl
p509
Vhttp://t.co/XwraDgFjN9
p510
sVmedia_url_https
p511
Vhttps://pbs.twimg.com/media/B4cbB5mCUAAMiwP.jpg
p512
sVsource_user_id_str
p513
V1007431454
p514
sVsource_status_id
p515
I542432002863931393
sVid_str
p516
V542431999575609344
p517
sVsizes
p518
(dp519
Vsmall
p520
(dp521
Vh
p522
I340
sVresize
p523
Vfit
p524
sVw
p525
I340
ssVlarge
p526
(dp527
Vh
p528
I1024
sVresize
p529
Vfit
p530
sVw
p531
I1024
ssVmedium
p532
(dp533
Vh
p534
I600
sVresize
p535
Vfit
p536
sVw
p537
I600
ssVthumb
p538
(dp539
Vh
p540
I150
sVresize
p541
Vcrop
p542
sVw
p543
I150
sssVindices
p544
(lp545
I139
aI140
asVtype
p546
Vphoto
p547
sVid
p548
I542431999575609344
sVmedia_url
p549
Vhttp://pbs.twimg.com/media/B4cbB5mCUAAMiwP.jpg
p550
sasg25
Nsg26
Nsg27
Nsg28
VTue Dec 09 22:46:37 +0000 2014
p551
sg30
Nsg31
I00
sg32
Nsg33
Nsg34
Nsg35
Nsg36
I00
sg37
Nsg38
(lp552
g3
(g50
g5
Ntp553
Rp554
(dp555
g10
Nsg55
Nsg57
Nsg59
Nsg61
Nsg62
Nsg28
Nsg64
Nsg65
Nsg67
Nsg69
Nsg70
Nsg71
Nsg72
Nsg73
Nsg74
Nsg76
Nsg77
Nsg78
Nsg80
Nsg81
Nsg82
Nsg84
VHolyCowDelRay
p556
sg86
Nsg87
VHoly Cow
p557
sg89
Nsg91
Nsg92
I1007431454
sg93
Nsbasg40
Nsg41
V542450270035128320
p558
sg43
Nsg44
VRT @HolyCowDelRay: The Joey Monroe: Smoked Mozzarella, Bourbon-Bacon Jam, Fried Egg, Crispy Onions, Garlic Aioli #burgeroftheweek http://t.\u2026
p559
sg46
I00
sg47
Ven
p560
sg49
g3
(g50
g5
Ntp561
Rp562
(dp563
g10
VDC \u2708\ufe0f TX
p564
sg55
V333333
p565
sg57
Ven
p566
sg59
VEastern Time (US & Canada)
p567
sg61
I554
sg62
I1887
sg28
VTue Nov 20 22:15:05 +0000 2012
p568
sg64
I00
sg65
VAsst.Editor @GirlMeetsFood: Writer @JKnowsGoodFood @DCIndustree: Freelance Photographer: Wanderlust: Live music/concert junkie. Life is an adventure.
p569
sg67
Vhttps://pbs.twimg.com/profile_images/532216169621504000/nL-GFTK1_normal.jpeg
p570
sg69
I834
sg70
I458
sg71
I-18000
sg72
Nsg73
I00
sg74
Vhttps://pbs.twimg.com/profile_banners/961301256/1415725083
p571
sg76
I00
sg77
I01
sg78
V050505
p572
sg80
I00
sg81
I00
sg82
Vhttp://pbs.twimg.com/profile_background_images/519698230615887872/YKZAFSJS.jpeg
p573
sg84
ViAmJanuaryJai
p574
sg86
I17
sg87
VJai
p575
sg89
VDDEEF6
p576
sg91
Nsg92
I961301256
sg93
VC0DEED
p577
sbsg95
I4
sg96
V<a href="http://twitter.com/download/iphone" rel="nofollow">Twitter for iPhone</a>
p578
sg98
(lp579
sg92
I542450270035128320
sbag3
(g4
g5
Ntp580
Rp581
(dp582
g9
I0
sg10
Nsg11
Nsg12
(lp583
g3
(g14
g5
Ntp584
Rp585
(dp586
g18
Vneighborhoodlove
p587
sbasg20
I00
sg21
Nsg22
Nsg23
(lp588
sg25
Nsg26
Nsg27
Nsg28
VTue Dec 09 22:46:33 +0000 2014
p589
sg30
Nsg31
Nsg32
VHolyCowDelRay
p590
sg33
Nsg34
I1007431454
sg35
Nsg36
I00
sg37
Nsg38
(lp591
g3
(g50
g5
Ntp592
Rp593
(dp594
g10
Nsg55
Nsg57
Nsg59
Nsg61
Nsg62
Nsg28
Nsg64
Nsg65
Nsg67
Nsg69
Nsg70
Nsg71
Nsg72
Nsg73
Nsg74
Nsg76
Nsg77
Nsg78
Nsg80
Nsg81
Nsg82
Nsg84
VHolyCowDelRay
p595
sg86
Nsg87
VHoly Cow
p596
sg89
Nsg91
Nsg92
I1007431454
sg93
Nsbasg40
Nsg41
V542450254100979713
p597
sg43
I542432002863931393
sg44
V@HolyCowDelRay And this is why I love Del Ray #neighborhoodlove
p598
sg46
I00
sg47
Ven
p599
sg49
g3
(g50
g5
Ntp600
Rp601
(dp602
g10
VDC \u2708\ufe0f TX
p603
sg55
V333333
p604
sg57
Ven
p605
sg59
VEastern Time (US & Canada)
p606
sg61
I554
sg62
I1887
sg28
VTue Nov 20 22:15:05 +0000 2012
p607
sg64
I00
sg65
VAsst.Editor @GirlMeetsFood: Writer @JKnowsGoodFood @DCIndustree: Freelance Photographer: Wanderlust: Live music/concert junkie. Life is an adventure.
p608
sg67
Vhttps://pbs.twimg.com/profile_images/532216169621504000/nL-GFTK1_normal.jpeg
p609
sg69
I834
sg70
I458
sg71
I-18000
sg72
Nsg73
I00
sg74
Vhttps://pbs.twimg.com/profile_banners/961301256/1415725083
p610
sg76
I00
sg77
I01
sg78
V050505
p611
sg80
I00
sg81
I00
sg82
Vhttp://pbs.twimg.com/profile_background_images/519698230615887872/YKZAFSJS.jpeg
p612
sg84
ViAmJanuaryJai
p613
sg86
I17
sg87
VJai
p614
sg89
VDDEEF6
p615
sg91
Nsg92
I961301256
sg93
VC0DEED
p616
sbsg95
I1
sg96
V<a href="http://twitter.com/download/iphone" rel="nofollow">Twitter for iPhone</a>
p617
sg98
(lp618
sg92
I542450254100979713
sbag3
(g4
g5
Ntp619
Rp620
(dp621
g9
I0
sg10
Nsg11
Nsg12
(lp622
sg20
I00
sg21
g3
(g4
g5
Ntp623
Rp624
(dp625
g9
I13
sg10
Nsg11
Nsg12
(lp626
sg20
I00
sg21
Nsg22
Nsg23
(lp627
sg25
Nsg26
Nsg27
Nsg28
VTue Dec 09 21:55:22 +0000 2014
p628
sg30
Nsg31
I00
sg32
Nsg33
Nsg34
Nsg35
Nsg36
I00
sg37
Nsg38
(lp629
g3
(g50
g5
Ntp630
Rp631
(dp632
g10
Nsg55
Nsg57
Nsg59
Nsg61
Nsg62
Nsg28
Nsg64
Nsg65
Nsg67
Nsg69
Nsg70
Nsg71
Nsg72
Nsg73
Nsg74
Nsg76
Nsg77
Nsg78
Nsg80
Nsg81
Nsg82
Nsg84
VSikkemaJenkins
p633
sg86
Nsg87
VSikkema Jenkins & Co
p634
sg89
Nsg91
Nsg92
I859787156
sg93
Nsbag3
(g50
g5
Ntp635
Rp636
(dp637
g10
Nsg55
Nsg57
Nsg59
Nsg61
Nsg62
Nsg28
Nsg64
Nsg65
Nsg67
Nsg69
Nsg70
Nsg71
Nsg72
Nsg73
Nsg74
Nsg76
Nsg77
Nsg78
Nsg80
Nsg81
Nsg82
Nsg84
VcreativetimeNYC
p638
sg86
Nsg87
VCreative Time
p639
sg89
Nsg91
Nsg92
I151099524
sg93
Nsbasg40
Nsg41
V542437374131568640
p640
sg43
Nsg44
VDon't miss 'Kara Walker: Afterword' at @SikkemaJenkins - documenting the aftermath of 'A Subtlety' @creativetimeNYC http://t.co/5IMX5ZDUtJ
p641
sg46
I00
sg47
Ven
p642
sg49
g3
(g50
g5
Ntp643
Rp644
(dp645
g10
VBrooklyn, NY
p646
sg55
V333333
p647
sg57
Ven
p648
sg59
Nsg61
I615
sg62
I285
sg28
VThu Mar 06 19:02:33 +0000 2014
p649
sg64
I00
sg65
VThe Elizabeth A. Sackler Center for Feminist Art @brooklynmuseum is dedicated to feminist art\u2014its past, present, and future.
p650
sg67
Vhttps://pbs.twimg.com/profile_images/517054060071895040/bh1scMLs_normal.jpeg
p651
sg69
I631
sg70
I79
sg71
Nsg72
Nsg73
I00
sg74
Vhttps://pbs.twimg.com/profile_banners/2375781866/1412110531
p652
sg76
I00
sg77
I01
sg78
V0084B4
p653
sg80
I00
sg81
I00
sg82
Vhttp://pbs.twimg.com/profile_background_images/448495137287467008/E3DlfYdn.png
p654
sg84
Vfeministart
p655
sg86
I18
sg87
VSackler Center 
p656
sg89
VDDEEF6
p657
sg91
Vhttp://t.co/oiZMC6w6s7
p658
sg92
I2375781866
sg93
VC0DEED
p659
sbsg95
I10
sg96
V<a href="http://twitter.com" rel="nofollow">Twitter Web Client</a>
p660
sg98
(lp661
g3
(ctwitter
Url
p662
g5
Ntp663
Rp664
(dp665
S'url'
p666
Vhttp://t.co/5IMX5ZDUtJ
p667
sS'expanded_url'
p668
Vhttp://bit.ly/1Ggh3jL
p669
sbasg92
I542437374131568640
sbsg22
Nsg23
(lp670
sg25
Nsg26
Nsg27
Nsg28
VTue Dec 09 22:40:52 +0000 2014
p671
sg30
Nsg31
I00
sg32
Nsg33
Nsg34
Nsg35
Nsg36
I00
sg37
Nsg38
(lp672
g3
(g50
g5
Ntp673
Rp674
(dp675
g10
Nsg55
Nsg57
Nsg59
Nsg61
Nsg62
Nsg28
Nsg64
Nsg65
Nsg67
Nsg69
Nsg70
Nsg71
Nsg72
Nsg73
Nsg74
Nsg76
Nsg77
Nsg78
Nsg80
Nsg81
Nsg82
Nsg84
Vfeministart
p676
sg86
Nsg87
VSackler Center 
p677
sg89
Nsg91
Nsg92
I2375781866
sg93
Nsbag3
(g50
g5
Ntp678
Rp679
(dp680
g10
Nsg55
Nsg57
Nsg59
Nsg61
Nsg62
Nsg28
Nsg64
Nsg65
Nsg67
Nsg69
Nsg70
Nsg71
Nsg72
Nsg73
Nsg74
Nsg76
Nsg77
Nsg78
Nsg80
Nsg81
Nsg82
Nsg84
VSikkemaJenkins
p681
sg86
Nsg87
VSikkema Jenkins & Co
p682
sg89
Nsg91
Nsg92
I859787156
sg93
Nsbag3
(g50
g5
Ntp683
Rp684
(dp685
g10
Nsg55
Nsg57
Nsg59
Nsg61
Nsg62
Nsg28
Nsg64
Nsg65
Nsg67
Nsg69
Nsg70
Nsg71
Nsg72
Nsg73
Nsg74
Nsg76
Nsg77
Nsg78
Nsg80
Nsg81
Nsg82
Nsg84
VcreativetimeNYC
p686
sg86
Nsg87
VCreative Time
p687
sg89
Nsg91
Nsg92
I151099524
sg93
Nsbasg40
Nsg41
V542448825659441152
p688
sg43
Nsg44
VRT @feministart: Don't miss 'Kara Walker: Afterword' at @SikkemaJenkins - documenting the aftermath of 'A Subtlety' @creativetimeNYC http:/\u2026
p689
sg46
I00
sg47
Ven
p690
sg49
g3
(g50
g5
Ntp691
Rp692
(dp693
g10
VDC \u2708\ufe0f TX
p694
sg55
V333333
p695
sg57
Ven
p696
sg59
VEastern Time (US & Canada)
p697
sg61
I554
sg62
I1887
sg28
VTue Nov 20 22:15:05 +0000 2012
p698
sg64
I00
sg65
VAsst.Editor @GirlMeetsFood: Writer @JKnowsGoodFood @DCIndustree: Freelance Photographer: Wanderlust: Live music/concert junkie. Life is an adventure.
p699
sg67
Vhttps://pbs.twimg.com/profile_images/532216169621504000/nL-GFTK1_normal.jpeg
p700
sg69
I834
sg70
I458
sg71
I-18000
sg72
Nsg73
I00
sg74
Vhttps://pbs.twimg.com/profile_banners/961301256/1415725083
p701
sg76
I00
sg77
I01
sg78
V050505
p702
sg80
I00
sg81
I00
sg82
Vhttp://pbs.twimg.com/profile_background_images/519698230615887872/YKZAFSJS.jpeg
p703
sg84
ViAmJanuaryJai
p704
sg86
I17
sg87
VJai
p705
sg89
VDDEEF6
p706
sg91
Nsg92
I961301256
sg93
VC0DEED
p707
sbsg95
I10
sg96
V<a href="http://twitter.com/download/iphone" rel="nofollow">Twitter for iPhone</a>
p708
sg98
(lp709
g3
(g662
g5
Ntp710
Rp711
(dp712
g666
Vhttp://t.co/5IMX5ZDUtJ
p713
sg668
Vhttp://bit.ly/1Ggh3jL
p714
sbasg92
I542448825659441152
sbag3
(g4
g5
Ntp715
Rp716
(dp717
g9
I0
sg10
Nsg11
Nsg12
(lp718
g3
(g14
g5
Ntp719
Rp720
(dp721
g18
VHappyHour
p722
sbag3
(g14
g5
Ntp723
Rp724
(dp725
g18
VKojo
p726
sbasg20
I00
sg21
g3
(g4
g5
Ntp727
Rp728
(dp729
g9
I0
sg10
Nsg11
Nsg12
(lp730
g3
(g14
g5
Ntp731
Rp732
(dp733
g18
VHappyHour
p734
sbag3
(g14
g5
Ntp735
Rp736
(dp737
g18
VKojo
p738
sbasg20
I00
sg21
Nsg22
Nsg23
(lp739
sg25
Nsg26
Nsg27
Nsg28
VTue Dec 09 21:17:13 +0000 2014
p740
sg30
Nsg31
I00
sg32
Nsg33
Nsg34
Nsg35
Nsg36
I00
sg37
Nsg38
(lp741
g3
(g50
g5
Ntp742
Rp743
(dp744
g10
Nsg55
Nsg57
Nsg59
Nsg61
Nsg62
Nsg28
Nsg64
Nsg65
Nsg67
Nsg69
Nsg70
Nsg71
Nsg72
Nsg73
Nsg74
Nsg76
Nsg77
Nsg78
Nsg80
Nsg81
Nsg82
Nsg84
Vkojoshow
p745
sg86
Nsg87
VThe Kojo Nnamdi Show
p746
sg89
Nsg91
Nsg92
I14848798
sg93
Nsbasg40
Nsg41
V542427771272572930
p747
sg43
Nsg44
VCLiNK (#HappyHour Finder) named an "App of the Month" on @kojoshow (#Kojo) Show! Awesome!!!! http://t.co/9JiiYZtQn2 http://t.co/RiKOIuhjCO
p748
sg46
I00
sg47
Ven
p749
sg49
g3
(g50
g5
Ntp750
Rp751
(dp752
g10
VWashington DC | \u2193\u2193Download \u2193\u2193
p753
sg55
V333333
p754
sg57
Ven
p755
sg59
VEastern Time (US & Canada)
p756
sg61
I1057
sg62
I6290
sg28
VThu Feb 21 21:06:56 +0000 2013
p757
sg64
I00
sg65
VMobile app for #happyhour #Dupont  #Arlington #Bethesda; #HStreet soon!  Follow @CLiNK_MoCo too!
p758
sg67
Vhttps://pbs.twimg.com/profile_images/472431298087120896/oIINEC2C_normal.png
p759
sg69
I1631
sg70
I219
sg71
I-18000
sg72
Nsg73
I00
sg74
Vhttps://pbs.twimg.com/profile_banners/1206000360/1394202911
p760
sg76
I00
sg77
I00
sg78
V0084B4
p761
sg80
I01
sg81
I00
sg82
Vhttp://abs.twimg.com/images/themes/theme15/bg.png
p762
sg84
VCLiNK_DC
p763
sg86
I10
sg87
VCLiNK
p764
sg89
VC0DFEC
p765
sg91
Vhttp://t.co/0owWzgwujb
p766
sg92
I1206000360
sg93
V022330
p767
sbsg95
I1
sg96
V<a href="http://ifttt.com" rel="nofollow">IFTTT</a>
p768
sg98
(lp769
g3
(g662
g5
Ntp770
Rp771
(dp772
g666
Vhttp://t.co/9JiiYZtQn2
p773
sg668
Vhttp://www.CLiNKDC.com
p774
sbag3
(g662
g5
Ntp775
Rp776
(dp777
g666
Vhttp://t.co/RiKOIuhjCO
p778
sg668
Vhttp://goo.gl/75GOMa
p779
sbasg92
I542427771272572930
sbsg22
Nsg23
(lp780
sg25
Nsg26
Nsg27
Nsg28
VTue Dec 09 21:23:41 +0000 2014
p781
sg30
Nsg31
I00
sg32
Nsg33
Nsg34
Nsg35
Nsg36
I00
sg37
Nsg38
(lp782
g3
(g50
g5
Ntp783
Rp784
(dp785
g10
Nsg55
Nsg57
Nsg59
Nsg61
Nsg62
Nsg28
Nsg64
Nsg65
Nsg67
Nsg69
Nsg70
Nsg71
Nsg72
Nsg73
Nsg74
Nsg76
Nsg77
Nsg78
Nsg80
Nsg81
Nsg82
Nsg84
VCLiNK_DC
p786
sg86
Nsg87
VCLiNK
p787
sg89
Nsg91
Nsg92
I1206000360
sg93
Nsbag3
(g50
g5
Ntp788
Rp789
(dp790
g10
Nsg55
Nsg57
Nsg59
Nsg61
Nsg62
Nsg28
Nsg64
Nsg65
Nsg67
Nsg69
Nsg70
Nsg71
Nsg72
Nsg73
Nsg74
Nsg76
Nsg77
Nsg78
Nsg80
Nsg81
Nsg82
Nsg84
Vkojoshow
p791
sg86
Nsg87
VThe Kojo Nnamdi Show
p792
sg89
Nsg91
Nsg92
I14848798
sg93
Nsbasg40
Nsg41
V542429399757225984
p793
sg43
Nsg44
VRT @CLiNK_DC: CLiNK (#HappyHour Finder) named an "App of the Month" on @kojoshow (#Kojo) Show! Awesome!!!! http://t.co/9JiiYZtQn2 http://t.\u2026
p794
sg46
I00
sg47
Ven
p795
sg49
g3
(g50
g5
Ntp796
Rp797
(dp798
g10
VDC \u2708\ufe0f TX
p799
sg55
V333333
p800
sg57
Ven
p801
sg59
VEastern Time (US & Canada)
p802
sg61
I554
sg62
I1887
sg28
VTue Nov 20 22:15:05 +0000 2012
p803
sg64
I00
sg65
VAsst.Editor @GirlMeetsFood: Writer @JKnowsGoodFood @DCIndustree: Freelance Photographer: Wanderlust: Live music/concert junkie. Life is an adventure.
p804
sg67
Vhttps://pbs.twimg.com/profile_images/532216169621504000/nL-GFTK1_normal.jpeg
p805
sg69
I834
sg70
I458
sg71
I-18000
sg72
Nsg73
I00
sg74
Vhttps://pbs.twimg.com/profile_banners/961301256/1415725083
p806
sg76
I00
sg77
I01
sg78
V050505
p807
sg80
I00
sg81
I00
sg82
Vhttp://pbs.twimg.com/profile_background_images/519698230615887872/YKZAFSJS.jpeg
p808
sg84
ViAmJanuaryJai
p809
sg86
I17
sg87
VJai
p810
sg89
VDDEEF6
p811
sg91
Nsg92
I961301256
sg93
VC0DEED
p812
sbsg95
I1
sg96
V<a href="http://twitter.com/download/iphone" rel="nofollow">Twitter for iPhone</a>
p813
sg98
(lp814
g3
(g662
g5
Ntp815
Rp816
(dp817
g666
Vhttp://t.co/9JiiYZtQn2
p818
sg668
Vhttp://www.CLiNKDC.com
p819
sbag3
(g662
g5
Ntp820
Rp821
(dp822
g666
Vhttp://t.co/RiKOIuhjCO
p823
sg668
Vhttp://goo.gl/75GOMa
p824
sbasg92
I542429399757225984
sbag3
(g4
g5
Ntp825
Rp826
(dp827
g9
I1
sg10
Nsg11
Nsg12
(lp828
sg20
I00
sg21
Nsg22
Nsg23
(lp829
sg25
Nsg26
Nsg27
Nsg28
VTue Dec 09 21:23:35 +0000 2014
p830
sg30
Nsg31
Nsg32
VCLiNK_DC
p831
sg33
Nsg34
I1206000360
sg35
Nsg36
I00
sg37
Nsg38
(lp832
g3
(g50
g5
Ntp833
Rp834
(dp835
g10
Nsg55
Nsg57
Nsg59
Nsg61
Nsg62
Nsg28
Nsg64
Nsg65
Nsg67
Nsg69
Nsg70
Nsg71
Nsg72
Nsg73
Nsg74
Nsg76
Nsg77
Nsg78
Nsg80
Nsg81
Nsg82
Nsg84
VCLiNK_DC
p836
sg86
Nsg87
VCLiNK
p837
sg89
Nsg91
Nsg92
I1206000360
sg93
Nsbag3
(g50
g5
Ntp838
Rp839
(dp840
g10
Nsg55
Nsg57
Nsg59
Nsg61
Nsg62
Nsg28
Nsg64
Nsg65
Nsg67
Nsg69
Nsg70
Nsg71
Nsg72
Nsg73
Nsg74
Nsg76
Nsg77
Nsg78
Nsg80
Nsg81
Nsg82
Nsg84
Vkojoshow
p841
sg86
Nsg87
VThe Kojo Nnamdi Show
p842
sg89
Nsg91
Nsg92
I14848798
sg93
Nsbasg40
Nsg41
V542429375606423552
p843
sg43
I542427771272572930
sg44
V@CLiNK_DC @kojoshow Congrats!!
p844
sg46
I00
sg47
Ven
p845
sg49
g3
(g50
g5
Ntp846
Rp847
(dp848
g10
VDC \u2708\ufe0f TX
p849
sg55
V333333
p850
sg57
Ven
p851
sg59
VEastern Time (US & Canada)
p852
sg61
I554
sg62
I1887
sg28
VTue Nov 20 22:15:05 +0000 2012
p853
sg64
I00
sg65
VAsst.Editor @GirlMeetsFood: Writer @JKnowsGoodFood @DCIndustree: Freelance Photographer: Wanderlust: Live music/concert junkie. Life is an adventure.
p854
sg67
Vhttps://pbs.twimg.com/profile_images/532216169621504000/nL-GFTK1_normal.jpeg
p855
sg69
I834
sg70
I458
sg71
I-18000
sg72
Nsg73
I00
sg74
Vhttps://pbs.twimg.com/profile_banners/961301256/1415725083
p856
sg76
I00
sg77
I01
sg78
V050505
p857
sg80
I00
sg81
I00
sg82
Vhttp://pbs.twimg.com/profile_background_images/519698230615887872/YKZAFSJS.jpeg
p858
sg84
ViAmJanuaryJai
p859
sg86
I17
sg87
VJai
p860
sg89
VDDEEF6
p861
sg91
Nsg92
I961301256
sg93
VC0DEED
p862
sbsg95
I0
sg96
V<a href="http://twitter.com/download/iphone" rel="nofollow">Twitter for iPhone</a>
p863
sg98
(lp864
sg92
I542429375606423552
sbag3
(g4
g5
Ntp865
Rp866
(dp867
g9
I2
sg10
Nsg11
Nsg12
(lp868
g3
(g14
g5
Ntp869
Rp870
(dp871
g18
Vstaywarm
p872
sbasg20
I00
sg21
Nsg22
Nsg23
(lp873
(dp874
Vexpanded_url
p875
Vhttp://twitter.com/iAmJanuaryJai/status/542429151890665473/photo/1
p876
sVdisplay_url
p877
Vpic.twitter.com/7hrN16kpac
p878
sVurl
p879
Vhttp://t.co/7hrN16kpac
p880
sVmedia_url_https
p881
Vhttps://pbs.twimg.com/media/B4cYbMUCEAEj91_.jpg
p882
sVid_str
p883
V542429135562215425
p884
sVsizes
p885
(dp886
Vsmall
p887
(dp888
Vh
p889
I510
sVresize
p890
Vfit
p891
sVw
p892
I340
ssVlarge
p893
(dp894
Vh
p895
I601
sVresize
p896
Vfit
p897
sVw
p898
I400
ssVmedium
p899
(dp900
Vh
p901
I601
sVresize
p902
Vfit
p903
sVw
p904
I400
ssVthumb
p905
(dp906
Vh
p907
I150
sVresize
p908
Vcrop
p909
sVw
p910
I150
sssVindices
p911
(lp912
I121
aI143
asVtype
p913
Vphoto
p914
sVid
p915
I542429135562215425
sVmedia_url
p916
Vhttp://pbs.twimg.com/media/B4cYbMUCEAEj91_.jpg
p917
sasg25
Nsg26
Nsg27
Nsg28
VTue Dec 09 21:22:42 +0000 2014
p918
sg30
Nsg31
I00
sg32
Nsg33
Nsg34
Nsg35
Nsg36
I00
sg37
Nsg38
(lp919
g3
(g50
g5
Ntp920
Rp921
(dp922
g10
Nsg55
Nsg57
Nsg59
Nsg61
Nsg62
Nsg28
Nsg64
Nsg65
Nsg67
Nsg69
Nsg70
Nsg71
Nsg72
Nsg73
Nsg74
Nsg76
Nsg77
Nsg78
Nsg80
Nsg81
Nsg82
Nsg84
VChefAtEve
p923
sg86
Nsg87
VCathal Armstrong
p924
sg89
Nsg91
Nsg92
I966155288
sg93
Nsbag3
(g50
g5
Ntp925
Rp926
(dp927
g10
Nsg55
Nsg57
Nsg59
Nsg61
Nsg62
Nsg28
Nsg64
Nsg65
Nsg67
Nsg69
Nsg70
Nsg71
Nsg72
Nsg73
Nsg74
Nsg76
Nsg77
Nsg78
Nsg80
Nsg81
Nsg82
Nsg84
VRestaurant_Eve
p928
sg86
Nsg87
VNourish the Palate\u2122
p929
sg89
Nsg91
Nsg92
I108386929
sg93
Nsbasg40
Nsg41
V542429151890665473
p930
sg43
Nsg44
VCold, rainy &amp; dreary...yuck! Try this Irish Coffee by @ChefAtEve of @Restaurant_Eve http://t.co/mINRUKEdzM #staywarm http://t.co/7hrN16kpac
p931
sg46
I00
sg47
Ven
p932
sg49
g3
(g50
g5
Ntp933
Rp934
(dp935
g10
VDC \u2708\ufe0f TX
p936
sg55
V333333
p937
sg57
Ven
p938
sg59
VEastern Time (US & Canada)
p939
sg61
I554
sg62
I1887
sg28
VTue Nov 20 22:15:05 +0000 2012
p940
sg64
I00
sg65
VAsst.Editor @GirlMeetsFood: Writer @JKnowsGoodFood @DCIndustree: Freelance Photographer: Wanderlust: Live music/concert junkie. Life is an adventure.
p941
sg67
Vhttps://pbs.twimg.com/profile_images/532216169621504000/nL-GFTK1_normal.jpeg
p942
sg69
I834
sg70
I458
sg71
I-18000
sg72
Nsg73
I00
sg74
Vhttps://pbs.twimg.com/profile_banners/961301256/1415725083
p943
sg76
I00
sg77
I01
sg78
V050505
p944
sg80
I00
sg81
I00
sg82
Vhttp://pbs.twimg.com/profile_background_images/519698230615887872/YKZAFSJS.jpeg
p945
sg84
ViAmJanuaryJai
p946
sg86
I17
sg87
VJai
p947
sg89
VDDEEF6
p948
sg91
Nsg92
I961301256
sg93
VC0DEED
p949
sbsg95
I2
sg96
V<a href="http://twitter.com/download/iphone" rel="nofollow">Twitter for iPhone</a>
p950
sg98
(lp951
g3
(g662
g5
Ntp952
Rp953
(dp954
g666
Vhttp://t.co/mINRUKEdzM
p955
sg668
Vhttp://ow.ly/3v49gk
p956
sbasg92
I542429151890665473
sbag3
(g4
g5
Ntp957
Rp958
(dp959
g9
I0
sg10
Nsg11
Nsg12
(lp960
sg20
I00
sg21
Nsg22
Nsg23
(lp961
sg25
Nsg26
Nsg27
Nsg28
VTue Dec 09 19:55:58 +0000 2014
p962
sg30
Nsg31
Nsg32
Nsg33
Nsg34
Nsg35
Nsg36
I00
sg37
Nsg38
(lp963
g3
(g50
g5
Ntp964
Rp965
(dp966
g10
Nsg55
Nsg57
Nsg59
Nsg61
Nsg62
Nsg28
Nsg64
Nsg65
Nsg67
Nsg69
Nsg70
Nsg71
Nsg72
Nsg73
Nsg74
Nsg76
Nsg77
Nsg78
Nsg80
Nsg81
Nsg82
Nsg84
Vrealmartymar
p967
sg86
Nsg87
VMartin Lawrence
p968
sg89
Nsg91
Nsg92
I317522823
sg93
Nsbasg40
Nsg41
V542407323709214720
p969
sg43
Nsg44
VYou know it's going to be a good day when you can quote lines from the @realmartymar during a business meeting.
p970
sg46
I00
sg47
Ven
p971
sg49
g3
(g50
g5
Ntp972
Rp973
(dp974
g10
VDC \u2708\ufe0f TX
p975
sg55
V333333
p976
sg57
Ven
p977
sg59
VEastern Time (US & Canada)
p978
sg61
I554
sg62
I1887
sg28
VTue Nov 20 22:15:05 +0000 2012
p979
sg64
I00
sg65
VAsst.Editor @GirlMeetsFood: Writer @JKnowsGoodFood @DCIndustree: Freelance Photographer: Wanderlust: Live music/concert junkie. Life is an adventure.
p980
sg67
Vhttps://pbs.twimg.com/profile_images/532216169621504000/nL-GFTK1_normal.jpeg
p981
sg69
I834
sg70
I458
sg71
I-18000
sg72
Nsg73
I00
sg74
Vhttps://pbs.twimg.com/profile_banners/961301256/1415725083
p982
sg76
I00
sg77
I01
sg78
V050505
p983
sg80
I00
sg81
I00
sg82
Vhttp://pbs.twimg.com/profile_background_images/519698230615887872/YKZAFSJS.jpeg
p984
sg84
ViAmJanuaryJai
p985
sg86
I17
sg87
VJai
p986
sg89
VDDEEF6
p987
sg91
Nsg92
I961301256
sg93
VC0DEED
p988
sbsg95
I0
sg96
V<a href="http://twitter.com/download/iphone" rel="nofollow">Twitter for iPhone</a>
p989
sg98
(lp990
sg92
I542407323709214720
sbag3
(g4
g5
Ntp991
Rp992
(dp993
g9
I1
sg10
Nsg11
Nsg12
(lp994
sg20
I00
sg21
Nsg22
Nsg23
(lp995
sg25
Nsg26
Nsg27
Nsg28
VTue Dec 09 15:51:23 +0000 2014
p996
sg30
Nsg31
Nsg32
Vbsfreeasme
p997
sg33
Nsg34
I2839219335
sg35
Nsg36
I00
sg37
Nsg38
(lp998
g3
(g50
g5
Ntp999
Rp1000
(dp1001
g10
Nsg55
Nsg57
Nsg59
Nsg61
Nsg62
Nsg28
Nsg64
Nsg65
Nsg67
Nsg69
Nsg70
Nsg71
Nsg72
Nsg73
Nsg74
Nsg76
Nsg77
Nsg78
Nsg80
Nsg81
Nsg82
Nsg84
Vbsfreeasme
p1002
sg86
Nsg87
VNicole Renfroe
p1003
sg89
Nsg91
Nsg92
I2839219335
sg93
Nsbasg40
Nsg41
V542345774622064640
p1004
sg43
Nsg44
V@bsfreeasme Love your profile quote.
p1005
sg46
I00
sg47
Ven
p1006
sg49
g3
(g50
g5
Ntp1007
Rp1008
(dp1009
g10
VDC \u2708\ufe0f TX
p1010
sg55
V333333
p1011
sg57
Ven
p1012
sg59
VEastern Time (US & Canada)
p1013
sg61
I554
sg62
I1887
sg28
VTue Nov 20 22:15:05 +0000 2012
p1014
sg64
I00
sg65
VAsst.Editor @GirlMeetsFood: Writer @JKnowsGoodFood @DCIndustree: Freelance Photographer: Wanderlust: Live music/concert junkie. Life is an adventure.
p1015
sg67
Vhttps://pbs.twimg.com/profile_images/532216169621504000/nL-GFTK1_normal.jpeg
p1016
sg69
I834
sg70
I458
sg71
I-18000
sg72
Nsg73
I00
sg74
Vhttps://pbs.twimg.com/profile_banners/961301256/1415725083
p1017
sg76
I00
sg77
I01
sg78
V050505
p1018
sg80
I00
sg81
I00
sg82
Vhttp://pbs.twimg.com/profile_background_images/519698230615887872/YKZAFSJS.jpeg
p1019
sg84
ViAmJanuaryJai
p1020
sg86
I17
sg87
VJai
p1021
sg89
VDDEEF6
p1022
sg91
Nsg92
I961301256
sg93
VC0DEED
p1023
sbsg95
I0
sg96
V<a href="http://twitter.com/download/iphone" rel="nofollow">Twitter for iPhone</a>
p1024
sg98
(lp1025
sg92
I542345774622064640
sbag3
(g4
g5
Ntp1026
Rp1027
(dp1028
g9
I0
sg10
Nsg11
Nsg12
(lp1029
sg20
I00
sg21
Nsg22
Nsg23
(lp1030
sg25
Nsg26
Nsg27
Nsg28
VTue Dec 09 15:50:28 +0000 2014
p1031
sg30
Nsg31
Nsg32
VMaryK0ng
p1032
sg33
Nsg34
I2208417119
sg35
Nsg36
I00
sg37
Nsg38
(lp1033
g3
(g50
g5
Ntp1034
Rp1035
(dp1036
g10
Nsg55
Nsg57
Nsg59
Nsg61
Nsg62
Nsg28
Nsg64
Nsg65
Nsg67
Nsg69
Nsg70
Nsg71
Nsg72
Nsg73
Nsg74
Nsg76
Nsg77
Nsg78
Nsg80
Nsg81
Nsg82
Nsg84
VMaryK0ng
p1037
sg86
Nsg87
VMary Kong-DeVito
p1038
sg89
Nsg91
Nsg92
I2208417119
sg93
Nsbasg40
Nsg41
V542345544744861696
p1039
sg43
I542343995780001792
sg44
V@MaryK0ng Lol, I wish. Not today. May I come by the office tomorrow?
p1040
sg46
I00
sg47
Ven
p1041
sg49
g3
(g50
g5
Ntp1042
Rp1043
(dp1044
g10
VDC \u2708\ufe0f TX
p1045
sg55
V333333
p1046
sg57
Ven
p1047
sg59
VEastern Time (US & Canada)
p1048
sg61
I554
sg62
I1887
sg28
VTue Nov 20 22:15:05 +0000 2012
p1049
sg64
I00
sg65
VAsst.Editor @GirlMeetsFood: Writer @JKnowsGoodFood @DCIndustree: Freelance Photographer: Wanderlust: Live music/concert junkie. Life is an adventure.
p1050
sg67
Vhttps://pbs.twimg.com/profile_images/532216169621504000/nL-GFTK1_normal.jpeg
p1051
sg69
I834
sg70
I458
sg71
I-18000
sg72
Nsg73
I00
sg74
Vhttps://pbs.twimg.com/profile_banners/961301256/1415725083
p1052
sg76
I00
sg77
I01
sg78
V050505
p1053
sg80
I00
sg81
I00
sg82
Vhttp://pbs.twimg.com/profile_background_images/519698230615887872/YKZAFSJS.jpeg
p1054
sg84
ViAmJanuaryJai
p1055
sg86
I17
sg87
VJai
p1056
sg89
VDDEEF6
p1057
sg91
Nsg92
I961301256
sg93
VC0DEED
p1058
sbsg95
I0
sg96
V<a href="http://twitter.com/download/iphone" rel="nofollow">Twitter for iPhone</a>
p1059
sg98
(lp1060
sg92
I542345544744861696
sbag3
(g4
g5
Ntp1061
Rp1062
(dp1063
g9
I1
sg10
Nsg11
Nsg12
(lp1064
g3
(g14
g5
Ntp1065
Rp1066
(dp1067
g18
Vbaconismyfriend
p1068
sbasg20
I00
sg21
Nsg22
Nsg23
(lp1069
sg25
Nsg26
Nsg27
Nsg28
VTue Dec 09 14:12:31 +0000 2014
p1070
sg30
Nsg31
Nsg32
Vjwjecha
p1071
sg33
Nsg34
I17670115
sg35
Nsg36
I00
sg37
Nsg38
(lp1072
g3
(g50
g5
Ntp1073
Rp1074
(dp1075
g10
Nsg55
Nsg57
Nsg59
Nsg61
Nsg62
Nsg28
Nsg64
Nsg65
Nsg67
Nsg69
Nsg70
Nsg71
Nsg72
Nsg73
Nsg74
Nsg76
Nsg77
Nsg78
Nsg80
Nsg81
Nsg82
Nsg84
Vjwjecha
p1076
sg86
Nsg87
VJackie Jecha
p1077
sg89
Nsg91
Nsg92
I17670115
sg93
Nsbasg40
Nsg41
V542320892614037504
p1078
sg43
I542320412928245760
sg44
V@jwjecha Ha Ha! I agree. Just got up to cook \U0001f373 &amp; \U0001f437. #baconismyfriend
p1079
sg46
I00
sg47
Ven
p1080
sg49
g3
(g50
g5
Ntp1081
Rp1082
(dp1083
g10
VDC \u2708\ufe0f TX
p1084
sg55
V333333
p1085
sg57
Ven
p1086
sg59
VEastern Time (US & Canada)
p1087
sg61
I554
sg62
I1887
sg28
VTue Nov 20 22:15:05 +0000 2012
p1088
sg64
I00
sg65
VAsst.Editor @GirlMeetsFood: Writer @JKnowsGoodFood @DCIndustree: Freelance Photographer: Wanderlust: Live music/concert junkie. Life is an adventure.
p1089
sg67
Vhttps://pbs.twimg.com/profile_images/532216169621504000/nL-GFTK1_normal.jpeg
p1090
sg69
I834
sg70
I458
sg71
I-18000
sg72
Nsg73
I00
sg74
Vhttps://pbs.twimg.com/profile_banners/961301256/1415725083
p1091
sg76
I00
sg77
I01
sg78
V050505
p1092
sg80
I00
sg81
I00
sg82
Vhttp://pbs.twimg.com/profile_background_images/519698230615887872/YKZAFSJS.jpeg
p1093
sg84
ViAmJanuaryJai
p1094
sg86
I17
sg87
VJai
p1095
sg89
VDDEEF6
p1096
sg91
Nsg92
I961301256
sg93
VC0DEED
p1097
sbsg95
I0
sg96
V<a href="http://twitter.com/download/iphone" rel="nofollow">Twitter for iPhone</a>
p1098
sg98
(lp1099
sg92
I542320892614037504
sbag3
(g4
g5
Ntp1100
Rp1101
(dp1102
g9
I1
sg10
Nsg11
Nsg12
(lp1103
g3
(g14
g5
Ntp1104
Rp1105
(dp1106
g18
Vwinning
p1107
sbasg20
I00
sg21
Nsg22
Nsg23
(lp1108
sg25
Nsg26
Nsg27
Nsg28
VTue Dec 09 14:08:46 +0000 2014
p1109
sg30
Nsg31
Nsg32
Nsg33
Nsg34
Nsg35
Nsg36
I00
sg37
Nsg38
(lp1110
sg40
Nsg41
V542319951512887296
p1111
sg43
Nsg44
VTwo projects in and it's only 9am! #winning
p1112
sg46
I00
sg47
Ven
p1113
sg49
g3
(g50
g5
Ntp1114
Rp1115
(dp1116
g10
VDC \u2708\ufe0f TX
p1117
sg55
V333333
p1118
sg57
Ven
p1119
sg59
VEastern Time (US & Canada)
p1120
sg61
I554
sg62
I1887
sg28
VTue Nov 20 22:15:05 +0000 2012
p1121
sg64
I00
sg65
VAsst.Editor @GirlMeetsFood: Writer @JKnowsGoodFood @DCIndustree: Freelance Photographer: Wanderlust: Live music/concert junkie. Life is an adventure.
p1122
sg67
Vhttps://pbs.twimg.com/profile_images/532216169621504000/nL-GFTK1_normal.jpeg
p1123
sg69
I834
sg70
I458
sg71
I-18000
sg72
Nsg73
I00
sg74
Vhttps://pbs.twimg.com/profile_banners/961301256/1415725083
p1124
sg76
I00
sg77
I01
sg78
V050505
p1125
sg80
I00
sg81
I00
sg82
Vhttp://pbs.twimg.com/profile_background_images/519698230615887872/YKZAFSJS.jpeg
p1126
sg84
ViAmJanuaryJai
p1127
sg86
I17
sg87
VJai
p1128
sg89
VDDEEF6
p1129
sg91
Nsg92
I961301256
sg93
VC0DEED
p1130
sbsg95
I0
sg96
V<a href="http://twitter.com/download/iphone" rel="nofollow">Twitter for iPhone</a>
p1131
sg98
(lp1132
sg92
I542319951512887296
sbag3
(g4
g5
Ntp1133
Rp1134
(dp1135
g9
I0
sg10
Nsg11
Nsg12
(lp1136
sg20
I00
sg21
Nsg22
Nsg23
(lp1137
sg25
Nsg26
Nsg27
Nsg28
VTue Dec 09 10:31:49 +0000 2014
p1138
sg30
Nsg31
Nsg32
Nsg33
Nsg34
Nsg35
Nsg36
I00
sg37
Nsg38
(lp1139
sg40
Nsg41
V542265352928120832
p1140
sg43
Nsg44
VSomething great will happen today, I can feel it
p1141
sg46
I00
sg47
Ven
p1142
sg49
g3
(g50
g5
Ntp1143
Rp1144
(dp1145
g10
VDC \u2708\ufe0f TX
p1146
sg55
V333333
p1147
sg57
Ven
p1148
sg59
VEastern Time (US & Canada)
p1149
sg61
I554
sg62
I1887
sg28
VTue Nov 20 22:15:05 +0000 2012
p1150
sg64
I00
sg65
VAsst.Editor @GirlMeetsFood: Writer @JKnowsGoodFood @DCIndustree: Freelance Photographer: Wanderlust: Live music/concert junkie. Life is an adventure.
p1151
sg67
Vhttps://pbs.twimg.com/profile_images/532216169621504000/nL-GFTK1_normal.jpeg
p1152
sg69
I834
sg70
I458
sg71
I-18000
sg72
Nsg73
I00
sg74
Vhttps://pbs.twimg.com/profile_banners/961301256/1415725083
p1153
sg76
I00
sg77
I01
sg78
V050505
p1154
sg80
I00
sg81
I00
sg82
Vhttp://pbs.twimg.com/profile_background_images/519698230615887872/YKZAFSJS.jpeg
p1155
sg84
ViAmJanuaryJai
p1156
sg86
I17
sg87
VJai
p1157
sg89
VDDEEF6
p1158
sg91
Nsg92
I961301256
sg93
VC0DEED
p1159
sbsg95
I0
sg96
V<a href="http://twitter.com/download/iphone" rel="nofollow">Twitter for iPhone</a>
p1160
sg98
(lp1161
sg92
I542265352928120832
sbaa.