(lp0
S'PKayven'
p1
a(lp2
ccopy_reg
_reconstructor
p3
(ctwitter
Status
p4
c__builtin__
object
p5
Ntp6
Rp7
(dp8
S'_favorite_count'
p9
I0
sS'_location'
p10
NsS'_withheld_scope'
p11
NsS'hashtags'
p12
(lp13
sS'_truncated'
p14
I00
sS'_retweeted_status'
p15
g3
(g4
g5
Ntp16
Rp17
(dp18
g9
I1
sg10
Nsg11
Nsg12
(lp19
sg14
I00
sg15
NsS'_withheld_copyright'
p20
NsS'media'
p21
(lp22
(dp23
Vsource_user_id
p24
I2381747401
sVsource_status_id_str
p25
V536219528485564416
p26
sVexpanded_url
p27
Vhttp://twitter.com/WomensHeaIthNow/status/536219528485564416/photo/1
p28
sVdisplay_url
p29
Vpic.twitter.com/D7xm7ZM81t
p30
sVurl
p31
Vhttp://t.co/D7xm7ZM81t
p32
sVmedia_url_https
p33
Vhttps://pbs.twimg.com/media/B3EI0bkCAAAuEDL.png
p34
sVsource_user_id_str
p35
V2381747401
p36
sVsource_status_id
p37
I536219528485564416
sVid_str
p38
V536219527478902784
p39
sVsizes
p40
(dp41
Vsmall
p42
(dp43
Vh
p44
I340
sVresize
p45
Vfit
p46
sVw
p47
I340
ssVlarge
p48
(dp49
Vh
p50
I534
sVresize
p51
Vfit
p52
sVw
p53
I533
ssVmedium
p54
(dp55
Vh
p56
I534
sVresize
p57
Vfit
p58
sVw
p59
I533
ssVthumb
p60
(dp61
Vh
p62
I150
sVresize
p63
Vcrop
p64
sVw
p65
I150
sssVindices
p66
(lp67
I114
aI136
asVtype
p68
Vphoto
p69
sVid
p70
I536219527478902784
sVmedia_url
p71
Vhttp://pbs.twimg.com/media/B3EI0bkCAAAuEDL.png
p72
sasS'_place'
p73
NsS'_contributors'
p74
NsS'_current_user_retweet'
p75
NsS'_created_at'
p76
VSun Dec 14 16:40:12 +0000 2014
p77
sS'_scopes'
p78
NsS'_possibly_sensitive'
p79
I00
sS'_in_reply_to_screen_name'
p80
NsS'_coordinates'
p81
NsS'_in_reply_to_user_id'
p82
NsS'_geo'
p83
NsS'_favorited'
p84
I00
sS'_withheld_in_countries'
p85
NsS'user_mentions'
p86
(lp87
sS'_now'
p88
NsS'_id_str'
p89
V544169998982209536
p90
sS'_in_reply_to_status_id'
p91
NsS'_text'
p92
V2 SHOCKING SUPPLEMENTS fitness girls are using TO TONE up their bodies! \u000aLIMITED TIME ONLY\u000ahttp://t.co/81AXskxxoi\u000ahttp://t.co/D7xm7ZM81t
p93
sS'_retweeted'
p94
I00
sS'lang'
p95
Ven
p96
sS'_user'
p97
g3
(ctwitter
User
p98
g5
Ntp99
Rp100
(dp101
g10
VUSA 
p102
sS'_profile_text_color'
p103
V333333
p104
sS'_lang'
p105
Ven
p106
sS'_time_zone'
p107
VTijuana
p108
sS'_followers_count'
p109
I4124
sS'_statuses_count'
p110
I394
sg76
VSun Oct 05 13:56:55 +0000 2014
p111
sS'_verified'
p112
I00
sS'_description'
p113
VHealth Tips and Products on sale at affordable prices to help you stay in shape and stay healthy. Links are available
p114
sS'_profile_image_url'
p115
Vhttps://pbs.twimg.com/profile_images/543805259798179842/qOPt3XPs_normal.jpeg
p116
sS'_friends_count'
p117
I2149
sS'_favourites_count'
p118
I364
sS'_utc_offset'
p119
I-28800
sS'_status'
p120
NsS'_protected'
p121
I00
sS'_profile_banner_url'
p122
Vhttps://pbs.twimg.com/profile_banners/2807852800/1418488331
p123
sS'_notifications'
p124
I00
sS'_profile_background_tile'
p125
I00
sS'_profile_link_color'
p126
V0084B4
p127
sS'_geo_enabled'
p128
I00
sS'_contributors_enabled'
p129
I00
sS'_profile_background_image_url'
p130
Vhttp://abs.twimg.com/images/themes/theme1/bg.png
p131
sS'_screen_name'
p132
VStaylnShape
p133
sS'_listed_count'
p134
I2
sS'_name'
p135
VMaria 
p136
sS'_profile_sidebar_fill_color'
p137
VDDEEF6
p138
sS'_url'
p139
NsS'_id'
p140
I2807852800
sS'_profile_background_color'
p141
VC0DEED
p142
sbsS'_retweet_count'
p143
I40
sS'_source'
p144
V<a href="https://about.twitter.com/products/tweetdeck" rel="nofollow">TweetDeck</a>
p145
sS'urls'
p146
(lp147
g3
(ctwitter
Url
p148
g5
Ntp149
Rp150
(dp151
S'url'
p152
Vhttp://t.co/81AXskxxoi
p153
sS'expanded_url'
p154
Vhttp://be-heaIthy.com/ZyTzYp
p155
sbasg140
I544169998982209536
sbsg20
Nsg21
(lp156
(dp157
Vsource_user_id
p158
I2381747401
sVsource_status_id_str
p159
V536219528485564416
p160
sVexpanded_url
p161
Vhttp://twitter.com/WomensHeaIthNow/status/536219528485564416/photo/1
p162
sVdisplay_url
p163
Vpic.twitter.com/D7xm7ZM81t
p164
sVurl
p165
Vhttp://t.co/D7xm7ZM81t
p166
sVmedia_url_https
p167
Vhttps://pbs.twimg.com/media/B3EI0bkCAAAuEDL.png
p168
sVsource_user_id_str
p169
V2381747401
p170
sVsource_status_id
p171
I536219528485564416
sVid_str
p172
V536219527478902784
p173
sVsizes
p174
(dp175
Vsmall
p176
(dp177
Vh
p178
I340
sVresize
p179
Vfit
p180
sVw
p181
I340
ssVlarge
p182
(dp183
Vh
p184
I534
sVresize
p185
Vfit
p186
sVw
p187
I533
ssVmedium
p188
(dp189
Vh
p190
I534
sVresize
p191
Vfit
p192
sVw
p193
I533
ssVthumb
p194
(dp195
Vh
p196
I150
sVresize
p197
Vcrop
p198
sVw
p199
I150
sssVindices
p200
(lp201
I139
aI140
asVtype
p202
Vphoto
p203
sVid
p204
I536219527478902784
sVmedia_url
p205
Vhttp://pbs.twimg.com/media/B3EI0bkCAAAuEDL.png
p206
sasg73
Nsg74
Nsg75
Nsg76
VSun Dec 14 20:07:00 +0000 2014
p207
sg78
Nsg79
I00
sg80
Nsg81
Nsg82
Nsg83
Nsg84
I00
sg85
Nsg86
(lp208
g3
(g98
g5
Ntp209
Rp210
(dp211
g10
Nsg103
Nsg105
Nsg107
Nsg109
Nsg110
Nsg76
Nsg112
Nsg113
Nsg115
Nsg117
Nsg118
Nsg119
Nsg120
Nsg121
Nsg122
Nsg124
Nsg125
Nsg126
Nsg128
Nsg129
Nsg130
Nsg132
VStaylnShape
p212
sg134
Nsg135
VMaria 
p213
sg137
Nsg139
Nsg140
I2807852800
sg141
Nsbasg88
Nsg89
V544222043332698112
p214
sg91
Nsg92
VRT @StaylnShape: 2 SHOCKING SUPPLEMENTS fitness girls are using TO TONE up their bodies! \u000aLIMITED TIME ONLY\u000ahttp://t.co/81AXskxxoi\u000ahttp://t\u2026
p215
sg94
I00
sg95
Ven
p216
sg97
g3
(g98
g5
Ntp217
Rp218
(dp219
g10
VThe Road.
p220
sg103
V575757
p221
sg105
Ven
p222
sg107
VPacific Time (US & Canada)
p223
sg109
I32903
sg110
I11749
sg76
VFri Jun 25 19:29:18 +0000 2010
p224
sg112
I00
sg113
VFast & Furious Lifestyle,  I'm that nigga your momma told you not to mess with. That orange car, Is my Firebird. ( Backup Account )
p225
sg115
Vhttps://pbs.twimg.com/profile_images/449550509867663360/jprsiSlS_normal.jpeg
p226
sg117
I36502
sg118
I163
sg119
I-28800
sg120
Nsg121
I00
sg122
Vhttps://pbs.twimg.com/profile_banners/159575564/1354380596
p227
sg124
I00
sg125
I00
sg126
V990000
p228
sg128
I00
sg129
I00
sg130
Vhttp://pbs.twimg.com/profile_background_images/713175521/d0f6a0ea0136c05f8bf1810733775487.jpeg
p229
sg132
VPKayven
p230
sg134
I200
sg135
VPK - Street Racer
p231
sg137
V000000
p232
sg139
Nsg140
I159575564
sg141
V000000
p233
sbsg143
I40
sg144
V<a href="http://www.hootsuite.com" rel="nofollow">Hootsuite</a>
p234
sg146
(lp235
g3
(g148
g5
Ntp236
Rp237
(dp238
g152
Vhttp://t.co/81AXskxxoi
p239
sg154
Vhttp://be-heaIthy.com/ZyTzYp
p240
sbasg140
I544222043332698112
sbag3
(g4
g5
Ntp241
Rp242
(dp243
g9
I0
sg10
Nsg11
Nsg12
(lp244
sg14
I00
sg15
g3
(g4
g5
Ntp245
Rp246
(dp247
g9
I3
sg10
Nsg11
Nsg12
(lp248
sg14
I00
sg15
Nsg20
Nsg21
(lp249
(dp250
Vsource_user_id
p251
I2381747401
sVsource_status_id_str
p252
V536219638342758400
p253
sVexpanded_url
p254
Vhttp://twitter.com/WomensHeaIthNow/status/536219638342758400/photo/1
p255
sVdisplay_url
p256
Vpic.twitter.com/roTDasz8Il
p257
sVurl
p258
Vhttp://t.co/roTDasz8Il
p259
sVmedia_url_https
p260
Vhttps://pbs.twimg.com/media/B3EI61ACQAAW9Gi.png
p261
sVsource_user_id_str
p262
V2381747401
p263
sVsource_status_id
p264
I536219638342758400
sVid_str
p265
V536219637386461184
p266
sVsizes
p267
(dp268
Vlarge
p269
(dp270
Vh
p271
I534
sVresize
p272
Vfit
p273
sVw
p274
I535
ssVsmall
p275
(dp276
Vh
p277
I339
sVresize
p278
Vfit
p279
sVw
p280
I340
ssVmedium
p281
(dp282
Vh
p283
I534
sVresize
p284
Vfit
p285
sVw
p286
I535
ssVthumb
p287
(dp288
Vh
p289
I150
sVresize
p290
Vcrop
p291
sVw
p292
I150
sssVindices
p293
(lp294
I76
aI98
asVtype
p295
Vphoto
p296
sVid
p297
I536219637386461184
sVmedia_url
p298
Vhttp://pbs.twimg.com/media/B3EI61ACQAAW9Gi.png
p299
sasg73
Nsg74
Nsg75
Nsg76
VSun Dec 14 16:40:18 +0000 2014
p300
sg78
Nsg79
I00
sg80
Nsg81
Nsg82
Nsg83
Nsg84
I00
sg85
Nsg86
(lp301
sg88
Nsg89
V544170024718438400
p302
sg91
Nsg92
VSecret Diet Tips that help people lose weight Fast! \u000ahttp://t.co/81AXskxxoi\u000ahttp://t.co/roTDasz8Il
p303
sg94
I00
sg95
Ven
p304
sg97
g3
(g98
g5
Ntp305
Rp306
(dp307
g10
VUSA 
p308
sg103
V333333
p309
sg105
Ven
p310
sg107
VTijuana
p311
sg109
I4124
sg110
I394
sg76
VSun Oct 05 13:56:55 +0000 2014
p312
sg112
I00
sg113
VHealth Tips and Products on sale at affordable prices to help you stay in shape and stay healthy. Links are available
p313
sg115
Vhttps://pbs.twimg.com/profile_images/543805259798179842/qOPt3XPs_normal.jpeg
p314
sg117
I2149
sg118
I364
sg119
I-28800
sg120
Nsg121
I00
sg122
Vhttps://pbs.twimg.com/profile_banners/2807852800/1418488331
p315
sg124
I00
sg125
I00
sg126
V0084B4
p316
sg128
I00
sg129
I00
sg130
Vhttp://abs.twimg.com/images/themes/theme1/bg.png
p317
sg132
VStaylnShape
p318
sg134
I2
sg135
VMaria 
p319
sg137
VDDEEF6
p320
sg139
Nsg140
I2807852800
sg141
VC0DEED
p321
sbsg143
I40
sg144
V<a href="https://about.twitter.com/products/tweetdeck" rel="nofollow">TweetDeck</a>
p322
sg146
(lp323
g3
(g148
g5
Ntp324
Rp325
(dp326
g152
Vhttp://t.co/81AXskxxoi
p327
sg154
Vhttp://be-heaIthy.com/ZyTzYp
p328
sbasg140
I544170024718438400
sbsg20
Nsg21
(lp329
(dp330
Vsource_user_id
p331
I2381747401
sVsource_status_id_str
p332
V536219638342758400
p333
sVexpanded_url
p334
Vhttp://twitter.com/WomensHeaIthNow/status/536219638342758400/photo/1
p335
sVdisplay_url
p336
Vpic.twitter.com/roTDasz8Il
p337
sVurl
p338
Vhttp://t.co/roTDasz8Il
p339
sVmedia_url_https
p340
Vhttps://pbs.twimg.com/media/B3EI61ACQAAW9Gi.png
p341
sVsource_user_id_str
p342
V2381747401
p343
sVsource_status_id
p344
I536219638342758400
sVid_str
p345
V536219637386461184
p346
sVsizes
p347
(dp348
Vlarge
p349
(dp350
Vh
p351
I534
sVresize
p352
Vfit
p353
sVw
p354
I535
ssVsmall
p355
(dp356
Vh
p357
I339
sVresize
p358
Vfit
p359
sVw
p360
I340
ssVmedium
p361
(dp362
Vh
p363
I534
sVresize
p364
Vfit
p365
sVw
p366
I535
ssVthumb
p367
(dp368
Vh
p369
I150
sVresize
p370
Vcrop
p371
sVw
p372
I150
sssVindices
p373
(lp374
I93
aI115
asVtype
p375
Vphoto
p376
sVid
p377
I536219637386461184
sVmedia_url
p378
Vhttp://pbs.twimg.com/media/B3EI61ACQAAW9Gi.png
p379
sasg73
Nsg74
Nsg75
Nsg76
VSun Dec 14 20:06:15 +0000 2014
p380
sg78
Nsg79
I00
sg80
Nsg81
Nsg82
Nsg83
Nsg84
I00
sg85
Nsg86
(lp381
g3
(g98
g5
Ntp382
Rp383
(dp384
g10
Nsg103
Nsg105
Nsg107
Nsg109
Nsg110
Nsg76
Nsg112
Nsg113
Nsg115
Nsg117
Nsg118
Nsg119
Nsg120
Nsg121
Nsg122
Nsg124
Nsg125
Nsg126
Nsg128
Nsg129
Nsg130
Nsg132
VStaylnShape
p385
sg134
Nsg135
VMaria 
p386
sg137
Nsg139
Nsg140
I2807852800
sg141
Nsbasg88
Nsg89
V544221854425440257
p387
sg91
Nsg92
VRT @StaylnShape: Secret Diet Tips that help people lose weight Fast! \u000ahttp://t.co/81AXskxxoi\u000ahttp://t.co/roTDasz8Il
p388
sg94
I00
sg95
Ven
p389
sg97
g3
(g98
g5
Ntp390
Rp391
(dp392
g10
VThe Road.
p393
sg103
V575757
p394
sg105
Ven
p395
sg107
VPacific Time (US & Canada)
p396
sg109
I32903
sg110
I11749
sg76
VFri Jun 25 19:29:18 +0000 2010
p397
sg112
I00
sg113
VFast & Furious Lifestyle,  I'm that nigga your momma told you not to mess with. That orange car, Is my Firebird. ( Backup Account )
p398
sg115
Vhttps://pbs.twimg.com/profile_images/449550509867663360/jprsiSlS_normal.jpeg
p399
sg117
I36502
sg118
I163
sg119
I-28800
sg120
Nsg121
I00
sg122
Vhttps://pbs.twimg.com/profile_banners/159575564/1354380596
p400
sg124
I00
sg125
I00
sg126
V990000
p401
sg128
I00
sg129
I00
sg130
Vhttp://pbs.twimg.com/profile_background_images/713175521/d0f6a0ea0136c05f8bf1810733775487.jpeg
p402
sg132
VPKayven
p403
sg134
I200
sg135
VPK - Street Racer
p404
sg137
V000000
p405
sg139
Nsg140
I159575564
sg141
V000000
p406
sbsg143
I40
sg144
V<a href="http://www.hootsuite.com" rel="nofollow">Hootsuite</a>
p407
sg146
(lp408
g3
(g148
g5
Ntp409
Rp410
(dp411
g152
Vhttp://t.co/81AXskxxoi
p412
sg154
Vhttp://be-heaIthy.com/ZyTzYp
p413
sbasg140
I544221854425440257
sbag3
(g4
g5
Ntp414
Rp415
(dp416
g9
I0
sg10
Nsg11
Nsg12
(lp417
sg14
I00
sg15
g3
(g4
g5
Ntp418
Rp419
(dp420
g9
I1
sg10
Nsg11
Nsg12
(lp421
sg14
I00
sg15
Nsg20
Nsg21
(lp422
(dp423
Vsource_user_id
p424
I2381747401
sVsource_status_id_str
p425
V536219638342758400
p426
sVexpanded_url
p427
Vhttp://twitter.com/WomensHeaIthNow/status/536219638342758400/photo/1
p428
sVdisplay_url
p429
Vpic.twitter.com/ygK6h1oyX9
p430
sVurl
p431
Vhttp://t.co/ygK6h1oyX9
p432
sVmedia_url_https
p433
Vhttps://pbs.twimg.com/media/B3EI61ACQAAW9Gi.png
p434
sVsource_user_id_str
p435
V2381747401
p436
sVsource_status_id
p437
I536219638342758400
sVid_str
p438
V536219637386461184
p439
sVsizes
p440
(dp441
Vlarge
p442
(dp443
Vh
p444
I534
sVresize
p445
Vfit
p446
sVw
p447
I535
ssVsmall
p448
(dp449
Vh
p450
I339
sVresize
p451
Vfit
p452
sVw
p453
I340
ssVmedium
p454
(dp455
Vh
p456
I534
sVresize
p457
Vfit
p458
sVw
p459
I535
ssVthumb
p460
(dp461
Vh
p462
I150
sVresize
p463
Vcrop
p464
sVw
p465
I150
sssVindices
p466
(lp467
I76
aI98
asVtype
p468
Vphoto
p469
sVid
p470
I536219637386461184
sVmedia_url
p471
Vhttp://pbs.twimg.com/media/B3EI61ACQAAW9Gi.png
p472
sasg73
Nsg74
Nsg75
Nsg76
VSun Dec 14 16:40:18 +0000 2014
p473
sg78
Nsg79
I00
sg80
Nsg81
Nsg82
Nsg83
Nsg84
I00
sg85
Nsg86
(lp474
sg88
Nsg89
V544170024819523585
p475
sg91
Nsg92
VSecret Diet Tips that help people lose weight Fast! \u000ahttp://t.co/AQNoHKOPsK\u000ahttp://t.co/ygK6h1oyX9
p476
sg94
I00
sg95
Ven
p477
sg97
g3
(g98
g5
Ntp478
Rp479
(dp480
g10
VNEW YORK
p481
sg103
V333333
p482
sg105
Ven
p483
sg107
VEastern Time (US & Canada)
p484
sg109
I4304
sg110
I304
sg76
VSun Oct 05 02:49:56 +0000 2014
p485
sg112
I00
sg113
VFitness Products available. #HealthyLifestyle #StayInShape
p486
sg115
Vhttps://pbs.twimg.com/profile_images/543364312861913088/cu1E7yLp_normal.jpeg
p487
sg117
I3531
sg118
I210
sg119
I-18000
sg120
Nsg121
I00
sg122
Vhttps://pbs.twimg.com/profile_banners/2806620167/1418383091
p488
sg124
I00
sg125
I00
sg126
V0084B4
p489
sg128
I00
sg129
I00
sg130
Vhttp://abs.twimg.com/images/themes/theme1/bg.png
p490
sg132
VMusclePr0ducts
p491
sg134
I1
sg135
VMuscle Products
p492
sg137
VDDEEF6
p493
sg139
Vhttp://t.co/NdelrLmEWt
p494
sg140
I2806620167
sg141
VC0DEED
p495
sbsg143
I39
sg144
V<a href="https://about.twitter.com/products/tweetdeck" rel="nofollow">TweetDeck</a>
p496
sg146
(lp497
g3
(g148
g5
Ntp498
Rp499
(dp500
g152
Vhttp://t.co/AQNoHKOPsK
p501
sg154
Vhttp://be-heaIthy.com/ZyTzYp
p502
sbasg140
I544170024819523585
sbsg20
Nsg21
(lp503
(dp504
Vsource_user_id
p505
I2381747401
sVsource_status_id_str
p506
V536219638342758400
p507
sVexpanded_url
p508
Vhttp://twitter.com/WomensHeaIthNow/status/536219638342758400/photo/1
p509
sVdisplay_url
p510
Vpic.twitter.com/ygK6h1oyX9
p511
sVurl
p512
Vhttp://t.co/ygK6h1oyX9
p513
sVmedia_url_https
p514
Vhttps://pbs.twimg.com/media/B3EI61ACQAAW9Gi.png
p515
sVsource_user_id_str
p516
V2381747401
p517
sVsource_status_id
p518
I536219638342758400
sVid_str
p519
V536219637386461184
p520
sVsizes
p521
(dp522
Vlarge
p523
(dp524
Vh
p525
I534
sVresize
p526
Vfit
p527
sVw
p528
I535
ssVsmall
p529
(dp530
Vh
p531
I339
sVresize
p532
Vfit
p533
sVw
p534
I340
ssVmedium
p535
(dp536
Vh
p537
I534
sVresize
p538
Vfit
p539
sVw
p540
I535
ssVthumb
p541
(dp542
Vh
p543
I150
sVresize
p544
Vcrop
p545
sVw
p546
I150
sssVindices
p547
(lp548
I96
aI118
asVtype
p549
Vphoto
p550
sVid
p551
I536219637386461184
sVmedia_url
p552
Vhttp://pbs.twimg.com/media/B3EI61ACQAAW9Gi.png
p553
sasg73
Nsg74
Nsg75
Nsg76
VSun Dec 14 20:05:37 +0000 2014
p554
sg78
Nsg79
I00
sg80
Nsg81
Nsg82
Nsg83
Nsg84
I00
sg85
Nsg86
(lp555
g3
(g98
g5
Ntp556
Rp557
(dp558
g10
Nsg103
Nsg105
Nsg107
Nsg109
Nsg110
Nsg76
Nsg112
Nsg113
Nsg115
Nsg117
Nsg118
Nsg119
Nsg120
Nsg121
Nsg122
Nsg124
Nsg125
Nsg126
Nsg128
Nsg129
Nsg130
Nsg132
VMusclePr0ducts
p559
sg134
Nsg135
VMuscle Products
p560
sg137
Nsg139
Nsg140
I2806620167
sg141
Nsbasg88
Nsg89
V544221694656000000
p561
sg91
Nsg92
VRT @MusclePr0ducts: Secret Diet Tips that help people lose weight Fast! \u000ahttp://t.co/AQNoHKOPsK\u000ahttp://t.co/ygK6h1oyX9
p562
sg94
I00
sg95
Ven
p563
sg97
g3
(g98
g5
Ntp564
Rp565
(dp566
g10
VThe Road.
p567
sg103
V575757
p568
sg105
Ven
p569
sg107
VPacific Time (US & Canada)
p570
sg109
I32903
sg110
I11749
sg76
VFri Jun 25 19:29:18 +0000 2010
p571
sg112
I00
sg113
VFast & Furious Lifestyle,  I'm that nigga your momma told you not to mess with. That orange car, Is my Firebird. ( Backup Account )
p572
sg115
Vhttps://pbs.twimg.com/profile_images/449550509867663360/jprsiSlS_normal.jpeg
p573
sg117
I36502
sg118
I163
sg119
I-28800
sg120
Nsg121
I00
sg122
Vhttps://pbs.twimg.com/profile_banners/159575564/1354380596
p574
sg124
I00
sg125
I00
sg126
V990000
p575
sg128
I00
sg129
I00
sg130
Vhttp://pbs.twimg.com/profile_background_images/713175521/d0f6a0ea0136c05f8bf1810733775487.jpeg
p576
sg132
VPKayven
p577
sg134
I200
sg135
VPK - Street Racer
p578
sg137
V000000
p579
sg139
Nsg140
I159575564
sg141
V000000
p580
sbsg143
I39
sg144
V<a href="http://www.hootsuite.com" rel="nofollow">Hootsuite</a>
p581
sg146
(lp582
g3
(g148
g5
Ntp583
Rp584
(dp585
g152
Vhttp://t.co/AQNoHKOPsK
p586
sg154
Vhttp://be-heaIthy.com/ZyTzYp
p587
sbasg140
I544221694656000000
sbag3
(g4
g5
Ntp588
Rp589
(dp590
g9
I0
sg10
Nsg11
Nsg12
(lp591
sg14
I00
sg15
g3
(g4
g5
Ntp592
Rp593
(dp594
g9
I2
sg10
Nsg11
Nsg12
(lp595
sg14
I00
sg15
Nsg20
Nsg21
(lp596
(dp597
Vsource_user_id
p598
I2381747401
sVsource_status_id_str
p599
V537306326087380993
p600
sVexpanded_url
p601
Vhttp://twitter.com/WomensHeaIthNow/status/537306326087380993/photo/1
p602
sVdisplay_url
p603
Vpic.twitter.com/HmzTmEtyCM
p604
sVurl
p605
Vhttp://t.co/HmzTmEtyCM
p606
sVmedia_url_https
p607
Vhttps://pbs.twimg.com/media/B3TlQZQCQAI0XKc.png
p608
sVsource_user_id_str
p609
V2381747401
p610
sVsource_status_id
p611
I537306326087380993
sVid_str
p612
V537306325382742018
p613
sVsizes
p614
(dp615
Vsmall
p616
(dp617
Vh
p618
I225
sVresize
p619
Vfit
p620
sVw
p621
I340
ssVlarge
p622
(dp623
Vh
p624
I327
sVresize
p625
Vfit
p626
sVw
p627
I493
ssVmedium
p628
(dp629
Vh
p630
I327
sVresize
p631
Vfit
p632
sVw
p633
I493
ssVthumb
p634
(dp635
Vh
p636
I150
sVresize
p637
Vcrop
p638
sVw
p639
I150
sssVindices
p640
(lp641
I87
aI109
asVtype
p642
Vphoto
p643
sVid
p644
I537306325382742018
sVmedia_url
p645
Vhttp://pbs.twimg.com/media/B3TlQZQCQAI0XKc.png
p646
sasg73
Nsg74
Nsg75
Nsg76
VSun Dec 14 16:40:22 +0000 2014
p647
sg78
Nsg79
I00
sg80
Nsg81
Nsg82
Nsg83
Nsg84
I00
sg85
Nsg86
(lp648
sg88
Nsg89
V544170041915084800
p649
sg91
Nsg92
VCheck Out This New Supplement That Can Help You Get Toned Fast!\u000ahttp://t.co/w5862dOB1M\u000ahttp://t.co/HmzTmEtyCM
p650
sg94
I00
sg95
Ven
p651
sg97
g3
(g98
g5
Ntp652
Rp653
(dp654
g10
VNEW YORK
p655
sg103
V333333
p656
sg105
Ven
p657
sg107
VEastern Time (US & Canada)
p658
sg109
I4304
sg110
I304
sg76
VSun Oct 05 02:49:56 +0000 2014
p659
sg112
I00
sg113
VFitness Products available. #HealthyLifestyle #StayInShape
p660
sg115
Vhttps://pbs.twimg.com/profile_images/543364312861913088/cu1E7yLp_normal.jpeg
p661
sg117
I3531
sg118
I210
sg119
I-18000
sg120
Nsg121
I00
sg122
Vhttps://pbs.twimg.com/profile_banners/2806620167/1418383091
p662
sg124
I00
sg125
I00
sg126
V0084B4
p663
sg128
I00
sg129
I00
sg130
Vhttp://abs.twimg.com/images/themes/theme1/bg.png
p664
sg132
VMusclePr0ducts
p665
sg134
I1
sg135
VMuscle Products
p666
sg137
VDDEEF6
p667
sg139
Vhttp://t.co/NdelrLmEWt
p668
sg140
I2806620167
sg141
VC0DEED
p669
sbsg143
I37
sg144
V<a href="https://about.twitter.com/products/tweetdeck" rel="nofollow">TweetDeck</a>
p670
sg146
(lp671
g3
(g148
g5
Ntp672
Rp673
(dp674
g152
Vhttp://t.co/w5862dOB1M
p675
sg154
Vhttp://be-heaIthy.com/ZyTzYp
p676
sbasg140
I544170041915084800
sbsg20
Nsg21
(lp677
(dp678
Vsource_user_id
p679
I2381747401
sVsource_status_id_str
p680
V537306326087380993
p681
sVexpanded_url
p682
Vhttp://twitter.com/WomensHeaIthNow/status/537306326087380993/photo/1
p683
sVdisplay_url
p684
Vpic.twitter.com/HmzTmEtyCM
p685
sVurl
p686
Vhttp://t.co/HmzTmEtyCM
p687
sVmedia_url_https
p688
Vhttps://pbs.twimg.com/media/B3TlQZQCQAI0XKc.png
p689
sVsource_user_id_str
p690
V2381747401
p691
sVsource_status_id
p692
I537306326087380993
sVid_str
p693
V537306325382742018
p694
sVsizes
p695
(dp696
Vsmall
p697
(dp698
Vh
p699
I225
sVresize
p700
Vfit
p701
sVw
p702
I340
ssVlarge
p703
(dp704
Vh
p705
I327
sVresize
p706
Vfit
p707
sVw
p708
I493
ssVmedium
p709
(dp710
Vh
p711
I327
sVresize
p712
Vfit
p713
sVw
p714
I493
ssVthumb
p715
(dp716
Vh
p717
I150
sVresize
p718
Vcrop
p719
sVw
p720
I150
sssVindices
p721
(lp722
I107
aI129
asVtype
p723
Vphoto
p724
sVid
p725
I537306325382742018
sVmedia_url
p726
Vhttp://pbs.twimg.com/media/B3TlQZQCQAI0XKc.png
p727
sasg73
Nsg74
Nsg75
Nsg76
VSun Dec 14 20:05:10 +0000 2014
p728
sg78
Nsg79
I00
sg80
Nsg81
Nsg82
Nsg83
Nsg84
I00
sg85
Nsg86
(lp729
g3
(g98
g5
Ntp730
Rp731
(dp732
g10
Nsg103
Nsg105
Nsg107
Nsg109
Nsg110
Nsg76
Nsg112
Nsg113
Nsg115
Nsg117
Nsg118
Nsg119
Nsg120
Nsg121
Nsg122
Nsg124
Nsg125
Nsg126
Nsg128
Nsg129
Nsg130
Nsg132
VMusclePr0ducts
p733
sg134
Nsg135
VMuscle Products
p734
sg137
Nsg139
Nsg140
I2806620167
sg141
Nsbasg88
Nsg89
V544221581481095172
p735
sg91
Nsg92
VRT @MusclePr0ducts: Check Out This New Supplement That Can Help You Get Toned Fast!\u000ahttp://t.co/w5862dOB1M\u000ahttp://t.co/HmzTmEtyCM
p736
sg94
I00
sg95
Ven
p737
sg97
g3
(g98
g5
Ntp738
Rp739
(dp740
g10
VThe Road.
p741
sg103
V575757
p742
sg105
Ven
p743
sg107
VPacific Time (US & Canada)
p744
sg109
I32903
sg110
I11749
sg76
VFri Jun 25 19:29:18 +0000 2010
p745
sg112
I00
sg113
VFast & Furious Lifestyle,  I'm that nigga your momma told you not to mess with. That orange car, Is my Firebird. ( Backup Account )
p746
sg115
Vhttps://pbs.twimg.com/profile_images/449550509867663360/jprsiSlS_normal.jpeg
p747
sg117
I36502
sg118
I163
sg119
I-28800
sg120
Nsg121
I00
sg122
Vhttps://pbs.twimg.com/profile_banners/159575564/1354380596
p748
sg124
I00
sg125
I00
sg126
V990000
p749
sg128
I00
sg129
I00
sg130
Vhttp://pbs.twimg.com/profile_background_images/713175521/d0f6a0ea0136c05f8bf1810733775487.jpeg
p750
sg132
VPKayven
p751
sg134
I200
sg135
VPK - Street Racer
p752
sg137
V000000
p753
sg139
Nsg140
I159575564
sg141
V000000
p754
sbsg143
I37
sg144
V<a href="http://www.hootsuite.com" rel="nofollow">Hootsuite</a>
p755
sg146
(lp756
g3
(g148
g5
Ntp757
Rp758
(dp759
g152
Vhttp://t.co/w5862dOB1M
p760
sg154
Vhttp://be-heaIthy.com/ZyTzYp
p761
sbasg140
I544221581481095172
sbag3
(g4
g5
Ntp762
Rp763
(dp764
g9
I0
sg10
Nsg11
Nsg12
(lp765
sg14
I00
sg15
g3
(g4
g5
Ntp766
Rp767
(dp768
g9
I2
sg10
Nsg11
Nsg12
(lp769
sg14
I00
sg15
Nsg20
Nsg21
(lp770
(dp771
Vsource_user_id
p772
I2381747401
sVsource_status_id_str
p773
V539845402044796928
p774
sVexpanded_url
p775
Vhttp://twitter.com/WomensHeaIthNow/status/539845402044796928/photo/1
p776
sVdisplay_url
p777
Vpic.twitter.com/uXOSt598Nz
p778
sVurl
p779
Vhttp://t.co/uXOSt598Nz
p780
sVmedia_url_https
p781
Vhttps://pbs.twimg.com/media/B33qiDnCEAAodlX.png
p782
sVsource_user_id_str
p783
V2381747401
p784
sVsource_status_id
p785
I539845402044796928
sVid_str
p786
V539845401159798784
p787
sVsizes
p788
(dp789
Vsmall
p790
(dp791
Vh
p792
I340
sVresize
p793
Vfit
p794
sVw
p795
I340
ssVlarge
p796
(dp797
Vh
p798
I611
sVresize
p799
Vfit
p800
sVw
p801
I610
ssVmedium
p802
(dp803
Vh
p804
I600
sVresize
p805
Vfit
p806
sVw
p807
I600
ssVthumb
p808
(dp809
Vh
p810
I150
sVresize
p811
Vcrop
p812
sVw
p813
I150
sssVindices
p814
(lp815
I110
aI132
asVtype
p816
Vphoto
p817
sVid
p818
I539845401159798784
sVmedia_url
p819
Vhttp://pbs.twimg.com/media/B33qiDnCEAAodlX.png
p820
sasg73
Nsg74
Nsg75
Nsg76
VSun Dec 14 16:40:28 +0000 2014
p821
sg78
Nsg79
I00
sg80
Nsg81
Nsg82
Nsg83
Nsg84
I00
sg85
Nsg86
(lp822
sg88
Nsg89
V544170067701673987
p823
sg91
Nsg92
VAmazing 7 week progress with this new trick. You'll see a change in less than a week!!\u000ahttp://t.co/w5862dOB1M\u000ahttp://t.co/uXOSt598Nz
p824
sg94
I00
sg95
Ven
p825
sg97
g3
(g98
g5
Ntp826
Rp827
(dp828
g10
VNEW YORK
p829
sg103
V333333
p830
sg105
Ven
p831
sg107
VEastern Time (US & Canada)
p832
sg109
I4304
sg110
I304
sg76
VSun Oct 05 02:49:56 +0000 2014
p833
sg112
I00
sg113
VFitness Products available. #HealthyLifestyle #StayInShape
p834
sg115
Vhttps://pbs.twimg.com/profile_images/543364312861913088/cu1E7yLp_normal.jpeg
p835
sg117
I3531
sg118
I210
sg119
I-18000
sg120
Nsg121
I00
sg122
Vhttps://pbs.twimg.com/profile_banners/2806620167/1418383091
p836
sg124
I00
sg125
I00
sg126
V0084B4
p837
sg128
I00
sg129
I00
sg130
Vhttp://abs.twimg.com/images/themes/theme1/bg.png
p838
sg132
VMusclePr0ducts
p839
sg134
I1
sg135
VMuscle Products
p840
sg137
VDDEEF6
p841
sg139
Vhttp://t.co/NdelrLmEWt
p842
sg140
I2806620167
sg141
VC0DEED
p843
sbsg143
I37
sg144
V<a href="https://about.twitter.com/products/tweetdeck" rel="nofollow">TweetDeck</a>
p844
sg146
(lp845
g3
(g148
g5
Ntp846
Rp847
(dp848
g152
Vhttp://t.co/w5862dOB1M
p849
sg154
Vhttp://be-heaIthy.com/ZyTzYp
p850
sbasg140
I544170067701673987
sbsg20
Nsg21
(lp851
(dp852
Vsource_user_id
p853
I2381747401
sVsource_status_id_str
p854
V539845402044796928
p855
sVexpanded_url
p856
Vhttp://twitter.com/WomensHeaIthNow/status/539845402044796928/photo/1
p857
sVdisplay_url
p858
Vpic.twitter.com/uXOSt598Nz
p859
sVurl
p860
Vhttp://t.co/uXOSt598Nz
p861
sVmedia_url_https
p862
Vhttps://pbs.twimg.com/media/B33qiDnCEAAodlX.png
p863
sVsource_user_id_str
p864
V2381747401
p865
sVsource_status_id
p866
I539845402044796928
sVid_str
p867
V539845401159798784
p868
sVsizes
p869
(dp870
Vsmall
p871
(dp872
Vh
p873
I340
sVresize
p874
Vfit
p875
sVw
p876
I340
ssVlarge
p877
(dp878
Vh
p879
I611
sVresize
p880
Vfit
p881
sVw
p882
I610
ssVmedium
p883
(dp884
Vh
p885
I600
sVresize
p886
Vfit
p887
sVw
p888
I600
ssVthumb
p889
(dp890
Vh
p891
I150
sVresize
p892
Vcrop
p893
sVw
p894
I150
sssVindices
p895
(lp896
I139
aI140
asVtype
p897
Vphoto
p898
sVid
p899
I539845401159798784
sVmedia_url
p900
Vhttp://pbs.twimg.com/media/B33qiDnCEAAodlX.png
p901
sasg73
Nsg74
Nsg75
Nsg76
VSun Dec 14 20:04:42 +0000 2014
p902
sg78
Nsg79
I00
sg80
Nsg81
Nsg82
Nsg83
Nsg84
I00
sg85
Nsg86
(lp903
g3
(g98
g5
Ntp904
Rp905
(dp906
g10
Nsg103
Nsg105
Nsg107
Nsg109
Nsg110
Nsg76
Nsg112
Nsg113
Nsg115
Nsg117
Nsg118
Nsg119
Nsg120
Nsg121
Nsg122
Nsg124
Nsg125
Nsg126
Nsg128
Nsg129
Nsg130
Nsg132
VMusclePr0ducts
p907
sg134
Nsg135
VMuscle Products
p908
sg137
Nsg139
Nsg140
I2806620167
sg141
Nsbasg88
Nsg89
V544221463855652864
p909
sg91
Nsg92
VRT @MusclePr0ducts: Amazing 7 week progress with this new trick. You'll see a change in less than a week!!\u000ahttp://t.co/w5862dOB1M\u000ahttp://t.\u2026
p910
sg94
I00
sg95
Ven
p911
sg97
g3
(g98
g5
Ntp912
Rp913
(dp914
g10
VThe Road.
p915
sg103
V575757
p916
sg105
Ven
p917
sg107
VPacific Time (US & Canada)
p918
sg109
I32903
sg110
I11749
sg76
VFri Jun 25 19:29:18 +0000 2010
p919
sg112
I00
sg113
VFast & Furious Lifestyle,  I'm that nigga your momma told you not to mess with. That orange car, Is my Firebird. ( Backup Account )
p920
sg115
Vhttps://pbs.twimg.com/profile_images/449550509867663360/jprsiSlS_normal.jpeg
p921
sg117
I36502
sg118
I163
sg119
I-28800
sg120
Nsg121
I00
sg122
Vhttps://pbs.twimg.com/profile_banners/159575564/1354380596
p922
sg124
I00
sg125
I00
sg126
V990000
p923
sg128
I00
sg129
I00
sg130
Vhttp://pbs.twimg.com/profile_background_images/713175521/d0f6a0ea0136c05f8bf1810733775487.jpeg
p924
sg132
VPKayven
p925
sg134
I200
sg135
VPK - Street Racer
p926
sg137
V000000
p927
sg139
Nsg140
I159575564
sg141
V000000
p928
sbsg143
I37
sg144
V<a href="http://www.hootsuite.com" rel="nofollow">Hootsuite</a>
p929
sg146
(lp930
g3
(g148
g5
Ntp931
Rp932
(dp933
g152
Vhttp://t.co/w5862dOB1M
p934
sg154
Vhttp://be-heaIthy.com/ZyTzYp
p935
sbasg140
I544221463855652864
sbag3
(g4
g5
Ntp936
Rp937
(dp938
g9
I0
sg10
Nsg11
Nsg12
(lp939
sg14
I00
sg15
g3
(g4
g5
Ntp940
Rp941
(dp942
g9
I1
sg10
Nsg11
Nsg12
(lp943
sg14
I00
sg15
Nsg20
Nsg21
(lp944
(dp945
Vsource_user_id
p946
I2381747401
sVsource_status_id_str
p947
V539845402044796928
p948
sVexpanded_url
p949
Vhttp://twitter.com/WomensHeaIthNow/status/539845402044796928/photo/1
p950
sVdisplay_url
p951
Vpic.twitter.com/ynwsKKMGum
p952
sVurl
p953
Vhttp://t.co/ynwsKKMGum
p954
sVmedia_url_https
p955
Vhttps://pbs.twimg.com/media/B33qiDnCEAAodlX.png
p956
sVsource_user_id_str
p957
V2381747401
p958
sVsource_status_id
p959
I539845402044796928
sVid_str
p960
V539845401159798784
p961
sVsizes
p962
(dp963
Vsmall
p964
(dp965
Vh
p966
I340
sVresize
p967
Vfit
p968
sVw
p969
I340
ssVlarge
p970
(dp971
Vh
p972
I611
sVresize
p973
Vfit
p974
sVw
p975
I610
ssVmedium
p976
(dp977
Vh
p978
I600
sVresize
p979
Vfit
p980
sVw
p981
I600
ssVthumb
p982
(dp983
Vh
p984
I150
sVresize
p985
Vcrop
p986
sVw
p987
I150
sssVindices
p988
(lp989
I110
aI132
asVtype
p990
Vphoto
p991
sVid
p992
I539845401159798784
sVmedia_url
p993
Vhttp://pbs.twimg.com/media/B33qiDnCEAAodlX.png
p994
sasg73
Nsg74
Nsg75
Nsg76
VSun Dec 14 16:40:28 +0000 2014
p995
sg78
Nsg79
I00
sg80
Nsg81
Nsg82
Nsg83
Nsg84
I00
sg85
Nsg86
(lp996
sg88
Nsg89
V544170067705876480
p997
sg91
Nsg92
VAmazing 7 week progress with this new trick. You'll see a change in less than a week!!\u000ahttp://t.co/C6iHlxo31i\u000ahttp://t.co/ynwsKKMGum
p998
sg94
I00
sg95
Ven
p999
sg97
g3
(g98
g5
Ntp1000
Rp1001
(dp1002
g10
V
p1003
sg103
V333333
p1004
sg105
Ven
p1005
sg107
Nsg109
I7454
sg110
I1148
sg76
VWed Nov 12 05:36:43 +0000 2014
p1006
sg112
I00
sg113
VWe provide you vwith only health oriented products with zero 0 side effect and 100% results.
p1007
sg115
Vhttps://pbs.twimg.com/profile_images/544123627420262401/DGMQtdTx_normal.jpeg
p1008
sg117
I5207
sg118
I1000
sg119
Nsg120
Nsg121
I00
sg122
Vhttps://pbs.twimg.com/profile_banners/2873391143/1418486849
p1009
sg124
I00
sg125
I00
sg126
V0084B4
p1010
sg128
I00
sg129
I00
sg130
Vhttp://abs.twimg.com/images/themes/theme1/bg.png
p1011
sg132
VHealthPr0ducts
p1012
sg134
I4
sg135
VKayla (Health)
p1013
sg137
VDDEEF6
p1014
sg139
Nsg140
I2873391143
sg141
VC0DEED
p1015
sbsg143
I38
sg144
V<a href="https://about.twitter.com/products/tweetdeck" rel="nofollow">TweetDeck</a>
p1016
sg146
(lp1017
g3
(g148
g5
Ntp1018
Rp1019
(dp1020
g152
Vhttp://t.co/C6iHlxo31i
p1021
sg154
Vhttp://be-heaIthy.com/ZyTzYp
p1022
sbasg140
I544170067705876480
sbsg20
Nsg21
(lp1023
(dp1024
Vsource_user_id
p1025
I2381747401
sVsource_status_id_str
p1026
V539845402044796928
p1027
sVexpanded_url
p1028
Vhttp://twitter.com/WomensHeaIthNow/status/539845402044796928/photo/1
p1029
sVdisplay_url
p1030
Vpic.twitter.com/ynwsKKMGum
p1031
sVurl
p1032
Vhttp://t.co/ynwsKKMGum
p1033
sVmedia_url_https
p1034
Vhttps://pbs.twimg.com/media/B33qiDnCEAAodlX.png
p1035
sVsource_user_id_str
p1036
V2381747401
p1037
sVsource_status_id
p1038
I539845402044796928
sVid_str
p1039
V539845401159798784
p1040
sVsizes
p1041
(dp1042
Vsmall
p1043
(dp1044
Vh
p1045
I340
sVresize
p1046
Vfit
p1047
sVw
p1048
I340
ssVlarge
p1049
(dp1050
Vh
p1051
I611
sVresize
p1052
Vfit
p1053
sVw
p1054
I610
ssVmedium
p1055
(dp1056
Vh
p1057
I600
sVresize
p1058
Vfit
p1059
sVw
p1060
I600
ssVthumb
p1061
(dp1062
Vh
p1063
I150
sVresize
p1064
Vcrop
p1065
sVw
p1066
I150
sssVindices
p1067
(lp1068
I139
aI140
asVtype
p1069
Vphoto
p1070
sVid
p1071
I539845401159798784
sVmedia_url
p1072
Vhttp://pbs.twimg.com/media/B33qiDnCEAAodlX.png
p1073
sasg73
Nsg74
Nsg75
Nsg76
VSun Dec 14 20:03:28 +0000 2014
p1074
sg78
Nsg79
I00
sg80
Nsg81
Nsg82
Nsg83
Nsg84
I00
sg85
Nsg86
(lp1075
g3
(g98
g5
Ntp1076
Rp1077
(dp1078
g10
Nsg103
Nsg105
Nsg107
Nsg109
Nsg110
Nsg76
Nsg112
Nsg113
Nsg115
Nsg117
Nsg118
Nsg119
Nsg120
Nsg121
Nsg122
Nsg124
Nsg125
Nsg126
Nsg128
Nsg129
Nsg130
Nsg132
VHealthPr0ducts
p1079
sg134
Nsg135
VKayla (Health)
p1080
sg137
Nsg139
Nsg140
I2873391143
sg141
Nsbasg88
Nsg89
V544221151883694080
p1081
sg91
Nsg92
VRT @HealthPr0ducts: Amazing 7 week progress with this new trick. You'll see a change in less than a week!!\u000ahttp://t.co/C6iHlxo31i\u000ahttp://t.\u2026
p1082
sg94
I00
sg95
Ven
p1083
sg97
g3
(g98
g5
Ntp1084
Rp1085
(dp1086
g10
VThe Road.
p1087
sg103
V575757
p1088
sg105
Ven
p1089
sg107
VPacific Time (US & Canada)
p1090
sg109
I32903
sg110
I11749
sg76
VFri Jun 25 19:29:18 +0000 2010
p1091
sg112
I00
sg113
VFast & Furious Lifestyle,  I'm that nigga your momma told you not to mess with. That orange car, Is my Firebird. ( Backup Account )
p1092
sg115
Vhttps://pbs.twimg.com/profile_images/449550509867663360/jprsiSlS_normal.jpeg
p1093
sg117
I36502
sg118
I163
sg119
I-28800
sg120
Nsg121
I00
sg122
Vhttps://pbs.twimg.com/profile_banners/159575564/1354380596
p1094
sg124
I00
sg125
I00
sg126
V990000
p1095
sg128
I00
sg129
I00
sg130
Vhttp://pbs.twimg.com/profile_background_images/713175521/d0f6a0ea0136c05f8bf1810733775487.jpeg
p1096
sg132
VPKayven
p1097
sg134
I200
sg135
VPK - Street Racer
p1098
sg137
V000000
p1099
sg139
Nsg140
I159575564
sg141
V000000
p1100
sbsg143
I38
sg144
V<a href="http://www.hootsuite.com" rel="nofollow">Hootsuite</a>
p1101
sg146
(lp1102
g3
(g148
g5
Ntp1103
Rp1104
(dp1105
g152
Vhttp://t.co/C6iHlxo31i
p1106
sg154
Vhttp://be-heaIthy.com/ZyTzYp
p1107
sbasg140
I544221151883694080
sbag3
(g4
g5
Ntp1108
Rp1109
(dp1110
g9
I0
sg10
Nsg11
Nsg12
(lp1111
sg14
I00
sg15
g3
(g4
g5
Ntp1112
Rp1113
(dp1114
g9
I1
sg10
Nsg11
Nsg12
(lp1115
sg14
I00
sg15
Nsg20
Nsg21
(lp1116
(dp1117
Vsource_user_id
p1118
I2381747401
sVsource_status_id_str
p1119
V540211529526689792
p1120
sVexpanded_url
p1121
Vhttp://twitter.com/WomensHeaIthNow/status/540211529526689792/photo/1
p1122
sVdisplay_url
p1123
Vpic.twitter.com/lGet7zIBx7
p1124
sVurl
p1125
Vhttp://t.co/lGet7zIBx7
p1126
sVmedia_url_https
p1127
Vhttps://pbs.twimg.com/media/B383hfUCIAA-3Cx.png
p1128
sVsource_user_id_str
p1129
V2381747401
p1130
sVsource_status_id
p1131
I540211529526689792
sVid_str
p1132
V540211528788484096
p1133
sVsizes
p1134
(dp1135
Vsmall
p1136
(dp1137
Vh
p1138
I340
sVresize
p1139
Vfit
p1140
sVw
p1141
I340
ssVlarge
p1142
(dp1143
Vh
p1144
I574
sVresize
p1145
Vfit
p1146
sVw
p1147
I574
ssVmedium
p1148
(dp1149
Vh
p1150
I574
sVresize
p1151
Vfit
p1152
sVw
p1153
I574
ssVthumb
p1154
(dp1155
Vh
p1156
I150
sVresize
p1157
Vcrop
p1158
sVw
p1159
I150
sssVindices
p1160
(lp1161
I90
aI112
asVtype
p1162
Vphoto
p1163
sVid
p1164
I540211528788484096
sVmedia_url
p1165
Vhttp://pbs.twimg.com/media/B383hfUCIAA-3Cx.png
p1166
sasg73
Nsg74
Nsg75
Nsg76
VSun Dec 14 16:40:33 +0000 2014
p1167
sg78
Nsg79
I00
sg80
Nsg81
Nsg82
Nsg83
Nsg84
I00
sg85
Nsg86
(lp1168
sg88
Nsg89
V544170087045820416
p1169
sg91
Nsg92
VGet the perfect body in 4 weeks with this simple 2 step method... \u000ahttp://t.co/C6iHlxo31i\u000ahttp://t.co/lGet7zIBx7
p1170
sg94
I00
sg95
Ven
p1171
sg97
g3
(g98
g5
Ntp1172
Rp1173
(dp1174
g10
g1003
sg103
V333333
p1175
sg105
Ven
p1176
sg107
Nsg109
I7454
sg110
I1148
sg76
VWed Nov 12 05:36:43 +0000 2014
p1177
sg112
I00
sg113
VWe provide you vwith only health oriented products with zero 0 side effect and 100% results.
p1178
sg115
Vhttps://pbs.twimg.com/profile_images/544123627420262401/DGMQtdTx_normal.jpeg
p1179
sg117
I5207
sg118
I1000
sg119
Nsg120
Nsg121
I00
sg122
Vhttps://pbs.twimg.com/profile_banners/2873391143/1418486849
p1180
sg124
I00
sg125
I00
sg126
V0084B4
p1181
sg128
I00
sg129
I00
sg130
Vhttp://abs.twimg.com/images/themes/theme1/bg.png
p1182
sg132
VHealthPr0ducts
p1183
sg134
I4
sg135
VKayla (Health)
p1184
sg137
VDDEEF6
p1185
sg139
Nsg140
I2873391143
sg141
VC0DEED
p1186
sbsg143
I39
sg144
V<a href="https://about.twitter.com/products/tweetdeck" rel="nofollow">TweetDeck</a>
p1187
sg146
(lp1188
g3
(g148
g5
Ntp1189
Rp1190
(dp1191
g152
Vhttp://t.co/C6iHlxo31i
p1192
sg154
Vhttp://be-heaIthy.com/ZyTzYp
p1193
sbasg140
I544170087045820416
sbsg20
Nsg21
(lp1194
(dp1195
Vsource_user_id
p1196
I2381747401
sVsource_status_id_str
p1197
V540211529526689792
p1198
sVexpanded_url
p1199
Vhttp://twitter.com/WomensHeaIthNow/status/540211529526689792/photo/1
p1200
sVdisplay_url
p1201
Vpic.twitter.com/lGet7zIBx7
p1202
sVurl
p1203
Vhttp://t.co/lGet7zIBx7
p1204
sVmedia_url_https
p1205
Vhttps://pbs.twimg.com/media/B383hfUCIAA-3Cx.png
p1206
sVsource_user_id_str
p1207
V2381747401
p1208
sVsource_status_id
p1209
I540211529526689792
sVid_str
p1210
V540211528788484096
p1211
sVsizes
p1212
(dp1213
Vsmall
p1214
(dp1215
Vh
p1216
I340
sVresize
p1217
Vfit
p1218
sVw
p1219
I340
ssVlarge
p1220
(dp1221
Vh
p1222
I574
sVresize
p1223
Vfit
p1224
sVw
p1225
I574
ssVmedium
p1226
(dp1227
Vh
p1228
I574
sVresize
p1229
Vfit
p1230
sVw
p1231
I574
ssVthumb
p1232
(dp1233
Vh
p1234
I150
sVresize
p1235
Vcrop
p1236
sVw
p1237
I150
sssVindices
p1238
(lp1239
I110
aI132
asVtype
p1240
Vphoto
p1241
sVid
p1242
I540211528788484096
sVmedia_url
p1243
Vhttp://pbs.twimg.com/media/B383hfUCIAA-3Cx.png
p1244
sasg73
Nsg74
Nsg75
Nsg76
VSun Dec 14 20:03:01 +0000 2014
p1245
sg78
Nsg79
I00
sg80
Nsg81
Nsg82
Nsg83
Nsg84
I00
sg85
Nsg86
(lp1246
g3
(g98
g5
Ntp1247
Rp1248
(dp1249
g10
Nsg103
Nsg105
Nsg107
Nsg109
Nsg110
Nsg76
Nsg112
Nsg113
Nsg115
Nsg117
Nsg118
Nsg119
Nsg120
Nsg121
Nsg122
Nsg124
Nsg125
Nsg126
Nsg128
Nsg129
Nsg130
Nsg132
VHealthPr0ducts
p1250
sg134
Nsg135
VKayla (Health)
p1251
sg137
Nsg139
Nsg140
I2873391143
sg141
Nsbasg88
Nsg89
V544221040449441792
p1252
sg91
Nsg92
VRT @HealthPr0ducts: Get the perfect body in 4 weeks with this simple 2 step method... \u000ahttp://t.co/C6iHlxo31i\u000ahttp://t.co/lGet7zIBx7
p1253
sg94
I00
sg95
Ven
p1254
sg97
g3
(g98
g5
Ntp1255
Rp1256
(dp1257
g10
VThe Road.
p1258
sg103
V575757
p1259
sg105
Ven
p1260
sg107
VPacific Time (US & Canada)
p1261
sg109
I32903
sg110
I11749
sg76
VFri Jun 25 19:29:18 +0000 2010
p1262
sg112
I00
sg113
VFast & Furious Lifestyle,  I'm that nigga your momma told you not to mess with. That orange car, Is my Firebird. ( Backup Account )
p1263
sg115
Vhttps://pbs.twimg.com/profile_images/449550509867663360/jprsiSlS_normal.jpeg
p1264
sg117
I36502
sg118
I163
sg119
I-28800
sg120
Nsg121
I00
sg122
Vhttps://pbs.twimg.com/profile_banners/159575564/1354380596
p1265
sg124
I00
sg125
I00
sg126
V990000
p1266
sg128
I00
sg129
I00
sg130
Vhttp://pbs.twimg.com/profile_background_images/713175521/d0f6a0ea0136c05f8bf1810733775487.jpeg
p1267
sg132
VPKayven
p1268
sg134
I200
sg135
VPK - Street Racer
p1269
sg137
V000000
p1270
sg139
Nsg140
I159575564
sg141
V000000
p1271
sbsg143
I39
sg144
V<a href="http://www.hootsuite.com" rel="nofollow">Hootsuite</a>
p1272
sg146
(lp1273
g3
(g148
g5
Ntp1274
Rp1275
(dp1276
g152
Vhttp://t.co/C6iHlxo31i
p1277
sg154
Vhttp://be-heaIthy.com/ZyTzYp
p1278
sbasg140
I544221040449441792
sbag3
(g4
g5
Ntp1279
Rp1280
(dp1281
g9
I0
sg10
Nsg11
Nsg12
(lp1282
sg14
I00
sg15
g3
(g4
g5
Ntp1283
Rp1284
(dp1285
g9
I4
sg10
Nsg11
Nsg12
(lp1286
sg14
I00
sg15
Nsg20
Nsg21
(lp1287
(dp1288
Vsource_user_id
p1289
I2381747401
sVsource_status_id_str
p1290
V540211594450309120
p1291
sVexpanded_url
p1292
Vhttp://twitter.com/WomensHeaIthNow/status/540211594450309120/photo/1
p1293
sVdisplay_url
p1294
Vpic.twitter.com/8s3EXefBEI
p1295
sVurl
p1296
Vhttp://t.co/8s3EXefBEI
p1297
sVmedia_url_https
p1298
Vhttps://pbs.twimg.com/media/B383lP3CcAAhX6t.png
p1299
sVsource_user_id_str
p1300
V2381747401
p1301
sVsource_status_id
p1302
I540211594450309120
sVid_str
p1303
V540211593359814656
p1304
sVsizes
p1305
(dp1306
Vsmall
p1307
(dp1308
Vh
p1309
I379
sVresize
p1310
Vfit
p1311
sVw
p1312
I340
ssVlarge
p1313
(dp1314
Vh
p1315
I672
sVresize
p1316
Vfit
p1317
sVw
p1318
I602
ssVmedium
p1319
(dp1320
Vh
p1321
I669
sVresize
p1322
Vfit
p1323
sVw
p1324
I600
ssVthumb
p1325
(dp1326
Vh
p1327
I150
sVresize
p1328
Vcrop
p1329
sVw
p1330
I150
sssVindices
p1331
(lp1332
I99
aI121
asVtype
p1333
Vphoto
p1334
sVid
p1335
I540211593359814656
sVmedia_url
p1336
Vhttp://pbs.twimg.com/media/B383lP3CcAAhX6t.png
p1337
sasg73
Nsg74
Nsg75
Nsg76
VSun Dec 14 16:40:40 +0000 2014
p1338
sg78
Nsg79
I00
sg80
Nsg81
Nsg82
Nsg83
Nsg84
I00
sg85
Nsg86
(lp1339
sg88
Nsg89
V544170114900168704
p1340
sg91
Nsg92
V95% of high school girls use this to lose weight for a PERFECT Bikini Body!\u000ahttp://t.co/C6iHlxo31i\u000ahttp://t.co/8s3EXefBEI
p1341
sg94
I00
sg95
Ven
p1342
sg97
g3
(g98
g5
Ntp1343
Rp1344
(dp1345
g10
g1003
sg103
V333333
p1346
sg105
Ven
p1347
sg107
Nsg109
I7454
sg110
I1148
sg76
VWed Nov 12 05:36:43 +0000 2014
p1348
sg112
I00
sg113
VWe provide you vwith only health oriented products with zero 0 side effect and 100% results.
p1349
sg115
Vhttps://pbs.twimg.com/profile_images/544123627420262401/DGMQtdTx_normal.jpeg
p1350
sg117
I5207
sg118
I1000
sg119
Nsg120
Nsg121
I00
sg122
Vhttps://pbs.twimg.com/profile_banners/2873391143/1418486849
p1351
sg124
I00
sg125
I00
sg126
V0084B4
p1352
sg128
I00
sg129
I00
sg130
Vhttp://abs.twimg.com/images/themes/theme1/bg.png
p1353
sg132
VHealthPr0ducts
p1354
sg134
I4
sg135
VKayla (Health)
p1355
sg137
VDDEEF6
p1356
sg139
Nsg140
I2873391143
sg141
VC0DEED
p1357
sbsg143
I41
sg144
V<a href="https://about.twitter.com/products/tweetdeck" rel="nofollow">TweetDeck</a>
p1358
sg146
(lp1359
g3
(g148
g5
Ntp1360
Rp1361
(dp1362
g152
Vhttp://t.co/C6iHlxo31i
p1363
sg154
Vhttp://be-heaIthy.com/ZyTzYp
p1364
sbasg140
I544170114900168704
sbsg20
Nsg21
(lp1365
(dp1366
Vsource_user_id
p1367
I2381747401
sVsource_status_id_str
p1368
V540211594450309120
p1369
sVexpanded_url
p1370
Vhttp://twitter.com/WomensHeaIthNow/status/540211594450309120/photo/1
p1371
sVdisplay_url
p1372
Vpic.twitter.com/8s3EXefBEI
p1373
sVurl
p1374
Vhttp://t.co/8s3EXefBEI
p1375
sVmedia_url_https
p1376
Vhttps://pbs.twimg.com/media/B383lP3CcAAhX6t.png
p1377
sVsource_user_id_str
p1378
V2381747401
p1379
sVsource_status_id
p1380
I540211594450309120
sVid_str
p1381
V540211593359814656
p1382
sVsizes
p1383
(dp1384
Vsmall
p1385
(dp1386
Vh
p1387
I379
sVresize
p1388
Vfit
p1389
sVw
p1390
I340
ssVlarge
p1391
(dp1392
Vh
p1393
I672
sVresize
p1394
Vfit
p1395
sVw
p1396
I602
ssVmedium
p1397
(dp1398
Vh
p1399
I669
sVresize
p1400
Vfit
p1401
sVw
p1402
I600
ssVthumb
p1403
(dp1404
Vh
p1405
I150
sVresize
p1406
Vcrop
p1407
sVw
p1408
I150
sssVindices
p1409
(lp1410
I139
aI140
asVtype
p1411
Vphoto
p1412
sVid
p1413
I540211593359814656
sVmedia_url
p1414
Vhttp://pbs.twimg.com/media/B383lP3CcAAhX6t.png
p1415
sasg73
Nsg74
Nsg75
Nsg76
VSun Dec 14 20:02:38 +0000 2014
p1416
sg78
Nsg79
I00
sg80
Nsg81
Nsg82
Nsg83
Nsg84
I00
sg85
Nsg86
(lp1417
g3
(g98
g5
Ntp1418
Rp1419
(dp1420
g10
Nsg103
Nsg105
Nsg107
Nsg109
Nsg110
Nsg76
Nsg112
Nsg113
Nsg115
Nsg117
Nsg118
Nsg119
Nsg120
Nsg121
Nsg122
Nsg124
Nsg125
Nsg126
Nsg128
Nsg129
Nsg130
Nsg132
VHealthPr0ducts
p1421
sg134
Nsg135
VKayla (Health)
p1422
sg137
Nsg139
Nsg140
I2873391143
sg141
Nsbasg88
Nsg89
V544220941778432000
p1423
sg91
Nsg92
VRT @HealthPr0ducts: 95% of high school girls use this to lose weight for a PERFECT Bikini Body!\u000ahttp://t.co/C6iHlxo31i\u000ahttp://t.co/8s3EXefB\u2026
p1424
sg94
I00
sg95
Ven
p1425
sg97
g3
(g98
g5
Ntp1426
Rp1427
(dp1428
g10
VThe Road.
p1429
sg103
V575757
p1430
sg105
Ven
p1431
sg107
VPacific Time (US & Canada)
p1432
sg109
I32903
sg110
I11749
sg76
VFri Jun 25 19:29:18 +0000 2010
p1433
sg112
I00
sg113
VFast & Furious Lifestyle,  I'm that nigga your momma told you not to mess with. That orange car, Is my Firebird. ( Backup Account )
p1434
sg115
Vhttps://pbs.twimg.com/profile_images/449550509867663360/jprsiSlS_normal.jpeg
p1435
sg117
I36502
sg118
I163
sg119
I-28800
sg120
Nsg121
I00
sg122
Vhttps://pbs.twimg.com/profile_banners/159575564/1354380596
p1436
sg124
I00
sg125
I00
sg126
V990000
p1437
sg128
I00
sg129
I00
sg130
Vhttp://pbs.twimg.com/profile_background_images/713175521/d0f6a0ea0136c05f8bf1810733775487.jpeg
p1438
sg132
VPKayven
p1439
sg134
I200
sg135
VPK - Street Racer
p1440
sg137
V000000
p1441
sg139
Nsg140
I159575564
sg141
V000000
p1442
sbsg143
I41
sg144
V<a href="http://www.hootsuite.com" rel="nofollow">Hootsuite</a>
p1443
sg146
(lp1444
g3
(g148
g5
Ntp1445
Rp1446
(dp1447
g152
Vhttp://t.co/C6iHlxo31i
p1448
sg154
Vhttp://be-heaIthy.com/ZyTzYp
p1449
sbasg140
I544220941778432000
sbag3
(g4
g5
Ntp1450
Rp1451
(dp1452
g9
I0
sg10
Nsg11
Nsg12
(lp1453
sg14
I00
sg15
g3
(g4
g5
Ntp1454
Rp1455
(dp1456
g9
I6
sg10
Nsg11
Nsg12
(lp1457
sg14
I00
sg15
Nsg20
Nsg21
(lp1458
(dp1459
Vsource_user_id
p1460
I2381747401
sVsource_status_id_str
p1461
V540211594450309120
p1462
sVexpanded_url
p1463
Vhttp://twitter.com/WomensHeaIthNow/status/540211594450309120/photo/1
p1464
sVdisplay_url
p1465
Vpic.twitter.com/OBtaaJ75f6
p1466
sVurl
p1467
Vhttp://t.co/OBtaaJ75f6
p1468
sVmedia_url_https
p1469
Vhttps://pbs.twimg.com/media/B383lP3CcAAhX6t.png
p1470
sVsource_user_id_str
p1471
V2381747401
p1472
sVsource_status_id
p1473
I540211594450309120
sVid_str
p1474
V540211593359814656
p1475
sVsizes
p1476
(dp1477
Vsmall
p1478
(dp1479
Vh
p1480
I379
sVresize
p1481
Vfit
p1482
sVw
p1483
I340
ssVlarge
p1484
(dp1485
Vh
p1486
I672
sVresize
p1487
Vfit
p1488
sVw
p1489
I602
ssVmedium
p1490
(dp1491
Vh
p1492
I669
sVresize
p1493
Vfit
p1494
sVw
p1495
I600
ssVthumb
p1496
(dp1497
Vh
p1498
I150
sVresize
p1499
Vcrop
p1500
sVw
p1501
I150
sssVindices
p1502
(lp1503
I99
aI121
asVtype
p1504
Vphoto
p1505
sVid
p1506
I540211593359814656
sVmedia_url
p1507
Vhttp://pbs.twimg.com/media/B383lP3CcAAhX6t.png
p1508
sasg73
Nsg74
Nsg75
Nsg76
VSun Dec 14 16:40:40 +0000 2014
p1509
sg78
Nsg79
I00
sg80
Nsg81
Nsg82
Nsg83
Nsg84
I00
sg85
Nsg86
(lp1510
sg88
Nsg89
V544170114912768000
p1511
sg91
Nsg92
V95% of high school girls use this to lose weight for a PERFECT Bikini Body!\u000ahttp://t.co/g3X2aRHfJw\u000ahttp://t.co/OBtaaJ75f6
p1512
sg94
I00
sg95
Ven
p1513
sg97
g3
(g98
g5
Ntp1514
Rp1515
(dp1516
g10
VNew York 
p1517
sg103
V333333
p1518
sg105
Ven
p1519
sg107
VCentral Time (US & Canada)
p1520
sg109
I10346
sg110
I1633
sg76
VTue Oct 28 19:04:55 +0000 2014
p1521
sg112
I00
sg113
VFitness Products for sale. A healthy lifestyle with staying in good shape is our aim
p1522
sg115
Vhttps://pbs.twimg.com/profile_images/543798692688703488/XlEi_59-_normal.jpeg
p1523
sg117
I9267
sg118
I1420
sg119
I-21600
sg120
Nsg121
I00
sg122
Vhttps://pbs.twimg.com/profile_banners/2848650785/1418486685
p1524
sg124
I00
sg125
I00
sg126
V0084B4
p1525
sg128
I00
sg129
I00
sg130
Vhttp://abs.twimg.com/images/themes/theme1/bg.png
p1526
sg132
VFitnessPr0ducts
p1527
sg134
I9
sg135
VFelicia (Fitness)
p1528
sg137
VDDEEF6
p1529
sg139
Nsg140
I2848650785
sg141
VC0DEED
p1530
sbsg143
I39
sg144
V<a href="https://about.twitter.com/products/tweetdeck" rel="nofollow">TweetDeck</a>
p1531
sg146
(lp1532
g3
(g148
g5
Ntp1533
Rp1534
(dp1535
g152
Vhttp://t.co/g3X2aRHfJw
p1536
sg154
Vhttp://be-heaIthy.com/ZyTzYp
p1537
sbasg140
I544170114912768000
sbsg20
Nsg21
(lp1538
(dp1539
Vsource_user_id
p1540
I2381747401
sVsource_status_id_str
p1541
V540211594450309120
p1542
sVexpanded_url
p1543
Vhttp://twitter.com/WomensHeaIthNow/status/540211594450309120/photo/1
p1544
sVdisplay_url
p1545
Vpic.twitter.com/OBtaaJ75f6
p1546
sVurl
p1547
Vhttp://t.co/OBtaaJ75f6
p1548
sVmedia_url_https
p1549
Vhttps://pbs.twimg.com/media/B383lP3CcAAhX6t.png
p1550
sVsource_user_id_str
p1551
V2381747401
p1552
sVsource_status_id
p1553
I540211594450309120
sVid_str
p1554
V540211593359814656
p1555
sVsizes
p1556
(dp1557
Vsmall
p1558
(dp1559
Vh
p1560
I379
sVresize
p1561
Vfit
p1562
sVw
p1563
I340
ssVlarge
p1564
(dp1565
Vh
p1566
I672
sVresize
p1567
Vfit
p1568
sVw
p1569
I602
ssVmedium
p1570
(dp1571
Vh
p1572
I669
sVresize
p1573
Vfit
p1574
sVw
p1575
I600
ssVthumb
p1576
(dp1577
Vh
p1578
I150
sVresize
p1579
Vcrop
p1580
sVw
p1581
I150
sssVindices
p1582
(lp1583
I139
aI140
asVtype
p1584
Vphoto
p1585
sVid
p1586
I540211593359814656
sVmedia_url
p1587
Vhttp://pbs.twimg.com/media/B383lP3CcAAhX6t.png
p1588
sasg73
Nsg74
Nsg75
Nsg76
VSun Dec 14 20:01:56 +0000 2014
p1589
sg78
Nsg79
I00
sg80
Nsg81
Nsg82
Nsg83
Nsg84
I00
sg85
Nsg86
(lp1590
g3
(g98
g5
Ntp1591
Rp1592
(dp1593
g10
Nsg103
Nsg105
Nsg107
Nsg109
Nsg110
Nsg76
Nsg112
Nsg113
Nsg115
Nsg117
Nsg118
Nsg119
Nsg120
Nsg121
Nsg122
Nsg124
Nsg125
Nsg126
Nsg128
Nsg129
Nsg130
Nsg132
VFitnessPr0ducts
p1594
sg134
Nsg135
VFelicia (Fitness)
p1595
sg137
Nsg139
Nsg140
I2848650785
sg141
Nsbasg88
Nsg89
V544220768281055232
p1596
sg91
Nsg92
VRT @FitnessPr0ducts: 95% of high school girls use this to lose weight for a PERFECT Bikini Body!\u000ahttp://t.co/g3X2aRHfJw\u000ahttp://t.co/OBtaaJ7\u2026
p1597
sg94
I00
sg95
Ven
p1598
sg97
g3
(g98
g5
Ntp1599
Rp1600
(dp1601
g10
VThe Road.
p1602
sg103
V575757
p1603
sg105
Ven
p1604
sg107
VPacific Time (US & Canada)
p1605
sg109
I32903
sg110
I11749
sg76
VFri Jun 25 19:29:18 +0000 2010
p1606
sg112
I00
sg113
VFast & Furious Lifestyle,  I'm that nigga your momma told you not to mess with. That orange car, Is my Firebird. ( Backup Account )
p1607
sg115
Vhttps://pbs.twimg.com/profile_images/449550509867663360/jprsiSlS_normal.jpeg
p1608
sg117
I36502
sg118
I163
sg119
I-28800
sg120
Nsg121
I00
sg122
Vhttps://pbs.twimg.com/profile_banners/159575564/1354380596
p1609
sg124
I00
sg125
I00
sg126
V990000
p1610
sg128
I00
sg129
I00
sg130
Vhttp://pbs.twimg.com/profile_background_images/713175521/d0f6a0ea0136c05f8bf1810733775487.jpeg
p1611
sg132
VPKayven
p1612
sg134
I200
sg135
VPK - Street Racer
p1613
sg137
V000000
p1614
sg139
Nsg140
I159575564
sg141
V000000
p1615
sbsg143
I39
sg144
V<a href="http://www.hootsuite.com" rel="nofollow">Hootsuite</a>
p1616
sg146
(lp1617
g3
(g148
g5
Ntp1618
Rp1619
(dp1620
g152
Vhttp://t.co/g3X2aRHfJw
p1621
sg154
Vhttp://be-heaIthy.com/ZyTzYp
p1622
sbasg140
I544220768281055232
sbag3
(g4
g5
Ntp1623
Rp1624
(dp1625
g9
I0
sg10
Nsg11
Nsg12
(lp1626
sg14
I00
sg15
g3
(g4
g5
Ntp1627
Rp1628
(dp1629
g9
I6
sg10
Nsg11
Nsg12
(lp1630
sg14
I00
sg15
Nsg20
Nsg21
(lp1631
(dp1632
Vsource_user_id
p1633
I2381747401
sVsource_status_id_str
p1634
V540941704782573568
p1635
sVexpanded_url
p1636
Vhttp://twitter.com/WomensHeaIthNow/status/540941704782573568/photo/1
p1637
sVdisplay_url
p1638
Vpic.twitter.com/54wZGZxi9l
p1639
sVurl
p1640
Vhttp://t.co/54wZGZxi9l
p1641
sVmedia_url_https
p1642
Vhttps://pbs.twimg.com/media/B4HPnRrCAAAI4Bi.png
p1643
sVsource_user_id_str
p1644
V2381747401
p1645
sVsource_status_id
p1646
I540941704782573568
sVid_str
p1647
V540941703926906880
p1648
sVsizes
p1649
(dp1650
Vsmall
p1651
(dp1652
Vh
p1653
I322
sVresize
p1654
Vfit
p1655
sVw
p1656
I340
ssVlarge
p1657
(dp1658
Vh
p1659
I577
sVresize
p1660
Vfit
p1661
sVw
p1662
I609
ssVmedium
p1663
(dp1664
Vh
p1665
I568
sVresize
p1666
Vfit
p1667
sVw
p1668
I600
ssVthumb
p1669
(dp1670
Vh
p1671
I150
sVresize
p1672
Vcrop
p1673
sVw
p1674
I150
sssVindices
p1675
(lp1676
I96
aI118
asVtype
p1677
Vphoto
p1678
sVid
p1679
I540941703926906880
sVmedia_url
p1680
Vhttp://pbs.twimg.com/media/B4HPnRrCAAAI4Bi.png
p1681
sasg73
Nsg74
Nsg75
Nsg76
VSun Dec 14 16:40:44 +0000 2014
p1682
sg78
Nsg79
I00
sg80
Nsg81
Nsg82
Nsg83
Nsg84
I00
sg85
Nsg86
(lp1683
sg88
Nsg89
V544170134223339521
p1684
sg91
Nsg92
VIt Really Works!\u000aShe got her dream body with this simple 2 step cleanse!\u000ahttp://t.co/g3X2aRHfJw\u000ahttp://t.co/54wZGZxi9l
p1685
sg94
I00
sg95
Ven
p1686
sg97
g3
(g98
g5
Ntp1687
Rp1688
(dp1689
g10
VNew York 
p1690
sg103
V333333
p1691
sg105
Ven
p1692
sg107
VCentral Time (US & Canada)
p1693
sg109
I10346
sg110
I1633
sg76
VTue Oct 28 19:04:55 +0000 2014
p1694
sg112
I00
sg113
VFitness Products for sale. A healthy lifestyle with staying in good shape is our aim
p1695
sg115
Vhttps://pbs.twimg.com/profile_images/543798692688703488/XlEi_59-_normal.jpeg
p1696
sg117
I9267
sg118
I1420
sg119
I-21600
sg120
Nsg121
I00
sg122
Vhttps://pbs.twimg.com/profile_banners/2848650785/1418486685
p1697
sg124
I00
sg125
I00
sg126
V0084B4
p1698
sg128
I00
sg129
I00
sg130
Vhttp://abs.twimg.com/images/themes/theme1/bg.png
p1699
sg132
VFitnessPr0ducts
p1700
sg134
I9
sg135
VFelicia (Fitness)
p1701
sg137
VDDEEF6
p1702
sg139
Nsg140
I2848650785
sg141
VC0DEED
p1703
sbsg143
I39
sg144
V<a href="https://about.twitter.com/products/tweetdeck" rel="nofollow">TweetDeck</a>
p1704
sg146
(lp1705
g3
(g148
g5
Ntp1706
Rp1707
(dp1708
g152
Vhttp://t.co/g3X2aRHfJw
p1709
sg154
Vhttp://be-heaIthy.com/ZyTzYp
p1710
sbasg140
I544170134223339521
sbsg20
Nsg21
(lp1711
(dp1712
Vsource_user_id
p1713
I2381747401
sVsource_status_id_str
p1714
V540941704782573568
p1715
sVexpanded_url
p1716
Vhttp://twitter.com/WomensHeaIthNow/status/540941704782573568/photo/1
p1717
sVdisplay_url
p1718
Vpic.twitter.com/54wZGZxi9l
p1719
sVurl
p1720
Vhttp://t.co/54wZGZxi9l
p1721
sVmedia_url_https
p1722
Vhttps://pbs.twimg.com/media/B4HPnRrCAAAI4Bi.png
p1723
sVsource_user_id_str
p1724
V2381747401
p1725
sVsource_status_id
p1726
I540941704782573568
sVid_str
p1727
V540941703926906880
p1728
sVsizes
p1729
(dp1730
Vsmall
p1731
(dp1732
Vh
p1733
I322
sVresize
p1734
Vfit
p1735
sVw
p1736
I340
ssVlarge
p1737
(dp1738
Vh
p1739
I577
sVresize
p1740
Vfit
p1741
sVw
p1742
I609
ssVmedium
p1743
(dp1744
Vh
p1745
I568
sVresize
p1746
Vfit
p1747
sVw
p1748
I600
ssVthumb
p1749
(dp1750
Vh
p1751
I150
sVresize
p1752
Vcrop
p1753
sVw
p1754
I150
sssVindices
p1755
(lp1756
I117
aI139
asVtype
p1757
Vphoto
p1758
sVid
p1759
I540941703926906880
sVmedia_url
p1760
Vhttp://pbs.twimg.com/media/B4HPnRrCAAAI4Bi.png
p1761
sasg73
Nsg74
Nsg75
Nsg76
VSun Dec 14 20:01:31 +0000 2014
p1762
sg78
Nsg79
I00
sg80
Nsg81
Nsg82
Nsg83
Nsg84
I00
sg85
Nsg86
(lp1763
g3
(g98
g5
Ntp1764
Rp1765
(dp1766
g10
Nsg103
Nsg105
Nsg107
Nsg109
Nsg110
Nsg76
Nsg112
Nsg113
Nsg115
Nsg117
Nsg118
Nsg119
Nsg120
Nsg121
Nsg122
Nsg124
Nsg125
Nsg126
Nsg128
Nsg129
Nsg130
Nsg132
VFitnessPr0ducts
p1767
sg134
Nsg135
VFelicia (Fitness)
p1768
sg137
Nsg139
Nsg140
I2848650785
sg141
Nsbasg88
Nsg89
V544220660432900096
p1769
sg91
Nsg92
VRT @FitnessPr0ducts: It Really Works!\u000aShe got her dream body with this simple 2 step cleanse!\u000ahttp://t.co/g3X2aRHfJw\u000ahttp://t.co/54wZGZxi9l
p1770
sg94
I00
sg95
Ven
p1771
sg97
g3
(g98
g5
Ntp1772
Rp1773
(dp1774
g10
VThe Road.
p1775
sg103
V575757
p1776
sg105
Ven
p1777
sg107
VPacific Time (US & Canada)
p1778
sg109
I32903
sg110
I11749
sg76
VFri Jun 25 19:29:18 +0000 2010
p1779
sg112
I00
sg113
VFast & Furious Lifestyle,  I'm that nigga your momma told you not to mess with. That orange car, Is my Firebird. ( Backup Account )
p1780
sg115
Vhttps://pbs.twimg.com/profile_images/449550509867663360/jprsiSlS_normal.jpeg
p1781
sg117
I36502
sg118
I163
sg119
I-28800
sg120
Nsg121
I00
sg122
Vhttps://pbs.twimg.com/profile_banners/159575564/1354380596
p1782
sg124
I00
sg125
I00
sg126
V990000
p1783
sg128
I00
sg129
I00
sg130
Vhttp://pbs.twimg.com/profile_background_images/713175521/d0f6a0ea0136c05f8bf1810733775487.jpeg
p1784
sg132
VPKayven
p1785
sg134
I200
sg135
VPK - Street Racer
p1786
sg137
V000000
p1787
sg139
Nsg140
I159575564
sg141
V000000
p1788
sbsg143
I39
sg144
V<a href="http://www.hootsuite.com" rel="nofollow">Hootsuite</a>
p1789
sg146
(lp1790
g3
(g148
g5
Ntp1791
Rp1792
(dp1793
g152
Vhttp://t.co/g3X2aRHfJw
p1794
sg154
Vhttp://be-heaIthy.com/ZyTzYp
p1795
sbasg140
I544220660432900096
sbag3
(g4
g5
Ntp1796
Rp1797
(dp1798
g9
I0
sg10
Nsg11
Nsg12
(lp1799
sg14
I00
sg15
g3
(g4
g5
Ntp1800
Rp1801
(dp1802
g9
I1575
sg10
Nsg11
Nsg12
(lp1803
sg14
I00
sg15
Nsg20
Nsg21
(lp1804
(dp1805
Vexpanded_url
p1806
Vhttp://twitter.com/iGossip2u/status/503238980687921152/photo/1
p1807
sVdisplay_url
p1808
Vpic.twitter.com/yxMoWrFpZ1
p1809
sVurl
p1810
Vhttp://t.co/yxMoWrFpZ1
p1811
sVmedia_url_https
p1812
Vhttps://pbs.twimg.com/media/BvvdL1RCcAE4Jbx.jpg
p1813
sVid_str
p1814
V503238978728783873
p1815
sVsizes
p1816
(dp1817
Vlarge
p1818
(dp1819
Vh
p1820
I333
sVresize
p1821
Vfit
p1822
sVw
p1823
I236
ssVsmall
p1824
(dp1825
Vh
p1826
I333
sVresize
p1827
Vfit
p1828
sVw
p1829
I236
ssVmedium
p1830
(dp1831
Vh
p1832
I333
sVresize
p1833
Vfit
p1834
sVw
p1835
I236
ssVthumb
p1836
(dp1837
Vh
p1838
I150
sVresize
p1839
Vcrop
p1840
sVw
p1841
I150
sssVindices
p1842
(lp1843
I62
aI84
asVtype
p1844
Vphoto
p1845
sVid
p1846
I503238978728783873
sVmedia_url
p1847
Vhttp://pbs.twimg.com/media/BvvdL1RCcAE4Jbx.jpg
p1848
sasg73
Nsg74
Nsg75
Nsg76
VSat Aug 23 17:54:57 +0000 2014
p1849
sg78
Nsg79
I00
sg80
Nsg81
Nsg82
Nsg83
Nsg84
I00
sg85
Nsg86
(lp1850
sg88
Nsg89
V503238980687921152
p1851
sg91
Nsg92
VWhoops! Top 10 Wedding day nip slips \U0001f449http://t.co/YcgFFKAPgW\U0001f448 http://t.co/yxMoWrFpZ1
p1852
sg94
I00
sg95
Ven
p1853
sg97
g3
(g98
g5
Ntp1854
Rp1855
(dp1856
g10
VHollywood
p1857
sg103
V3C3940
p1858
sg105
Ven
p1859
sg107
VEastern Time (US & Canada)
p1860
sg109
I17662
sg110
I600
sg76
VMon Dec 17 05:14:25 +0000 2012
p1861
sg112
I00
sg113
VLatest gossip news and trends!\u000aGain thousands of REAL Followers (see link) http://t.co/hFhndYH8HI
p1862
sg115
Vhttps://pbs.twimg.com/profile_images/471720141256806400/T1gVVnkb_normal.jpeg
p1863
sg117
I1880
sg118
I48
sg119
I-18000
sg120
Nsg121
I00
sg122
Vhttps://pbs.twimg.com/profile_banners/1016729364/1401986090
p1864
sg124
I00
sg125
I00
sg126
V0099B9
p1865
sg128
I00
sg129
I00
sg130
Vhttp://abs.twimg.com/images/themes/theme4/bg.gif
p1866
sg132
ViGossip2u
p1867
sg134
I32
sg135
ViGossipTop10
p1868
sg137
V95E8EC
p1869
sg139
Vhttp://t.co/hFhndYH8HI
p1870
sg140
I1016729364
sg141
V0099B9
p1871
sbsg143
I1556
sg144
V<a href="http://twitter.com" rel="nofollow">Twitter Web Client</a>
p1872
sg146
(lp1873
g3
(g148
g5
Ntp1874
Rp1875
(dp1876
g152
Vhttp://t.co/YcgFFKAPgW
p1877
sg154
Vhttp://bit.ly/1trtrtN
p1878
sbasg140
I503238980687921152
sbsg20
Nsg21
(lp1879
(dp1880
Vsource_user_id
p1881
I1016729364
sVsource_status_id_str
p1882
V503238980687921152
p1883
sVexpanded_url
p1884
Vhttp://twitter.com/iGossip2u/status/503238980687921152/photo/1
p1885
sVdisplay_url
p1886
Vpic.twitter.com/yxMoWrFpZ1
p1887
sVurl
p1888
Vhttp://t.co/yxMoWrFpZ1
p1889
sVmedia_url_https
p1890
Vhttps://pbs.twimg.com/media/BvvdL1RCcAE4Jbx.jpg
p1891
sVsource_user_id_str
p1892
V1016729364
p1893
sVsource_status_id
p1894
I503238980687921152
sVid_str
p1895
V503238978728783873
p1896
sVsizes
p1897
(dp1898
Vlarge
p1899
(dp1900
Vh
p1901
I333
sVresize
p1902
Vfit
p1903
sVw
p1904
I236
ssVsmall
p1905
(dp1906
Vh
p1907
I333
sVresize
p1908
Vfit
p1909
sVw
p1910
I236
ssVmedium
p1911
(dp1912
Vh
p1913
I333
sVresize
p1914
Vfit
p1915
sVw
p1916
I236
ssVthumb
p1917
(dp1918
Vh
p1919
I150
sVresize
p1920
Vcrop
p1921
sVw
p1922
I150
sssVindices
p1923
(lp1924
I77
aI99
asVtype
p1925
Vphoto
p1926
sVid
p1927
I503238978728783873
sVmedia_url
p1928
Vhttp://pbs.twimg.com/media/BvvdL1RCcAE4Jbx.jpg
p1929
sasg73
Nsg74
Nsg75
Nsg76
VSun Dec 14 20:01:22 +0000 2014
p1930
sg78
Nsg79
I00
sg80
Nsg81
Nsg82
Nsg83
Nsg84
I00
sg85
Nsg86
(lp1931
g3
(g98
g5
Ntp1932
Rp1933
(dp1934
g10
Nsg103
Nsg105
Nsg107
Nsg109
Nsg110
Nsg76
Nsg112
Nsg113
Nsg115
Nsg117
Nsg118
Nsg119
Nsg120
Nsg121
Nsg122
Nsg124
Nsg125
Nsg126
Nsg128
Nsg129
Nsg130
Nsg132
ViGossip2u
p1935
sg134
Nsg135
ViGossipTop10
p1936
sg137
Nsg139
Nsg140
I1016729364
sg141
Nsbasg88
Nsg89
V544220622302490624
p1937
sg91
Nsg92
VRT @iGossip2u: Whoops! Top 10 Wedding day nip slips \U0001f449http://t.co/YcgFFKAPgW\U0001f448 http://t.co/yxMoWrFpZ1
p1938
sg94
I00
sg95
Ven
p1939
sg97
g3
(g98
g5
Ntp1940
Rp1941
(dp1942
g10
VThe Road.
p1943
sg103
V575757
p1944
sg105
Ven
p1945
sg107
VPacific Time (US & Canada)
p1946
sg109
I32903
sg110
I11749
sg76
VFri Jun 25 19:29:18 +0000 2010
p1947
sg112
I00
sg113
VFast & Furious Lifestyle,  I'm that nigga your momma told you not to mess with. That orange car, Is my Firebird. ( Backup Account )
p1948
sg115
Vhttps://pbs.twimg.com/profile_images/449550509867663360/jprsiSlS_normal.jpeg
p1949
sg117
I36502
sg118
I163
sg119
I-28800
sg120
Nsg121
I00
sg122
Vhttps://pbs.twimg.com/profile_banners/159575564/1354380596
p1950
sg124
I00
sg125
I00
sg126
V990000
p1951
sg128
I00
sg129
I00
sg130
Vhttp://pbs.twimg.com/profile_background_images/713175521/d0f6a0ea0136c05f8bf1810733775487.jpeg
p1952
sg132
VPKayven
p1953
sg134
I200
sg135
VPK - Street Racer
p1954
sg137
V000000
p1955
sg139
Nsg140
I159575564
sg141
V000000
p1956
sbsg143
I1556
sg144
V<a href="http://www.hootsuite.com" rel="nofollow">Hootsuite</a>
p1957
sg146
(lp1958
g3
(g148
g5
Ntp1959
Rp1960
(dp1961
g152
Vhttp://t.co/YcgFFKAPgW
p1962
sg154
Vhttp://bit.ly/1trtrtN
p1963
sbasg140
I544220622302490624
sbag3
(g4
g5
Ntp1964
Rp1965
(dp1966
g9
I0
sg10
Nsg11
Nsg12
(lp1967
sg14
I00
sg15
g3
(g4
g5
Ntp1968
Rp1969
(dp1970
g9
I1
sg10
Nsg11
Nsg12
(lp1971
sg14
I00
sg15
Nsg20
Nsg21
(lp1972
(dp1973
Vsource_user_id
p1974
I2381747401
sVsource_status_id_str
p1975
V541293826652917760
p1976
sVexpanded_url
p1977
Vhttp://twitter.com/WomensHeaIthNow/status/541293826652917760/photo/1
p1978
sVdisplay_url
p1979
Vpic.twitter.com/8EAbiAuARr
p1980
sVurl
p1981
Vhttp://t.co/8EAbiAuARr
p1982
sVmedia_url_https
p1983
Vhttps://pbs.twimg.com/media/B4MP3dsCUAAn6Oq.png
p1984
sVsource_user_id_str
p1985
V2381747401
p1986
sVsource_status_id
p1987
I541293826652917760
sVid_str
p1988
V541293825751142400
p1989
sVsizes
p1990
(dp1991
Vlarge
p1992
(dp1993
Vh
p1994
I514
sVresize
p1995
Vfit
p1996
sVw
p1997
I609
ssVsmall
p1998
(dp1999
Vh
p2000
I286
sVresize
p2001
Vfit
p2002
sVw
p2003
I340
ssVmedium
p2004
(dp2005
Vh
p2006
I506
sVresize
p2007
Vfit
p2008
sVw
p2009
I600
ssVthumb
p2010
(dp2011
Vh
p2012
I150
sVresize
p2013
Vcrop
p2014
sVw
p2015
I150
sssVindices
p2016
(lp2017
I103
aI125
asVtype
p2018
Vphoto
p2019
sVid
p2020
I541293825751142400
sVmedia_url
p2021
Vhttp://pbs.twimg.com/media/B4MP3dsCUAAn6Oq.png
p2022
sasg73
Nsg74
Nsg75
Nsg76
VSun Dec 14 16:40:48 +0000 2014
p2023
sg78
Nsg79
I00
sg80
Nsg81
Nsg82
Nsg83
Nsg84
I00
sg85
Nsg86
(lp2024
sg88
Nsg89
V544170151432581120
p2025
sg91
Nsg92
VFinally got my Bikini Body! \u000aThis simple 2 step cleanse truly works like magic!\u000ahttp://t.co/g3X2aRHfJw\u000ahttp://t.co/8EAbiAuARr
p2026
sg94
I00
sg95
Ven
p2027
sg97
g3
(g98
g5
Ntp2028
Rp2029
(dp2030
g10
VNew York 
p2031
sg103
V333333
p2032
sg105
Ven
p2033
sg107
VCentral Time (US & Canada)
p2034
sg109
I10346
sg110
I1633
sg76
VTue Oct 28 19:04:55 +0000 2014
p2035
sg112
I00
sg113
VFitness Products for sale. A healthy lifestyle with staying in good shape is our aim
p2036
sg115
Vhttps://pbs.twimg.com/profile_images/543798692688703488/XlEi_59-_normal.jpeg
p2037
sg117
I9267
sg118
I1420
sg119
I-21600
sg120
Nsg121
I00
sg122
Vhttps://pbs.twimg.com/profile_banners/2848650785/1418486685
p2038
sg124
I00
sg125
I00
sg126
V0084B4
p2039
sg128
I00
sg129
I00
sg130
Vhttp://abs.twimg.com/images/themes/theme1/bg.png
p2040
sg132
VFitnessPr0ducts
p2041
sg134
I9
sg135
VFelicia (Fitness)
p2042
sg137
VDDEEF6
p2043
sg139
Nsg140
I2848650785
sg141
VC0DEED
p2044
sbsg143
I40
sg144
V<a href="https://about.twitter.com/products/tweetdeck" rel="nofollow">TweetDeck</a>
p2045
sg146
(lp2046
g3
(g148
g5
Ntp2047
Rp2048
(dp2049
g152
Vhttp://t.co/g3X2aRHfJw
p2050
sg154
Vhttp://be-heaIthy.com/ZyTzYp
p2051
sbasg140
I544170151432581120
sbsg20
Nsg21
(lp2052
(dp2053
Vsource_user_id
p2054
I2381747401
sVsource_status_id_str
p2055
V541293826652917760
p2056
sVexpanded_url
p2057
Vhttp://twitter.com/WomensHeaIthNow/status/541293826652917760/photo/1
p2058
sVdisplay_url
p2059
Vpic.twitter.com/8EAbiAuARr
p2060
sVurl
p2061
Vhttp://t.co/8EAbiAuARr
p2062
sVmedia_url_https
p2063
Vhttps://pbs.twimg.com/media/B4MP3dsCUAAn6Oq.png
p2064
sVsource_user_id_str
p2065
V2381747401
p2066
sVsource_status_id
p2067
I541293826652917760
sVid_str
p2068
V541293825751142400
p2069
sVsizes
p2070
(dp2071
Vlarge
p2072
(dp2073
Vh
p2074
I514
sVresize
p2075
Vfit
p2076
sVw
p2077
I609
ssVsmall
p2078
(dp2079
Vh
p2080
I286
sVresize
p2081
Vfit
p2082
sVw
p2083
I340
ssVmedium
p2084
(dp2085
Vh
p2086
I506
sVresize
p2087
Vfit
p2088
sVw
p2089
I600
ssVthumb
p2090
(dp2091
Vh
p2092
I150
sVresize
p2093
Vcrop
p2094
sVw
p2095
I150
sssVindices
p2096
(lp2097
I139
aI140
asVtype
p2098
Vphoto
p2099
sVid
p2100
I541293825751142400
sVmedia_url
p2101
Vhttp://pbs.twimg.com/media/B4MP3dsCUAAn6Oq.png
p2102
sasg73
Nsg74
Nsg75
Nsg76
VSun Dec 14 20:01:07 +0000 2014
p2103
sg78
Nsg79
I00
sg80
Nsg81
Nsg82
Nsg83
Nsg84
I00
sg85
Nsg86
(lp2104
g3
(g98
g5
Ntp2105
Rp2106
(dp2107
g10
Nsg103
Nsg105
Nsg107
Nsg109
Nsg110
Nsg76
Nsg112
Nsg113
Nsg115
Nsg117
Nsg118
Nsg119
Nsg120
Nsg121
Nsg122
Nsg124
Nsg125
Nsg126
Nsg128
Nsg129
Nsg130
Nsg132
VFitnessPr0ducts
p2108
sg134
Nsg135
VFelicia (Fitness)
p2109
sg137
Nsg139
Nsg140
I2848650785
sg141
Nsbasg88
Nsg89
V544220558834278400
p2110
sg91
Nsg92
VRT @FitnessPr0ducts: Finally got my Bikini Body! \u000aThis simple 2 step cleanse truly works like magic!\u000ahttp://t.co/g3X2aRHfJw\u000ahttp://t.co/8EA\u2026
p2111
sg94
I00
sg95
Ven
p2112
sg97
g3
(g98
g5
Ntp2113
Rp2114
(dp2115
g10
VThe Road.
p2116
sg103
V575757
p2117
sg105
Ven
p2118
sg107
VPacific Time (US & Canada)
p2119
sg109
I32903
sg110
I11749
sg76
VFri Jun 25 19:29:18 +0000 2010
p2120
sg112
I00
sg113
VFast & Furious Lifestyle,  I'm that nigga your momma told you not to mess with. That orange car, Is my Firebird. ( Backup Account )
p2121
sg115
Vhttps://pbs.twimg.com/profile_images/449550509867663360/jprsiSlS_normal.jpeg
p2122
sg117
I36502
sg118
I163
sg119
I-28800
sg120
Nsg121
I00
sg122
Vhttps://pbs.twimg.com/profile_banners/159575564/1354380596
p2123
sg124
I00
sg125
I00
sg126
V990000
p2124
sg128
I00
sg129
I00
sg130
Vhttp://pbs.twimg.com/profile_background_images/713175521/d0f6a0ea0136c05f8bf1810733775487.jpeg
p2125
sg132
VPKayven
p2126
sg134
I200
sg135
VPK - Street Racer
p2127
sg137
V000000
p2128
sg139
Nsg140
I159575564
sg141
V000000
p2129
sbsg143
I40
sg144
V<a href="http://www.hootsuite.com" rel="nofollow">Hootsuite</a>
p2130
sg146
(lp2131
g3
(g148
g5
Ntp2132
Rp2133
(dp2134
g152
Vhttp://t.co/g3X2aRHfJw
p2135
sg154
Vhttp://be-heaIthy.com/ZyTzYp
p2136
sbasg140
I544220558834278400
sbag3
(g4
g5
Ntp2137
Rp2138
(dp2139
g9
I0
sg10
Nsg11
Nsg12
(lp2140
sg14
I00
sg15
g3
(g4
g5
Ntp2141
Rp2142
(dp2143
g9
I280
sg10
Nsg11
Nsg12
(lp2144
sg14
I00
sg15
Nsg20
Nsg21
(lp2145
(dp2146
Vexpanded_url
p2147
Vhttp://twitter.com/iGossip2u/status/504679648937402368/photo/1
p2148
sVdisplay_url
p2149
Vpic.twitter.com/YbtlGIAzn3
p2150
sVurl
p2151
Vhttp://t.co/YbtlGIAzn3
p2152
sVmedia_url_https
p2153
Vhttps://pbs.twimg.com/media/BwD7dydCMAAPI2W.jpg
p2154
sVid_str
p2155
V504679647443824640
p2156
sVsizes
p2157
(dp2158
Vlarge
p2159
(dp2160
Vh
p2161
I738
sVresize
p2162
Vfit
p2163
sVw
p2164
I599
ssVsmall
p2165
(dp2166
Vh
p2167
I418
sVresize
p2168
Vfit
p2169
sVw
p2170
I340
ssVmedium
p2171
(dp2172
Vh
p2173
I738
sVresize
p2174
Vfit
p2175
sVw
p2176
I599
ssVthumb
p2177
(dp2178
Vh
p2179
I150
sVresize
p2180
Vcrop
p2181
sVw
p2182
I150
sssVindices
p2183
(lp2184
I59
aI81
asVtype
p2185
Vphoto
p2186
sVid
p2187
I504679647443824640
sVmedia_url
p2188
Vhttp://pbs.twimg.com/media/BwD7dydCMAAPI2W.jpg
p2189
sasg73
Nsg74
Nsg75
Nsg76
VWed Aug 27 17:19:39 +0000 2014
p2190
sg78
Nsg79
I00
sg80
Nsg81
Nsg82
Nsg83
Nsg84
I00
sg85
Nsg86
(lp2191
sg88
Nsg89
V504679648937402368
p2192
sg91
Nsg92
V10 Pictures BANNED from Facebook! \U0001f449http://t.co/P9zt9OZkP0\U0001f448 http://t.co/YbtlGIAzn3
p2193
sg94
I00
sg95
Ven
p2194
sg97
g3
(g98
g5
Ntp2195
Rp2196
(dp2197
g10
VHollywood
p2198
sg103
V3C3940
p2199
sg105
Ven
p2200
sg107
VEastern Time (US & Canada)
p2201
sg109
I17662
sg110
I600
sg76
VMon Dec 17 05:14:25 +0000 2012
p2202
sg112
I00
sg113
VLatest gossip news and trends!\u000aGain thousands of REAL Followers (see link) http://t.co/hFhndYH8HI
p2203
sg115
Vhttps://pbs.twimg.com/profile_images/471720141256806400/T1gVVnkb_normal.jpeg
p2204
sg117
I1880
sg118
I48
sg119
I-18000
sg120
Nsg121
I00
sg122
Vhttps://pbs.twimg.com/profile_banners/1016729364/1401986090
p2205
sg124
I00
sg125
I00
sg126
V0099B9
p2206
sg128
I00
sg129
I00
sg130
Vhttp://abs.twimg.com/images/themes/theme4/bg.gif
p2207
sg132
ViGossip2u
p2208
sg134
I32
sg135
ViGossipTop10
p2209
sg137
V95E8EC
p2210
sg139
Vhttp://t.co/hFhndYH8HI
p2211
sg140
I1016729364
sg141
V0099B9
p2212
sbsg143
I564
sg144
V<a href="http://twitter.com" rel="nofollow">Twitter Web Client</a>
p2213
sg146
(lp2214
g3
(g148
g5
Ntp2215
Rp2216
(dp2217
g152
Vhttp://t.co/P9zt9OZkP0
p2218
sg154
Vhttp://bit.ly/1zFpNN2
p2219
sbasg140
I504679648937402368
sbsg20
Nsg21
(lp2220
(dp2221
Vsource_user_id
p2222
I1016729364
sVsource_status_id_str
p2223
V504679648937402368
p2224
sVexpanded_url
p2225
Vhttp://twitter.com/iGossip2u/status/504679648937402368/photo/1
p2226
sVdisplay_url
p2227
Vpic.twitter.com/YbtlGIAzn3
p2228
sVurl
p2229
Vhttp://t.co/YbtlGIAzn3
p2230
sVmedia_url_https
p2231
Vhttps://pbs.twimg.com/media/BwD7dydCMAAPI2W.jpg
p2232
sVsource_user_id_str
p2233
V1016729364
p2234
sVsource_status_id
p2235
I504679648937402368
sVid_str
p2236
V504679647443824640
p2237
sVsizes
p2238
(dp2239
Vlarge
p2240
(dp2241
Vh
p2242
I738
sVresize
p2243
Vfit
p2244
sVw
p2245
I599
ssVsmall
p2246
(dp2247
Vh
p2248
I418
sVresize
p2249
Vfit
p2250
sVw
p2251
I340
ssVmedium
p2252
(dp2253
Vh
p2254
I738
sVresize
p2255
Vfit
p2256
sVw
p2257
I599
ssVthumb
p2258
(dp2259
Vh
p2260
I150
sVresize
p2261
Vcrop
p2262
sVw
p2263
I150
sssVindices
p2264
(lp2265
I74
aI96
asVtype
p2266
Vphoto
p2267
sVid
p2268
I504679647443824640
sVmedia_url
p2269
Vhttp://pbs.twimg.com/media/BwD7dydCMAAPI2W.jpg
p2270
sasg73
Nsg74
Nsg75
Nsg76
VSun Dec 14 20:00:55 +0000 2014
p2271
sg78
Nsg79
I00
sg80
Nsg81
Nsg82
Nsg83
Nsg84
I00
sg85
Nsg86
(lp2272
g3
(g98
g5
Ntp2273
Rp2274
(dp2275
g10
Nsg103
Nsg105
Nsg107
Nsg109
Nsg110
Nsg76
Nsg112
Nsg113
Nsg115
Nsg117
Nsg118
Nsg119
Nsg120
Nsg121
Nsg122
Nsg124
Nsg125
Nsg126
Nsg128
Nsg129
Nsg130
Nsg132
ViGossip2u
p2276
sg134
Nsg135
ViGossipTop10
p2277
sg137
Nsg139
Nsg140
I1016729364
sg141
Nsbasg88
Nsg89
V544220512353013760
p2278
sg91
Nsg92
VRT @iGossip2u: 10 Pictures BANNED from Facebook! \U0001f449http://t.co/P9zt9OZkP0\U0001f448 http://t.co/YbtlGIAzn3
p2279
sg94
I00
sg95
Ven
p2280
sg97
g3
(g98
g5
Ntp2281
Rp2282
(dp2283
g10
VThe Road.
p2284
sg103
V575757
p2285
sg105
Ven
p2286
sg107
VPacific Time (US & Canada)
p2287
sg109
I32903
sg110
I11749
sg76
VFri Jun 25 19:29:18 +0000 2010
p2288
sg112
I00
sg113
VFast & Furious Lifestyle,  I'm that nigga your momma told you not to mess with. That orange car, Is my Firebird. ( Backup Account )
p2289
sg115
Vhttps://pbs.twimg.com/profile_images/449550509867663360/jprsiSlS_normal.jpeg
p2290
sg117
I36502
sg118
I163
sg119
I-28800
sg120
Nsg121
I00
sg122
Vhttps://pbs.twimg.com/profile_banners/159575564/1354380596
p2291
sg124
I00
sg125
I00
sg126
V990000
p2292
sg128
I00
sg129
I00
sg130
Vhttp://pbs.twimg.com/profile_background_images/713175521/d0f6a0ea0136c05f8bf1810733775487.jpeg
p2293
sg132
VPKayven
p2294
sg134
I200
sg135
VPK - Street Racer
p2295
sg137
V000000
p2296
sg139
Nsg140
I159575564
sg141
V000000
p2297
sbsg143
I564
sg144
V<a href="http://www.hootsuite.com" rel="nofollow">Hootsuite</a>
p2298
sg146
(lp2299
g3
(g148
g5
Ntp2300
Rp2301
(dp2302
g152
Vhttp://t.co/P9zt9OZkP0
p2303
sg154
Vhttp://bit.ly/1zFpNN2
p2304
sbasg140
I544220512353013760
sbag3
(g4
g5
Ntp2305
Rp2306
(dp2307
g9
I0
sg10
Nsg11
Nsg12
(lp2308
sg14
I00
sg15
g3
(g4
g5
Ntp2309
Rp2310
(dp2311
g9
I5
sg10
Nsg11
Nsg12
(lp2312
sg14
I00
sg15
Nsg20
Nsg21
(lp2313
(dp2314
Vsource_user_id
p2315
I2381747401
sVsource_status_id_str
p2316
V541293926049513473
p2317
sVexpanded_url
p2318
Vhttp://twitter.com/WomensHeaIthNow/status/541293926049513473/photo/1
p2319
sVdisplay_url
p2320
Vpic.twitter.com/kQedeBQEpD
p2321
sVurl
p2322
Vhttp://t.co/kQedeBQEpD
p2323
sVmedia_url_https
p2324
Vhttps://pbs.twimg.com/media/B4MP9QnCAAAofjd.png
p2325
sVsource_user_id_str
p2326
V2381747401
p2327
sVsource_status_id
p2328
I541293926049513473
sVid_str
p2329
V541293925319704576
p2330
sVsizes
p2331
(dp2332
Vsmall
p2333
(dp2334
Vh
p2335
I272
sVresize
p2336
Vfit
p2337
sVw
p2338
I340
ssVlarge
p2339
(dp2340
Vh
p2341
I488
sVresize
p2342
Vfit
p2343
sVw
p2344
I608
ssVmedium
p2345
(dp2346
Vh
p2347
I481
sVresize
p2348
Vfit
p2349
sVw
p2350
I600
ssVthumb
p2351
(dp2352
Vh
p2353
I150
sVresize
p2354
Vcrop
p2355
sVw
p2356
I150
sssVindices
p2357
(lp2358
I100
aI122
asVtype
p2359
Vphoto
p2360
sVid
p2361
I541293925319704576
sVmedia_url
p2362
Vhttp://pbs.twimg.com/media/B4MP9QnCAAAofjd.png
p2363
sasg73
Nsg74
Nsg75
Nsg76
VSun Dec 14 16:40:57 +0000 2014
p2364
sg78
Nsg79
I00
sg80
Nsg81
Nsg82
Nsg83
Nsg84
I00
sg85
Nsg86
(lp2365
sg88
Nsg89
V544170185767129088
p2366
sg91
Nsg92
V95% of high school girls use this to lose weight for a PERFECT Bikini Body! \u000ahttp://t.co/pyyHl1yluR\u000ahttp://t.co/kQedeBQEpD
p2367
sg94
I00
sg95
Ven
p2368
sg97
g3
(g98
g5
Ntp2369
Rp2370
(dp2371
g10
VUSA
p2372
sg103
V000000
p2373
sg105
Ven
p2374
sg107
VCentral Time (US & Canada)
p2375
sg109
I13134
sg110
I2434
sg76
VSun Oct 05 03:53:09 +0000 2014
p2376
sg112
I00
sg113
VHealth Tips and Fitness Products for Sale, Reasonable Prices. Get your Body In shape Today with just one Purchase http://t.co/xkOQknGGPw
p2377
sg115
Vhttps://pbs.twimg.com/profile_images/544123463632683008/4RmuTEEA_normal.jpeg
p2378
sg117
I10487
sg118
I2056
sg119
I-21600
sg120
Nsg121
I00
sg122
Vhttps://pbs.twimg.com/profile_banners/2806644423/1418487694
p2379
sg124
I00
sg125
I00
sg126
V4A913C
p2380
sg128
I00
sg129
I00
sg130
Vhttp://abs.twimg.com/images/themes/theme1/bg.png
p2381
sg132
VFitness_HeaIth
p2382
sg134
I18
sg135
VMelissa
p2383
sg137
V000000
p2384
sg139
Nsg140
I2806644423
sg141
V000000
p2385
sbsg143
I41
sg144
V<a href="https://about.twitter.com/products/tweetdeck" rel="nofollow">TweetDeck</a>
p2386
sg146
(lp2387
g3
(g148
g5
Ntp2388
Rp2389
(dp2390
g152
Vhttp://t.co/pyyHl1yluR
p2391
sg154
Vhttp://be-heaIthy.com/ZyTzYp
p2392
sbasg140
I544170185767129088
sbsg20
Nsg21
(lp2393
(dp2394
Vsource_user_id
p2395
I2381747401
sVsource_status_id_str
p2396
V541293926049513473
p2397
sVexpanded_url
p2398
Vhttp://twitter.com/WomensHeaIthNow/status/541293926049513473/photo/1
p2399
sVdisplay_url
p2400
Vpic.twitter.com/kQedeBQEpD
p2401
sVurl
p2402
Vhttp://t.co/kQedeBQEpD
p2403
sVmedia_url_https
p2404
Vhttps://pbs.twimg.com/media/B4MP9QnCAAAofjd.png
p2405
sVsource_user_id_str
p2406
V2381747401
p2407
sVsource_status_id
p2408
I541293926049513473
sVid_str
p2409
V541293925319704576
p2410
sVsizes
p2411
(dp2412
Vsmall
p2413
(dp2414
Vh
p2415
I272
sVresize
p2416
Vfit
p2417
sVw
p2418
I340
ssVlarge
p2419
(dp2420
Vh
p2421
I488
sVresize
p2422
Vfit
p2423
sVw
p2424
I608
ssVmedium
p2425
(dp2426
Vh
p2427
I481
sVresize
p2428
Vfit
p2429
sVw
p2430
I600
ssVthumb
p2431
(dp2432
Vh
p2433
I150
sVresize
p2434
Vcrop
p2435
sVw
p2436
I150
sssVindices
p2437
(lp2438
I139
aI140
asVtype
p2439
Vphoto
p2440
sVid
p2441
I541293925319704576
sVmedia_url
p2442
Vhttp://pbs.twimg.com/media/B4MP9QnCAAAofjd.png
p2443
sasg73
Nsg74
Nsg75
Nsg76
VSun Dec 14 20:00:26 +0000 2014
p2444
sg78
Nsg79
I00
sg80
Nsg81
Nsg82
Nsg83
Nsg84
I00
sg85
Nsg86
(lp2445
g3
(g98
g5
Ntp2446
Rp2447
(dp2448
g10
Nsg103
Nsg105
Nsg107
Nsg109
Nsg110
Nsg76
Nsg112
Nsg113
Nsg115
Nsg117
Nsg118
Nsg119
Nsg120
Nsg121
Nsg122
Nsg124
Nsg125
Nsg126
Nsg128
Nsg129
Nsg130
Nsg132
VFitness_HeaIth
p2449
sg134
Nsg135
VMelissa
p2450
sg137
Nsg139
Nsg140
I2806644423
sg141
Nsbasg88
Nsg89
V544220386884612097
p2451
sg91
Nsg92
VRT @Fitness_HeaIth: 95% of high school girls use this to lose weight for a PERFECT Bikini Body! \u000ahttp://t.co/pyyHl1yluR\u000ahttp://t.co/kQedeBQ\u2026
p2452
sg94
I00
sg95
Ven
p2453
sg97
g3
(g98
g5
Ntp2454
Rp2455
(dp2456
g10
VThe Road.
p2457
sg103
V575757
p2458
sg105
Ven
p2459
sg107
VPacific Time (US & Canada)
p2460
sg109
I32903
sg110
I11749
sg76
VFri Jun 25 19:29:18 +0000 2010
p2461
sg112
I00
sg113
VFast & Furious Lifestyle,  I'm that nigga your momma told you not to mess with. That orange car, Is my Firebird. ( Backup Account )
p2462
sg115
Vhttps://pbs.twimg.com/profile_images/449550509867663360/jprsiSlS_normal.jpeg
p2463
sg117
I36502
sg118
I163
sg119
I-28800
sg120
Nsg121
I00
sg122
Vhttps://pbs.twimg.com/profile_banners/159575564/1354380596
p2464
sg124
I00
sg125
I00
sg126
V990000
p2465
sg128
I00
sg129
I00
sg130
Vhttp://pbs.twimg.com/profile_background_images/713175521/d0f6a0ea0136c05f8bf1810733775487.jpeg
p2466
sg132
VPKayven
p2467
sg134
I200
sg135
VPK - Street Racer
p2468
sg137
V000000
p2469
sg139
Nsg140
I159575564
sg141
V000000
p2470
sbsg143
I41
sg144
V<a href="http://www.hootsuite.com" rel="nofollow">Hootsuite</a>
p2471
sg146
(lp2472
g3
(g148
g5
Ntp2473
Rp2474
(dp2475
g152
Vhttp://t.co/pyyHl1yluR
p2476
sg154
Vhttp://be-heaIthy.com/ZyTzYp
p2477
sbasg140
I544220386884612097
sbag3
(g4
g5
Ntp2478
Rp2479
(dp2480
g9
I0
sg10
Nsg11
Nsg12
(lp2481
sg14
I00
sg15
g3
(g4
g5
Ntp2482
Rp2483
(dp2484
g9
I169
sg10
Nsg11
Nsg12
(lp2485
sg14
I00
sg15
Nsg20
Nsg21
(lp2486
(dp2487
Vexpanded_url
p2488
Vhttp://twitter.com/iGossip2u/status/504680899083247616/photo/1
p2489
sVdisplay_url
p2490
Vpic.twitter.com/NtYIG95mv9
p2491
sVurl
p2492
Vhttp://t.co/NtYIG95mv9
p2493
sVmedia_url_https
p2494
Vhttps://pbs.twimg.com/media/BwD8mliIYAEAblR.jpg
p2495
sVid_str
p2496
V504680898105991169
p2497
sVsizes
p2498
(dp2499
Vsmall
p2500
(dp2501
Vh
p2502
I226
sVresize
p2503
Vfit
p2504
sVw
p2505
I340
ssVlarge
p2506
(dp2507
Vh
p2508
I399
sVresize
p2509
Vfit
p2510
sVw
p2511
I599
ssVmedium
p2512
(dp2513
Vh
p2514
I399
sVresize
p2515
Vfit
p2516
sVw
p2517
I599
ssVthumb
p2518
(dp2519
Vh
p2520
I150
sVresize
p2521
Vcrop
p2522
sVw
p2523
I150
sssVindices
p2524
(lp2525
I53
aI75
asVtype
p2526
Vphoto
p2527
sVid
p2528
I504680898105991169
sVmedia_url
p2529
Vhttp://pbs.twimg.com/media/BwD8mliIYAEAblR.jpg
p2530
sasg73
Nsg74
Nsg75
Nsg76
VWed Aug 27 17:24:37 +0000 2014
p2531
sg78
Nsg79
I00
sg80
Nsg81
Nsg82
Nsg83
Nsg84
I00
sg85
Nsg86
(lp2532
sg88
Nsg89
V504680899083247616
p2533
sg91
Nsg92
V10 Things Women Hate In Bed \U0001f449http://t.co/NZaPsFcmUa\U0001f448 http://t.co/NtYIG95mv9
p2534
sg94
I00
sg95
Ven
p2535
sg97
g3
(g98
g5
Ntp2536
Rp2537
(dp2538
g10
VHollywood
p2539
sg103
V3C3940
p2540
sg105
Ven
p2541
sg107
VEastern Time (US & Canada)
p2542
sg109
I17662
sg110
I600
sg76
VMon Dec 17 05:14:25 +0000 2012
p2543
sg112
I00
sg113
VLatest gossip news and trends!\u000aGain thousands of REAL Followers (see link) http://t.co/hFhndYH8HI
p2544
sg115
Vhttps://pbs.twimg.com/profile_images/471720141256806400/T1gVVnkb_normal.jpeg
p2545
sg117
I1880
sg118
I48
sg119
I-18000
sg120
Nsg121
I00
sg122
Vhttps://pbs.twimg.com/profile_banners/1016729364/1401986090
p2546
sg124
I00
sg125
I00
sg126
V0099B9
p2547
sg128
I00
sg129
I00
sg130
Vhttp://abs.twimg.com/images/themes/theme4/bg.gif
p2548
sg132
ViGossip2u
p2549
sg134
I32
sg135
ViGossipTop10
p2550
sg137
V95E8EC
p2551
sg139
Vhttp://t.co/hFhndYH8HI
p2552
sg140
I1016729364
sg141
V0099B9
p2553
sbsg143
I396
sg144
V<a href="http://twitter.com" rel="nofollow">Twitter Web Client</a>
p2554
sg146
(lp2555
g3
(g148
g5
Ntp2556
Rp2557
(dp2558
g152
Vhttp://t.co/NZaPsFcmUa
p2559
sg154
Vhttp://bit.ly/1tVIRVC
p2560
sbasg140
I504680899083247616
sbsg20
Nsg21
(lp2561
(dp2562
Vsource_user_id
p2563
I1016729364
sVsource_status_id_str
p2564
V504680899083247616
p2565
sVexpanded_url
p2566
Vhttp://twitter.com/iGossip2u/status/504680899083247616/photo/1
p2567
sVdisplay_url
p2568
Vpic.twitter.com/NtYIG95mv9
p2569
sVurl
p2570
Vhttp://t.co/NtYIG95mv9
p2571
sVmedia_url_https
p2572
Vhttps://pbs.twimg.com/media/BwD8mliIYAEAblR.jpg
p2573
sVsource_user_id_str
p2574
V1016729364
p2575
sVsource_status_id
p2576
I504680899083247616
sVid_str
p2577
V504680898105991169
p2578
sVsizes
p2579
(dp2580
Vsmall
p2581
(dp2582
Vh
p2583
I226
sVresize
p2584
Vfit
p2585
sVw
p2586
I340
ssVlarge
p2587
(dp2588
Vh
p2589
I399
sVresize
p2590
Vfit
p2591
sVw
p2592
I599
ssVmedium
p2593
(dp2594
Vh
p2595
I399
sVresize
p2596
Vfit
p2597
sVw
p2598
I599
ssVthumb
p2599
(dp2600
Vh
p2601
I150
sVresize
p2602
Vcrop
p2603
sVw
p2604
I150
sssVindices
p2605
(lp2606
I68
aI90
asVtype
p2607
Vphoto
p2608
sVid
p2609
I504680898105991169
sVmedia_url
p2610
Vhttp://pbs.twimg.com/media/BwD8mliIYAEAblR.jpg
p2611
sasg73
Nsg74
Nsg75
Nsg76
VSun Dec 14 20:00:22 +0000 2014
p2612
sg78
Nsg79
I00
sg80
Nsg81
Nsg82
Nsg83
Nsg84
I00
sg85
Nsg86
(lp2613
g3
(g98
g5
Ntp2614
Rp2615
(dp2616
g10
Nsg103
Nsg105
Nsg107
Nsg109
Nsg110
Nsg76
Nsg112
Nsg113
Nsg115
Nsg117
Nsg118
Nsg119
Nsg120
Nsg121
Nsg122
Nsg124
Nsg125
Nsg126
Nsg128
Nsg129
Nsg130
Nsg132
ViGossip2u
p2617
sg134
Nsg135
ViGossipTop10
p2618
sg137
Nsg139
Nsg140
I1016729364
sg141
Nsbasg88
Nsg89
V544220372925939712
p2619
sg91
Nsg92
VRT @iGossip2u: 10 Things Women Hate In Bed \U0001f449http://t.co/NZaPsFcmUa\U0001f448 http://t.co/NtYIG95mv9
p2620
sg94
I00
sg95
Ven
p2621
sg97
g3
(g98
g5
Ntp2622
Rp2623
(dp2624
g10
VThe Road.
p2625
sg103
V575757
p2626
sg105
Ven
p2627
sg107
VPacific Time (US & Canada)
p2628
sg109
I32903
sg110
I11749
sg76
VFri Jun 25 19:29:18 +0000 2010
p2629
sg112
I00
sg113
VFast & Furious Lifestyle,  I'm that nigga your momma told you not to mess with. That orange car, Is my Firebird. ( Backup Account )
p2630
sg115
Vhttps://pbs.twimg.com/profile_images/449550509867663360/jprsiSlS_normal.jpeg
p2631
sg117
I36502
sg118
I163
sg119
I-28800
sg120
Nsg121
I00
sg122
Vhttps://pbs.twimg.com/profile_banners/159575564/1354380596
p2632
sg124
I00
sg125
I00
sg126
V990000
p2633
sg128
I00
sg129
I00
sg130
Vhttp://pbs.twimg.com/profile_background_images/713175521/d0f6a0ea0136c05f8bf1810733775487.jpeg
p2634
sg132
VPKayven
p2635
sg134
I200
sg135
VPK - Street Racer
p2636
sg137
V000000
p2637
sg139
Nsg140
I159575564
sg141
V000000
p2638
sbsg143
I396
sg144
V<a href="http://www.hootsuite.com" rel="nofollow">Hootsuite</a>
p2639
sg146
(lp2640
g3
(g148
g5
Ntp2641
Rp2642
(dp2643
g152
Vhttp://t.co/NZaPsFcmUa
p2644
sg154
Vhttp://bit.ly/1tVIRVC
p2645
sbasg140
I544220372925939712
sbag3
(g4
g5
Ntp2646
Rp2647
(dp2648
g9
I0
sg10
Nsg11
Nsg12
(lp2649
sg14
I00
sg15
g3
(g4
g5
Ntp2650
Rp2651
(dp2652
g9
I6
sg10
Nsg11
Nsg12
(lp2653
sg14
I00
sg15
Nsg20
Nsg21
(lp2654
(dp2655
Vsource_user_id
p2656
I2381747401
sVsource_status_id_str
p2657
V541650190986264576
p2658
sVexpanded_url
p2659
Vhttp://twitter.com/WomensHeaIthNow/status/541650190986264576/photo/1
p2660
sVdisplay_url
p2661
Vpic.twitter.com/6dPhfAv2xV
p2662
sVurl
p2663
Vhttp://t.co/6dPhfAv2xV
p2664
sVmedia_url_https
p2665
Vhttps://pbs.twimg.com/media/B4RT-mrCYAA48Q4.png
p2666
sVsource_user_id_str
p2667
V2381747401
p2668
sVsource_status_id
p2669
I541650190986264576
sVid_str
p2670
V541650190189355008
p2671
sVsizes
p2672
(dp2673
Vlarge
p2674
(dp2675
Vh
p2676
I374
sVresize
p2677
Vfit
p2678
sVw
p2679
I511
ssVsmall
p2680
(dp2681
Vh
p2682
I248
sVresize
p2683
Vfit
p2684
sVw
p2685
I340
ssVmedium
p2686
(dp2687
Vh
p2688
I374
sVresize
p2689
Vfit
p2690
sVw
p2691
I511
ssVthumb
p2692
(dp2693
Vh
p2694
I150
sVresize
p2695
Vcrop
p2696
sVw
p2697
I150
sssVindices
p2698
(lp2699
I95
aI117
asVtype
p2700
Vphoto
p2701
sVid
p2702
I541650190189355008
sVmedia_url
p2703
Vhttp://pbs.twimg.com/media/B4RT-mrCYAA48Q4.png
p2704
sasg73
Nsg74
Nsg75
Nsg76
VSun Dec 14 16:41:06 +0000 2014
p2705
sg78
Nsg79
I00
sg80
Nsg81
Nsg82
Nsg83
Nsg84
I00
sg85
Nsg86
(lp2706
sg88
Nsg89
V544170226560950272
p2707
sg91
Nsg92
VIt's Time For You To Change Your Body! Become slim in 4 weeks with this\u000ahttp://t.co/pyyHl1yluR\u000ahttp://t.co/6dPhfAv2xV
p2708
sg94
I00
sg95
Ven
p2709
sg97
g3
(g98
g5
Ntp2710
Rp2711
(dp2712
g10
VUSA
p2713
sg103
V000000
p2714
sg105
Ven
p2715
sg107
VCentral Time (US & Canada)
p2716
sg109
I13134
sg110
I2434
sg76
VSun Oct 05 03:53:09 +0000 2014
p2717
sg112
I00
sg113
VHealth Tips and Fitness Products for Sale, Reasonable Prices. Get your Body In shape Today with just one Purchase http://t.co/xkOQknGGPw
p2718
sg115
Vhttps://pbs.twimg.com/profile_images/544123463632683008/4RmuTEEA_normal.jpeg
p2719
sg117
I10487
sg118
I2056
sg119
I-21600
sg120
Nsg121
I00
sg122
Vhttps://pbs.twimg.com/profile_banners/2806644423/1418487694
p2720
sg124
I00
sg125
I00
sg126
V4A913C
p2721
sg128
I00
sg129
I00
sg130
Vhttp://abs.twimg.com/images/themes/theme1/bg.png
p2722
sg132
VFitness_HeaIth
p2723
sg134
I18
sg135
VMelissa
p2724
sg137
V000000
p2725
sg139
Nsg140
I2806644423
sg141
V000000
p2726
sbsg143
I40
sg144
V<a href="https://about.twitter.com/products/tweetdeck" rel="nofollow">TweetDeck</a>
p2727
sg146
(lp2728
g3
(g148
g5
Ntp2729
Rp2730
(dp2731
g152
Vhttp://t.co/pyyHl1yluR
p2732
sg154
Vhttp://be-heaIthy.com/ZyTzYp
p2733
sbasg140
I544170226560950272
sbsg20
Nsg21
(lp2734
(dp2735
Vsource_user_id
p2736
I2381747401
sVsource_status_id_str
p2737
V541650190986264576
p2738
sVexpanded_url
p2739
Vhttp://twitter.com/WomensHeaIthNow/status/541650190986264576/photo/1
p2740
sVdisplay_url
p2741
Vpic.twitter.com/6dPhfAv2xV
p2742
sVurl
p2743
Vhttp://t.co/6dPhfAv2xV
p2744
sVmedia_url_https
p2745
Vhttps://pbs.twimg.com/media/B4RT-mrCYAA48Q4.png
p2746
sVsource_user_id_str
p2747
V2381747401
p2748
sVsource_status_id
p2749
I541650190986264576
sVid_str
p2750
V541650190189355008
p2751
sVsizes
p2752
(dp2753
Vlarge
p2754
(dp2755
Vh
p2756
I374
sVresize
p2757
Vfit
p2758
sVw
p2759
I511
ssVsmall
p2760
(dp2761
Vh
p2762
I248
sVresize
p2763
Vfit
p2764
sVw
p2765
I340
ssVmedium
p2766
(dp2767
Vh
p2768
I374
sVresize
p2769
Vfit
p2770
sVw
p2771
I511
ssVthumb
p2772
(dp2773
Vh
p2774
I150
sVresize
p2775
Vcrop
p2776
sVw
p2777
I150
sssVindices
p2778
(lp2779
I115
aI137
asVtype
p2780
Vphoto
p2781
sVid
p2782
I541650190189355008
sVmedia_url
p2783
Vhttp://pbs.twimg.com/media/B4RT-mrCYAA48Q4.png
p2784
sasg73
Nsg74
Nsg75
Nsg76
VSun Dec 14 20:00:00 +0000 2014
p2785
sg78
Nsg79
I00
sg80
Nsg81
Nsg82
Nsg83
Nsg84
I00
sg85
Nsg86
(lp2786
g3
(g98
g5
Ntp2787
Rp2788
(dp2789
g10
Nsg103
Nsg105
Nsg107
Nsg109
Nsg110
Nsg76
Nsg112
Nsg113
Nsg115
Nsg117
Nsg118
Nsg119
Nsg120
Nsg121
Nsg122
Nsg124
Nsg125
Nsg126
Nsg128
Nsg129
Nsg130
Nsg132
VFitness_HeaIth
p2790
sg134
Nsg135
VMelissa
p2791
sg137
Nsg139
Nsg140
I2806644423
sg141
Nsbasg88
Nsg89
V544220277908185089
p2792
sg91
Nsg92
VRT @Fitness_HeaIth: It's Time For You To Change Your Body! Become slim in 4 weeks with this\u000ahttp://t.co/pyyHl1yluR\u000ahttp://t.co/6dPhfAv2xV
p2793
sg94
I00
sg95
Ven
p2794
sg97
g3
(g98
g5
Ntp2795
Rp2796
(dp2797
g10
VThe Road.
p2798
sg103
V575757
p2799
sg105
Ven
p2800
sg107
VPacific Time (US & Canada)
p2801
sg109
I32903
sg110
I11749
sg76
VFri Jun 25 19:29:18 +0000 2010
p2802
sg112
I00
sg113
VFast & Furious Lifestyle,  I'm that nigga your momma told you not to mess with. That orange car, Is my Firebird. ( Backup Account )
p2803
sg115
Vhttps://pbs.twimg.com/profile_images/449550509867663360/jprsiSlS_normal.jpeg
p2804
sg117
I36502
sg118
I163
sg119
I-28800
sg120
Nsg121
I00
sg122
Vhttps://pbs.twimg.com/profile_banners/159575564/1354380596
p2805
sg124
I00
sg125
I00
sg126
V990000
p2806
sg128
I00
sg129
I00
sg130
Vhttp://pbs.twimg.com/profile_background_images/713175521/d0f6a0ea0136c05f8bf1810733775487.jpeg
p2807
sg132
VPKayven
p2808
sg134
I200
sg135
VPK - Street Racer
p2809
sg137
V000000
p2810
sg139
Nsg140
I159575564
sg141
V000000
p2811
sbsg143
I40
sg144
V<a href="http://www.hootsuite.com" rel="nofollow">Hootsuite</a>
p2812
sg146
(lp2813
g3
(g148
g5
Ntp2814
Rp2815
(dp2816
g152
Vhttp://t.co/pyyHl1yluR
p2817
sg154
Vhttp://be-heaIthy.com/ZyTzYp
p2818
sbasg140
I544220277908185089
sbag3
(g4
g5
Ntp2819
Rp2820
(dp2821
g9
I0
sg10
Nsg11
Nsg12
(lp2822
sg14
I00
sg15
g3
(g4
g5
Ntp2823
Rp2824
(dp2825
g9
I3
sg10
Nsg11
Nsg12
(lp2826
sg14
I00
sg15
Nsg20
Nsg21
(lp2827
(dp2828
Vsource_user_id
p2829
I2381747401
sVsource_status_id_str
p2830
V542023726686937088
p2831
sVexpanded_url
p2832
Vhttp://twitter.com/WomensHeaIthNow/status/542023726686937088/photo/1
p2833
sVdisplay_url
p2834
Vpic.twitter.com/af6I13kJnT
p2835
sVurl
p2836
Vhttp://t.co/af6I13kJnT
p2837
sVmedia_url_https
p2838
Vhttps://pbs.twimg.com/media/B4WntPQCEAE_Y-Q.png
p2839
sVsource_user_id_str
p2840
V2381747401
p2841
sVsource_status_id
p2842
I542023726686937088
sVid_str
p2843
V542023725797740545
p2844
sVsizes
p2845
(dp2846
Vsmall
p2847
(dp2848
Vh
p2849
I340
sVresize
p2850
Vfit
p2851
sVw
p2852
I340
ssVlarge
p2853
(dp2854
Vh
p2855
I610
sVresize
p2856
Vfit
p2857
sVw
p2858
I610
ssVmedium
p2859
(dp2860
Vh
p2861
I600
sVresize
p2862
Vfit
p2863
sVw
p2864
I600
ssVthumb
p2865
(dp2866
Vh
p2867
I150
sVresize
p2868
Vcrop
p2869
sVw
p2870
I150
sssVindices
p2871
(lp2872
I119
aI141
asVtype
p2873
Vphoto
p2874
sVid
p2875
I542023725797740545
sVmedia_url
p2876
Vhttp://pbs.twimg.com/media/B4WntPQCEAE_Y-Q.png
p2877
sasg73
Nsg74
Nsg75
Nsg76
VSun Dec 14 16:41:12 +0000 2014
p2878
sg78
Nsg79
I00
sg80
Nsg81
Nsg82
Nsg83
Nsg84
I00
sg85
Nsg86
(lp2879
sg88
Nsg89
V544170250200035328
p2880
sg91
Nsg92
VYou Can Easily Trick Your Body &amp; Make It LOSE FAT! Double Your Weight Loss Potential Using.\u000ahttp://t.co/pyyHl1yluR\u000ahttp://t.co/af6I13kJnT
p2881
sg94
I00
sg95
Ven
p2882
sg97
g3
(g98
g5
Ntp2883
Rp2884
(dp2885
g10
VUSA
p2886
sg103
V000000
p2887
sg105
Ven
p2888
sg107
VCentral Time (US & Canada)
p2889
sg109
I13134
sg110
I2434
sg76
VSun Oct 05 03:53:09 +0000 2014
p2890
sg112
I00
sg113
VHealth Tips and Fitness Products for Sale, Reasonable Prices. Get your Body In shape Today with just one Purchase http://t.co/xkOQknGGPw
p2891
sg115
Vhttps://pbs.twimg.com/profile_images/544123463632683008/4RmuTEEA_normal.jpeg
p2892
sg117
I10487
sg118
I2056
sg119
I-21600
sg120
Nsg121
I00
sg122
Vhttps://pbs.twimg.com/profile_banners/2806644423/1418487694
p2893
sg124
I00
sg125
I00
sg126
V4A913C
p2894
sg128
I00
sg129
I00
sg130
Vhttp://abs.twimg.com/images/themes/theme1/bg.png
p2895
sg132
VFitness_HeaIth
p2896
sg134
I18
sg135
VMelissa
p2897
sg137
V000000
p2898
sg139
Nsg140
I2806644423
sg141
V000000
p2899
sbsg143
I37
sg144
V<a href="https://about.twitter.com/products/tweetdeck" rel="nofollow">TweetDeck</a>
p2900
sg146
(lp2901
g3
(g148
g5
Ntp2902
Rp2903
(dp2904
g152
Vhttp://t.co/pyyHl1yluR
p2905
sg154
Vhttp://be-heaIthy.com/ZyTzYp
p2906
sbasg140
I544170250200035328
sbsg20
Nsg21
(lp2907
(dp2908
Vsource_user_id
p2909
I2381747401
sVsource_status_id_str
p2910
V542023726686937088
p2911
sVexpanded_url
p2912
Vhttp://twitter.com/WomensHeaIthNow/status/542023726686937088/photo/1
p2913
sVdisplay_url
p2914
Vpic.twitter.com/af6I13kJnT
p2915
sVurl
p2916
Vhttp://t.co/af6I13kJnT
p2917
sVmedia_url_https
p2918
Vhttps://pbs.twimg.com/media/B4WntPQCEAE_Y-Q.png
p2919
sVsource_user_id_str
p2920
V2381747401
p2921
sVsource_status_id
p2922
I542023726686937088
sVid_str
p2923
V542023725797740545
p2924
sVsizes
p2925
(dp2926
Vsmall
p2927
(dp2928
Vh
p2929
I340
sVresize
p2930
Vfit
p2931
sVw
p2932
I340
ssVlarge
p2933
(dp2934
Vh
p2935
I610
sVresize
p2936
Vfit
p2937
sVw
p2938
I610
ssVmedium
p2939
(dp2940
Vh
p2941
I600
sVresize
p2942
Vfit
p2943
sVw
p2944
I600
ssVthumb
p2945
(dp2946
Vh
p2947
I150
sVresize
p2948
Vcrop
p2949
sVw
p2950
I150
sssVindices
p2951
(lp2952
I143
aI144
asVtype
p2953
Vphoto
p2954
sVid
p2955
I542023725797740545
sVmedia_url
p2956
Vhttp://pbs.twimg.com/media/B4WntPQCEAE_Y-Q.png
p2957
sasg73
Nsg74
Nsg75
Nsg76
VSun Dec 14 19:59:33 +0000 2014
p2958
sg78
Nsg79
I00
sg80
Nsg81
Nsg82
Nsg83
Nsg84
I00
sg85
Nsg86
(lp2959
g3
(g98
g5
Ntp2960
Rp2961
(dp2962
g10
Nsg103
Nsg105
Nsg107
Nsg109
Nsg110
Nsg76
Nsg112
Nsg113
Nsg115
Nsg117
Nsg118
Nsg119
Nsg120
Nsg121
Nsg122
Nsg124
Nsg125
Nsg126
Nsg128
Nsg129
Nsg130
Nsg132
VFitness_HeaIth
p2963
sg134
Nsg135
VMelissa
p2964
sg137
Nsg139
Nsg140
I2806644423
sg141
Nsbasg88
Nsg89
V544220168315240448
p2965
sg91
Nsg92
VRT @Fitness_HeaIth: You Can Easily Trick Your Body &amp; Make It LOSE FAT! Double Your Weight Loss Potential Using.\u000ahttp://t.co/pyyHl1yluR\u000ahttp\u2026
p2966
sg94
I00
sg95
Ven
p2967
sg97
g3
(g98
g5
Ntp2968
Rp2969
(dp2970
g10
VThe Road.
p2971
sg103
V575757
p2972
sg105
Ven
p2973
sg107
VPacific Time (US & Canada)
p2974
sg109
I32903
sg110
I11749
sg76
VFri Jun 25 19:29:18 +0000 2010
p2975
sg112
I00
sg113
VFast & Furious Lifestyle,  I'm that nigga your momma told you not to mess with. That orange car, Is my Firebird. ( Backup Account )
p2976
sg115
Vhttps://pbs.twimg.com/profile_images/449550509867663360/jprsiSlS_normal.jpeg
p2977
sg117
I36502
sg118
I163
sg119
I-28800
sg120
Nsg121
I00
sg122
Vhttps://pbs.twimg.com/profile_banners/159575564/1354380596
p2978
sg124
I00
sg125
I00
sg126
V990000
p2979
sg128
I00
sg129
I00
sg130
Vhttp://pbs.twimg.com/profile_background_images/713175521/d0f6a0ea0136c05f8bf1810733775487.jpeg
p2980
sg132
VPKayven
p2981
sg134
I200
sg135
VPK - Street Racer
p2982
sg137
V000000
p2983
sg139
Nsg140
I159575564
sg141
V000000
p2984
sbsg143
I37
sg144
V<a href="http://www.hootsuite.com" rel="nofollow">Hootsuite</a>
p2985
sg146
(lp2986
g3
(g148
g5
Ntp2987
Rp2988
(dp2989
g152
Vhttp://t.co/pyyHl1yluR
p2990
sg154
Vhttp://be-heaIthy.com/ZyTzYp
p2991
sbasg140
I544220168315240448
sbag3
(g4
g5
Ntp2992
Rp2993
(dp2994
g9
I0
sg10
Nsg11
Nsg12
(lp2995
sg14
I00
sg15
g3
(g4
g5
Ntp2996
Rp2997
(dp2998
g9
I15
sg10
Nsg11
Nsg12
(lp2999
sg14
I00
sg15
Nsg20
Nsg21
(lp3000
(dp3001
Vexpanded_url
p3002
Vhttp://twitter.com/Almigh_Trapa/status/537350051807657986/photo/1
p3003
sVdisplay_url
p3004
Vpic.twitter.com/NQQ0vazC5R
p3005
sVurl
p3006
Vhttp://t.co/NQQ0vazC5R
p3007
sVmedia_url_https
p3008
Vhttps://pbs.twimg.com/media/B3UNA-TCAAA4iZ3.jpg
p3009
sVid_str
p3010
V537350040914624512
p3011
sVsizes
p3012
(dp3013
Vlarge
p3014
(dp3015
Vh
p3016
I447
sVresize
p3017
Vfit
p3018
sVw
p3019
I599
ssVsmall
p3020
(dp3021
Vh
p3022
I253
sVresize
p3023
Vfit
p3024
sVw
p3025
I340
ssVmedium
p3026
(dp3027
Vh
p3028
I447
sVresize
p3029
Vfit
p3030
sVw
p3031
I599
ssVthumb
p3032
(dp3033
Vh
p3034
I150
sVresize
p3035
Vcrop
p3036
sVw
p3037
I150
sssVindices
p3038
(lp3039
I63
aI85
asVtype
p3040
Vphoto
p3041
sVid
p3042
I537350040914624512
sVmedia_url
p3043
Vhttp://pbs.twimg.com/media/B3UNA-TCAAA4iZ3.jpg
p3044
sasg73
Nsg74
Nsg75
Nsg76
VTue Nov 25 21:00:10 +0000 2014
p3045
sg78
Nsg79
I00
sg80
Nsg81
Nsg82
Nsg83
Nsg84
I00
sg85
Nsg86
(lp3046
sg88
Nsg89
V537350051807657986
p3047
sg91
Nsg92
VCraziest places to Have S3X (13 Images) http://t.co/hvGWJSD3P5 http://t.co/NQQ0vazC5R
p3048
sg94
I00
sg95
Ven
p3049
sg97
g3
(g98
g5
Ntp3050
Rp3051
(dp3052
g10
VMIAMI\u2600\ufe0fFLORIDA\u2708\ufe0fTO CHIRAQ
p3053
sg103
V333333
p3054
sg105
Ven
p3055
sg107
Nsg109
I55954
sg110
I39375
sg76
VMon Sep 24 23:47:54 +0000 2012
p3056
sg112
I00
sg113
VReal Nigga I Remain The Same Fuck The Opps & The Place They Claim #EBK #SituationGang300 #17-11
p3057
sg115
Vhttps://pbs.twimg.com/profile_images/543741199124004866/qHBEe84A_normal.jpeg
p3058
sg117
I48231
sg118
I4340
sg119
Nsg120
Nsg121
I00
sg122
Vhttps://pbs.twimg.com/profile_banners/844506834/1418473006
p3059
sg124
I00
sg125
I01
sg126
V000000
p3060
sg128
I00
sg129
I00
sg130
Vhttp://pbs.twimg.com/profile_background_images/736478717/af9d9dade4639f0813b57d1800fcef71.jpeg
p3061
sg132
VAlmigh_Trapa
p3062
sg134
I27
sg135
VSo Wit It\u2601\ufe0fDec17
p3063
sg137
VDDEEF6
p3064
sg139
Vhttp://t.co/r4Kv21IgOT
p3065
sg140
I844506834
sg141
V000000
p3066
sbsg143
I141
sg144
V<a href="http://twitter.com/download/iphone" rel="nofollow">Twitter for iPhone</a>
p3067
sg146
(lp3068
g3
(g148
g5
Ntp3069
Rp3070
(dp3071
g152
Vhttp://t.co/hvGWJSD3P5
p3072
sg154
Vhttp://dariusbryant.viralgalleries.me/craziest-places-to-have-s3x-13-images-1
p3073
sbasg140
I537350051807657986
sbsg20
Nsg21
(lp3074
(dp3075
Vsource_user_id
p3076
I844506834
sVsource_status_id_str
p3077
V537350051807657986
p3078
sVexpanded_url
p3079
Vhttp://twitter.com/Almigh_Trapa/status/537350051807657986/photo/1
p3080
sVdisplay_url
p3081
Vpic.twitter.com/NQQ0vazC5R
p3082
sVurl
p3083
Vhttp://t.co/NQQ0vazC5R
p3084
sVmedia_url_https
p3085
Vhttps://pbs.twimg.com/media/B3UNA-TCAAA4iZ3.jpg
p3086
sVsource_user_id_str
p3087
V844506834
p3088
sVsource_status_id
p3089
I537350051807657986
sVid_str
p3090
V537350040914624512
p3091
sVsizes
p3092
(dp3093
Vlarge
p3094
(dp3095
Vh
p3096
I447
sVresize
p3097
Vfit
p3098
sVw
p3099
I599
ssVsmall
p3100
(dp3101
Vh
p3102
I253
sVresize
p3103
Vfit
p3104
sVw
p3105
I340
ssVmedium
p3106
(dp3107
Vh
p3108
I447
sVresize
p3109
Vfit
p3110
sVw
p3111
I599
ssVthumb
p3112
(dp3113
Vh
p3114
I150
sVresize
p3115
Vcrop
p3116
sVw
p3117
I150
sssVindices
p3118
(lp3119
I81
aI103
asVtype
p3120
Vphoto
p3121
sVid
p3122
I537350040914624512
sVmedia_url
p3123
Vhttp://pbs.twimg.com/media/B3UNA-TCAAA4iZ3.jpg
p3124
sasg73
Nsg74
Nsg75
Nsg76
VSun Dec 14 19:58:00 +0000 2014
p3125
sg78
Nsg79
I00
sg80
Nsg81
Nsg82
Nsg83
Nsg84
I00
sg85
Nsg86
(lp3126
g3
(g98
g5
Ntp3127
Rp3128
(dp3129
g10
Nsg103
Nsg105
Nsg107
Nsg109
Nsg110
Nsg76
Nsg112
Nsg113
Nsg115
Nsg117
Nsg118
Nsg119
Nsg120
Nsg121
Nsg122
Nsg124
Nsg125
Nsg126
Nsg128
Nsg129
Nsg130
Nsg132
VAlmigh_Trapa
p3130
sg134
Nsg135
VSo Wit It\u2601\ufe0fDec17
p3131
sg137
Nsg139
Nsg140
I844506834
sg141
Nsbasg88
Nsg89
V544219776646914049
p3132
sg91
Nsg92
VRT @Almigh_Trapa: Craziest places to Have S3X (13 Images) http://t.co/hvGWJSD3P5 http://t.co/NQQ0vazC5R
p3133
sg94
I00
sg95
Ven
p3134
sg97
g3
(g98
g5
Ntp3135
Rp3136
(dp3137
g10
VThe Road.
p3138
sg103
V575757
p3139
sg105
Ven
p3140
sg107
VPacific Time (US & Canada)
p3141
sg109
I32903
sg110
I11749
sg76
VFri Jun 25 19:29:18 +0000 2010
p3142
sg112
I00
sg113
VFast & Furious Lifestyle,  I'm that nigga your momma told you not to mess with. That orange car, Is my Firebird. ( Backup Account )
p3143
sg115
Vhttps://pbs.twimg.com/profile_images/449550509867663360/jprsiSlS_normal.jpeg
p3144
sg117
I36502
sg118
I163
sg119
I-28800
sg120
Nsg121
I00
sg122
Vhttps://pbs.twimg.com/profile_banners/159575564/1354380596
p3145
sg124
I00
sg125
I00
sg126
V990000
p3146
sg128
I00
sg129
I00
sg130
Vhttp://pbs.twimg.com/profile_background_images/713175521/d0f6a0ea0136c05f8bf1810733775487.jpeg
p3147
sg132
VPKayven
p3148
sg134
I200
sg135
VPK - Street Racer
p3149
sg137
V000000
p3150
sg139
Nsg140
I159575564
sg141
V000000
p3151
sbsg143
I141
sg144
V<a href="http://www.hootsuite.com" rel="nofollow">Hootsuite</a>
p3152
sg146
(lp3153
g3
(g148
g5
Ntp3154
Rp3155
(dp3156
g152
Vhttp://t.co/hvGWJSD3P5
p3157
sg154
Vhttp://dariusbryant.viralgalleries.me/craziest-places-to-have-s3x-13-images-1
p3158
sbasg140
I544219776646914049
sbag3
(g4
g5
Ntp3159
Rp3160
(dp3161
g9
I0
sg10
Nsg11
Nsg12
(lp3162
sg14
I00
sg15
g3
(g4
g5
Ntp3163
Rp3164
(dp3165
g9
I34
sg10
Nsg11
Nsg12
(lp3166
sg14
I00
sg15
Nsg20
Nsg21
(lp3167
(dp3168
Vexpanded_url
p3169
Vhttp://twitter.com/Almigh_Trapa/status/537350087849308161/photo/1
p3170
sVdisplay_url
p3171
Vpic.twitter.com/EHK4U20JMV
p3172
sVurl
p3173
Vhttp://t.co/EHK4U20JMV
p3174
sVmedia_url_https
p3175
Vhttps://pbs.twimg.com/media/B3UNDDkCIAIwBfj.jpg
p3176
sVid_str
p3177
V537350076687851522
p3178
sVsizes
p3179
(dp3180
Vsmall
p3181
(dp3182
Vh
p3183
I225
sVresize
p3184
Vfit
p3185
sVw
p3186
I340
ssVlarge
p3187
(dp3188
Vh
p3189
I398
sVresize
p3190
Vfit
p3191
sVw
p3192
I599
ssVmedium
p3193
(dp3194
Vh
p3195
I398
sVresize
p3196
Vfit
p3197
sVw
p3198
I599
ssVthumb
p3199
(dp3200
Vh
p3201
I150
sVresize
p3202
Vcrop
p3203
sVw
p3204
I150
sssVindices
p3205
(lp3206
I63
aI85
asVtype
p3207
Vphoto
p3208
sVid
p3209
I537350076687851522
sVmedia_url
p3210
Vhttp://pbs.twimg.com/media/B3UNDDkCIAIwBfj.jpg
p3211
sasg73
Nsg74
Nsg75
Nsg76
VTue Nov 25 21:00:19 +0000 2014
p3212
sg78
Nsg79
I00
sg80
Nsg81
Nsg82
Nsg83
Nsg84
I00
sg85
Nsg86
(lp3213
sg88
Nsg89
V537350087849308161
p3214
sg91
Nsg92
VCraziest places to Have S3X (13 Images) http://t.co/hvGWJSD3P5 http://t.co/EHK4U20JMV
p3215
sg94
I00
sg95
Ven
p3216
sg97
g3
(g98
g5
Ntp3217
Rp3218
(dp3219
g10
VMIAMI\u2600\ufe0fFLORIDA\u2708\ufe0fTO CHIRAQ
p3220
sg103
V333333
p3221
sg105
Ven
p3222
sg107
Nsg109
I55954
sg110
I39375
sg76
VMon Sep 24 23:47:54 +0000 2012
p3223
sg112
I00
sg113
VReal Nigga I Remain The Same Fuck The Opps & The Place They Claim #EBK #SituationGang300 #17-11
p3224
sg115
Vhttps://pbs.twimg.com/profile_images/543741199124004866/qHBEe84A_normal.jpeg
p3225
sg117
I48231
sg118
I4340
sg119
Nsg120
Nsg121
I00
sg122
Vhttps://pbs.twimg.com/profile_banners/844506834/1418473006
p3226
sg124
I00
sg125
I01
sg126
V000000
p3227
sg128
I00
sg129
I00
sg130
Vhttp://pbs.twimg.com/profile_background_images/736478717/af9d9dade4639f0813b57d1800fcef71.jpeg
p3228
sg132
VAlmigh_Trapa
p3229
sg134
I27
sg135
VSo Wit It\u2601\ufe0fDec17
p3230
sg137
VDDEEF6
p3231
sg139
Vhttp://t.co/r4Kv21IgOT
p3232
sg140
I844506834
sg141
V000000
p3233
sbsg143
I153
sg144
V<a href="http://twitter.com/download/iphone" rel="nofollow">Twitter for iPhone</a>
p3234
sg146
(lp3235
g3
(g148
g5
Ntp3236
Rp3237
(dp3238
g152
Vhttp://t.co/hvGWJSD3P5
p3239
sg154
Vhttp://dariusbryant.viralgalleries.me/craziest-places-to-have-s3x-13-images-1
p3240
sbasg140
I537350087849308161
sbsg20
Nsg21
(lp3241
(dp3242
Vsource_user_id
p3243
I844506834
sVsource_status_id_str
p3244
V537350087849308161
p3245
sVexpanded_url
p3246
Vhttp://twitter.com/Almigh_Trapa/status/537350087849308161/photo/1
p3247
sVdisplay_url
p3248
Vpic.twitter.com/EHK4U20JMV
p3249
sVurl
p3250
Vhttp://t.co/EHK4U20JMV
p3251
sVmedia_url_https
p3252
Vhttps://pbs.twimg.com/media/B3UNDDkCIAIwBfj.jpg
p3253
sVsource_user_id_str
p3254
V844506834
p3255
sVsource_status_id
p3256
I537350087849308161
sVid_str
p3257
V537350076687851522
p3258
sVsizes
p3259
(dp3260
Vsmall
p3261
(dp3262
Vh
p3263
I225
sVresize
p3264
Vfit
p3265
sVw
p3266
I340
ssVlarge
p3267
(dp3268
Vh
p3269
I398
sVresize
p3270
Vfit
p3271
sVw
p3272
I599
ssVmedium
p3273
(dp3274
Vh
p3275
I398
sVresize
p3276
Vfit
p3277
sVw
p3278
I599
ssVthumb
p3279
(dp3280
Vh
p3281
I150
sVresize
p3282
Vcrop
p3283
sVw
p3284
I150
sssVindices
p3285
(lp3286
I81
aI103
asVtype
p3287
Vphoto
p3288
sVid
p3289
I537350076687851522
sVmedia_url
p3290
Vhttp://pbs.twimg.com/media/B3UNDDkCIAIwBfj.jpg
p3291
sasg73
Nsg74
Nsg75
Nsg76
VSun Dec 14 19:57:23 +0000 2014
p3292
sg78
Nsg79
I00
sg80
Nsg81
Nsg82
Nsg83
Nsg84
I00
sg85
Nsg86
(lp3293
g3
(g98
g5
Ntp3294
Rp3295
(dp3296
g10
Nsg103
Nsg105
Nsg107
Nsg109
Nsg110
Nsg76
Nsg112
Nsg113
Nsg115
Nsg117
Nsg118
Nsg119
Nsg120
Nsg121
Nsg122
Nsg124
Nsg125
Nsg126
Nsg128
Nsg129
Nsg130
Nsg132
VAlmigh_Trapa
p3297
sg134
Nsg135
VSo Wit It\u2601\ufe0fDec17
p3298
sg137
Nsg139
Nsg140
I844506834
sg141
Nsbasg88
Nsg89
V544219619641544705
p3299
sg91
Nsg92
VRT @Almigh_Trapa: Craziest places to Have S3X (13 Images) http://t.co/hvGWJSD3P5 http://t.co/EHK4U20JMV
p3300
sg94
I00
sg95
Ven
p3301
sg97
g3
(g98
g5
Ntp3302
Rp3303
(dp3304
g10
VThe Road.
p3305
sg103
V575757
p3306
sg105
Ven
p3307
sg107
VPacific Time (US & Canada)
p3308
sg109
I32903
sg110
I11749
sg76
VFri Jun 25 19:29:18 +0000 2010
p3309
sg112
I00
sg113
VFast & Furious Lifestyle,  I'm that nigga your momma told you not to mess with. That orange car, Is my Firebird. ( Backup Account )
p3310
sg115
Vhttps://pbs.twimg.com/profile_images/449550509867663360/jprsiSlS_normal.jpeg
p3311
sg117
I36502
sg118
I163
sg119
I-28800
sg120
Nsg121
I00
sg122
Vhttps://pbs.twimg.com/profile_banners/159575564/1354380596
p3312
sg124
I00
sg125
I00
sg126
V990000
p3313
sg128
I00
sg129
I00
sg130
Vhttp://pbs.twimg.com/profile_background_images/713175521/d0f6a0ea0136c05f8bf1810733775487.jpeg
p3314
sg132
VPKayven
p3315
sg134
I200
sg135
VPK - Street Racer
p3316
sg137
V000000
p3317
sg139
Nsg140
I159575564
sg141
V000000
p3318
sbsg143
I153
sg144
V<a href="http://www.hootsuite.com" rel="nofollow">Hootsuite</a>
p3319
sg146
(lp3320
g3
(g148
g5
Ntp3321
Rp3322
(dp3323
g152
Vhttp://t.co/hvGWJSD3P5
p3324
sg154
Vhttp://dariusbryant.viralgalleries.me/craziest-places-to-have-s3x-13-images-1
p3325
sbasg140
I544219619641544705
sbag3
(g4
g5
Ntp3326
Rp3327
(dp3328
g9
I0
sg10
Nsg11
Nsg12
(lp3329
sg14
I00
sg15
g3
(g4
g5
Ntp3330
Rp3331
(dp3332
g9
I19
sg10
Nsg11
Nsg12
(lp3333
sg14
I00
sg15
Nsg20
Nsg21
(lp3334
(dp3335
Vexpanded_url
p3336
Vhttp://twitter.com/Almigh_Trapa/status/537350131042238464/photo/1
p3337
sVdisplay_url
p3338
Vpic.twitter.com/dQ9GaBkeUF
p3339
sVurl
p3340
Vhttp://t.co/dQ9GaBkeUF
p3341
sVmedia_url_https
p3342
Vhttps://pbs.twimg.com/media/B3UNFBfCQAAn82i.jpg
p3343
sVid_str
p3344
V537350110489755648
p3345
sVsizes
p3346
(dp3347
Vsmall
p3348
(dp3349
Vh
p3350
I500
sVresize
p3351
Vfit
p3352
sVw
p3353
I332
ssVlarge
p3354
(dp3355
Vh
p3356
I500
sVresize
p3357
Vfit
p3358
sVw
p3359
I332
ssVmedium
p3360
(dp3361
Vh
p3362
I500
sVresize
p3363
Vfit
p3364
sVw
p3365
I332
ssVthumb
p3366
(dp3367
Vh
p3368
I150
sVresize
p3369
Vcrop
p3370
sVw
p3371
I150
sssVindices
p3372
(lp3373
I63
aI85
asVtype
p3374
Vphoto
p3375
sVid
p3376
I537350110489755648
sVmedia_url
p3377
Vhttp://pbs.twimg.com/media/B3UNFBfCQAAn82i.jpg
p3378
sasg73
Nsg74
Nsg75
Nsg76
VTue Nov 25 21:00:29 +0000 2014
p3379
sg78
Nsg79
I00
sg80
Nsg81
Nsg82
Nsg83
Nsg84
I00
sg85
Nsg86
(lp3380
sg88
Nsg89
V537350131042238464
p3381
sg91
Nsg92
VCraziest places to Have S3X (13 Images) http://t.co/hvGWJSD3P5 http://t.co/dQ9GaBkeUF
p3382
sg94
I00
sg95
Ven
p3383
sg97
g3
(g98
g5
Ntp3384
Rp3385
(dp3386
g10
VMIAMI\u2600\ufe0fFLORIDA\u2708\ufe0fTO CHIRAQ
p3387
sg103
V333333
p3388
sg105
Ven
p3389
sg107
Nsg109
I55954
sg110
I39375
sg76
VMon Sep 24 23:47:54 +0000 2012
p3390
sg112
I00
sg113
VReal Nigga I Remain The Same Fuck The Opps & The Place They Claim #EBK #SituationGang300 #17-11
p3391
sg115
Vhttps://pbs.twimg.com/profile_images/543741199124004866/qHBEe84A_normal.jpeg
p3392
sg117
I48231
sg118
I4340
sg119
Nsg120
Nsg121
I00
sg122
Vhttps://pbs.twimg.com/profile_banners/844506834/1418473006
p3393
sg124
I00
sg125
I01
sg126
V000000
p3394
sg128
I00
sg129
I00
sg130
Vhttp://pbs.twimg.com/profile_background_images/736478717/af9d9dade4639f0813b57d1800fcef71.jpeg
p3395
sg132
VAlmigh_Trapa
p3396
sg134
I27
sg135
VSo Wit It\u2601\ufe0fDec17
p3397
sg137
VDDEEF6
p3398
sg139
Vhttp://t.co/r4Kv21IgOT
p3399
sg140
I844506834
sg141
V000000
p3400
sbsg143
I61
sg144
V<a href="http://twitter.com/download/iphone" rel="nofollow">Twitter for iPhone</a>
p3401
sg146
(lp3402
g3
(g148
g5
Ntp3403
Rp3404
(dp3405
g152
Vhttp://t.co/hvGWJSD3P5
p3406
sg154
Vhttp://dariusbryant.viralgalleries.me/craziest-places-to-have-s3x-13-images-1
p3407
sbasg140
I537350131042238464
sbsg20
Nsg21
(lp3408
(dp3409
Vsource_user_id
p3410
I844506834
sVsource_status_id_str
p3411
V537350131042238464
p3412
sVexpanded_url
p3413
Vhttp://twitter.com/Almigh_Trapa/status/537350131042238464/photo/1
p3414
sVdisplay_url
p3415
Vpic.twitter.com/dQ9GaBkeUF
p3416
sVurl
p3417
Vhttp://t.co/dQ9GaBkeUF
p3418
sVmedia_url_https
p3419
Vhttps://pbs.twimg.com/media/B3UNFBfCQAAn82i.jpg
p3420
sVsource_user_id_str
p3421
V844506834
p3422
sVsource_status_id
p3423
I537350131042238464
sVid_str
p3424
V537350110489755648
p3425
sVsizes
p3426
(dp3427
Vsmall
p3428
(dp3429
Vh
p3430
I500
sVresize
p3431
Vfit
p3432
sVw
p3433
I332
ssVlarge
p3434
(dp3435
Vh
p3436
I500
sVresize
p3437
Vfit
p3438
sVw
p3439
I332
ssVmedium
p3440
(dp3441
Vh
p3442
I500
sVresize
p3443
Vfit
p3444
sVw
p3445
I332
ssVthumb
p3446
(dp3447
Vh
p3448
I150
sVresize
p3449
Vcrop
p3450
sVw
p3451
I150
sssVindices
p3452
(lp3453
I81
aI103
asVtype
p3454
Vphoto
p3455
sVid
p3456
I537350110489755648
sVmedia_url
p3457
Vhttp://pbs.twimg.com/media/B3UNFBfCQAAn82i.jpg
p3458
sasg73
Nsg74
Nsg75
Nsg76
VSun Dec 14 19:56:50 +0000 2014
p3459
sg78
Nsg79
I00
sg80
Nsg81
Nsg82
Nsg83
Nsg84
I00
sg85
Nsg86
(lp3460
g3
(g98
g5
Ntp3461
Rp3462
(dp3463
g10
Nsg103
Nsg105
Nsg107
Nsg109
Nsg110
Nsg76
Nsg112
Nsg113
Nsg115
Nsg117
Nsg118
Nsg119
Nsg120
Nsg121
Nsg122
Nsg124
Nsg125
Nsg126
Nsg128
Nsg129
Nsg130
Nsg132
VAlmigh_Trapa
p3464
sg134
Nsg135
VSo Wit It\u2601\ufe0fDec17
p3465
sg137
Nsg139
Nsg140
I844506834
sg141
Nsbasg88
Nsg89
V544219481321783296
p3466
sg91
Nsg92
VRT @Almigh_Trapa: Craziest places to Have S3X (13 Images) http://t.co/hvGWJSD3P5 http://t.co/dQ9GaBkeUF
p3467
sg94
I00
sg95
Ven
p3468
sg97
g3
(g98
g5
Ntp3469
Rp3470
(dp3471
g10
VThe Road.
p3472
sg103
V575757
p3473
sg105
Ven
p3474
sg107
VPacific Time (US & Canada)
p3475
sg109
I32903
sg110
I11749
sg76
VFri Jun 25 19:29:18 +0000 2010
p3476
sg112
I00
sg113
VFast & Furious Lifestyle,  I'm that nigga your momma told you not to mess with. That orange car, Is my Firebird. ( Backup Account )
p3477
sg115
Vhttps://pbs.twimg.com/profile_images/449550509867663360/jprsiSlS_normal.jpeg
p3478
sg117
I36502
sg118
I163
sg119
I-28800
sg120
Nsg121
I00
sg122
Vhttps://pbs.twimg.com/profile_banners/159575564/1354380596
p3479
sg124
I00
sg125
I00
sg126
V990000
p3480
sg128
I00
sg129
I00
sg130
Vhttp://pbs.twimg.com/profile_background_images/713175521/d0f6a0ea0136c05f8bf1810733775487.jpeg
p3481
sg132
VPKayven
p3482
sg134
I200
sg135
VPK - Street Racer
p3483
sg137
V000000
p3484
sg139
Nsg140
I159575564
sg141
V000000
p3485
sbsg143
I61
sg144
V<a href="http://www.hootsuite.com" rel="nofollow">Hootsuite</a>
p3486
sg146
(lp3487
g3
(g148
g5
Ntp3488
Rp3489
(dp3490
g152
Vhttp://t.co/hvGWJSD3P5
p3491
sg154
Vhttp://dariusbryant.viralgalleries.me/craziest-places-to-have-s3x-13-images-1
p3492
sbasg140
I544219481321783296
sbaa.