(dp0
S'kcdabeatmonster'
p1
I1
sS'//t.co/yl45ioirj3'
p2
I1
sS'increase'
p3
I2
sS'eligible'
p4
I1
sS'//t.co/5lafn2uoy2'
p5
I1
sS'freecash'
p6
I1
sS'benvolin'
p7
I1
sS'talktovictor'
p8
I1
sS'dell'
p9
I3
sS'hdtv'
p10
I5
sS'caramels'
p11
I2
sS'prize'
p12
I17
sS'//t.co/tu5c6fgwda'
p13
I1
sS'straight'
p14
I2
sS'pubic'
p15
I1
sS'tires'
p16
I7
sS'second'
p17
I3
sS'hustlebreed734'
p18
I1
sS'sales.'
p19
I2
sS'bonuses'
p20
I1
sS'designing'
p21
I1
sS'//t.co/keb7n4odmf'
p22
I1
sS'40yr'
p23
I2
sS'//t.co/fxy8vc20wq'
p24
I2
sS'culo'
p25
I4
sS'avery'
p26
I1
sS'here'
p27
I380
sS'borrowers'
p28
I1
sS'substance'
p29
I1
sS'k'
p30
I4
sS'somersethouse'
p31
I1
sS'water-skiing'
p32
I1
sS'golden'
p33
I2
sS'//t.co/p2t84yudkb'
p34
I1
sS'kojo'
p35
I1
sS'//t.co/h4slska1yv'
p36
I1
sS'mthomas50'
p37
I1
sS'gill_john'
p38
I1
sS'classifieds'
p39
I1
sS'dna'
p40
I1
sS'12-11-2014'
p41
I1
sS'bays'
p42
I1
sS'music'
p43
I15
sS'//t.co/nthr0tjgck'
p44
I1
sS'musim'
p45
I1
sS'until'
p46
I1
sS'//t.co/u0irue0yso'
p47
I1
sS'//t.co/kddfdjlcwr'
p48
I1
sS'9-'
p49
I1
sS'holy'
p50
I1
sS'relax'
p51
I15
sS'successful'
p52
I1
sS'brings'
p53
I1
sS'mesmerize'
p54
I1
sS'99'
p55
I2
sS'glass'
p56
I1
sS'reversible'
p57
I1
sS'90'
p58
I1
sS'mta1954'
p59
I1
sS'95'
p60
I9
sS'94'
p61
I3
sS'96'
p62
I2
sS'//t.co/kduxwfmree'
p63
I1
sS'betdaq'
p64
I1
sS'wang'
p65
I1
sS'love+fear'
p66
I1
sS'//t.co/robyhz0rft'
p67
I1
sS'shore.'
p68
I1
sS'penting'
p69
I1
sS'//t.co/6pfvbz6nwc'
p70
I1
sS'syleena_johnson'
p71
I6
sS'want'
p72
I45
sS'hoe'
p73
I1
sS'sangalaki'
p74
I1
sS'gremlins'
p75
I1
sS'travel'
p76
I4
sS'win7'
p77
I1
sS'how'
p78
I42
sS'hot'
p79
I12
sS'//t.co/8wutibfmkx'
p80
I1
sS'yum'
p81
I1
sS'//t.co/n3garzdr9x'
p82
I2
sS'gaming'
p83
I4
sS'//t.co/ozlax2eowh'
p84
I1
sS'beauty'
p85
I5
sS'//t.co/nslqm3nvpk'
p86
I2
sS'//t.co/ja6pqggw5t'
p87
I2
sS'wrong'
p88
I2
sS'misslynnacom'
p89
I1
sS'johnsuis'
p90
I1
sS'winr'
p91
I1
sS'creampies'
p92
I1
sS'//t.co/rhoz0tealh'
p93
I1
sS'keeps'
p94
I3
sS'//t.co/hlkcpfqwv3'
p95
I1
sS'wine'
p96
I2
sS'35yr'
p97
I1
sS'recombu'
p98
I1
sS'//t.co/o10fqymwsg'
p99
I1
sS'//t.co/ms4vonhs4c'
p100
I1
sS'budgetmobcover'
p101
I1
sS'fit'
p102
I2
sS'//t.co/ihse8waxhd'
p103
I1
sS'lifeline'
p104
I1
sS'backpack'
p105
I1
sS'lovemykids009'
p106
I1
sS'//t.co/zjkw0igobe'
p107
I1
sS'wales'
p108
I1
sS'hidden'
p109
I2
sS'ignuk'
p110
I1
sS'chicksonphones'
p111
I1
sS'//t.co/fqeei5ngxn'
p112
I1
sS'vouchers'
p113
I1
sS'welcome5'
p114
I1
sS'ttbeautymasks'
p115
I1
sS'//t.co/vw2kcmckvp'
p116
I2
sS'financial'
p117
I6
sS'telescope'
p118
I1
sS'concord'
p119
I1
sS'series'
p120
I1
sS'250,000'
p121
I4
sS'zoekohler_1'
p122
I1
sS'2day'
p123
I1
sS'rt'
p124
I614
sS'rp'
p125
I2
sS'invisiontee'
p126
I3
sS'washingtonians'
p127
I1
sS'mason'
p128
I1
sS're'
p129
I12
sS'smh'
p130
I1
sS'ri'
p131
I1
sS'rj'
p132
I1
sS'ch962'
p133
I1
sS'//t.co/advstqwnlw'
p134
I1
sS'//t.co/4xt0zfjjir'
p135
I1
sS'shoney'
p136
I1
sS'//t.co/ndqv4hvdwj'
p137
I1
sS'findnsave'
p138
I1
sS'//t.co/z4lpsiebjl'
p139
I1
sS'//t.co/ngns8sia8j'
p140
I1
sS'interflor'
p141
I1
sS'//t.co/ra7lizwxgh'
p142
I2
sS'9pm'
p143
I2
sS'//t.co/l6svwzlzyr'
p144
I1
sS'acuitylai'
p145
I1
sS'subtlety'
p146
I1
sS'//t.co/hmsveub2et'
p147
I2
sS'//t.co/xjnxr'
p148
I1
sS'wash'
p149
I1
sS'kfc'
p150
I1
sS'29/5k'
p151
I1
sS'//t.co/w0l7e8ofba'
p152
I1
sS'//t.co/b9bkwoxund'
p153
I1
sS'tanga'
p154
I1
sS'coachk08'
p155
I1
sS'olds'
p156
I1
sS'basketball'
p157
I1
sS'service'
p158
I2
sS'lego'
p159
I1
sS'//t.co/qoogbearxn'
p160
I1
sS'//t.co/hqprb0olyo'
p161
I1
sS'needed'
p162
I5
sS'yeah..'
p163
I1
sS'legs'
p164
I1
sS'tdjobs'
p165
I1
sS'listen'
p166
I6
sS'//t.co/87gywchxew'
p167
I1
sS'rewards'
p168
I2
sS'//t.co/yoirvrxyxe'
p169
I1
sS'oliversweeney'
p170
I9
sS'//t.co/htckzyc0yl'
p171
I1
sS'sulphur'
p172
I1
sS'konservasi'
p173
I1
sS'pbexposure'
p174
I1
sS'shower'
p175
I2
sS'akalinity'
p176
I1
sS'//t.co/x03kaoyvsn'
p177
I1
sS'feeling'
p178
I3
sS'genessmile'
p179
I8
sS'dozen'
p180
I1
sS'vgl'
p181
I1
sS'//t.co/4eom1dup1d'
p182
I1
sS'rudolph'
p183
I6
sS'funnyortruth'
p184
I1
sS'//t.co/iunomovr4v'
p185
I1
sS'kenmarino'
p186
I1
sS'letter'
p187
I1
sS'tinggi'
p188
I1
sS'dummy'
p189
I1
sS'mdcolangelo'
p190
I1
sS'camo'
p191
I2
sS'came'
p192
I1
sS'saying'
p193
I1
sS'reactor'
p194
I1
sS'listrik'
p195
I1
sS'brogues'
p196
I1
sS'bonnie'
p197
I1
sS'//t.co/vuc8l3kekw'
p198
I1
sS'orleans'
p199
I1
sS'busy'
p200
I2
sS'menu'
p201
I1
sS'//t.co/ohdzjq96ms'
p202
I1
sS'bliss'
p203
I1
sS'rick'
p204
I1
sS'//t.co/8vqrqh5qww'
p205
I1
sS'//t.co/idx32nqbio'
p206
I1
sS'vannii'
p207
I1
sS'pocket'
p208
I3
sS'//t.co/hizsgsxwkb'
p209
I1
sS'//t.co/suzeycmmm2'
p210
I1
sS'//t.co/5aes0cdpmg'
p211
I1
sS'release'
p212
I1
sS'//t.co/wvptjpolth'
p213
I1
sS'blew'
p214
I1
sS'//t.co/6cp0vaqnmw'
p215
I1
sS'//t.co/idmvzxdair'
p216
I1
sS'//t.co/nkuhx9mqtd'
p217
I1
sS'pinot'
p218
I1
sS'//t.co/nzamcyra38'
p219
I1
sS'fail'
p220
I3
sS'//t.co/hy8mvdx1iq'
p221
I1
sS'best'
p222
I14
sS'lots'
p223
I1
sS'score'
p224
I2
sS'kasbekar'
p225
I20
sS'men'
p226
I1
sS'//t.co/gxtk2w54be'
p227
I1
sS'carbon'
p228
I1
sS'lovefillings'
p229
I2
sS'//t.co/flpyxfe44r'
p230
I1
sS'cat_sylvia_x'
p231
I1
sS'country'
p232
I2
sS'+18'
p233
I1
sS'//t.co/zokgauqksw'
p234
I1
sS'o-glow'
p235
I1
sS'//t.co/dprsmfamxl'
p236
I1
sS'2nd'
p237
I1
sS'20-11-2014'
p238
I1
sS'pregnancy'
p239
I1
sS'blonde'
p240
I1
sS'6x135'
p241
I1
sS'leathersatchel'
p242
I1
sS'//t.co/9aps4fkx6d'
p243
I1
sS'//t.co/9fv7nzgsk9'
p244
I1
sS'theknowledge'
p245
I1
sS'chrome'
p246
I4
sS'fro'
p247
I1
sS'.'
p248
I132
sS'much'
p249
I2
sS'//t.co/7z6mgnzvm4'
p250
I1
sS'//t.co/1lcsbp2ig0'
p251
I1
sS'life'
p252
I25
sS'//t.co/x3yx479eyp'
p253
I1
sS'25x'
p254
I4
sS'kids'
p255
I1
sS'chill'
p256
I1
sS'castro'
p257
I1
sS'played'
p258
I2
sS'//t.co/fjlzxuqnpx'
p259
I1
sS'madonna'
p260
I1
sS'1-year'
p261
I1
sS'trusted'
p262
I7
sS'//t.co/aykzbgksaw'
p263
I1
sS'things'
p264
I14
sS'//t.co/eg1zqpreee'
p265
I1
sS'orlandomagic'
p266
I1
sS'xvideos'
p267
I1
sS'qualifications'
p268
I1
sS'partypoker'
p269
I2
sS'fraserhartuk'
p270
I2
sS'//t.co/rtcrzec7xb'
p271
I1
sS'special-editionbag'
p272
I1
sS'//t.co/p61ajhuezx'
p273
I1
sS'//t.co/ff9v6sx4fj'
p274
I1
sS'yarnharlot'
p275
I1
sS'corporate'
p276
I4
sS'//t.co/4nivbmdfy0'
p277
I1
sS'noloose'
p278
I1
sS'//t.co/cbhesjtflv'
p279
I1
sS'stylingofstearns'
p280
I1
sS'//t.co/qafttfbmbq'
p281
I1
sS'//t.co/9umkzbbp7f'
p282
I1
sS'//t.co/apck7qchnv'
p283
I1
sS'had'
p284
I5
sS'jrocmarley'
p285
I1
sS'freemoney'
p286
I1
sS'//t.co/xq2wvqg6tu'
p287
I1
sS'easy'
p288
I23
sS'has'
p289
I6
sS'hat'
p290
I1
sS'publicpeeingno1'
p291
I1
sS'grindstore'
p292
I2
sS'depredador698'
p293
I1
sS'bobby'
p294
I1
sS'//t.co/1dfw9dpsui'
p295
I1
sS'unfollowers'
p296
I1
sS'//t.co/9etcxw6wwa'
p297
I1
sS'adventcomp'
p298
I1
sS'520promo'
p299
I19
sS'stanger'
p300
I2
sS'right'
p301
I5
sS'old'
p302
I6
sS'people'
p303
I19
sS'creed'
p304
I1
sS'consultants'
p305
I1
sS'for'
p306
I238
sS'bottom'
p307
I1
sS'fox'
p308
I1
sS'//t.co/n2ld4sk7dy'
p309
I1
sS'shakes'
p310
I1
sS'//t.co/p9yn1otpmu'
p311
I1
sS'//t.co/x8tb8mu4a8'
p312
I1
sS'corsairgaming'
p313
I1
sS'knyttan'
p314
I1
sS'noexcuses'
p315
I1
sS'o'
p316
I10
sS'sparkjoy'
p317
I1
sS'caranya'
p318
I1
sS'//t.co/d6fenqziue'
p319
I1
sS'mbf'
p320
I1
sS'sol'
p321
I1
sS'mocha'
p322
I1
sS'//t.co/godkvvotvk'
p323
I1
sS'pairs'
p324
I1
sS'support'
p325
I4
sS'cpwtweets'
p326
I2
sS'14-11-2014'
p327
I1
sS'videosxamateur'
p328
I1
sS'greatness'
p329
I1
sS'tweeps'
p330
I1
sS'happy'
p331
I19
sS'-diana'
p332
I1
sS'//t.co/weokhjyv3m'
p333
I1
sS'offer'
p334
I15
sS'forming'
p335
I1
sS'talents'
p336
I1
sS'24hr'
p337
I1
sS'duel'
p338
I1
sS'saja'
p339
I1
sS'ch495'
p340
I1
sS'//t.co/mfi0kvvxf1'
p341
I1
sS'considered'
p342
I1
sS'rerun'
p343
I1
sS'//t.co/b9cev7pqg0'
p344
I1
sS'shoeline'
p345
I2
sS'150'
p346
I3
sS'adopt'
p347
I1
sS"'3"
p348
I1
sS'tournament'
p349
I1
sS'proven'
p350
I1
sS"''"
p351
I43
sS'model-'
p352
I20
sS'shelbzz_tooqute'
p353
I1
sS'floor'
p354
I1
sS'//t.co/hdv9ubevh5'
p355
I6
sS'republic'
p356
I1
sS'smell'
p357
I1
sS'oh_eddy'
p358
I1
sS'//t.co/qxyeixntwv'
p359
I1
sS"'s"
p360
I127
sS"'d"
p361
I2
sS"'a"
p362
I1
sS'//t.co/iqtnlrxjsu'
p363
I1
sS"'m"
p364
I7
sS'//t.co/nh3owxxwwu'
p365
I1
sS'burtsbeesuk'
p366
I1
sS'baconismyfriend'
p367
I1
sS'ottawa'
p368
I14
sS'time'
p369
I31
sS'push'
p370
I1
sS'masturbation'
p371
I2
sS'//t.co/lchhjifeto'
p372
I1
sS'whoever'
p373
I1
sS'//t.co/ih8a8cvuke'
p374
I1
sS'//t.co/vx2gro03ub'
p375
I1
sS'pokerrules'
p376
I1
sS'venice'
p377
I2
sS'grappler'
p378
I1
sS'oldnavy'
p379
I2
sS'//t.co/kgeqrwaeqb'
p380
I1
sS'realmartymar'
p381
I1
sS'alcoholics'
p382
I1
sS'vintagemonroe_'
p383
I1
sS'minute'
p384
I20
sS'//t.co/qkqa52urky'
p385
I1
sS'leave'
p386
I1
sS'coincidences'
p387
I1
sS'team'
p388
I13
sS'loads'
p389
I2
sS'//t.co/flfzka8rmj'
p390
I1
sS'freeslots'
p391
I1
sS'sign'
p392
I32
sS'baetivity'
p393
I1
sS'//t.co/zyjdzfw5sm'
p394
I1
sS'sexygranny'
p395
I1
sS'current'
p396
I2
sS'boost'
p397
I3
sS'//t.co/gnv93tiix4'
p398
I1
sS'//t.co/iswq6bxfh6'
p399
I1
sS'photodiva19'
p400
I1
sS"'serigala"
p401
I1
sS'tieks'
p402
I2
sS'jabo1331'
p403
I1
sS'//t.co/lvy8lsnjcv'
p404
I1
sS'love'
p405
I43
sS'//t.co/fqobteuafs'
p406
I1
sS'besthandjobxxx'
p407
I3
sS'sky'
p408
I1
sS'//t.co/qri9yiycwa'
p409
I1
sS'working'
p410
I2
sS'//t.co/mlsmamxeil'
p411
I1
sS'positive'
p412
I3
sS'//t.co/lget7zibx7'
p413
I3
sS'calgary'
p414
I1
sS'scope'
p415
I1
sS'loving'
p416
I1
sS'introducing'
p417
I1
sS'``'
p418
I43
sS'//t.co/ewor8mjttl'
p419
I1
sS'oregon'
p420
I1
sS'//t.co/n6wsti80n5'
p421
I1
sS'visual'
p422
I1
sS'everywhere'
p423
I1
sS'//t.co/8dtylfjf80'
p424
I1
sS'//t.co/w57q7qntsy'
p425
I1
sS'valued'
p426
I1
sS'//t.co/ykziwgldj3'
p427
I1
sS'//t.co/rsamkvyfa8'
p428
I2
sS'chichiclothing'
p429
I1
sS'following'
p430
I2
sS'hookman320'
p431
I2
sS'//t.co/4bp3knvr4i'
p432
I1
sS'awesome'
p433
I8
sS'megajackpots'
p434
I1
sS'vauxhall'
p435
I1
sS'nascar'
p436
I3
sS'nsa/fwb'
p437
I1
sS'r20'
p438
I2
sS'winter'
p439
I1
sS'grosser'
p440
I2
sS'//t.co/zxl48492cd'
p441
I1
sS'spot'
p442
I1
sS'spon'
p443
I3
sS'date'
p444
I2
sS'such'
p445
I2
sS'suck'
p446
I1
sS'data'
p447
I2
sS'//t.co/w04muuipx4'
p448
I1
sS'natural'
p449
I3
sS'sp'
p450
I4
sS'sw'
p451
I1
sS'st'
p452
I4
sS'so'
p453
I22
sS'foxhall'
p454
I3
sS'se'
p455
I19
sS'livebrittany'
p456
I1
sS'years'
p457
I1
sS'//t.co/4niqt18c5v'
p458
I1
sS'silverstoneeuen'
p459
I2
sS'//t.co/nktb9jinnr'
p460
I1
sS'itsy'
p461
I1
sS'//t.co/irutkcld9i'
p462
I1
sS'instantly'
p463
I4
sS'//t.co/ej94olwint'
p464
I1
sS'records'
p465
I1
sS'matched'
p466
I7
sS'kaysizzle69'
p467
I1
sS'turtle'
p468
I1
sS'beachbody'
p469
I1
sS'flutes'
p470
I1
sS'canvas'
p471
I2
sS'jwjecha'
p472
I1
sS'//t.co/vlhgfmscs4'
p473
I1
sS'lusciouslopez'
p474
I1
sS'79+'
p475
I1
sS'cash-back'
p476
I1
sS'joiners'
p477
I1
sS'bookie'
p478
I1
sS'joinery'
p479
I1
sS'million'
p480
I4
sS'complicated'
p481
I1
sS'grandma'
p482
I1
sS'lasercut'
p483
I1
sS'redtractorfood'
p484
I1
sS'horan'
p485
I1
sS'chevy'
p486
I1
sS'disguises'
p487
I1
sS'//t.co/nfbjzn3qlv'
p488
I1
sS'puns'
p489
I2
sS'massive'
p490
I1
sS'//t.co/fokes99wc5'
p491
I1
sS'one'
p492
I35
sS'open'
p493
I3
sS'city'
p494
I2
sS'b00bs'
p495
I1
sS'//t.co/bgqpaf4uk1'
p496
I1
sS'2'
p497
I34
sS'//t.co/kb9pcaepib'
p498
I1
sS'bordeauxwinesuk'
p499
I1
sS'shoppers'
p500
I1
sS'cita'
p501
I2
sS'studioelevenkc'
p502
I1
sS'williams'
p503
I2
sS'850w'
p504
I1
sS'fhttps'
p505
I1
sS'//t.co/zfhp7ylywt'
p506
I1
sS'//t.co/nrykuikrvr'
p507
I1
sS'//t.co/vnaatviocm'
p508
I1
sS'uk2'
p509
I1
sS'follo'
p510
I1
sS'10-11'
p511
I2
sS'san'
p512
I1
sS'qlshow'
p513
I1
sS'//t.co/c3ki8ah1gh'
p514
I1
sS'girlmeetsfood'
p515
I2
sS'say'
p516
I9
sS'hotflbabe'
p517
I1
sS'saw'
p518
I1
sS'kostrad'
p519
I1
sS'rogerscoffee'
p520
I2
sS'mybagonline'
p521
I1
sS'note'
p522
I1
sS'take'
p523
I15
sS'//t.co/rrrddbykbt'
p524
I1
sS'hotemo'
p525
I1
sS'kayholidaypromo'
p526
I3
sS'panocha'
p527
I1
sS'ultimatedallas'
p528
I1
sS'//t.co/ve5g8fbclp'
p529
I2
sS'average'
p530
I1
sS'phil'
p531
I2
sS'sale'
p532
I6
sS'axe'
p533
I1
sS'walking'
p534
I2
sS'//t.co/btlvhxr2ii'
p535
I1
sS'senators'
p536
I1
sS'17/12/14'
p537
I1
sS'bright'
p538
I1
sS'rmelo'
p539
I1
sS'xml'
p540
I2
sS'shavedpusy'
p541
I1
sS'boxsets'
p542
I1
sS'//t.co/zlxliwgl2v'
p543
I1
sS'going'
p544
I4
sS'//t.co/yaburf1kfe'
p545
I2
sS'learnablehq'
p546
I1
sS'carolina'
p547
I1
sS'trickerkeet'
p548
I1
sS'ilikeunigirls'
p549
I3
sS'5000+++'
p550
I1
sS'prime'
p551
I2
sS'artist'
p552
I3
sS'skyline'
p553
I1
sS'worries'
p554
I1
sS'where'
p555
I1
sS'16th'
p556
I1
sS'vision'
p557
I2
sS'eriksen'
p558
I1
sS'espa'
p559
I1
sS'maryk0ng'
p560
I1
sS'purest'
p561
I1
sS'//t.co/vye6buo53v'
p562
I1
sS'planet'
p563
I1
sS'sites'
p564
I1
sS"'re"
p565
I4
sS'deliciousmag'
p566
I1
sS'twittersex'
p567
I1
sS'aidanadisynsmom'
p568
I1
sS'//t.co/qwybz5enun'
p569
I1
sS'jumper'
p570
I5
sS'mature'
p571
I4
sS'//t.co/c54lbhuzkn'
p572
I1
sS'aldicheer'
p573
I1
sS'ozkarportillo'
p574
I1
sS'mans'
p575
I1
sS'many'
p576
I5
sS'ratusan'
p577
I1
sS'//t.co/86njpta0p8'
p578
I1
sS's'
p579
I10
sS'fix'
p580
I1
sS'charmers'
p581
I1
sS'//t.co/24n0ulmcxg'
p582
I1
sS"lane'"
p583
I1
sS'3000'
p584
I1
sS'boat'
p585
I1
sS'west'
p586
I1
sS'vacation'
p587
I2
sS'mypakistan'
p588
I1
sS'//t.co/b9wiegjidv'
p589
I1
sS'kylesteed'
p590
I3
sS'wants'
p591
I1
sS'walmart'
p592
I2
sS'photos'
p593
I3
sS'former'
p594
I2
sS'//t.co/zq6inwuh2m'
p595
I2
sS'consultant'
p596
I1
sS'situation'
p597
I6
sS'wanagl'
p598
I8
sS'accept..'
p599
I1
sS'permierleague'
p600
I1
sS'//t.co/ex7fpn49sw'
p601
I1
sS'canon'
p602
I1
sS'mixtape'
p603
I6
sS'bros'
p604
I1
sS'mercier'
p605
I1
sS'it..'
p606
I1
sS'compasscoffeedc'
p607
I1
sS'//t.co/a6thvgsor6'
p608
I1
sS'edged'
p609
I1
sS'cheers'
p610
I1
sS'allhellkall'
p611
I1
sS'//t.co/8y09fh3cf1'
p612
I1
sS'//t.co/1s7eivyiqx'
p613
I1
sS'drep419'
p614
I2
sS'//t.co/4kztvy9b7h'
p615
I1
sS'wetebonypussy'
p616
I1
sS'nhxmas'
p617
I1
sS'being'
p618
I10
sS'rest'
p619
I1
sS'//t.co/1rl1ohhqo2'
p620
I1
sS'//t.co/b9z9nsfywn'
p621
I1
sS'parlay'
p622
I1
sS'weekly'
p623
I1
sS'brnxniall'
p624
I1
sS'trickerkeets'
p625
I6
sS'//t.co/rp501djjgw'
p626
I1
sS'around'
p627
I3
sS'vallecano'
p628
I4
sS'dari'
p629
I1
sS'traffic'
p630
I1
sS'world'
p631
I7
sS'dare'
p632
I1
sS'malfunctions'
p633
I2
sS'coffitivity'
p634
I1
sS'clad'
p635
I3
sS'bobbibrown'
p636
I3
sS'souvenirs'
p637
I1
sS'//t.co/j0hfaaflyi'
p638
I1
sS'rt+flw'
p639
I1
sS'//t.co/argjmks4bt'
p640
I1
sS'tv941'
p641
I1
sS'//t.co/pyyhl1ylur'
p642
I9
sS'memories'
p643
I2
sS'tube'
p644
I5
sS'//t.co/arqatjrxkm'
p645
I1
sS'//t.co/ioozunybhm'
p646
I1
sS'//t.co/aiywyxf53l'
p647
I1
sS'//t.co/pdscm2blof'
p648
I1
sS'brompton'
p649
I1
sS'transformers'
p650
I1
sS'scientific'
p651
I1
sS'power'
p652
I3
sS'//t.co/kolthghwdh'
p653
I1
sS'snapchatme'
p654
I1
sS'leadership'
p655
I1
sS'thailand'
p656
I1
sS'6.6l'
p657
I1
sS'//t.co/w2fotbhqtr'
p658
I1
sS'aca'
p659
I1
sS'//t.co/3fhyadfbol'
p660
I1
sS'package'
p661
I9
sS'yumteens'
p662
I1
sS'favorite'
p663
I1
sS'sportingindex'
p664
I1
sS'//t.co/ixdchgoxdk'
p665
I1
sS'brazzers'
p666
I1
sS'//t.co/o2eyadowzf'
p667
I1
sS'//t.co/bnqbjqfdta'
p668
I1
sS'image'
p669
I1
sS'noranoirxxx'
p670
I1
sS'prepares'
p671
I1
sS'//t.co/hql0rkcbpj'
p672
I1
sS'//t.co/piemr5ybkw'
p673
I1
sS'besar'
p674
I1
sS'xmaspresents'
p675
I18
sS'her'
p676
I19
sS'hes'
p677
I1
sS'4-395/85'
p678
I2
sS'nosgoth'
p679
I1
sS'canada..'
p680
I1
sS'//t.co/b2sumnyrez'
p681
I1
sS'complete'
p682
I1
sS'12daysofchristmas'
p683
I2
sS'//t.co/b9giz2aws1'
p684
I1
sS'beginners'
p685
I1
sS'with'
p686
I100
sS'streamatehottie'
p687
I1
sS'pull'
p688
I1
sS'dirty'
p689
I4
sS'agree'
p690
I2
sS'butthole'
p691
I1
sS'ai'
p692
I2
sS'17.00'
p693
I1
sS'am'
p694
I5
sS'al'
p695
I1
sS'an'
p696
I19
sS'as'
p697
I20
sS'at'
p698
I54
sS'//t.co/dehakwxsqd'
p699
I1
sS'//t.co/kpopdaxmbm'
p700
I1
sS'jlarmentrout'
p701
I2
sS'//t.co/k9nfeuyunh'
p702
I1
sS'yoga'
p703
I1
sS'//t.co/3mb1orgm3f'
p704
I1
sS'//t.co/lup31ddg7a'
p705
I1
sS'tight'
p706
I1
sS'thimblvideos'
p707
I20
sS'kandikayfan01'
p708
I1
sS'gifts'
p709
I3
sS'herbs'
p710
I1
sS'a3'
p711
I20
sS'a2'
p712
I20
sS'//t.co/sbcsr3taj7'
p713
I1
sS'r_sidney_v'
p714
I3
sS'cpl'
p715
I1
sS'tricks'
p716
I2
sS'mass'
p717
I1
sS'saadmaqsood2'
p718
I1
sS'streamteam'
p719
I1
sS'//t.co/kaz8vxkyvk'
p720
I1
sS'//t.co/0r8oth0tye'
p721
I1
sS'tv'
p722
I3
sS'baddest'
p723
I1
sS'//t.co/vrezsaeway'
p724
I1
sS'ts'
p725
I3
sS'to'
p726
I576
sS'ti'
p727
I1
sS'smile'
p728
I2
sS'te'
p729
I1
sS'ta'
p730
I1
sS'freebet'
p731
I16
sS'paying'
p732
I1
sS'hangouts'
p733
I1
sS'1,500'
p734
I1
sS'//t.co/htka1yosne'
p735
I1
sS'tatted'
p736
I1
sS'17th'
p737
I1
sS'joined'
p738
I1
sS'these'
p739
I18
sS'small'
p740
I8
sS'maggie'
p741
I2
sS'lisa15781'
p742
I1
sS'evalenoirauthor'
p743
I2
sS'past'
p744
I4
sS'//t.co/j48leeqjuk'
p745
I1
sS'pass'
p746
I3
sS'investment'
p747
I2
sS'//t.co/npnlkbgh60'
p748
I1
sS'full'
p749
I14
sS'installations'
p750
I1
sS'hours'
p751
I2
sS'winnng'
p752
I1
sS'jackyjoy'
p753
I2
sS'//t.co/lzk13hxfwj'
p754
I1
sS'experience'
p755
I2
sS'pics'
p756
I4
sS'tv573'
p757
I1
sS'pick'
p758
I5
sS'//t.co/hjemfytxrc'
p759
I1
sS'//t.co/i2uk4wrboz'
p760
I1
sS'via'
p761
I30
sS'followed'
p762
I3
sS'bermain'
p763
I1
sS'//t.co/ew1vv69y6z'
p764
I1
sS'aotd'
p765
I15
sS'follower'
p766
I1
sS'davidpumuki'
p767
I1
sS'sitepointdotcom'
p768
I1
sS'select'
p769
I1
sS'hosports'
p770
I1
sS'//t.co/6qyd46k5ri'
p771
I1
sS'pearl'
p772
I1
sS'freebetclub'
p773
I1
sS'gorgeous'
p774
I2
sS'more'
p775
I61
sS'door'
p776
I4
sS'tester'
p777
I2
sS'company'
p778
I3
sS'//t.co/p2uzzok2ee'
p779
I1
sS'mycountry'
p780
I1
sS'billbateman1'
p781
I2
sS'//t.co/qbvewzh6ci'
p782
I1
sS'//t.co/eaugdn0a0z'
p783
I1
sS'learn'
p784
I25
sS'beautiful'
p785
I3
sS'//t.co/bz2rhirs6j'
p786
I13
sS'sense'
p787
I1
sS'//t.co/4oklptiz1d'
p788
I1
sS'reverbnation'
p789
I2
sS'huge'
p790
I9
sS'nakedemo'
p791
I2
sS'rogerscoffeegifts'
p792
I2
sS'clink'
p793
I1
sS'//t.co/rjxmmezgze'
p794
I1
sS'jennifer0693'
p795
I1
sS'register'
p796
I21
sS'//t.co/3bwmbcyw35'
p797
I1
sS'paper'
p798
I1
sS'suporter'
p799
I1
sS'signs'
p800
I1
sS'//t.co/lq4tkqt9w3'
p801
I1
sS'itu'
p802
I2
sS'its'
p803
I1
sS'alla'
p804
I19
sS'optics_freak'
p805
I1
sS'balotelli'
p806
I1
sS'gadget'
p807
I1
sS'_j_a_x_x'
p808
I1
sS'icymi'
p809
I1
sS'always'
p810
I6
sS'profesormorboso'
p811
I1
sS'courses'
p812
I1
sS'stan69stan'
p813
I2
sS'found'
p814
I1
sS'shocking'
p815
I5
sS'week'
p816
I18
sS'england'
p817
I1
sS'nladvent'
p818
I4
sS'really'
p819
I3
sS'missed'
p820
I1
sS'blacks'
p821
I1
sS'hangers'
p822
I1
sS'ness'
p823
I1
sS'imagine'
p824
I1
sS'//t.co/gtywwdkej8'
p825
I1
sS'owners'
p826
I2
sS'all-battery'
p827
I1
sS'w'
p828
I21
sS'//t.co/ngfi6hcf6z'
p829
I1
sS'//t.co/g2zql17khw'
p830
I1
sS'major'
p831
I3
sS'//t.co/ybfpgmqwue'
p832
I1
sS'number'
p833
I10
sS'guess'
p834
I1
sS'//t.co/vzekgl0eae'
p835
I1
sS'dft'
p836
I1
sS'ebates'
p837
I2
sS'//t.co/e9cvxzro73'
p838
I1
sS'//t.co/uvnkwpstkj'
p839
I1
sS'12daysofbenefit'
p840
I1
sS'obama'
p841
I2
sS'youngmobileuk'
p842
I1
sS'hanya'
p843
I1
sS'getaway'
p844
I1
sS'sportsconsultant'
p845
I1
sS'//t.co/onuvoyuqds'
p846
I1
sS'0.99'
p847
I2
sS'toyboy'
p848
I1
sS'kaleyabrown'
p849
I1
sS'//t.co/ery0vu7sp9'
p850
I1
sS'//t.co/iekraweqx4'
p851
I1
sS'sell'
p852
I1
sS'terkalahkan'
p853
I1
sS'also'
p854
I1
sS'//t.co/fshosmvjvy'
p855
I1
sS'//t.co/ilzynxvi4e'
p856
I1
sS'//t.co/qloejuwcgv'
p857
I1
sS'//t.co/ptshddn2ee'
p858
I1
sS'late..'
p859
I1
sS'play'
p860
I10
sS'singles'
p861
I1
sS'//t.co/jldalygtwe'
p862
I1
sS'wive'
p863
I6
sS'puji'
p864
I1
sS'omaha'
p865
I1
sS'seize'
p866
I2
sS'//t.co/yvyd46jxos'
p867
I1
sS'sometimes'
p868
I2
sS'cover'
p869
I1
sS'ext'
p870
I1
sS'av_hd'
p871
I1
sS'barrel'
p872
I1
sS'//t.co/ja7rqgxgih'
p873
I1
sS'taxi'
p874
I1
sS'deb-happy'
p875
I1
sS'cruiser'
p876
I1
sS'//t.co/uzyyhdpm84'
p877
I1
sS'session'
p878
I1
sS'blender'
p879
I1
sS'//t.co/ntyig95mv9'
p880
I3
sS'dogoodii'
p881
I2
sS'twins'
p882
I1
sS'banned'
p883
I3
sS'remedy'
p884
I1
sS'weeks.'
p885
I1
sS'banner'
p886
I1
sS'//t.co/mwnyiky18z'
p887
I1
sS'enemy'
p888
I1
sS'//t.co/sjkifdl6h8'
p889
I1
sS'set'
p890
I7
sS'//t.co/tac7nb1c1m'
p891
I1
sS'sex'
p892
I8
sS'touch'
p893
I1
sS'see'
p894
I56
sS'sea'
p895
I2
sS'//t.co/rpbhouyj1n'
p896
I1
sS'#'
p897
I1447
sS'spirits'
p898
I1
sS'movie'
p899
I3
sS'currently'
p900
I1
sS'demons'
p901
I1
sS"'lonely"
p902
I1
sS'pickup'
p903
I3
sS'//t.co/unwucvsnyh'
p904
I1
sS'thrive'
p905
I11
sS'available'
p906
I3
sS'friend2dogs'
p907
I1
sS'ahok'
p908
I1
sS'f-350'
p909
I3
sS'hottie'
p910
I1
sS'oppchat'
p911
I2
sS'ikan'
p912
I1
sS'last'
p913
I21
sS'influential'
p914
I1
sS'//t.co/fjnuh3mdtz'
p915
I1
sS'patti'
p916
I2
sS'improves'
p917
I1
sS'godivauk'
p918
I1
sS'scams'
p919
I1
sS'poverty'
p920
I1
sS'patientlywaiting'
p921
I1
sS'whole'
p922
I1
sS'load'
p923
I4
sS'electrician'
p924
I2
sS'bell'
p925
I2
sS'footballsunday'
p926
I1
sS'community'
p927
I1
sS'coincidence'
p928
I17
sS'belt'
p929
I1
sS'gentlemanshub'
p930
I3
sS'hitting'
p931
I1
sS'//t.co/3us00tnwbt'
p932
I1
sS'//t.co/yllk2u29qx'
p933
I1
sS'firm'
p934
I7
sS'21-11-2014'
p935
I1
sS'shayla_black'
p936
I2
sS'fund'
p937
I1
sS'//t.co/gzo9ayh649'
p938
I1
sS'lawrenleann1962'
p939
I3
sS'sexybeast'
p940
I1
sS'creativetimenyc'
p941
I1
sS'reliable'
p942
I3
sS'//t.co/ezy2texr59'
p943
I1
sS'//t.co/zs3du98m5l'
p944
I1
sS'//t.co/mnh6f08kql'
p945
I1
sS'robin'
p946
I2
sS'//t.co/qikndel2ma'
p947
I1
sS'//t.co/lv3rqnwru1'
p948
I1
sS'chase'
p949
I1
sS'//t.co/igxye2ubol'
p950
I1
sS'funny'
p951
I1
sS'bollinger'
p952
I1
sS'choking'
p953
I2
sS'dailylook'
p954
I1
sS'rules'
p955
I2
sS'bethesda'
p956
I1
sS'disneysdescendants'
p957
I1
sS'//t.co/4fhshkvvl0'
p958
I1
sS'alert'
p959
I2
sS'bonkersbirkett'
p960
I1
sS'levels'
p961
I1
sS'lookmagazine'
p962
I2
sS'person'
p963
I5
sS'//t.co/k8gmyfeatb'
p964
I1
sS'piacciono'
p965
I19
sS'sizes'
p966
I1
sS'cheddar'
p967
I1
sS'buka'
p968
I1
sS'using'
p969
I11
sS'//t.co/8n9g2kfrel'
p970
I1
sS'//t.co/cgfw747jt5'
p971
I1
sS'//t.co/gq4c6ebwi0'
p972
I1
sS'//t.co/1nv5c5fbls'
p973
I1
sS'parents'
p974
I2
sS'location'
p975
I2
sS'm4m'
p976
I1
sS'tinnedtoms'
p977
I1
sS'hotyboy25'
p978
I1
sS'//t.co/acp2ik46e5'
p979
I1
sS'suffering'
p980
I2
sS'quest'
p981
I14
sS'baskets'
p982
I1
sS'projects'
p983
I3
sS'd'
p984
I2
sS'saltandsundry'
p985
I2
sS'spins'
p986
I2
sS'senate'
p987
I1
sS'bounce'
p988
I1
sS'bouncy'
p989
I1
sS'palm'
p990
I1
sS'sight'
p991
I1
sS'curious'
p992
I1
sS'sprint'
p993
I1
sS'//t.co/t7rqxtbn3b'
p994
I1
sS'//t.co/gc7mj9na3v'
p995
I1
sS'//t.co/a8uwponzgt'
p996
I1
sS'benefit'
p997
I1
sS'//t.co/o0tww7gjt9'
p998
I1
sS'the_modernmommy'
p999
I1
sS"'msbarnwell88"
p1000
I1
sS'kirsty_burke'
p1001
I1
sS'//t.co/iiircjcyqb'
p1002
I1
sS'//t.co/jwe5ayphob'
p1003
I1
sS'dating'
p1004
I5
sS'rappers'
p1005
I2
sS't'
p1006
I31
sS'be'
p1007
I43
sS'bf'
p1008
I2
sS'bb'
p1009
I1
sS'bi'
p1010
I3
sS'curvesquad'
p1011
I1
sS'santa'
p1012
I7
sS'bs'
p1013
I1
sS'by'
p1014
I58
sS'tidak'
p1015
I1
sS'4.8l'
p1016
I1
sS'anything'
p1017
I1
sS'netflix'
p1018
I3
sS'chi'
p1019
I1
sS'persija'
p1020
I1
sS'clinton'
p1021
I2
sS'dominosquikly'
p1022
I1
sS'into'
p1023
I5
sS'next'
p1024
I4
sS'itsfactbook'
p1025
I1
sS'cinnabon'
p1026
I1
sS'submit'
p1027
I1
sS'//t.co/wtddqhiql5'
p1028
I1
sS'spas'
p1029
I1
sS':'
p1030
I2815
sS'10-12-2014'
p1031
I1
sS'inches'
p1032
I2
sS'jewish'
p1033
I1
sS'poster'
p1034
I1
sS'//t.co/4v60keka8g'
p1035
I7
sS't-shirt'
p1036
I4
sS'link'
p1037
I17
sS'line'
p1038
I1
sS'posted'
p1039
I28
sS'cia'
p1040
I1
sS'//t.co/mswbomkaza'
p1041
I1
sS'//t.co/fubeuzget4'
p1042
I1
sS'//t.co/a8e4uspe8h'
p1043
I1
sS'//t.co/oowdvthhbi'
p1044
I1
sS'up'
p1045
I69
sS'us'
p1046
I34
sS'ur'
p1047
I1
sS'uk'
p1048
I8
sS'happyhour'
p1049
I1
sS'showtime'
p1050
I1
sS'footmagic'
p1051
I1
sS'chat'
p1052
I2
sS'bayhar'
p1053
I1
sS'realest'
p1054
I1
sS'//t.co/xcapelv6e6'
p1055
I1
sS'neighborhoodlove'
p1056
I1
sS'tech'
p1057
I2
sS'shanedawsonfans'
p1058
I1
sS'elements'
p1059
I1
sS'lucia'
p1060
I1
sS'//t.co/ta4cqjnfsr'
p1061
I2
sS'wetgrannysluts'
p1062
I3
sS'ago'
p1063
I1
sS'//t.co/54wzgzxi9l'
p1064
I3
sS'age'
p1065
I3
sS'beverage'
p1066
I1
sS'fbloggers'
p1067
I1
sS'//t.co/3ywpoveztt'
p1068
I1
sS'walker'
p1069
I1
sS'fresh'
p1070
I1
sS'having'
p1071
I2
sS'zsazsapadilla'
p1072
I1
sS'2try'
p1073
I1
sS'code'
p1074
I8
sS'polypropylene'
p1075
I1
sS'pokerplayer'
p1076
I1
sS'results'
p1077
I3
sS'//t.co/sz6mfmov3s'
p1078
I1
sS'//t.co/hciggghggx'
p1079
I2
sS'//t.co/8ayb4naape'
p1080
I1
sS'young'
p1081
I1
sS'ultimoutan'
p1082
I1
sS'torture'
p1083
I1
sS'//t.co/7fkurrnc3u'
p1084
I1
sS'magic'
p1085
I5
sS'eva'
p1086
I1
sS'gettin'
p1087
I1
sS'try'
p1088
I7
sS'nuggets'
p1089
I1
sS'obesity'
p1090
I2
sS'03-12-2014'
p1091
I1
sS'bojanglesso500'
p1092
I1
sS'//t.co/atzahlnd7g'
p1093
I1
sS'//t.co/fo3vgreimw'
p1094
I2
sS'licensed'
p1095
I1
sS'video'
p1096
I73
sS'victor'
p1097
I1
sS'indian'
p1098
I1
sS'turnaround'
p1099
I1
sS'//t.co/tmvzneaowe'
p1100
I1
sS'theescapistmag'
p1101
I1
sS'led'
p1102
I1
sS'nudist'
p1103
I1
sS'let'
p1104
I8
sS'foodnetwork'
p1105
I1
sS'licence'
p1106
I1
sS'//t.co/u2tdqeklw9'
p1107
I1
sS'//t.co/4qtbmb0ero'
p1108
I1
sS'great'
p1109
I37
sS'receive'
p1110
I5
sS'casino'
p1111
I7
sS'//t.co/el0'
p1112
I1
sS'opinion'
p1113
I1
sS'makes'
p1114
I5
sS'maker'
p1115
I1
sS'//t.co/8j5mkufyur'
p1116
I1
sS'bubblebutt'
p1117
I1
sS'37yr'
p1118
I1
sS'doubling'
p1119
I1
sS'//t.co/sclc3f7her'
p1120
I1
sS'babe'
p1121
I1
sS'on'
p1122
I183
sS'onedrive'
p1123
I1
sS'here=='
p1124
I2
sS'williamhill'
p1125
I1
sS'baby'
p1126
I7
sS'pawg'
p1127
I2
sS'//t.co/kckmjogxay'
p1128
I1
sS'this'
p1129
I217
sS'clients'
p1130
I1
sS'athleta'
p1131
I1
sS'thin'
p1132
I1
sS'henderson/gv'
p1133
I1
sS'//t.co/1iaum8lqx4'
p1134
I1
sS'slim'
p1135
I4
sS'//t.co/vj0clr5ui4'
p1136
I1
sS'promotional'
p1137
I1
sS'high'
p1138
I12
sS'//t.co/iwrhpxnx6x'
p1139
I1
sS'//t.co/5popyopd0l'
p1140
I1
sS'//t.co/aqkgy2eyhv'
p1141
I1
sS'rsterlogy'
p1142
I1
sS'//t.co/4ji7dcyuuu'
p1143
I1
sS'malware'
p1144
I1
sS'bellalife'
p1145
I2
sS'//t.co/uw6fxnl7er'
p1146
I2
sS'animal'
p1147
I1
sS'jakmania'
p1148
I1
sS'dominos'
p1149
I2
sS'//t.co/lloyqoloox'
p1150
I1
sS'anabilah96'
p1151
I2
sS'tier'
p1152
I1
sS'12daysoflook'
p1153
I1
sS'realized'
p1154
I1
sS'joico'
p1155
I1
sS'//t.co/puaat9aoya'
p1156
I1
sS'iampimp31'
p1157
I2
sS'houston'
p1158
I1
sS'//t.co/x0bxxyrbz3'
p1159
I1
sS'perfect'
p1160
I16
sS'chosen'
p1161
I1
sS'bossorangewatches'
p1162
I1
sS'deuceboi'
p1163
I2
sS'2015'
p1164
I3
sS'//t.co/xxujstef35'
p1165
I1
sS'2013'
p1166
I1
sS'sabotaging'
p1167
I1
sS'kegagalan'
p1168
I2
sS'snake'
p1169
I1
sS'realize'
p1170
I1
sS'//t.co/7g9wrw1sk3'
p1171
I1
sS'//t.co/hwnldqdxoi'
p1172
I3
sS'msmollygo'
p1173
I1
sS'truth'
p1174
I2
sS'princesses'
p1175
I1
sS'kpk'
p1176
I1
sS'persie'
p1177
I1
sS'bump'
p1178
I2
sS'//t.co/g5ome3lldd'
p1179
I1
sS'betfredpoker'
p1180
I1
sS'books'
p1181
I3
sS'//t.co/6h3l8fssds'
p1182
I1
sS'matrix'
p1183
I2
sS"'"
p1184
I18
sS'bag'
p1185
I4
sS'myoutlets'
p1186
I2
sS'venom'
p1187
I3
sS'_tumejorsonris'
p1188
I1
sS'miamiheat'
p1189
I1
sS'//t.co/147y6yn4hg'
p1190
I1
sS'//t.co/poaj8yd1oi'
p1191
I1
sS'contigo'
p1192
I2
sS'livecamshow'
p1193
I1
sS'afficial215/'
p1194
I1
sS'bsfreeasme'
p1195
I1
sS'coralpoker'
p1196
I1
sS'mowgul1008'
p1197
I2
sS'lifefacts'
p1198
I2
sS'could'
p1199
I13
sS'david'
p1200
I1
sS'do-adult'
p1201
I1
sS'//t.co/xxyhrhon8p'
p1202
I1
sS'savinsaidsimply'
p1203
I2
sS'blown'
p1204
I1
sS'scene'
p1205
I1
sS'owned'
p1206
I6
sS'autographed'
p1207
I2
sS'//t.co/qedt3korih'
p1208
I1
sS'//t.co/lwfhupnpnp'
p1209
I1
sS'//t.co/7pqhswjvdv'
p1210
I15
sS'pokerhands'
p1211
I1
sS'vixen'
p1212
I1
sS'start'
p1213
I22
sS'festival'
p1214
I2
sS'//t.co/h7md4eaosr'
p1215
I1
sS'//t.co/sclhzn7njq'
p1216
I1
sS'//t.co/soljxdcipp'
p1217
I1
sS'stars'
p1218
I2
sS'//t.co/zbn9hux1o3'
p1219
I1
sS'ndtvgoodtimes'
p1220
I20
sS'khalidrafiq122'
p1221
I1
sS'//t.co/bdnxfvkbiv'
p1222
I1
sS'steel'
p1223
I1
sS'warfare'
p1224
I1
sS'roulette'
p1225
I1
sS'femalecurves123'
p1226
I3
sS'bing'
p1227
I1
sS'3-5x'
p1228
I1
sS'shoebuy'
p1229
I1
sS'superman6869'
p1230
I8
sS'//t.co/wixe8nt9jo'
p1231
I1
sS'tonight'
p1232
I3
sS'thinaddictives'
p1233
I1
sS'//t.co/w0zm3r6jfh'
p1234
I1
sS'cumguyguy'
p1235
I1
sS'disneychannel'
p1236
I1
sS'gostosas'
p1237
I1
sS'soap'
p1238
I1
sS'worldwide'
p1239
I1
sS'//t.co/mgc1syvzjr'
p1240
I1
sS'//t.co/q97vedkokj'
p1241
I2
sS'shefinds'
p1242
I1
sS'visa'
p1243
I1
sS'**'
p1244
I1
sS'//t.co/dkp9qtvwai'
p1245
I1
sS'face'
p1246
I6
sS'bencana'
p1247
I1
sS'hoodies'
p1248
I40
sS'skybet'
p1249
I3
sS'//t.co/hsxfr6y6hi'
p1250
I1
sS'manchester'
p1251
I1
sS'//t.co/lcy6bxr5on'
p1252
I1
sS'noir'
p1253
I1
sS'//t.co/imvjgkbta2'
p1254
I1
sS'//t.co/babdzygvor'
p1255
I1
sS'should'
p1256
I8
sS'jan'
p1257
I1
sS'jam'
p1258
I1
sS'tape'
p1259
I1
sS'tapi'
p1260
I2
sS'perdon'
p1261
I1
sS'hope'
p1262
I2
sS'//t.co/ftokqtvvto'
p1263
I1
sS'handle'
p1264
I1
sS'toned'
p1265
I3
sS'//t.co/71qemlkb9b'
p1266
I1
sS'lucky'
p1267
I4
sS'//t.co/ay4sqjkny1'
p1268
I1
sS'demlogic'
p1269
I1
sS'adultsonly'
p1270
I1
sS'smash'
p1271
I1
sS'dateagranny'
p1272
I1
sS'h'
p1273
I4
sS'//t.co/opl9ya5hhs'
p1274
I1
sS'stuff'
p1275
I1
sS'//t.co/zocgzgyctd'
p1276
I1
sS'lalu'
p1277
I1
sS'ohio'
p1278
I1
sS'//t.co/1334geu0pu'
p1279
I1
sS'vistaprint'
p1280
I1
sS'yass'
p1281
I1
sS'//t.co/ynpsky8ugt'
p1282
I1
sS'email'
p1283
I2
sS'markrand'
p1284
I1
sS'ends'
p1285
I27
sS'bigbutt'
p1286
I1
sS'//t.co/zppupxknjz'
p1287
I1
sS'300,000'
p1288
I1
sS'//t.co/mixwiy01vq'
p1289
I3
sS'bristol'
p1290
I1
sS'//t.co/vkvvakza2a'
p1291
I1
sS'cj'
p1292
I1
sS'co'
p1293
I2
sS'ca'
p1294
I3
sS'cd'
p1295
I1
sS'cs'
p1296
I10
sS'ucl'
p1297
I2
sS'exgfpics'
p1298
I8
sS'like/share'
p1299
I1
sS'poured'
p1300
I1
sS'//t.co/i9u7ufk6mw'
p1301
I1
sS'deanburfoot'
p1302
I1
sS'2014'
p1303
I6
sS'aspectsbeautypr'
p1304
I1
sS'gunpowder'
p1305
I1
sS'spain'
p1306
I7
sS'cvs'
p1307
I1
sS'spitta'
p1308
I1
sS'maui'
p1309
I2
sS'ultra'
p1310
I1
sS'wessmusiq'
p1311
I1
sS've'
p1312
I1
sS'vi'
p1313
I19
sS'insanely'
p1314
I1
sS'site'
p1315
I4
sS'whoiscoh'
p1316
I1
sS'vs'
p1317
I17
sS'tsbible'
p1318
I1
sS'750w'
p1319
I1
sS'ball'
p1320
I1
sS'raymond'
p1321
I1
sS'bale'
p1322
I1
sS'//t.co/remcgnb3rg'
p1323
I6
sS'dust'
p1324
I1
sS'mosaic'
p1325
I1
sS'diabetes'
p1326
I2
sS'off'
p1327
I32
sS'colour'
p1328
I2
sS'phat'
p1329
I1
sS'lanevision'
p1330
I1
sS'350'
p1331
I3
sS'healthy_mums'
p1332
I1
sS'less'
p1333
I9
sS'moments'
p1334
I3
sS'drakevibe_funny'
p1335
I3
sS'//t.co/tojgjjee1v'
p1336
I1
sS'vitus15'
p1337
I1
sS'paul'
p1338
I2
sS'twitter92'
p1339
I21
sS'//t.co/dp4gw'
p1340
I1
sS'//t.co/g2tptxze0m'
p1341
I1
sS'wet'
p1342
I1
sS'//t.co/y5ozb3tg6x'
p1343
I4
sS'increased'
p1344
I2
sS'//t.co/m0lefbg9ei'
p1345
I1
sS'afcvnufc'
p1346
I10
sS'cruz'
p1347
I1
sS'five'
p1348
I1
sS'desk'
p1349
I2
sS'password'
p1350
I1
sS'garage'
p1351
I1
sS'//t.co/i6wms8iymx'
p1352
I1
sS'become'
p1353
I7
sS'paddy'
p1354
I1
sS'//t.co/sxtdyvxjvc'
p1355
I1
sS'chabata601-'
p1356
I1
sS'xboxone'
p1357
I1
sS'capacolumbus'
p1358
I2
sS'//t.co/jmjth1w3es'
p1359
I1
sS'//t.co/tr8xptgbjg'
p1360
I1
sS'inilah'
p1361
I1
sS'semua'
p1362
I1
sS'30-11-2014'
p1363
I1
sS'//t.co/9qgjohl3vj'
p1364
I2
sS'separate'
p1365
I1
sS'//t.co/7unrpjnbzh'
p1366
I1
sS'does'
p1367
I3
sS'//t.co/epjbebd4o4'
p1368
I1
sS'blowing'
p1369
I1
sS'schedule'
p1370
I2
sS'pressure'
p1371
I1
sS"'hypnotic"
p1372
I1
sS'//t.co/o6gzvidoax'
p1373
I1
sS'loans'
p1374
I5
sS'stage'
p1375
I1
sS'gained'
p1376
I2
sS'sister'
p1377
I3
sS'//www.youtube.com/watch'
p1378
I1
sS'angeles'
p1379
I1
sS'death..or'
p1380
I1
sS'pussy'
p1381
I33
sS'roads'
p1382
I1
sS'spouse'
p1383
I1
sS'alpaca'
p1384
I1
sS'//t.co/bqocvqk9yg'
p1385
I1
sS'doing'
p1386
I9
sS'bethany_house'
p1387
I1
sS'bennerm'
p1388
I1
sS'believe'
p1389
I3
sS'construction'
p1390
I1
sS'xbox360'
p1391
I1
sS'y/o'
p1392
I1
sS'places'
p1393
I9
sS'official'
p1394
I2
sS'socialoomph'
p1395
I2
sS'excitement'
p1396
I1
sS'//t.co/wnm0ipj6vl'
p1397
I1
sS'cliccate'
p1398
I19
sS'//t.co/naxnbous3t'
p1399
I1
sS'distribution'
p1400
I2
sS'christmascracker'
p1401
I2
sS'trafford'
p1402
I1
sS'website'
p1403
I10
sS'irish'
p1404
I1
sS'recognize'
p1405
I1
sS'rubble'
p1406
I1
sS'//t.co/vqcbhsqtln'
p1407
I1
sS'ini'
p1408
I2
sS'inc'
p1409
I3
sS'variety'
p1410
I1
sS'//t.co/niuuhtg7je'
p1411
I1
sS'details'
p1412
I2
sS'francisco'
p1413
I1
sS'//t.co/tnjvigr5qw'
p1414
I1
sS'monday'
p1415
I5
sS'outlets'
p1416
I5
sS'chance'
p1417
I53
sS'exposure'
p1418
I1
sS'markaparent'
p1419
I1
sS'dave'
p1420
I1
sS'eom'
p1421
I1
sS'status'
p1422
I2
sS'//t.co/aypejkuhrg'
p1423
I1
sS'//t.co/irfutbm0yf'
p1424
I3
sS'//t.co/lgqz0ksiuu'
p1425
I1
sS'//t.co/5du5w7cl8v'
p1426
I1
sS'oldest'
p1427
I1
sS'lexyjane'
p1428
I1
sS'//t.co/ixhf1kjcqn'
p1429
I1
sS'voted'
p1430
I1
sS'//t.co/qqrgqopxdy'
p1431
I1
sS'worth'
p1432
I18
sS'0.55'
p1433
I1
sS'blanket'
p1434
I1
sS'sellers'
p1435
I3
sS'exporters'
p1436
I1
sS'stylebarista'
p1437
I1
sS'red'
p1438
I1
sS'gayasscox'
p1439
I1
sS'feistysidefifty'
p1440
I1
sS'relationship.'
p1441
I1
sS'//t.co/mq5xxpgi3w'
p1442
I1
sS'1dnetxmasgiveaway'
p1443
I10
sS'//t.co/kpblrwpscz'
p1444
I1
sS'pts'
p1445
I2
sS'+'
p1446
I17
sS'//t.co/vvqklinlqz'
p1447
I1
sS'//t.co/vwvnekorke'
p1448
I1
sS'motd2'
p1449
I1
sS'kisslifeman'
p1450
I1
sS'told'
p1451
I1
sS'festive'
p1452
I6
sS'snapchatuncut'
p1453
I1
sS'jemopiyo'
p1454
I16
sS'sle'
p1455
I2
sS'studs'
p1456
I1
sS'daughter'
p1457
I2
sS'itunes'
p1458
I3
sS'//t.co/ogovsjr8c4'
p1459
I1
sS'smoke'
p1460
I1
sS'//t.co/nfe8kxfra6'
p1461
I1
sS'//t.co/bqo7vuuthh'
p1462
I1
sS'ch82'
p1463
I1
sS'-i'
p1464
I1
sS'eyeful'
p1465
I1
sS'bro'
p1466
I2
sS'//t.co/izevjooxqu'
p1467
I1
sS'total'
p1468
I5
sS'p0rn'
p1469
I2
sS'bra'
p1470
I2
sS'//t.co/5blzsfy6n9'
p1471
I1
sS'//t.co/tsmbukvwtu'
p1472
I1
sS'gloss'
p1473
I1
sS'fitnesspr0ducts'
p1474
I9
sS'bangers'
p1475
I2
sS'enter..'
p1476
I1
sS'starburst'
p1477
I1
sS'//t.co/tiqo1onga9'
p1478
I1
sS'freebiefriday'
p1479
I2
sS'1994'
p1480
I1
sS'1999'
p1481
I3
sS'work'
p1482
I11
sS'//t.co/ztkap583fw'
p1483
I1
sS'tinder'
p1484
I1
sS'199+'
p1485
I1
sS'factorycanvas'
p1486
I2
sS'tetasperfectas'
p1487
I1
sS'lilmiamigirl'
p1488
I1
sS'veggies'
p1489
I1
sS'emogirl'
p1490
I1
sS'//t.co/xhyms4qy8u'
p1491
I1
sS'the_grc'
p1492
I1
sS'beach'
p1493
I6
sS'gamble'
p1494
I2
sS'after'
p1495
I11
sS'//t.co/rzh3fbtpib'
p1496
I1
sS'//t.co/sbt5iix6zq'
p1497
I1
sS'las'
p1498
I6
sS'//t.co/9m7wgeipxf'
p1499
I1
sS'texasflutegal'
p1500
I8
sS'greet'
p1501
I1
sS'supermarkets'
p1502
I1
sS'green'
p1503
I3
sS'worst'
p1504
I1
sS'dezil87'
p1505
I1
sS'order'
p1506
I2
sS'//t.co/bl6im6fska'
p1507
I1
sS'office'
p1508
I2
sS'walgreens'
p1509
I2
sS'//t.co/nphtseftzx'
p1510
I1
sS'12.1'
p1511
I1
sS'//t.co/acftpourwv'
p1512
I1
sS'nsfw'
p1513
I16
sS'//t.co/9izysrhlhr'
p1514
I1
sS'50,000'
p1515
I2
sS'//t.co/0p15raleau'
p1516
I1
sS'highontwit'
p1517
I1
sS'//t.co/psqnpsv4uc'
p1518
I1
sS'then'
p1519
I16
sS'them'
p1520
I11
sS'pokerchips'
p1521
I1
sS'safe'
p1522
I1
sS'//t.co/bffgnshxhd'
p1523
I1
sS'break'
p1524
I2
sS'they'
p1525
I15
sS'sextoys'
p1526
I1
sS'//t.co/ttrzi61kbt'
p1527
I1
sS'bank'
p1528
I6
sS'ahandmade'
p1529
I1
sS'nciano'
p1530
I1
sS'cashmere'
p1531
I1
sS'//t.co/5nn7zxwpt8'
p1532
I1
sS'hosted'
p1533
I1
sS'penanganan'
p1534
I1
sS'lambolada_sgmg'
p1535
I1
sS'network'
p1536
I9
sS'diesel'
p1537
I4
sS'wellium'
p1538
I1
sS'sliding'
p1539
I2
sS'//t.co/51udxilay8'
p1540
I1
sS'//t.co/6otdy7rhil'
p1541
I1
sS'rebeccabbird'
p1542
I1
sS'//t.co/tmar9zty0c'
p1543
I2
sS'campaigns'
p1544
I1
sS'aldeburgh'
p1545
I1
sS'soundcloud'
p1546
I4
sS'naturallycurly'
p1547
I19
sS'traphik'
p1548
I1
sS'//t.co/iww3zfijdz'
p1549
I1
sS'flawless'
p1550
I1
sS'//t.co/t4dgoyrbpr'
p1551
I1
sS'another'
p1552
I7
sS'thick'
p1553
I3
sS'omegaman58'
p1554
I1
sS'//t.co/ry1ed1drld'
p1555
I1
sS'john'
p1556
I21
sS'dogs'
p1557
I1
sS'butter'
p1558
I1
sS'femaletextx'
p1559
I3
sS'//t.co/sjicwtc8qc'
p1560
I1
sS'//t.co/0lszik8e0e'
p1561
I1
sS'toronto'
p1562
I14
sS'programs'
p1563
I2
sS'ahelicoptermom'
p1564
I2
sS'iron'
p1565
I1
sS'softshell'
p1566
I3
sS'//t.co/gy8ekxm5lg'
p1567
I1
sS'lulu'
p1568
I1
sS'dildo'
p1569
I1
sS'500,000'
p1570
I1
sS'lil_novah'
p1571
I1
sS'//t.co/yyxfijrmxr'
p1572
I1
sS'luxury'
p1573
I3
sS'iceland'
p1574
I1
sS'//t.co/cvevtnibss'
p1575
I1
sS'*new'
p1576
I1
sS'megan'
p1577
I1
sS'germany'
p1578
I1
sS'and..'
p1579
I6
sS'//t.co/fxl2t2udvd'
p1580
I1
sS'webcam'
p1581
I1
sS'oneplus'
p1582
I1
sS'thatbucketlist'
p1583
I1
sS'//t.co/7nxc9fmxcu'
p1584
I1
sS'//t.co/yrry7luaok'
p1585
I1
sS'reserve'
p1586
I1
sS'//t.co/auyhi1iomw'
p1587
I1
sS'//t.co/assmu7mtwr'
p1588
I1
sS'novacooldasav'
p1589
I1
sS'//t.co/yxsyhtg3de'
p1590
I1
sS'//t.co/9d7vhl8grt'
p1591
I1
sS'toast'
p1592
I2
sS'bfrase_'
p1593
I1
sS'roses.'
p1594
I1
sS'skys'
p1595
I2
sS'kelaparan'
p1596
I1
sS'do'
p1597
I41
sS'//t.co/4dfue558od'
p1598
I1
sS'di'
p1599
I5
sS'//t.co/yr87o4cvtt'
p1600
I1
sS'de'
p1601
I2
sS'da'
p1602
I1
sS'//t.co/wyto'
p1603
I1
sS'//t.co/iykm7wdjxe'
p1604
I1
sS'livecams'
p1605
I2
sS'chanel'
p1606
I1
sS'runs'
p1607
I2
sS'sky-'
p1608
I1
sS'emo'
p1609
I1
sS'//t.co/y055lkw1vc'
p1610
I1
sS'w/'
p1611
I7
sS'//t.co/nkzqkycg0j'
p1612
I1
sS'techniques'
p1613
I1
sS'away'
p1614
I3
sS'twitterafterdark'
p1615
I8
sS'//t.co/toximlls0w'
p1616
I1
sS'atul'
p1617
I20
sS'awal'
p1618
I1
sS'//t.co/omarh3loyr'
p1619
I1
sS'we'
p1620
I30
sS'making_of_a_mom'
p1621
I1
sS'wo'
p1622
I3
sS'handful'
p1623
I2
sS'//t.co/6wferyzqvz'
p1624
I16
sS'packages'
p1625
I1
sS'yrwo'
p1626
I2
sS'hasil'
p1627
I1
sS'ncaa'
p1628
I1
sS'//t.co/cuvyf4idss'
p1629
I1
sS'exceeds'
p1630
I3
sS'//t.co/hie7egah55'
p1631
I1
sS'gable'
p1632
I1
sS'tone'
p1633
I4
sS'//t.co/ujlmbwhs7k'
p1634
I1
sS'tons'
p1635
I1
sS'//t.co/d6sgjujmcm'
p1636
I1
sS'*10'
p1637
I1
sS'50,000,000'
p1638
I1
sS'//t.co/dr2sgeo9x4'
p1639
I1
sS'//t.co/aa3etuaynv'
p1640
I1
sS'//t.co/etrefqzggt'
p1641
I1
sS'//t.co/uypg0ojwrc'
p1642
I1
sS'trickerk'
p1643
I1
sS'//t.co/cdmn02utku'
p1644
I1
sS'transformulas'
p1645
I4
sS'families'
p1646
I1
sS'//t.co/hhgl2tiy0o'
p1647
I1
sS'caterina'
p1648
I38
sS'east'
p1649
I1
sS'4wd'
p1650
I1
sS'air'
p1651
I1
sS'mistake'
p1652
I1
sS'ilyt'
p1653
I1
sS'//t.co/n5vpsdocrb'
p1654
I1
sS'//t.co/n5nxpvipvn'
p1655
I1
sS'//t.co/64zbnm15u2'
p1656
I1
sS'bunny'
p1657
I2
sS'advertising'
p1658
I10
sS'wheel'
p1659
I2
sS'independent'
p1660
I3
sS'//t.co/y1cpdcbg3g'
p1661
I1
sS'raid'
p1662
I2
sS'rain'
p1663
I1
sS'taklukkan'
p1664
I1
sS'dingdongtong_'
p1665
I1
sS'//t.co/wigxpblcz8'
p1666
I1
sS'judith5519'
p1667
I3
sS'thx'
p1668
I2
sS'peacocks'
p1669
I2
sS'min'
p1670
I4
sS'//t.co/aovrl0piuf'
p1671
I1
sS'//t.co/h0o9psrwgr'
p1672
I1
sS'epl'
p1673
I10
sS'contact'
p1674
I2
sS'the'
p1675
I316
sS'//t.co/4npx2dxvcw'
p1676
I1
sS'sangat'
p1677
I2
sS'photo'
p1678
I12
sS'nokidhungry'
p1679
I1
sS'dualshockers'
p1680
I1
sS'thanks'
p1681
I4
sS'freebetspage'
p1682
I1
sS'//t.co/q8zw8q4yxo'
p1683
I1
sS'flooring'
p1684
I1
sS'merokok'
p1685
I2
sS'cornell'
p1686
I1
sS'photographer'
p1687
I1
sS'spread'
p1688
I1
sS'board'
p1689
I3
sS'//t.co/qm3ueawfcn'
p1690
I1
sS'//t.co/38kgil4tvd'
p1691
I1
sS'ktowntherapper'
p1692
I1
sS'//t.co/fdxzbhv548'
p1693
I1
sS'capa'
p1694
I1
sS'scarpa'
p1695
I19
sS'buruk'
p1696
I1
sS'xbox'
p1697
I1
sS'night'
p1698
I6
sS'.horny'
p1699
I1
sS'sends'
p1700
I1
sS'idgaf'
p1701
I1
sS'//t.co/qpolhcgcv6'
p1702
I1
sS'tweet4liptreat'
p1703
I1
sS'bora'
p1704
I2
sS'congratulate'
p1705
I1
sS'fidel'
p1706
I1
sS'/'
p1707
I12
sS'//t.co/qyqlnkft5s'
p1708
I1
sS'sweetjellybean5'
p1709
I1
sS'//t.co/xz59zvga6d'
p1710
I1
sS'columbus'
p1711
I3
sS'//t.co/9zeuwfxuwa'
p1712
I2
sS'marketing'
p1713
I1
sS'//t.co/y9z9rerqj3'
p1714
I1
sS'post'
p1715
I6
sS'//t.co/'
p1716
I1
sS'//t.co/md8soebtke'
p1717
I1
sS'selfies'
p1718
I6
sS'coral'
p1719
I3
sS'months'
p1720
I2
sS'wsop'
p1721
I1
sS'kayjewelers'
p1722
I3
sS'octopus'
p1723
I1
sS'treble'
p1724
I2
sS'//t.co/f7gvkqmgxh'
p1725
I1
sS'//t.co/8scbxvtkhw'
p1726
I1
sS'float'
p1727
I1
sS'//t.co/qur8i9vnyu'
p1728
I1
sS'//t.co/ne9exsqogg'
p1729
I1
sS'wtfeveriwant'
p1730
I2
sS'luiscircusleon'
p1731
I1
sS'depostit'
p1732
I1
sS'wan'
p1733
I5
sS'weddingmagazine'
p1734
I1
sS'streamdallas'
p1735
I1
sS'//t.co/ujn9d3'
p1736
I1
sS'way'
p1737
I9
sS'quirky'
p1738
I1
sS'was'
p1739
I45
sS'war'
p1740
I1
sS'//t.co/yi10wtwolz'
p1741
I1
sS'//t.co/ytztdnwnwz'
p1742
I1
sS'non-trade'
p1743
I1
sS'true'
p1744
I1
sS'sluttymiss'
p1745
I8
sS'//t.co/mmbcuh7jvb'
p1746
I1
sS'//t.co/shaiqzttrs'
p1747
I1
sS'//t.co/kecqiwzazs'
p1748
I1
sS'//t.co/o2vbkjcmxa'
p1749
I1
sS'medication'
p1750
I1
sS'evidence'
p1751
I1
sS'blvkiceglobal'
p1752
I1
sS'//t.co/q72dkwx7gi'
p1753
I1
sS'stake'
p1754
I1
sS'interested'
p1755
I1
sS'groomedglossy'
p1756
I2
sS'sekolah'
p1757
I2
sS'welcome'
p1758
I12
sS'notepad'
p1759
I1
sS'update'
p1760
I1
sS'healthiest'
p1761
I1
sS'scores'
p1762
I1
sS'//t.co/lmhc9wz4ue'
p1763
I1
sS'detox'
p1764
I1
sS'//t.co/qumfo0dxqc'
p1765
I1
sS'together'
p1766
I1
sS'loyal'
p1767
I1
sS'fitfam'
p1768
I1
sS'dance'
p1769
I1
sS'//t.co/gwouguad2l'
p1770
I1
sS'//t.co/nlze6l8izh'
p1771
I1
sS'//t.co/gu3bgjlgrp'
p1772
I1
sS'supplement'
p1773
I3
sS'//t.co/nqmm2jrrwm'
p1774
I1
sS'grateful'
p1775
I3
sS'//t.co/hvgwjsd3p5'
p1776
I8
sS'zone'
p1777
I1
sS'//t.co/xlzpxzvxz9'
p1778
I1
sS'southwest'
p1779
I1
sS'//t.co/qybl8ehbkw'
p1780
I1
sS'3am'
p1781
I1
sS'boombox'
p1782
I1
sS'brownie'
p1783
I1
sS'vegan'
p1784
I2
sS'vegas'
p1785
I7
sS'anonymous'
p1786
I2
sS'//t.co/ez2wq5iifj'
p1787
I2
sS'discoverbdx'
p1788
I1
sS'beiber'
p1789
I1
sS'//t.co/axsu4iwgfz'
p1790
I1
sS'gun'
p1791
I1
sS'30yr'
p1792
I2
sS'p'
p1793
I1
sS'//t.co/xd2wcuqxdu'
p1794
I1
sS'guy'
p1795
I7
sS'tikichris'
p1796
I2
sS'regret'
p1797
I1
sS'discover'
p1798
I7
sS'//t.co/ugu4rlezh2'
p1799
I2
sS'htt'
p1800
I9
sS'//t.co/fhsrsrif99'
p1801
I1
sS'//t.co/y2rfruioj3'
p1802
I1
sS'//t.co/mhqgz3iv00'
p1803
I2
sS'//t.co/3ptgytanhl'
p1804
I1
sS'assistance'
p1805
I1
sS'shared'
p1806
I1
sS'jbayhunk'
p1807
I2
sS'mudah'
p1808
I1
sS'//t.co/zvz1g1iya7'
p1809
I1
sS'ht3'
p1810
I1
sS'//t.co/etstmf8cyj'
p1811
I1
sS'//t.co/mcn5kc7ndq'
p1812
I1
sS'30.11.14'
p1813
I9
sS'gorge'
p1814
I1
sS'teacher'
p1815
I1
sS'change'
p1816
I17
sS'plasterers'
p1817
I1
sS'flames'
p1818
I1
sS'alyssa'
p1819
I1
sS'//t.co/haknl527um'
p1820
I1
sS'//t.co/i0vbz7l8e2'
p1821
I1
sS'franklin'
p1822
I2
sS'usually'
p1823
I2
sS'//t.co/803jqftj4p'
p1824
I1
sS'//t.co/fh5ps2mael'
p1825
I1
sS'churchill'
p1826
I1
sS'//t.co/ipfjgllc5s'
p1827
I1
sS'extra'
p1828
I9
sS'//t.co/8ea'
p1829
I3
sS'offer..'
p1830
I1
sS'fbi'
p1831
I2
sS'mobil'
p1832
I2
sS'feministart'
p1833
I1
sS'//t.co/xqhvv0cqzo'
p1834
I2
sS'say_vona'
p1835
I1
sS'prove'
p1836
I1
sS'ksg'
p1837
I2
sS'live'
p1838
I46
sS'//t.co/zt0f9s4cuw'
p1839
I1
sS'https'
p1840
I50
sS'angels'
p1841
I2
sS'club'
p1842
I3
sS'tv186'
p1843
I1
sS'//t.co/5bt4l21vro'
p1844
I5
sS'graphic'
p1845
I1
sS'ceramicatiles'
p1846
I1
sS'car'
p1847
I3
sS'cat'
p1848
I1
sS'acoa'
p1849
I1
sS'//t.co/ktisxcesbo'
p1850
I1
sS'can'
p1851
I41
sS'cam'
p1852
I2
sS'cab'
p1853
I4
sS'justiceserved_1'
p1854
I2
sS'heart'
p1855
I2
sS'luxurylink'
p1856
I1
sS'december'
p1857
I3
sS'heard'
p1858
I2
sS'_keonthetrack'
p1859
I1
sS'gabby'
p1860
I1
sS'clothing'
p1861
I1
sS'//t.co/mqplgc4mcc'
p1862
I1
sS'giveaways'
p1863
I5
sS'justru'
p1864
I1
sS'lounge'
p1865
I1
sS'rt+follow'
p1866
I2
sS'//t.co/eomker800g'
p1867
I3
sS'produce'
p1868
I2
sS'//t.co/2m05hf3av2'
p1869
I1
sS'accelerated'
p1870
I1
sS'tv989'
p1871
I1
sS'//t.co/rthttbohnb'
p1872
I1
sS'//t.co/ujltowgadm'
p1873
I1
sS'brain'
p1874
I2
sS'//t.co/axoet3b19a'
p1875
I1
sS'managers'
p1876
I1
sS'cold'
p1877
I1
sS'still'
p1878
I3
sS'birds'
p1879
I1
sS'//t.co/dq9gabkeuf'
p1880
I2
sS'sexiest'
p1881
I1
sS'teampromohard'
p1882
I1
sS'//t.co/pzkggpvls5'
p1883
I1
sS'//t.co/9jiiyztqn2'
p1884
I1
sS'sacramentokings'
p1885
I1
sS'//t.co/f8mbtjvm76'
p1886
I1
sS'//t.co/uxxjpjcwsz'
p1887
I1
sS'drryanmoore'
p1888
I2
sS'//t.co/minrukedzm'
p1889
I1
sS'bonniemckee110'
p1890
I1
sS'1954'
p1891
I1
sS'adrenaline'
p1892
I1
sS'1950'
p1893
I1
sS'-enter'
p1894
I1
sS'not'
p1895
I9
sS'//t.co/9ljynzwjwh'
p1896
I1
sS'now'
p1897
I91
sS'less..'
p1898
I1
sS'//t.co/ot5wtfbsl1'
p1899
I1
sS'//t.co/jymqynooay'
p1900
I1
sS'//t.co/qpukrw8jki'
p1901
I1
sS'james'
p1902
I8
sS'drop'
p1903
I2
sS'//t.co/kkh2pmyena'
p1904
I1
sS'bangbros'
p1905
I1
sS'staywarm'
p1906
I1
sS'onoff'
p1907
I1
sS'em'
p1908
I1
sS'bourbon-bacon'
p1909
I1
sS'newyearsresolution'
p1910
I2
sS'ex'
p1911
I8
sS'year'
p1912
I7
sS'happen'
p1913
I4
sS'robertalai'
p1914
I2
sS'sportsbetting'
p1915
I1
sS'album'
p1916
I3
sS'opened'
p1917
I4
sS'homedsgn'
p1918
I1
sS'looking'
p1919
I14
sS'//t.co/lsfknfurlk'
p1920
I1
sS'thong'
p1921
I2
sS'gofundme'
p1922
I1
sS'card'
p1923
I11
sS'care'
p1924
I2
sS'selections'
p1925
I9
sS'deprivation'
p1926
I1
sS'tries'
p1927
I1
sS'punheta'
p1928
I1
sS'//t.co/ioos'
p1929
I1
sS'promotion'
p1930
I15
sS'xl'
p1931
I3
sS'jealousy'
p1932
I1
sS'yourself'
p1933
I4
sS'xx'
p1934
I1
sS'//t.co/ditmjtva2y'
p1935
I1
sS'message'
p1936
I7
sS'tomorrow'
p1937
I1
sS'//t.co/gcfzhxstdm'
p1938
I1
sS'adem_thelunatic'
p1939
I1
sS'tragic'
p1940
I1
sS'friend'
p1941
I7
sS'that'
p1942
I48
sS'preservatives'
p1943
I1
sS'pns'
p1944
I1
sS'microcenter'
p1945
I2
sS'than'
p1946
I18
sS'wagnerspraytech'
p1947
I1
sS'veronicavalli'
p1948
I1
sS'aerials'
p1949
I1
sS'fruits'
p1950
I1
sS'cosmediccoach'
p1951
I1
sS'angel'
p1952
I15
sS'slay'
p1953
I1
sS'anyclinic'
p1954
I1
sS'offering'
p1955
I1
sS'//t.co/2yypt9xlfl'
p1956
I1
sS'online'
p1957
I15
sS'//t.co/fwfj9dkhny'
p1958
I1
sS'//t.co/ciefeimiyk'
p1959
I1
sS']'
p1960
I2
sS'philipslights'
p1961
I1
sS'forever'
p1962
I1
sS'//t.co/ric3hgwrp3'
p1963
I1
sS'dream'
p1964
I4
sS'steady'
p1965
I2
sS'50flavour'
p1966
I1
sS'//t.co/umgyexuvkh'
p1967
I1
sS'professional'
p1968
I1
sS'hpbsys'
p1969
I1
sS'//t.co/na862fmvr0'
p1970
I1
sS'gomez01114'
p1971
I2
sS'//t.co/lgkx8oevym'
p1972
I1
sS'snapfish'
p1973
I1
sS'lansing'
p1974
I1
sS'only'
p1975
I29
sS'sierra'
p1976
I6
sS'//t.co/gjygvvquwa'
p1977
I1
sS'xmasgiveaway'
p1978
I1
sS'giannismougos'
p1979
I1
sS'truly'
p1980
I4
sS'//t.co/vonzqjlatf'
p1981
I1
sS'timessquare'
p1982
I2
sS'//t.co/6sx9knryiv'
p1983
I1
sS'love+care+fear+help+fight+life'
p1984
I1
sS'celebrate'
p1985
I4
sS'//t.co/czfqseptpe'
p1986
I1
sS'leather'
p1987
I2
sS'southernkgirl'
p1988
I1
sS'craftsmanship'
p1989
I1
sS'//t.co/qoluiaq2lw'
p1990
I1
sS'//t.co/c06mxharxn'
p1991
I1
sS'onesiefunsie'
p1992
I1
sS'//t.co/kp7zcagk9g'
p1993
I1
sS'hammitt'
p1994
I1
sS'kemenangan'
p1995
I1
sS'this..'
p1996
I1
sS'sport'
p1997
I1
sS'//t.co/uufkoyyjqq'
p1998
I2
sS'//t.co/eqahck9cu6'
p1999
I1
sS'sbss'
p2000
I2
sS'3'
p2001
I11
sS'between'
p2002
I4
sS'pokerstars'
p2003
I4
sS'notice'
p2004
I1
sS'//t.co/6wrlfcwxtq'
p2005
I1
sS'vue'
p2006
I1
sS'//t.co/uvylho86i4'
p2007
I1
sS'pray'
p2008
I2
sS'wheels'
p2009
I6
sS'//t.co/txbdcfinlh'
p2010
I1
sS'comes'
p2011
I1
sS'overview'
p2012
I1
sS'//t.co/fca6zckgq9'
p2013
I1
sS'learning'
p2014
I1
sS'astrongcoffee1'
p2015
I1
sS'//t.co/icvc2a'
p2016
I1
sS'//t.co/6iivtdssms'
p2017
I1
sS'28-11-2014'
p2018
I1
sS'scancomputers'
p2019
I2
sS'nakedselfies387'
p2020
I1
sS'rubi'
p2021
I2
sS'nikon'
p2022
I1
sS'ruby'
p2023
I2
sS'//t.co/o549lltijp'
p2024
I1
sS'//t.co/lzdd1b4mhp'
p2025
I1
sS'bagaimana'
p2026
I1
sS'trick'
p2027
I11
sS'taking'
p2028
I2
sS'coolest'
p2029
I1
sS'//t.co/08ohqfrnra'
p2030
I1
sS'//t.co/qjqnmaqxtu'
p2031
I1
sS'artrightnow'
p2032
I1
sS'//t.co/8xtuauniz4'
p2033
I1
sS'take..'
p2034
I3
sS'woolfhound'
p2035
I1
sS'//t.co/jtdmokucaj'
p2036
I1
sS'etc'
p2037
I2
sS'media'
p2038
I9
sS'food'
p2039
I2
sS'followers'
p2040
I15
sS'//t.co/yxhplofhrn'
p2041
I3
sS'document'
p2042
I1
sS'deezeruk'
p2043
I1
sS'nonnisbiscotti'
p2044
I1
sS'//t.co/uexcw77ged'
p2045
I1
sS'ikettle'
p2046
I1
sS'semodudelives'
p2047
I2
sS'bondage'
p2048
I1
sS'purex'
p2049
I1
sS'//t.co/1os9cuwmfi'
p2050
I1
sS'ou..'
p2051
I1
sS'//t.co/vnynkuqclm'
p2052
I1
sS'penghambat'
p2053
I1
sS'//t.co/utx5ru4wfl'
p2054
I1
sS'ps3'
p2055
I1
sS'ps4'
p2056
I4
sS'death'
p2057
I1
sS'momentum'
p2058
I1
sS'real'
p2059
I9
sS'designed2eat'
p2060
I1
sS'read'
p2061
I2
sS'calendars'
p2062
I1
sS'psg'
p2063
I1
sS'early'
p2064
I3
sS'amp'
p2065
I169
sS'jauhi'
p2066
I1
sS'psu'
p2067
I2
sS'cammytheriault'
p2068
I1
sS'pounds'
p2069
I2
sS'collective'
p2070
I1
sS'sx510'
p2071
I1
sS'//t.co/ynd54r0wkm'
p2072
I1
sS'12daysofxmas'
p2073
I2
sS'linseyperry'
p2074
I1
sS'earhart'
p2075
I1
sS'verbal'
p2076
I1
sS'masing'
p2077
I2
sS'refresh'
p2078
I1
sS'zsazsa'
p2079
I1
sS'cocacolatrivia'
p2080
I1
sS'conservative'
p2081
I1
sS'//t.co/shxjwccjhn'
p2082
I1
sS'squirt'
p2083
I1
sS'openfollow'
p2084
I2
sS'militaryfamof8'
p2085
I1
sS'business'
p2086
I27
sS'asap'
p2087
I2
sS'//t.co/otcg9wqcsh'
p2088
I1
sS'1937'
p2089
I1
sS'chefateve'
p2090
I1
sS'//t.co/ufgywkgjja'
p2091
I1
sS'burgeroftheweek'
p2092
I1
sS'//t.co/tuutigiuyy'
p2093
I1
sS'choc'
p2094
I2
sS'108-96.'
p2095
I1
sS'mufc_family'
p2096
I1
sS'//t.co/xcbeajucpa'
p2097
I1
sS'rolling'
p2098
I1
sS'//t.co/grtow8iobu'
p2099
I1
sS'heated'
p2100
I2
sS'operator'
p2101
I1
sS'nowadays'
p2102
I1
sS'your'
p2103
I195
sS'//t.co/8utrkrarr8'
p2104
I1
sS'boredbugcom'
p2105
I1
sS'log'
p2106
I1
sS'prepare'
p2107
I1
sS'sesuai'
p2108
I1
sS'//t.co/nzapsfcmua'
p2109
I3
sS'lol'
p2110
I3
sS'los'
p2111
I1
sS'//t.co/e10nip34hu'
p2112
I1
sS'lot'
p2113
I1
sS'valencia'
p2114
I4
sS'//t.co/3nho8ojpeq'
p2115
I1
sS'//t.co/qsx0dguttp'
p2116
I3
sS'immrnovember'
p2117
I1
sS'hire'
p2118
I1
sS'premierleague'
p2119
I2
sS'comics'
p2120
I1
sS'//t.co/ecqtosfh5s'
p2121
I8
sS'//t.co/u3qgwljaif'
p2122
I2
sS'builders'
p2123
I1
sS'600'
p2124
I3
sS'sales'
p2125
I2
sS'tengo'
p2126
I1
sS'nerd'
p2127
I1
sS'//t.co/g7polr7elo'
p2128
I1
sS'//t.co/u32khuqeuo'
p2129
I1
sS'interiordesign'
p2130
I2
sS'//t.co/kf4rzymr1a'
p2131
I1
sS'milking'
p2132
I3
sS'you'
p2133
I314
sS'//t.co/9ve9wyjmj4'
p2134
I2
sS'fickmatratze'
p2135
I1
sS'diaries'
p2136
I1
sS'uk2adventcomp'
p2137
I1
sS'adventuresof8'
p2138
I5
sS'//t.co/nftjlwo6jq'
p2139
I1
sS'pool'
p2140
I1
sS'*video*'
p2141
I2
sS'webiste'
p2142
I1
sS'3-4'
p2143
I1
sS'dorsethour'
p2144
I2
sS'//t.co/c9qbyoussh'
p2145
I1
sS'fb/twitter'
p2146
I1
sS'since'
p2147
I1
sS'month'
p2148
I1
sS'jjcuse99'
p2149
I1
sS'//t.co/s2ly5xkbmh'
p2150
I1
sS'revealed'
p2151
I4
sS'mshear'
p2152
I1
sS'dopeitems'
p2153
I1
sS'panasonic_mob'
p2154
I20
sS'foster'
p2155
I1
sS'danielle'
p2156
I1
sS'trilla_jayy'
p2157
I1
sS'//t.co/imweswcras'
p2158
I1
sS'udiscovermusic'
p2159
I1
sS'very'
p2160
I4
sS'//t.co/gubeqjtatl'
p2161
I1
sS'vera'
p2162
I1
sS'balancing'
p2163
I2
sS'//t.co/judxmhxq6c'
p2164
I1
sS'--'
p2165
I39
sS'louis'
p2166
I1
sS'//t.co/wpkmxnmmwn'
p2167
I1
sS'instagram'
p2168
I7
sS'//t.co/dc6amfa3dx'
p2169
I1
sS'//t.co/xwiikaz1zh'
p2170
I1
sS'lt295-65-20'
p2171
I1
sS'timetobelieve'
p2172
I1
sS'hamper'
p2173
I9
sS'ch873'
p2174
I1
sS'accumulator'
p2175
I2
sS'certificates'
p2176
I1
sS'39yr'
p2177
I2
sS'//t.co/bpmgpvf9ib'
p2178
I1
sS'//t.co/jzcbdaaoea'
p2179
I1
sS'//t.co/p8bu5fsk8y'
p2180
I2
sS'loose'
p2181
I1
sS'poundland'
p2182
I1
sS'modular'
p2183
I1
sS'tracks'
p2184
I1
sS'creampie'
p2185
I1
sS'strong'
p2186
I1
sS'//t.co/8reflyzrt2'
p2187
I1
sS'ahead'
p2188
I1
sS'31yr'
p2189
I1
sS'//t.co/mpfdmtljdb'
p2190
I1
sS'trainer'
p2191
I2
sS'//t.co/f9buclmchx'
p2192
I1
sS'family'
p2193
I4
sS'//t.co/ayfkwiyv1u'
p2194
I1
sS'story='
p2195
I1
sS'put'
p2196
I3
sS'christmaslikecrazy'
p2197
I1
sS'toys'
p2198
I2
sS'//t.co/poo6c5rccn'
p2199
I2
sS'takes'
p2200
I3
sS'smokeymontana25'
p2201
I1
sS'taken'
p2202
I1
sS'adalah'
p2203
I1
sS'yuck'
p2204
I1
sS'//t.co/iwggcrgcwx'
p2205
I1
sS'dior'
p2206
I1
sS'hurry'
p2207
I4
sS'//t.co/uko0vhhy8a'
p2208
I1
sS'lovelipcote'
p2209
I1
sS'sweeps'
p2210
I1
sS'//t.co/aih316wtgk'
p2211
I1
sS'j_westphal2'
p2212
I1
sS'//t.co/a3cos6ss4f'
p2213
I1
sS'gbchefs'
p2214
I2
sS'petugas'
p2215
I1
sS'//t.co/deubc8m9ca'
p2216
I1
sS'//t.co/ndvk0rzf5p'
p2217
I6
sS'//t.co/riz9shojwj'
p2218
I1
sS'zaynemalik'
p2219
I5
sS'18+nopurnec12/1-30'
p2220
I2
sS'plottin'
p2221
I1
sS'ft'
p2222
I3
sS'tried'
p2223
I1
sS'//t.co/ijny2ev9vw'
p2224
I1
sS'sneak'
p2225
I1
sS'fb'
p2226
I2
sS'ff'
p2227
I8
sS'fl'
p2228
I1
sS'a'
p2229
I385
sS'willloughby'
p2230
I1
sS'enzymes'
p2231
I1
sS'//t.co/tbxkmwoc1d'
p2232
I1
sS'anytime'
p2233
I2
sS')'
p2234
I162
sS'banks'
p2235
I1
sS'egg'
p2236
I1
sS'chicks'
p2237
I1
sS'//t.co/k2pzby5qsw'
p2238
I1
sS'help'
p2239
I20
sS'ffv'
p2240
I1
sS'urine'
p2241
I1
sS'soon'
p2242
I2
sS'yrnrayshaun'
p2243
I1
sS'//t.co/iodhmbpabs'
p2244
I1
sS'//t.co/p7potz6eyp'
p2245
I1
sS'//t.co/cszhlhqcjs'
p2246
I1
sS'actually'
p2247
I6
sS'readysetgive'
p2248
I3
sS'systems'
p2249
I1
sS'//t.co/wzpjfg7qhp'
p2250
I1
sS'yo'
p2251
I4
sS'ya'
p2252
I3
sS'arsenal'
p2253
I15
sS'peeing'
p2254
I1
sS'yr'
p2255
I1
sS'yw'
p2256
I1
sS'intelsecurity'
p2257
I2
sS'fully'
p2258
I1
sS'capability'
p2259
I1
sS'heavy'
p2260
I1
sS'pamper'
p2261
I1
sS'//t.co/cksterqx6n'
p2262
I2
sS'beyond'
p2263
I1
sS'event'
p2264
I1
sS'newlookfashion'
p2265
I4
sS'somemoney'
p2266
I3
sS'douglas'
p2267
I1
sS'jolly'
p2268
I1
sS'//t.co/ahxlglytp7'
p2269
I1
sS'john_ewert'
p2270
I1
sS'dominated'
p2271
I1
sS'//t.co/22qmssxgyn'
p2272
I1
sS'7'
p2273
I19
sS'routestoreading'
p2274
I5
sS'betinplay'
p2275
I1
sS'tv143'
p2276
I1
sS'ass'
p2277
I7
sS'ch460'
p2278
I1
sS'base'
p2279
I1
sS'ask'
p2280
I11
sS'viamarkrose'
p2281
I1
sS'pur'
p2282
I3
sS'//t.co/z898ozddhk'
p2283
I1
sS'gfpicsshared'
p2284
I8
sS'american'
p2285
I1
sS'apocalypse'
p2286
I1
sS'//t.co/wwhtgpwc9v'
p2287
I1
sS'dallasmars'
p2288
I1
sS'markdspencer'
p2289
I1
sS'//t.co/oyxlujse5d'
p2290
I1
sS'udchristmascomp'
p2291
I1
sS'miss'
p2292
I6
sS'//t.co/ke1t5msgrs'
p2293
I1
sS'wonderful'
p2294
I1
sS'expand'
p2295
I9
sS'//t.co/qbylpwbnbv'
p2296
I1
sS'fanpage'
p2297
I1
sS'selling'
p2298
I4
sS'financing'
p2299
I2
sS'yacyonder'
p2300
I1
sS'grey'
p2301
I3
sS'//t.co/63yptvzmgs'
p2302
I1
sS'karr'
p2303
I1
sS'obersee'
p2304
I1
sS'888'
p2305
I2
sS'//t.co/a6ane6twzg'
p2306
I1
sS'//t.co/w73ievgczy'
p2307
I1
sS'philly'
p2308
I1
sS'lie'
p2309
I1
sS'//t.co/g3x2arhfjw'
p2310
I9
sS'//t.co/vrg1kkm5c8'
p2311
I1
sS'lib'
p2312
I1
sS'lil'
p2313
I3
sS'officers'
p2314
I2
sS'//t.co/aqnohkopsk'
p2315
I4
sS'//t.co/mt3rufexpv'
p2316
I12
sS'towards'
p2317
I1
sS'//t.co/8is1secfzh'
p2318
I1
sS'quote'
p2319
I3
sS'//t.co/dg3x8fmjle'
p2320
I11
sS'salary'
p2321
I1
sS'popularity'
p2322
I2
sS'//t.co/rwerazel9m'
p2323
I1
sS'johnquick81098'
p2324
I1
sS'blend'
p2325
I1
sS'tener'
p2326
I1
sS'//t.co/kqedebq'
p2327
I3
sS'blackface'
p2328
I1
sS'//t.co/6dphfav2xv'
p2329
I3
sS'washwizards'
p2330
I1
sS'2kcrakk'
p2331
I1
sS'bev_metallica'
p2332
I2
sS'//t.co/7cehwjo1xd'
p2333
I1
sS'mobile-'
p2334
I2
sS'//t.co/hnzoc0xi0q'
p2335
I1
sS'//t.co/qz2fw6gbay'
p2336
I1
sS'low-interest'
p2337
I1
sS'//t.co/gu206fs0bg'
p2338
I1
sS'//t.co/qlmggikujt'
p2339
I1
sS'during'
p2340
I2
sS'workouts'
p2341
I1
sS'pochettino'
p2342
I1
sS'freaky'
p2343
I1
sS'gloves'
p2344
I1
sS'x'
p2345
I8
sS'//t.co/swwvr39e0l'
p2346
I1
sS'smoothitoveruk'
p2347
I1
sS'//t.co/gqj7sgun5b'
p2348
I1
sS'//t.co/859vaclawu'
p2349
I1
sS'25gunsofchristmas'
p2350
I1
sS'yellamonroe'
p2351
I1
sS'pictures'
p2352
I6
sS'wow'
p2353
I1
sS'//t.co/39b9ivsl9f'
p2354
I1
sS'won'
p2355
I1
sS'probably'
p2356
I2
sS'piss'
p2357
I1
sS'missing'
p2358
I1
sS'//t.co/zd3i9uxzle'
p2359
I1
sS'spray'
p2360
I1
sS'followers/day'
p2361
I1
sS'both'
p2362
I1
sS'313-270-4253'
p2363
I1
sS'secrets'
p2364
I3
sS'buzz'
p2365
I1
sS'bots'
p2366
I1
sS'liked'
p2367
I1
sS'//t.co/rf9eudtklq'
p2368
I1
sS'tv603'
p2369
I1
sS'likes'
p2370
I7
sS'schlozo'
p2371
I1
sS'ch894'
p2372
I1
sS'camuto'
p2373
I1
sS'beispiel'
p2374
I1
sS'regroup'
p2375
I1
sS'//t.co/q8rwmsvsu8'
p2376
I1
sS'//t.co/bdmc9traky'
p2377
I1
sS'else'
p2378
I1
sS'lives'
p2379
I1
sS'softcarmen'
p2380
I1
sS'5er'
p2381
I2
sS'look'
p2382
I12
sS'opportunity.'
p2383
I1
sS'f250'
p2384
I4
sS'bikini'
p2385
I14
sS'smart'
p2386
I1
sS'//t.co/cxndkdp8fm'
p2387
I1
sS'animated'
p2388
I1
sS'guide'
p2389
I1
sS'pack'
p2390
I7
sS'//t.co/xsulqobyp8'
p2391
I1
sS'ibukota'
p2392
I1
sS'wiiudaily'
p2393
I1
sS'kroger'
p2394
I1
sS'//t.co/37xk8ujrfs'
p2395
I1
sS'//t.co/e3v4gmpg0w'
p2396
I1
sS'skype'
p2397
I1
sS'ready'
p2398
I1
sS'lagar'
p2399
I1
sS'getfrush'
p2400
I1
sS'albany'
p2401
I1
sS'shaw'
p2402
I1
sS'//t.co/l22pasznxc'
p2403
I1
sS'//t.co/a61pcfastn'
p2404
I1
sS'//t.co/qrprjgqpx9'
p2405
I1
sS'grand'
p2406
I3
sS'cumming'
p2407
I1
sS'used'
p2408
I18
sS'narb32321'
p2409
I1
sS'bonus'
p2410
I14
sS'ch297'
p2411
I1
sS'overweight'
p2412
I2
sS'//t.co/2ujawcphyx'
p2413
I1
sS'cleaning'
p2414
I3
sS'//t.co/rqmrekhyxy'
p2415
I1
sS'older'
p2416
I1
sS'pureblisspromo'
p2417
I1
sS'kaeli_day'
p2418
I1
sS'igossip2u'
p2419
I9
sS'//t.co/6tg81e7wn5'
p2420
I1
sS'markredfern2'
p2421
I1
sS'//t.co/u9dvizuwco'
p2422
I1
sS'techinques'
p2423
I1
sS'retirement'
p2424
I1
sS'$'
p2425
I67
sS'guaranteed'
p2426
I1
sS'//t.co/5xv2gdf7hq'
p2427
I1
sS'01383'
p2428
I1
sS'//t.co/3qcjhx06pf'
p2429
I1
sS'remaining'
p2430
I2
sS'...'
p2431
I12
sS'//t.co/v5klhegdpu'
p2432
I1
sS'showing'
p2433
I2
sS'simondsnicola'
p2434
I1
sS'game'
p2435
I4
sS'thorntonschocs'
p2436
I1
sS'bukan'
p2437
I1
sS'popular'
p2438
I1
sS'johnwoodart'
p2439
I1
sS'some'
p2440
I18
sS'lips'
p2441
I2
sS'economic'
p2442
I1
sS'mmmmm'
p2443
I1
sS'//t.co/p0vts3nxme'
p2444
I1
sS'//t.co/bm8hjxzl14'
p2445
I1
sS'rug'
p2446
I2
sS'step'
p2447
I10
sS'2/2'
p2448
I1
sS'faith'
p2449
I1
sS'handbags'
p2450
I1
sS'//t.co/3pijdvpztf'
p2451
I1
sS'betfair'
p2452
I2
sS'75'
p2453
I1
sS'banjarnegara'
p2454
I2
sS'sponsored'
p2455
I1
sS'//t.co/adl4d5cmbw'
p2456
I1
sS'silence'
p2457
I1
sS'miracles'
p2458
I1
sS'oliversweney'
p2459
I1
sS'pero'
p2460
I1
sS'ch661'
p2461
I1
sS'//t.co/w3gxaqnnbg'
p2462
I1
sS'//t.co/kvr1te0lug'
p2463
I1
sS'14.12'
p2464
I1
sS'//t.co/lsmxv5znlf'
p2465
I1
sS'tv160'
p2466
I1
sS'..'
p2467
I16
sS'therealmakmilli'
p2468
I2
sS'intros-fl'
p2469
I1
sS'//t.co/ub8gw25vq5'
p2470
I1
sS'ch400'
p2471
I1
sS'deliciosa'
p2472
I1
sS'tv292'
p2473
I1
sS'swagger'
p2474
I2
sS'vacancies'
p2475
I1
sS'//t.co/ggrow8on0k'
p2476
I1
sS'chelsea'
p2477
I2
sS'uber'
p2478
I1
sS'adults'
p2479
I3
sS'//t.co/n'
p2480
I1
sS'//t.co/j'
p2481
I1
sS'doesn'
p2482
I3
sS'//t.co/t'
p2483
I2
sS'//t.co/r'
p2484
I1
sS'amounts'
p2485
I1
sS'fears'
p2486
I1
sS'//t.co/gaq4tflef9'
p2487
I1
sS'electrical'
p2488
I2
sS'smellcometomanhood'
p2489
I1
sS'04-12-2014'
p2490
I1
sS'freegame'
p2491
I1
sS'b/c'
p2492
I1
sS'//t.co/xaiiddpmu1'
p2493
I1
sS'draw'
p2494
I2
sS'yonanas'
p2495
I1
sS'welcome2yorks'
p2496
I1
sS'william'
p2497
I2
sS'afterword'
p2498
I1
sS'//t.co/3'
p2499
I1
sS'//t.co/cjdbesw6cf'
p2500
I1
sS'//t.co/nwf9mupv0q'
p2501
I1
sS'smutfanatic'
p2502
I5
sS'e'
p2503
I4
sS'linensource'
p2504
I2
sS'required'
p2505
I5
sS'youtube'
p2506
I31
sS'//t.co/a5x7ez'
p2507
I1
sS'newvideo'
p2508
I1
sS'gt'
p2509
I285
sS'//t.co/hmztmetycm'
p2510
I3
sS'gf'
p2511
I3
sS'gd'
p2512
I1
sS'gc'
p2513
I1
sS'gb'
p2514
I1
sS'sbaexpress'
p2515
I1
sS'go'
p2516
I13
sS'tweeted'
p2517
I1
sS'//t.co/4jgurw8eoh'
p2518
I1
sS'birthplace'
p2519
I1
sS'theperfumeshop'
p2520
I1
sS'gift-a-day'
p2521
I1
sS'suits'
p2522
I1
sS'//t.co/jumpsdpdsa'
p2523
I1
sS'kcm'
p2524
I1
sS'facebook'
p2525
I31
sS'//t.co/f5oovozmrm'
p2526
I1
sS'//t.co/dvlonu7jus'
p2527
I4
sS'booty'
p2528
I6
sS'//t.co/dvpm0h727c'
p2529
I1
sS'boots'
p2530
I2
sS'jump'
p2531
I2
sS'download'
p2532
I1
sS'click'
p2533
I329
sS'plays'
p2534
I4
sS'//t.co/np7h2gijjs'
p2535
I1
sS'youtube.'
p2536
I23
sS'sangria'
p2537
I1
sS'cell'
p2538
I9
sS'//t.co/mn6bcfru6r'
p2539
I1
sS'//t.co/dqvsrplsyo'
p2540
I1
sS';'
p2541
I458
sS'//t.co/32869d9zrn'
p2542
I1
sS'commercial'
p2543
I4
sS'sexyvenezuela'
p2544
I1
sS'products'
p2545
I10
sS'//t.co/iqhrvychee'
p2546
I1
sS'clark'
p2547
I1
sS'win'
p2548
I260
sS'//t.co/vryhgmt2pq'
p2549
I1
sS'12daysofsweeney'
p2550
I5
sS'//t.co/nxiwn0wujo'
p2551
I1
sS'emabiggestfans1d'
p2552
I1
sS'cloud'
p2553
I1
sS'//t.co/qzf6vdykhx'
p2554
I1
sS'crap'
p2555
I1
sS'camera'
p2556
I3
sS'cram'
p2557
I1
sS'1/2'
p2558
I1
sS'wodrepairlotion'
p2559
I1
sS'incredible..'
p2560
I1
sS'//t.co/ohaosb7qrp'
p2561
I1
sS'whisky'
p2562
I1
sS'jsoriano21'
p2563
I1
sS'//t.co/bzgf5ra5bi'
p2564
I1
sS'announcing'
p2565
I1
sS'bookiebashers'
p2566
I1
sS'salah'
p2567
I1
sS'meet'
p2568
I3
sS'lilinhaangel'
p2569
I2
sS'speciality'
p2570
I1
sS'links'
p2571
I3
sS'halloween'
p2572
I1
sS'atriaindies'
p2573
I2
sS'//t.co/dsjjb8j3va'
p2574
I1
sS'documenting'
p2575
I1
sS'//t.co/nkvwifjaeo'
p2576
I1
sS'belum'
p2577
I1
sS'chevrolet'
p2578
I3
sS'carsoncity'
p2579
I1
sS'//t.co/wjkor02t5g'
p2580
I2
sS'isexypod'
p2581
I1
sS'//t.co/jspsxhj0pz'
p2582
I1
sS'cuminside'
p2583
I1
sS'fiftyfancg'
p2584
I1
sS'//t.co/w71n1viaov'
p2585
I1
sS'scoop'
p2586
I1
sS'about..'
p2587
I2
sS'//t.co/ivvkhxisqa'
p2588
I1
sS'//t.co/jheahxgt6l'
p2589
I1
sS'djhsuper_djha'
p2590
I14
sS'bathing'
p2591
I1
sS'fresno'
p2592
I1
sS'including'
p2593
I1
sS'ch343'
p2594
I1
sS'brittle'
p2595
I1
sS'//t.co/6u5nvtcshg'
p2596
I1
sS'//t.co/gnbeubtmpa'
p2597
I1
sS'send'
p2598
I1
sS'sunday'
p2599
I3
sS'emails'
p2600
I1
sS'//t.co/2wdapadtz9'
p2601
I1
sS'yahhh'
p2602
I1
sS'hands'
p2603
I1
sS'front'
p2604
I2
sS'//t.co'
p2605
I5
sS'early-stage'
p2606
I1
sS'nlpantyhose'
p2607
I1
sS'mode'
p2608
I2
sS'mufc'
p2609
I3
sS'|'
p2610
I4
sS'freepoker'
p2611
I4
sS'be_wine_uk'
p2612
I1
sS'bluetooth'
p2613
I3
sS'essentialfact'
p2614
I1
sS'special'
p2615
I8
sS'//t.co/h3caypy9ts'
p2616
I1
sS'entertainment'
p2617
I2
sS'//t.co/5xpadjw9ql'
p2618
I1
sS'colourinvasion'
p2619
I1
sS'//t.co/cedagnipuv'
p2620
I1
sS'//t.co/ygk6h1oyx9'
p2621
I4
sS'//t.co/wkvryz1fwy'
p2622
I1
sS'//t.co/jdmntmelbe'
p2623
I1
sS'//t.co/akwjfg8r6k'
p2624
I1
sS'//t.co/gkhvdxjxwl'
p2625
I1
sS'benecosuk'
p2626
I1
sS'completely'
p2627
I5
sS'celtics'
p2628
I1
sS'princess'
p2629
I1
sS'drowning'
p2630
I1
sS'florida'
p2631
I1
sS'mac'
p2632
I1
sS'times'
p2633
I1
sS'timed'
p2634
I1
sS'powerful'
p2635
I1
sS'nodeposit'
p2636
I5
sS'//t.co/ltao1allji'
p2637
I1
sS'bitch'
p2638
I3
sS'//t.co/3xqxud9ueu'
p2639
I1
sS'quality'
p2640
I1
sS'//t.co/w9k9kewurc'
p2641
I1
sS'bears'
p2642
I1
sS'sepakat'
p2643
I1
sS'tyon'
p2644
I1
sS'adopted'
p2645
I1
sS'grow'
p2646
I4
sS'dessau'
p2647
I1
sS'//t.co/oh6n6hylsu'
p2648
I1
sS'perfectly'
p2649
I1
sS'final'
p2650
I1
sS'pisswhore'
p2651
I1
sS'hoyer'
p2652
I1
sS'craziest'
p2653
I9
sS'14/12/2014'
p2654
I2
sS'kitchenscook'
p2655
I1
sS'//t.co/do7e6gliog'
p2656
I3
sS'lists'
p2657
I1
sS'//t.co/3p1jpbchou'
p2658
I1
sS'photogenic'
p2659
I1
sS'bed'
p2660
I3
sS'//t.co/urodsqbpxy'
p2661
I2
sS'probiotics'
p2662
I1
sS'spurs'
p2663
I2
sS'//t.co/21b4jtqqo1'
p2664
I1
sS'lipstickcurls'
p2665
I1
sS'tyfrt'
p2666
I1
sS'19-11-2014'
p2667
I1
sS'goodie'
p2668
I1
sS'need'
p2669
I20
sS'beefy'
p2670
I1
sS'fuel.'
p2671
I1
sS'//t.co/uzhk7cng85'
p2672
I1
sS'truck'
p2673
I7
sS'//t.co/lsdy4rywkt'
p2674
I1
sS'plugging'
p2675
I1
sS'thorns'
p2676
I2
sS'montana'
p2677
I1
sS'gallery'
p2678
I2
sS'folgers'
p2679
I1
sS'//t.co/jchuj2qifl'
p2680
I20
sS'photogrid'
p2681
I1
sS'perkyjerky'
p2682
I1
sS'gaspack'
p2683
I1
sS'//t.co/aczfvrulw0'
p2684
I1
sS'//t.co/uwnbitktbv'
p2685
I1
sS'12d'
p2686
I1
sS'//t.co/wo46tvhhyh'
p2687
I2
sS'earned'
p2688
I1
sS'('
p2689
I77
sS'winner'
p2690
I13
sS'brighten'
p2691
I1
sS'//t.co/onmau5etqk'
p2692
I1
sS'fuel'
p2693
I2
sS'count'
p2694
I1
sS'poccaxx75'
p2695
I1
sS'hope4siblings'
p2696
I2
sS'tv812'
p2697
I1
sS'//t.co/qpjbboqamn'
p2698
I1
sS'//t.co/yluttrolc2'
p2699
I1
sS'3rdalarm69'
p2700
I1
sS'trucks'
p2701
I5
sS'//t.co/iqd1lpjmut'
p2702
I1
sS'tuned'
p2703
I1
sS'memanfaatkan'
p2704
I1
sS'she'
p2705
I8
sS'grab'
p2706
I3
sS'//t.co/hbef45ovjj'
p2707
I2
sS'weeatquotess'
p2708
I3
sS'shake'
p2709
I1
sS'driveway'
p2710
I1
sS'//t.co/5wlxttlaku'
p2711
I1
sS'stats'
p2712
I1
sS'written'
p2713
I2
sS'lug'
p2714
I3
sS'philbin'
p2715
I1
sS'//t.co/8mshhpcjwp'
p2716
I1
sS'key'
p2717
I1
sS'group'
p2718
I9
sS'//t.co/hl5ayxjack'
p2719
I1
sS'aqui'
p2720
I1
sS'//t.co/zjylfnzhjt'
p2721
I1
sS'275/65r20'
p2722
I1
sS'//t.co/zli5frujun'
p2723
I1
sS'gitl'
p2724
I1
sS'//t.co/2ge0azlqbi'
p2725
I1
sS'commen'
p2726
I1
sS'yorkshire'
p2727
I1
sS'//t.co/6xg9t4cart'
p2728
I1
sS'treat'
p2729
I1
sS'//t.co/hbcgmzgypk'
p2730
I1
sS'//t.co/3xwbltiqhc'
p2731
I1
sS'vince'
p2732
I1
sS'//t.co/dcxjdwbkrf'
p2733
I1
sS'netanyahu'
p2734
I1
sS'kicks'
p2735
I1
sS'smoking'
p2736
I1
sS'brunch'
p2737
I1
sS'garmin'
p2738
I1
sS'//t.co/86bviomrmr'
p2739
I1
sS'758-1020'
p2740
I1
sS'harden'
p2741
I1
sS'gucci'
p2742
I1
sS'tmj_ctn_nursing'
p2743
I1
sS'//t.co/giwt13wnib'
p2744
I1
sS'//t.co/ojh5aokjla'
p2745
I1
sS'//t.co/mkhb4deqva'
p2746
I1
sS'bucks'
p2747
I3
sS'wks'
p2748
I1
sS'//t.co/c8fafw9ugv'
p2749
I1
sS'//t.co/p35pjkitbd'
p2750
I1
sS'//t.co/8dqbqaoq9z'
p2751
I1
sS'views'
p2752
I2
sS'speaker'
p2753
I4
sS'party'
p2754
I1
sS'//t.co/wr0shcr6ia'
p2755
I1
sS'_nativemisfit'
p2756
I1
sS'http'
p2757
I1925
sS'//t.co/h6lc2hagtz'
p2758
I1
sS'//t.co/hnq2ebpuvb'
p2759
I1
sS'invisionapp'
p2760
I3
sS'kojoshow'
p2761
I2
sS'horny_angela'
p2762
I1
sS'spree'
p2763
I2
sS'//'
p2764
I9
sS'welc'
p2765
I1
sS'i'
p2766
I175
sS'//t.co/3nsaq5pmto'
p2767
I1
sS'well'
p2768
I4
sS"'my"
p2769
I1
sS'increasingly'
p2770
I1
sS'accurate'
p2771
I1
sS'tweadvent'
p2772
I1
sS'mistakes'
p2773
I1
sS'40'
p2774
I7
sS'fulltiltpoker'
p2775
I1
sS'aldiusa'
p2776
I1
sS'//t.co/qlpsopmsie'
p2777
I1
sS'//t.co/lfpjymz8kt'
p2778
I1
sS'thewalkingdead'
p2779
I1
sS'loss'
p2780
I8
sS'lincoln'
p2781
I1
sS'glazing'
p2782
I1
sS'lost'
p2783
I2
sS'4-door'
p2784
I2
sS'lose'
p2785
I26
sS'page'
p2786
I5
sS'shed'
p2787
I1
sS'//t.co/fnceamkh6t'
p2788
I1
sS'twitter'
p2789
I24
sS'//t.co/9rbzm3pgdm'
p2790
I2
sS'ssundee'
p2791
I1
sS'home'
p2792
I11
sS'//t.co/eybxwfu8yw'
p2793
I1
sS'dekat'
p2794
I1
sS'karakter'
p2795
I1
sS'//t.co/kjlo2mickp'
p2796
I1
sS'denali'
p2797
I3
sS'thickass'
p2798
I3
sS'//t.co/4lb8574mfw'
p2799
I1
sS'wendy'
p2800
I1
sS'sweepstakes'
p2801
I9
sS'?'
p2802
I165
sS'puedo'
p2803
I1
sS'//t.co/wkpb0gflke'
p2804
I1
sS'//t.co/ka4dcmib9a'
p2805
I4
sS'rock'
p2806
I1
sS'pujian'
p2807
I1
sS'freetips'
p2808
I1
sS'3500'
p2809
I2
sS'//t.co/gi4iewletg'
p2810
I1
sS'muda'
p2811
I1
sS'scented'
p2812
I1
sS'spongecakesltd'
p2813
I1
sS'cocoa'
p2814
I1
sS'//t.co/ta4rfeauur'
p2815
I1
sS'utility'
p2816
I1
sS'//t.co/fxriqquaba'
p2817
I1
sS'//t.co/mp6bozj9ux'
p2818
I1
sS'noticed'
p2819
I1
sS'inspiration'
p2820
I1
sS'north'
p2821
I1
sS'//t.co/vf4ehi9xbe'
p2822
I1
sS'hs'
p2823
I1
sS'hp'
p2824
I1
sS'ht'
p2825
I8
sS'mufclive'
p2826
I1
sS'hi'
p2827
I5
sS'goals'
p2828
I4
sS'blindedbylust'
p2829
I1
sS'ha'
p2830
I2
sS'eat'
p2831
I3
sS'hd'
p2832
I2
sS'he'
p2833
I12
sS'//t.co/bxvan57ngr'
p2834
I1
sS'//t.co/ndiqoolrqp'
p2835
I1
sS'hosting'
p2836
I1
sS'piece'
p2837
I3
sS'//t.co/z61sclmjsg'
p2838
I1
sS'penny'
p2839
I1
sS'beats'
p2840
I6
sS'triciawdc'
p2841
I2
sS'//t.co/v6ufkui0cc'
p2842
I1
sS'//t.co/dhgff5ye3y'
p2843
I1
sS'contest'
p2844
I5
sS'//t.co/qtovr5i6af'
p2845
I1
sS'//t.co/2t1t'
p2846
I1
sS'//t.co/zqapfwdfsf'
p2847
I1
sS'//t.co/7k4us1elnj'
p2848
I1
sS'febreeze'
p2849
I1
sS'notre-dame'
p2850
I1
sS'//t.co/xbefkqkm0d'
p2851
I1
sS'stay'
p2852
I3
sS'//t.co/yavc9o40ii'
p2853
I1
sS'nintendo'
p2854
I1
sS'friends'
p2855
I4
sS'18-11-2014'
p2856
I1
sS'davidstowcheese'
p2857
I1
sS'//t.co/ozaxte1wk7'
p2858
I1
sS'mr_ikeepitreal'
p2859
I1
sS'sportsbets'
p2860
I1
sS'//t.co/h6nvcneurq'
p2861
I4
sS'trenton'
p2862
I1
sS'whoops'
p2863
I3
sS'nottingham'
p2864
I21
sS'asian'
p2865
I2
sS'//t.co/6vhc00gfr5'
p2866
I1
sS'6pm'
p2867
I1
sS'//t.co/huiuwk9fu8'
p2868
I1
sS'//t.co/l7ah0brx26'
p2869
I1
sS'//t.co/uuop2hd8tv'
p2870
I1
sS'sorry'
p2871
I2
sS'up1'
p2872
I1
sS'sierraluvxxx'
p2873
I1
sS'crayola'
p2874
I1
sS'ruangmp3com'
p2875
I15
sS'//t.co/xeka9rztb4'
p2876
I1
sS'companies'
p2877
I1
sS'solution'
p2878
I2
sS'alannathomas'
p2879
I2
sS'ch625'
p2880
I1
sS'clothes'
p2881
I1
sS'10k'
p2882
I1
sS'//t.co/fjimsb5jk4'
p2883
I1
sS'//t.co/46p6hb4ur8'
p2884
I1
sS'likely'
p2885
I1
sS'//t.co/bbvhs5qxme'
p2886
I1
sS'even'
p2887
I2
sS'johnndibello'
p2888
I3
sS'//t.co/iayri2jozd'
p2889
I1
sS'nec'
p2890
I3
sS'//t.co/z8f2mafx1w'
p2891
I1
sS'lights'
p2892
I3
sS'//t.co/twev6yge9h'
p2893
I1
sS'new'
p2894
I105
sS'tips'
p2895
I10
sS'ever'
p2896
I5
sS'kevinharvick'
p2897
I2
sS'never'
p2898
I12
sS'active'
p2899
I1
sS'100'
p2900
I17
sS'//t.co/bi1u0vcqfn'
p2901
I1
sS'clink_dc'
p2902
I2
sS'//t.co/rwupnu5uuz'
p2903
I1
sS'credit'
p2904
I10
sS'luigidario1o'
p2905
I1
sS'//t.co/wyyasufgfh'
p2906
I1
sS'wisewordbook'
p2907
I3
sS'//t.co/0gijz7jk0h'
p2908
I1
sS'fantastic'
p2909
I2
sS'//t.co/ybtlgiazn3'
p2910
I3
sS'//t.co/uhzmkiybmd'
p2911
I1
sS'men..my'
p2912
I1
sS'staylnshape'
p2913
I8
sS'12/24'
p2914
I1
sS'call'
p2915
I10
sS'bdsm'
p2916
I1
sS'recommend'
p2917
I1
sS'type'
p2918
I1
sS'tell'
p2919
I3
sS'smashbox'
p2920
I1
sS'pengawal'
p2921
I1
sS'wars'
p2922
I1
sS'sudocrem'
p2923
I1
sS'//t.co/1mdqnijabv'
p2924
I1
sS'rights'
p2925
I2
sS'//t.co/yljjte4qt0'
p2926
I1
sS'movies'
p2927
I1
sS'//t.co/htbos15nm8'
p2928
I1
sS'//t.co/j1rz7ujmrd'
p2929
I1
sS'squirting'
p2930
I10
sS'give'
p2931
I4
sS'osquieroatodas'
p2932
I1
sS'honey'
p2933
I1
sS'10,000'
p2934
I4
sS'foods'
p2935
I1
sS'//t.co/pphtcrxwlz'
p2936
I1
sS'//t.co/0ojgege1bg'
p2937
I1
sS'amazing'
p2938
I17
sS'answer'
p2939
I3
sS'//t.co/ggodflchsl'
p2940
I1
sS'foundbae'
p2941
I1
sS'loyalty'
p2942
I2
sS'president'
p2943
I2
sS'purchase'
p2944
I11
sS'daisyoutdoors'
p2945
I1
sS'athletes'
p2946
I1
sS'fifa'
p2947
I3
sS'deck'
p2948
I1
sS'helena'
p2949
I1
sS'//t.co/dqhhgas0ep'
p2950
I5
sS'before'
p2951
I13
sS'personal'
p2952
I4
sS','
p2953
I300
sS'crew'
p2954
I2
sS'better'
p2955
I6
sS'danielleorama'
p2956
I1
sS'//t.co/m0njbcha49'
p2957
I1
sS'weeks'
p2958
I8
sS'adr0smusic'
p2959
I1
sS'//t.co/ocsuvoj7bj'
p2960
I1
sS'sounds4work'
p2961
I1
sS'workout'
p2962
I2
sS'therapy'
p2963
I1
sS'indulge'
p2964
I1
sS'siraj4pakistan'
p2965
I1
sS'weenie'
p2966
I1
sS'decorator'
p2967
I1
sS'04982'
p2968
I1
sS'arrested'
p2969
I2
sS'//t.co/kfconmsenu'
p2970
I1
sS'bourjois_uk'
p2971
I1
sS'americans'
p2972
I4
sS'meal'
p2973
I1
sS'1887-1889'
p2974
I1
sS'luck'
p2975
I7
sS'milan'
p2976
I1
sS'trading'
p2977
I1
sS'//t.co/istofydy6a'
p2978
I1
sS'stealing'
p2979
I1
sS'velvet'
p2980
I1
sS'//t.co/aww1olcont'
p2981
I1
sS'//t.co/nhw4i3bazr'
p2982
I1
sS'cutest'
p2983
I1
sS'liaqatbalochji'
p2984
I1
sS'245'
p2985
I1
sS'mistress'
p2986
I1
sS'triple-double'
p2987
I1
sS'starts'
p2988
I3
sS'//t.co/mqxaqbaptl'
p2989
I1
sS'//t.co/6ommg6q6cj'
p2990
I1
sS'naughty'
p2991
I3
sS'features'
p2992
I2
sS'unfollowed'
p2993
I2
sS'//t.co/ok4qor2tfw'
p2994
I1
sS'now-husband'
p2995
I1
sS'//t.co/q98gaueyzy'
p2996
I1
sS'//t.co/g1azpprrem'
p2997
I1
sS'assortment'
p2998
I1
sS'hood'
p2999
I1
sS'//t.co/pqyhsjfldo'
p3000
I1
sS'girls'
p3001
I23
sS'//t.co/6qhfhczlwk'
p3002
I1
sS'//t.co/t2qaz4ozzg'
p3003
I1
sS'sirajofficial'
p3004
I1
sS'gym'
p3005
I1
sS'tokens'
p3006
I1
sS'setiap'
p3007
I1
sS'//t.co/divs34wiuw'
p3008
I1
sS'//t.co/sjmqbk05as'
p3009
I1
sS'mattea'
p3010
I1
sS'matter'
p3011
I1
sS'silly'
p3012
I1
sS'//t.co/ehmu24aczv'
p3013
I1
sS'mini'
p3014
I2
sS'sees'
p3015
I1
sS'mind'
p3016
I5
sS'yachts'
p3017
I1
sS'ty4'
p3018
I2
sS'seen'
p3019
I2
sS'seek'
p3020
I1
sS'4x4'
p3021
I23
sS'love+life'
p3022
I1
sS'.thank'
p3023
I20
sS'panties'
p3024
I1
sS'//t.co/tbjd5oi45w'
p3025
I1
sS'koke'
p3026
I1
sS'//t.co/2fxjctm94q'
p3027
I1
sS'powershot'
p3028
I1
sS'//t.co/oukmry4ocz'
p3029
I1
sS'richmindedmusic'
p3030
I1
sS'maria'
p3031
I1
sS'//t.co/j5qfq4uipa'
p3032
I1
sS'm'
p3033
I2
sS'dog'
p3034
I1
sS'beaten'
p3035
I1
sS'//t.co/7fegg8szrn'
p3036
I1
sS'//t.co/2dxzetid5p'
p3037
I1
sS'//t.co/isi5uptzlm'
p3038
I1
sS'slutsheaven'
p3039
I1
sS'legsandheels71'
p3040
I1
sS'12days'
p3041
I1
sS'26-11-2014'
p3042
I1
sS'weekends'
p3043
I1
sS'//t.co/i61d5mlxpi'
p3044
I1
sS'field.'
p3045
I1
sS'folks'
p3046
I1
sS'worthavegroup'
p3047
I2
sS'monica'
p3048
I6
sS'tiles'
p3049
I1
sS'stop'
p3050
I11
sS'//t.co/i50amdus6z'
p3051
I1
sS'taya51111'
p3052
I1
sS'earn'
p3053
I3
sS'gt70'
p3054
I1
sS'//t.co/clchyg5yft'
p3055
I1
sS'reload'
p3056
I1
sS'bad'
p3057
I6
sS'seeks'
p3058
I1
sS'//t.co/nqpejjsf2c'
p3059
I2
sS'ears'
p3060
I1
sS'sonal_2'
p3061
I1
sS'said'
p3062
I3
sS'picthall_gunzi'
p3063
I1
sS'artificial'
p3064
I1
sS'//t.co/ks851ljz5l'
p3065
I1
sS'merrychristmas'
p3066
I1
sS'shaver'
p3067
I1
sS'//t.co/0cowoccbax'
p3068
I2
sS'//t.co/u6oplcvh1r'
p3069
I1
sS'lazy'
p3070
I1
sS'omg'
p3071
I4
sS'ddhotcocoasweeps'
p3072
I1
sS'//t.co/ulklqg030t'
p3073
I1
sS'ethel'
p3074
I1
sS'//t.co/blynjuz9de'
p3075
I1
sS'//t.co/gizsbbmirl'
p3076
I1
sS'//t.co/ai3kk1bz51'
p3077
I1
sS'path'
p3078
I1
sS'//t.co/ieldbiod8a'
p3079
I1
sS'musclepr0ducts'
p3080
I10
sS'//t.co/qynqy57pkf'
p3081
I1
sS'three'
p3082
I1
sS'tiny'
p3083
I1
sS'cyrus'
p3084
I2
sS'entered'
p3085
I55
sS'lovely'
p3086
I2
sS'//t.co/nbwyopz8gn'
p3087
I1
sS'//t.co/bjaks8evij'
p3088
I1
sS'//t.co/74awdawlcc'
p3089
I1
sS'fotografie'
p3090
I19
sS'surfdome'
p3091
I1
sS'deborahdian'
p3092
I1
sS'13-11-2014'
p3093
I1
sS'teamfollowback'
p3094
I1
sS'//t.co/tihpuorn75'
p3095
I1
sS'//t.co/uffit6snhl'
p3096
I1
sS'is'
p3097
I103
sS'it'
p3098
I173
sS'in'
p3099
I129
sS'bet365'
p3100
I2
sS'ig'
p3101
I1
sS'if'
p3102
I27
sS'lokeyduckedoff'
p3103
I1
sS'bottles'
p3104
I6
sS'make'
p3105
I21
sS'meets'
p3106
I3
sS'unlimited'
p3107
I1
sS'//t.co/c8kmzd9tnm'
p3108
I1
sS'kit'
p3109
I2
sS'garlic'
p3110
I1
sS'//t.co/ainupid0vd'
p3111
I1
sS'opportunity'
p3112
I8
sS'//t.co/dpvxjhf2q2'
p3113
I1
sS'kid'
p3114
I1
sS'80+'
p3115
I1
sS'smokey'
p3116
I1
sS'freecashhttp'
p3117
I1
sS'//t.co/0dzkl4lqq1'
p3118
I1
sS'directly'
p3119
I1
sS'smoked'
p3120
I1
sS'left'
p3121
I2
sS'just'
p3122
I111
sS'sporting'
p3123
I1
sS'//t.co/ldipgnr6ip'
p3124
I1
sS'fighters'
p3125
I1
sS'kikocosmeticsuk'
p3126
I1
sS'bigflacpro'
p3127
I1
sS'facts'
p3128
I3
sS'yep'
p3129
I1
sS'yes'
p3130
I2
sS'nascarhall'
p3131
I1
sS'cohorted'
p3132
I1
sS'yet'
p3133
I4
sS'buyers'
p3134
I1
sS'//t.co/5ldg1p2u8c'
p3135
I1
sS'//t.co/jegdyrvdky'
p3136
I1
sS'save'
p3137
I6
sS'//t.co/sxgcsbmhrx'
p3138
I1
sS'discreet'
p3139
I1
sS'jsfashionista'
p3140
I1
sS'//t.co/nrj8wiuih0'
p3141
I1
sS'dreams'
p3142
I1
sS'nude'
p3143
I11
sS'//t.co/ehk4u20jmv'
p3144
I3
sS'pasion'
p3145
I1
sS'www'
p3146
I1
sS'deal'
p3147
I11
sS'//t.co/ilm5gx89ga'
p3148
I1
sS'micwil'
p3149
I1
sS'hagglunds'
p3150
I1
sS'//t.co/shb3rtojm9'
p3151
I20
sS'09-12-2014'
p3152
I1
sS'//t.co/qvipzapdkv'
p3153
I1
sS'knew'
p3154
I3
sS'//t.co/jqdh2ktcys'
p3155
I1
sS'plow'
p3156
I3
sS'keeper'
p3157
I1
sS'super'
p3158
I5
sS'sinkler'
p3159
I1
sS'//t.co/hmi3vcgugz'
p3160
I1
sS'would'
p3161
I14
sS'magazine'
p3162
I1
sS'//t.co/5szm58onow'
p3163
I1
sS'zum'
p3164
I1
sS'whats'
p3165
I1
sS'subs'
p3166
I1
sS'info.'
p3167
I1
sS'selfie'
p3168
I9
sS'//t.co/eldh5mau9n'
p3169
I1
sS'down'
p3170
I6
sS'lies'
p3171
I2
sS'mixali_mph'
p3172
I1
sS'//t.co/ifhs3kunfx'
p3173
I1
sS'kerahkan'
p3174
I1
sS'flying'
p3175
I1
sS'//t.co/odgvymjyby'
p3176
I1
sS'ramah'
p3177
I1
sS'batman'
p3178
I1
sS'ford'
p3179
I14
sS'31st'
p3180
I1
sS'surrender'
p3181
I3
sS'streaming'
p3182
I5
sS'laday2727'
p3183
I5
sS'ptoep'
p3184
I1
sS'zara'
p3185
I1
sS'daddy'
p3186
I1
sS'visiondirect'
p3187
I2
sS'sticks'
p3188
I1
sS'//t.co/ukg35yf104'
p3189
I1
sS'muffins'
p3190
I1
sS'shit'
p3191
I2
sS'baddestrebel'
p3192
I1
sS'brianne'
p3193
I1
sS'digital'
p3194
I2
sS'2500'
p3195
I3
sS'//t.co/x8jq6yqizh'
p3196
I1
sS'paulelundquist'
p3197
I1
sS'diet'
p3198
I9
sS'journey'
p3199
I1
sS'//t.co/cvxisgq7g0'
p3200
I1
sS'weekend'
p3201
I6
sS'f-150'
p3202
I4
sS'potato'
p3203
I1
sS'daily'
p3204
I3
sS'stephssexyreads'
p3205
I2
sS'profits'
p3206
I1
sS'managed'
p3207
I1
sS'shoneys12days'
p3208
I1
sS'tnmbiz'
p3209
I1
sS'//t.co/y6x8g0xex2'
p3210
I1
sS'laura'
p3211
I1
sS'skin'
p3212
I1
sS'yummy'
p3213
I1
sS'father'
p3214
I1
sS'blueberryheart1'
p3215
I1
sS'countdown'
p3216
I1
sS'0'
p3217
I1
sS'finally'
p3218
I8
sS'suffered'
p3219
I1
sS'daryl'
p3220
I1
sS'me'
p3221
I47
sS'smartphone'
p3222
I1
sS'tacos'
p3223
I1
sS'//t.co/ffltwkzfb9'
p3224
I20
sS'//t.co/nq7bfx5wyn'
p3225
I1
sS'_markcameron_'
p3226
I1
sS'did'
p3227
I10
sS'dia'
p3228
I2
sS'item'
p3229
I1
sS'//t.co/3voirr3umw'
p3230
I1
sS'dis'
p3231
I1
sS'olympic'
p3232
I1
sS'blackpooladvent'
p3233
I1
sS'rocketfuel_fbg'
p3234
I3
sS'_liesl_'
p3235
I1
sS'saying..'
p3236
I1
sS'eating'
p3237
I1
sS'//t.co/omz09kekxr'
p3238
I1
sS'lennox'
p3239
I1
sS'//t.co/ni'
p3240
I1
sS'//t.co/iboxnqvvtu'
p3241
I1
sS'heres'
p3242
I1
sS'fibre'
p3243
I1
sS'french'
p3244
I2
sS'lakes'
p3245
I1
sS'booteateatox'
p3246
I1
sS'wait'
p3247
I3
sS'box'
p3248
I5
sS'shift'
p3249
I1
sS'lukather1988'
p3250
I1
sS'longsor'
p3251
I1
sS'boi'
p3252
I2
sS'//t.co/h6wyeyvlmc'
p3253
I1
sS'bom'
p3254
I1
sS'//t.co/yulsd6b0ip'
p3255
I1
sS'//t.co/p4whq6qzyp'
p3256
I1
sS'//t.co/rc2adld5hk'
p3257
I1
sS'treasure'
p3258
I1
sS'get50me'
p3259
I1
sS'everybody'
p3260
I1
sS'//t.co/ic97g0m5op'
p3261
I1
sS'visit'
p3262
I10
sS'//t.co/uhuc6vr2jg'
p3263
I1
sS'is..'
p3264
I1
sS'thru'
p3265
I2
sS'sharing'
p3266
I7
sS'freestyle'
p3267
I1
sS'amelia'
p3268
I1
sS'cheryltheg'
p3269
I1
sS'//t.co/wh85b17cmi'
p3270
I1
sS'flw'
p3271
I3
sS'reviews'
p3272
I1
sS'growing'
p3273
I2
sS'making'
p3274
I5
sS'berau'
p3275
I1
sS'claim'
p3276
I4
sS'crazy'
p3277
I1
sS'25-11-2014'
p3278
I1
sS'fuck'
p3279
I1
sS'boxoffice'
p3280
I1
sS'//t.co/jrldb9q7c3'
p3281
I1
sS'//t.co/prfcjzvqy6'
p3282
I1
sS'asean-korea'
p3283
I1
sS'nyx'
p3284
I1
sS'//t.co/o6zluanhe5'
p3285
I1
sS'necklaces'
p3286
I1
sS'bbloggers'
p3287
I1
sS'pure'
p3288
I1
sS'tile'
p3289
I1
sS'nyc'
p3290
I1
sS'rayo'
p3291
I4
sS'map'
p3292
I1
sS'designer'
p3293
I1
sS'emcees'
p3294
I2
sS'may'
p3295
I2
sS'membership'
p3296
I5
sS'designed'
p3297
I43
sS'end'
p3298
I4
sS'guys'
p3299
I2
sS'rickey'
p3300
I1
sS'//t.co/tanus8j5ay'
p3301
I1
sS'man'
p3302
I1
sS'//t.co/pdeylf55mq'
p3303
I2
sS'23:59'
p3304
I1
sS'//t.co/fohsfueive'
p3305
I1
sS'hanukkah'
p3306
I2
sS'maybe'
p3307
I1
sS'//t.co/tqz6x9faoz'
p3308
I1
sS'deposit'
p3309
I11
sS'african'
p3310
I1
sS'basket'
p3311
I1
sS'talk'
p3312
I1
sS'cute'
p3313
I4
sS'shoes'
p3314
I1
sS'cuts'
p3315
I2
sS'jock'
p3316
I1
sS'police'
p3317
I5
sS'thank'
p3318
I12
sS'interesting'
p3319
I2
sS'gen'
p3320
I1
sS'coaching'
p3321
I3
sS'tweets'
p3322
I1
sS'main'
p3323
I1
sS'//t.co/4a58itpywb'
p3324
I1
sS'lunch'
p3325
I1
sS'//t.co/a4nq5gnhgg'
p3326
I6
sS'//t.co/ib0iepemch'
p3327
I1
sS'killed'
p3328
I1
sS'//t.co/hke5czkda2'
p3329
I1
sS'suphak706'
p3330
I1
sS'ecigofferz'
p3331
I2
sS'//t.co/fqgxiopnn9'
p3332
I1
sS'//t.co/lpdae9ocj3'
p3333
I1
sS'mariaperezrm'
p3334
I2
sS'boy+fake'
p3335
I1
sS'poker'
p3336
I16
sS'//t.co/ooiormf7rv'
p3337
I1
sS'//t.co/5rqkxe5ijq'
p3338
I1
sS'girl'
p3339
I10
sS'callmeyoyo007'
p3340
I3
sS'ceti'
p3341
I1
sS'canada'
p3342
I1
sS'//t.co/edvw4015p8'
p3343
I1
sS'goth'
p3344
I1
sS'//t.co/dqwnjzly6v'
p3345
I4
sS'aioli'
p3346
I1
sS'//t.co/usskt6shc7'
p3347
I1
sS'miley'
p3348
I2
sS'//t.co/4jvvfu2gyo'
p3349
I1
sS'//t.co/trzdn42sow'
p3350
I1
sS'//t.co/et0fxoxxdl'
p3351
I1
sS'gelliebeannails'
p3352
I1
sS'headphones'
p3353
I2
sS'xmas'
p3354
I10
sS'thing'
p3355
I2
sS'witchskincare'
p3356
I1
sS'think'
p3357
I9
sS'first'
p3358
I17
sS'cheese'
p3359
I1
sS'//t.co/xzr7jgx8dn'
p3360
I1
sS'rachel'
p3361
I1
sS'//t.co/9v9zyxltap'
p3362
I1
sS'fast'
p3363
I12
sS'sounds'
p3364
I1
sS'//t.co/eauxlljf5b'
p3365
I1
sS'little'
p3366
I2
sS'while'
p3367
I6
sS'anyone'
p3368
I3
sS'1d'
p3369
I1
sS'//t.co/lhm9igz3wp'
p3370
I1
sS'premestateswine'
p3371
I3
sS'eyes'
p3372
I1
sS'watersports'
p3373
I1
sS'//t.co/latribwhpj'
p3374
I1
sS'bobb'
p3375
I2
sS'butt'
p3376
I2
sS'cleanse'
p3377
I6
sS'11'
p3378
I7
sS'10'
p3379
I46
sS'13'
p3380
I14
sS'12'
p3381
I11
sS'15'
p3382
I14
sS'14'
p3383
I9
sS'17'
p3384
I3
sS'16'
p3385
I3
sS'19'
p3386
I1
sS'18'
p3387
I7
sS'//t.co/mjwellvjpq'
p3388
I1
sS'venture'
p3389
I1
sS'were'
p3390
I4
sS'//t.co/8h8sgdht6q'
p3391
I1
sS'//t.co/v5ux5zwz4r'
p3392
I1
sS'marijuana'
p3393
I1
sS'//t.co/bc5ddvq0xu'
p3394
I1
sS'sowithattitude'
p3395
I2
sS'rapgodchain'
p3396
I1
sS'20d'
p3397
I1
sS'kucing'
p3398
I1
sS'//t.co/1f1vbxepql'
p3399
I1
sS'speakers'
p3400
I2
sS'w7makeup'
p3401
I1
sS'potential'
p3402
I4
sS'bets'
p3403
I8
sS'200'
p3404
I4
sS'pain'
p3405
I1
sS'//t.co/hb8heucqrk'
p3406
I1
sS'track'
p3407
I1
sS'traci'
p3408
I1
sS'//t.co/5py6bxef42'
p3409
I1
sS'paid'
p3410
I6
sS'insanity'
p3411
I4
sS'beta'
p3412
I1
sS'pair'
p3413
I5
sS'tracy'
p3414
I1
sS'ladbroks'
p3415
I1
sS'//t.co/nnv7'
p3416
I1
sS'//t.co/bwknyf7hwg'
p3417
I1
sS'shop'
p3418
I23
sS'mtvnews___'
p3419
I1
sS'shot'
p3420
I2
sS'show'
p3421
I10
sS'shoe'
p3422
I1
sS'fitness_heaith'
p3423
I9
sS'bluemoney'
p3424
I2
sS'dick'
p3425
I3
sS'behind'
p3426
I5
sS'capeverdebrotha'
p3427
I1
sS'black'
p3428
I7
sS'stormd'
p3429
I1
sS'sumterscpolice'
p3430
I1
sS'info'
p3431
I2
sS'//t.co/cq6ma1nufn'
p3432
I1
sS'get'
p3433
I114
sS'//t.co/brg6jwrnyd'
p3434
I4
sS'//t.co/x1kkbfs7mz'
p3435
I1
sS'gea'
p3436
I1
sS'nearly'
p3437
I1
sS'welshjrc1984'
p3438
I1
sS'//t.co/xx2j1xxicb'
p3439
I1
sS'reading'
p3440
I2
sS'colossus'
p3441
I1
sS'morning'
p3442
I10
sS'miles'
p3443
I1
sS'modesto'
p3444
I1
sS'//t.co/jcn1ie5w70'
p3445
I1
sS'//t.co/1p54md4ca0'
p3446
I1
sS'//t.co/gyritf73th'
p3447
I1
sS'//t.co/bq68japeya'
p3448
I1
sS'calendar'
p3449
I15
sS'//t.co/ffi9rhtbrb'
p3450
I1
sS'registering'
p3451
I1
sS'ornament'
p3452
I1
sS'label'
p3453
I1
sS'boundaries'
p3454
I1
sS'enough'
p3455
I2
sS'//t.co/dj3ggeeean'
p3456
I1
sS'across'
p3457
I2
sS'//t.co/kfwqs'
p3458
I1
sS'jr'
p3459
I5
sS'05-12-2014'
p3460
I1
sS'15/week'
p3461
I1
sS'tub'
p3462
I1
sS'//t.co/zhz3zvz7yr'
p3463
I1
sS'dates'
p3464
I1
sS'z'
p3465
I1
sS'//t.co/vcfx'
p3466
I1
sS'trades'
p3467
I1
sS'fico'
p3468
I1
sS'tour'
p3469
I2
sS'dki'
p3470
I1
sS'cancer'
p3471
I2
sS'topsquirt'
p3472
I5
sS'like..'
p3473
I2
sS'grants'
p3474
I1
sS'//t.co/khcofsl3p5'
p3475
I1
sS'onedirection'
p3476
I1
sS'mark'
p3477
I20
sS'production'
p3478
I2
sS'//t.co/6nmtynt5l3'
p3479
I1
sS'shopping'
p3480
I4
sS'fitspiration'
p3481
I1
sS'offered'
p3482
I9
sS'laptops'
p3483
I2
sS'wake'
p3484
I1
sS'hisandhers'
p3485
I1
sS'hardcore'
p3486
I3
sS'those'
p3487
I4
sS'timeoutlondon'
p3488
I1
sS'//t.co/0qrgftdmdg'
p3489
I1
sS'//t.co/ugetzzkdci'
p3490
I1
sS'//t.co/1cz4phdpmr'
p3491
I1
sS"n't"
p3492
I46
sS'cumdumpser'
p3493
I1
sS'shopislandhues242'
p3494
I1
sS'cancelled'
p3495
I1
sS'cock'
p3496
I2
sS'//t.co/saw4zttg9e'
p3497
I1
sS'bathe'
p3498
I1
sS'bathrooms'
p3499
I1
sS'coffee'
p3500
I2
sS'sleeping'
p3501
I1
sS'androidauth'
p3502
I2
sS'protein'
p3503
I1
sS'everyday'
p3504
I7
sS'//t.co/b9u1ozande'
p3505
I1
sS'bags'
p3506
I1
sS'different'
p3507
I2
sS'shavedbox'
p3508
I1
sS'pat'
p3509
I1
sS'//t.co/nblfkwvnyq'
p3510
I1
sS'paw'
p3511
I1
sS'cabang'
p3512
I1
sS'pay'
p3513
I1
sS'sama'
p3514
I1
sS'same'
p3515
I4
sS'//t.co/1ryrx7ucnr'
p3516
I1
sS'brian_detrick'
p3517
I1
sS'extended'
p3518
I2
sS'//t.co/wasmjwty23'
p3519
I1
sS'//t.co/usgb6wvy6b'
p3520
I1
sS'running'
p3521
I3
sS'totally'
p3522
I2
sS'drain'
p3523
I1
sS'//t.co/uro8ugv5gb'
p3524
I1
sS'//t.co/ebuowof5cd'
p3525
I1
sS'unusualfactpage'
p3526
I1
sS'//t.co/czvpozf20b'
p3527
I1
sS'bottle'
p3528
I12
sS'//t.co/fqkafauftr'
p3529
I1
sS'//t.co/whtac0yd6x'
p3530
I10
sS'money'
p3531
I9
sS'pissing'
p3532
I1
sS'knitpicks'
p3533
I1
sS'wearall'
p3534
I1
sS'mcdonald'
p3535
I1
sS'soccersaturday'
p3536
I1
sS'4'
p3537
I27
sS'energy..'
p3538
I1
sS'gloom'
p3539
I1
sS'//t.co/yftotccpyc'
p3540
I1
sS'da310'
p3541
I2
sS'f350'
p3542
I4
sS'//t.co/danmaiw6at'
p3543
I1
sS'christina'
p3544
I1
sS'nutellausa'
p3545
I1
sS'venue11'
p3546
I2
sS'-christopher'
p3547
I1
sS"'ve"
p3548
I8
sS'foxhalllondon'
p3549
I3
sS'served'
p3550
I1
sS'//t.co/7iez1pjj7s'
p3551
I1
sS'1:00edt'
p3552
I1
sS'lheartbooty'
p3553
I1
sS'ladbrokes'
p3554
I1
sS'//t.co/kjaem45yae'
p3555
I1
sS'images'
p3556
I9
sS'cabs'
p3557
I1
sS'fitspo'
p3558
I1
sS'//t.co/hxhgq2kh33'
p3559
I1
sS'pioneer'
p3560
I2
sS'//t.co/ugrtt7ody7'
p3561
I1
sS'knife'
p3562
I1
sS'mwah'
p3563
I1
sS'//t.co/c55erolsv3'
p3564
I1
sS'each'
p3565
I2
sS'cheapcigar'
p3566
I12
sS'supportsmallbusinesses'
p3567
I1
sS'corals'
p3568
I1
sS'drmarykaykeller'
p3569
I1
sS'lands'
p3570
I1
sS'whites'
p3571
I1
sS'inbox'
p3572
I3
sS'strip'
p3573
I4
sS'//t.co/vxghhigtbh'
p3574
I1
sS'tabathavargo'
p3575
I2
sS'almigh_trapa'
p3576
I8
sS'madden'
p3577
I1
sS'sikkemajenkins'
p3578
I1
sS'promixx'
p3579
I1
sS'gamegrumps'
p3580
I1
sS'888casino'
p3581
I1
sS'lovesaggyboobs'
p3582
I1
sS'sophisticated'
p3583
I1
sS'gorg'
p3584
I1
sS'spice'
p3585
I1
sS'//t.co/sxsamr29hg'
p3586
I1
sS'romantic'
p3587
I5
sS'ronaldo'
p3588
I1
sS'//t.co/nfnzku15xr'
p3589
I1
sS'//t.co/vnavtvzaiu'
p3590
I1
sS'meetzahid'
p3591
I1
sS'leaked'
p3592
I1
sS'videos'
p3593
I9
sS'deep'
p3594
I2
sS'girlfriend'
p3595
I7
sS'lifetime'
p3596
I1
sS'75_east'
p3597
I1
sS'film'
p3598
I2
sS'fill'
p3599
I3
sS'back.'
p3600
I1
sS'//t.co/0rzelixcog'
p3601
I1
sS'//t.co/xolnipky4v'
p3602
I1
sS'//t.co/4kty6knnvs'
p3603
I1
sS'narcotics'
p3604
I1
sS'//t.co/w0ffemgbhr'
p3605
I1
sS'expatriatetaxes'
p3606
I1
sS'taboolesswhore'
p3607
I1
sS'brands'
p3608
I2
sS'mustreadthis'
p3609
I1
sS'//t.co/m35r2xbkm0'
p3610
I1
sS'u'
p3611
I44
sS'tatara'
p3612
I1
sS'forget'
p3613
I3
sS'//t.co/3slhv5sgnb'
p3614
I1
sS'johnbaird1888'
p3615
I1
sS'andrewarlink'
p3616
I3
sS'liam'
p3617
I1
sS'children'
p3618
I2
sS'emily'
p3619
I1
sS'sexylthings'
p3620
I2
sS'//t.co/g5zmexss9y'
p3621
I1
sS'//t.co/ntarzmb3fx'
p3622
I1
sS'bevy'
p3623
I1
sS'premium'
p3624
I2
sS'promocode'
p3625
I1
sS'pembukaan'
p3626
I1
sS'fall'
p3627
I2
sS'//t.co/9qp7s0scey'
p3628
I1
sS'difference'
p3629
I3
sS'//t.co/yau5bn5gjg'
p3630
I1
sS'combra14'
p3631
I1
sS'//t.co/szoeicyoew'
p3632
I1
sS'//t.co/jbrx58wnux'
p3633
I1
sS'form'
p3634
I1
sS'smoshgames'
p3635
I1
sS'//t.co/mnm6t3rr72'
p3636
I5
sS'//t.co/fewbujwyto'
p3637
I1
sS'roccat'
p3638
I4
sS'grabs'
p3639
I3
sS'knitted'
p3640
I1
sS'burger'
p3641
I1
sS'sexyssbbwlove'
p3642
I1
sS'abc'
p3643
I1
sS'//t.co/qwbii28vj6'
p3644
I1
sS'abr'
p3645
I1
sS'//t.co/tkxaguc6xv'
p3646
I1
sS'theorangecone'
p3647
I2
sS'public'
p3648
I1
sS'tattoos'
p3649
I1
sS'//t.co/yfebxlgwv2'
p3650
I1
sS'5000'
p3651
I2
sS'mule'
p3652
I1
sS'//t.co/aaeoifs504'
p3653
I2
sS'sexyassgirl'
p3654
I1
sS'//t.co/5lbqcy2llz'
p3655
I1
sS'900'
p3656
I1
sS'jackie'
p3657
I1
sS'//t.co/lthbchc2g0'
p3658
I1
sS'47,000'
p3659
I2
sS'tikus'
p3660
I1
sS'//t.co/8pzzsfataa'
p3661
I1
sS'//t.co/tifz2cbgbm'
p3662
I1
sS'extinction'
p3663
I1
sS'cthcountdownday14'
p3664
I2
sS'two'
p3665
I12
sS'e-cig'
p3666
I18
sS'//t.co/yxmowrfpz1'
p3667
I3
sS'plasterer'
p3668
I1
sS'//t.co/zef12a32rk'
p3669
I1
sS'worldfifteen'
p3670
I4
sS'retailmenot'
p3671
I3
sS'none'
p3672
I2
sS'jellybellyuk'
p3673
I1
sS'//t.co/msmuyiy0sa'
p3674
I1
sS'del'
p3675
I1
sS'dem'
p3676
I2
sS'dec'
p3677
I8
sS'//t.co/nrmqahg3yv'
p3678
I1
sS'purchases'
p3679
I1
sS'share'
p3680
I29
sS'numbers'
p3681
I3
sS'purchased'
p3682
I1
sS'!'
p3683
I746
sS'needs'
p3684
I2
sS'asad_usama'
p3685
I1
sS'//t.co/x99xioqvlf'
p3686
I1
sS'awkward'
p3687
I1
sS'//t.co/8pjgcqumpy'
p3688
I1
sS'eroticadawn'
p3689
I2
sS'//t.co/wjn19rtzrv'
p3690
I1
sS'//t.co/tyqiedza3s'
p3691
I1
sS'advice'
p3692
I1
sS'//t.co/zrk6yzs3aj'
p3693
I1
sS'osoculion'
p3694
I1
sS'coming'
p3695
I2
sS'//t.co/cjp8czkzgn'
p3696
I1
sS'tweeting'
p3697
I1
sS'tygeorge'
p3698
I1
sS'pleasure'
p3699
I1
sS'cheekycowcheese'
p3700
I1
sS'02855'
p3701
I1
sS'through'
p3702
I1
sS'24'
p3703
I1
sS'25'
p3704
I24
sS'26'
p3705
I2
sS'27'
p3706
I1
sS'20'
p3707
I37
sS'21'
p3708
I1
sS'22'
p3709
I1
sS'23'
p3710
I1
sS'29'
p3711
I3
sS'lfcfamily'
p3712
I1
sS'//t.co/0kqucj59jr'
p3713
I1
sS'good'
p3714
I22
sS'seeking'
p3715
I1
sS'noticing'
p3716
I1
sS'//t.co/bpnmcpgff7'
p3717
I1
sS'oxford'
p3718
I1
sS'complain'
p3719
I1
sS'easily'
p3720
I3
sS'pregnant'
p3721
I2
sS'ch910'
p3722
I1
sS'creampiesxxx'
p3723
I1
sS'tmj_ram_retail'
p3724
I1
sS'ch916'
p3725
I1
sS'//t.co/5dpipcetdy'
p3726
I1
sS'kebakaran'
p3727
I1
sS'house'
p3728
I3
sS'energy'
p3729
I2
sS'hard'
p3730
I1
sS'nolimit4ever'
p3731
I1
sS'//t.co/herfehdo8d'
p3732
I1
sS'//t.co/05az1k8t7o'
p3733
I1
sS'deals'
p3734
I2
sS'flower'
p3735
I1
sS'wis10'
p3736
I1
sS'paddypower'
p3737
I2
sS'//t.co/vdvr3qtrwf'
p3738
I1
sS'//t.co/kpap8usubz'
p3739
I1
sS'print'
p3740
I1
sS'//t.co/mtuznrc4wg'
p3741
I1
sS'evaluation'
p3742
I1
sS'//t.co/9cmofvcvs9'
p3743
I1
sS'livestreaming'
p3744
I1
sS'sba'
p3745
I3
sS'giveaway'
p3746
I100
sS'//t.co/ls7ojqitwt'
p3747
I1
sS'finland'
p3748
I1
sS'tahu'
p3749
I3
sS'tv707'
p3750
I1
sS'//t.co/sgkmvuvz53'
p3751
I1
sS'//t.co/z8s1vhrcai'
p3752
I1
sS'//t.co/xvpeqy8e4p'
p3753
I1
sS'dont'
p3754
I4
sS'punya'
p3755
I1
sS'valentina'
p3756
I1
sS'//t.co/m9ec1uaxxh'
p3757
I1
sS'done'
p3758
I3
sS'//t.co/ijkh4lzkl7'
p3759
I1
sS'divorce'
p3760
I1
sS'least'
p3761
I2
sS'paint'
p3762
I1
sS'statement'
p3763
I1
sS'muscles'
p3764
I1
sS'//t.co/uoivjdwcpm'
p3765
I1
sS'madmen'
p3766
I1
sS'part'
p3767
I4
sS'//t.co/dvdzmxzdxk'
p3768
I1
sS'//t.co/trgd0xgenz'
p3769
I1
sS'b'
p3770
I1
sS'compliments'
p3771
I1
sS'horizons'
p3772
I1
sS'emkayy90'
p3773
I1
sS'//t.co/oeapvwfnso'
p3774
I2
sS'//t.co/uecwcfr901'
p3775
I1
sS'//t.co/o4hnchlk5z'
p3776
I1
sS'//t.co/pv7cigss6k'
p3777
I1
sS'313.465.2770'
p3778
I1
sS'miss..'
p3779
I1
sS'orders'
p3780
I1
sS'cardigan'
p3781
I1
sS'built'
p3782
I1
sS'dancing'
p3783
I1
sS'36yr'
p3784
I1
sS'signup'
p3785
I2
sS'lovetweetpotato'
p3786
I1
sS'//t.co/y98xml3vxk'
p3787
I3
sS'hero4giveaway'
p3788
I1
sS'medium-sized'
p3789
I1
sS'most'
p3790
I6
sS'significant'
p3791
I2
sS'services'
p3792
I6
sS'nuby'
p3793
I1
sS'ke'
p3794
I3
sS'joining'
p3795
I1
sS'//t.co/8t77s5b6z9'
p3796
I1
sS'//t.co/ddpkbzmkfy'
p3797
I1
sS'titanbet'
p3798
I4
sS'//t.co/ymaot0cu0e'
p3799
I1
sS'fine'
p3800
I1
sS'find'
p3801
I11
sS'//t.co/oe5ejpkn2n'
p3802
I1
sS'//t.co/dwxyg6gpqz'
p3803
I1
sS'giant'
p3804
I1
sS'ruin'
p3805
I1
sS'8'
p3806
I12
sS'//t.co/txi1tkjbqm'
p3807
I1
sS'//t.co/8qwbe8unti'
p3808
I1
sS'//t.co/o4hcticuod'
p3809
I1
sS'denvernuggets'
p3810
I1
sS'//t.co/dpqirrabj4'
p3811
I1
sS'zapped'
p3812
I16
sS'courage'
p3813
I3
sS'//t.co/bbdxcogrzy'
p3814
I1
sS'//t.co/cnpqt4u5s9'
p3815
I1
sS'//t.co/xao0oxj6jc'
p3816
I2
sS'mikeedamelio'
p3817
I1
sS'nahpetsblog'
p3818
I1
sS'//t.co/ehrx5vyuyg'
p3819
I1
sS'//t.co/gulqwpc5zj'
p3820
I1
sS'//t.co/ae7gdbyl3k'
p3821
I1
sS'penyu'
p3822
I1
sS'scenes'
p3823
I3
sS'manly'
p3824
I2
sS'//t.co/rzz97x3cau'
p3825
I1
sS'retweet'
p3826
I21
sS'expert'
p3827
I1
sS'//t.co/6wrbvbjm7b'
p3828
I1
sS'please'
p3829
I16
sS'//t.co/wiiekngq7n'
p3830
I1
sS'fans'
p3831
I1
sS'smallest'
p3832
I1
sS'//t.co/spryiqgfz2'
p3833
I1
sS'marilyn'
p3834
I1
sS'//t.co/twnixnhgsr'
p3835
I1
sS'pengakuan'
p3836
I1
sS'monsterdeezer'
p3837
I1
sS'annual'
p3838
I1
sS'//t.co/nkl928utsk'
p3839
I1
sS'//t.co/psv42nfd13'
p3840
I1
sS'//t.co/jgwzqzqggb'
p3841
I1
sS'upgraded'
p3842
I1
sS'point'
p3843
I2
sS'simple'
p3844
I10
sS'//t.co/weniwcscwv'
p3845
I1
sS'evelyn_m_emo'
p3846
I1
sS'simply'
p3847
I9
sS'busters'
p3848
I1
sS'dunkindonuts'
p3849
I1
sS'platinum'
p3850
I1
sS'//t.co/d59qujircj'
p3851
I1
sS'secret'
p3852
I14
sS'ireland'
p3853
I1
sS'harrycrane'
p3854
I1
sS'meeting'
p3855
I6
sS'//t.co/qunmoakgon'
p3856
I1
sS'enjoyxfrance'
p3857
I1
sS'//t.co/fuzwon3siq'
p3858
I1
sS'gay'
p3859
I4
sS'uaeporn'
p3860
I1
sS'gas'
p3861
I1
sS'hublove'
p3862
I1
sS'gap'
p3863
I1
sS'//t.co/yt0gjszmfe'
p3864
I1
sS'understand'
p3865
I1
sS'yarnspirations1'
p3866
I1
sS'newmusic'
p3867
I1
sS'bill'
p3868
I3
sS'05:02pm'
p3869
I1
sS'wildpantry'
p3870
I2
sS'fun'
p3871
I8
sS'brandygrindz'
p3872
I1
sS'bubblebuttnation'
p3873
I1
sS'//t.co/fzqxzkpnao'
p3874
I1
sS'//t.co/a6thvgblp6'
p3875
I2
sS'monroe'
p3876
I2
sS'italy'
p3877
I1
sS'//t.co/ir32zh72r6'
p3878
I1
sS'//t.co/kuixwmwr4p'
p3879
I1
sS'rattan'
p3880
I1
sS'development'
p3881
I1
sS'//t.co/7ic0yixfiw'
p3882
I1
sS'moment'
p3883
I3
sS'williamssonoma'
p3884
I1
sS'y'
p3885
I1
sS'entry'
p3886
I3
sS'spend'
p3887
I3
sS'mom'
p3888
I3
sS'ceo'
p3889
I1
sS'-'
p3890
I159
sS'ldn'
p3891
I1
sS'zaitherealist'
p3892
I1
sS'cuv'
p3893
I1
sS'sparta'
p3894
I1
sS'//t.co/qkzkisqmki'
p3895
I1
sS'cub'
p3896
I1
sS'msft4work'
p3897
I1
sS'cum'
p3898
I2
sS'//t.co/bp8djkmkdq'
p3899
I1
sS'bio'
p3900
I1
sS'big'
p3901
I8
sS'sekarang'
p3902
I1
sS'//t.co/upherjjfiu'
p3903
I1
sS'blowjob'
p3904
I1
sS'biz'
p3905
I1
sS'wii'
p3906
I1
sS'daerah'
p3907
I1
sS'bit'
p3908
I3
sS'fakebakeunited'
p3909
I1
sS'//t.co/qv5eu0wr1z'
p3910
I2
sS'xfeelgoodxx'
p3911
I3
sS'psiwavefunction'
p3912
I1
sS'//t.co/tav4urxwme'
p3913
I1
sS'gardening'
p3914
I1
sS'often'
p3915
I1
sS'absolutely'
p3916
I1
sS'back'
p3917
I6
sS'bach'
p3918
I1
sS'handjob'
p3919
I4
sS'lisaaromano1'
p3920
I3
sS'pet'
p3921
I1
sS'per'
p3922
I1
sS'newark'
p3923
I1
sS'pen'
p3924
I1
sS'pee'
p3925
I1
sS'//t.co/nfkh3zuu'
p3926
I1
sS'epic'
p3927
I1
sS'//t.co/v9s3wfiakh'
p3928
I1
sS'laughing'
p3929
I1
sS'//t.co/awtj6on2ep'
p3930
I1
sS'//t.co/qieisc2rje'
p3931
I1
sS'nitto'
p3932
I1
sS'300'
p3933
I1
sS'//t.co/gcq5cmlxj9'
p3934
I5
sS'//t.co/zdk74odutr'
p3935
I1
sS'oem'
p3936
I2
sS'from'
p3937
I90
sS'8pm'
p3938
I1
sS'drama'
p3939
I1
sS'sportsbet'
p3940
I2
sS'//t.co/suaewrxpcp'
p3941
I1
sS'//t.co/3a'
p3942
I1
sS'bisa'
p3943
I1
sS'//t.co/mxahbrhajz'
p3944
I1
sS'//t.co/vaphz9mcdv'
p3945
I1
sS'//t.co/yxecanvbpk'
p3946
I1
sS'handbook'
p3947
I2
sS'waistline'
p3948
I1
sS'invite'
p3949
I1
sS'hoped'
p3950
I1
sS'boys'
p3951
I2
sS'//t.co/c4e81tpap2'
p3952
I1
sS'//t.co/vhycg35ax3'
p3953
I1
sS'imscottstyles'
p3954
I1
sS'klaragoldx'
p3955
I1
sS'//t.co/fsasunfmpd'
p3956
I1
sS'geese'
p3957
I1
sS'sotitillating'
p3958
I1
sS'e-club'
p3959
I1
sS'single'
p3960
I5
sS'cafe'
p3961
I1
sS'%'
p3962
I45
sS'cellar'
p3963
I2
sS'rico69'
p3964
I1
sS'undang-undang'
p3965
I1
sS'//t.co/mvdtmyqz7k'
p3966
I1
sS'utterly'
p3967
I1
sS'angiedixiedogs'
p3968
I2
sS'//t.co/n6milufjqq'
p3969
I1
sS'//t.co/b6rrv9bkfi'
p3970
I1
sS'2002'
p3971
I1
sS'2000'
p3972
I1
sS'2001'
p3973
I1
sS'//t.co/8s3exefb'
p3974
I3
sS'failures'
p3975
I1
sS'aguilera'
p3976
I1
sS'xasssofat'
p3977
I2
sS'//t.co/33xuxx8ebg'
p3978
I1
sS'//t.co/t50faxgijp'
p3979
I1
sS'lingkungan'
p3980
I1
sS'helps'
p3981
I1
sS'maryland'
p3982
I1
sS'level-up'
p3983
I1
sS'pulau'
p3984
I2
sS'dessert'
p3985
I1
sS'swisstyles'
p3986
I6
sS'//t.co/4sko3xbeh1'
p3987
I1
sS'arrange'
p3988
I1
sS'entire'
p3989
I1
sS'//t.co/jonyjkkkvp'
p3990
I5
sS'shock'
p3991
I1
sS'//t.c'
p3992
I7
sS'joey'
p3993
I1
sS'//t.co/3hxkhbkozb'
p3994
I1
sS'crop'
p3995
I1
sS'inocentloves'
p3996
I1
sS'3x'
p3997
I1
sS'madcapitallife'
p3998
I1
sS'giving'
p3999
I15
sS'access'
p4000
I2
sS'dengan'
p4001
I1
sS'//t.co/i0xalgxl9h'
p4002
I1
sS'body'
p4003
I34
sS'50th'
p4004
I2
sS'objects'
p4005
I1
sS'f+rt'
p4006
I1
sS'//t.co/n3cjvsvtcv'
p4007
I1
sS'extreme'
p4008
I1
sS'//t.co/9vwq4chjse'
p4009
I1
sS'39'
p4010
I3
sS'1of100s'
p4011
I1
sS'30'
p4012
I11
sS'35'
p4013
I2
sS'later'
p4014
I1
sS'icreategfx'
p4015
I1
sS'//t.co/qdxvuijjif'
p4016
I1
sS'named'
p4017
I2
sS'blizzard'
p4018
I1
sS'private'
p4019
I2
sS'privately'
p4020
I1
sS'//t.co/fjcspe9pnq'
p4021
I1
sS'//t.co/fyect5kfct'
p4022
I2
sS'//t.co/ua3h8mxdhw'
p4023
I2
sS'hot_n_ready_'
p4024
I1
sS'//t.co/d66nzxqpzq'
p4025
I1
sS'//t.co/lssv1bbcus'
p4026
I2
sS'venomgaminguk'
p4027
I3
sS'themselves'
p4028
I1
sS'//t.co/z50hvaobrf'
p4029
I1
sS'//t.co/ozjftcypqg'
p4030
I1
sS'teenie'
p4031
I1
sS'//t.co/rnirsdubtw'
p4032
I1
sS'//t.co/tv4fdoplkx'
p4033
I1
sS'trail'
p4034
I1
sS'prizes'
p4035
I35
sS'minions'
p4036
I1
sS'subscription'
p4037
I1
sS'account'
p4038
I1
sS'britney'
p4039
I1
sS'f'
p4040
I8
sS'888poker'
p4041
I1
sS'closing'
p4042
I1
sS'industry'
p4043
I2
sS'markryanseymour'
p4044
I1
sS'dm'
p4045
I3
sS'18_hot_18'
p4046
I2
sS'boner'
p4047
I1
sS'//t.co/jhbpzypddc'
p4048
I1
sS'varied'
p4049
I1
sS'//t.co/6ysfaoes6f'
p4050
I1
sS'sexologyxx'
p4051
I2
sS'afc'
p4052
I3
sS'winners'
p4053
I5
sS'atlhawks'
p4054
I1
sS'afp'
p4055
I1
sS'niall'
p4056
I1
sS'profile'
p4057
I6
sS'//t.co/xo0tppkp9s'
p4058
I1
sS'kickstarter'
p4059
I1
sS'healthpr0ducts'
p4060
I9
sS'collection'
p4061
I9
sS'piace'
p4062
I19
sS'//t.co/rzt5y2pgoh'
p4063
I1
sS'//t.co/novgjvhaq1'
p4064
I1
sS'//t.co/8i2eg1q8p4'
p4065
I1
sS'chasing'
p4066
I2
sS'//t.co/v4dj'
p4067
I1
sS'sit'
p4068
I1
sS'lines'
p4069
I2
sS'9am'
p4070
I1
sS'orchid+lipcote'
p4071
I1
sS'demotivational'
p4072
I1
sS'mr1night'
p4073
I1
sS'//t.co/vsx4f9i8kd'
p4074
I1
sS'//t.co/pnq10oqydv'
p4075
I1
sS'horny'
p4076
I2
sS'chilledchaos'
p4077
I1
sS'lg'
p4078
I1
sS'le'
p4079
I19
sS'la'
p4080
I2
sS'ln'
p4081
I1
sS'botanical'
p4082
I1
sS'liveonstreamate'
p4083
I9
sS'winning'
p4084
I5
sS'coupon'
p4085
I6
sS'ls'
p4086
I1
sS'using.'
p4087
I3
sS'shotta_sho'
p4088
I1
sS'dad'
p4089
I1
sS'//t.co/491h0amztt'
p4090
I1
sS'dag'
p4091
I1
sS'dan'
p4092
I3
sS'//t.co/cz70mgwni6'
p4093
I1
sS'dat'
p4094
I1
sS'mention'
p4095
I1
sS'day'
p4096
I47
sS'psus'
p4097
I1
sS'//t.co/sr0yzxvgnz'
p4098
I1
sS'347-201-1170'
p4099
I2
sS'lingerie'
p4100
I1
sS'slacker'
p4101
I2
sS'jasper'
p4102
I1
sS'lfc'
p4103
I1
sS'einstein'
p4104
I2
sS'//t.co/mmekkodxpj'
p4105
I1
sS'//t.co/roksv0xiyo'
p4106
I7
sS'askdrsheilad'
p4107
I1
sS'mata'
p4108
I2
sS'//t.co/byjyfwrtrp'
p4109
I1
sS'announced'
p4110
I1
sS'mati'
p4111
I1
sS'yrwol7'
p4112
I3
sS'heathermatarazz'
p4113
I1
sS'que'
p4114
I1
sS'//t.co/qd34nrjisw'
p4115
I1
sS'//t.co/flr5pikynu'
p4116
I1
sS'yard'
p4117
I1
sS'monicajames81'
p4118
I13
sS'//t.co/rrjpf3i95a'
p4119
I1
sS'yarn'
p4120
I1
sS'stuck'
p4121
I1
sS'south'
p4122
I2
sS's3x'
p4123
I9
sS'2,000'
p4124
I1
sS'sack'
p4125
I1
sS'hey'
p4126
I20
sS'improvements'
p4127
I1
sS'quotesraining'
p4128
I2
sS'thislsamazing'
p4129
I13
sS'amantedelporn'
p4130
I1
sS'silverado'
p4131
I3
sS'molinayadigg'
p4132
I1
sS'georgetown'
p4133
I1
sS'soundlink'
p4134
I2
sS'nobody'
p4135
I2
sS'dreary'
p4136
I1
sS'sportsconsulting'
p4137
I1
sS'//t.co/byb9mk1im1'
p4138
I1
sS'//t.co/yavrwibjjw'
p4139
I1
sS'loves'
p4140
I1
sS'//t.co/0nla8svldv'
p4141
I1
sS'//t.co/pnvb3qjmwm'
p4142
I7
sS'//t.co/ilsda0dbbd'
p4143
I1
sS'have'
p4144
I65
sS'dallas'
p4145
I1
sS'mie'
p4146
I19
sS'//t.co/sylzsfvcym'
p4147
I1
sS'concerns'
p4148
I1
sS'//t.co/2qxuy366x6'
p4149
I1
sS'//t.co/0ynp1xwgl4'
p4150
I1
sS'//t.co/ckqsu26hti'
p4151
I1
sS'//t.co/vjltkohoyg'
p4152
I1
sS'unless'
p4153
I1
sS'//t.co/821vvl0j9c'
p4154
I1
sS'//t.co/tjepuykw5j'
p4155
I1
sS'gather'
p4156
I5
sS'tapandmatch'
p4157
I1
sS'cmurph_music'
p4158
I1
sS'skinny'
p4159
I1
sS'//t.co/6ykyjh9dvf'
p4160
I1
sS'kita'
p4161
I1
sS'selection'
p4162
I1
sS'text'
p4163
I9
sS'kits'
p4164
I1
sS'portfolio'
p4165
I1
sS'akhir'
p4166
I2
sS'staff'
p4167
I1
sS'inspiring'
p4168
I1
sS'5pm'
p4169
I1
sS'lovefinder'
p4170
I1
sS'bundagostosa'
p4171
I1
sS'//t.co/fqvxnqoif5'
p4172
I1
sS'//t.co/offs2ygiti'
p4173
I1
sS'//t.co/nlwrafrc7z'
p4174
I1
sS'exceptional'
p4175
I1
sS'beat'
p4176
I3
sS'//t.co/p4sbke1ljc'
p4177
I1
sS'//t.co/rug1ulfbm6'
p4178
I1
sS'//t.co/ty4pdawfwl'
p4179
I1
sS'calling'
p4180
I1
sS'//t.co/7rs18dx0cx'
p4181
I1
sS'kebiasaan'
p4182
I2
sS'//t.co/tzhfnzmut1'
p4183
I4
sS'deuceboifanclub'
p4184
I1
sS'discounts'
p4185
I4
sS'ebola'
p4186
I1
sS'progress'
p4187
I6
sS'ztewifiwinter'
p4188
I1
sS'junkies'
p4189
I1
sS'grumble'
p4190
I1
sS'mommysbookup'
p4191
I5
sS'//t.co/7oyytlhkbm'
p4192
I2
sS'akses'
p4193
I1
sS'peacefulrecover'
p4194
I1
sS'//t.co/wl0ha8mooo'
p4195
I1
sS'hutan'
p4196
I1
sS'instant'
p4197
I12
sS'//t.co/hbpsvgf1sr'
p4198
I1
sS'joke'
p4199
I1
sS'parisia..'
p4200
I1
sS'//t.co/fkachlakkw'
p4201
I1
sS'ashling420'
p4202
I1
sS'discount5'
p4203
I1
sS'glorious'
p4204
I1
sS'comment'
p4205
I2
sS'//t.co/flwoj6rspt'
p4206
I1
sS'//t.co/w57lkcgbdt'
p4207
I1
sS'teasing'
p4208
I1
sS'visitblackpool'
p4209
I1
sS'laugh'
p4210
I1
sS'news'
p4211
I3
sS'onanygirl'
p4212
I1
sS'ad'
p4213
I3
sS'betvictor'
p4214
I2
sS'lovinit64'
p4215
I1
sS'finishes'
p4216
I1
sS'omfgselfies'
p4217
I11
sS'//t.co/uesba2wa9a'
p4218
I1
sS'bull'
p4219
I1
sS'love+care'
p4220
I1
sS'dyken'
p4221
I1
sS'homes'
p4222
I10
sS'promoter'
p4223
I1
sS'//t.co/pcb9s0ze2w'
p4224
I1
sS'agar'
p4225
I1
sS'linkedin'
p4226
I2
sS'aggressiveness'
p4227
I1
sS'claimed'
p4228
I1
sS'diets'
p4229
I2
sS'savedallas'
p4230
I1
sS'//t.co/hy3g4la2yc'
p4231
I1
sS'//t.co/sqs4gfe5vu'
p4232
I2
sS'pasukan'
p4233
I1
sS'again'
p4234
I3
sS'//t.co/besmr3sxwf'
p4235
I1
sS'//t.co/mn0lxjyn66'
p4236
I1
sS'//t.co/shyktb1eqe'
p4237
I1
sS'center'
p4238
I2
sS'builder'
p4239
I1
sS'thought'
p4240
I2
sS'//t.co/81axskxxoi'
p4241
I8
sS'position'
p4242
I1
sS'latest'
p4243
I4
sS'//t.co/hsrv3j4krm'
p4244
I1
sS'//t.co/jbme6s9m9q'
p4245
I1
sS'wagner'
p4246
I1
sS'fleagueworld'
p4247
I2
sS'seats'
p4248
I2
sS'//t.co/aknen3zslw'
p4249
I1
sS'tough'
p4250
I2
sS'quiero'
p4251
I1
sS'tattoed'
p4252
I1
sS'sargeantslondon'
p4253
I1
sS'gmc'
p4254
I6
sS'add'
p4255
I2
sS'markgsanders'
p4256
I1
sS'match'
p4257
I1
sS'bxgrandote'
p4258
I1
sS'amrita'
p4259
I20
sS'like'
p4260
I40
sS'success'
p4261
I4
sS'v=jca7xlrloew'
p4262
I1
sS'28yr'
p4263
I1
sS'//t.co/nfngqhyk6n'
p4264
I2
sS'restaurant_eve'
p4265
I1
sS'works'
p4266
I6
sS'soft'
p4267
I1
sS'//t.co/czjvxitf0t'
p4268
I1
sS'alive'
p4269
I1
sS'hair'
p4270
I5
sS'curvesrock'
p4271
I1
sS'//t.co/1r2cskyw7c'
p4272
I1
sS'halifax'
p4273
I2
sS'est'
p4274
I2
sS'bet'
p4275
I35
sS'leafit'
p4276
I2
sS'dreidel'
p4277
I1
sS'urbanara'
p4278
I1
sS'speak'
p4279
I1
sS'//t.co/ulmbduzg3b'
p4280
I1
sS'//t.co/pjwgwvfefb'
p4281
I1
sS'expiry'
p4282
I1
sS'//t.co/mhbombmmp7'
p4283
I3
sS'worthy'
p4284
I1
sS'ch92'
p4285
I1
sS'a1'
p4286
I20
sS'about'
p4287
I18
sS'justin'
p4288
I1
sS'//t.co/knxfoptc0p'
p4289
I1
sS'//t.co/ljrcsh7mk2'
p4290
I1
sS'menghampiri'
p4291
I1
sS"'likes"
p4292
I1
sS'guard'
p4293
I1
sS'//t.co/mgkfwlknen'
p4294
I1
sS'1985'
p4295
I1
sS'//t.co/5nqyyyjk0a'
p4296
I1
sS'//t.co/p9zt9ozkp0'
p4297
I3
sS'islandhues242'
p4298
I3
sS'biggest'
p4299
I3
sS'//t.co/vcsysbnfas'
p4300
I1
sS'hotspots'
p4301
I2
sS'buy'
p4302
I8
sS'bobble'
p4303
I1
sS'brand'
p4304
I2
sS'landsend'
p4305
I1
sS'but'
p4306
I7
sS'//t.co/chbgmzfzis'
p4307
I1
sS'masc'
p4308
I1
sS'//t.co/pwasbilztz'
p4309
I1
sS'wish'
p4310
I2
sS'j'
p4311
I2
sS'//t.co/35sfymx2eh'
p4312
I1
sS'swo2212'
p4313
I1
sS'//t.co/7hrn16kpac'
p4314
I1
sS'//t.co/4jvdhpjxfj'
p4315
I1
sS'value'
p4316
I7
sS'minutes'
p4317
I2
sS'pic'
p4318
I1
sS'topless'
p4319
I1
sS'//t.co/d5zmehdshw'
p4320
I1
sS'49'
p4321
I1
sS'dressed'
p4322
I7
sS'virtual'
p4323
I1
sS'adam'
p4324
I1
sS"'door"
p4325
I4
sS'bundle'
p4326
I10
sS'bitsy'
p4327
I1
sS'//t.co/w5xxpzjmlb'
p4328
I1
sS"'city"
p4329
I1
sS'//t.co/ibs8vkekcl'
p4330
I1
sS'//t.co/aayunyurbo'
p4331
I1
sS'booty_is_life69'
p4332
I2
sS'limited'
p4333
I10
sS'lolasapothecary'
p4334
I1
sS'uaba'
p4335
I1
sS'sleep'
p4336
I3
sS'sexyasfuck'
p4337
I3
sS'hate'
p4338
I8
sS'paris'
p4339
I4
sS'tweet'
p4340
I5
sS'cumcovered'
p4341
I1
sS'tweep'
p4342
I2
sS'xsolit'
p4343
I1
sS'regrets'
p4344
I1
sS'@'
p4345
I1224
sS'risk'
p4346
I5
sS'rise'
p4347
I1
sS'every'
p4348
I10
sS'mystore'
p4349
I9
sS'school'
p4350
I11
sS'marthamaccallum'
p4351
I2
sS'//t.co/dlaz7hzeim'
p4352
I1
sS'//t.co/b9ttfle9uv'
p4353
I1
sS'//t.co/xzn4bdv4ry'
p4354
I1
sS'//t.co/b4ior8amun'
p4355
I1
sS'//t.co/fiyypqlmm9'
p4356
I1
sS'joggers'
p4357
I1
sS'enjoy'
p4358
I7
sS'leaders'
p4359
I1
sS'direct'
p4360
I11
sS'//t.co/dzcwuk0n8a'
p4361
I1
sS'//t.co/sfecpokl1f'
p4362
I1
sS'titik'
p4363
I1
sS'//t.co/kxr8wsa885'
p4364
I1
sS'//t.co/otnga4texp'
p4365
I1
sS'12dayswin'
p4366
I1
sS'wallowist'
p4367
I1
sS'cutestanimalsph'
p4368
I17
sS'//t.co/7agbvv9ycu'
p4369
I1
sS'disney'
p4370
I4
sS'him/her'
p4371
I1
sS'//t.co/dqyswsusvu'
p4372
I1
sS'laqueso'
p4373
I1
sS'feisty'
p4374
I1
sS'studio'
p4375
I4
sS'ethanol'
p4376
I1
sS'aftermath'
p4377
I1
sS'mozzarella'
p4378
I1
sS'//t.co/irr7p1hfit'
p4379
I1
sS'ventures'
p4380
I1
sS'changer'
p4381
I1
sS'//t.co/eipenk3drc'
p4382
I10
sS'stray'
p4383
I1
sS'natural_mag'
p4384
I1
sS'ebony'
p4385
I2
sS'//t.co/5ev2g8lkt8'
p4386
I9
sS'//t.co/ujdmhoho9m'
p4387
I1
sS'hospital'
p4388
I1
sS'adorningava'
p4389
I2
sS'single-handedly'
p4390
I1
sS'xfactorfinal'
p4391
I1
sS'//t.co/tuhhe6yroy'
p4392
I2
sS'phone'
p4393
I5
sS'must'
p4394
I6
sS'shoot'
p4395
I1
sS'//t.co/fgk9k3dtcs'
p4396
I1
sS'join'
p4397
I18
sS'mi'
p4398
I19
sS'mk'
p4399
I1
sS'mp'
p4400
I1
sS'entertainer'
p4401
I1
sS'my'
p4402
I55
sS'avon_uk'
p4403
I1
sS'collegehumor'
p4404
I1
sS'//t.co/t67agp02nm'
p4405
I1
sS'tantang'
p4406
I1
sS'mayhem'
p4407
I1
sS'//t.co/qfunmzivu9'
p4408
I1
sS'//t.co/ejlg7ljxsk'
p4409
I1
sS'keep'
p4410
I8
sS'//t.co/jskshtms22'
p4411
I1
sS'walkingdead_amc'
p4412
I1
sS'//t.co/vggwkmdua1'
p4413
I1
sS'//t.co/lw65qiihyd'
p4414
I1
sS'//t.co/licqbtmiko'
p4415
I4
sS'//t.co/rep3b3zfrn'
p4416
I1
sS'puluhan'
p4417
I1
sS'gate'
p4418
I1
sS'lbs.'
p4419
I1
sS'//t.co/84ry9eyc1h'
p4420
I1
sS'celebrties'
p4421
I1
sS'confirmed'
p4422
I1
sS'jumping'
p4423
I1
sS'//t.co/plh86h9a7p'
p4424
I1
sS'//t.co/lum6kb8a9k'
p4425
I1
sS'amid'
p4426
I1
sS'funniest'
p4427
I1
sS'enter'
p4428
I95
sS'ngtrader'
p4429
I13
sS'abcf25days'
p4430
I4
sS'over'
p4431
I14
sS'orang'
p4432
I2
sS'london'
p4433
I1
sS'vixens'
p4434
I1
sS'frostingqueen69'
p4435
I1
sS'cld'
p4436
I1
sS'05:08pm'
p4437
I1
sS'socialmedia'
p4438
I2
sS'expectations'
p4439
I3
sS'destroyed'
p4440
I1
sS'400'
p4441
I2
sS'payouts'
p4442
I1
sS'//t.co/tw7qpkdsuh'
p4443
I1
sS'//t.co/sebhtxiidy'
p4444
I1
sS'//t.co/rec2mk6gt2'
p4445
I1
sS'alex'
p4446
I1
sS'detroit'
p4447
I2
sS'explode'
p4448
I2
sS'fitness'
p4449
I6
sS'//t.co/djyfbcubxc'
p4450
I1
sS'//t.co/ho7wlxtkpv'
p4451
I1
sS'trimix'
p4452
I1
sS'mewah'
p4453
I1
sS'gol'
p4454
I2
sS'gon'
p4455
I1
sS'gamefrontcom'
p4456
I1
sS'2young2bang'
p4457
I1
sS'god'
p4458
I9
sS'//t.co/30ydzjjafh'
p4459
I1
sS'got'
p4460
I20
sS'free'
p4461
I118
sS'fred'
p4462
I1
sS'//t.co/kx348yy7ky'
p4463
I1
sS'wanted'
p4464
I1
sS'grasses'
p4465
I1
sS'days'
p4466
I12
sS'//t.co/vlkbyr1dbt'
p4467
I1
sS'classifiedfact'
p4468
I1
sS'fantasy'
p4469
I1
sS'reflectingthe'
p4470
I1
sS'giveagarmin'
p4471
I1
sS'nip'
p4472
I3
sS'primark'
p4473
I1
sS'guinness'
p4474
I1
sS'top'
p4475
I14
sS'tow'
p4476
I2
sS'cyberlink'
p4477
I1
sS'fiction'
p4478
I1
sS'//t.co/fb2alwhzhj'
p4479
I1
sS'too'
p4480
I16
sS'//t.co/paeqrgucab'
p4481
I1
sS'swingers'
p4482
I1
sS'hangout'
p4483
I1
sS'tool'
p4484
I2
sS'took'
p4485
I1
sS'//t.co/yxeoghohq0'
p4486
I12
sS'wardrobe'
p4487
I2
sS'//t.co/b4qf9kjme6'
p4488
I1
sS'kel-tec'
p4489
I2
sS'karena'
p4490
I1
sS'//t.co/qqbly38s0d'
p4491
I1
sS'narkoba'
p4492
I1
sS'bridge'
p4493
I1
sS'lbs'
p4494
I1
sS'fashion'
p4495
I15
sS'//t.co/777xyvncri'
p4496
I1
sS'ray'
p4497
I1
sS'//t.co/2sqng7oaug'
p4498
I1
sS'a_listedprgirl'
p4499
I1
sS'jclurkin'
p4500
I1
sS'1960'
p4501
I1
sS'snow'
p4502
I1
sS'rides'
p4503
I1
sS'though'
p4504
I1
sS'visionary'
p4505
I1
sS'giantbbwboobs'
p4506
I1
sS'8.00'
p4507
I1
sS'exgirlfriend'
p4508
I8
sS'//t.co/yinzuupxet'
p4509
I1
sS'treats'
p4510
I3
sS'//t.co/ov7o6jienl'
p4511
I1
sS'//t.co/xdsmiyv0zt'
p4512
I5
sS'yang'
p4513
I5
sS'iamgedster'
p4514
I2
sS'pkr'
p4515
I1
sS'desktops'
p4516
I1
sS'bait'
p4517
I1
sS'//t.co/llflu0crk7'
p4518
I1
sS'//t.co/3hrs7qxttu'
p4519
I1
sS'labels'
p4520
I2
sS'lovejenny077'
p4521
I3
sS'pkg'
p4522
I3
sS'baik'
p4523
I1
sS'//t.co/lngo1v9q1t'
p4524
I1
sS'hacerlo'
p4525
I1
sS'//t.co/cbvf9gkrhb'
p4526
I1
sS'//t.co/v4jjmjedkp'
p4527
I3
sS'watch'
p4528
I36
sS'mandco_fashion'
p4529
I1
sS'amazon'
p4530
I4
sS'wedding'
p4531
I4
sS'report'
p4532
I1
sS'undressed'
p4533
I6
sS'limeroad'
p4534
I20
sS'lovestyle20'
p4535
I2
sS'davidmsk'
p4536
I1
sS'twice'
p4537
I1
sS'//t.co/iye6ntalhn'
p4538
I1
sS'liquor'
p4539
I1
sS'8444'
p4540
I1
sS'pykett'
p4541
I1
sS'//t.co/d0hidebh4z'
p4542
I1
sS'//t.co/g5lf8inlok'
p4543
I1
sS'disturbing'
p4544
I1
sS'//t.co/1gm3hf0rqi'
p4545
I1
sS'michelin'
p4546
I6
sS'//t.co/lvmqfoly23'
p4547
I1
sS'sukijahgog'
p4548
I1
sS'lovelymilfs'
p4549
I1
sS'//t.co/mxwxbwiiql'
p4550
I1
sS'//t.co/ciyuvayxxf'
p4551
I1
sS'rims'
p4552
I4
sS'boss'
p4553
I3
sS'trendinqnow'
p4554
I2
sS'bose'
p4555
I5
sS'improve'
p4556
I6
sS'protect'
p4557
I1
sS'players'
p4558
I1
sS'games'
p4559
I3
sS'gelmani'
p4560
I1
sS'//t.co/gtxq4koeg9'
p4561
I1
sS'lenses'
p4562
I1
sS'//t.co/vwc09hsl2z'
p4563
I1
sS'hanzoman'
p4564
I1
sS'betting'
p4565
I1
sS'//t.co/mmfmdspfkd'
p4566
I1
sS'//t.co/woajddtpo5'
p4567
I1
sS'hitler'
p4568
I1
sS'bingo'
p4569
I6
sS'bathroom'
p4570
I1
sS'tahanan'
p4571
I1
sS'sportsbook'
p4572
I1
sS'been'
p4573
I16
sS'//t.co/gxlt4tkfxa'
p4574
I1
sS'tinggalkan'
p4575
I1
sS'confident'
p4576
I1
sS'//t.co/ujkmyk6tb1'
p4577
I1
sS'what..'
p4578
I1
sS'drugs'
p4579
I3
sS'xxx'
p4580
I6
sS'betfred'
p4581
I6
sS'craft'
p4582
I1
sS'catch'
p4583
I1
sS'//t.co/urckg7cgta'
p4584
I1
sS'n'
p4585
I20
sS'selfiefail'
p4586
I1
sS'teachers'
p4587
I1
sS'shutupcartoons'
p4588
I1
sS'turunkan'
p4589
I1
sS'veronica'
p4590
I1
sS'accessories'
p4591
I1
sS'experts'
p4592
I1
sS'freebets'
p4593
I7
sS'//t.co/9xcdmzurie'
p4594
I1
sS'//t.co/gplbk37fyc'
p4595
I1
sS'mtcashmere'
p4596
I2
sS'social'
p4597
I14
sS'cycle'
p4598
I1
sS'02665'
p4599
I1
sS'simonschuster'
p4600
I1
sS'eediat'
p4601
I1
sS'ocean'
p4602
I1
sS'greatest'
p4603
I1
sS'detained'
p4604
I2
sS'mother'
p4605
I1
sS'laptop'
p4606
I2
sS'pausexmas'
p4607
I1
sS'//t.co/qst5s51nqb'
p4608
I1
sS'advanced'
p4609
I1
sS'gave'
p4610
I2
sS'simplyoloni'
p4611
I2
sS'//t.co/4utaqtb5we'
p4612
I1
sS'14/12'
p4613
I1
sS'//t.co/fadjj0wskr'
p4614
I1
sS'newcastle'
p4615
I13
sS'//t.co/zpm2bidtwd'
p4616
I1
sS'23.59'
p4617
I1
sS'apart'
p4618
I1
sS'gifs'
p4619
I1
sS'gift'
p4620
I23
sS'footy'
p4621
I1
sS'hunt'
p4622
I1
sS'50'
p4623
I10
sS'thewildpantry'
p4624
I2
sS'//t.co/mbqpnkivtr'
p4625
I1
sS'mrwhissstler'
p4626
I1
sS'999+'
p4627
I1
sS'//t.co/m0fszavjmi'
p4628
I1
sS'bpl'
p4629
I3
sS'teamtoppromoters'
p4630
I1
sS'indirect'
p4631
I1
sS'tutorial'
p4632
I1
sS'cooper'
p4633
I2
sS'//t.co/smqyov9phg'
p4634
I1
sS'everything'
p4635
I5
sS'icy'
p4636
I1
sS'christmas'
p4637
I39
sS'discount'
p4638
I1
sS'//t.co/2w1dnyll3w'
p4639
I1
sS'chapter'
p4640
I1
sS'//t.co/mkpuqdxfvh'
p4641
I1
sS'choke'
p4642
I1
sS'surround'
p4643
I1
sS'plus'
p4644
I2
sS'derawan'
p4645
I1
sS'highest-paid'
p4646
I1
sS'presence'
p4647
I1
sS'lady_lov'
p4648
I1
sS'popularmmos'
p4649
I1
sS'entrepreneur'
p4650
I1
sS'tribune'
p4651
I1
sS'juicetou'
p4652
I2
sS'//t.co/yevaldnufl'
p4653
I2
sS'virgin'
p4654
I1
sS'laga'
p4655
I1
sS'head'
p4656
I1
sS'amateur'
p4657
I1
sS'6'
p4658
I8
sS'//t.co/lzneikuypk'
p4659
I1
sS'//t.co/zskhtyyf2i'
p4660
I1
sS'viva'
p4661
I1
sS'//t.co/nqq0vazc5r'
p4662
I3
sS'natalieporn'
p4663
I1
sS'pagina'
p4664
I19
sS'asssista'
p4665
I1
sS'trio'
p4666
I1
sS'phatass'
p4667
I2
sS'sometime'
p4668
I1
sS'//t.co/gjx6qk1uha'
p4669
I1
sS'check'
p4670
I52
sS'tix'
p4671
I1
sS'no'
p4672
I25
sS'na'
p4673
I6
sS'tip'
p4674
I1
sS'uncomformity'
p4675
I1
sS'tv221'
p4676
I1
sS'tv220'
p4677
I1
sS'picture'
p4678
I2
sS'blainecobak'
p4679
I1
sS'eiffel'
p4680
I1
sS'longer'
p4681
I2
sS'//t.co/no13my2tep'
p4682
I1
sS'//t.co/rex2rpprjc'
p4683
I1
sS'serious'
p4684
I1
sS'roi'
p4685
I1
sS'jolson'
p4686
I1
sS'celebs'
p4687
I3
sS'comments'
p4688
I1
sS'microloans'
p4689
I1
sS'822-2004'
p4690
I1
sS'1948'
p4691
I1
sS'//t.co/rotdasz8il'
p4692
I4
sS'1943'
p4693
I1
sS'1945'
p4694
I1
sS'advantage'
p4695
I3
sS'sponsors'
p4696
I1
sS'//t.co/igjdpsmsnf'
p4697
I1
sS'//t.co/l9logtdxdh'
p4698
I1
sS'cook'
p4699
I1
sS'cool'
p4700
I5
sS'nolose'
p4701
I1
sS'level'
p4702
I1
sS'posts'
p4703
I2
sS'brother'
p4704
I1
sS'juicetoufunday'
p4705
I1
sS'popupsantasweepsentry'
p4706
I4
sS'quick'
p4707
I2
sS'littlereaders'
p4708
I1
sS'natseek'
p4709
I1
sS'says'
p4710
I3
sS'porn'
p4711
I11
sS'bullfrog'
p4712
I1
sS'colin'
p4713
I1
sS'voucher'
p4714
I11
sS'pmi'
p4715
I1
sS'stressful'
p4716
I1
sS'//t.co/k8xg5ddmsn'
p4717
I1
sS'//t.co/7bprys'
p4718
I1
sS'countryandtown'
p4719
I2
sS'//t.co/46ezjl2wik'
p4720
I1
sS'hairy'
p4721
I1
sS'water'
p4722
I1
sS'dannyg_inkster'
p4723
I1
sS'['
p4724
I2
sS'kerjasama'
p4725
I1
sS'//t.co/auakulhuon'
p4726
I1
sS'biznews'
p4727
I1
sS'healthy'
p4728
I1
sS'gigaset'
p4729
I2
sS'scarpa..'
p4730
I19
sS'//t.co/wpec5o98od'
p4731
I1
sS'//t.co/0z0zjm6au3'
p4732
I1
sS'cultboxtv'
p4733
I2
sS'//t.co/bjdrkgmtn0'
p4734
I2
sS'//t.co/jhzfl6o5nw'
p4735
I1
sS'1st'
p4736
I3
sS'//t.co/clhpvkonjd'
p4737
I1
sS'akibat'
p4738
I1
sS'projector'
p4739
I1
sS'dolphins'
p4740
I1
sS'sports'
p4741
I4
sS'iphone'
p4742
I3
sS'msi'
p4743
I1
sS'criteria'
p4744
I1
sS'today'
p4745
I43
sS'clicking'
p4746
I1
sS'chocolate'
p4747
I4
sS'ch428'
p4748
I1
sS'teaser'
p4749
I1
sS'intowtournament'
p4750
I1
sS'cases'
p4751
I2
sS'thousands'
p4752
I1
sS'meatball'
p4753
I1
sS'stream'
p4754
I13
sS'nexus'
p4755
I1
sS'unarmed'
p4756
I1
sS'stroke'
p4757
I2
sS'//t.co/bz9qbvxiky'
p4758
I1
sS'//t.co/qsbwxxjunv'
p4759
I1
sS'huyrry'
p4760
I1
sS'//t.co/c6ihlxo31i'
p4761
I9
sS'//t.co/y1jqrdxqmj'
p4762
I1
sS'1'
p4763
I20
sS'information'
p4764
I1
sS'insecurities'
p4765
I1
sS'wetmylipsplz'
p4766
I1
sS'tv83'
p4767
I1
sS'chayne'
p4768
I1
sS'//t.co/kfb3u3bppt'
p4769
I1
sS'//t.co/m9zdqii3lb'
p4770
I1
sS'exclusive'
p4771
I5
sS'midnight'
p4772
I3
sS'//t.co/njhjtc55f4'
p4773
I1
sS'sharetips'
p4774
I1
sS'platform'
p4775
I2
sS'offers'
p4776
I10
sS'binghouseofhorror'
p4777
I1
sS'//t.co/r8g85wfll5'
p4778
I1
sS'conversations'
p4779
I1
sS'term'
p4780
I1
sS'equality'
p4781
I1
sS'name'
p4782
I4
sS'clutch'
p4783
I2
sS'advent'
p4784
I12
sS'//t.co/qrbxzheqry'
p4785
I1
sS'realistic'
p4786
I1
sS'everything_bbw'
p4787
I1
sS'donated'
p4788
I1
sS'estore'
p4789
I19
sS'//t.co/obtaaj7'
p4790
I3
sS'ejaculation'
p4791
I5
sS'webinar'
p4792
I4
sS'laurie_march'
p4793
I1
sS'//t.co/vkyikcuz7r'
p4794
I1
sS'seperti'
p4795
I1
sS'factory'
p4796
I2
sS'100s'
p4797
I1
sS'//t.co/vjr6mpfjww'
p4798
I1
sS'boobs'
p4799
I6
sS'//t.co/5mki5dpxs8'
p4800
I1
sS'100.'
p4801
I1
sS'softsoap'
p4802
I1
sS'turn'
p4803
I1
sS'place'
p4804
I2
sS'//t.co/b8kjbegemv'
p4805
I1
sS'1000'
p4806
I3
sS'xo2emilee1xo'
p4807
I1
sS'//t.co/mwftn7vqga'
p4808
I1
sS'//t.co/nxqeelatiy'
p4809
I1
sS'gif'
p4810
I1
sS'bahamas'
p4811
I4
sS'white'
p4812
I2
sS'circa'
p4813
I1
sS'gives'
p4814
I1
sS'kelliher'
p4815
I1
sS'season'
p4816
I1
sS'braun'
p4817
I3
sS'cheerleading'
p4818
I1
sS'released'
p4819
I2
sS'//t.co/xzxyiz0fts'
p4820
I1
sS'//t.co/qojqsbacwy'
p4821
I1
sS'//t.co/xssmukfyxm'
p4822
I1
sS'copy'
p4823
I6
sS'//t.co/lzvulwsnl1'
p4824
I1
sS'//t.co/5eacflino1'
p4825
I1
sS'cardi'
p4826
I1
sS'r'
p4827
I3
sS'satria'
p4828
I1
sS'cards'
p4829
I3
sS'germanraagus'
p4830
I1
sS'and'
p4831
I163
sS'//t.co/ykrlzopjak'
p4832
I3
sS'//t.co/f6quqlme3u'
p4833
I1
sS'pro'
p4834
I1
sS'suspense'
p4835
I5
sS'exchanging'
p4836
I1
sS'//t.co/nl6gtcwc6i'
p4837
I1
sS'any'
p4838
I18
sS'//t.co/oflhraugtl'
p4839
I1
sS'holidaygiftguide'
p4840
I4
sS'malta'
p4841
I1
sS'//t.co/rn4q1jv5ri'
p4842
I1
sS'gotham'
p4843
I1
sS'menorahs'
p4844
I1
sS'sure'
p4845
I3
sS'//t.co/l96rrtbe7r'
p4846
I1
sS'jmyers101'
p4847
I1
sS'falls'
p4848
I2
sS'//t.co/hhzy9emwzz'
p4849
I1
sS'//t.co/aihshfqvkt'
p4850
I1
sS'//t.co/qos0ydzkqd'
p4851
I1
sS'proud'
p4852
I1
sS'playing'
p4853
I3
sS'sohh'
p4854
I1
sS'holycowdelray'
p4855
I2
sS'shauntrades'
p4856
I8
sS'//t.co/ygmirivxcj'
p4857
I1
sS'cheap'
p4858
I5
sS'tks'
p4859
I1
sS'nlf'
p4860
I1
sS'//t.co/bi2lwtsmuk'
p4861
I1
sS'//t.co/0uyzhigns5'
p4862
I2
sS'state'
p4863
I3
sS'boyle'
p4864
I2
sS'//t.co/sr3ltmykff'
p4865
I1
sS'//t.co/q5dlb21dpl'
p4866
I1
sS'beastie'
p4867
I1
sS'onlygirltips'
p4868
I2
sS'naked'
p4869
I2
sS'jokes'
p4870
I1
sS'scott'
p4871
I1
sS'pants'
p4872
I2
sS'picnic'
p4873
I1
sS'realamyfisher'
p4874
I2
sS'1923'
p4875
I1
sS'college'
p4876
I2
sS'//t.co/mqbusxjdw6'
p4877
I1
sS'//t.co/rtqyck4pi2'
p4878
I1
sS'fails'
p4879
I4
sS'cjavery24'
p4880
I2
sS'ways'
p4881
I3
sS'review'
p4882
I1
sS'pornobrazil'
p4883
I1
sS'weapons'
p4884
I1
sS'//t.co/hb81yph0xq'
p4885
I1
sS'//t.co/xyqh6u8d2x'
p4886
I1
sS'//t.co/u4mw7owxg8'
p4887
I1
sS'comp'
p4888
I6
sS'ericlee904-'
p4889
I1
sS'come'
p4890
I7
sS'//t.co/apwxjvtte8'
p4891
I1
sS'//t.co/fpb2ulfdns'
p4892
I2
sS'quiet'
p4893
I1
sS'//t.co/lzm1ar46vt'
p4894
I1
sS'duty'
p4895
I2
sS'pakistan'
p4896
I1
sS'color'
p4897
I1
sS'pop'
p4898
I4
sS'wawagiftcard'
p4899
I3
sS'65'
p4900
I2
sS'dimitri66966972'
p4901
I2
sS'//t.co/exexqvoped'
p4902
I1
sS'turkey'
p4903
I2
sS'50+'
p4904
I2
sS'howard'
p4905
I1
sS'//t.co/xig52odjvj'
p4906
I1
sS'helicopter'
p4907
I1
sS'confessions'
p4908
I1
sS'in-law'
p4909
I1
sS'500'
p4910
I3
sS'//t.co/eidxypad28'
p4911
I1
sS'//t.co/1lfkqagdxi'
p4912
I1
sS'spirit'
p4913
I1
sS'robber'
p4914
I1
sS'case'
p4915
I2
sS'hughes'
p4916
I1
sS'50k'
p4917
I1
sS'spiderman'
p4918
I1
sS'//t.co/jp2lsidbkj'
p4919
I1
sS'cash'
p4920
I4
sS'cast'
p4921
I1
sS'27yr'
p4922
I1
sS'mound'
p4923
I1
sS'slippers'
p4924
I1
sS'couples'
p4925
I1
sS'someone'
p4926
I1
sS'//t.co/zhxk6zk67s'
p4927
I1
sS'//t.co/qzuwnimznj'
p4928
I1
sS'bowl'
p4929
I2
sS'trip'
p4930
I2
sS'//t.co/zdjdjhabwt'
p4931
I1
sS'barrells'
p4932
I1
sS'events'
p4933
I2
sS'//t.co/ymfrwcqkbf'
p4934
I1
sS'teatox'
p4935
I2
sS'massivebreasts'
p4936
I1
sS'driven'
p4937
I1
sS'statue'
p4938
I1
sS'changing'
p4939
I1
sS'11-12-2014'
p4940
I1
sS'24yr'
p4941
I1
sS'without'
p4942
I2
sS'relief'
p4943
I2
sS'//t.co/tuefhzfsnx'
p4944
I1
sS'bodies'
p4945
I4
sS'when'
p4946
I9
sS'//t.co/adfwkpwu74'
p4947
I1
sS'kill'
p4948
I1
sS'blow'
p4949
I2
sS'totesport'
p4950
I1
sS'//t.co/yz04cftlym'
p4951
I1
sS'possible.'
p4952
I3
sS'rose'
p4953
I1
sS'seems'
p4954
I1
sS'except'
p4955
I1
sS'//t.co/vjtbdqgbm5'
p4956
I1
sS'blog'
p4957
I2
sS'lets'
p4958
I4
sS'styles'
p4959
I1
sS'crackas'
p4960
I1
sS'//t.co/agfji6x2jk'
p4961
I1
sS'furniture'
p4962
I1
sS'kennedy'
p4963
I3
sS'patrick'
p4964
I1
sS'bracelet'
p4965
I1
sS'tower'
p4966
I1
sS'//t.co/4wn16hiiml'
p4967
I2
sS'-publilius'
p4968
I1
sS'competition'
p4969
I37
sS'//t.co/tvzrbahiac'
p4970
I1
sS'markobyone'
p4971
I1
sS'love+help'
p4972
I1
sS'teamsyleena'
p4973
I1
sS'pause_online'
p4974
I2
sS'porter'
p4975
I1
sS'football'
p4976
I3
sS'lmfao'
p4977
I1
sS'nails'
p4978
I1
sS'worse..burned'
p4979
I1
sS'promixxmixer'
p4980
I1
sS"'the"
p4981
I1
sS'//t.co/ovz5zyzygt'
p4982
I1
sS"'bandel"
p4983
I1
sS'ok'
p4984
I1
sS'oh'
p4985
I2
sS'of'
p4986
I207
sS'//t.co/mynqobosib'
p4987
I1
sS'od'
p4988
I2
sS'stand'
p4989
I2
sS'choice..'
p4990
I1
sS'or'
p4991
I29
sS'amazinglllusion'
p4992
I1
sS'everyone'
p4993
I4
sS'accounts'
p4994
I1
sS'gary'
p4995
I1
sS'02-12-2014'
p4996
I1
sS'unisex'
p4997
I1
sS'//t.co/4amnoxwika'
p4998
I1
sS'there'
p4999
I7
sS'ferris'
p5000
I2
sS'//t.co/cgjwfgtjmy'
p5001
I1
sS'forthebros'
p5002
I1
sS'//t.co/pdtd3ihscm'
p5003
I1
sS'beda'
p5004
I1
sS'twistysexile'
p5005
I2
sS'75+'
p5006
I1
sS'//t.co/qyptrjy9lc'
p5007
I1
sS'//t.co/znjxeg0dat'
p5008
I1
sS'mehnaz'
p5009
I20
sS'taylor'
p5010
I1
sS'cinema'
p5011
I1
sS'taste'
p5012
I2
sS'minneapolis'
p5013
I1
sS'tasty'
p5014
I1
sS'aquaman3180'
p5015
I1
sS'heather'
p5016
I1
sS'roses'
p5017
I1
sS'5'
p5018
I32
sS'2/3/15'
p5019
I2
sS'championship'
p5020
I1
sS'//t.co/ezlvcr6jov'
p5021
I1
sS'topshop'
p5022
I1
sS'stocky'
p5023
I1
sS'hwy'
p5024
I1
sS'stocks'
p5025
I1
sS'lipstick'
p5026
I2
sS'barrymcosmetics'
p5027
I1
sS'wife'
p5028
I1
sS'invest'
p5029
I2
sS'odds'
p5030
I6
sS'wifi'
p5031
I2
sS'barcelona'
p5032
I1
sS'curvy'
p5033
I1
sS'bookiebashing'
p5034
I1
sS'all'
p5035
I19
sS'//t.co/tqplqa8b7s'
p5036
I1
sS'chinese'
p5037
I1
sS'earners'
p5038
I2
sS'eleonoramaison'
p5039
I2
sS'follow'
p5040
I103
sS'alt'
p5041
I1
sS'decisions'
p5042
I1
sS'//t.co/ph4yffqhvh'
p5043
I1
sS'//t.co/tdrdcvaqyq'
p5044
I1
sS'opportunities'
p5045
I1
sS'last-minute'
p5046
I2
sS'painter'
p5047
I1
sS'sportspicks'
p5048
I1
sS'woman'
p5049
I1
sS'fap'
p5050
I3
sS'fav'
p5051
I5
sS'fat'
p5052
I5
sS'spaceanswers'
p5053
I1
sS'sons'
p5054
I1
sS'fan'
p5055
I1
sS'fab'
p5056
I2
sS'//t.co/czieixieyn'
p5057
I1
sS'list'
p5058
I5
sS'tomcushnie'
p5059
I1
sS'lisa'
p5060
I2
sS'shaqtforrester'
p5061
I1
sS'//bit.ly/betfx2'
p5062
I1
sS'//t.co/allijmr2jt'
p5063
I1
sS'design'
p5064
I4
sS'nba'
p5065
I1
sS'xnxxhentai'
p5066
I1
sS'what'
p5067
I29
sS'snow-covered'
p5068
I1
sS'//t.co/iywiykmvlr'
p5069
I1
sS'pinterest'
p5070
I2
sS'sun'
p5071
I3
sS'anniversary'
p5072
I2
sS'version'
p5073
I2
sS'amazonuk'
p5074
I1
sS'guns'
p5075
I1
sS'relaxation'
p5076
I1
sS'gun,'
p5077
I1
sS'sportscenter'
p5078
I1
sS'whiskyexchange'
p5079
I1
sS'deities'
p5080
I1
sS'supplements'
p5081
I4
sS'selfiecb'
p5082
I1
sS'yummyjian'
p5083
I1
sS'guacamole'
p5084
I1
sS'//t.co/zsh4ymmvsx'
p5085
I1
sS'//t.co/5byhb3yzll'
p5086
I1
sS'//t.co/cipjju2fqq'
p5087
I1
sS'benefitbeauty'
p5088
I2
sS'diamondminecart'
p5089
I1
sS'//t.co/mop8ykmjwa'
p5090
I1
sS'remlandcarpets'
p5091
I3
sS'//t.co/llrcmrkbvv'
p5092
I1
sS'kericuhan'
p5093
I1
sS'relawan'
p5094
I1
sS'neverknownfacts'
p5095
I1
sS'knows'
p5096
I2
sS'text*'
p5097
I1
sS'mira'
p5098
I1
sS'stick'
p5099
I1
sS'glam'
p5100
I1
sS'known'
p5101
I1
sS'soasgostosas'
p5102
I2
sS'//t.co/8ljjfvt42q'
p5103
I1
sS'v'
p5104
I1
sS'//t.co/xirqs1mjgz'
p5105
I1
sS'//t.co/ssip8zkn69'
p5106
I1
sS'pony'
p5107
I1
sS'salted'
p5108
I2
sS'xbootytweets'
p5109
I2
sS'//t.co/d5s5q73rc8'
p5110
I1
sS'niagara'
p5111
I1
sS'ave'
p5112
I2
sS'airplane'
p5113
I1
sS'rather'
p5114
I5
sS'//t.co/e3p74inn8i'
p5115
I1
sS'simplicity'
p5116
I2
sS'funny.'
p5117
I1
sS'itunessunday'
p5118
I1
sS'bookies'
p5119
I4
sS'susah'
p5120
I1
sS'kissmiss_sen'
p5121
I1
sS'-http'
p5122
I1
sS'block'
p5123
I1
sS'//t.co/yr5uyzcmxf'
p5124
I1
sS'essence'
p5125
I1
sS'1bucksbaby'
p5126
I4
sS'//t.co/wrz00o5ekz'
p5127
I8
sS'loverspoint2'
p5128
I3
sS'style'
p5129
I1
sS'sukses'
p5130
I1
sS'//t.co/qy0aqmcvpz'
p5131
I1
sS'//t.co/ph3gf9g4xe'
p5132
I1
sS'teens'
p5133
I1
sS'might'
p5134
I3
sS'danielyoung100'
p5135
I1
sS'somebody'
p5136
I1
sS'thickasians'
p5137
I1
sS'most-shocking-cameltoes-in-sport'
p5138
I1
sS'14/12/14'
p5139
I1
sS'drrichardrotten'
p5140
I2
sS'blender.'
p5141
I1
sS'//t.co/xps5tccna2'
p5142
I2
sS'//t.co/du94v1oo5w'
p5143
I1
sS'//t.co/ycgffkapgw'
p5144
I3
sS'weight'
p5145
I25
sS'expect'
p5146
I1
sS'//t.co/wu7brexgmu'
p5147
I1
sS'//t.co/hpbedjgw2c'
p5148
I1
sS'hcbl'
p5149
I2
sS'//t.co/qxo5ujd7uy'
p5150
I1
sS'health'
p5151
I3
sS'hill'
p5152
I2
sS'//t.co/meysdyd3rv'
p5153
I1
sS'//t.co/zphdnnh2xn'
p5154
I1
sS'benjamin'
p5155
I2
sS'//t.co/x9c8xyqxwh'
p5156
I1
sS'gatman7'
p5157
I11
sS'friday'
p5158
I18
sS'//t.co/dt0hc0m5gu'
p5159
I1
sS'ch864'
p5160
I1
sS'ch869'
p5161
I1
sS'fortnum'
p5162
I1
sS'threat'
p5163
I1
sS'18+'
p5164
I4
sS'markharris_iom'
p5165
I1
sS'winebasket'
p5166
I1
sS'feel'
p5167
I2
sS'fancy'
p5168
I4
sS'blank'
p5169
I1
sS'//t.co/6xzyivealr'
p5170
I1
sS'blanc'
p5171
I1
sS'story'
p5172
I8
sS'pregnancywish'
p5173
I1
sS'leading'
p5174
I1
sS'storm'
p5175
I1
sS'cooltec'
p5176
I1
sS'store'
p5177
I2
sS'syrus'
p5178
I1
sS'hotel'
p5179
I1
sS'tesao'
p5180
I1
sS'because'
p5181
I3
sS'//t.co/0puaemf312'
p5182
I1
sS'king'
p5183
I2
sS'kind'
p5184
I2
sS'double'
p5185
I15
sS'1999-2014'
p5186
I1
sS'dynasty_game'
p5187
I20
sS'cost'
p5188
I1
sS'//t.co/5he3iepedj'
p5189
I1
sS'r2-d2'
p5190
I1
sS'gala'
p5191
I1
sS'//t.co/wut8focxy5'
p5192
I1
sS'lovethegarden'
p5193
I1
sS'//t.co/jl74xuehaf'
p5194
I1
sS'buff'
p5195
I1
sS'added'
p5196
I1
sS'livecam'
p5197
I6
sS'amat'
p5198
I1
sS'//t.co/stsamahgqu'
p5199
I1
sS'74'
p5200
I1
sS'72'
p5201
I1
sS'71'
p5202
I1
sS'70'
p5203
I2
sS'nothing'
p5204
I4
sS'seasons'
p5205
I1
sS'achievement'
p5206
I1
sS'//t.co/qiesjf8s1z'
p5207
I1
sS'windows'
p5208
I1
sS'lilysugarncream'
p5209
I1
sS'squirtingladies'
p5210
I1
sS'plexusworldwide'
p5211
I1
sS'ipad'
p5212
I1
sS'etsy'
p5213
I1
sS'bff'
p5214
I1
sS'google_usa2014'
p5215
I3
sS'//t.co/fyvlyfgt7y'
p5216
I1
sS'//t.co/upuljjxkpm'
p5217
I1
sS'bonniebaby_uk'
p5218
I1
sS'//t.co/st0qayteuf'
p5219
I1
sS'makeuseo'
p5220
I1
sS'hip'
p5221
I1
sS'knowtechie'
p5222
I1
sS'his'
p5223
I9
sS'hit'
p5224
I2
sS'//t.co/9ujvsovmps'
p5225
I1
sS'compiled'
p5226
I1
sS'5,000'
p5227
I6
sS'him'
p5228
I4
sS'timeless'
p5229
I1
sS'//t.co/xofyqaw07z'
p5230
I1
sS'cartoons'
p5231
I3
sS'arr'
p5232
I1
sS'art'
p5233
I2
sS'dump'
p5234
I3
sS'//t.co/09s8n2oyi6'
p5235
I10
sS'are'
p5236
I89
sS'2.0'
p5237
I2
sS'//t.co/pv3xqn6rhf'
p5238
I1
sS'nutella'
p5239
I2
sS'terampil'
p5240
I1
sS'marriage'
p5241
I2
sS'swansea'
p5242
I1
sS'//t.co/gzbvzposwl'
p5243
I1
sS'bibi'
p5244
I1
sS'creating'
p5245
I4
sS'//t.co/lhsdtqrwxm'
p5246
I1
sS'c'
p5247
I3
sS'//t.co/fhdjbo29ny'
p5248
I1
sS'arasosar'
p5249
I1
sS'8am'
p5250
I2
sS'annie'
p5251
I1
sS'reasons'
p5252
I3
sS'sweet'
p5253
I1
sS'sweep'
p5254
I1
sS'regulated'
p5255
I1
sS'//t.co/om9ytcgshm'
p5256
I2
sS'crispy'
p5257
I1
sS'//t.co/bhzu7xvijb'
p5258
I1
sS'mufcvlfc'
p5259
I1
sS'enhancements'
p5260
I1
sS'dua'
p5261
I2
sS'agromova35'
p5262
I1
sS'due'
p5263
I1
sS'//t.co/ankjgesfxy'
p5264
I1
sS'//t.co/2auvcklx46'
p5265
I1
sS'//t.co/fqngkz8g1a'
p5266
I1
sS'gym-fabulous'
p5267
I1
sS'ph'
p5268
I21
sS'//t.co/mwmabptmjl'
p5269
I1
sS'flints'
p5270
I1
sS'//t.co/smqmtpe4pk'
p5271
I1
sS'curlyhair'
p5272
I19
sS'//t.co/zc1ecvnkvi'
p5273
I1
sS'//t.co/nkzz72nrxv'
p5274
I1
sS'rio'
p5275
I1
sS'//t.co/bj5rc5lv6q'
p5276
I1
sS'9'
p5277
I6
sS'spears'
p5278
I1
sS'//t.co/dklyxlqkd8'
p5279
I1
sS'//t.co/xccj1thhxx'
p5280
I1
sS'holidays'
p5281
I4
sS'arrived'
p5282
I1
sS'lesoftperfume'
p5283
I1
sS'zizzi25daysofxmas'
p5284
I1
sS'//t.co/ddwcmkzqla'
p5285
I1
sS'anycall1390'
p5286
I1
sS'cheek'
p5287
I1
sS'love+fight'
p5288
I1
sS'b.c'
p5289
I1
sS'//t.co/pnyqmt2cci'
p5290
I1
sS'//t.co/h1zagcbo2j'
p5291
I1
sS'//t.co/0kep0yxh0z'
p5292
I1
sS'nismotechuk'
p5293
I8
sS'questions'
p5294
I3
sS'immediately'
p5295
I1
sS'warpfactorbanjo'
p5296
I3
sS'//t.co/zacnqes6b0'
p5297
I1
sS'workers'
p5298
I1
sS'exclusively'
p5299
I10
sS'contractor'
p5300
I1
sS'finder'
p5301
I1
sS'customers'
p5302
I4
sS'vendor'
p5303
I1
sS'//t.co/wzquwacxag'
p5304
I1
sS'//t.co/kfcvuzxbfo'
p5305
I1
sS'//t'
p5306
I33
sS'jailbaitnow'
p5307
I1
sS'//t.co/wsnvel8tnf'
p5308
I1
sS'lexhamhelpers'
p5309
I1
sS'ignore'
p5310
I1
sS'//t.co/3vefiw7m6h'
p5311
I1
sS'siren_voice'
p5312
I1
sS'hallmark'
p5313
I2
sS'//t.co/yrgfxbk3qv'
p5314
I1
sS'fucking'
p5315
I2
sS'traits'
p5316
I1
sS'wonderland'
p5317
I1
sS'alphonse'
p5318
I1
sS'luxe'
p5319
I2
sS'//t.co/necedntec3'
p5320
I1
sS'//t.co/dnf6ccafna'
p5321
I1
sS'antarkan'
p5322
I1
sS'seller'
p5323
I1
sS'prod'
p5324
I3
sS'bayern'
p5325
I1
sS'//t.co/6rzcaf8tw3'
p5326
I1
sS'sporty'
p5327
I1
sS'wefaptothis'
p5328
I1
sS'//t.co/83vex0ktxi'
p5329
I1
sS'//t.co/hsbvatb2gg'
p5330
I1
sS'//t.co/afnh675qfz'
p5331
I1
sS'range'
p5332
I2
sS'here..'
p5333
I1
sS'complimentary'
p5334
I1
sS'dwight'
p5335
I1
sS'12/19'
p5336
I1
sS'kopparberguk'
p5337
I1
sS'kansascity'
p5338
I1
sS'//t.co/eiazgxyjfa'
p5339
I1
sS'biglots'
p5340
I1
sS'question'
p5341
I1
sS'long'
p5342
I2
sS'lasvegas'
p5343
I1
sS'saleendssoon'
p5344
I1
sS'//t.co/jjwgrc2uoi'
p5345
I1
sS'tv619'
p5346
I1
sS'tv29'
p5347
I1
sS'powerdirector'
p5348
I1
sS'buttfuck'
p5349
I1
sS'fried'
p5350
I1
sS'called'
p5351
I1
sS'kookiie_krisp'
p5352
I1
sS'//t.co/qx8grnydsx'
p5353
I1
sS'//t.co/hfbwogsxwl'
p5354
I1
sS'//t.co/8afzv0zkiv'
p5355
I1
sS'rainy'
p5356
I1
sS'trackouts'
p5357
I2
sS'income'
p5358
I1
sS'//t.co/ddcgmyndb8'
p5359
I1
sS'kebanjiran'
p5360
I1
sS'4x4s'
p5361
I1
sS'//t.co/hzof42sfjr'
p5362
I1
sS'winalimited-edition'
p5363
I1
sS'problems'
p5364
I2
sS'terkait'
p5365
I1
sS'helping'
p5366
I2
sS'//t.co/cv9rn3jria'
p5367
I1
sS'//t.co/dbm8im6kvm'
p5368
I1
sS'245/70r17'
p5369
I1
sS'//t.co/8v8xnpoylb'
p5370
I1
sS'drjkahn'
p5371
I1
sS'suffers'
p5372
I1
sS'trydry'
p5373
I2
sS'buffalo'
p5374
I1
sS'//t.co/lkwx35um0a'
p5375
I1
sS'resistance'
p5376
I1
sS'miskin'
p5377
I1
sS'gold'
p5378
I2
sS'include'
p5379
I2
sS'//t.co/gwqh3j1aqt'
p5380
I2
sS'//t.co/kdiafwhtvz'
p5381
I4
sS'//t.co/indczkh11h'
p5382
I1
sS'drinking'
p5383
I2
sS'//t.co/lgick5ct5e'
p5384
I1
sS'//t.co/evgnpy2jzi'
p5385
I1
sS'ilikebbwdaily'
p5386
I1
sS'congrats'
p5387
I1
sS'tylerflorence'
p5388
I1
sS'//t.co/nbaewepqmb'
p5389
I1
sS'goodies'
p5390
I4
sS'plexus'
p5391
I8
sS'cfc'
p5392
I1
sS'waiting'
p5393
I10
sS'capital'
p5394
I2
sS'//t.co/g4fnpyiaqo'
p5395
I1
sS'//t.co/9sms4driu8'
p5396
I1
sS'sexy'
p5397
I13
sS'//t.co/6iiqghwa1q'
p5398
I1
sS'jonnyfootbali'
p5399
I1
sS'spiced'
p5400
I1
sS'49yr'
p5401
I1
sS'pornstar'
p5402
I4
sS'//t.co/kplzecvfvf'
p5403
I1
sS'apple'
p5404
I1
sS'spy'
p5405
I2
sS'app'
p5406
I21
sS'apply'
p5407
I2
sS'//t.co/95gdlqfw7u'
p5408
I1
sS'use'
p5409
I17
sS'lottery'
p5410
I1
sS'&'
p5411
I454
sS'//t.co/jbcxwphzxs'
p5412
I1
sS'menghilangkanya'
p5413
I1
sS'journalists'
p5414
I2
sS'//t.co/hyqjaxscdp'
p5415
I1
sS'menit-menit'
p5416
I1
sS'penis'
p5417
I1
sS'women'
p5418
I7
sS'getting'
p5419
I1
sS'//t.co/e5x5cidta8'
p5420
I1
sS'misfits'
p5421
I1
sS'//t.co/adn95b05eh'
p5422
I1
sS'//t.co/aduvyd0vxa'
p5423
I2
sS'//t.co/wxqvjy9nim'
p5424
I1
sS'artist/buinsess'
p5425
I1
sS'something'
p5426
I16
sS'tab'
p5427
I2
sS'serial'
p5428
I1
sS'onions'
p5429
I1
sS'tak'
p5430
I1
sS'united'
p5431
I13
sS'guru'
p5432
I1
sS'burnningdesire'
p5433
I1
sS'kfhunt'
p5434
I20
sS'six'
p5435
I2
sS'camille'
p5436
I1
sS'brian'
p5437
I1
sS'//t.co/lpnxuafofg'
p5438
I1
sS'mlong42947'
p5439
I3
sS'instead'
p5440
I1
sS'toddler'
p5441
I1
sS'omgitspaddy'
p5442
I2
sS'memoir'
p5443
I1
sS'attend'
p5444
I2
sS'mereka'
p5445
I1
sS'//t.co/iboc0ll1hg'
p5446
I1
sS'masks'
p5447
I1
sS'ninajaymes'
p5448
I2
sS'//t.co/xfthgjms6w'
p5449
I1
sS'taco'
p5450
I1
sS'1883'
p5451
I1
sS'1880'
p5452
I1
sS'somethin'
p5453
I1
sS'light'
p5454
I2
sS'130'
p5455
I1
sS'wawa'
p5456
I7
sS'looks'
p5457
I3
sS'tv805'
p5458
I1
sS'discoverer'
p5459
I1
sS'superior'
p5460
I1
sS'//t.co/jo3llyvcso'
p5461
I1
sS'//t.co/wtgzlzrhwl'
p5462
I1
sS'choose'
p5463
I1
sS'orange'
p5464
I2
sS'//t.co/jjeiw0sobz'
p5465
I1
sS'holiday'
p5466
I21
sS'boost-'
p5467
I1
sS'johnrfish'
p5468
I1
sS'//t.co/4f46k8tfnd'
p5469
I1
sS'invitations'
p5470
I1
sS'//t.co/6psuvgqjle'
p5471
I1
sS'worlds'
p5472
I2
sS'nfc'
p5473
I1
sS'nfl'
p5474
I3
sS'bttm'
p5475
I1
sS'//t.co/8a1hx77xna'
p5476
I1
sS'rockets'
p5477
I1
sS'trap'
p5478
I1
sS'promise'
p5479
I2
sS'method..'
p5480
I3
sS'artists'
p5481
I2
sS'//t.co/b1lnioiveg'
p5482
I1
sS'88'
p5483
I1
sS'our'
p5484
I54
sS'80'
p5485
I3
sS'out'
p5486
I64
sS'keepsake'
p5487
I1
sS'chaos'
p5488
I1
sS'//t.co/rbzyudkccu'
p5489
I1
sS'monster_eu'
p5490
I1
sS'//t.co/uqyo0ancle'
p5491
I1
sS'york'
p5492
I2
sS'bigass'
p5493
I1
sS'certifications'
p5494
I2
sS'g'
p5495
I1
sS'//t.co/ozemdybkei'
p5496
I1
sS'addicted2ajlee'
p5497
I1
sS'//t.co/itlcdiujsu'
p5498
I1
sS'//t.co/m4wgi3ffau'
p5499
I1
sS'trisna'
p5500
I5
sS'skinnygirl'
p5501
I1
sS'//t.co/ofoj0ptllc'
p5502
I1
sS'xdianna13x'
p5503
I1
sS'150+'
p5504
I1
sS'their'
p5505
I10
sS'1500'
p5506
I6
sS'//t.co/lrg8aqwo18'
p5507
I1
sS'xnxx'
p5508
I1
sS'wendell'
p5509
I1
sS'peoria'
p5510
I1
sS'//t.co/uz1snbzs2t'
p5511
I1
sS'//t.co/5txnvose0h'
p5512
I1
sS'25/12/14'
p5513
I1
sS'==='
p5514
I4
sS'bwin'
p5515
I1
sS'1.5'
p5516
I1
sS'theswsociety'
p5517
I2
sS'golife07'
p5518
I3
sS'//t.co/hjivykgmvv'
p5519
I1
sS'clik'
p5520
I2
sS'//t.co/3eb51j4xd5'
p5521
I1
sS'afraid'
p5522
I2
sS'//t.co/2ilqnyxgvh'
p5523
I1
sS'//t.co/6frjhzgxn3'
p5524
I2
sS'//t.co/o0em11o4nr'
p5525
I1
sS'which'
p5526
I2
sS'trivia'
p5527
I1
sS'='
p5528
I24
sS'skysports'
p5529
I1
sS'trunkius'
p5530
I1
sS'mavens'
p5531
I1
sS'who'
p5532
I5
sS'kallikids'
p5533
I3
sS'lingeriefriday'
p5534
I1
sS'why'
p5535
I10
sS'vitamins'
p5536
I2
sS'veuveclicquot'
p5537
I1
sS'gain'
p5538
I1
sS'chances'
p5539
I7
sS'//t.co/oexmihcwdh'
p5540
I1
sS'//t.co/tb56kcglo7'
p5541
I1
sS'//t.co/0wp8z6ksls'
p5542
I1
sS'lariat'
p5543
I2
sS'mugs'
p5544
I1
sS'rosenthal'
p5545
I1
sS'local'
p5546
I1
sS'throwbacktweet'
p5547
I1
sS'watching'
p5548
I2
sS'dope'
p5549
I3
sS'bingrewards'
p5550
I2
sS'words'
p5551
I1
sS'chips'
p5552
I5
sS'champagne'
p5553
I18
sS'//t.co/zwa5qnsjpx'
p5554
I1
sS'married'
p5555
I1
sS'//t.co/evuvwxvngd'
p5556
I1
sS'//t.co/ea2teexy5s'
p5557
I1
sS'cleavage'
p5558
I1
sS'view'
p5559
I27
sS'//t.co/iqtjex'
p5560
I1
sS'degreewomen'
p5561
I1
sS'//t.co/pdloknfg5d'
p5562
I1
sS'lexhamcompetition'
p5563
I1
sS'//t.co/aqawoyhnbc'
p5564
I1
sS'kaylakleevage'
p5565
I1
sS'closes'
p5566
I1
sS'vip'
p5567
I2
sS'monstrous'
p5568
I1
sS'//t.co/mqfkslghes'
p5569
I1
sS'bought'
p5570
I1
sS'ability'
p5571
I1
sS'opening'
p5572
I3
sS'//t.co/bkhfycpaxs'
p5573
I1
sS'job'
p5574
I1
sS'green_star1'
p5575
I8
sS'pregamepride'
p5576
I1
sS'//t.co/eeuxwhzkre'
p5577
I1
sS'//t.co/znvxzvysbd'
p5578
I1
sS"'kara"
p5579
I1
sS'//t.co/bsg9zxe1jk'
p5580
I1
sS'april'
p5581
I2
sS'johnthunder'
p5582
I1
sS'e-gold'
p5583
I1
sS'super6'
p5584
I1
sS'lemonchronicle'
p5585
I3
sS'wall'
p5586
I3
sS'antioxidant'
p5587
I1
sS'walk'
p5588
I2
sS'subscribe'
p5589
I1
sS'table'
p5590
I2
sS'smartlabtoys'
p5591
I3
sS'//t.co/fs8mt7uxa3'
p5592
I1
sS'gopro'
p5593
I1
sS'bbw'
p5594
I2
sS'gr88'
p5595
I2
sS'liverpool'
p5596
I1
sS'gun+cops'
p5597
I1
sS'//t.co/b0kz14kxqq'
p5598
I1
sS'jobown2277'
p5599
I1
sS'present'
p5600
I1
sS'will'
p5601
I37
sS'//t.co/c0otnanvbi'
p5602
I1
sS'~'
p5603
I1
sS'traciepodger'
p5604
I2
sS'shamsamjadji'
p5605
I1
sS'//t.co/wkgx'
p5606
I1
sS'//t.co/ulydnsya4v'
p5607
I1
sS'queen_v1216'
p5608
I8
sS'cross'
p5609
I1
sS'largest'
p5610
I1
sS'lovecolorbar'
p5611
I20
sS'gets'
p5612
I2
sS'biencalmex'
p5613
I1
sS'promo'
p5614
I10
sS'premiere'
p5615
I1
sS'disagree'
p5616
I1
sS'//t.co/8sfwb3iser'
p5617
I1
sS'fighting'
p5618
I1
sS'farmgirllily'
p5619
I2
sS'english'
p5620
I1
sS'//t.co/yqggmhcv6g'
p5621
I1
sS'//t.co/rgs0xfes85'
p5622
I1
sS'rocket'
p5623
I3
sS'//t.co/uoo0ygpvqh'
p5624
I3
sS'half'
p5625
I1
sS'skincare'
p5626
I1
sS'12daysofkeurig'
p5627
I2
sS'happiness'
p5628
I1
sS'console'
p5629
I1
sS'smith'
p5630
I1
sS'//t.co/x6vwrza9ad'
p5631
I1
sS'book'
p5632
I4
sS'12.9.14'
p5633
I1
sS'wont'
p5634
I1
sS'branch'
p5635
I1
sS'//t.co/rcouwzi4vh'
p5636
I1
sS'//t.co/7ul3fsixmg'
p5637
I20
sS'//t.co/gig0ohbqht'
p5638
I1
sS'//t.co/mwiacckn79'
p5639
I1
sS'know'
p5640
I27
sS'press'
p5641
I1
sS'miami'
p5642
I1
sS'corners'
p5643
I1
sS'12/18'
p5644
I2
sS'nigga'
p5645
I3
sS'chatrooms'
p5646
I1
sS'12/12'
p5647
I1
sS'scared'
p5648
I1
sS'searching'
p5649
I1
sS'12/14'
p5650
I4
sS'12/15'
p5651
I1
sS'tv868'
p5652
I1
sS'star'
p5653
I1
sS'caradelevingne'
p5654
I1
sS'leaf'
p5655
I7
sS'alanireland1972'
p5656
I2
sS'14th'
p5657
I5
sS'beautyspotteruk'
p5658
I1
sS'earrings'
p5659
I1
sS'islamipakistan'
p5660
I1
sS'//t.co/yza28pv9bc'
p5661
I1
sS'jobwinstonsalem'
p5662
I1
sS'slut'
p5663
I1
sS'mamasmoney'
p5664
I2
sS'pasti'
p5665
I1
sS'//t.co/gmo7ai61qj'
p5666
I1
sS'undressmygfxxx'
p5667
I6
sS'//t.co/i8itfkp1qs'
p5668
I1
sS'shipping'
p5669
I3
sS'datpiff'
p5670
I2
sS'//t.co/rarfxepjhz'
p5671
I1
sS'own'
p5672
I12
sS'//t.co/wufejfcioo'
p5673
I3
sS'markboffo'
p5674
I1
sS'80+gold'
p5675
I1
sS'weather'
p5676
I1
sS'//t.co/cid3kglz50'
p5677
I1
sS'brush'
p5678
I1
sS'van'
p5679
I2
sS'posters'
p5680
I1
sS'bettingtips'
p5681
I1
sS'followme'
p5682
I1
sS'funds'
p5683
I1
sS'granny'
p5684
I3
sS'fishisthedish'
p5685
I1
sS'below'
p5686
I1
sS'slips'
p5687
I3
sS'67352'
p5688
I1
sS'//t.co/fxuneklffl'
p5689
I1
sS'//t.co/w5862dob1m'
p5690
I6
sS"'ll"
p5691
I16
sS'percent'
p5692
I2
sS'fire'
p5693
I2
sS'other'
p5694
I3
sS'sick'
p5695
I2
sS'booo'
p5696
I1
sS'boob'
p5697
I4
sS"'14"
p5698
I1
sS'//t.co/zsc25tjc6q'
p5699
I1
sS'39.99'
p5700
I2
sS'1direction_x'
p5701
I10
sS'booteafitness'
p5702
I1
sS'jrstws'
p5703
I3
sS'beautymartuk'
p5704
I2
sS'freesamp'
p5705
I1
sS'27-11-2014'
p5706
I1
sS'thesbsociety'
p5707
I2
sS'lady_lovesbooks'
p5708
I1
s.