(lp0
S'pennywisemama'
p1
a(lp2
ccopy_reg
_reconstructor
p3
(ctwitter.status
Status
p4
c__builtin__
object
p5
Ntp6
Rp7
(dp8
S'_favorite_count'
p9
I0
sS'_location'
p10
NsS'_withheld_scope'
p11
NsS'hashtags'
p12
(lp13
g3
(ctwitter.hashtag
Hashtag
p14
g5
Ntp15
Rp16
(dp17
S'text'
p18
VTollHouseTime
p19
sbag3
(g14
g5
Ntp20
Rp21
(dp22
g18
Vsp
p23
sbasS'_truncated'
p24
I00
sS'_retweeted_status'
p25
NsS'_withheld_copyright'
p26
NsS'media'
p27
(lp28
sS'_place'
p29
NsS'_contributors'
p30
NsS'_current_user_retweet'
p31
NsS'_created_at'
p32
VSat Dec 13 19:49:07 +0000 2014
p33
sS'_scopes'
p34
NsS'_possibly_sensitive'
p35
I00
sS'_in_reply_to_screen_name'
p36
NsS'_coordinates'
p37
NsS'_in_reply_to_user_id'
p38
NsS'_geo'
p39
NsS'_favorited'
p40
I00
sS'_withheld_in_countries'
p41
NsS'user_mentions'
p42
(lp43
g3
(ctwitter.user
User
p44
g5
Ntp45
Rp46
(dp47
g10
NsS'_profile_text_color'
p48
NsS'_lang'
p49
NsS'_time_zone'
p50
NsS'_followers_count'
p51
NsS'_statuses_count'
p52
Nsg32
NsS'_verified'
p53
NsS'_description'
p54
NsS'_profile_image_url'
p55
NsS'_friends_count'
p56
NsS'_favourites_count'
p57
NsS'_utc_offset'
p58
NsS'_status'
p59
NsS'_protected'
p60
NsS'_profile_banner_url'
p61
NsS'_notifications'
p62
NsS'_profile_background_tile'
p63
NsS'_profile_link_color'
p64
NsS'_geo_enabled'
p65
NsS'_contributors_enabled'
p66
NsS'_profile_background_image_url'
p67
NsS'_screen_name'
p68
VNestleTollHouse
p69
sS'_listed_count'
p70
NsS'_name'
p71
VNestle Toll House
p72
sS'_profile_sidebar_fill_color'
p73
NsS'_url'
p74
NsS'_id'
p75
I386487041
sS'_profile_background_color'
p76
NsbasS'_now'
p77
NsS'_id_str'
p78
NsS'_in_reply_to_status_id'
p79
NsS'_text'
p80
VBaking cookies has never been easier with @NestleTollHouse Cookie Dough Sheets! http://t.co/Qf32qiEtmr #TollHouseTime #sp
p81
sS'_retweeted'
p82
I00
sS'lang'
p83
Ven
p84
sS'_user'
p85
g3
(g44
g5
Ntp86
Rp87
(dp88
g10
VCO
p89
sg48
V666666
p90
sg49
Ven
p91
sg50
VMountain Time (US & Canada)
p92
sg51
I10285
sg52
I4472
sg32
VThu Oct 07 04:18:57 +0000 2010
p93
sg53
I00
sg54
VMom of 3. Blogger. Brand Ambassador. Passionate about Family, Food, Fitness, & Frugal Living.
p94
sg55
Vhttps://pbs.twimg.com/profile_images/477328217913569282/PNG0uVxz_normal.png
p95
sg56
I5635
sg57
I58
sg58
I-25200
sg59
Nsg60
I00
sg61
Nsg62
I00
sg63
I00
sg64
V2FC2EF
p96
sg65
I00
sg66
I00
sg67
Vhttp://abs.twimg.com/images/themes/theme9/bg.gif
p97
sg68
Vpennywisemama
p98
sg70
I60
sg71
VMarisa
p99
sg73
V252429
p100
sg74
Vhttp://t.co/uswr5s7pL6
p101
sg75
I199551313
sg76
V1A1B1F
p102
sbsS'_retweet_count'
p103
I0
sS'_source'
p104
V<a href="http://twitter.com" rel="nofollow">Twitter Web Client</a>
p105
sS'urls'
p106
(lp107
g3
(ctwitter.url
Url
p108
g5
Ntp109
Rp110
(dp111
S'url'
p112
Vhttp://t.co/Qf32qiEtmr
p113
sS'expanded_url'
p114
Vhttp://ooh.li/5d71545
p115
sbasg75
I543855153011372032
sbag3
(g4
g5
Ntp116
Rp117
(dp118
g9
I0
sg10
Nsg11
Nsg12
(lp119
sg24
I00
sg25
g3
(g4
g5
Ntp120
Rp121
(dp122
g9
I1
sg10
Nsg11
Nsg12
(lp123
sg24
I00
sg25
Nsg26
Nsg27
(lp124
sg29
Nsg30
Nsg31
Nsg32
VWed Dec 10 16:42:31 +0000 2014
p125
sg34
Nsg35
I00
sg36
Nsg37
Nsg38
Nsg39
Nsg40
I00
sg41
Nsg42
(lp126
g3
(g44
g5
Ntp127
Rp128
(dp129
g10
Nsg48
Nsg49
Nsg50
Nsg51
Nsg52
Nsg32
Nsg53
Nsg54
Nsg55
Nsg56
Nsg57
Nsg58
Nsg59
Nsg60
Nsg61
Nsg62
Nsg63
Nsg64
Nsg65
Nsg66
Nsg67
Nsg68
Vpennywisemama
p130
sg70
Nsg71
VMarisa
p131
sg73
Nsg74
Nsg75
I199551313
sg76
Nsbasg77
Nsg78
Nsg79
Nsg80
VAdorable Reindeer Cupcakes - The PennyWiseMama http://t.co/mYhLBYJTPm via @pennywisemama
p132
sg82
I00
sg83
Ven
p133
sg85
g3
(g44
g5
Ntp134
Rp135
(dp136
g10
VChatham, IL
p137
sg48
V333333
p138
sg49
Ven
p139
sg50
VCentral Time (US & Canada)
p140
sg51
I4043
sg52
I9268
sg32
VWed May 06 03:59:23 +0000 2009
p141
sg53
I00
sg54
VI'm Kasey - a wife, mom, daycare provider and blogger all wrapped up into one. I share my daily life, family, recipes, reviews on my blog, All Things Mamma!
p142
sg55
Vhttps://pbs.twimg.com/profile_images/378800000661587865/c68f4d6b87603f58dd52e5fc782c1c70_normal.jpeg
p143
sg56
I4065
sg57
I141
sg58
I-21600
sg59
Nsg60
I00
sg61
Vhttps://pbs.twimg.com/profile_banners/38108873/1409686433
p144
sg62
I00
sg63
I01
sg64
V4A6285
p145
sg65
I01
sg66
I00
sg67
Vhttp://pbs.twimg.com/profile_background_images/378800000167477347/6tH6XW2g.jpeg
p146
sg68
VAllThingsMamma
p147
sg70
I150
sg71
VKasey Schwartz
p148
sg73
VB2D6D1
p149
sg74
Vhttp://t.co/3bkCbBNJIo
p150
sg75
I38108873
sg76
VEFEFEF
p151
sbsg103
I1
sg104
V<a href="https://dev.twitter.com/docs/tfw" rel="nofollow">Twitter for Websites</a>
p152
sg106
(lp153
g3
(g108
g5
Ntp154
Rp155
(dp156
g112
Vhttp://t.co/mYhLBYJTPm
p157
sg114
Vhttp://thepennywisemama.com/2014/11/adorable-reindeer-cupcakes.html
p158
sbasg75
I542721030658084864
sbsg26
Nsg27
(lp159
sg29
Nsg30
Nsg31
Nsg32
VSat Dec 13 05:49:45 +0000 2014
p160
sg34
Nsg35
I00
sg36
Nsg37
Nsg38
Nsg39
Nsg40
I00
sg41
Nsg42
(lp161
g3
(g44
g5
Ntp162
Rp163
(dp164
g10
Nsg48
Nsg49
Nsg50
Nsg51
Nsg52
Nsg32
Nsg53
Nsg54
Nsg55
Nsg56
Nsg57
Nsg58
Nsg59
Nsg60
Nsg61
Nsg62
Nsg63
Nsg64
Nsg65
Nsg66
Nsg67
Nsg68
VAllThingsMamma
p165
sg70
Nsg71
VKasey Schwartz
p166
sg73
Nsg74
Nsg75
I38108873
sg76
Nsbag3
(g44
g5
Ntp167
Rp168
(dp169
g10
Nsg48
Nsg49
Nsg50
Nsg51
Nsg52
Nsg32
Nsg53
Nsg54
Nsg55
Nsg56
Nsg57
Nsg58
Nsg59
Nsg60
Nsg61
Nsg62
Nsg63
Nsg64
Nsg65
Nsg66
Nsg67
Nsg68
Vpennywisemama
p170
sg70
Nsg71
VMarisa
p171
sg73
Nsg74
Nsg75
I199551313
sg76
Nsbasg77
Nsg78
Nsg79
Nsg80
VRT @AllThingsMamma: Adorable Reindeer Cupcakes - The PennyWiseMama http://t.co/mYhLBYJTPm via @pennywisemama
p172
sg82
I00
sg83
Ven
p173
sg85
g3
(g44
g5
Ntp174
Rp175
(dp176
g10
VCO
p177
sg48
V666666
p178
sg49
Ven
p179
sg50
VMountain Time (US & Canada)
p180
sg51
I10285
sg52
I4472
sg32
VThu Oct 07 04:18:57 +0000 2010
p181
sg53
I00
sg54
VMom of 3. Blogger. Brand Ambassador. Passionate about Family, Food, Fitness, & Frugal Living.
p182
sg55
Vhttps://pbs.twimg.com/profile_images/477328217913569282/PNG0uVxz_normal.png
p183
sg56
I5635
sg57
I58
sg58
I-25200
sg59
Nsg60
I00
sg61
Nsg62
I00
sg63
I00
sg64
V2FC2EF
p184
sg65
I00
sg66
I00
sg67
Vhttp://abs.twimg.com/images/themes/theme9/bg.gif
p185
sg68
Vpennywisemama
p186
sg70
I60
sg71
VMarisa
p187
sg73
V252429
p188
sg74
Vhttp://t.co/uswr5s7pL6
p189
sg75
I199551313
sg76
V1A1B1F
p190
sbsg103
I1
sg104
V<a href="http://twitter.com/download/iphone" rel="nofollow">Twitter for iPhone</a>
p191
sg106
(lp192
g3
(g108
g5
Ntp193
Rp194
(dp195
g112
Vhttp://t.co/mYhLBYJTPm
p196
sg114
Vhttp://thepennywisemama.com/2014/11/adorable-reindeer-cupcakes.html
p197
sbasg75
I543643917510397952
sbag3
(g4
g5
Ntp198
Rp199
(dp200
g9
I0
sg10
Nsg11
Nsg12
(lp201
g3
(g14
g5
Ntp202
Rp203
(dp204
g18
VCrushtheCups
p205
sbag3
(g14
g5
Ntp206
Rp207
(dp208
g18
Vwin
p209
sbag3
(g14
g5
Ntp210
Rp211
(dp212
g18
Vsp
p213
sbasg24
I00
sg25
g3
(g4
g5
Ntp214
Rp215
(dp216
g9
I0
sg10
Nsg11
Nsg12
(lp217
g3
(g14
g5
Ntp218
Rp219
(dp220
g18
VCrushtheCups
p221
sbag3
(g14
g5
Ntp222
Rp223
(dp224
g18
Vwin
p225
sbag3
(g14
g5
Ntp226
Rp227
(dp228
g18
Vsp
p229
sbasg24
I00
sg25
Nsg26
Nsg27
(lp230
sg29
Nsg30
Nsg31
Nsg32
VThu Dec 11 21:46:06 +0000 2014
p231
sg34
Nsg35
I00
sg36
Nsg37
Nsg38
Nsg39
Nsg40
I00
sg41
Nsg42
(lp232
g3
(g44
g5
Ntp233
Rp234
(dp235
g10
Nsg48
Nsg49
Nsg50
Nsg51
Nsg52
Nsg32
Nsg53
Nsg54
Nsg55
Nsg56
Nsg57
Nsg58
Nsg59
Nsg60
Nsg61
Nsg62
Nsg63
Nsg64
Nsg65
Nsg66
Nsg67
Nsg68
VCameronsCoffee
p236
sg70
Nsg71
VCameron's Coffee
p237
sg73
Nsg74
Nsg75
I240412108
sg76
Nsbasg77
Nsg78
Nsg79
Nsg80
VCreate a creative #CrushtheCups video to #win a year of @CameronsCoffee for or a trip to Hawaii! http://t.co/V3tgCuutPH #sp
p238
sg82
I00
sg83
Ven
p239
sg85
g3
(g44
g5
Ntp240
Rp241
(dp242
g10
V
p243
sg48
V333333
p244
sg49
Ven
p245
sg50
Nsg51
I1240
sg52
I4881
sg32
VSat Nov 16 17:10:36 +0000 2013
p246
sg53
I00
sg54
VA blended family\u2019s adventures in homeschooling, sensory processing, natural living & personal experiences.
p247
sg55
Vhttps://pbs.twimg.com/profile_images/378800000764199405/8c0a41a8d0b068bd1cbb872b86530f81_normal.jpeg
p248
sg56
I1724
sg57
I973
sg58
Nsg59
Nsg60
I00
sg61
Nsg62
I00
sg63
I00
sg64
V0084B4
p249
sg65
I00
sg66
I00
sg67
Vhttp://abs.twimg.com/images/themes/theme1/bg.png
p250
sg68
Vlemonlimeadv
p251
sg70
I38
sg71
VDayna
p252
sg73
VDDEEF6
p253
sg74
Vhttp://t.co/fT2gBvrviR
p254
sg75
I2198081792
sg76
VC0DEED
p255
sbsg103
I20
sg104
V<a href="http://bufferapp.com" rel="nofollow">Buffer</a>
p256
sg106
(lp257
g3
(g108
g5
Ntp258
Rp259
(dp260
g112
Vhttp://t.co/V3tgCuutPH
p261
sg114
Vhttp://buff.ly/1yC1leF
p262
sbasg75
I543159815552655360
sbsg26
Nsg27
(lp263
sg29
Nsg30
Nsg31
Nsg32
VSat Dec 13 04:23:27 +0000 2014
p264
sg34
Nsg35
I00
sg36
Nsg37
Nsg38
Nsg39
Nsg40
I00
sg41
Nsg42
(lp265
g3
(g44
g5
Ntp266
Rp267
(dp268
g10
Nsg48
Nsg49
Nsg50
Nsg51
Nsg52
Nsg32
Nsg53
Nsg54
Nsg55
Nsg56
Nsg57
Nsg58
Nsg59
Nsg60
Nsg61
Nsg62
Nsg63
Nsg64
Nsg65
Nsg66
Nsg67
Nsg68
Vlemonlimeadv
p269
sg70
Nsg71
VDayna
p270
sg73
Nsg74
Nsg75
I2198081792
sg76
Nsbag3
(g44
g5
Ntp271
Rp272
(dp273
g10
Nsg48
Nsg49
Nsg50
Nsg51
Nsg52
Nsg32
Nsg53
Nsg54
Nsg55
Nsg56
Nsg57
Nsg58
Nsg59
Nsg60
Nsg61
Nsg62
Nsg63
Nsg64
Nsg65
Nsg66
Nsg67
Nsg68
VCameronsCoffee
p274
sg70
Nsg71
VCameron's Coffee
p275
sg73
Nsg74
Nsg75
I240412108
sg76
Nsbasg77
Nsg78
Nsg79
Nsg80
VRT @lemonlimeadv: Create a creative #CrushtheCups video to #win a year of @CameronsCoffee for or a trip to Hawaii! http://t.co/V3tgCuutPH #\u2026
p276
sg82
I00
sg83
Ven
p277
sg85
g3
(g44
g5
Ntp278
Rp279
(dp280
g10
VCO
p281
sg48
V666666
p282
sg49
Ven
p283
sg50
VMountain Time (US & Canada)
p284
sg51
I10285
sg52
I4472
sg32
VThu Oct 07 04:18:57 +0000 2010
p285
sg53
I00
sg54
VMom of 3. Blogger. Brand Ambassador. Passionate about Family, Food, Fitness, & Frugal Living.
p286
sg55
Vhttps://pbs.twimg.com/profile_images/477328217913569282/PNG0uVxz_normal.png
p287
sg56
I5635
sg57
I58
sg58
I-25200
sg59
Nsg60
I00
sg61
Nsg62
I00
sg63
I00
sg64
V2FC2EF
p288
sg65
I00
sg66
I00
sg67
Vhttp://abs.twimg.com/images/themes/theme9/bg.gif
p289
sg68
Vpennywisemama
p290
sg70
I60
sg71
VMarisa
p291
sg73
V252429
p292
sg74
Vhttp://t.co/uswr5s7pL6
p293
sg75
I199551313
sg76
V1A1B1F
p294
sbsg103
I20
sg104
V<a href="https://mobile.twitter.com" rel="nofollow">Mobile Web (M5)</a>
p295
sg106
(lp296
g3
(g108
g5
Ntp297
Rp298
(dp299
g112
Vhttp://t.co/V3tgCuutPH
p300
sg114
Vhttp://buff.ly/1yC1leF
p301
sbasg75
I543622201685995520
sbag3
(g4
g5
Ntp302
Rp303
(dp304
g9
I0
sg10
Nsg11
Nsg12
(lp305
g3
(g14
g5
Ntp306
Rp307
(dp308
g18
Vjoy
p309
sbag3
(g14
g5
Ntp310
Rp311
(dp312
g18
VAd
p313
sbag3
(g14
g5
Ntp314
Rp315
(dp316
g18
Vgiveaway
p317
sbasg24
I00
sg25
g3
(g4
g5
Ntp318
Rp319
(dp320
g9
I0
sg10
Nsg11
Nsg12
(lp321
g3
(g14
g5
Ntp322
Rp323
(dp324
g18
Vjoy
p325
sbag3
(g14
g5
Ntp326
Rp327
(dp328
g18
VAd
p329
sbag3
(g14
g5
Ntp330
Rp331
(dp332
g18
Vgiveaway
p333
sbasg24
I00
sg25
Nsg26
Nsg27
(lp334
sg29
Nsg30
Nsg31
Nsg32
VThu Dec 11 21:53:44 +0000 2014
p335
sg34
Nsg35
I00
sg36
Nsg37
Nsg38
Nsg39
Nsg40
I00
sg41
Nsg42
(lp336
g3
(g44
g5
Ntp337
Rp338
(dp339
g10
Nsg48
Nsg49
Nsg50
Nsg51
Nsg52
Nsg32
Nsg53
Nsg54
Nsg55
Nsg56
Nsg57
Nsg58
Nsg59
Nsg60
Nsg61
Nsg62
Nsg63
Nsg64
Nsg65
Nsg66
Nsg67
Nsg68
VSOYJOYUS
p340
sg70
Nsg71
VSOYJOYUS
p341
sg73
Nsg74
Nsg75
I194587331
sg76
Nsbasg77
Nsg78
Nsg79
Nsg80
VWhat brings you #joy? Tell me on the blog for your chance to win a @SOYJOYUS prize pack! #Ad http://t.co/PZuUHit3hd #giveaway
p342
sg82
I00
sg83
Ven
p343
sg85
g3
(g44
g5
Ntp344
Rp345
(dp346
g10
VCentral Florida
p347
sg48
V333333
p348
sg49
Ven
p349
sg50
VEastern Time (US & Canada)
p350
sg51
I31771
sg52
I41959
sg32
VThu Aug 13 03:20:16 +0000 2009
p351
sg53
I00
sg54
VMom #blogger, Crafter, Social Media Junkie, Party Planner, Deal Hunter, #PRFriendly, Mother of 2, #Disney Lover & Writer. Headed to #DisneySMMoms
p352
sg55
Vhttps://pbs.twimg.com/profile_images/3254820892/495689f7109c9714f2e12bbb06b3a8bf_normal.jpeg
p353
sg56
I19505
sg57
I53
sg58
I-18000
sg59
Nsg60
I00
sg61
Vhttps://pbs.twimg.com/profile_banners/65258793/1360898126
p354
sg62
I00
sg63
I00
sg64
VD9296F
p355
sg65
I01
sg66
I00
sg67
Vhttp://pbs.twimg.com/profile_background_images/538349206/Twitter_bground_copy.jpg
p356
sg68
VSuburbanMomClub
p357
sg70
I511
sg71
VJen 
p358
sg73
VDADEF5
p359
sg74
Vhttp://t.co/ShOhM2KljP
p360
sg75
I65258793
sg76
VCFE2F0
p361
sbsg103
I20
sg104
V<a href="http://twitter.com" rel="nofollow">Twitter Web Client</a>
p362
sg106
(lp363
g3
(g108
g5
Ntp364
Rp365
(dp366
g112
Vhttp://t.co/PZuUHit3hd
p367
sg114
Vhttp://www.thesuburbanmom.com/2014/12/11/find-joy
p368
sbasg75
I543161737525329920
sbsg26
Nsg27
(lp369
sg29
Nsg30
Nsg31
Nsg32
VSat Dec 13 04:23:15 +0000 2014
p370
sg34
Nsg35
I00
sg36
Nsg37
Nsg38
Nsg39
Nsg40
I00
sg41
Nsg42
(lp371
g3
(g44
g5
Ntp372
Rp373
(dp374
g10
Nsg48
Nsg49
Nsg50
Nsg51
Nsg52
Nsg32
Nsg53
Nsg54
Nsg55
Nsg56
Nsg57
Nsg58
Nsg59
Nsg60
Nsg61
Nsg62
Nsg63
Nsg64
Nsg65
Nsg66
Nsg67
Nsg68
VSuburbanMomClub
p375
sg70
Nsg71
VJen 
p376
sg73
Nsg74
Nsg75
I65258793
sg76
Nsbag3
(g44
g5
Ntp377
Rp378
(dp379
g10
Nsg48
Nsg49
Nsg50
Nsg51
Nsg52
Nsg32
Nsg53
Nsg54
Nsg55
Nsg56
Nsg57
Nsg58
Nsg59
Nsg60
Nsg61
Nsg62
Nsg63
Nsg64
Nsg65
Nsg66
Nsg67
Nsg68
VSOYJOYUS
p380
sg70
Nsg71
VSOYJOYUS
p381
sg73
Nsg74
Nsg75
I194587331
sg76
Nsbasg77
Nsg78
Nsg79
Nsg80
VRT @SuburbanMomClub: What brings you #joy? Tell me on the blog for your chance to win a @SOYJOYUS prize pack! #Ad http://t.co/PZuUHit3hd #g\u2026
p382
sg82
I00
sg83
Ven
p383
sg85
g3
(g44
g5
Ntp384
Rp385
(dp386
g10
VCO
p387
sg48
V666666
p388
sg49
Ven
p389
sg50
VMountain Time (US & Canada)
p390
sg51
I10285
sg52
I4472
sg32
VThu Oct 07 04:18:57 +0000 2010
p391
sg53
I00
sg54
VMom of 3. Blogger. Brand Ambassador. Passionate about Family, Food, Fitness, & Frugal Living.
p392
sg55
Vhttps://pbs.twimg.com/profile_images/477328217913569282/PNG0uVxz_normal.png
p393
sg56
I5635
sg57
I58
sg58
I-25200
sg59
Nsg60
I00
sg61
Nsg62
I00
sg63
I00
sg64
V2FC2EF
p394
sg65
I00
sg66
I00
sg67
Vhttp://abs.twimg.com/images/themes/theme9/bg.gif
p395
sg68
Vpennywisemama
p396
sg70
I60
sg71
VMarisa
p397
sg73
V252429
p398
sg74
Vhttp://t.co/uswr5s7pL6
p399
sg75
I199551313
sg76
V1A1B1F
p400
sbsg103
I20
sg104
V<a href="https://mobile.twitter.com" rel="nofollow">Mobile Web (M5)</a>
p401
sg106
(lp402
g3
(g108
g5
Ntp403
Rp404
(dp405
g112
Vhttp://t.co/PZuUHit3hd
p406
sg114
Vhttp://www.thesuburbanmom.com/2014/12/11/find-joy
p407
sbasg75
I543622152180617216
sbag3
(g4
g5
Ntp408
Rp409
(dp410
g9
I0
sg10
Nsg11
Nsg12
(lp411
g3
(g14
g5
Ntp412
Rp413
(dp414
g18
Vringspiration
p415
sbasg24
I00
sg25
g3
(g4
g5
Ntp416
Rp417
(dp418
g9
I0
sg10
Nsg11
Nsg12
(lp419
g3
(g14
g5
Ntp420
Rp421
(dp422
g18
Vringspiration
p423
sbasg24
I00
sg25
Nsg26
Nsg27
(lp424
(dp425
Vexpanded_url
p426
Vhttp://twitter.com/MomSpotted/status/543156007514701824/photo/1
p427
sVdisplay_url
p428
Vpic.twitter.com/mYlRtSwr6q
p429
sVurl
p430
Vhttp://t.co/mYlRtSwr6q
p431
sVmedia_url_https
p432
Vhttps://pbs.twimg.com/media/B4mtgpoCYAAhRzY.png
p433
sVid_str
p434
V543156006516056064
p435
sVsizes
p436
(dp437
Vlarge
p438
(dp439
Vh
p440
I355
sVresize
p441
Vfit
p442
sVw
p443
I934
ssVsmall
p444
(dp445
Vh
p446
I129
sVresize
p447
Vfit
p448
sVw
p449
I340
ssVmedium
p450
(dp451
Vh
p452
I228
sVresize
p453
Vfit
p454
sVw
p455
I600
ssVthumb
p456
(dp457
Vh
p458
I150
sVresize
p459
Vcrop
p460
sVw
p461
I150
sssVindices
p462
(lp463
I93
aI115
asVtype
p464
Vphoto
p465
sVid
p466
I543156006516056064
sVmedia_url
p467
Vhttp://pbs.twimg.com/media/B4mtgpoCYAAhRzY.png
p468
sasg29
(dp469
Vfull_name
p470
VEasthampton, MA
p471
sVurl
p472
Vhttps://api.twitter.com/1.1/geo/id/6cfe9bd7210b0a2b.json
p473
sVcountry
p474
VUnited States
p475
sVplace_type
p476
Vcity
p477
sVbounding_box
p478
(dp479
Vtype
p480
VPolygon
p481
sVcoordinates
p482
(lp483
(lp484
(lp485
F-72.736613
aF42.223205
aa(lp486
F-72.614108
aF42.223205
aa(lp487
F-72.614108
aF42.291787
aa(lp488
F-72.736613
aF42.291787
aaassVcontained_within
p489
(lp490
sVcountry_code
p491
VUS
p492
sVattributes
p493
(dp494
sVid
p495
V6cfe9bd7210b0a2b
p496
sVname
p497
VEasthampton
p498
ssg30
Nsg31
Nsg32
VThu Dec 11 21:30:58 +0000 2014
p499
sg34
Nsg35
I00
sg36
Nsg37
Nsg38
Nsg39
Nsg40
I00
sg41
Nsg42
(lp500
g3
(g44
g5
Ntp501
Rp502
(dp503
g10
Nsg48
Nsg49
Nsg50
Nsg51
Nsg52
Nsg32
Nsg53
Nsg54
Nsg55
Nsg56
Nsg57
Nsg58
Nsg59
Nsg60
Nsg61
Nsg62
Nsg63
Nsg64
Nsg65
Nsg66
Nsg67
Nsg68
VJostens
p504
sg70
Nsg71
VJostens
p505
sg73
Nsg74
Nsg75
I18698751
sg76
Nsbasg77
Nsg78
Nsg79
Nsg80
VFind the Perfect Class Ring for Your Child at @Jostens #ringspiration http://t.co/KXOOAPK3TA http://t.co/mYlRtSwr6q
p506
sg82
I00
sg83
Ven
p507
sg85
g3
(g44
g5
Ntp508
Rp509
(dp510
g10
VWestern MA
p511
sg48
V3E4415
p512
sg49
Ven
p513
sg50
VEastern Time (US & Canada)
p514
sg51
I13243
sg52
I26205
sg32
VSun Jan 25 23:46:06 +0000 2009
p515
sg53
I00
sg54
V33, married mom of 3 boys! I love travel, photography, & cooking! I am also on a fitness journey to get healthy! #westernma #blogger #ambassador #cook #mom
p516
sg55
Vhttps://pbs.twimg.com/profile_images/524463789291237376/opBcl2TU_normal.jpeg
p517
sg56
I2636
sg57
I89
sg58
I-18000
sg59
Nsg60
I00
sg61
Vhttps://pbs.twimg.com/profile_banners/19511300/1417837589
p518
sg62
I00
sg63
I01
sg64
VC94A6C
p519
sg65
I01
sg66
I00
sg67
Vhttp://pbs.twimg.com/profile_background_images/378800000060068931/429993313fd14404879b414a520bbd26.png
p520
sg68
VMomSpotted
p521
sg70
I279
sg71
VJennifer
p522
sg73
V99CC33
p523
sg74
Vhttp://t.co/7vlj3ZjZKV
p524
sg75
I19511300
sg76
V70396C
p525
sbsg103
I19
sg104
V<a href="http://twitter.com" rel="nofollow">Twitter Web Client</a>
p526
sg106
(lp527
g3
(g108
g5
Ntp528
Rp529
(dp530
g112
Vhttp://t.co/KXOOAPK3TA
p531
sg114
Vhttp://momspotted.com/2014/12/find-perfect-class-ring-child-jostens-ringspiration.html
p532
sbasg75
I543156007514701824
sbsg26
Nsg27
(lp533
(dp534
Vsource_user_id
p535
I19511300
sVsource_status_id_str
p536
V543156007514701824
p537
sVexpanded_url
p538
Vhttp://twitter.com/MomSpotted/status/543156007514701824/photo/1
p539
sVdisplay_url
p540
Vpic.twitter.com/mYlRtSwr6q
p541
sVurl
p542
Vhttp://t.co/mYlRtSwr6q
p543
sVmedia_url_https
p544
Vhttps://pbs.twimg.com/media/B4mtgpoCYAAhRzY.png
p545
sVsource_user_id_str
p546
V19511300
p547
sVsource_status_id
p548
I543156007514701824
sVid_str
p549
V543156006516056064
p550
sVsizes
p551
(dp552
Vlarge
p553
(dp554
Vh
p555
I355
sVresize
p556
Vfit
p557
sVw
p558
I934
ssVsmall
p559
(dp560
Vh
p561
I129
sVresize
p562
Vfit
p563
sVw
p564
I340
ssVmedium
p565
(dp566
Vh
p567
I228
sVresize
p568
Vfit
p569
sVw
p570
I600
ssVthumb
p571
(dp572
Vh
p573
I150
sVresize
p574
Vcrop
p575
sVw
p576
I150
sssVindices
p577
(lp578
I109
aI131
asVtype
p579
Vphoto
p580
sVid
p581
I543156006516056064
sVmedia_url
p582
Vhttp://pbs.twimg.com/media/B4mtgpoCYAAhRzY.png
p583
sasg29
Nsg30
Nsg31
Nsg32
VSat Dec 13 04:23:07 +0000 2014
p584
sg34
Nsg35
I00
sg36
Nsg37
Nsg38
Nsg39
Nsg40
I00
sg41
Nsg42
(lp585
g3
(g44
g5
Ntp586
Rp587
(dp588
g10
Nsg48
Nsg49
Nsg50
Nsg51
Nsg52
Nsg32
Nsg53
Nsg54
Nsg55
Nsg56
Nsg57
Nsg58
Nsg59
Nsg60
Nsg61
Nsg62
Nsg63
Nsg64
Nsg65
Nsg66
Nsg67
Nsg68
VMomSpotted
p589
sg70
Nsg71
VJennifer
p590
sg73
Nsg74
Nsg75
I19511300
sg76
Nsbag3
(g44
g5
Ntp591
Rp592
(dp593
g10
Nsg48
Nsg49
Nsg50
Nsg51
Nsg52
Nsg32
Nsg53
Nsg54
Nsg55
Nsg56
Nsg57
Nsg58
Nsg59
Nsg60
Nsg61
Nsg62
Nsg63
Nsg64
Nsg65
Nsg66
Nsg67
Nsg68
VJostens
p594
sg70
Nsg71
VJostens
p595
sg73
Nsg74
Nsg75
I18698751
sg76
Nsbasg77
Nsg78
Nsg79
Nsg80
VRT @MomSpotted: Find the Perfect Class Ring for Your Child at @Jostens #ringspiration http://t.co/KXOOAPK3TA http://t.co/mYlRtSwr6q
p596
sg82
I00
sg83
Ven
p597
sg85
g3
(g44
g5
Ntp598
Rp599
(dp600
g10
VCO
p601
sg48
V666666
p602
sg49
Ven
p603
sg50
VMountain Time (US & Canada)
p604
sg51
I10285
sg52
I4472
sg32
VThu Oct 07 04:18:57 +0000 2010
p605
sg53
I00
sg54
VMom of 3. Blogger. Brand Ambassador. Passionate about Family, Food, Fitness, & Frugal Living.
p606
sg55
Vhttps://pbs.twimg.com/profile_images/477328217913569282/PNG0uVxz_normal.png
p607
sg56
I5635
sg57
I58
sg58
I-25200
sg59
Nsg60
I00
sg61
Nsg62
I00
sg63
I00
sg64
V2FC2EF
p608
sg65
I00
sg66
I00
sg67
Vhttp://abs.twimg.com/images/themes/theme9/bg.gif
p609
sg68
Vpennywisemama
p610
sg70
I60
sg71
VMarisa
p611
sg73
V252429
p612
sg74
Vhttp://t.co/uswr5s7pL6
p613
sg75
I199551313
sg76
V1A1B1F
p614
sbsg103
I19
sg104
V<a href="https://mobile.twitter.com" rel="nofollow">Mobile Web (M5)</a>
p615
sg106
(lp616
g3
(g108
g5
Ntp617
Rp618
(dp619
g112
Vhttp://t.co/KXOOAPK3TA
p620
sg114
Vhttp://momspotted.com/2014/12/find-perfect-class-ring-child-jostens-ringspiration.html
p621
sbasg75
I543622116126384129
sbag3
(g4
g5
Ntp622
Rp623
(dp624
g9
I0
sg10
Nsg11
Nsg12
(lp625
g3
(g14
g5
Ntp626
Rp627
(dp628
g18
Vgiveaway
p629
sbasg24
I00
sg25
g3
(g4
g5
Ntp630
Rp631
(dp632
g9
I1
sg10
Nsg11
Nsg12
(lp633
g3
(g14
g5
Ntp634
Rp635
(dp636
g18
Vgiveaway
p637
sbasg24
I00
sg25
Nsg26
Nsg27
(lp638
sg29
Nsg30
Nsg31
Nsg32
VThu Dec 11 20:50:50 +0000 2014
p639
sg34
Nsg35
I00
sg36
Nsg37
Nsg38
Nsg39
Nsg40
I00
sg41
Nsg42
(lp640
g3
(g44
g5
Ntp641
Rp642
(dp643
g10
Nsg48
Nsg49
Nsg50
Nsg51
Nsg52
Nsg32
Nsg53
Nsg54
Nsg55
Nsg56
Nsg57
Nsg58
Nsg59
Nsg60
Nsg61
Nsg62
Nsg63
Nsg64
Nsg65
Nsg66
Nsg67
Nsg68
VFandango
p644
sg70
Nsg71
VFandango
p645
sg73
Nsg74
Nsg75
I14983499
sg76
Nsbasg77
Nsg78
Nsg79
Nsg80
VWhat movie would you like to see? I'm giving away a few @Fandango gift cards to a few lucky people. http://t.co/l5E4wUnfsI #giveaway
p646
sg82
I00
sg83
Ven
p647
sg85
g3
(g44
g5
Ntp648
Rp649
(dp650
g10
VMy Old Kentucky Home 
p651
sg48
V634047
p652
sg49
Ven
p653
sg50
VEastern Time (US & Canada)
p654
sg51
I2628
sg52
I4913
sg32
VTue Dec 11 18:32:00 +0000 2012
p655
sg53
I00
sg54
VI'm a southern mother who loves family, food, & fashion. Former news reporter, turned full-time writer. Johnson & Johnson Social Influencer for Social Good
p656
sg55
Vhttps://pbs.twimg.com/profile_images/481633650522353664/TGkU2_7B_normal.jpeg
p657
sg56
I2217
sg57
I1788
sg58
I-18000
sg59
Nsg60
I00
sg61
Vhttps://pbs.twimg.com/profile_banners/1004601186/1412086062
p658
sg62
I00
sg63
I00
sg64
V088253
p659
sg65
I01
sg66
I00
sg67
Vhttp://abs.twimg.com/images/themes/theme3/bg.gif
p660
sg68
Vasouthernmother
p661
sg70
I61
sg71
VJessica Urgelles
p662
sg73
VE3E2DE
p663
sg74
Vhttp://t.co/E0Vxv5DNal
p664
sg75
I1004601186
sg76
VEDECE9
p665
sbsg103
I19
sg104
V<a href="https://dev.twitter.com/docs/tfw" rel="nofollow">Twitter for Websites</a>
p666
sg106
(lp667
g3
(g108
g5
Ntp668
Rp669
(dp670
g112
Vhttp://t.co/l5E4wUnfsI
p671
sg114
Vhttp://asouthernmother.com/2014/12/fandango-gift-cards.html
p672
sbasg75
I543145909626757121
sbsg26
Nsg27
(lp673
sg29
Nsg30
Nsg31
Nsg32
VSat Dec 13 04:22:52 +0000 2014
p674
sg34
Nsg35
I00
sg36
Nsg37
Nsg38
Nsg39
Nsg40
I00
sg41
Nsg42
(lp675
g3
(g44
g5
Ntp676
Rp677
(dp678
g10
Nsg48
Nsg49
Nsg50
Nsg51
Nsg52
Nsg32
Nsg53
Nsg54
Nsg55
Nsg56
Nsg57
Nsg58
Nsg59
Nsg60
Nsg61
Nsg62
Nsg63
Nsg64
Nsg65
Nsg66
Nsg67
Nsg68
Vasouthernmother
p679
sg70
Nsg71
VJessica Urgelles
p680
sg73
Nsg74
Nsg75
I1004601186
sg76
Nsbag3
(g44
g5
Ntp681
Rp682
(dp683
g10
Nsg48
Nsg49
Nsg50
Nsg51
Nsg52
Nsg32
Nsg53
Nsg54
Nsg55
Nsg56
Nsg57
Nsg58
Nsg59
Nsg60
Nsg61
Nsg62
Nsg63
Nsg64
Nsg65
Nsg66
Nsg67
Nsg68
VFandango
p684
sg70
Nsg71
VFandango
p685
sg73
Nsg74
Nsg75
I14983499
sg76
Nsbasg77
Nsg78
Nsg79
Nsg80
VRT @asouthernmother: What movie would you like to see? I'm giving away a few @Fandango gift cards to a few lucky people. http://t.co/l5E4wU\u2026
p686
sg82
I00
sg83
Ven
p687
sg85
g3
(g44
g5
Ntp688
Rp689
(dp690
g10
VCO
p691
sg48
V666666
p692
sg49
Ven
p693
sg50
VMountain Time (US & Canada)
p694
sg51
I10285
sg52
I4472
sg32
VThu Oct 07 04:18:57 +0000 2010
p695
sg53
I00
sg54
VMom of 3. Blogger. Brand Ambassador. Passionate about Family, Food, Fitness, & Frugal Living.
p696
sg55
Vhttps://pbs.twimg.com/profile_images/477328217913569282/PNG0uVxz_normal.png
p697
sg56
I5635
sg57
I58
sg58
I-25200
sg59
Nsg60
I00
sg61
Nsg62
I00
sg63
I00
sg64
V2FC2EF
p698
sg65
I00
sg66
I00
sg67
Vhttp://abs.twimg.com/images/themes/theme9/bg.gif
p699
sg68
Vpennywisemama
p700
sg70
I60
sg71
VMarisa
p701
sg73
V252429
p702
sg74
Vhttp://t.co/uswr5s7pL6
p703
sg75
I199551313
sg76
V1A1B1F
p704
sbsg103
I19
sg104
V<a href="https://mobile.twitter.com" rel="nofollow">Mobile Web (M5)</a>
p705
sg106
(lp706
g3
(g108
g5
Ntp707
Rp708
(dp709
g112
Vhttp://t.co/l5E4wUnfsI
p710
sg114
Vhttp://asouthernmother.com/2014/12/fandango-gift-cards.html
p711
sbasg75
I543622056567242752
sbag3
(g4
g5
Ntp712
Rp713
(dp714
g9
I0
sg10
Nsg11
Nsg12
(lp715
g3
(g14
g5
Ntp716
Rp717
(dp718
g18
Vcookiedoughsheets
p719
sbag3
(g14
g5
Ntp720
Rp721
(dp722
g18
VTollHouseTime
p723
sbag3
(g14
g5
Ntp724
Rp725
(dp726
g18
Vsp
p727
sbasg24
I00
sg25
g3
(g4
g5
Ntp728
Rp729
(dp730
g9
I1
sg10
Nsg11
Nsg12
(lp731
g3
(g14
g5
Ntp732
Rp733
(dp734
g18
Vcookiedoughsheets
p735
sbag3
(g14
g5
Ntp736
Rp737
(dp738
g18
VTollHouseTime
p739
sbag3
(g14
g5
Ntp740
Rp741
(dp742
g18
Vsp
p743
sbasg24
I00
sg25
Nsg26
Nsg27
(lp744
sg29
Nsg30
Nsg31
Nsg32
VThu Dec 11 19:01:09 +0000 2014
p745
sg34
Nsg35
I00
sg36
Nsg37
Nsg38
Nsg39
Nsg40
I00
sg41
Nsg42
(lp746
g3
(g44
g5
Ntp747
Rp748
(dp749
g10
Nsg48
Nsg49
Nsg50
Nsg51
Nsg52
Nsg32
Nsg53
Nsg54
Nsg55
Nsg56
Nsg57
Nsg58
Nsg59
Nsg60
Nsg61
Nsg62
Nsg63
Nsg64
Nsg65
Nsg66
Nsg67
Nsg68
VNestleTollHouse
p750
sg70
Nsg71
VNestle Toll House
p751
sg73
Nsg74
Nsg75
I386487041
sg76
Nsbasg77
Nsg78
Nsg79
Nsg80
VCreate holiday inspired cookies with rolled and ready #cookiedoughsheets from @NestleTollHouse #TollHouseTime #sp http://t.co/HEBpN5DVoM
p752
sg82
I00
sg83
Ven
p753
sg85
g3
(g44
g5
Ntp754
Rp755
(dp756
g10
VBettendorf, IA
p757
sg48
V444444
p758
sg49
Ven
p759
sg50
VCentral Time (US & Canada)
p760
sg51
I8050
sg52
I20822
sg32
VMon Jan 12 02:35:44 +0000 2009
p761
sg53
I00
sg54
VSocial Media Moms, Brand Ambassadors & Freelance Social Media Campaign Coordinators. Publisher: Nicole, http://t.co/AVoURdXApG: PR-friendly story-based reviews.
p762
sg55
Vhttps://pbs.twimg.com/profile_images/420676230170411009/oP8-1HIH_normal.jpeg
p763
sg56
I7386
sg57
I643
sg58
I-21600
sg59
Nsg60
I00
sg61
Vhttps://pbs.twimg.com/profile_banners/18888465/1408670285
p764
sg62
I00
sg63
I00
sg64
VE1252E
p765
sg65
I01
sg66
I00
sg67
Vhttp://pbs.twimg.com/profile_background_images/378800000164361431/_veUrbyT.jpeg
p766
sg68
VSahmReviews
p767
sg70
I228
sg71
VSahmReviews.com
p768
sg73
VF9F5EA
p769
sg74
Vhttp://t.co/y7rkz5QRRz
p770
sg75
I18888465
sg76
V2B373F
p771
sbsg103
I20
sg104
V<a href="http://bufferapp.com" rel="nofollow">Buffer</a>
p772
sg106
(lp773
g3
(g108
g5
Ntp774
Rp775
(dp776
g112
Vhttp://t.co/HEBpN5DVoM
p777
sg114
Vhttp://buff.ly/1zbGQrS
p778
sbasg75
I543118308044976128
sbsg26
Nsg27
(lp779
sg29
Nsg30
Nsg31
Nsg32
VSat Dec 13 04:22:42 +0000 2014
p780
sg34
Nsg35
I00
sg36
Nsg37
Nsg38
Nsg39
Nsg40
I00
sg41
Nsg42
(lp781
g3
(g44
g5
Ntp782
Rp783
(dp784
g10
Nsg48
Nsg49
Nsg50
Nsg51
Nsg52
Nsg32
Nsg53
Nsg54
Nsg55
Nsg56
Nsg57
Nsg58
Nsg59
Nsg60
Nsg61
Nsg62
Nsg63
Nsg64
Nsg65
Nsg66
Nsg67
Nsg68
VSahmReviews
p785
sg70
Nsg71
VSahmReviews.com
p786
sg73
Nsg74
Nsg75
I18888465
sg76
Nsbag3
(g44
g5
Ntp787
Rp788
(dp789
g10
Nsg48
Nsg49
Nsg50
Nsg51
Nsg52
Nsg32
Nsg53
Nsg54
Nsg55
Nsg56
Nsg57
Nsg58
Nsg59
Nsg60
Nsg61
Nsg62
Nsg63
Nsg64
Nsg65
Nsg66
Nsg67
Nsg68
VNestleTollHouse
p790
sg70
Nsg71
VNestle Toll House
p791
sg73
Nsg74
Nsg75
I386487041
sg76
Nsbasg77
Nsg78
Nsg79
Nsg80
VRT @SahmReviews: Create holiday inspired cookies with rolled and ready #cookiedoughsheets from @NestleTollHouse #TollHouseTime #sp http://t\u2026
p792
sg82
I00
sg83
Ven
p793
sg85
g3
(g44
g5
Ntp794
Rp795
(dp796
g10
VCO
p797
sg48
V666666
p798
sg49
Ven
p799
sg50
VMountain Time (US & Canada)
p800
sg51
I10285
sg52
I4472
sg32
VThu Oct 07 04:18:57 +0000 2010
p801
sg53
I00
sg54
VMom of 3. Blogger. Brand Ambassador. Passionate about Family, Food, Fitness, & Frugal Living.
p802
sg55
Vhttps://pbs.twimg.com/profile_images/477328217913569282/PNG0uVxz_normal.png
p803
sg56
I5635
sg57
I58
sg58
I-25200
sg59
Nsg60
I00
sg61
Nsg62
I00
sg63
I00
sg64
V2FC2EF
p804
sg65
I00
sg66
I00
sg67
Vhttp://abs.twimg.com/images/themes/theme9/bg.gif
p805
sg68
Vpennywisemama
p806
sg70
I60
sg71
VMarisa
p807
sg73
V252429
p808
sg74
Vhttp://t.co/uswr5s7pL6
p809
sg75
I199551313
sg76
V1A1B1F
p810
sbsg103
I20
sg104
V<a href="https://mobile.twitter.com" rel="nofollow">Mobile Web (M5)</a>
p811
sg106
(lp812
g3
(g108
g5
Ntp813
Rp814
(dp815
g112
Vhttp://t.co/HEBpN5DVoM
p816
sg114
Vhttp://buff.ly/1zbGQrS
p817
sbasg75
I543622012363472896
sbag3
(g4
g5
Ntp818
Rp819
(dp820
g9
I0
sg10
Nsg11
Nsg12
(lp821
g3
(g14
g5
Ntp822
Rp823
(dp824
g18
Vgift
p825
sbasg24
I00
sg25
g3
(g4
g5
Ntp826
Rp827
(dp828
g9
I0
sg10
Nsg11
Nsg12
(lp829
g3
(g14
g5
Ntp830
Rp831
(dp832
g18
Vgift
p833
sbasg24
I00
sg25
Nsg26
Nsg27
(lp834
sg29
Nsg30
Nsg31
Nsg32
VThu Dec 11 18:05:22 +0000 2014
p835
sg34
Nsg35
I00
sg36
Nsg37
Nsg38
Nsg39
Nsg40
I00
sg41
Nsg42
(lp836
sg77
Nsg78
Nsg79
Nsg80
VCool Off with Ozeri 3x (44") Tower Fan with Passive Noise Reduction Technology - Review. Makes a great gift! http://t.co/WNRgyViRM1 #gift
p837
sg82
I00
sg83
Ven
p838
sg85
g3
(g44
g5
Ntp839
Rp840
(dp841
g10
VPA
p842
sg48
V4B2A7A
p843
sg49
Ven
p844
sg50
VEastern Time (US & Canada)
p845
sg51
I4399
sg52
I11816
sg32
VMon Apr 27 06:44:14 +0000 2009
p846
sg53
I00
sg54
VBlogger, reviewer, artist, handmade jewelry designer. http://t.co/06JdKgRy32
p847
sg55
Vhttps://pbs.twimg.com/profile_images/526197176154611713/qwJZpuAU_normal.jpeg
p848
sg56
I4167
sg57
I75
sg58
I-18000
sg59
Nsg60
I00
sg61
Vhttps://pbs.twimg.com/profile_banners/35690082/1412703614
p849
sg62
I00
sg63
I01
sg64
V621691
p850
sg65
I00
sg66
I00
sg67
Vhttp://pbs.twimg.com/profile_background_images/378800000167266084/AuFlP5Lg.jpeg
p851
sg68
VAutumnBlues
p852
sg70
I41
sg71
VAutumn Blues Reviews
p853
sg73
V767199
p854
sg74
Vhttps://t.co/pPFYxTc6Ym
p855
sg75
I35690082
sg76
V352726
p856
sbsg103
I18
sg104
V<a href="https://dev.twitter.com/docs/tfw" rel="nofollow">Twitter for Websites</a>
p857
sg106
(lp858
g3
(g108
g5
Ntp859
Rp860
(dp861
g112
Vhttp://t.co/WNRgyViRM1
p862
sg114
Vhttp://bit.ly/1wDv5wp
p863
sbasg75
I543104268119465984
sbsg26
Nsg27
(lp864
sg29
Nsg30
Nsg31
Nsg32
VSat Dec 13 04:22:33 +0000 2014
p865
sg34
Nsg35
I00
sg36
Nsg37
Nsg38
Nsg39
Nsg40
I00
sg41
Nsg42
(lp866
g3
(g44
g5
Ntp867
Rp868
(dp869
g10
Nsg48
Nsg49
Nsg50
Nsg51
Nsg52
Nsg32
Nsg53
Nsg54
Nsg55
Nsg56
Nsg57
Nsg58
Nsg59
Nsg60
Nsg61
Nsg62
Nsg63
Nsg64
Nsg65
Nsg66
Nsg67
Nsg68
VAutumnBlues
p870
sg70
Nsg71
VAutumn Blues Reviews
p871
sg73
Nsg74
Nsg75
I35690082
sg76
Nsbasg77
Nsg78
Nsg79
Nsg80
VRT @AutumnBlues: Cool Off with Ozeri 3x (44") Tower Fan with Passive Noise Reduction Technology - Review. Makes a great gift! http://t.co/W\u2026
p872
sg82
I00
sg83
Ven
p873
sg85
g3
(g44
g5
Ntp874
Rp875
(dp876
g10
VCO
p877
sg48
V666666
p878
sg49
Ven
p879
sg50
VMountain Time (US & Canada)
p880
sg51
I10285
sg52
I4472
sg32
VThu Oct 07 04:18:57 +0000 2010
p881
sg53
I00
sg54
VMom of 3. Blogger. Brand Ambassador. Passionate about Family, Food, Fitness, & Frugal Living.
p882
sg55
Vhttps://pbs.twimg.com/profile_images/477328217913569282/PNG0uVxz_normal.png
p883
sg56
I5635
sg57
I58
sg58
I-25200
sg59
Nsg60
I00
sg61
Nsg62
I00
sg63
I00
sg64
V2FC2EF
p884
sg65
I00
sg66
I00
sg67
Vhttp://abs.twimg.com/images/themes/theme9/bg.gif
p885
sg68
Vpennywisemama
p886
sg70
I60
sg71
VMarisa
p887
sg73
V252429
p888
sg74
Vhttp://t.co/uswr5s7pL6
p889
sg75
I199551313
sg76
V1A1B1F
p890
sbsg103
I18
sg104
V<a href="https://mobile.twitter.com" rel="nofollow">Mobile Web (M5)</a>
p891
sg106
(lp892
g3
(g108
g5
Ntp893
Rp894
(dp895
g112
Vhttp://t.co/WNRgyViRM1
p896
sg114
Vhttp://bit.ly/1wDv5wp
p897
sbasg75
I543621976586067968
sbag3
(g4
g5
Ntp898
Rp899
(dp900
g9
I0
sg10
Nsg11
Nsg12
(lp901
sg24
I00
sg25
g3
(g4
g5
Ntp902
Rp903
(dp904
g9
I1
sg10
Nsg11
Nsg12
(lp905
sg24
I00
sg25
Nsg26
Nsg27
(lp906
sg29
Nsg30
Nsg31
Nsg32
VThu Dec 11 18:03:34 +0000 2014
p907
sg34
Nsg35
I00
sg36
Nsg37
Nsg38
Nsg39
Nsg40
I00
sg41
Nsg42
(lp908
g3
(g44
g5
Ntp909
Rp910
(dp911
g10
Nsg48
Nsg49
Nsg50
Nsg51
Nsg52
Nsg32
Nsg53
Nsg54
Nsg55
Nsg56
Nsg57
Nsg58
Nsg59
Nsg60
Nsg61
Nsg62
Nsg63
Nsg64
Nsg65
Nsg66
Nsg67
Nsg68
VCraftyourself
p912
sg70
Nsg71
VAvry Byington
p913
sg73
Nsg74
Nsg75
I76680547
sg76
Nsbasg77
Nsg78
Nsg79
Nsg80
VVintage Christmas Week "Vintage Count Down Chalkboards" - http://t.co/BlfXtK6iku http://t.co/aiCbruHm2p via @craftyourself
p914
sg82
I00
sg83
Ven
p915
sg85
g3
(g44
g5
Ntp916
Rp917
(dp918
g10
VSyracuse UTah
p919
sg48
V000000
p920
sg49
Ven
p921
sg50
VMountain Time (US & Canada)
p922
sg51
I3229
sg52
I4921
sg32
VWed Sep 23 16:08:08 +0000 2009
p923
sg53
I00
sg54
VWife to Justin, Mom to 4 kiddos and creator of http://t.co/l9Clgx8730
p924
sg55
Vhttps://pbs.twimg.com/profile_images/529653880544452608/ajS2nzeP_normal.jpeg
p925
sg56
I1320
sg57
I882
sg58
I-25200
sg59
Nsg60
I00
sg61
Vhttps://pbs.twimg.com/profile_banners/76680547/1415114210
p926
sg62
I00
sg63
I00
sg64
VFA743E
p927
sg65
I01
sg66
I00
sg67
Vhttp://abs.twimg.com/images/themes/theme5/bg.gif
p928
sg68
VCraftyourself
p929
sg70
I10
sg71
VAvry Byington
p930
sg73
V000000
p931
sg74
Vhttp://t.co/4gpsXWTlEr
p932
sg75
I76680547
sg76
V000000
p933
sbsg103
I18
sg104
V<a href="http://twitter.com/download/android" rel="nofollow">Twitter for Android</a>
p934
sg106
(lp935
g3
(g108
g5
Ntp936
Rp937
(dp938
g112
Vhttp://t.co/BlfXtK6iku
p939
sg114
Vhttp://craftyourself.com
p940
sbag3
(g108
g5
Ntp941
Rp942
(dp943
g112
Vhttp://t.co/aiCbruHm2p
p944
sg114
Vhttp://craftyourself.com/2014/12/vintage-christmas-week-vintage-count-chalkboards-womens-shelter-project/
p945
sbasg75
I543103815960895488
sbsg26
Nsg27
(lp946
sg29
Nsg30
Nsg31
Nsg32
VSat Dec 13 03:46:22 +0000 2014
p947
sg34
Nsg35
I00
sg36
Nsg37
Nsg38
Nsg39
Nsg40
I00
sg41
Nsg42
(lp948
g3
(g44
g5
Ntp949
Rp950
(dp951
g10
Nsg48
Nsg49
Nsg50
Nsg51
Nsg52
Nsg32
Nsg53
Nsg54
Nsg55
Nsg56
Nsg57
Nsg58
Nsg59
Nsg60
Nsg61
Nsg62
Nsg63
Nsg64
Nsg65
Nsg66
Nsg67
Nsg68
VCraftyourself
p952
sg70
Nsg71
VAvry Byington
p953
sg73
Nsg74
Nsg75
I76680547
sg76
Nsbag3
(g44
g5
Ntp954
Rp955
(dp956
g10
Nsg48
Nsg49
Nsg50
Nsg51
Nsg52
Nsg32
Nsg53
Nsg54
Nsg55
Nsg56
Nsg57
Nsg58
Nsg59
Nsg60
Nsg61
Nsg62
Nsg63
Nsg64
Nsg65
Nsg66
Nsg67
Nsg68
VCraftyourself
p957
sg70
Nsg71
VAvry Byington
p958
sg73
Nsg74
Nsg75
I76680547
sg76
Nsbasg77
Nsg78
Nsg79
Nsg80
VRT @Craftyourself: Vintage Christmas Week "Vintage Count Down Chalkboards" - http://t.co/BlfXtK6iku http://t.co/aiCbruHm2p via @craftyourse\u2026
p959
sg82
I00
sg83
Ven
p960
sg85
g3
(g44
g5
Ntp961
Rp962
(dp963
g10
VCO
p964
sg48
V666666
p965
sg49
Ven
p966
sg50
VMountain Time (US & Canada)
p967
sg51
I10285
sg52
I4472
sg32
VThu Oct 07 04:18:57 +0000 2010
p968
sg53
I00
sg54
VMom of 3. Blogger. Brand Ambassador. Passionate about Family, Food, Fitness, & Frugal Living.
p969
sg55
Vhttps://pbs.twimg.com/profile_images/477328217913569282/PNG0uVxz_normal.png
p970
sg56
I5635
sg57
I58
sg58
I-25200
sg59
Nsg60
I00
sg61
Nsg62
I00
sg63
I00
sg64
V2FC2EF
p971
sg65
I00
sg66
I00
sg67
Vhttp://abs.twimg.com/images/themes/theme9/bg.gif
p972
sg68
Vpennywisemama
p973
sg70
I60
sg71
VMarisa
p974
sg73
V252429
p975
sg74
Vhttp://t.co/uswr5s7pL6
p976
sg75
I199551313
sg76
V1A1B1F
p977
sbsg103
I18
sg104
V<a href="https://mobile.twitter.com" rel="nofollow">Mobile Web (M5)</a>
p978
sg106
(lp979
g3
(g108
g5
Ntp980
Rp981
(dp982
g112
Vhttp://t.co/BlfXtK6iku
p983
sg114
Vhttp://craftyourself.com
p984
sbag3
(g108
g5
Ntp985
Rp986
(dp987
g112
Vhttp://t.co/aiCbruHm2p
p988
sg114
Vhttp://craftyourself.com/2014/12/vintage-christmas-week-vintage-count-chalkboards-womens-shelter-project/
p989
sbasg75
I543612867602161667
sbag3
(g4
g5
Ntp990
Rp991
(dp992
g9
I0
sg10
Nsg11
Nsg12
(lp993
g3
(g14
g5
Ntp994
Rp995
(dp996
g18
VHolidayGiftGuide
p997
sbag3
(g14
g5
Ntp998
Rp999
(dp1000
g18
VSamsung
p1001
sbasg24
I00
sg25
g3
(g4
g5
Ntp1002
Rp1003
(dp1004
g9
I3
sg10
Nsg11
Nsg12
(lp1005
g3
(g14
g5
Ntp1006
Rp1007
(dp1008
g18
VHolidayGiftGuide
p1009
sbag3
(g14
g5
Ntp1010
Rp1011
(dp1012
g18
VSamsung
p1013
sbasg24
I00
sg25
Nsg26
Nsg27
(lp1014
(dp1015
Vexpanded_url
p1016
Vhttp://twitter.com/mommye/status/542064040726364160/photo/1
p1017
sVdisplay_url
p1018
Vpic.twitter.com/lWrQmkufaS
p1019
sVurl
p1020
Vhttp://t.co/lWrQmkufaS
p1021
sVmedia_url_https
p1022
Vhttps://pbs.twimg.com/media/B4XMXy4CQAAXXR8.jpg
p1023
sVid_str
p1024
V542064039333871616
p1025
sVsizes
p1026
(dp1027
Vsmall
p1028
(dp1029
Vh
p1030
I513
sVresize
p1031
Vfit
p1032
sVw
p1033
I340
ssVlarge
p1034
(dp1035
Vh
p1036
I906
sVresize
p1037
Vfit
p1038
sVw
p1039
I600
ssVmedium
p1040
(dp1041
Vh
p1042
I906
sVresize
p1043
Vfit
p1044
sVw
p1045
I600
ssVthumb
p1046
(dp1047
Vh
p1048
I150
sVresize
p1049
Vcrop
p1050
sVw
p1051
I150
sssVindices
p1052
(lp1053
I116
aI138
asVtype
p1054
Vphoto
p1055
sVid
p1056
I542064039333871616
sVmedia_url
p1057
Vhttp://pbs.twimg.com/media/B4XMXy4CQAAXXR8.jpg
p1058
sasg29
Nsg30
Nsg31
Nsg32
VMon Dec 08 21:11:53 +0000 2014
p1059
sg34
Nsg35
I00
sg36
Nsg37
Nsg38
Nsg39
Nsg40
I00
sg41
Nsg42
(lp1060
g3
(g44
g5
Ntp1061
Rp1062
(dp1063
g10
Nsg48
Nsg49
Nsg50
Nsg51
Nsg52
Nsg32
Nsg53
Nsg54
Nsg55
Nsg56
Nsg57
Nsg58
Nsg59
Nsg60
Nsg61
Nsg62
Nsg63
Nsg64
Nsg65
Nsg66
Nsg67
Nsg68
VSamsungtweets
p1064
sg70
Nsg71
VSamsung USA
p1065
sg73
Nsg74
Nsg75
I34356968
sg76
Nsbasg77
Nsg78
Nsg79
Nsg80
VGreat Gift Idea: Samsung VU7000 Motion Sync Vacuum http://t.co/DL6uQqcRJE #HolidayGiftGuide #Samsung\u000a@Samsungtweets http://t.co/lWrQmkufaS
p1066
sg82
I00
sg83
Ven
p1067
sg85
g3
(g44
g5
Ntp1068
Rp1069
(dp1070
g10
Vstefani@mommyenterprises.com
p1071
sg48
V000000
p1072
sg49
Ven
p1073
sg50
VPacific Time (US & Canada)
p1074
sg51
I36964
sg52
I107230
sg32
VSun Nov 12 22:07:46 +0000 2006
p1075
sg53
I00
sg54
VMulti-Tasking Mom of 4 | Owner of Mommy Enterprises & This Mom Can Cook |  Mom Blogger | Freelance Writer | Foodie | Disney Fan At Heart |
p1076
sg55
Vhttps://pbs.twimg.com/profile_images/493641764016640000/84F7C4MA_normal.jpeg
p1077
sg56
I35605
sg57
I1824
sg58
I-28800
sg59
Nsg60
I00
sg61
Vhttps://pbs.twimg.com/profile_banners/12181/1407467444
p1078
sg62
I00
sg63
I00
sg64
V0000FF
p1079
sg65
I01
sg66
I00
sg67
Vhttp://pbs.twimg.com/profile_background_images/444860805926764546/h-c_JWpS.jpeg
p1080
sg68
Vmommye
p1081
sg70
I552
sg71
VStefani Tolson
p1082
sg73
VFF91F5
p1083
sg74
Vhttp://t.co/aCJh48Czk5
p1084
sg75
I12181
sg76
VFF32C6
p1085
sbsg103
I75
sg104
V<a href="http://twitter.com" rel="nofollow">Twitter Web Client</a>
p1086
sg106
(lp1087
g3
(g108
g5
Ntp1088
Rp1089
(dp1090
g112
Vhttp://t.co/DL6uQqcRJE
p1091
sg114
Vhttp://www.mommyenterprises.com/moms-blog/39160/samsung-vu7000-motion-sync-vacuum/
p1092
sbasg75
I542064040726364160
sbsg26
Nsg27
(lp1093
(dp1094
Vsource_user_id
p1095
I12181
sVsource_status_id_str
p1096
V542064040726364160
p1097
sVexpanded_url
p1098
Vhttp://twitter.com/mommye/status/542064040726364160/photo/1
p1099
sVdisplay_url
p1100
Vpic.twitter.com/lWrQmkufaS
p1101
sVurl
p1102
Vhttp://t.co/lWrQmkufaS
p1103
sVmedia_url_https
p1104
Vhttps://pbs.twimg.com/media/B4XMXy4CQAAXXR8.jpg
p1105
sVsource_user_id_str
p1106
V12181
p1107
sVsource_status_id
p1108
I542064040726364160
sVid_str
p1109
V542064039333871616
p1110
sVsizes
p1111
(dp1112
Vsmall
p1113
(dp1114
Vh
p1115
I513
sVresize
p1116
Vfit
p1117
sVw
p1118
I340
ssVlarge
p1119
(dp1120
Vh
p1121
I906
sVresize
p1122
Vfit
p1123
sVw
p1124
I600
ssVmedium
p1125
(dp1126
Vh
p1127
I906
sVresize
p1128
Vfit
p1129
sVw
p1130
I600
ssVthumb
p1131
(dp1132
Vh
p1133
I150
sVresize
p1134
Vcrop
p1135
sVw
p1136
I150
sssVindices
p1137
(lp1138
I139
aI140
asVtype
p1139
Vphoto
p1140
sVid
p1141
I542064039333871616
sVmedia_url
p1142
Vhttp://pbs.twimg.com/media/B4XMXy4CQAAXXR8.jpg
p1143
sasg29
Nsg30
Nsg31
Nsg32
VSat Dec 13 03:46:03 +0000 2014
p1144
sg34
Nsg35
I00
sg36
Nsg37
Nsg38
Nsg39
Nsg40
I00
sg41
Nsg42
(lp1145
g3
(g44
g5
Ntp1146
Rp1147
(dp1148
g10
Nsg48
Nsg49
Nsg50
Nsg51
Nsg52
Nsg32
Nsg53
Nsg54
Nsg55
Nsg56
Nsg57
Nsg58
Nsg59
Nsg60
Nsg61
Nsg62
Nsg63
Nsg64
Nsg65
Nsg66
Nsg67
Nsg68
Vmommye
p1149
sg70
Nsg71
VStefani Tolson
p1150
sg73
Nsg74
Nsg75
I12181
sg76
Nsbag3
(g44
g5
Ntp1151
Rp1152
(dp1153
g10
Nsg48
Nsg49
Nsg50
Nsg51
Nsg52
Nsg32
Nsg53
Nsg54
Nsg55
Nsg56
Nsg57
Nsg58
Nsg59
Nsg60
Nsg61
Nsg62
Nsg63
Nsg64
Nsg65
Nsg66
Nsg67
Nsg68
VSamsungtweets
p1154
sg70
Nsg71
VSamsung USA
p1155
sg73
Nsg74
Nsg75
I34356968
sg76
Nsbasg77
Nsg78
Nsg79
Nsg80
VRT @mommye: Great Gift Idea: Samsung VU7000 Motion Sync Vacuum http://t.co/DL6uQqcRJE #HolidayGiftGuide #Samsung\u000a@Samsungtweets http://t.co\u2026
p1156
sg82
I00
sg83
Ven
p1157
sg85
g3
(g44
g5
Ntp1158
Rp1159
(dp1160
g10
VCO
p1161
sg48
V666666
p1162
sg49
Ven
p1163
sg50
VMountain Time (US & Canada)
p1164
sg51
I10285
sg52
I4472
sg32
VThu Oct 07 04:18:57 +0000 2010
p1165
sg53
I00
sg54
VMom of 3. Blogger. Brand Ambassador. Passionate about Family, Food, Fitness, & Frugal Living.
p1166
sg55
Vhttps://pbs.twimg.com/profile_images/477328217913569282/PNG0uVxz_normal.png
p1167
sg56
I5635
sg57
I58
sg58
I-25200
sg59
Nsg60
I00
sg61
Nsg62
I00
sg63
I00
sg64
V2FC2EF
p1168
sg65
I00
sg66
I00
sg67
Vhttp://abs.twimg.com/images/themes/theme9/bg.gif
p1169
sg68
Vpennywisemama
p1170
sg70
I60
sg71
VMarisa
p1171
sg73
V252429
p1172
sg74
Vhttp://t.co/uswr5s7pL6
p1173
sg75
I199551313
sg76
V1A1B1F
p1174
sbsg103
I75
sg104
V<a href="https://mobile.twitter.com" rel="nofollow">Mobile Web (M5)</a>
p1175
sg106
(lp1176
g3
(g108
g5
Ntp1177
Rp1178
(dp1179
g112
Vhttp://t.co/DL6uQqcRJE
p1180
sg114
Vhttp://www.mommyenterprises.com/moms-blog/39160/samsung-vu7000-motion-sync-vacuum/
p1181
sbasg75
I543612788719882241
sbag3
(g4
g5
Ntp1182
Rp1183
(dp1184
g9
I0
sg10
Nsg11
Nsg12
(lp1185
g3
(g14
g5
Ntp1186
Rp1187
(dp1188
g18
VGiftGuide
p1189
sbag3
(g14
g5
Ntp1190
Rp1191
(dp1192
g18
VHolidayshopping
p1193
sbasg24
I00
sg25
g3
(g4
g5
Ntp1194
Rp1195
(dp1196
g9
I1
sg10
Nsg11
Nsg12
(lp1197
g3
(g14
g5
Ntp1198
Rp1199
(dp1200
g18
VGiftGuide
p1201
sbag3
(g14
g5
Ntp1202
Rp1203
(dp1204
g18
VHolidayshopping
p1205
sbasg24
I00
sg25
Nsg26
Nsg27
(lp1206
(dp1207
Vexpanded_url
p1208
Vhttp://twitter.com/Recomonk/status/542025900099764225/photo/1
p1209
sVdisplay_url
p1210
Vpic.twitter.com/Kj1GqAA4da
p1211
sVurl
p1212
Vhttp://t.co/Kj1GqAA4da
p1213
sVmedia_url_https
p1214
Vhttps://pbs.twimg.com/media/B4WprtJCUAAJVPX.png
p1215
sVid_str
p1216
V542025898484977664
p1217
sVsizes
p1218
(dp1219
Vsmall
p1220
(dp1221
Vh
p1222
I262
sVresize
p1223
Vfit
p1224
sVw
p1225
I340
ssVlarge
p1226
(dp1227
Vh
p1228
I781
sVresize
p1229
Vfit
p1230
sVw
p1231
I1013
ssVmedium
p1232
(dp1233
Vh
p1234
I462
sVresize
p1235
Vfit
p1236
sVw
p1237
I600
ssVthumb
p1238
(dp1239
Vh
p1240
I150
sVresize
p1241
Vcrop
p1242
sVw
p1243
I150
sssVindices
p1244
(lp1245
I117
aI139
asVtype
p1246
Vphoto
p1247
sVid
p1248
I542025898484977664
sVmedia_url
p1249
Vhttp://pbs.twimg.com/media/B4WprtJCUAAJVPX.png
p1250
sasg29
Nsg30
Nsg31
Nsg32
VMon Dec 08 18:40:19 +0000 2014
p1251
sg34
Nsg35
I00
sg36
Nsg37
Nsg38
Nsg39
Nsg40
I00
sg41
Nsg42
(lp1252
g3
(g44
g5
Ntp1253
Rp1254
(dp1255
g10
Nsg48
Nsg49
Nsg50
Nsg51
Nsg52
Nsg32
Nsg53
Nsg54
Nsg55
Nsg56
Nsg57
Nsg58
Nsg59
Nsg60
Nsg61
Nsg62
Nsg63
Nsg64
Nsg65
Nsg66
Nsg67
Nsg68
Vshopwithmemama
p1256
sg70
Nsg71
VKim Delatorre
p1257
sg73
Nsg74
Nsg75
I18231937
sg76
Nsbasg77
Nsg78
Nsg79
Nsg80
VThe MOST AWESOME Holiday Gift Guide! CAN'T MISS  http://t.co/O2UbSlFgaz #GiftGuide #Holidayshopping  @shopwithmemama http://t.co/Kj1GqAA4da
p1258
sg82
I00
sg83
Ven
p1259
sg85
g3
(g44
g5
Ntp1260
Rp1261
(dp1262
g10
VBay Area
p1263
sg48
V333333
p1264
sg49
Ven
p1265
sg50
Nsg51
I1312
sg52
I186
sg32
VFri Feb 22 19:33:33 +0000 2013
p1266
sg53
I00
sg54
VShare the products you love and super-charge your blog's affiliate income. Create beautiful product showcases or insert visual links in blog text and images.
p1267
sg55
Vhttps://pbs.twimg.com/profile_images/433410887953563648/r5snT61Y_normal.jpeg
p1268
sg56
I1842
sg57
I74
sg58
Nsg59
Nsg60
I00
sg61
Vhttps://pbs.twimg.com/profile_banners/1209579870/1406289379
p1269
sg62
I00
sg63
I00
sg64
VD66C31
p1270
sg65
I00
sg66
I00
sg67
Vhttp://pbs.twimg.com/profile_background_images/378800000031650887/9b3ac2378eb9d4cb2ced090248d2f673.jpeg
p1271
sg68
VRecomonk
p1272
sg70
I8
sg71
VRecomonk
p1273
sg73
VDDEEF6
p1274
sg74
Vhttp://t.co/dbdGGrefsl
p1275
sg75
I1209579870
sg76
VFFFFFF
p1276
sbsg103
I19
sg104
V<a href="http://twitter.com" rel="nofollow">Twitter Web Client</a>
p1277
sg106
(lp1278
g3
(g108
g5
Ntp1279
Rp1280
(dp1281
g112
Vhttp://t.co/O2UbSlFgaz
p1282
sg114
Vhttp://bit.ly/1wRNh2Y
p1283
sbasg75
I542025900099764225
sbsg26
Nsg27
(lp1284
(dp1285
Vsource_user_id
p1286
I1209579870
sVsource_status_id_str
p1287
V542025900099764225
p1288
sVexpanded_url
p1289
Vhttp://twitter.com/Recomonk/status/542025900099764225/photo/1
p1290
sVdisplay_url
p1291
Vpic.twitter.com/Kj1GqAA4da
p1292
sVurl
p1293
Vhttp://t.co/Kj1GqAA4da
p1294
sVmedia_url_https
p1295
Vhttps://pbs.twimg.com/media/B4WprtJCUAAJVPX.png
p1296
sVsource_user_id_str
p1297
V1209579870
p1298
sVsource_status_id
p1299
I542025900099764225
sVid_str
p1300
V542025898484977664
p1301
sVsizes
p1302
(dp1303
Vsmall
p1304
(dp1305
Vh
p1306
I262
sVresize
p1307
Vfit
p1308
sVw
p1309
I340
ssVlarge
p1310
(dp1311
Vh
p1312
I781
sVresize
p1313
Vfit
p1314
sVw
p1315
I1013
ssVmedium
p1316
(dp1317
Vh
p1318
I462
sVresize
p1319
Vfit
p1320
sVw
p1321
I600
ssVthumb
p1322
(dp1323
Vh
p1324
I150
sVresize
p1325
Vcrop
p1326
sVw
p1327
I150
sssVindices
p1328
(lp1329
I139
aI140
asVtype
p1330
Vphoto
p1331
sVid
p1332
I542025898484977664
sVmedia_url
p1333
Vhttp://pbs.twimg.com/media/B4WprtJCUAAJVPX.png
p1334
sasg29
Nsg30
Nsg31
Nsg32
VSat Dec 13 03:45:48 +0000 2014
p1335
sg34
Nsg35
I00
sg36
Nsg37
Nsg38
Nsg39
Nsg40
I00
sg41
Nsg42
(lp1336
g3
(g44
g5
Ntp1337
Rp1338
(dp1339
g10
Nsg48
Nsg49
Nsg50
Nsg51
Nsg52
Nsg32
Nsg53
Nsg54
Nsg55
Nsg56
Nsg57
Nsg58
Nsg59
Nsg60
Nsg61
Nsg62
Nsg63
Nsg64
Nsg65
Nsg66
Nsg67
Nsg68
VRecomonk
p1340
sg70
Nsg71
VRecomonk
p1341
sg73
Nsg74
Nsg75
I1209579870
sg76
Nsbag3
(g44
g5
Ntp1342
Rp1343
(dp1344
g10
Nsg48
Nsg49
Nsg50
Nsg51
Nsg52
Nsg32
Nsg53
Nsg54
Nsg55
Nsg56
Nsg57
Nsg58
Nsg59
Nsg60
Nsg61
Nsg62
Nsg63
Nsg64
Nsg65
Nsg66
Nsg67
Nsg68
Vshopwithmemama
p1345
sg70
Nsg71
VKim Delatorre
p1346
sg73
Nsg74
Nsg75
I18231937
sg76
Nsbasg77
Nsg78
Nsg79
Nsg80
VRT @Recomonk: The MOST AWESOME Holiday Gift Guide! CAN'T MISS  http://t.co/O2UbSlFgaz #GiftGuide #Holidayshopping  @shopwithmemama http://t\u2026
p1347
sg82
I00
sg83
Ven
p1348
sg85
g3
(g44
g5
Ntp1349
Rp1350
(dp1351
g10
VCO
p1352
sg48
V666666
p1353
sg49
Ven
p1354
sg50
VMountain Time (US & Canada)
p1355
sg51
I10285
sg52
I4472
sg32
VThu Oct 07 04:18:57 +0000 2010
p1356
sg53
I00
sg54
VMom of 3. Blogger. Brand Ambassador. Passionate about Family, Food, Fitness, & Frugal Living.
p1357
sg55
Vhttps://pbs.twimg.com/profile_images/477328217913569282/PNG0uVxz_normal.png
p1358
sg56
I5635
sg57
I58
sg58
I-25200
sg59
Nsg60
I00
sg61
Nsg62
I00
sg63
I00
sg64
V2FC2EF
p1359
sg65
I00
sg66
I00
sg67
Vhttp://abs.twimg.com/images/themes/theme9/bg.gif
p1360
sg68
Vpennywisemama
p1361
sg70
I60
sg71
VMarisa
p1362
sg73
V252429
p1363
sg74
Vhttp://t.co/uswr5s7pL6
p1364
sg75
I199551313
sg76
V1A1B1F
p1365
sbsg103
I19
sg104
V<a href="https://mobile.twitter.com" rel="nofollow">Mobile Web (M5)</a>
p1366
sg106
(lp1367
g3
(g108
g5
Ntp1368
Rp1369
(dp1370
g112
Vhttp://t.co/O2UbSlFgaz
p1371
sg114
Vhttp://bit.ly/1wRNh2Y
p1372
sbasg75
I543612727063625728
sbag3
(g4
g5
Ntp1373
Rp1374
(dp1375
g9
I0
sg10
Nsg11
Nsg12
(lp1376
g3
(g14
g5
Ntp1377
Rp1378
(dp1379
g18
Vad
p1380
sbasg24
I00
sg25
g3
(g4
g5
Ntp1381
Rp1382
(dp1383
g9
I8
sg10
Nsg11
Nsg12
(lp1384
g3
(g14
g5
Ntp1385
Rp1386
(dp1387
g18
Vad
p1388
sbasg24
I00
sg25
Nsg26
Nsg27
(lp1389
(dp1390
Vexpanded_url
p1391
Vhttp://twitter.com/NotQuiteSusie/status/543095663647805442/photo/1
p1392
sVdisplay_url
p1393
Vpic.twitter.com/33fKBMr5sg
p1394
sVurl
p1395
Vhttp://t.co/33fKBMr5sg
p1396
sVmedia_url_https
p1397
Vhttps://pbs.twimg.com/media/B4l2oNVCUAA3957.png
p1398
sVid_str
p1399
V543095663219593216
p1400
sVsizes
p1401
(dp1402
Vsmall
p1403
(dp1404
Vh
p1405
I230
sVresize
p1406
Vfit
p1407
sVw
p1408
I340
ssVlarge
p1409
(dp1410
Vh
p1411
I249
sVresize
p1412
Vfit
p1413
sVw
p1414
I367
ssVmedium
p1415
(dp1416
Vh
p1417
I249
sVresize
p1418
Vfit
p1419
sVw
p1420
I367
ssVthumb
p1421
(dp1422
Vh
p1423
I150
sVresize
p1424
Vcrop
p1425
sVw
p1426
I150
sssVindices
p1427
(lp1428
I116
aI138
asVtype
p1429
Vphoto
p1430
sVid
p1431
I543095663219593216
sVmedia_url
p1432
Vhttp://pbs.twimg.com/media/B4l2oNVCUAA3957.png
p1433
sasg29
Nsg30
Nsg31
Nsg32
VThu Dec 11 17:31:11 +0000 2014
p1434
sg34
Nsg35
I00
sg36
Nsg37
Nsg38
Nsg39
Nsg40
I00
sg41
Nsg42
(lp1435
sg77
Nsg78
Nsg79
Nsg80
VYum! Nestle has cookie dough SHEETS perfect for food crafting or easy Christmas cookies! #ad http://t.co/8AlY6WyOrf http://t.co/33fKBMr5sg
p1436
sg82
I00
sg83
Ven
p1437
sg85
g3
(g44
g5
Ntp1438
Rp1439
(dp1440
g10
VLas Vegas, NV
p1441
sg48
V000000
p1442
sg49
Ven
p1443
sg50
VPacific Time (US & Canada)
p1444
sg51
I8779
sg52
I11432
sg32
VWed Feb 10 09:09:16 +0000 2010
p1445
sg53
I00
sg54
V20-something Mom, Wife & Blogger at {Not Quite} Susie Homemaker. Addicted to Easter Candy & Sparkles.
p1446
sg55
Vhttps://pbs.twimg.com/profile_images/462055917857411072/xt9q0egk_normal.jpeg
p1447
sg56
I4967
sg57
I84
sg58
I-28800
sg59
Nsg60
I00
sg61
Vhttps://pbs.twimg.com/profile_banners/112977585/1409733100
p1448
sg62
I00
sg63
I01
sg64
V97D1C5
p1449
sg65
I00
sg66
I00
sg67
Vhttp://pbs.twimg.com/profile_background_images/620247810/a6gkn1jjagnstxxcb72f.png
p1450
sg68
VNotQuiteSusie
p1451
sg70
I185
sg71
VShell Feis
p1452
sg73
VEBB7DB
p1453
sg74
Vhttp://t.co/C7S0JsTVTa
p1454
sg75
I112977585
sg76
VFFFFFF
p1455
sbsg103
I24
sg104
V<a href="http://twitter.com" rel="nofollow">Twitter Web Client</a>
p1456
sg106
(lp1457
g3
(g108
g5
Ntp1458
Rp1459
(dp1460
g112
Vhttp://t.co/8AlY6WyOrf
p1461
sg114
Vhttp://ooh.li/322eb2d
p1462
sbasg75
I543095663647805442
sbsg26
Nsg27
(lp1463
(dp1464
Vsource_user_id
p1465
I112977585
sVsource_status_id_str
p1466
V543095663647805442
p1467
sVexpanded_url
p1468
Vhttp://twitter.com/NotQuiteSusie/status/543095663647805442/photo/1
p1469
sVdisplay_url
p1470
Vpic.twitter.com/33fKBMr5sg
p1471
sVurl
p1472
Vhttp://t.co/33fKBMr5sg
p1473
sVmedia_url_https
p1474
Vhttps://pbs.twimg.com/media/B4l2oNVCUAA3957.png
p1475
sVsource_user_id_str
p1476
V112977585
p1477
sVsource_status_id
p1478
I543095663647805442
sVid_str
p1479
V543095663219593216
p1480
sVsizes
p1481
(dp1482
Vsmall
p1483
(dp1484
Vh
p1485
I230
sVresize
p1486
Vfit
p1487
sVw
p1488
I340
ssVlarge
p1489
(dp1490
Vh
p1491
I249
sVresize
p1492
Vfit
p1493
sVw
p1494
I367
ssVmedium
p1495
(dp1496
Vh
p1497
I249
sVresize
p1498
Vfit
p1499
sVw
p1500
I367
ssVthumb
p1501
(dp1502
Vh
p1503
I150
sVresize
p1504
Vcrop
p1505
sVw
p1506
I150
sssVindices
p1507
(lp1508
I139
aI140
asVtype
p1509
Vphoto
p1510
sVid
p1511
I543095663219593216
sVmedia_url
p1512
Vhttp://pbs.twimg.com/media/B4l2oNVCUAA3957.png
p1513
sasg29
Nsg30
Nsg31
Nsg32
VSat Dec 13 03:45:25 +0000 2014
p1514
sg34
Nsg35
I00
sg36
Nsg37
Nsg38
Nsg39
Nsg40
I00
sg41
Nsg42
(lp1515
g3
(g44
g5
Ntp1516
Rp1517
(dp1518
g10
Nsg48
Nsg49
Nsg50
Nsg51
Nsg52
Nsg32
Nsg53
Nsg54
Nsg55
Nsg56
Nsg57
Nsg58
Nsg59
Nsg60
Nsg61
Nsg62
Nsg63
Nsg64
Nsg65
Nsg66
Nsg67
Nsg68
VNotQuiteSusie
p1519
sg70
Nsg71
VShell Feis
p1520
sg73
Nsg74
Nsg75
I112977585
sg76
Nsbasg77
Nsg78
Nsg79
Nsg80
VRT @NotQuiteSusie: Yum! Nestle has cookie dough SHEETS perfect for food crafting or easy Christmas cookies! #ad http://t.co/8AlY6WyOrf http\u2026
p1521
sg82
I00
sg83
Ven
p1522
sg85
g3
(g44
g5
Ntp1523
Rp1524
(dp1525
g10
VCO
p1526
sg48
V666666
p1527
sg49
Ven
p1528
sg50
VMountain Time (US & Canada)
p1529
sg51
I10285
sg52
I4472
sg32
VThu Oct 07 04:18:57 +0000 2010
p1530
sg53
I00
sg54
VMom of 3. Blogger. Brand Ambassador. Passionate about Family, Food, Fitness, & Frugal Living.
p1531
sg55
Vhttps://pbs.twimg.com/profile_images/477328217913569282/PNG0uVxz_normal.png
p1532
sg56
I5635
sg57
I58
sg58
I-25200
sg59
Nsg60
I00
sg61
Nsg62
I00
sg63
I00
sg64
V2FC2EF
p1533
sg65
I00
sg66
I00
sg67
Vhttp://abs.twimg.com/images/themes/theme9/bg.gif
p1534
sg68
Vpennywisemama
p1535
sg70
I60
sg71
VMarisa
p1536
sg73
V252429
p1537
sg74
Vhttp://t.co/uswr5s7pL6
p1538
sg75
I199551313
sg76
V1A1B1F
p1539
sbsg103
I24
sg104
V<a href="https://mobile.twitter.com" rel="nofollow">Mobile Web (M5)</a>
p1540
sg106
(lp1541
g3
(g108
g5
Ntp1542
Rp1543
(dp1544
g112
Vhttp://t.co/8AlY6WyOrf
p1545
sg114
Vhttp://ooh.li/322eb2d
p1546
sbasg75
I543612630183596032
sbag3
(g4
g5
Ntp1547
Rp1548
(dp1549
g9
I0
sg10
Nsg11
Nsg12
(lp1550
g3
(g14
g5
Ntp1551
Rp1552
(dp1553
g18
VCASHFLOW
p1554
sbag3
(g14
g5
Ntp1555
Rp1556
(dp1557
g18
Vsp
p1558
sbasg24
I00
sg25
g3
(g4
g5
Ntp1559
Rp1560
(dp1561
g9
I0
sg10
Nsg11
Nsg12
(lp1562
g3
(g14
g5
Ntp1563
Rp1564
(dp1565
g18
VCASHFLOW
p1566
sbag3
(g14
g5
Ntp1567
Rp1568
(dp1569
g18
Vsp
p1570
sbasg24
I00
sg25
Nsg26
Nsg27
(lp1571
sg29
Nsg30
Nsg31
Nsg32
VThu Dec 11 15:03:27 +0000 2014
p1572
sg34
Nsg35
I00
sg36
Nsg37
Nsg38
Nsg39
Nsg40
I00
sg41
Nsg42
(lp1573
sg77
Nsg78
Nsg79
Nsg80
VHave you played #CASHFLOW with your kids yet? Teach your kids about being smart with money while having  fun! #sp  http://t.co/snLJI9GFFC
p1574
sg82
I00
sg83
Ven
p1575
sg85
g3
(g44
g5
Ntp1576
Rp1577
(dp1578
g10
VNevada
p1579
sg48
V333333
p1580
sg49
Ven
p1581
sg50
Nsg51
I1540
sg52
I1579
sg32
VMon Aug 15 16:46:11 +0000 2011
p1582
sg53
I00
sg54
VPR friendly #momblogger that Loves creating #Recipes. Creator of awesome #free #printables for the home and #etsy. Owner of The Bright Side of Reality Mom Blog.
p1583
sg55
Vhttps://pbs.twimg.com/profile_images/526904285259653120/PtfalNJT_normal.jpeg
p1584
sg56
I1872
sg57
I643
sg58
Nsg59
Nsg60
I00
sg61
Vhttps://pbs.twimg.com/profile_banners/355616401/1412378475
p1585
sg62
I00
sg63
I01
sg64
VF5ABB5
p1586
sg65
I00
sg66
I00
sg67
Vhttp://pbs.twimg.com/profile_background_images/464515582012821504/sgtMyRWQ.jpeg
p1587
sg68
VMyBrightReality
p1588
sg70
I23
sg71
VMiranda Lawton
p1589
sg73
VDDEEF6
p1590
sg74
Vhttp://t.co/BLnLjgGsKz
p1591
sg75
I355616401
sg76
VC0DEED
p1592
sbsg103
I19
sg104
V<a href="http://coschedule.com" rel="nofollow">CoSchedule</a>
p1593
sg106
(lp1594
g3
(g108
g5
Ntp1595
Rp1596
(dp1597
g112
Vhttp://t.co/snLJI9GFFC
p1598
sg114
Vhttp://ooh.li/d3279ba
p1599
sbasg75
I543058488822616064
sbsg26
Nsg27
(lp1600
sg29
Nsg30
Nsg31
Nsg32
VSat Dec 13 03:45:12 +0000 2014
p1601
sg34
Nsg35
I00
sg36
Nsg37
Nsg38
Nsg39
Nsg40
I00
sg41
Nsg42
(lp1602
g3
(g44
g5
Ntp1603
Rp1604
(dp1605
g10
Nsg48
Nsg49
Nsg50
Nsg51
Nsg52
Nsg32
Nsg53
Nsg54
Nsg55
Nsg56
Nsg57
Nsg58
Nsg59
Nsg60
Nsg61
Nsg62
Nsg63
Nsg64
Nsg65
Nsg66
Nsg67
Nsg68
VMyBrightReality
p1606
sg70
Nsg71
VMiranda Lawton
p1607
sg73
Nsg74
Nsg75
I355616401
sg76
Nsbasg77
Nsg78
Nsg79
Nsg80
VRT @MyBrightReality: Have you played #CASHFLOW with your kids yet? Teach your kids about being smart with money while having  fun! #sp  htt\u2026
p1608
sg82
I00
sg83
Ven
p1609
sg85
g3
(g44
g5
Ntp1610
Rp1611
(dp1612
g10
VCO
p1613
sg48
V666666
p1614
sg49
Ven
p1615
sg50
VMountain Time (US & Canada)
p1616
sg51
I10285
sg52
I4472
sg32
VThu Oct 07 04:18:57 +0000 2010
p1617
sg53
I00
sg54
VMom of 3. Blogger. Brand Ambassador. Passionate about Family, Food, Fitness, & Frugal Living.
p1618
sg55
Vhttps://pbs.twimg.com/profile_images/477328217913569282/PNG0uVxz_normal.png
p1619
sg56
I5635
sg57
I58
sg58
I-25200
sg59
Nsg60
I00
sg61
Nsg62
I00
sg63
I00
sg64
V2FC2EF
p1620
sg65
I00
sg66
I00
sg67
Vhttp://abs.twimg.com/images/themes/theme9/bg.gif
p1621
sg68
Vpennywisemama
p1622
sg70
I60
sg71
VMarisa
p1623
sg73
V252429
p1624
sg74
Vhttp://t.co/uswr5s7pL6
p1625
sg75
I199551313
sg76
V1A1B1F
p1626
sbsg103
I19
sg104
V<a href="https://mobile.twitter.com" rel="nofollow">Mobile Web (M5)</a>
p1627
sg106
(lp1628
g3
(g108
g5
Ntp1629
Rp1630
(dp1631
g112
Vhttp://t.co/snLJI9GFFC
p1632
sg114
Vhttp://ooh.li/d3279ba
p1633
sbasg75
I543612573547892736
sbag3
(g4
g5
Ntp1634
Rp1635
(dp1636
g9
I0
sg10
Nsg11
Nsg12
(lp1637
g3
(g14
g5
Ntp1638
Rp1639
(dp1640
g18
VMezzettaMemories
p1641
sbag3
(g14
g5
Ntp1642
Rp1643
(dp1644
g18
VSharingJoy
p1645
sbag3
(g14
g5
Ntp1646
Rp1647
(dp1648
g18
Vsp
p1649
sbasg24
I00
sg25
g3
(g4
g5
Ntp1650
Rp1651
(dp1652
g9
I2
sg10
Nsg11
Nsg12
(lp1653
g3
(g14
g5
Ntp1654
Rp1655
(dp1656
g18
VMezzettaMemories
p1657
sbag3
(g14
g5
Ntp1658
Rp1659
(dp1660
g18
VSharingJoy
p1661
sbag3
(g14
g5
Ntp1662
Rp1663
(dp1664
g18
Vsp
p1665
sbasg24
I00
sg25
Nsg26
Nsg27
(lp1666
sg29
Nsg30
Nsg31
Nsg32
VThu Dec 11 17:16:29 +0000 2014
p1667
sg34
Nsg35
I00
sg36
Nsg37
Nsg38
Nsg39
Nsg40
I00
sg41
Nsg42
(lp1668
sg77
Nsg78
Nsg79
Nsg80
VEnter to win every single day! http://t.co/0SsEa2MlHv #MezzettaMemories #SharingJoy #sp
p1669
sg82
I00
sg83
Ven
p1670
sg85
g3
(g44
g5
Ntp1671
Rp1672
(dp1673
g10
g243
sg48
V333333
p1674
sg49
Ven
p1675
sg50
VEastern Time (US & Canada)
p1676
sg51
I3358
sg52
I8218
sg32
VThu Sep 08 18:19:33 +0000 2011
p1677
sg53
I00
sg54
VBlogging, #cooking, #gardening, DIYing, jogging and most importantly: momming. PR friendly #blogger
p1678
sg55
Vhttps://pbs.twimg.com/profile_images/3222924732/e6d7bd4efb2e96c857cea128467f1068_normal.png
p1679
sg56
I1226
sg57
I228
sg58
I-18000
sg59
Nsg60
I00
sg61
Vhttps://pbs.twimg.com/profile_banners/370252916/1398394023
p1680
sg62
I00
sg63
I00
sg64
V93A644
p1681
sg65
I00
sg66
I00
sg67
Vhttp://abs.twimg.com/images/themes/theme13/bg.gif
p1682
sg68
Vgrownandhealthy
p1683
sg70
I35
sg71
VAubrey // H&H
p1684
sg73
VFFFFFF
p1685
sg74
Vhttp://t.co/neXWLQS5r7
p1686
sg75
I370252916
sg76
VB2DFDA
p1687
sbsg103
I64
sg104
V<a href="http://twitter.com" rel="nofollow">Twitter Web Client</a>
p1688
sg106
(lp1689
g3
(g108
g5
Ntp1690
Rp1691
(dp1692
g112
Vhttp://t.co/0SsEa2MlHv
p1693
sg114
Vhttp://ooh.li/cee4499
p1694
sbasg75
I543091964791779328
sbsg26
Nsg27
(lp1695
sg29
Nsg30
Nsg31
Nsg32
VSat Dec 13 03:44:57 +0000 2014
p1696
sg34
Nsg35
I00
sg36
Nsg37
Nsg38
Nsg39
Nsg40
I00
sg41
Nsg42
(lp1697
g3
(g44
g5
Ntp1698
Rp1699
(dp1700
g10
Nsg48
Nsg49
Nsg50
Nsg51
Nsg52
Nsg32
Nsg53
Nsg54
Nsg55
Nsg56
Nsg57
Nsg58
Nsg59
Nsg60
Nsg61
Nsg62
Nsg63
Nsg64
Nsg65
Nsg66
Nsg67
Nsg68
Vgrownandhealthy
p1701
sg70
Nsg71
VAubrey // H&H
p1702
sg73
Nsg74
Nsg75
I370252916
sg76
Nsbasg77
Nsg78
Nsg79
Nsg80
VRT @grownandhealthy: Enter to win every single day! http://t.co/0SsEa2MlHv #MezzettaMemories #SharingJoy #sp
p1703
sg82
I00
sg83
Ven
p1704
sg85
g3
(g44
g5
Ntp1705
Rp1706
(dp1707
g10
VCO
p1708
sg48
V666666
p1709
sg49
Ven
p1710
sg50
VMountain Time (US & Canada)
p1711
sg51
I10285
sg52
I4472
sg32
VThu Oct 07 04:18:57 +0000 2010
p1712
sg53
I00
sg54
VMom of 3. Blogger. Brand Ambassador. Passionate about Family, Food, Fitness, & Frugal Living.
p1713
sg55
Vhttps://pbs.twimg.com/profile_images/477328217913569282/PNG0uVxz_normal.png
p1714
sg56
I5635
sg57
I58
sg58
I-25200
sg59
Nsg60
I00
sg61
Nsg62
I00
sg63
I00
sg64
V2FC2EF
p1715
sg65
I00
sg66
I00
sg67
Vhttp://abs.twimg.com/images/themes/theme9/bg.gif
p1716
sg68
Vpennywisemama
p1717
sg70
I60
sg71
VMarisa
p1718
sg73
V252429
p1719
sg74
Vhttp://t.co/uswr5s7pL6
p1720
sg75
I199551313
sg76
V1A1B1F
p1721
sbsg103
I64
sg104
V<a href="https://mobile.twitter.com" rel="nofollow">Mobile Web (M5)</a>
p1722
sg106
(lp1723
g3
(g108
g5
Ntp1724
Rp1725
(dp1726
g112
Vhttp://t.co/0SsEa2MlHv
p1727
sg114
Vhttp://ooh.li/cee4499
p1728
sbasg75
I543612512214585344
sbag3
(g4
g5
Ntp1729
Rp1730
(dp1731
g9
I0
sg10
Nsg11
Nsg12
(lp1732
g3
(g14
g5
Ntp1733
Rp1734
(dp1735
g18
Vcookiedoughsheets
p1736
sbag3
(g14
g5
Ntp1737
Rp1738
(dp1739
g18
Vsp
p1740
sbasg24
I00
sg25
g3
(g4
g5
Ntp1741
Rp1742
(dp1743
g9
I6
sg10
Nsg11
Nsg12
(lp1744
g3
(g14
g5
Ntp1745
Rp1746
(dp1747
g18
Vcookiedoughsheets
p1748
sbag3
(g14
g5
Ntp1749
Rp1750
(dp1751
g18
Vsp
p1752
sbasg24
I00
sg25
Nsg26
Nsg27
(lp1753
(dp1754
Vexpanded_url
p1755
Vhttp://twitter.com/notimeMom/status/543091459826515968/photo/1
p1756
sVdisplay_url
p1757
Vpic.twitter.com/PnCoS4Jorv
p1758
sVurl
p1759
Vhttp://t.co/PnCoS4Jorv
p1760
sVmedia_url_https
p1761
Vhttps://pbs.twimg.com/media/B4lyzgUCcAE6mPo.jpg
p1762
sVid_str
p1763
V543091459247730689
p1764
sVsizes
p1765
(dp1766
Vsmall
p1767
(dp1768
Vh
p1769
I226
sVresize
p1770
Vfit
p1771
sVw
p1772
I340
ssVlarge
p1773
(dp1774
Vh
p1775
I682
sVresize
p1776
Vfit
p1777
sVw
p1778
I1024
ssVmedium
p1779
(dp1780
Vh
p1781
I400
sVresize
p1782
Vfit
p1783
sVw
p1784
I600
ssVthumb
p1785
(dp1786
Vh
p1787
I150
sVresize
p1788
Vcrop
p1789
sVw
p1790
I150
sssVindices
p1791
(lp1792
I117
aI139
asVtype
p1793
Vphoto
p1794
sVid
p1795
I543091459247730689
sVmedia_url
p1796
Vhttp://pbs.twimg.com/media/B4lyzgUCcAE6mPo.jpg
p1797
sasg29
Nsg30
Nsg31
Nsg32
VThu Dec 11 17:14:28 +0000 2014
p1798
sg34
Nsg35
I00
sg36
Nsg37
Nsg38
Nsg39
Nsg40
I00
sg41
Nsg42
(lp1799
g3
(g44
g5
Ntp1800
Rp1801
(dp1802
g10
Nsg48
Nsg49
Nsg50
Nsg51
Nsg52
Nsg32
Nsg53
Nsg54
Nsg55
Nsg56
Nsg57
Nsg58
Nsg59
Nsg60
Nsg61
Nsg62
Nsg63
Nsg64
Nsg65
Nsg66
Nsg67
Nsg68
VNestleTollHouse
p1803
sg70
Nsg71
VNestle Toll House
p1804
sg73
Nsg74
Nsg75
I386487041
sg76
Nsbasg77
Nsg78
Nsg79
Nsg80
VCreate Pumpkin Bars w/ @NestleTollHouse rolled &amp; ready #cookiedoughsheets Be inspired #sp http://t.co/OfZj4ioPgr http://t.co/PnCoS4Jorv
p1805
sg82
I00
sg83
Ven
p1806
sg85
g3
(g44
g5
Ntp1807
Rp1808
(dp1809
g10
VOregon
p1810
sg48
V333333
p1811
sg49
Ven
p1812
sg50
VPacific Time (US & Canada)
p1813
sg51
I10685
sg52
I87976
sg32
VFri Jun 12 05:26:55 +0000 2009
p1814
sg53
I00
sg54
VPR Friendly blog. Mom of 2 with much to do! From my garden, through the kitchen & to my table, it is all an adventure. Come join me.
p1815
sg55
Vhttps://pbs.twimg.com/profile_images/1521710847/IMG_4342_normal.JPG
p1816
sg56
I4648
sg57
I51331
sg58
I-28800
sg59
Nsg60
I00
sg61
Vhttps://pbs.twimg.com/profile_banners/46589508/1398228587
p1817
sg62
I00
sg63
I00
sg64
V93A644
p1818
sg65
I00
sg66
I00
sg67
Vhttp://abs.twimg.com/images/themes/theme13/bg.gif
p1819
sg68
VnotimeMom
p1820
sg70
I230
sg71
VAndrea Kruse
p1821
sg73
VFFFFFF
p1822
sg74
Vhttp://t.co/u3oEN4S26O
p1823
sg75
I46589508
sg76
VB2DFDA
p1824
sbsg103
I22
sg104
V<a href="http://twitter.com" rel="nofollow">Twitter Web Client</a>
p1825
sg106
(lp1826
g3
(g108
g5
Ntp1827
Rp1828
(dp1829
g112
Vhttp://t.co/OfZj4ioPgr
p1830
sg114
Vhttp://ooh.li/0b5fe8a
p1831
sbasg75
I543091459826515968
sbsg26
Nsg27
(lp1832
(dp1833
Vsource_user_id
p1834
I46589508
sVsource_status_id_str
p1835
V543091459826515968
p1836
sVexpanded_url
p1837
Vhttp://twitter.com/notimeMom/status/543091459826515968/photo/1
p1838
sVdisplay_url
p1839
Vpic.twitter.com/PnCoS4Jorv
p1840
sVurl
p1841
Vhttp://t.co/PnCoS4Jorv
p1842
sVmedia_url_https
p1843
Vhttps://pbs.twimg.com/media/B4lyzgUCcAE6mPo.jpg
p1844
sVsource_user_id_str
p1845
V46589508
p1846
sVsource_status_id
p1847
I543091459826515968
sVid_str
p1848
V543091459247730689
p1849
sVsizes
p1850
(dp1851
Vsmall
p1852
(dp1853
Vh
p1854
I226
sVresize
p1855
Vfit
p1856
sVw
p1857
I340
ssVlarge
p1858
(dp1859
Vh
p1860
I682
sVresize
p1861
Vfit
p1862
sVw
p1863
I1024
ssVmedium
p1864
(dp1865
Vh
p1866
I400
sVresize
p1867
Vfit
p1868
sVw
p1869
I600
ssVthumb
p1870
(dp1871
Vh
p1872
I150
sVresize
p1873
Vcrop
p1874
sVw
p1875
I150
sssVindices
p1876
(lp1877
I143
aI144
asVtype
p1878
Vphoto
p1879
sVid
p1880
I543091459247730689
sVmedia_url
p1881
Vhttp://pbs.twimg.com/media/B4lyzgUCcAE6mPo.jpg
p1882
sasg29
Nsg30
Nsg31
Nsg32
VSat Dec 13 03:44:44 +0000 2014
p1883
sg34
Nsg35
I00
sg36
Nsg37
Nsg38
Nsg39
Nsg40
I00
sg41
Nsg42
(lp1884
g3
(g44
g5
Ntp1885
Rp1886
(dp1887
g10
Nsg48
Nsg49
Nsg50
Nsg51
Nsg52
Nsg32
Nsg53
Nsg54
Nsg55
Nsg56
Nsg57
Nsg58
Nsg59
Nsg60
Nsg61
Nsg62
Nsg63
Nsg64
Nsg65
Nsg66
Nsg67
Nsg68
VnotimeMom
p1888
sg70
Nsg71
VAndrea Kruse
p1889
sg73
Nsg74
Nsg75
I46589508
sg76
Nsbag3
(g44
g5
Ntp1890
Rp1891
(dp1892
g10
Nsg48
Nsg49
Nsg50
Nsg51
Nsg52
Nsg32
Nsg53
Nsg54
Nsg55
Nsg56
Nsg57
Nsg58
Nsg59
Nsg60
Nsg61
Nsg62
Nsg63
Nsg64
Nsg65
Nsg66
Nsg67
Nsg68
VNestleTollHouse
p1893
sg70
Nsg71
VNestle Toll House
p1894
sg73
Nsg74
Nsg75
I386487041
sg76
Nsbasg77
Nsg78
Nsg79
Nsg80
VRT @notimeMom: Create Pumpkin Bars w/ @NestleTollHouse rolled &amp; ready #cookiedoughsheets Be inspired #sp http://t.co/OfZj4ioPgr http://t.co\u2026
p1895
sg82
I00
sg83
Ven
p1896
sg85
g3
(g44
g5
Ntp1897
Rp1898
(dp1899
g10
VCO
p1900
sg48
V666666
p1901
sg49
Ven
p1902
sg50
VMountain Time (US & Canada)
p1903
sg51
I10285
sg52
I4472
sg32
VThu Oct 07 04:18:57 +0000 2010
p1904
sg53
I00
sg54
VMom of 3. Blogger. Brand Ambassador. Passionate about Family, Food, Fitness, & Frugal Living.
p1905
sg55
Vhttps://pbs.twimg.com/profile_images/477328217913569282/PNG0uVxz_normal.png
p1906
sg56
I5635
sg57
I58
sg58
I-25200
sg59
Nsg60
I00
sg61
Nsg62
I00
sg63
I00
sg64
V2FC2EF
p1907
sg65
I00
sg66
I00
sg67
Vhttp://abs.twimg.com/images/themes/theme9/bg.gif
p1908
sg68
Vpennywisemama
p1909
sg70
I60
sg71
VMarisa
p1910
sg73
V252429
p1911
sg74
Vhttp://t.co/uswr5s7pL6
p1912
sg75
I199551313
sg76
V1A1B1F
p1913
sbsg103
I22
sg104
V<a href="https://mobile.twitter.com" rel="nofollow">Mobile Web (M5)</a>
p1914
sg106
(lp1915
g3
(g108
g5
Ntp1916
Rp1917
(dp1918
g112
Vhttp://t.co/OfZj4ioPgr
p1919
sg114
Vhttp://ooh.li/0b5fe8a
p1920
sbasg75
I543612457894154240
sbag3
(g4
g5
Ntp1921
Rp1922
(dp1923
g9
I0
sg10
Nsg11
Nsg12
(lp1924
g3
(g14
g5
Ntp1925
Rp1926
(dp1927
g18
Vcookiedoughsheets
p1928
sbag3
(g14
g5
Ntp1929
Rp1930
(dp1931
g18
VTollHouseTime
p1932
sbag3
(g14
g5
Ntp1933
Rp1934
(dp1935
g18
Vsp
p1936
sbasg24
I00
sg25
g3
(g4
g5
Ntp1937
Rp1938
(dp1939
g9
I5
sg10
Nsg11
Nsg12
(lp1940
g3
(g14
g5
Ntp1941
Rp1942
(dp1943
g18
Vcookiedoughsheets
p1944
sbag3
(g14
g5
Ntp1945
Rp1946
(dp1947
g18
VTollHouseTime
p1948
sbag3
(g14
g5
Ntp1949
Rp1950
(dp1951
g18
Vsp
p1952
sbasg24
I00
sg25
Nsg26
Nsg27
(lp1953
sg29
Nsg30
Nsg31
Nsg32
VTue Dec 09 21:48:19 +0000 2014
p1954
sg34
Nsg35
I00
sg36
Nsg37
Nsg38
Nsg39
Nsg40
I00
sg41
Nsg42
(lp1955
g3
(g44
g5
Ntp1956
Rp1957
(dp1958
g10
Nsg48
Nsg49
Nsg50
Nsg51
Nsg52
Nsg32
Nsg53
Nsg54
Nsg55
Nsg56
Nsg57
Nsg58
Nsg59
Nsg60
Nsg61
Nsg62
Nsg63
Nsg64
Nsg65
Nsg66
Nsg67
Nsg68
VNestleTollHouse
p1959
sg70
Nsg71
VNestle Toll House
p1960
sg73
Nsg74
Nsg75
I386487041
sg76
Nsbasg77
Nsg78
Nsg79
Nsg80
VCreate holiday inspired cookies with rolled and ready #cookiedoughsheets from @NestleTollHouse #TollHouseTime #sp http://t.co/wmzm4tnkt3
p1961
sg82
I00
sg83
Ven
p1962
sg85
g3
(g44
g5
Ntp1963
Rp1964
(dp1965
g10
VEvansville,  Indiana
p1966
sg48
V362720
p1967
sg49
Ven
p1968
sg50
VAlaska
p1969
sg51
I16405
sg52
I6140
sg32
VThu Feb 07 23:44:05 +0000 2008
p1970
sg53
I00
sg54
VLifestyle // Photography // Travel // Fashion // Beauty // Tech  Find me @BeautyCounter & @FashionFling as well.
p1971
sg55
Vhttps://pbs.twimg.com/profile_images/522534097659240448/_Qz3Roxl_normal.jpeg
p1972
sg56
I15467
sg57
I705
sg58
I-32400
sg59
Nsg60
I00
sg61
Vhttps://pbs.twimg.com/profile_banners/13226812/1413542560
p1973
sg62
I00
sg63
I01
sg64
V1C884E
p1974
sg65
I01
sg66
I00
sg67
Vhttp://pbs.twimg.com/profile_background_images/434003568459137025/CT4lUtQc.jpeg
p1975
sg68
VHilLesha
p1976
sg70
I215
sg71
VHilLesha O'Nan
p1977
sg73
VE5507E
p1978
sg74
Vhttp://t.co/PFvCnrg533
p1979
sg75
I13226812
sg76
VFFFFFF
p1980
sbsg103
I19
sg104
V<a href="http://twitter.com" rel="nofollow">Twitter Web Client</a>
p1981
sg106
(lp1982
g3
(g108
g5
Ntp1983
Rp1984
(dp1985
g112
Vhttp://t.co/wmzm4tnkt3
p1986
sg114
Vhttp://ooh.li/bdba74a
p1987
sbasg75
I542435599324442625
sbsg26
Nsg27
(lp1988
sg29
Nsg30
Nsg31
Nsg32
VSat Dec 13 03:44:27 +0000 2014
p1989
sg34
Nsg35
I00
sg36
Nsg37
Nsg38
Nsg39
Nsg40
I00
sg41
Nsg42
(lp1990
g3
(g44
g5
Ntp1991
Rp1992
(dp1993
g10
Nsg48
Nsg49
Nsg50
Nsg51
Nsg52
Nsg32
Nsg53
Nsg54
Nsg55
Nsg56
Nsg57
Nsg58
Nsg59
Nsg60
Nsg61
Nsg62
Nsg63
Nsg64
Nsg65
Nsg66
Nsg67
Nsg68
VHilLesha
p1994
sg70
Nsg71
VHilLesha O'Nan
p1995
sg73
Nsg74
Nsg75
I13226812
sg76
Nsbag3
(g44
g5
Ntp1996
Rp1997
(dp1998
g10
Nsg48
Nsg49
Nsg50
Nsg51
Nsg52
Nsg32
Nsg53
Nsg54
Nsg55
Nsg56
Nsg57
Nsg58
Nsg59
Nsg60
Nsg61
Nsg62
Nsg63
Nsg64
Nsg65
Nsg66
Nsg67
Nsg68
VNestleTollHouse
p1999
sg70
Nsg71
VNestle Toll House
p2000
sg73
Nsg74
Nsg75
I386487041
sg76
Nsbasg77
Nsg78
Nsg79
Nsg80
VRT @HilLesha: Create holiday inspired cookies with rolled and ready #cookiedoughsheets from @NestleTollHouse #TollHouseTime #sp http://t.co\u2026
p2001
sg82
I00
sg83
Ven
p2002
sg85
g3
(g44
g5
Ntp2003
Rp2004
(dp2005
g10
VCO
p2006
sg48
V666666
p2007
sg49
Ven
p2008
sg50
VMountain Time (US & Canada)
p2009
sg51
I10285
sg52
I4472
sg32
VThu Oct 07 04:18:57 +0000 2010
p2010
sg53
I00
sg54
VMom of 3. Blogger. Brand Ambassador. Passionate about Family, Food, Fitness, & Frugal Living.
p2011
sg55
Vhttps://pbs.twimg.com/profile_images/477328217913569282/PNG0uVxz_normal.png
p2012
sg56
I5635
sg57
I58
sg58
I-25200
sg59
Nsg60
I00
sg61
Nsg62
I00
sg63
I00
sg64
V2FC2EF
p2013
sg65
I00
sg66
I00
sg67
Vhttp://abs.twimg.com/images/themes/theme9/bg.gif
p2014
sg68
Vpennywisemama
p2015
sg70
I60
sg71
VMarisa
p2016
sg73
V252429
p2017
sg74
Vhttp://t.co/uswr5s7pL6
p2018
sg75
I199551313
sg76
V1A1B1F
p2019
sbsg103
I19
sg104
V<a href="https://mobile.twitter.com" rel="nofollow">Mobile Web (M5)</a>
p2020
sg106
(lp2021
g3
(g108
g5
Ntp2022
Rp2023
(dp2024
g112
Vhttp://t.co/wmzm4tnkt3
p2025
sg114
Vhttp://ooh.li/bdba74a
p2026
sbasg75
I543612385882161152
sbag3
(g4
g5
Ntp2027
Rp2028
(dp2029
g9
I0
sg10
Nsg11
Nsg12
(lp2030
g3
(g14
g5
Ntp2031
Rp2032
(dp2033
g18
VCashewmilk
p2034
sbasg24
I00
sg25
Nsg26
Nsg27
(lp2035
sg29
Nsg30
Nsg31
Nsg32
VSat Dec 13 01:36:00 +0000 2014
p2036
sg34
Nsg35
I00
sg36
Nsg37
Nsg38
Nsg39
Nsg40
I00
sg41
Nsg42
(lp2037
g3
(g44
g5
Ntp2038
Rp2039
(dp2040
g10
Nsg48
Nsg49
Nsg50
Nsg51
Nsg52
Nsg32
Nsg53
Nsg54
Nsg55
Nsg56
Nsg57
Nsg58
Nsg59
Nsg60
Nsg61
Nsg62
Nsg63
Nsg64
Nsg65
Nsg66
Nsg67
Nsg68
VLoveMySilk
p2041
sg70
Nsg71
VSilk 
p2042
sg73
Nsg74
Nsg75
I25354531
sg76
Nsbasg77
Nsg78
Nsg79
Nsg80
VBreakfast solved. So creamy. So delicious. You gotta try it! @LoveMySilk #Cashewmilk http://t.co/od2WloKd8i
p2043
sg82
I00
sg83
Ven
p2044
sg85
g3
(g44
g5
Ntp2045
Rp2046
(dp2047
g10
VCO
p2048
sg48
V666666
p2049
sg49
Ven
p2050
sg50
VMountain Time (US & Canada)
p2051
sg51
I10285
sg52
I4472
sg32
VThu Oct 07 04:18:57 +0000 2010
p2052
sg53
I00
sg54
VMom of 3. Blogger. Brand Ambassador. Passionate about Family, Food, Fitness, & Frugal Living.
p2053
sg55
Vhttps://pbs.twimg.com/profile_images/477328217913569282/PNG0uVxz_normal.png
p2054
sg56
I5635
sg57
I58
sg58
I-25200
sg59
Nsg60
I00
sg61
Nsg62
I00
sg63
I00
sg64
V2FC2EF
p2055
sg65
I00
sg66
I00
sg67
Vhttp://abs.twimg.com/images/themes/theme9/bg.gif
p2056
sg68
Vpennywisemama
p2057
sg70
I60
sg71
VMarisa
p2058
sg73
V252429
p2059
sg74
Vhttp://t.co/uswr5s7pL6
p2060
sg75
I199551313
sg76
V1A1B1F
p2061
sbsg103
I0
sg104
V<a href="http://instagram.com" rel="nofollow">Instagram</a>
p2062
sg106
(lp2063
g3
(g108
g5
Ntp2064
Rp2065
(dp2066
g112
Vhttp://t.co/od2WloKd8i
p2067
sg114
Vhttp://instagram.com/p/wh1dQPxLYU/
p2068
sbasg75
I543580061350121472
sbag3
(g4
g5
Ntp2069
Rp2070
(dp2071
g9
I0
sg10
Nsg11
Nsg12
(lp2072
g3
(g14
g5
Ntp2073
Rp2074
(dp2075
g18
Vshopular
p2076
sbag3
(g14
g5
Ntp2077
Rp2078
(dp2079
g18
Vshoppingbff
p2080
sbag3
(g14
g5
Ntp2081
Rp2082
(dp2083
g18
Vspendlessbuymore
p2084
sbasg24
I00
sg25
Nsg26
Nsg27
(lp2085
sg29
Nsg30
Nsg31
Nsg32
VFri Dec 12 23:42:44 +0000 2014
p2086
sg34
Nsg35
I00
sg36
Nsg37
Nsg38
Nsg39
Nsg40
I00
sg41
Nsg42
(lp2087
sg77
Nsg78
Nsg79
Nsg80
V5 Free Apps That Will Save You Money http://t.co/Oksy5jEWYe #shopular #shoppingbff #spendlessbuymore
p2088
sg82
I00
sg83
Ven
p2089
sg85
g3
(g44
g5
Ntp2090
Rp2091
(dp2092
g10
VCO
p2093
sg48
V666666
p2094
sg49
Ven
p2095
sg50
VMountain Time (US & Canada)
p2096
sg51
I10285
sg52
I4472
sg32
VThu Oct 07 04:18:57 +0000 2010
p2097
sg53
I00
sg54
VMom of 3. Blogger. Brand Ambassador. Passionate about Family, Food, Fitness, & Frugal Living.
p2098
sg55
Vhttps://pbs.twimg.com/profile_images/477328217913569282/PNG0uVxz_normal.png
p2099
sg56
I5635
sg57
I58
sg58
I-25200
sg59
Nsg60
I00
sg61
Nsg62
I00
sg63
I00
sg64
V2FC2EF
p2100
sg65
I00
sg66
I00
sg67
Vhttp://abs.twimg.com/images/themes/theme9/bg.gif
p2101
sg68
Vpennywisemama
p2102
sg70
I60
sg71
VMarisa
p2103
sg73
V252429
p2104
sg74
Vhttp://t.co/uswr5s7pL6
p2105
sg75
I199551313
sg76
V1A1B1F
p2106
sbsg103
I0
sg104
V<a href="http://twitter.com" rel="nofollow">Twitter Web Client</a>
p2107
sg106
(lp2108
g3
(g108
g5
Ntp2109
Rp2110
(dp2111
g112
Vhttp://t.co/Oksy5jEWYe
p2112
sg114
Vhttp://wp.me/p2f3uv-486
p2113
sbasg75
I543551554834276352
sbag3
(g4
g5
Ntp2114
Rp2115
(dp2116
g9
I0
sg10
Nsg11
Nsg12
(lp2117
g3
(g14
g5
Ntp2118
Rp2119
(dp2120
g18
VSilkCashew
p2121
sbasg24
I00
sg25
Nsg26
Nsg27
(lp2122
sg29
Nsg30
Nsg31
Nsg32
VFri Dec 12 21:55:41 +0000 2014
p2123
sg34
Nsg35
I00
sg36
Nsg37
Nsg38
Nsg39
Nsg40
I00
sg41
Nsg42
(lp2124
g3
(g44
g5
Ntp2125
Rp2126
(dp2127
g10
Nsg48
Nsg49
Nsg50
Nsg51
Nsg52
Nsg32
Nsg53
Nsg54
Nsg55
Nsg56
Nsg57
Nsg58
Nsg59
Nsg60
Nsg61
Nsg62
Nsg63
Nsg64
Nsg65
Nsg66
Nsg67
Nsg68
VLoveMySilk
p2128
sg70
Nsg71
VSilk 
p2129
sg73
Nsg74
Nsg75
I25354531
sg76
Nsbasg77
Nsg78
Nsg79
Nsg80
VNeed breakfast ideas? Try this delicious Cinnamon Cashew Breakfast Smoothie! http://t.co/khBPZ9vsKj #SilkCashew @LoveMySilk
p2130
sg82
I00
sg83
Ven
p2131
sg85
g3
(g44
g5
Ntp2132
Rp2133
(dp2134
g10
VCO
p2135
sg48
V666666
p2136
sg49
Ven
p2137
sg50
VMountain Time (US & Canada)
p2138
sg51
I10285
sg52
I4472
sg32
VThu Oct 07 04:18:57 +0000 2010
p2139
sg53
I00
sg54
VMom of 3. Blogger. Brand Ambassador. Passionate about Family, Food, Fitness, & Frugal Living.
p2140
sg55
Vhttps://pbs.twimg.com/profile_images/477328217913569282/PNG0uVxz_normal.png
p2141
sg56
I5635
sg57
I58
sg58
I-25200
sg59
Nsg60
I00
sg61
Nsg62
I00
sg63
I00
sg64
V2FC2EF
p2142
sg65
I00
sg66
I00
sg67
Vhttp://abs.twimg.com/images/themes/theme9/bg.gif
p2143
sg68
Vpennywisemama
p2144
sg70
I60
sg71
VMarisa
p2145
sg73
V252429
p2146
sg74
Vhttp://t.co/uswr5s7pL6
p2147
sg75
I199551313
sg76
V1A1B1F
p2148
sbsg103
I0
sg104
V<a href="http://twitter.com" rel="nofollow">Twitter Web Client</a>
p2149
sg106
(lp2150
g3
(g108
g5
Ntp2151
Rp2152
(dp2153
g112
Vhttp://t.co/khBPZ9vsKj
p2154
sg114
Vhttp://wp.me/p2f3uv-47I
p2155
sbasg75
I543524617403387904
sbag3
(g4
g5
Ntp2156
Rp2157
(dp2158
g9
I0
sg10
Nsg11
Nsg12
(lp2159
g3
(g14
g5
Ntp2160
Rp2161
(dp2162
g18
VTreatThePups
p2163
sbag3
(g14
g5
Ntp2164
Rp2165
(dp2166
g18
Vad
p2167
sbasg24
I00
sg25
g3
(g4
g5
Ntp2168
Rp2169
(dp2170
g9
I17
sg10
Nsg11
Nsg12
(lp2171
g3
(g14
g5
Ntp2172
Rp2173
(dp2174
g18
VTreatThePups
p2175
sbag3
(g14
g5
Ntp2176
Rp2177
(dp2178
g18
Vad
p2179
sbasg24
I00
sg25
Nsg26
Nsg27
(lp2180
(dp2181
Vexpanded_url
p2182
Vhttp://twitter.com/blm03/status/542851069500739584/photo/1
p2183
sVdisplay_url
p2184
Vpic.twitter.com/vqDaREm3ce
p2185
sVurl
p2186
Vhttp://t.co/vqDaREm3ce
p2187
sVmedia_url_https
p2188
Vhttps://pbs.twimg.com/media/B4iYK-MIQAAUNRS.jpg
p2189
sVid_str
p2190
V542851069358129152
p2191
sVsizes
p2192
(dp2193
Vsmall
p2194
(dp2195
Vh
p2196
I191
sVresize
p2197
Vfit
p2198
sVw
p2199
I340
ssVlarge
p2200
(dp2201
Vh
p2202
I576
sVresize
p2203
Vfit
p2204
sVw
p2205
I1024
ssVmedium
p2206
(dp2207
Vh
p2208
I337
sVresize
p2209
Vfit
p2210
sVw
p2211
I600
ssVthumb
p2212
(dp2213
Vh
p2214
I150
sVresize
p2215
Vcrop
p2216
sVw
p2217
I150
sssVindices
p2218
(lp2219
I55
aI77
asVtype
p2220
Vphoto
p2221
sVid
p2222
I542851069358129152
sVmedia_url
p2223
Vhttp://pbs.twimg.com/media/B4iYK-MIQAAUNRS.jpg
p2224
sasg29
Nsg30
Nsg31
Nsg32
VThu Dec 11 01:19:15 +0000 2014
p2225
sg34
Nsg35
I00
sg36
Nsg37
Nsg38
Nsg39
Nsg40
I00
sg41
Nsg42
(lp2226
sg77
Nsg78
Nsg79
Nsg80
VHow Will You #TreatThePups? http://t.co/RyqVOUz7ni #ad http://t.co/vqDaREm3ce
p2227
sg82
I00
sg83
Ven
p2228
sg85
g3
(g44
g5
Ntp2229
Rp2230
(dp2231
g10
VChicagoland
p2232
sg48
V000000
p2233
sg49
Ven
p2234
sg50
VCentral Time (US & Canada)
p2235
sg51
I33077
sg52
I81475
sg32
VThu Nov 08 03:50:58 +0000 2007
p2236
sg53
I00
sg54
VMom, Social Media Addict, Blogger
p2237
sg55
Vhttps://pbs.twimg.com/profile_images/3366742175/c14c1f97612d1b659b573214e6b7625e_normal.jpeg
p2238
sg56
I17322
sg57
I0
sg58
I-21600
sg59
Nsg60
I00
sg61
Vhttps://pbs.twimg.com/profile_banners/10054832/1398226049
p2239
sg62
I00
sg63
I01
sg64
V04ADEA
p2240
sg65
I01
sg66
I00
sg67
Vhttp://pbs.twimg.com/profile_background_images/432891454/x5914d04499d0f743096730c63affa05.png
p2241
sg68
Vblm03
p2242
sg70
I701
sg71
VLisa
p2243
sg73
VA7D307
p2244
sg74
Vhttp://t.co/hqYIlbVaPl
p2245
sg75
I10054832
sg76
V75B5E3
p2246
sbsg103
I151
sg104
V<a href="http://coschedule.com" rel="nofollow">CoSchedule</a>
p2247
sg106
(lp2248
g3
(g108
g5
Ntp2249
Rp2250
(dp2251
g112
Vhttp://t.co/RyqVOUz7ni
p2252
sg114
Vhttp://bit.ly/1yS2JO3
p2253
sbasg75
I542851069500739584
sbsg26
Nsg27
(lp2254
(dp2255
Vsource_user_id
p2256
I10054832
sVsource_status_id_str
p2257
V542851069500739584
p2258
sVexpanded_url
p2259
Vhttp://twitter.com/blm03/status/542851069500739584/photo/1
p2260
sVdisplay_url
p2261
Vpic.twitter.com/vqDaREm3ce
p2262
sVurl
p2263
Vhttp://t.co/vqDaREm3ce
p2264
sVmedia_url_https
p2265
Vhttps://pbs.twimg.com/media/B4iYK-MIQAAUNRS.jpg
p2266
sVsource_user_id_str
p2267
V10054832
p2268
sVsource_status_id
p2269
I542851069500739584
sVid_str
p2270
V542851069358129152
p2271
sVsizes
p2272
(dp2273
Vsmall
p2274
(dp2275
Vh
p2276
I191
sVresize
p2277
Vfit
p2278
sVw
p2279
I340
ssVlarge
p2280
(dp2281
Vh
p2282
I576
sVresize
p2283
Vfit
p2284
sVw
p2285
I1024
ssVmedium
p2286
(dp2287
Vh
p2288
I337
sVresize
p2289
Vfit
p2290
sVw
p2291
I600
ssVthumb
p2292
(dp2293
Vh
p2294
I150
sVresize
p2295
Vcrop
p2296
sVw
p2297
I150
sssVindices
p2298
(lp2299
I66
aI88
asVtype
p2300
Vphoto
p2301
sVid
p2302
I542851069358129152
sVmedia_url
p2303
Vhttp://pbs.twimg.com/media/B4iYK-MIQAAUNRS.jpg
p2304
sasg29
Nsg30
Nsg31
Nsg32
VFri Dec 12 05:36:34 +0000 2014
p2305
sg34
Nsg35
I00
sg36
Nsg37
Nsg38
Nsg39
Nsg40
I00
sg41
Nsg42
(lp2306
g3
(g44
g5
Ntp2307
Rp2308
(dp2309
g10
Nsg48
Nsg49
Nsg50
Nsg51
Nsg52
Nsg32
Nsg53
Nsg54
Nsg55
Nsg56
Nsg57
Nsg58
Nsg59
Nsg60
Nsg61
Nsg62
Nsg63
Nsg64
Nsg65
Nsg66
Nsg67
Nsg68
Vblm03
p2310
sg70
Nsg71
VLisa
p2311
sg73
Nsg74
Nsg75
I10054832
sg76
Nsbasg77
Nsg78
Nsg79
Nsg80
VRT @blm03: How Will You #TreatThePups? http://t.co/RyqVOUz7ni #ad http://t.co/vqDaREm3ce
p2312
sg82
I00
sg83
Ven
p2313
sg85
g3
(g44
g5
Ntp2314
Rp2315
(dp2316
g10
VCO
p2317
sg48
V666666
p2318
sg49
Ven
p2319
sg50
VMountain Time (US & Canada)
p2320
sg51
I10285
sg52
I4472
sg32
VThu Oct 07 04:18:57 +0000 2010
p2321
sg53
I00
sg54
VMom of 3. Blogger. Brand Ambassador. Passionate about Family, Food, Fitness, & Frugal Living.
p2322
sg55
Vhttps://pbs.twimg.com/profile_images/477328217913569282/PNG0uVxz_normal.png
p2323
sg56
I5635
sg57
I58
sg58
I-25200
sg59
Nsg60
I00
sg61
Nsg62
I00
sg63
I00
sg64
V2FC2EF
p2324
sg65
I00
sg66
I00
sg67
Vhttp://abs.twimg.com/images/themes/theme9/bg.gif
p2325
sg68
Vpennywisemama
p2326
sg70
I60
sg71
VMarisa
p2327
sg73
V252429
p2328
sg74
Vhttp://t.co/uswr5s7pL6
p2329
sg75
I199551313
sg76
V1A1B1F
p2330
sbsg103
I151
sg104
V<a href="https://mobile.twitter.com" rel="nofollow">Mobile Web (M5)</a>
p2331
sg106
(lp2332
g3
(g108
g5
Ntp2333
Rp2334
(dp2335
g112
Vhttp://t.co/RyqVOUz7ni
p2336
sg114
Vhttp://bit.ly/1yS2JO3
p2337
sbasg75
I543278214554992640
sbaa.