(lp0
S'Ash10_Petro'
p1
a(lp2
ccopy_reg
_reconstructor
p3
(ctwitter
Status
p4
c__builtin__
object
p5
Ntp6
Rp7
(dp8
S'_favorite_count'
p9
I0
sS'_location'
p10
NsS'_withheld_scope'
p11
NsS'hashtags'
p12
(lp13
sS'_truncated'
p14
I00
sS'_retweeted_status'
p15
NsS'_withheld_copyright'
p16
NsS'media'
p17
(lp18
sS'_place'
p19
NsS'_contributors'
p20
NsS'_current_user_retweet'
p21
NsS'_created_at'
p22
VSun Dec 14 18:17:56 +0000 2014
p23
sS'_scopes'
p24
NsS'_possibly_sensitive'
p25
NsS'_in_reply_to_screen_name'
p26
NsS'_coordinates'
p27
NsS'_in_reply_to_user_id'
p28
NsS'_geo'
p29
NsS'_favorited'
p30
I00
sS'_withheld_in_countries'
p31
NsS'user_mentions'
p32
(lp33
sS'_now'
p34
NsS'_id_str'
p35
V544194594230263808
p36
sS'_in_reply_to_status_id'
p37
NsS'_text'
p38
VMy hips hurt so bad this is unbelievable
p39
sS'_retweeted'
p40
I00
sS'lang'
p41
Ven
p42
sS'_user'
p43
g3
(ctwitter
User
p44
g5
Ntp45
Rp46
(dp47
g10
V
p48
sS'_profile_text_color'
p49
V000000
p50
sS'_lang'
p51
Ven
p52
sS'_time_zone'
p53
VAtlantic Time (Canada)
p54
sS'_followers_count'
p55
I413
sS'_statuses_count'
p56
I26110
sg22
VSat Aug 27 20:46:02 +0000 2011
p57
sS'_verified'
p58
I00
sS'_description'
p59
Vyoung and beyond reckless \u000a\u2620
p60
sS'_profile_image_url'
p61
Vhttps://pbs.twimg.com/profile_images/542127470502502400/azIHUEmW_normal.jpeg
p62
sS'_friends_count'
p63
I422
sS'_favourites_count'
p64
I1853
sS'_utc_offset'
p65
I-14400
sS'_status'
p66
NsS'_protected'
p67
I00
sS'_profile_banner_url'
p68
Vhttps://pbs.twimg.com/profile_banners/363278623/1415734190
p69
sS'_notifications'
p70
I00
sS'_profile_background_tile'
p71
I01
sS'_profile_link_color'
p72
V03A89E
p73
sS'_geo_enabled'
p74
I00
sS'_contributors_enabled'
p75
I00
sS'_profile_background_image_url'
p76
Vhttp://pbs.twimg.com/profile_background_images/590460996/sw7i7zy01cib3j8e7ux5.jpeg
p77
sS'_screen_name'
p78
VAsh10_Petro
p79
sS'_listed_count'
p80
I0
sS'_name'
p81
VAshten Petravicius
p82
sS'_profile_sidebar_fill_color'
p83
VF1F2ED
p84
sS'_url'
p85
NsS'_id'
p86
I363278623
sS'_profile_background_color'
p87
VF5F5DC
p88
sbsS'_retweet_count'
p89
I0
sS'_source'
p90
V<a href="http://twitter.com/download/iphone" rel="nofollow">Twitter for iPhone</a>
p91
sS'urls'
p92
(lp93
sg86
I544194594230263808
sbag3
(g4
g5
Ntp94
Rp95
(dp96
g9
I0
sg10
Nsg11
Nsg12
(lp97
sg14
I00
sg15
Nsg16
Nsg17
(lp98
sg19
Nsg20
Nsg21
Nsg22
VSun Dec 14 17:30:42 +0000 2014
p99
sg24
Nsg25
Nsg26
Varr_ee_anne_uh_
p100
sg27
Nsg28
I275819548
sg29
Nsg30
I00
sg31
Nsg32
(lp101
g3
(g44
g5
Ntp102
Rp103
(dp104
g10
Nsg49
Nsg51
Nsg53
Nsg55
Nsg56
Nsg22
Nsg58
Nsg59
Nsg61
Nsg63
Nsg64
Nsg65
Nsg66
Nsg67
Nsg68
Nsg70
Nsg71
Nsg72
Nsg74
Nsg75
Nsg76
Nsg78
Varr_ee_anne_uh_
p105
sg80
Nsg81
VArianna
p106
sg83
Nsg85
Nsg86
I275819548
sg87
Nsbasg34
Nsg35
V544182707153285120
p107
sg37
I544176732870148098
sg38
V@arr_ee_anne_uh_ Bc u r
p108
sg40
I00
sg41
Ven
p109
sg43
g3
(g44
g5
Ntp110
Rp111
(dp112
g10
g48
sg49
V000000
p113
sg51
Ven
p114
sg53
VAtlantic Time (Canada)
p115
sg55
I413
sg56
I26110
sg22
VSat Aug 27 20:46:02 +0000 2011
p116
sg58
I00
sg59
Vyoung and beyond reckless \u000a\u2620
p117
sg61
Vhttps://pbs.twimg.com/profile_images/542127470502502400/azIHUEmW_normal.jpeg
p118
sg63
I422
sg64
I1853
sg65
I-14400
sg66
Nsg67
I00
sg68
Vhttps://pbs.twimg.com/profile_banners/363278623/1415734190
p119
sg70
I00
sg71
I01
sg72
V03A89E
p120
sg74
I00
sg75
I00
sg76
Vhttp://pbs.twimg.com/profile_background_images/590460996/sw7i7zy01cib3j8e7ux5.jpeg
p121
sg78
VAsh10_Petro
p122
sg80
I0
sg81
VAshten Petravicius
p123
sg83
VF1F2ED
p124
sg85
Nsg86
I363278623
sg87
VF5F5DC
p125
sbsg89
I0
sg90
V<a href="http://twitter.com/download/iphone" rel="nofollow">Twitter for iPhone</a>
p126
sg92
(lp127
sg86
I544182707153285120
sbag3
(g4
g5
Ntp128
Rp129
(dp130
g9
I0
sg10
Nsg11
Nsg12
(lp131
sg14
I00
sg15
Nsg16
Nsg17
(lp132
(dp133
Vexpanded_url
p134
Vhttp://twitter.com/Ash10_Petro/status/544174710796599296/photo/1
p135
sVdisplay_url
p136
Vpic.twitter.com/D1znLsnD2m
p137
sVurl
p138
Vhttp://t.co/D1znLsnD2m
p139
sVmedia_url_https
p140
Vhttps://pbs.twimg.com/media/B41L_wQCMAAB7-y.jpg
p141
sVid_str
p142
V544174688637693952
p143
sVsizes
p144
(dp145
Vsmall
p146
(dp147
Vh
p148
I340
sVresize
p149
Vfit
p150
sVw
p151
I340
ssVlarge
p152
(dp153
Vh
p154
I639
sVresize
p155
Vfit
p156
sVw
p157
I639
ssVmedium
p158
(dp159
Vh
p160
I600
sVresize
p161
Vfit
p162
sVw
p163
I600
ssVthumb
p164
(dp165
Vh
p166
I150
sVresize
p167
Vcrop
p168
sVw
p169
I150
sssVindices
p170
(lp171
I50
aI72
asVtype
p172
Vphoto
p173
sVid
p174
I544174688637693952
sVmedia_url
p175
Vhttp://pbs.twimg.com/media/B41L_wQCMAAB7-y.jpg
p176
sasg19
Nsg20
Nsg21
Nsg22
VSun Dec 14 16:58:55 +0000 2014
p177
sg24
Nsg25
I00
sg26
Nsg27
Nsg28
Nsg29
Nsg30
I00
sg31
Nsg32
(lp178
g3
(g44
g5
Ntp179
Rp180
(dp181
g10
Nsg49
Nsg51
Nsg53
Nsg55
Nsg56
Nsg22
Nsg58
Nsg59
Nsg61
Nsg63
Nsg64
Nsg65
Nsg66
Nsg67
Nsg68
Nsg70
Nsg71
Nsg72
Nsg74
Nsg75
Nsg76
Nsg78
Varr_ee_anne_uh_
p182
sg80
Nsg81
VArianna
p183
sg83
Nsg85
Nsg86
I275819548
sg87
Nsbasg34
Nsg35
V544174710796599296
p184
sg37
Nsg38
VThis is my buddy, this is my pal @arr_ee_anne_uh_ http://t.co/D1znLsnD2m
p185
sg40
I00
sg41
Ven
p186
sg43
g3
(g44
g5
Ntp187
Rp188
(dp189
g10
g48
sg49
V000000
p190
sg51
Ven
p191
sg53
VAtlantic Time (Canada)
p192
sg55
I413
sg56
I26110
sg22
VSat Aug 27 20:46:02 +0000 2011
p193
sg58
I00
sg59
Vyoung and beyond reckless \u000a\u2620
p194
sg61
Vhttps://pbs.twimg.com/profile_images/542127470502502400/azIHUEmW_normal.jpeg
p195
sg63
I422
sg64
I1853
sg65
I-14400
sg66
Nsg67
I00
sg68
Vhttps://pbs.twimg.com/profile_banners/363278623/1415734190
p196
sg70
I00
sg71
I01
sg72
V03A89E
p197
sg74
I00
sg75
I00
sg76
Vhttp://pbs.twimg.com/profile_background_images/590460996/sw7i7zy01cib3j8e7ux5.jpeg
p198
sg78
VAsh10_Petro
p199
sg80
I0
sg81
VAshten Petravicius
p200
sg83
VF1F2ED
p201
sg85
Nsg86
I363278623
sg87
VF5F5DC
p202
sbsg89
I0
sg90
V<a href="http://twitter.com/download/iphone" rel="nofollow">Twitter for iPhone</a>
p203
sg92
(lp204
sg86
I544174710796599296
sbag3
(g4
g5
Ntp205
Rp206
(dp207
g9
I0
sg10
Nsg11
Nsg12
(lp208
sg14
I00
sg15
g3
(g4
g5
Ntp209
Rp210
(dp211
g9
I3
sg10
Nsg11
Nsg12
(lp212
sg14
I00
sg15
Nsg16
Nsg17
(lp213
sg19
Nsg20
Nsg21
Nsg22
VSun Dec 14 15:36:07 +0000 2014
p214
sg24
Nsg25
Nsg26
Nsg27
Nsg28
Nsg29
Nsg30
I00
sg31
Nsg32
(lp215
sg34
Nsg35
V544153869413257216
p216
sg37
Nsg38
VIf you think you were drunk last night, at least you didn't text yourself.....
p217
sg40
I00
sg41
Ven
p218
sg43
g3
(g44
g5
Ntp219
Rp220
(dp221
g10
VMI \u2708\ufe0f MN
p222
sg49
VF0F027
p223
sg51
Ven
p224
sg53
VQuito
p225
sg55
I642
sg56
I18657
sg22
VSat Apr 02 02:21:10 +0000 2011
p226
sg58
I00
sg59
V21, Graphic Designer, Student, Dog Lady http://t.co/PdFxROfWTL
p227
sg61
Vhttps://pbs.twimg.com/profile_images/543319637849407488/A_XUcszT_normal.jpeg
p228
sg63
I440
sg64
I2597
sg65
I-18000
sg66
Nsg67
I00
sg68
Vhttps://pbs.twimg.com/profile_banners/275819548/1409353606
p229
sg70
I00
sg71
I01
sg72
V3BDBB3
p230
sg74
I01
sg75
I00
sg76
Vhttp://pbs.twimg.com/profile_background_images/378800000181521581/YOxUJ-hE.png
p231
sg78
Varr_ee_anne_uh_
p232
sg80
I4
sg81
VArianna
p233
sg83
V000000
p234
sg85
Vhttp://t.co/trAUISVPb0
p235
sg86
I275819548
sg87
VACDED6
p236
sbsg89
I1
sg90
V<a href="http://twitter.com/download/iphone" rel="nofollow">Twitter for iPhone</a>
p237
sg92
(lp238
sg86
I544153869413257216
sbsg16
Nsg17
(lp239
sg19
Nsg20
Nsg21
Nsg22
VSun Dec 14 15:40:17 +0000 2014
p240
sg24
Nsg25
Nsg26
Nsg27
Nsg28
Nsg29
Nsg30
I00
sg31
Nsg32
(lp241
g3
(g44
g5
Ntp242
Rp243
(dp244
g10
Nsg49
Nsg51
Nsg53
Nsg55
Nsg56
Nsg22
Nsg58
Nsg59
Nsg61
Nsg63
Nsg64
Nsg65
Nsg66
Nsg67
Nsg68
Nsg70
Nsg71
Nsg72
Nsg74
Nsg75
Nsg76
Nsg78
Varr_ee_anne_uh_
p245
sg80
Nsg81
VArianna
p246
sg83
Nsg85
Nsg86
I275819548
sg87
Nsbasg34
Nsg35
V544154918559678464
p247
sg37
Nsg38
VRT @arr_ee_anne_uh_: If you think you were drunk last night, at least you didn't text yourself.....
p248
sg40
I00
sg41
Ven
p249
sg43
g3
(g44
g5
Ntp250
Rp251
(dp252
g10
g48
sg49
V000000
p253
sg51
Ven
p254
sg53
VAtlantic Time (Canada)
p255
sg55
I413
sg56
I26110
sg22
VSat Aug 27 20:46:02 +0000 2011
p256
sg58
I00
sg59
Vyoung and beyond reckless \u000a\u2620
p257
sg61
Vhttps://pbs.twimg.com/profile_images/542127470502502400/azIHUEmW_normal.jpeg
p258
sg63
I422
sg64
I1853
sg65
I-14400
sg66
Nsg67
I00
sg68
Vhttps://pbs.twimg.com/profile_banners/363278623/1415734190
p259
sg70
I00
sg71
I01
sg72
V03A89E
p260
sg74
I00
sg75
I00
sg76
Vhttp://pbs.twimg.com/profile_background_images/590460996/sw7i7zy01cib3j8e7ux5.jpeg
p261
sg78
VAsh10_Petro
p262
sg80
I0
sg81
VAshten Petravicius
p263
sg83
VF1F2ED
p264
sg85
Nsg86
I363278623
sg87
VF5F5DC
p265
sbsg89
I1
sg90
V<a href="http://twitter.com/download/iphone" rel="nofollow">Twitter for iPhone</a>
p266
sg92
(lp267
sg86
I544154918559678464
sbag3
(g4
g5
Ntp268
Rp269
(dp270
g9
I0
sg10
Nsg11
Nsg12
(lp271
sg14
I00
sg15
Nsg16
Nsg17
(lp272
sg19
Nsg20
Nsg21
Nsg22
VSun Dec 14 07:46:05 +0000 2014
p273
sg24
Nsg25
Nsg26
Nsg27
Nsg28
Nsg29
Nsg30
I00
sg31
Nsg32
(lp274
sg34
Nsg35
V544035582385881089
p275
sg37
Nsg38
V"Oooohhhh I got your butthole!!"
p276
sg40
I00
sg41
Ven
p277
sg43
g3
(g44
g5
Ntp278
Rp279
(dp280
g10
g48
sg49
V000000
p281
sg51
Ven
p282
sg53
VAtlantic Time (Canada)
p283
sg55
I413
sg56
I26110
sg22
VSat Aug 27 20:46:02 +0000 2011
p284
sg58
I00
sg59
Vyoung and beyond reckless \u000a\u2620
p285
sg61
Vhttps://pbs.twimg.com/profile_images/542127470502502400/azIHUEmW_normal.jpeg
p286
sg63
I422
sg64
I1853
sg65
I-14400
sg66
Nsg67
I00
sg68
Vhttps://pbs.twimg.com/profile_banners/363278623/1415734190
p287
sg70
I00
sg71
I01
sg72
V03A89E
p288
sg74
I00
sg75
I00
sg76
Vhttp://pbs.twimg.com/profile_background_images/590460996/sw7i7zy01cib3j8e7ux5.jpeg
p289
sg78
VAsh10_Petro
p290
sg80
I0
sg81
VAshten Petravicius
p291
sg83
VF1F2ED
p292
sg85
Nsg86
I363278623
sg87
VF5F5DC
p293
sbsg89
I0
sg90
V<a href="http://twitter.com/download/iphone" rel="nofollow">Twitter for iPhone</a>
p294
sg92
(lp295
sg86
I544035582385881089
sbag3
(g4
g5
Ntp296
Rp297
(dp298
g9
I0
sg10
Nsg11
Nsg12
(lp299
sg14
I00
sg15
Nsg16
Nsg17
(lp300
sg19
Nsg20
Nsg21
Nsg22
VSun Dec 14 07:29:51 +0000 2014
p301
sg24
Nsg25
Nsg26
Nsg27
Nsg28
Nsg29
Nsg30
I00
sg31
Nsg32
(lp302
sg34
Nsg35
V544031498232676352
p303
sg37
Nsg38
V"Just bc I farted doesn't mean it's not meaningless"
p304
sg40
I00
sg41
Ven
p305
sg43
g3
(g44
g5
Ntp306
Rp307
(dp308
g10
g48
sg49
V000000
p309
sg51
Ven
p310
sg53
VAtlantic Time (Canada)
p311
sg55
I413
sg56
I26110
sg22
VSat Aug 27 20:46:02 +0000 2011
p312
sg58
I00
sg59
Vyoung and beyond reckless \u000a\u2620
p313
sg61
Vhttps://pbs.twimg.com/profile_images/542127470502502400/azIHUEmW_normal.jpeg
p314
sg63
I422
sg64
I1853
sg65
I-14400
sg66
Nsg67
I00
sg68
Vhttps://pbs.twimg.com/profile_banners/363278623/1415734190
p315
sg70
I00
sg71
I01
sg72
V03A89E
p316
sg74
I00
sg75
I00
sg76
Vhttp://pbs.twimg.com/profile_background_images/590460996/sw7i7zy01cib3j8e7ux5.jpeg
p317
sg78
VAsh10_Petro
p318
sg80
I0
sg81
VAshten Petravicius
p319
sg83
VF1F2ED
p320
sg85
Nsg86
I363278623
sg87
VF5F5DC
p321
sbsg89
I0
sg90
V<a href="http://twitter.com/download/iphone" rel="nofollow">Twitter for iPhone</a>
p322
sg92
(lp323
sg86
I544031498232676352
sbag3
(g4
g5
Ntp324
Rp325
(dp326
g9
I1
sg10
Nsg11
Nsg12
(lp327
sg14
I00
sg15
Nsg16
Nsg17
(lp328
sg19
Nsg20
Nsg21
Nsg22
VSun Dec 14 06:37:13 +0000 2014
p329
sg24
Nsg25
Nsg26
Nsg27
Nsg28
Nsg29
Nsg30
I00
sg31
Nsg32
(lp330
sg34
Nsg35
V544018254730383360
p331
sg37
Nsg38
VGoing snapchat crazy rn: apetravicius
p332
sg40
I00
sg41
Ven
p333
sg43
g3
(g44
g5
Ntp334
Rp335
(dp336
g10
g48
sg49
V000000
p337
sg51
Ven
p338
sg53
VAtlantic Time (Canada)
p339
sg55
I413
sg56
I26110
sg22
VSat Aug 27 20:46:02 +0000 2011
p340
sg58
I00
sg59
Vyoung and beyond reckless \u000a\u2620
p341
sg61
Vhttps://pbs.twimg.com/profile_images/542127470502502400/azIHUEmW_normal.jpeg
p342
sg63
I422
sg64
I1853
sg65
I-14400
sg66
Nsg67
I00
sg68
Vhttps://pbs.twimg.com/profile_banners/363278623/1415734190
p343
sg70
I00
sg71
I01
sg72
V03A89E
p344
sg74
I00
sg75
I00
sg76
Vhttp://pbs.twimg.com/profile_background_images/590460996/sw7i7zy01cib3j8e7ux5.jpeg
p345
sg78
VAsh10_Petro
p346
sg80
I0
sg81
VAshten Petravicius
p347
sg83
VF1F2ED
p348
sg85
Nsg86
I363278623
sg87
VF5F5DC
p349
sbsg89
I0
sg90
V<a href="http://twitter.com/download/iphone" rel="nofollow">Twitter for iPhone</a>
p350
sg92
(lp351
sg86
I544018254730383360
sbag3
(g4
g5
Ntp352
Rp353
(dp354
g9
I3
sg10
Nsg11
Nsg12
(lp355
sg14
I00
sg15
Nsg16
Nsg17
(lp356
sg19
Nsg20
Nsg21
Nsg22
VSun Dec 14 06:23:13 +0000 2014
p357
sg24
Nsg25
Nsg26
Nsg27
Nsg28
Nsg29
Nsg30
I00
sg31
Nsg32
(lp358
sg34
Nsg35
V544014727886934016
p359
sg37
Nsg38
V\U0001f44f\U0001f44f\U0001f44f\U0001f44f to whoever played Dragonforce at the bar haha
p360
sg40
I00
sg41
Ven
p361
sg43
g3
(g44
g5
Ntp362
Rp363
(dp364
g10
g48
sg49
V000000
p365
sg51
Ven
p366
sg53
VAtlantic Time (Canada)
p367
sg55
I413
sg56
I26110
sg22
VSat Aug 27 20:46:02 +0000 2011
p368
sg58
I00
sg59
Vyoung and beyond reckless \u000a\u2620
p369
sg61
Vhttps://pbs.twimg.com/profile_images/542127470502502400/azIHUEmW_normal.jpeg
p370
sg63
I422
sg64
I1853
sg65
I-14400
sg66
Nsg67
I00
sg68
Vhttps://pbs.twimg.com/profile_banners/363278623/1415734190
p371
sg70
I00
sg71
I01
sg72
V03A89E
p372
sg74
I00
sg75
I00
sg76
Vhttp://pbs.twimg.com/profile_background_images/590460996/sw7i7zy01cib3j8e7ux5.jpeg
p373
sg78
VAsh10_Petro
p374
sg80
I0
sg81
VAshten Petravicius
p375
sg83
VF1F2ED
p376
sg85
Nsg86
I363278623
sg87
VF5F5DC
p377
sbsg89
I0
sg90
V<a href="http://twitter.com/download/iphone" rel="nofollow">Twitter for iPhone</a>
p378
sg92
(lp379
sg86
I544014727886934016
sbag3
(g4
g5
Ntp380
Rp381
(dp382
g9
I0
sg10
Nsg11
Nsg12
(lp383
sg14
I00
sg15
Nsg16
Nsg17
(lp384
sg19
Nsg20
Nsg21
Nsg22
VSun Dec 14 04:46:12 +0000 2014
p385
sg24
Nsg25
Nsg26
Nsg27
Nsg28
Nsg29
Nsg30
I00
sg31
Nsg32
(lp386
sg34
Nsg35
V543990313682235392
p387
sg37
Nsg38
VArianna gives 0 fucks about being on crutches and goes out with us every weekend
p388
sg40
I00
sg41
Ven
p389
sg43
g3
(g44
g5
Ntp390
Rp391
(dp392
g10
g48
sg49
V000000
p393
sg51
Ven
p394
sg53
VAtlantic Time (Canada)
p395
sg55
I413
sg56
I26110
sg22
VSat Aug 27 20:46:02 +0000 2011
p396
sg58
I00
sg59
Vyoung and beyond reckless \u000a\u2620
p397
sg61
Vhttps://pbs.twimg.com/profile_images/542127470502502400/azIHUEmW_normal.jpeg
p398
sg63
I422
sg64
I1853
sg65
I-14400
sg66
Nsg67
I00
sg68
Vhttps://pbs.twimg.com/profile_banners/363278623/1415734190
p399
sg70
I00
sg71
I01
sg72
V03A89E
p400
sg74
I00
sg75
I00
sg76
Vhttp://pbs.twimg.com/profile_background_images/590460996/sw7i7zy01cib3j8e7ux5.jpeg
p401
sg78
VAsh10_Petro
p402
sg80
I0
sg81
VAshten Petravicius
p403
sg83
VF1F2ED
p404
sg85
Nsg86
I363278623
sg87
VF5F5DC
p405
sbsg89
I0
sg90
V<a href="http://twitter.com/download/iphone" rel="nofollow">Twitter for iPhone</a>
p406
sg92
(lp407
sg86
I543990313682235392
sbag3
(g4
g5
Ntp408
Rp409
(dp410
g9
I0
sg10
Nsg11
Nsg12
(lp411
sg14
I00
sg15
Nsg16
Nsg17
(lp412
sg19
Nsg20
Nsg21
Nsg22
VSun Dec 14 04:02:20 +0000 2014
p413
sg24
Nsg25
Nsg26
Nsg27
Nsg28
Nsg29
Nsg30
I00
sg31
Nsg32
(lp414
sg34
Nsg35
V543979276778098688
p415
sg37
Nsg38
VWhen am I not at Brooklyn's
p416
sg40
I00
sg41
Ven
p417
sg43
g3
(g44
g5
Ntp418
Rp419
(dp420
g10
g48
sg49
V000000
p421
sg51
Ven
p422
sg53
VAtlantic Time (Canada)
p423
sg55
I413
sg56
I26110
sg22
VSat Aug 27 20:46:02 +0000 2011
p424
sg58
I00
sg59
Vyoung and beyond reckless \u000a\u2620
p425
sg61
Vhttps://pbs.twimg.com/profile_images/542127470502502400/azIHUEmW_normal.jpeg
p426
sg63
I422
sg64
I1853
sg65
I-14400
sg66
Nsg67
I00
sg68
Vhttps://pbs.twimg.com/profile_banners/363278623/1415734190
p427
sg70
I00
sg71
I01
sg72
V03A89E
p428
sg74
I00
sg75
I00
sg76
Vhttp://pbs.twimg.com/profile_background_images/590460996/sw7i7zy01cib3j8e7ux5.jpeg
p429
sg78
VAsh10_Petro
p430
sg80
I0
sg81
VAshten Petravicius
p431
sg83
VF1F2ED
p432
sg85
Nsg86
I363278623
sg87
VF5F5DC
p433
sbsg89
I0
sg90
V<a href="http://twitter.com/download/iphone" rel="nofollow">Twitter for iPhone</a>
p434
sg92
(lp435
sg86
I543979276778098688
sbag3
(g4
g5
Ntp436
Rp437
(dp438
g9
I0
sg10
Nsg11
Nsg12
(lp439
sg14
I00
sg15
Nsg16
Nsg17
(lp440
sg19
Nsg20
Nsg21
Nsg22
VSun Dec 14 02:03:02 +0000 2014
p441
sg24
Nsg25
Nsg26
Nsg27
Nsg28
Nsg29
Nsg30
I00
sg31
Nsg32
(lp442
sg34
Nsg35
V543949250284232705
p443
sg37
Nsg38
VWill you dance to this beat and hold a lover close?
p444
sg40
I00
sg41
Ven
p445
sg43
g3
(g44
g5
Ntp446
Rp447
(dp448
g10
g48
sg49
V000000
p449
sg51
Ven
p450
sg53
VAtlantic Time (Canada)
p451
sg55
I413
sg56
I26110
sg22
VSat Aug 27 20:46:02 +0000 2011
p452
sg58
I00
sg59
Vyoung and beyond reckless \u000a\u2620
p453
sg61
Vhttps://pbs.twimg.com/profile_images/542127470502502400/azIHUEmW_normal.jpeg
p454
sg63
I422
sg64
I1853
sg65
I-14400
sg66
Nsg67
I00
sg68
Vhttps://pbs.twimg.com/profile_banners/363278623/1415734190
p455
sg70
I00
sg71
I01
sg72
V03A89E
p456
sg74
I00
sg75
I00
sg76
Vhttp://pbs.twimg.com/profile_background_images/590460996/sw7i7zy01cib3j8e7ux5.jpeg
p457
sg78
VAsh10_Petro
p458
sg80
I0
sg81
VAshten Petravicius
p459
sg83
VF1F2ED
p460
sg85
Nsg86
I363278623
sg87
VF5F5DC
p461
sbsg89
I0
sg90
V<a href="http://twitter.com/download/iphone" rel="nofollow">Twitter for iPhone</a>
p462
sg92
(lp463
sg86
I543949250284232705
sbag3
(g4
g5
Ntp464
Rp465
(dp466
g9
I0
sg10
Nsg11
Nsg12
(lp467
sg14
I00
sg15
Nsg16
Nsg17
(lp468
sg19
Nsg20
Nsg21
Nsg22
VSun Dec 14 00:02:21 +0000 2014
p469
sg24
Nsg25
Nsg26
Nsg27
Nsg28
Nsg29
Nsg30
I00
sg31
Nsg32
(lp470
sg34
Nsg35
V543918882873167872
p471
sg37
Nsg38
VI really want to curl my hair but Idek if I'm doing anything tonight. But I'll probably still curl it just for the hell of it
p472
sg40
I00
sg41
Ven
p473
sg43
g3
(g44
g5
Ntp474
Rp475
(dp476
g10
g48
sg49
V000000
p477
sg51
Ven
p478
sg53
VAtlantic Time (Canada)
p479
sg55
I413
sg56
I26110
sg22
VSat Aug 27 20:46:02 +0000 2011
p480
sg58
I00
sg59
Vyoung and beyond reckless \u000a\u2620
p481
sg61
Vhttps://pbs.twimg.com/profile_images/542127470502502400/azIHUEmW_normal.jpeg
p482
sg63
I422
sg64
I1853
sg65
I-14400
sg66
Nsg67
I00
sg68
Vhttps://pbs.twimg.com/profile_banners/363278623/1415734190
p483
sg70
I00
sg71
I01
sg72
V03A89E
p484
sg74
I00
sg75
I00
sg76
Vhttp://pbs.twimg.com/profile_background_images/590460996/sw7i7zy01cib3j8e7ux5.jpeg
p485
sg78
VAsh10_Petro
p486
sg80
I0
sg81
VAshten Petravicius
p487
sg83
VF1F2ED
p488
sg85
Nsg86
I363278623
sg87
VF5F5DC
p489
sbsg89
I0
sg90
V<a href="http://twitter.com/download/iphone" rel="nofollow">Twitter for iPhone</a>
p490
sg92
(lp491
sg86
I543918882873167872
sbag3
(g4
g5
Ntp492
Rp493
(dp494
g9
I0
sg10
Nsg11
Nsg12
(lp495
sg14
I00
sg15
g3
(g4
g5
Ntp496
Rp497
(dp498
g9
I404
sg10
Nsg11
Nsg12
(lp499
sg14
I00
sg15
Nsg16
Nsg17
(lp500
(dp501
Vexpanded_url
p502
Vhttp://twitter.com/NHLonNBCSports/status/543827734993326080/photo/1
p503
sVdisplay_url
p504
Vpic.twitter.com/GBkjy1SMRa
p505
sVurl
p506
Vhttp://t.co/GBkjy1SMRa
p507
sVmedia_url_https
p508
Vhttps://pbs.twimg.com/media/B4wQcYbIYAAbdkP.jpg
p509
sVid_str
p510
V543827734783614976
p511
sVsizes
p512
(dp513
Vlarge
p514
(dp515
Vh
p516
I702
sVresize
p517
Vfit
p518
sVw
p519
I1024
ssVsmall
p520
(dp521
Vh
p522
I233
sVresize
p523
Vfit
p524
sVw
p525
I340
ssVmedium
p526
(dp527
Vh
p528
I411
sVresize
p529
Vfit
p530
sVw
p531
I600
ssVthumb
p532
(dp533
Vh
p534
I150
sVresize
p535
Vcrop
p536
sVw
p537
I150
sssVindices
p538
(lp539
I81
aI103
asVtype
p540
Vphoto
p541
sVid
p542
I543827734783614976
sVmedia_url
p543
Vhttp://pbs.twimg.com/media/B4wQcYbIYAAbdkP.jpg
p544
sasg19
Nsg20
Nsg21
Nsg22
VSat Dec 13 18:00:10 +0000 2014
p545
sg24
Nsg25
I00
sg26
Nsg27
Nsg28
Nsg29
Nsg30
I00
sg31
Nsg32
(lp546
sg34
Nsg35
V543827734993326080
p547
sg37
Nsg38
VGordie Howe, the hockey great, is reportedly doing better http://t.co/hzuG0HQm0H http://t.co/GBkjy1SMRa
p548
sg40
I00
sg41
Ven
p549
sg43
g3
(g44
g5
Ntp550
Rp551
(dp552
g10
VUSA
p553
sg49
V666666
p554
sg51
Ven
p555
sg53
VEastern Time (US & Canada)
p556
sg55
I194465
sg56
I40573
sg22
VTue Apr 07 14:56:44 +0000 2009
p557
sg58
I01
sg59
VNBC Sports & NBCSN\u2014the exclusive television home of the National Hockey League
p558
sg61
Vhttps://pbs.twimg.com/profile_images/446673757101240320/TDfnQiev_normal.jpeg
p559
sg63
I305
sg64
I600
sg65
I-18000
sg66
Nsg67
I00
sg68
Vhttps://pbs.twimg.com/profile_banners/29463928/1418273607
p560
sg70
I00
sg71
I00
sg72
V0A0202
p561
sg74
I00
sg75
I00
sg76
Vhttp://pbs.twimg.com/profile_background_images/482240759307853824/TMA5a61a.jpeg
p562
sg78
VNHLonNBCSports
p563
sg80
I3031
sg81
VNHL on NBC
p564
sg83
VF6F4FC
p565
sg85
Vhttp://t.co/gfVSWSgi6D
p566
sg86
I29463928
sg87
V000000
p567
sbsg89
I215
sg90
V<a href="http://srm.vitrue.com" rel="nofollow">Social Publisher</a>
p568
sg92
(lp569
g3
(ctwitter
Url
p570
g5
Ntp571
Rp572
(dp573
S'url'
p574
Vhttp://t.co/hzuG0HQm0H
p575
sS'expanded_url'
p576
Vhttp://tw.nbcsports.com/rrA
p577
sbasg86
I543827734993326080
sbsg16
Nsg17
(lp578
(dp579
Vsource_user_id
p580
I29463928
sVsource_status_id_str
p581
V543827734993326080
p582
sVexpanded_url
p583
Vhttp://twitter.com/NHLonNBCSports/status/543827734993326080/photo/1
p584
sVdisplay_url
p585
Vpic.twitter.com/GBkjy1SMRa
p586
sVurl
p587
Vhttp://t.co/GBkjy1SMRa
p588
sVmedia_url_https
p589
Vhttps://pbs.twimg.com/media/B4wQcYbIYAAbdkP.jpg
p590
sVsource_user_id_str
p591
V29463928
p592
sVsource_status_id
p593
I543827734993326080
sVid_str
p594
V543827734783614976
p595
sVsizes
p596
(dp597
Vlarge
p598
(dp599
Vh
p600
I702
sVresize
p601
Vfit
p602
sVw
p603
I1024
ssVsmall
p604
(dp605
Vh
p606
I233
sVresize
p607
Vfit
p608
sVw
p609
I340
ssVmedium
p610
(dp611
Vh
p612
I411
sVresize
p613
Vfit
p614
sVw
p615
I600
ssVthumb
p616
(dp617
Vh
p618
I150
sVresize
p619
Vcrop
p620
sVw
p621
I150
sssVindices
p622
(lp623
I101
aI123
asVtype
p624
Vphoto
p625
sVid
p626
I543827734783614976
sVmedia_url
p627
Vhttp://pbs.twimg.com/media/B4wQcYbIYAAbdkP.jpg
p628
sasg19
Nsg20
Nsg21
Nsg22
VSat Dec 13 23:38:20 +0000 2014
p629
sg24
Nsg25
I00
sg26
Nsg27
Nsg28
Nsg29
Nsg30
I00
sg31
Nsg32
(lp630
g3
(g44
g5
Ntp631
Rp632
(dp633
g10
Nsg49
Nsg51
Nsg53
Nsg55
Nsg56
Nsg22
Nsg58
Nsg59
Nsg61
Nsg63
Nsg64
Nsg65
Nsg66
Nsg67
Nsg68
Nsg70
Nsg71
Nsg72
Nsg74
Nsg75
Nsg76
Nsg78
VNHLonNBCSports
p634
sg80
Nsg81
VNHL on NBC
p635
sg83
Nsg85
Nsg86
I29463928
sg87
Nsbasg34
Nsg35
V543912836872011776
p636
sg37
Nsg38
VRT @NHLonNBCSports: Gordie Howe, the hockey great, is reportedly doing better http://t.co/hzuG0HQm0H http://t.co/GBkjy1SMRa
p637
sg40
I00
sg41
Ven
p638
sg43
g3
(g44
g5
Ntp639
Rp640
(dp641
g10
g48
sg49
V000000
p642
sg51
Ven
p643
sg53
VAtlantic Time (Canada)
p644
sg55
I413
sg56
I26110
sg22
VSat Aug 27 20:46:02 +0000 2011
p645
sg58
I00
sg59
Vyoung and beyond reckless \u000a\u2620
p646
sg61
Vhttps://pbs.twimg.com/profile_images/542127470502502400/azIHUEmW_normal.jpeg
p647
sg63
I422
sg64
I1853
sg65
I-14400
sg66
Nsg67
I00
sg68
Vhttps://pbs.twimg.com/profile_banners/363278623/1415734190
p648
sg70
I00
sg71
I01
sg72
V03A89E
p649
sg74
I00
sg75
I00
sg76
Vhttp://pbs.twimg.com/profile_background_images/590460996/sw7i7zy01cib3j8e7ux5.jpeg
p650
sg78
VAsh10_Petro
p651
sg80
I0
sg81
VAshten Petravicius
p652
sg83
VF1F2ED
p653
sg85
Nsg86
I363278623
sg87
VF5F5DC
p654
sbsg89
I215
sg90
V<a href="http://twitter.com/download/iphone" rel="nofollow">Twitter for iPhone</a>
p655
sg92
(lp656
g3
(g570
g5
Ntp657
Rp658
(dp659
g574
Vhttp://t.co/hzuG0HQm0H
p660
sg576
Vhttp://tw.nbcsports.com/rrA
p661
sbasg86
I543912836872011776
sbag3
(g4
g5
Ntp662
Rp663
(dp664
g9
I0
sg10
Nsg11
Nsg12
(lp665
sg14
I00
sg15
g3
(g4
g5
Ntp666
Rp667
(dp668
g9
I586
sg10
Nsg11
Nsg12
(lp669
sg14
I00
sg15
Nsg16
Nsg17
(lp670
(dp671
Vsource_user_id
p672
I568825492
sVsource_status_id_str
p673
V543580149477023744
p674
sVexpanded_url
p675
Vhttp://twitter.com/CuteEmergency/status/543580149477023744/photo/1
p676
sVdisplay_url
p677
Vpic.twitter.com/soYbfz7tcg
p678
sVurl
p679
Vhttp://t.co/soYbfz7tcg
p680
sVmedia_url_https
p681
Vhttps://pbs.twimg.com/media/B4svQvKCUAAHioA.jpg
p682
sVsource_user_id_str
p683
V568825492
p684
sVsource_status_id
p685
I543580149477023744
sVid_str
p686
V543580144611250176
p687
sVsizes
p688
(dp689
Vsmall
p690
(dp691
Vh
p692
I191
sVresize
p693
Vfit
p694
sVw
p695
I340
ssVlarge
p696
(dp697
Vh
p698
I534
sVresize
p699
Vfit
p700
sVw
p701
I949
ssVmedium
p702
(dp703
Vh
p704
I337
sVresize
p705
Vfit
p706
sVw
p707
I600
ssVthumb
p708
(dp709
Vh
p710
I150
sVresize
p711
Vcrop
p712
sVw
p713
I150
sssVindices
p714
(lp715
I30
aI52
asVtype
p716
Vphoto
p717
sVid
p718
I543580144611250176
sVmedia_url
p719
Vhttp://pbs.twimg.com/media/B4svQvKCUAAHioA.jpg
p720
sasg19
Nsg20
Nsg21
Nsg22
VSat Dec 13 23:19:04 +0000 2014
p721
sg24
Nsg25
I00
sg26
Nsg27
Nsg28
Nsg29
Nsg30
I00
sg31
Nsg32
(lp722
sg34
Nsg35
V543907990789947395
p723
sg37
Nsg38
Vwhen ur sweater game on point http://t.co/soYbfz7tcg
p724
sg40
I00
sg41
Ven
p725
sg43
g3
(g44
g5
Ntp726
Rp727
(dp728
g10
g48
sg49
V666666
p729
sg51
Ven
p730
sg53
VAtlantic Time (Canada)
p731
sg55
I344512
sg56
I4169
sg22
VFri Aug 03 02:04:32 +0000 2012
p732
sg58
I00
sg59
VHe definitely wants the P.
p733
sg61
Vhttps://pbs.twimg.com/profile_images/477620606314090497/9xSTziWV_normal.png
p734
sg63
I0
sg64
I0
sg65
I-14400
sg66
Nsg67
I00
sg68
Nsg70
I00
sg71
I00
sg72
V000000
p735
sg74
I00
sg75
I00
sg76
Vhttp://abs.twimg.com/images/themes/theme9/bg.gif
p736
sg78
VohhewantstheP
p737
sg80
I250
sg81
VThe P
p738
sg83
V252429
p739
sg85
Nsg86
I733950307
sg87
VFAFAFA
p740
sbsg89
I440
sg90
V<a href="http://bufferapp.com" rel="nofollow">Buffer</a>
p741
sg92
(lp742
sg86
I543907990789947395
sbsg16
Nsg17
(lp743
(dp744
Vsource_user_id
p745
I568825492
sVsource_status_id_str
p746
V543580149477023744
p747
sVexpanded_url
p748
Vhttp://twitter.com/CuteEmergency/status/543580149477023744/photo/1
p749
sVdisplay_url
p750
Vpic.twitter.com/soYbfz7tcg
p751
sVurl
p752
Vhttp://t.co/soYbfz7tcg
p753
sVmedia_url_https
p754
Vhttps://pbs.twimg.com/media/B4svQvKCUAAHioA.jpg
p755
sVsource_user_id_str
p756
V568825492
p757
sVsource_status_id
p758
I543580149477023744
sVid_str
p759
V543580144611250176
p760
sVsizes
p761
(dp762
Vsmall
p763
(dp764
Vh
p765
I191
sVresize
p766
Vfit
p767
sVw
p768
I340
ssVlarge
p769
(dp770
Vh
p771
I534
sVresize
p772
Vfit
p773
sVw
p774
I949
ssVmedium
p775
(dp776
Vh
p777
I337
sVresize
p778
Vfit
p779
sVw
p780
I600
ssVthumb
p781
(dp782
Vh
p783
I150
sVresize
p784
Vcrop
p785
sVw
p786
I150
sssVindices
p787
(lp788
I49
aI71
asVtype
p789
Vphoto
p790
sVid
p791
I543580144611250176
sVmedia_url
p792
Vhttp://pbs.twimg.com/media/B4svQvKCUAAHioA.jpg
p793
sasg19
Nsg20
Nsg21
Nsg22
VSat Dec 13 23:25:13 +0000 2014
p794
sg24
Nsg25
I00
sg26
Nsg27
Nsg28
Nsg29
Nsg30
I00
sg31
Nsg32
(lp795
g3
(g44
g5
Ntp796
Rp797
(dp798
g10
Nsg49
Nsg51
Nsg53
Nsg55
Nsg56
Nsg22
Nsg58
Nsg59
Nsg61
Nsg63
Nsg64
Nsg65
Nsg66
Nsg67
Nsg68
Nsg70
Nsg71
Nsg72
Nsg74
Nsg75
Nsg76
Nsg78
VohhewantstheP
p799
sg80
Nsg81
VThe P
p800
sg83
Nsg85
Nsg86
I733950307
sg87
Nsbasg34
Nsg35
V543909534566465536
p801
sg37
Nsg38
VRT @ohhewantstheP: when ur sweater game on point http://t.co/soYbfz7tcg
p802
sg40
I00
sg41
Ven
p803
sg43
g3
(g44
g5
Ntp804
Rp805
(dp806
g10
g48
sg49
V000000
p807
sg51
Ven
p808
sg53
VAtlantic Time (Canada)
p809
sg55
I413
sg56
I26110
sg22
VSat Aug 27 20:46:02 +0000 2011
p810
sg58
I00
sg59
Vyoung and beyond reckless \u000a\u2620
p811
sg61
Vhttps://pbs.twimg.com/profile_images/542127470502502400/azIHUEmW_normal.jpeg
p812
sg63
I422
sg64
I1853
sg65
I-14400
sg66
Nsg67
I00
sg68
Vhttps://pbs.twimg.com/profile_banners/363278623/1415734190
p813
sg70
I00
sg71
I01
sg72
V03A89E
p814
sg74
I00
sg75
I00
sg76
Vhttp://pbs.twimg.com/profile_background_images/590460996/sw7i7zy01cib3j8e7ux5.jpeg
p815
sg78
VAsh10_Petro
p816
sg80
I0
sg81
VAshten Petravicius
p817
sg83
VF1F2ED
p818
sg85
Nsg86
I363278623
sg87
VF5F5DC
p819
sbsg89
I440
sg90
V<a href="http://twitter.com/download/iphone" rel="nofollow">Twitter for iPhone</a>
p820
sg92
(lp821
sg86
I543909534566465536
sbag3
(g4
g5
Ntp822
Rp823
(dp824
g9
I0
sg10
Nsg11
Nsg12
(lp825
sg14
I00
sg15
g3
(g4
g5
Ntp826
Rp827
(dp828
g9
I3946
sg10
Nsg11
Nsg12
(lp829
sg14
I00
sg15
Nsg16
Nsg17
(lp830
(dp831
Vexpanded_url
p832
Vhttp://twitter.com/SincerelyTumblr/status/543903780736364544/photo/1
p833
sVdisplay_url
p834
Vpic.twitter.com/8NAy4CgoKF
p835
sVurl
p836
Vhttp://t.co/8NAy4CgoKF
p837
sVmedia_url_https
p838
Vhttps://pbs.twimg.com/media/B4xVm1bIMAANQom.jpg
p839
sVid_str
p840
V543903780669239296
p841
sVsizes
p842
(dp843
Vsmall
p844
(dp845
Vh
p846
I340
sVresize
p847
Vfit
p848
sVw
p849
I340
ssVlarge
p850
(dp851
Vh
p852
I500
sVresize
p853
Vfit
p854
sVw
p855
I500
ssVmedium
p856
(dp857
Vh
p858
I500
sVresize
p859
Vfit
p860
sVw
p861
I500
ssVthumb
p862
(dp863
Vh
p864
I150
sVresize
p865
Vcrop
p866
sVw
p867
I150
sssVindices
p868
(lp869
I4
aI26
asVtype
p870
Vphoto
p871
sVid
p872
I543903780669239296
sVmedia_url
p873
Vhttp://pbs.twimg.com/media/B4xVm1bIMAANQom.jpg
p874
sasg19
Nsg20
Nsg21
Nsg22
VSat Dec 13 23:02:21 +0000 2014
p875
sg24
Nsg25
I00
sg26
Nsg27
Nsg28
Nsg29
Nsg30
I00
sg31
Nsg32
(lp876
sg34
Nsg35
V543903780736364544
p877
sg37
Nsg38
Vtbh http://t.co/8NAy4CgoKF
p878
sg40
I00
sg41
Vund
p879
sg43
g3
(g44
g5
Ntp880
Rp881
(dp882
g10
g48
sg49
V333333
p883
sg51
Ven
p884
sg53
VEastern Time (US & Canada)
p885
sg55
I1269369
sg56
I28191
sg22
VTue Dec 14 20:35:48 +0000 2010
p886
sg58
I00
sg59
VEverything was David Karp and nothing hurt. *Parody Account / Fan Page* sincerelytweeting@gmail.com
p887
sg61
Vhttps://pbs.twimg.com/profile_images/543685363194015744/tHSGJAKA_normal.png
p888
sg63
I36439
sg64
I1578
sg65
I-18000
sg66
Nsg67
I00
sg68
Vhttps://pbs.twimg.com/profile_banners/226690054/1418462670
p889
sg70
I00
sg71
I01
sg72
V2E3796
p890
sg74
I00
sg75
I00
sg76
Vhttp://pbs.twimg.com/profile_background_images/302799773/love.gif
p891
sg78
VSincerelyTumblr
p892
sg80
I2364
sg81
VSincerely Tumblr
p893
sg83
VEFEFEF
p894
sg85
Vhttp://t.co/ZQIFdAqn45
p895
sg86
I226690054
sg87
V131516
p896
sbsg89
I1868
sg90
V<a href="http://bufferapp.com" rel="nofollow">Buffer</a>
p897
sg92
(lp898
sg86
I543903780736364544
sbsg16
Nsg17
(lp899
(dp900
Vsource_user_id
p901
I226690054
sVsource_status_id_str
p902
V543903780736364544
p903
sVexpanded_url
p904
Vhttp://twitter.com/SincerelyTumblr/status/543903780736364544/photo/1
p905
sVdisplay_url
p906
Vpic.twitter.com/8NAy4CgoKF
p907
sVurl
p908
Vhttp://t.co/8NAy4CgoKF
p909
sVmedia_url_https
p910
Vhttps://pbs.twimg.com/media/B4xVm1bIMAANQom.jpg
p911
sVsource_user_id_str
p912
V226690054
p913
sVsource_status_id
p914
I543903780736364544
sVid_str
p915
V543903780669239296
p916
sVsizes
p917
(dp918
Vsmall
p919
(dp920
Vh
p921
I340
sVresize
p922
Vfit
p923
sVw
p924
I340
ssVlarge
p925
(dp926
Vh
p927
I500
sVresize
p928
Vfit
p929
sVw
p930
I500
ssVmedium
p931
(dp932
Vh
p933
I500
sVresize
p934
Vfit
p935
sVw
p936
I500
ssVthumb
p937
(dp938
Vh
p939
I150
sVresize
p940
Vcrop
p941
sVw
p942
I150
sssVindices
p943
(lp944
I25
aI47
asVtype
p945
Vphoto
p946
sVid
p947
I543903780669239296
sVmedia_url
p948
Vhttp://pbs.twimg.com/media/B4xVm1bIMAANQom.jpg
p949
sasg19
Nsg20
Nsg21
Nsg22
VSat Dec 13 23:23:55 +0000 2014
p950
sg24
Nsg25
I00
sg26
Nsg27
Nsg28
Nsg29
Nsg30
I00
sg31
Nsg32
(lp951
g3
(g44
g5
Ntp952
Rp953
(dp954
g10
Nsg49
Nsg51
Nsg53
Nsg55
Nsg56
Nsg22
Nsg58
Nsg59
Nsg61
Nsg63
Nsg64
Nsg65
Nsg66
Nsg67
Nsg68
Nsg70
Nsg71
Nsg72
Nsg74
Nsg75
Nsg76
Nsg78
VSincerelyTumblr
p955
sg80
Nsg81
VSincerely Tumblr
p956
sg83
Nsg85
Nsg86
I226690054
sg87
Nsbasg34
Nsg35
V543909209998651392
p957
sg37
Nsg38
VRT @SincerelyTumblr: tbh http://t.co/8NAy4CgoKF
p958
sg40
I00
sg41
Vund
p959
sg43
g3
(g44
g5
Ntp960
Rp961
(dp962
g10
g48
sg49
V000000
p963
sg51
Ven
p964
sg53
VAtlantic Time (Canada)
p965
sg55
I413
sg56
I26110
sg22
VSat Aug 27 20:46:02 +0000 2011
p966
sg58
I00
sg59
Vyoung and beyond reckless \u000a\u2620
p967
sg61
Vhttps://pbs.twimg.com/profile_images/542127470502502400/azIHUEmW_normal.jpeg
p968
sg63
I422
sg64
I1853
sg65
I-14400
sg66
Nsg67
I00
sg68
Vhttps://pbs.twimg.com/profile_banners/363278623/1415734190
p969
sg70
I00
sg71
I01
sg72
V03A89E
p970
sg74
I00
sg75
I00
sg76
Vhttp://pbs.twimg.com/profile_background_images/590460996/sw7i7zy01cib3j8e7ux5.jpeg
p971
sg78
VAsh10_Petro
p972
sg80
I0
sg81
VAshten Petravicius
p973
sg83
VF1F2ED
p974
sg85
Nsg86
I363278623
sg87
VF5F5DC
p975
sbsg89
I1868
sg90
V<a href="http://twitter.com/download/iphone" rel="nofollow">Twitter for iPhone</a>
p976
sg92
(lp977
sg86
I543909209998651392
sbag3
(g4
g5
Ntp978
Rp979
(dp980
g9
I0
sg10
Nsg11
Nsg12
(lp981
sg14
I00
sg15
Nsg16
Nsg17
(lp982
sg19
Nsg20
Nsg21
Nsg22
VSat Dec 13 22:25:08 +0000 2014
p983
sg24
Nsg25
Nsg26
Nsg27
Nsg28
Nsg29
Nsg30
I00
sg31
Nsg32
(lp984
sg34
Nsg35
V543894416025743361
p985
sg37
Nsg38
VStupid. Stupid. Stupid.
p986
sg40
I00
sg41
Ven
p987
sg43
g3
(g44
g5
Ntp988
Rp989
(dp990
g10
g48
sg49
V000000
p991
sg51
Ven
p992
sg53
VAtlantic Time (Canada)
p993
sg55
I413
sg56
I26110
sg22
VSat Aug 27 20:46:02 +0000 2011
p994
sg58
I00
sg59
Vyoung and beyond reckless \u000a\u2620
p995
sg61
Vhttps://pbs.twimg.com/profile_images/542127470502502400/azIHUEmW_normal.jpeg
p996
sg63
I422
sg64
I1853
sg65
I-14400
sg66
Nsg67
I00
sg68
Vhttps://pbs.twimg.com/profile_banners/363278623/1415734190
p997
sg70
I00
sg71
I01
sg72
V03A89E
p998
sg74
I00
sg75
I00
sg76
Vhttp://pbs.twimg.com/profile_background_images/590460996/sw7i7zy01cib3j8e7ux5.jpeg
p999
sg78
VAsh10_Petro
p1000
sg80
I0
sg81
VAshten Petravicius
p1001
sg83
VF1F2ED
p1002
sg85
Nsg86
I363278623
sg87
VF5F5DC
p1003
sbsg89
I0
sg90
V<a href="http://twitter.com/download/iphone" rel="nofollow">Twitter for iPhone</a>
p1004
sg92
(lp1005
sg86
I543894416025743361
sbag3
(g4
g5
Ntp1006
Rp1007
(dp1008
g9
I0
sg10
Nsg11
Nsg12
(lp1009
sg14
I00
sg15
Nsg16
Nsg17
(lp1010
sg19
Nsg20
Nsg21
Nsg22
VSat Dec 13 17:21:39 +0000 2014
p1011
sg24
Nsg25
Nsg26
Nsg27
Nsg28
Nsg29
Nsg30
I00
sg31
Nsg32
(lp1012
sg34
Nsg35
V543818043806470144
p1013
sg37
Nsg38
VEven when I'm not working for SAH, I'm still working for someone else
p1014
sg40
I00
sg41
Ven
p1015
sg43
g3
(g44
g5
Ntp1016
Rp1017
(dp1018
g10
g48
sg49
V000000
p1019
sg51
Ven
p1020
sg53
VAtlantic Time (Canada)
p1021
sg55
I413
sg56
I26110
sg22
VSat Aug 27 20:46:02 +0000 2011
p1022
sg58
I00
sg59
Vyoung and beyond reckless \u000a\u2620
p1023
sg61
Vhttps://pbs.twimg.com/profile_images/542127470502502400/azIHUEmW_normal.jpeg
p1024
sg63
I422
sg64
I1853
sg65
I-14400
sg66
Nsg67
I00
sg68
Vhttps://pbs.twimg.com/profile_banners/363278623/1415734190
p1025
sg70
I00
sg71
I01
sg72
V03A89E
p1026
sg74
I00
sg75
I00
sg76
Vhttp://pbs.twimg.com/profile_background_images/590460996/sw7i7zy01cib3j8e7ux5.jpeg
p1027
sg78
VAsh10_Petro
p1028
sg80
I0
sg81
VAshten Petravicius
p1029
sg83
VF1F2ED
p1030
sg85
Nsg86
I363278623
sg87
VF5F5DC
p1031
sbsg89
I0
sg90
V<a href="http://twitter.com/download/iphone" rel="nofollow">Twitter for iPhone</a>
p1032
sg92
(lp1033
sg86
I543818043806470144
sbag3
(g4
g5
Ntp1034
Rp1035
(dp1036
g9
I0
sg10
Nsg11
Nsg12
(lp1037
sg14
I00
sg15
Nsg16
Nsg17
(lp1038
sg19
Nsg20
Nsg21
Nsg22
VSat Dec 13 15:44:44 +0000 2014
p1039
sg24
Nsg25
Nsg26
VErin_Marie18
p1040
sg27
Nsg28
I382400848
sg29
Nsg30
I00
sg31
Nsg32
(lp1041
g3
(g44
g5
Ntp1042
Rp1043
(dp1044
g10
Nsg49
Nsg51
Nsg53
Nsg55
Nsg56
Nsg22
Nsg58
Nsg59
Nsg61
Nsg63
Nsg64
Nsg65
Nsg66
Nsg67
Nsg68
Nsg70
Nsg71
Nsg72
Nsg74
Nsg75
Nsg76
Nsg78
VErin_Marie18
p1045
sg80
Nsg81
VErin
p1046
sg83
Nsg85
Nsg86
I382400848
sg87
Nsbasg34
Nsg35
V543793652947234816
p1047
sg37
I543790566426025984
sg38
V@Erin_Marie18 Okay!!
p1048
sg40
I00
sg41
Ven
p1049
sg43
g3
(g44
g5
Ntp1050
Rp1051
(dp1052
g10
g48
sg49
V000000
p1053
sg51
Ven
p1054
sg53
VAtlantic Time (Canada)
p1055
sg55
I413
sg56
I26110
sg22
VSat Aug 27 20:46:02 +0000 2011
p1056
sg58
I00
sg59
Vyoung and beyond reckless \u000a\u2620
p1057
sg61
Vhttps://pbs.twimg.com/profile_images/542127470502502400/azIHUEmW_normal.jpeg
p1058
sg63
I422
sg64
I1853
sg65
I-14400
sg66
Nsg67
I00
sg68
Vhttps://pbs.twimg.com/profile_banners/363278623/1415734190
p1059
sg70
I00
sg71
I01
sg72
V03A89E
p1060
sg74
I00
sg75
I00
sg76
Vhttp://pbs.twimg.com/profile_background_images/590460996/sw7i7zy01cib3j8e7ux5.jpeg
p1061
sg78
VAsh10_Petro
p1062
sg80
I0
sg81
VAshten Petravicius
p1063
sg83
VF1F2ED
p1064
sg85
Nsg86
I363278623
sg87
VF5F5DC
p1065
sbsg89
I0
sg90
V<a href="http://twitter.com/download/iphone" rel="nofollow">Twitter for iPhone</a>
p1066
sg92
(lp1067
sg86
I543793652947234816
sbag3
(g4
g5
Ntp1068
Rp1069
(dp1070
g9
I0
sg10
Nsg11
Nsg12
(lp1071
sg14
I00
sg15
Nsg16
Nsg17
(lp1072
sg19
Nsg20
Nsg21
Nsg22
VSat Dec 13 15:31:42 +0000 2014
p1073
sg24
Nsg25
Nsg26
VErin_Marie18
p1074
sg27
Nsg28
I382400848
sg29
Nsg30
I00
sg31
Nsg32
(lp1075
g3
(g44
g5
Ntp1076
Rp1077
(dp1078
g10
Nsg49
Nsg51
Nsg53
Nsg55
Nsg56
Nsg22
Nsg58
Nsg59
Nsg61
Nsg63
Nsg64
Nsg65
Nsg66
Nsg67
Nsg68
Nsg70
Nsg71
Nsg72
Nsg74
Nsg75
Nsg76
Nsg78
VErin_Marie18
p1079
sg80
Nsg81
VErin
p1080
sg83
Nsg85
Nsg86
I382400848
sg87
Nsbasg34
Nsg35
V543790373290901504
p1081
sg37
I543788313841500160
sg38
V@Erin_Marie18 Back at it again tonight, right? \U0001f60f
p1082
sg40
I00
sg41
Ven
p1083
sg43
g3
(g44
g5
Ntp1084
Rp1085
(dp1086
g10
g48
sg49
V000000
p1087
sg51
Ven
p1088
sg53
VAtlantic Time (Canada)
p1089
sg55
I413
sg56
I26110
sg22
VSat Aug 27 20:46:02 +0000 2011
p1090
sg58
I00
sg59
Vyoung and beyond reckless \u000a\u2620
p1091
sg61
Vhttps://pbs.twimg.com/profile_images/542127470502502400/azIHUEmW_normal.jpeg
p1092
sg63
I422
sg64
I1853
sg65
I-14400
sg66
Nsg67
I00
sg68
Vhttps://pbs.twimg.com/profile_banners/363278623/1415734190
p1093
sg70
I00
sg71
I01
sg72
V03A89E
p1094
sg74
I00
sg75
I00
sg76
Vhttp://pbs.twimg.com/profile_background_images/590460996/sw7i7zy01cib3j8e7ux5.jpeg
p1095
sg78
VAsh10_Petro
p1096
sg80
I0
sg81
VAshten Petravicius
p1097
sg83
VF1F2ED
p1098
sg85
Nsg86
I363278623
sg87
VF5F5DC
p1099
sbsg89
I0
sg90
V<a href="http://twitter.com/download/iphone" rel="nofollow">Twitter for iPhone</a>
p1100
sg92
(lp1101
sg86
I543790373290901504
sbag3
(g4
g5
Ntp1102
Rp1103
(dp1104
g9
I0
sg10
Nsg11
Nsg12
(lp1105
sg14
I00
sg15
Nsg16
Nsg17
(lp1106
sg19
Nsg20
Nsg21
Nsg22
VSat Dec 13 15:18:39 +0000 2014
p1107
sg24
Nsg25
Nsg26
Nsg27
Nsg28
Nsg29
Nsg30
I00
sg31
Nsg32
(lp1108
sg34
Nsg35
V543787086521057281
p1109
sg37
Nsg38
VI meet new friends everywhere I go
p1110
sg40
I00
sg41
Ven
p1111
sg43
g3
(g44
g5
Ntp1112
Rp1113
(dp1114
g10
g48
sg49
V000000
p1115
sg51
Ven
p1116
sg53
VAtlantic Time (Canada)
p1117
sg55
I413
sg56
I26110
sg22
VSat Aug 27 20:46:02 +0000 2011
p1118
sg58
I00
sg59
Vyoung and beyond reckless \u000a\u2620
p1119
sg61
Vhttps://pbs.twimg.com/profile_images/542127470502502400/azIHUEmW_normal.jpeg
p1120
sg63
I422
sg64
I1853
sg65
I-14400
sg66
Nsg67
I00
sg68
Vhttps://pbs.twimg.com/profile_banners/363278623/1415734190
p1121
sg70
I00
sg71
I01
sg72
V03A89E
p1122
sg74
I00
sg75
I00
sg76
Vhttp://pbs.twimg.com/profile_background_images/590460996/sw7i7zy01cib3j8e7ux5.jpeg
p1123
sg78
VAsh10_Petro
p1124
sg80
I0
sg81
VAshten Petravicius
p1125
sg83
VF1F2ED
p1126
sg85
Nsg86
I363278623
sg87
VF5F5DC
p1127
sbsg89
I0
sg90
V<a href="http://twitter.com/download/iphone" rel="nofollow">Twitter for iPhone</a>
p1128
sg92
(lp1129
sg86
I543787086521057281
sbaa.