(lp0
S'RadioYeffe'
p1
a(lp2
ccopy_reg
_reconstructor
p3
(ctwitter
Status
p4
c__builtin__
object
p5
Ntp6
Rp7
(dp8
S'_favorite_count'
p9
I0
sS'_location'
p10
NsS'_withheld_scope'
p11
NsS'hashtags'
p12
(lp13
g3
(ctwitter
Hashtag
p14
g5
Ntp15
Rp16
(dp17
S'text'
p18
VSoca
p19
sbag3
(g14
g5
Ntp20
Rp21
(dp22
g18
VReggae
p23
sbag3
(g14
g5
Ntp24
Rp25
(dp26
g18
VCaribbean
p27
sbag3
(g14
g5
Ntp28
Rp29
(dp30
g18
VTeamSoca
p31
sbag3
(g14
g5
Ntp32
Rp33
(dp34
g18
VReggaeMusic
p35
sbasS'_truncated'
p36
I00
sS'_retweeted_status'
p37
NsS'_withheld_copyright'
p38
NsS'media'
p39
(lp40
sS'_place'
p41
NsS'_contributors'
p42
NsS'_current_user_retweet'
p43
NsS'_created_at'
p44
VSat Dec 13 17:43:02 +0000 2014
p45
sS'_scopes'
p46
NsS'_possibly_sensitive'
p47
I00
sS'_in_reply_to_screen_name'
p48
NsS'_coordinates'
p49
NsS'_in_reply_to_user_id'
p50
NsS'_geo'
p51
NsS'_favorited'
p52
I00
sS'_withheld_in_countries'
p53
NsS'user_mentions'
p54
(lp55
g3
(ctwitter
User
p56
g5
Ntp57
Rp58
(dp59
g10
NsS'_profile_text_color'
p60
NsS'_lang'
p61
NsS'_time_zone'
p62
NsS'_followers_count'
p63
NsS'_statuses_count'
p64
Nsg44
NsS'_verified'
p65
NsS'_description'
p66
NsS'_profile_image_url'
p67
NsS'_friends_count'
p68
NsS'_favourites_count'
p69
NsS'_utc_offset'
p70
NsS'_status'
p71
NsS'_protected'
p72
NsS'_profile_banner_url'
p73
NsS'_notifications'
p74
NsS'_profile_background_tile'
p75
NsS'_profile_link_color'
p76
NsS'_geo_enabled'
p77
NsS'_contributors_enabled'
p78
NsS'_profile_background_image_url'
p79
NsS'_screen_name'
p80
Vsuzysanguineq
p81
sS'_listed_count'
p82
NsS'_name'
p83
VSuzySanguineQ
p84
sS'_profile_sidebar_fill_color'
p85
NsS'_url'
p86
NsS'_id'
p87
I2568222274
sS'_profile_background_color'
p88
NsbasS'_now'
p89
NsS'_id_str'
p90
V543823424062124032
p91
sS'_in_reply_to_status_id'
p92
NsS'_text'
p93
VBIG UPS to @suzysanguineq !!  Our 2000th Follower! #Soca #Reggae #Caribbean http://t.co/GmhVNb5gnE #TeamSoca #ReggaeMusic
p94
sS'_retweeted'
p95
I00
sS'lang'
p96
Ven
p97
sS'_user'
p98
g3
(g56
g5
Ntp99
Rp100
(dp101
g10
VColumbus, Ohio
p102
sg60
V333333
p103
sg61
Ven
p104
sg62
VEastern Time (US & Canada)
p105
sg63
I2000
sg64
I6231
sg44
VFri Apr 05 03:59:07 +0000 2013
p106
sg65
I00
sg66
VRadio El Yeffe !!  A free streaming radio station featuring Roots Reggae, Soca and Dancehall!
p107
sg67
Vhttps://pbs.twimg.com/profile_images/3478581297/b23ef6fb71017c1a1e8cd15074811f78_normal.jpeg
p108
sg68
I2087
sg69
I548
sg70
I-18000
sg71
Nsg72
I00
sg73
Vhttps://pbs.twimg.com/profile_banners/1328350363/1402544254
p109
sg74
I00
sg75
I01
sg76
V0084B4
p110
sg77
I00
sg78
I00
sg79
Vhttp://pbs.twimg.com/profile_background_images/850908636/b73fe1ff80b5e23fc85e6800d2d5d90d.jpeg
p111
sg80
VRadioYeffe
p112
sg82
I11
sg83
VRadio Yeffe
p113
sg85
VDDEEF6
p114
sg86
Vhttp://t.co/lxenDi3FSt
p115
sg87
I1328350363
sg88
VC0DEED
p116
sbsS'_retweet_count'
p117
I2
sS'_source'
p118
V<a href="http://twitter.com" rel="nofollow">Twitter Web Client</a>
p119
sS'urls'
p120
(lp121
g3
(ctwitter
Url
p122
g5
Ntp123
Rp124
(dp125
S'url'
p126
Vhttp://t.co/GmhVNb5gnE
p127
sS'expanded_url'
p128
Vhttp://elyeffe.listen2myradio.com
p129
sbasg87
I543823424062124032
sbag3
(g4
g5
Ntp130
Rp131
(dp132
g9
I0
sg10
Nsg11
Nsg12
(lp133
g3
(g14
g5
Ntp134
Rp135
(dp136
g18
VSoca
p137
sbag3
(g14
g5
Ntp138
Rp139
(dp140
g18
VReggae
p141
sbag3
(g14
g5
Ntp142
Rp143
(dp144
g18
VTeamSoca
p145
sbag3
(g14
g5
Ntp146
Rp147
(dp148
g18
VTeamTrinidad
p149
sbag3
(g14
g5
Ntp150
Rp151
(dp152
g18
VTeamToronto
p153
sbag3
(g14
g5
Ntp154
Rp155
(dp156
g18
VVibes
p157
sbag3
(g14
g5
Ntp158
Rp159
(dp160
g18
VMiami
p161
sbag3
(g14
g5
Ntp162
Rp163
(dp164
g18
VTampa
p165
sbasg36
I00
sg37
Nsg38
Nsg39
(lp166
sg41
Nsg42
Nsg43
Nsg44
VFri Dec 12 19:31:49 +0000 2014
p167
sg46
Nsg47
I00
sg48
Nsg49
Nsg50
Nsg51
Nsg52
I00
sg53
Nsg54
(lp168
sg89
Nsg90
V543488409835413504
p169
sg92
Nsg93
VSweet #Soca and #Reggae pumpin' ALL DAY! NO COMMERCIALS!! http://t.co/F0vFIwspo6  #TeamSoca #TeamTrinidad #TeamToronto #Vibes #Miami #Tampa
p170
sg95
I00
sg96
Ven
p171
sg98
g3
(g56
g5
Ntp172
Rp173
(dp174
g10
VColumbus, Ohio
p175
sg60
V333333
p176
sg61
Ven
p177
sg62
VEastern Time (US & Canada)
p178
sg63
I2000
sg64
I6231
sg44
VFri Apr 05 03:59:07 +0000 2013
p179
sg65
I00
sg66
VRadio El Yeffe !!  A free streaming radio station featuring Roots Reggae, Soca and Dancehall!
p180
sg67
Vhttps://pbs.twimg.com/profile_images/3478581297/b23ef6fb71017c1a1e8cd15074811f78_normal.jpeg
p181
sg68
I2087
sg69
I548
sg70
I-18000
sg71
Nsg72
I00
sg73
Vhttps://pbs.twimg.com/profile_banners/1328350363/1402544254
p182
sg74
I00
sg75
I01
sg76
V0084B4
p183
sg77
I00
sg78
I00
sg79
Vhttp://pbs.twimg.com/profile_background_images/850908636/b73fe1ff80b5e23fc85e6800d2d5d90d.jpeg
p184
sg80
VRadioYeffe
p185
sg82
I11
sg83
VRadio Yeffe
p186
sg85
VDDEEF6
p187
sg86
Vhttp://t.co/lxenDi3FSt
p188
sg87
I1328350363
sg88
VC0DEED
p189
sbsg117
I0
sg118
V<a href="http://twitter.com" rel="nofollow">Twitter Web Client</a>
p190
sg120
(lp191
g3
(g122
g5
Ntp192
Rp193
(dp194
g126
Vhttp://t.co/F0vFIwspo6
p195
sg128
Vhttp://elyeffe.listen2myradio.com
p196
sbasg87
I543488409835413504
sbag3
(g4
g5
Ntp197
Rp198
(dp199
g9
I0
sg10
Nsg11
Nsg12
(lp200
g3
(g14
g5
Ntp201
Rp202
(dp203
g18
VSoca
p204
sbag3
(g14
g5
Ntp205
Rp206
(dp207
g18
VReggae
p208
sbag3
(g14
g5
Ntp209
Rp210
(dp211
g18
VSocaMusic
p212
sbag3
(g14
g5
Ntp213
Rp214
(dp215
g18
VReggaeMusic
p216
sbag3
(g14
g5
Ntp217
Rp218
(dp219
g18
VJamaica
p220
sbag3
(g14
g5
Ntp221
Rp222
(dp223
g18
VCaymanIslands
p224
sbasg36
I00
sg37
Nsg38
Nsg39
(lp225
sg41
Nsg42
Nsg43
Nsg44
VFri Dec 12 19:28:52 +0000 2014
p226
sg46
Nsg47
I00
sg48
Nsg49
Nsg50
Nsg51
Nsg52
I00
sg53
Nsg54
(lp227
sg89
Nsg90
V543487670983598080
p228
sg92
Nsg93
VIt's FRIDAY !! Blaze the #Soca and #Reggae ALL DAY, NO COMMERCIALS! http://t.co/F0vFIwspo6  #SocaMusic #ReggaeMusic #Jamaica #CaymanIslands
p229
sg95
I00
sg96
Ven
p230
sg98
g3
(g56
g5
Ntp231
Rp232
(dp233
g10
VColumbus, Ohio
p234
sg60
V333333
p235
sg61
Ven
p236
sg62
VEastern Time (US & Canada)
p237
sg63
I2000
sg64
I6231
sg44
VFri Apr 05 03:59:07 +0000 2013
p238
sg65
I00
sg66
VRadio El Yeffe !!  A free streaming radio station featuring Roots Reggae, Soca and Dancehall!
p239
sg67
Vhttps://pbs.twimg.com/profile_images/3478581297/b23ef6fb71017c1a1e8cd15074811f78_normal.jpeg
p240
sg68
I2087
sg69
I548
sg70
I-18000
sg71
Nsg72
I00
sg73
Vhttps://pbs.twimg.com/profile_banners/1328350363/1402544254
p241
sg74
I00
sg75
I01
sg76
V0084B4
p242
sg77
I00
sg78
I00
sg79
Vhttp://pbs.twimg.com/profile_background_images/850908636/b73fe1ff80b5e23fc85e6800d2d5d90d.jpeg
p243
sg80
VRadioYeffe
p244
sg82
I11
sg83
VRadio Yeffe
p245
sg85
VDDEEF6
p246
sg86
Vhttp://t.co/lxenDi3FSt
p247
sg87
I1328350363
sg88
VC0DEED
p248
sbsg117
I0
sg118
V<a href="http://twitter.com" rel="nofollow">Twitter Web Client</a>
p249
sg120
(lp250
g3
(g122
g5
Ntp251
Rp252
(dp253
g126
Vhttp://t.co/F0vFIwspo6
p254
sg128
Vhttp://elyeffe.listen2myradio.com
p255
sbasg87
I543487670983598080
sbag3
(g4
g5
Ntp256
Rp257
(dp258
g9
I0
sg10
Nsg11
Nsg12
(lp259
g3
(g14
g5
Ntp260
Rp261
(dp262
g18
VSoca
p263
sbag3
(g14
g5
Ntp264
Rp265
(dp266
g18
VReggae
p267
sbag3
(g14
g5
Ntp268
Rp269
(dp270
g18
VDanceHall
p271
sbag3
(g14
g5
Ntp272
Rp273
(dp274
g18
VCaribbean
p275
sbasg36
I00
sg37
Nsg38
Nsg39
(lp276
sg41
Nsg42
Nsg43
Nsg44
VFri Dec 12 17:43:34 +0000 2014
p277
sg46
Nsg47
I00
sg48
Nsg49
Nsg50
Nsg51
Nsg52
I00
sg53
Nsg54
(lp278
sg89
Nsg90
V543461168216821760
p279
sg92
Nsg93
VCOMMERCIAL FREE ------&gt;http://t.co/F0vFIwspo6  &lt;-------No Subscription Needed !! The best #Soca #Reggae &amp; #DanceHall ALL DAY! #Caribbean
p280
sg95
I00
sg96
Ven
p281
sg98
g3
(g56
g5
Ntp282
Rp283
(dp284
g10
VColumbus, Ohio
p285
sg60
V333333
p286
sg61
Ven
p287
sg62
VEastern Time (US & Canada)
p288
sg63
I2000
sg64
I6231
sg44
VFri Apr 05 03:59:07 +0000 2013
p289
sg65
I00
sg66
VRadio El Yeffe !!  A free streaming radio station featuring Roots Reggae, Soca and Dancehall!
p290
sg67
Vhttps://pbs.twimg.com/profile_images/3478581297/b23ef6fb71017c1a1e8cd15074811f78_normal.jpeg
p291
sg68
I2087
sg69
I548
sg70
I-18000
sg71
Nsg72
I00
sg73
Vhttps://pbs.twimg.com/profile_banners/1328350363/1402544254
p292
sg74
I00
sg75
I01
sg76
V0084B4
p293
sg77
I00
sg78
I00
sg79
Vhttp://pbs.twimg.com/profile_background_images/850908636/b73fe1ff80b5e23fc85e6800d2d5d90d.jpeg
p294
sg80
VRadioYeffe
p295
sg82
I11
sg83
VRadio Yeffe
p296
sg85
VDDEEF6
p297
sg86
Vhttp://t.co/lxenDi3FSt
p298
sg87
I1328350363
sg88
VC0DEED
p299
sbsg117
I0
sg118
V<a href="http://twitter.com" rel="nofollow">Twitter Web Client</a>
p300
sg120
(lp301
g3
(g122
g5
Ntp302
Rp303
(dp304
g126
Vhttp://t.co/F0vFIwspo6
p305
sg128
Vhttp://elyeffe.listen2myradio.com
p306
sbasg87
I543461168216821760
sbag3
(g4
g5
Ntp307
Rp308
(dp309
g9
I0
sg10
Nsg11
Nsg12
(lp310
g3
(g14
g5
Ntp311
Rp312
(dp313
g18
VFRIDAY
p314
sbag3
(g14
g5
Ntp315
Rp316
(dp317
g18
VMiami
p318
sbag3
(g14
g5
Ntp319
Rp320
(dp321
g18
VVancouver
p322
sbag3
(g14
g5
Ntp323
Rp324
(dp325
g18
VBoston
p326
sbag3
(g14
g5
Ntp327
Rp328
(dp329
g18
VGrenada
p330
sbag3
(g14
g5
Ntp331
Rp332
(dp333
g18
VDallas
p334
sbag3
(g14
g5
Ntp335
Rp336
(dp337
g18
VLondon
p338
sbag3
(g14
g5
Ntp339
Rp340
(dp341
g18
VBerlin
p342
sbag3
(g14
g5
Ntp343
Rp344
(dp345
g18
VSoca
p346
sbag3
(g14
g5
Ntp347
Rp348
(dp349
g18
VReggae
p350
sbag3
(g14
g5
Ntp351
Rp352
(dp353
g18
VVibes
p354
sbasg36
I00
sg37
Nsg38
Nsg39
(lp355
sg41
Nsg42
Nsg43
Nsg44
VFri Dec 12 17:42:52 +0000 2014
p356
sg46
Nsg47
I00
sg48
Nsg49
Nsg50
Nsg51
Nsg52
I00
sg53
Nsg54
(lp357
sg89
Nsg90
V543460993406615553
p358
sg92
Nsg93
VHappy #FRIDAY! #Miami #Vancouver #Boston #Grenada #Dallas #London #Berlin Come get some #Soca &amp; #Reggae! http://t.co/F0vFIwspo6  #Vibes
p359
sg95
I00
sg96
Ven
p360
sg98
g3
(g56
g5
Ntp361
Rp362
(dp363
g10
VColumbus, Ohio
p364
sg60
V333333
p365
sg61
Ven
p366
sg62
VEastern Time (US & Canada)
p367
sg63
I2000
sg64
I6231
sg44
VFri Apr 05 03:59:07 +0000 2013
p368
sg65
I00
sg66
VRadio El Yeffe !!  A free streaming radio station featuring Roots Reggae, Soca and Dancehall!
p369
sg67
Vhttps://pbs.twimg.com/profile_images/3478581297/b23ef6fb71017c1a1e8cd15074811f78_normal.jpeg
p370
sg68
I2087
sg69
I548
sg70
I-18000
sg71
Nsg72
I00
sg73
Vhttps://pbs.twimg.com/profile_banners/1328350363/1402544254
p371
sg74
I00
sg75
I01
sg76
V0084B4
p372
sg77
I00
sg78
I00
sg79
Vhttp://pbs.twimg.com/profile_background_images/850908636/b73fe1ff80b5e23fc85e6800d2d5d90d.jpeg
p373
sg80
VRadioYeffe
p374
sg82
I11
sg83
VRadio Yeffe
p375
sg85
VDDEEF6
p376
sg86
Vhttp://t.co/lxenDi3FSt
p377
sg87
I1328350363
sg88
VC0DEED
p378
sbsg117
I0
sg118
V<a href="http://twitter.com" rel="nofollow">Twitter Web Client</a>
p379
sg120
(lp380
g3
(g122
g5
Ntp381
Rp382
(dp383
g126
Vhttp://t.co/F0vFIwspo6
p384
sg128
Vhttp://elyeffe.listen2myradio.com
p385
sbasg87
I543460993406615553
sbag3
(g4
g5
Ntp386
Rp387
(dp388
g9
I0
sg10
Nsg11
Nsg12
(lp389
g3
(g14
g5
Ntp390
Rp391
(dp392
g18
VSoca
p393
sbag3
(g14
g5
Ntp394
Rp395
(dp396
g18
VReggae
p397
sbag3
(g14
g5
Ntp398
Rp399
(dp400
g18
VDanceHall
p401
sbag3
(g14
g5
Ntp402
Rp403
(dp404
g18
VTeamSoca
p405
sbag3
(g14
g5
Ntp406
Rp407
(dp408
g18
VJamaicanShoutOut
p409
sbag3
(g14
g5
Ntp410
Rp411
(dp412
g18
VTeamTrinidad
p413
sbag3
(g14
g5
Ntp414
Rp415
(dp416
g18
VTeamGuyanese
p417
sbag3
(g14
g5
Ntp418
Rp419
(dp420
g18
VVibes
p421
sbasg36
I00
sg37
Nsg38
Nsg39
(lp422
sg41
Nsg42
Nsg43
Nsg44
VFri Dec 12 17:41:54 +0000 2014
p423
sg46
Nsg47
Nsg48
Nsg49
Nsg50
Nsg51
Nsg52
I00
sg53
Nsg54
(lp424
sg89
Nsg90
V543460751227506689
p425
sg92
Nsg93
VIt's FRIDAY! Kick off the weekend with sweet #Soca #Reggae and #DanceHall! #TeamSoca #JamaicanShoutOut #TeamTrinidad #TeamGuyanese #Vibes
p426
sg95
I00
sg96
Ven
p427
sg98
g3
(g56
g5
Ntp428
Rp429
(dp430
g10
VColumbus, Ohio
p431
sg60
V333333
p432
sg61
Ven
p433
sg62
VEastern Time (US & Canada)
p434
sg63
I2000
sg64
I6231
sg44
VFri Apr 05 03:59:07 +0000 2013
p435
sg65
I00
sg66
VRadio El Yeffe !!  A free streaming radio station featuring Roots Reggae, Soca and Dancehall!
p436
sg67
Vhttps://pbs.twimg.com/profile_images/3478581297/b23ef6fb71017c1a1e8cd15074811f78_normal.jpeg
p437
sg68
I2087
sg69
I548
sg70
I-18000
sg71
Nsg72
I00
sg73
Vhttps://pbs.twimg.com/profile_banners/1328350363/1402544254
p438
sg74
I00
sg75
I01
sg76
V0084B4
p439
sg77
I00
sg78
I00
sg79
Vhttp://pbs.twimg.com/profile_background_images/850908636/b73fe1ff80b5e23fc85e6800d2d5d90d.jpeg
p440
sg80
VRadioYeffe
p441
sg82
I11
sg83
VRadio Yeffe
p442
sg85
VDDEEF6
p443
sg86
Vhttp://t.co/lxenDi3FSt
p444
sg87
I1328350363
sg88
VC0DEED
p445
sbsg117
I0
sg118
V<a href="http://twitter.com" rel="nofollow">Twitter Web Client</a>
p446
sg120
(lp447
sg87
I543460751227506689
sbag3
(g4
g5
Ntp448
Rp449
(dp450
g9
I0
sg10
Nsg11
Nsg12
(lp451
g3
(g14
g5
Ntp452
Rp453
(dp454
g18
VSoca
p455
sbag3
(g14
g5
Ntp456
Rp457
(dp458
g18
VReggae
p459
sbag3
(g14
g5
Ntp460
Rp461
(dp462
g18
VDanceHall
p463
sbag3
(g14
g5
Ntp464
Rp465
(dp466
g18
VTrinidad
p467
sbag3
(g14
g5
Ntp468
Rp469
(dp470
g18
VJamaica
p471
sbasg36
I00
sg37
Nsg38
Nsg39
(lp472
sg41
Nsg42
Nsg43
Nsg44
VFri Dec 12 15:52:35 +0000 2014
p473
sg46
Nsg47
I00
sg48
Nsg49
Nsg50
Nsg51
Nsg52
I00
sg53
Nsg54
(lp474
sg89
Nsg90
V543433239525085184
p475
sg92
Nsg93
VStart your Friday off right! The best #Soca #Reggae &amp; #DanceHall RIGHT HERE! Commercial Free! http://t.co/F0vFIwspo6  #Trinidad #Jamaica
p476
sg95
I00
sg96
Ven
p477
sg98
g3
(g56
g5
Ntp478
Rp479
(dp480
g10
VColumbus, Ohio
p481
sg60
V333333
p482
sg61
Ven
p483
sg62
VEastern Time (US & Canada)
p484
sg63
I2000
sg64
I6231
sg44
VFri Apr 05 03:59:07 +0000 2013
p485
sg65
I00
sg66
VRadio El Yeffe !!  A free streaming radio station featuring Roots Reggae, Soca and Dancehall!
p486
sg67
Vhttps://pbs.twimg.com/profile_images/3478581297/b23ef6fb71017c1a1e8cd15074811f78_normal.jpeg
p487
sg68
I2087
sg69
I548
sg70
I-18000
sg71
Nsg72
I00
sg73
Vhttps://pbs.twimg.com/profile_banners/1328350363/1402544254
p488
sg74
I00
sg75
I01
sg76
V0084B4
p489
sg77
I00
sg78
I00
sg79
Vhttp://pbs.twimg.com/profile_background_images/850908636/b73fe1ff80b5e23fc85e6800d2d5d90d.jpeg
p490
sg80
VRadioYeffe
p491
sg82
I11
sg83
VRadio Yeffe
p492
sg85
VDDEEF6
p493
sg86
Vhttp://t.co/lxenDi3FSt
p494
sg87
I1328350363
sg88
VC0DEED
p495
sbsg117
I1
sg118
V<a href="http://twitter.com" rel="nofollow">Twitter Web Client</a>
p496
sg120
(lp497
g3
(g122
g5
Ntp498
Rp499
(dp500
g126
Vhttp://t.co/F0vFIwspo6
p501
sg128
Vhttp://elyeffe.listen2myradio.com
p502
sbasg87
I543433239525085184
sbag3
(g4
g5
Ntp503
Rp504
(dp505
g9
I0
sg10
Nsg11
Nsg12
(lp506
g3
(g14
g5
Ntp507
Rp508
(dp509
g18
VNewYork
p510
sbag3
(g14
g5
Ntp511
Rp512
(dp513
g18
VBrooklyn
p514
sbag3
(g14
g5
Ntp515
Rp516
(dp517
g18
VMiami
p518
sbag3
(g14
g5
Ntp519
Rp520
(dp521
g18
VOrlando
p522
sbag3
(g14
g5
Ntp523
Rp524
(dp525
g18
VAtlanta
p526
sbag3
(g14
g5
Ntp527
Rp528
(dp529
g18
VToronto
p530
sbag3
(g14
g5
Ntp531
Rp532
(dp533
g18
VReggae
p534
sbag3
(g14
g5
Ntp535
Rp536
(dp537
g18
VSoca
p538
sbag3
(g14
g5
Ntp539
Rp540
(dp541
g18
VJamaica
p542
sbasg36
I00
sg37
Nsg38
Nsg39
(lp543
sg41
Nsg42
Nsg43
Nsg44
VFri Dec 12 15:50:54 +0000 2014
p544
sg46
Nsg47
I00
sg48
Nsg49
Nsg50
Nsg51
Nsg52
I00
sg53
Nsg54
(lp545
sg89
Nsg90
V543432815984271360
p546
sg92
Nsg93
VHey #NewYork #Brooklyn #Miami #Orlando #Atlanta #Toronto It's FRIDAY !! So blaze the #Reggae &amp; #Soca LOUD! http://t.co/F0vFIwspo6  #Jamaica
p547
sg95
I00
sg96
Ven
p548
sg98
g3
(g56
g5
Ntp549
Rp550
(dp551
g10
VColumbus, Ohio
p552
sg60
V333333
p553
sg61
Ven
p554
sg62
VEastern Time (US & Canada)
p555
sg63
I2000
sg64
I6231
sg44
VFri Apr 05 03:59:07 +0000 2013
p556
sg65
I00
sg66
VRadio El Yeffe !!  A free streaming radio station featuring Roots Reggae, Soca and Dancehall!
p557
sg67
Vhttps://pbs.twimg.com/profile_images/3478581297/b23ef6fb71017c1a1e8cd15074811f78_normal.jpeg
p558
sg68
I2087
sg69
I548
sg70
I-18000
sg71
Nsg72
I00
sg73
Vhttps://pbs.twimg.com/profile_banners/1328350363/1402544254
p559
sg74
I00
sg75
I01
sg76
V0084B4
p560
sg77
I00
sg78
I00
sg79
Vhttp://pbs.twimg.com/profile_background_images/850908636/b73fe1ff80b5e23fc85e6800d2d5d90d.jpeg
p561
sg80
VRadioYeffe
p562
sg82
I11
sg83
VRadio Yeffe
p563
sg85
VDDEEF6
p564
sg86
Vhttp://t.co/lxenDi3FSt
p565
sg87
I1328350363
sg88
VC0DEED
p566
sbsg117
I0
sg118
V<a href="http://twitter.com" rel="nofollow">Twitter Web Client</a>
p567
sg120
(lp568
g3
(g122
g5
Ntp569
Rp570
(dp571
g126
Vhttp://t.co/F0vFIwspo6
p572
sg128
Vhttp://elyeffe.listen2myradio.com
p573
sbasg87
I543432815984271360
sbag3
(g4
g5
Ntp574
Rp575
(dp576
g9
I0
sg10
Nsg11
Nsg12
(lp577
g3
(g14
g5
Ntp578
Rp579
(dp580
g18
VFriday
p581
sbag3
(g14
g5
Ntp582
Rp583
(dp584
g18
VSoca
p585
sbag3
(g14
g5
Ntp586
Rp587
(dp588
g18
VReggae
p589
sbag3
(g14
g5
Ntp590
Rp591
(dp592
g18
VDanceHall
p593
sbag3
(g14
g5
Ntp594
Rp595
(dp596
g18
VTeamJamaica
p597
sbag3
(g14
g5
Ntp598
Rp599
(dp600
g18
VCaribbean
p601
sbag3
(g14
g5
Ntp602
Rp603
(dp604
g18
VTeamGuyanese
p605
sbag3
(g14
g5
Ntp606
Rp607
(dp608
g18
VMiami
p609
sbag3
(g14
g5
Ntp610
Rp611
(dp612
g18
VChicago
p613
sbag3
(g14
g5
Ntp614
Rp615
(dp616
g18
VNewYork
p617
sbasg36
I00
sg37
Nsg38
Nsg39
(lp618
sg41
Nsg42
Nsg43
Nsg44
VFri Dec 12 15:50:36 +0000 2014
p619
sg46
Nsg47
I00
sg48
Nsg49
Nsg50
Nsg51
Nsg52
I00
sg53
Nsg54
(lp620
sg89
Nsg90
V543432740746854400
p621
sg92
Nsg93
V#Friday Pull-Up !! Lock on! http://t.co/F0vFIwspo6  #Soca #Reggae #DanceHall #TeamJamaica #Caribbean #TeamGuyanese #Miami #Chicago #NewYork
p622
sg95
I00
sg96
Ven
p623
sg98
g3
(g56
g5
Ntp624
Rp625
(dp626
g10
VColumbus, Ohio
p627
sg60
V333333
p628
sg61
Ven
p629
sg62
VEastern Time (US & Canada)
p630
sg63
I2000
sg64
I6231
sg44
VFri Apr 05 03:59:07 +0000 2013
p631
sg65
I00
sg66
VRadio El Yeffe !!  A free streaming radio station featuring Roots Reggae, Soca and Dancehall!
p632
sg67
Vhttps://pbs.twimg.com/profile_images/3478581297/b23ef6fb71017c1a1e8cd15074811f78_normal.jpeg
p633
sg68
I2087
sg69
I548
sg70
I-18000
sg71
Nsg72
I00
sg73
Vhttps://pbs.twimg.com/profile_banners/1328350363/1402544254
p634
sg74
I00
sg75
I01
sg76
V0084B4
p635
sg77
I00
sg78
I00
sg79
Vhttp://pbs.twimg.com/profile_background_images/850908636/b73fe1ff80b5e23fc85e6800d2d5d90d.jpeg
p636
sg80
VRadioYeffe
p637
sg82
I11
sg83
VRadio Yeffe
p638
sg85
VDDEEF6
p639
sg86
Vhttp://t.co/lxenDi3FSt
p640
sg87
I1328350363
sg88
VC0DEED
p641
sbsg117
I0
sg118
V<a href="http://twitter.com" rel="nofollow">Twitter Web Client</a>
p642
sg120
(lp643
g3
(g122
g5
Ntp644
Rp645
(dp646
g126
Vhttp://t.co/F0vFIwspo6
p647
sg128
Vhttp://elyeffe.listen2myradio.com
p648
sbasg87
I543432740746854400
sbag3
(g4
g5
Ntp649
Rp650
(dp651
g9
I0
sg10
Nsg11
Nsg12
(lp652
g3
(g14
g5
Ntp653
Rp654
(dp655
g18
VReggae
p656
sbag3
(g14
g5
Ntp657
Rp658
(dp659
g18
VRoots
p660
sbag3
(g14
g5
Ntp661
Rp662
(dp663
g18
VReggaeMusic
p664
sbag3
(g14
g5
Ntp665
Rp666
(dp667
g18
VTGIF
p668
sbag3
(g14
g5
Ntp669
Rp670
(dp671
g18
VRastafari
p672
sbasg36
I00
sg37
Nsg38
Nsg39
(lp673
sg41
Nsg42
Nsg43
Nsg44
VFri Dec 12 14:26:32 +0000 2014
p674
sg46
Nsg47
I00
sg48
Nsg49
Nsg50
Nsg51
Nsg52
I00
sg53
Nsg54
(lp675
sg89
Nsg90
V543411585155616768
p676
sg92
Nsg93
VNOW PLAYING!! Culture - "Chant Down Babylon" !! #Reggae #Roots #ReggaeMusic http://t.co/F0vFIwspo6 #TGIF #Rastafari
p677
sg95
I00
sg96
Ven
p678
sg98
g3
(g56
g5
Ntp679
Rp680
(dp681
g10
VColumbus, Ohio
p682
sg60
V333333
p683
sg61
Ven
p684
sg62
VEastern Time (US & Canada)
p685
sg63
I2000
sg64
I6231
sg44
VFri Apr 05 03:59:07 +0000 2013
p686
sg65
I00
sg66
VRadio El Yeffe !!  A free streaming radio station featuring Roots Reggae, Soca and Dancehall!
p687
sg67
Vhttps://pbs.twimg.com/profile_images/3478581297/b23ef6fb71017c1a1e8cd15074811f78_normal.jpeg
p688
sg68
I2087
sg69
I548
sg70
I-18000
sg71
Nsg72
I00
sg73
Vhttps://pbs.twimg.com/profile_banners/1328350363/1402544254
p689
sg74
I00
sg75
I01
sg76
V0084B4
p690
sg77
I00
sg78
I00
sg79
Vhttp://pbs.twimg.com/profile_background_images/850908636/b73fe1ff80b5e23fc85e6800d2d5d90d.jpeg
p691
sg80
VRadioYeffe
p692
sg82
I11
sg83
VRadio Yeffe
p693
sg85
VDDEEF6
p694
sg86
Vhttp://t.co/lxenDi3FSt
p695
sg87
I1328350363
sg88
VC0DEED
p696
sbsg117
I1
sg118
V<a href="http://twitter.com" rel="nofollow">Twitter Web Client</a>
p697
sg120
(lp698
g3
(g122
g5
Ntp699
Rp700
(dp701
g126
Vhttp://t.co/F0vFIwspo6
p702
sg128
Vhttp://elyeffe.listen2myradio.com
p703
sbasg87
I543411585155616768
sbag3
(g4
g5
Ntp704
Rp705
(dp706
g9
I0
sg10
Nsg11
Nsg12
(lp707
g3
(g14
g5
Ntp708
Rp709
(dp710
g18
VReggae
p711
sbag3
(g14
g5
Ntp712
Rp713
(dp714
g18
VSoca
p715
sbag3
(g14
g5
Ntp716
Rp717
(dp718
g18
VTeamSoca
p719
sbag3
(g14
g5
Ntp720
Rp721
(dp722
g18
VJamaica
p723
sbag3
(g14
g5
Ntp724
Rp725
(dp726
g18
VTeamGuyanese
p727
sbag3
(g14
g5
Ntp728
Rp729
(dp730
g18
VTeamMiami
p731
sbasg36
I00
sg37
Nsg38
Nsg39
(lp732
sg41
Nsg42
Nsg43
Nsg44
VFri Dec 12 14:11:28 +0000 2014
p733
sg46
Nsg47
I00
sg48
Nsg49
Nsg50
Nsg51
Nsg52
I00
sg53
Nsg54
(lp734
sg89
Nsg90
V543407790891728896
p735
sg92
Nsg93
VFull Friday Tun-Up !! The best #Reggae and #Soca vibes! COMMERCIAL FREE http://t.co/F0vFIwspo6  #TeamSoca #Jamaica #TeamGuyanese #TeamMiami
p736
sg95
I00
sg96
Ven
p737
sg98
g3
(g56
g5
Ntp738
Rp739
(dp740
g10
VColumbus, Ohio
p741
sg60
V333333
p742
sg61
Ven
p743
sg62
VEastern Time (US & Canada)
p744
sg63
I2000
sg64
I6231
sg44
VFri Apr 05 03:59:07 +0000 2013
p745
sg65
I00
sg66
VRadio El Yeffe !!  A free streaming radio station featuring Roots Reggae, Soca and Dancehall!
p746
sg67
Vhttps://pbs.twimg.com/profile_images/3478581297/b23ef6fb71017c1a1e8cd15074811f78_normal.jpeg
p747
sg68
I2087
sg69
I548
sg70
I-18000
sg71
Nsg72
I00
sg73
Vhttps://pbs.twimg.com/profile_banners/1328350363/1402544254
p748
sg74
I00
sg75
I01
sg76
V0084B4
p749
sg77
I00
sg78
I00
sg79
Vhttp://pbs.twimg.com/profile_background_images/850908636/b73fe1ff80b5e23fc85e6800d2d5d90d.jpeg
p750
sg80
VRadioYeffe
p751
sg82
I11
sg83
VRadio Yeffe
p752
sg85
VDDEEF6
p753
sg86
Vhttp://t.co/lxenDi3FSt
p754
sg87
I1328350363
sg88
VC0DEED
p755
sbsg117
I0
sg118
V<a href="http://twitter.com" rel="nofollow">Twitter Web Client</a>
p756
sg120
(lp757
g3
(g122
g5
Ntp758
Rp759
(dp760
g126
Vhttp://t.co/F0vFIwspo6
p761
sg128
Vhttp://elyeffe.listen2myradio.com
p762
sbasg87
I543407790891728896
sbag3
(g4
g5
Ntp763
Rp764
(dp765
g9
I0
sg10
Nsg11
Nsg12
(lp766
g3
(g14
g5
Ntp767
Rp768
(dp769
g18
VFRIDAY
p770
sbag3
(g14
g5
Ntp771
Rp772
(dp773
g18
VReggae
p774
sbag3
(g14
g5
Ntp775
Rp776
(dp777
g18
VSoca
p778
sbag3
(g14
g5
Ntp779
Rp780
(dp781
g18
VCaribbean
p782
sbag3
(g14
g5
Ntp783
Rp784
(dp785
g18
VJah
p786
sbag3
(g14
g5
Ntp787
Rp788
(dp789
g18
VRastafari
p790
sbasg36
I00
sg37
Nsg38
Nsg39
(lp791
sg41
Nsg42
Nsg43
Nsg44
VFri Dec 12 14:10:42 +0000 2014
p792
sg46
Nsg47
I00
sg48
Nsg49
Nsg50
Nsg51
Nsg52
I00
sg53
Nsg54
(lp793
sg89
Nsg90
V543407598800994304
p794
sg92
Nsg93
VIt's #FRIDAY !! Give Thanks &amp; Praises for sweet #Reggae &amp; #Soca Music! COMMERCIAL FREE! http://t.co/F0vFIwspo6  #Caribbean #Jah #Rastafari
p795
sg95
I00
sg96
Ven
p796
sg98
g3
(g56
g5
Ntp797
Rp798
(dp799
g10
VColumbus, Ohio
p800
sg60
V333333
p801
sg61
Ven
p802
sg62
VEastern Time (US & Canada)
p803
sg63
I2000
sg64
I6231
sg44
VFri Apr 05 03:59:07 +0000 2013
p804
sg65
I00
sg66
VRadio El Yeffe !!  A free streaming radio station featuring Roots Reggae, Soca and Dancehall!
p805
sg67
Vhttps://pbs.twimg.com/profile_images/3478581297/b23ef6fb71017c1a1e8cd15074811f78_normal.jpeg
p806
sg68
I2087
sg69
I548
sg70
I-18000
sg71
Nsg72
I00
sg73
Vhttps://pbs.twimg.com/profile_banners/1328350363/1402544254
p807
sg74
I00
sg75
I01
sg76
V0084B4
p808
sg77
I00
sg78
I00
sg79
Vhttp://pbs.twimg.com/profile_background_images/850908636/b73fe1ff80b5e23fc85e6800d2d5d90d.jpeg
p809
sg80
VRadioYeffe
p810
sg82
I11
sg83
VRadio Yeffe
p811
sg85
VDDEEF6
p812
sg86
Vhttp://t.co/lxenDi3FSt
p813
sg87
I1328350363
sg88
VC0DEED
p814
sbsg117
I0
sg118
V<a href="http://twitter.com" rel="nofollow">Twitter Web Client</a>
p815
sg120
(lp816
g3
(g122
g5
Ntp817
Rp818
(dp819
g126
Vhttp://t.co/F0vFIwspo6
p820
sg128
Vhttp://elyeffe.listen2myradio.com
p821
sbasg87
I543407598800994304
sbag3
(g4
g5
Ntp822
Rp823
(dp824
g9
I1
sg10
Nsg11
Nsg12
(lp825
g3
(g14
g5
Ntp826
Rp827
(dp828
g18
VReggae
p829
sbag3
(g14
g5
Ntp830
Rp831
(dp832
g18
VRoots
p833
sbag3
(g14
g5
Ntp834
Rp835
(dp836
g18
VJamaica
p837
sbag3
(g14
g5
Ntp838
Rp839
(dp840
g18
VVibes
p841
sbasg36
I00
sg37
Nsg38
Nsg39
(lp842
sg41
Nsg42
Nsg43
Nsg44
VFri Dec 12 14:07:29 +0000 2014
p843
sg46
Nsg47
I00
sg48
Nsg49
Nsg50
Nsg51
Nsg52
I00
sg53
Nsg54
(lp844
g3
(g56
g5
Ntp845
Rp846
(dp847
g10
Nsg60
Nsg61
Nsg62
Nsg63
Nsg64
Nsg44
Nsg65
Nsg66
Nsg67
Nsg68
Nsg69
Nsg70
Nsg71
Nsg72
Nsg73
Nsg74
Nsg75
Nsg76
Nsg77
Nsg78
Nsg79
Nsg80
Vstephenmarley
p848
sg82
Nsg83
VStephen Marley
p849
sg85
Nsg86
Nsg87
I203306729
sg88
Nsbasg89
Nsg90
V543406792311848960
p850
sg92
Nsg93
VNow Playing!! @stephenmarley  "No Cigarette Smoking"  #Reggae #Roots http://t.co/F0vFIwspo6 #Jamaica #Vibes
p851
sg95
I00
sg96
Ven
p852
sg98
g3
(g56
g5
Ntp853
Rp854
(dp855
g10
VColumbus, Ohio
p856
sg60
V333333
p857
sg61
Ven
p858
sg62
VEastern Time (US & Canada)
p859
sg63
I2000
sg64
I6231
sg44
VFri Apr 05 03:59:07 +0000 2013
p860
sg65
I00
sg66
VRadio El Yeffe !!  A free streaming radio station featuring Roots Reggae, Soca and Dancehall!
p861
sg67
Vhttps://pbs.twimg.com/profile_images/3478581297/b23ef6fb71017c1a1e8cd15074811f78_normal.jpeg
p862
sg68
I2087
sg69
I548
sg70
I-18000
sg71
Nsg72
I00
sg73
Vhttps://pbs.twimg.com/profile_banners/1328350363/1402544254
p863
sg74
I00
sg75
I01
sg76
V0084B4
p864
sg77
I00
sg78
I00
sg79
Vhttp://pbs.twimg.com/profile_background_images/850908636/b73fe1ff80b5e23fc85e6800d2d5d90d.jpeg
p865
sg80
VRadioYeffe
p866
sg82
I11
sg83
VRadio Yeffe
p867
sg85
VDDEEF6
p868
sg86
Vhttp://t.co/lxenDi3FSt
p869
sg87
I1328350363
sg88
VC0DEED
p870
sbsg117
I1
sg118
V<a href="http://twitter.com" rel="nofollow">Twitter Web Client</a>
p871
sg120
(lp872
g3
(g122
g5
Ntp873
Rp874
(dp875
g126
Vhttp://t.co/F0vFIwspo6
p876
sg128
Vhttp://elyeffe.listen2myradio.com
p877
sbasg87
I543406792311848960
sbag3
(g4
g5
Ntp878
Rp879
(dp880
g9
I0
sg10
Nsg11
Nsg12
(lp881
sg36
I00
sg37
Nsg38
Nsg39
(lp882
sg41
Nsg42
Nsg43
Nsg44
VFri Dec 12 06:49:17 +0000 2014
p883
sg46
Nsg47
Nsg48
VYesImKayla
p884
sg49
Nsg50
I127935488
sg51
Nsg52
I00
sg53
Nsg54
(lp885
g3
(g56
g5
Ntp886
Rp887
(dp888
g10
Nsg60
Nsg61
Nsg62
Nsg63
Nsg64
Nsg44
Nsg65
Nsg66
Nsg67
Nsg68
Nsg69
Nsg70
Nsg71
Nsg72
Nsg73
Nsg74
Nsg75
Nsg76
Nsg77
Nsg78
Nsg79
Nsg80
VYesImKayla
p889
sg82
Nsg83
VKayla
p890
sg85
Nsg86
Nsg87
I127935488
sg88
Nsbasg89
Nsg90
V543296514949251072
p891
sg92
I543295734032764928
sg93
V@YesImKayla Rhi Rhi hot like fiyah!! Laaaaawwwd!! \U0001f61c\U0001f61d\U0001f61b\U0001f60d\U0001f60d\U0001f60d
p892
sg95
I00
sg96
Ven
p893
sg98
g3
(g56
g5
Ntp894
Rp895
(dp896
g10
VColumbus, Ohio
p897
sg60
V333333
p898
sg61
Ven
p899
sg62
VEastern Time (US & Canada)
p900
sg63
I2000
sg64
I6231
sg44
VFri Apr 05 03:59:07 +0000 2013
p901
sg65
I00
sg66
VRadio El Yeffe !!  A free streaming radio station featuring Roots Reggae, Soca and Dancehall!
p902
sg67
Vhttps://pbs.twimg.com/profile_images/3478581297/b23ef6fb71017c1a1e8cd15074811f78_normal.jpeg
p903
sg68
I2087
sg69
I548
sg70
I-18000
sg71
Nsg72
I00
sg73
Vhttps://pbs.twimg.com/profile_banners/1328350363/1402544254
p904
sg74
I00
sg75
I01
sg76
V0084B4
p905
sg77
I00
sg78
I00
sg79
Vhttp://pbs.twimg.com/profile_background_images/850908636/b73fe1ff80b5e23fc85e6800d2d5d90d.jpeg
p906
sg80
VRadioYeffe
p907
sg82
I11
sg83
VRadio Yeffe
p908
sg85
VDDEEF6
p909
sg86
Vhttp://t.co/lxenDi3FSt
p910
sg87
I1328350363
sg88
VC0DEED
p911
sbsg117
I0
sg118
V<a href="http://twitter.com/download/iphone" rel="nofollow">Twitter for iPhone</a>
p912
sg120
(lp913
sg87
I543296514949251072
sbag3
(g4
g5
Ntp914
Rp915
(dp916
g9
I0
sg10
Nsg11
Nsg12
(lp917
g3
(g14
g5
Ntp918
Rp919
(dp920
g18
VSoca
p921
sbag3
(g14
g5
Ntp922
Rp923
(dp924
g18
VReggae
p925
sbag3
(g14
g5
Ntp926
Rp927
(dp928
g18
VDanceHall
p929
sbag3
(g14
g5
Ntp930
Rp931
(dp932
g18
VCaribbean
p933
sbasg36
I00
sg37
Nsg38
Nsg39
(lp934
sg41
Nsg42
Nsg43
Nsg44
VFri Dec 12 06:43:46 +0000 2014
p935
sg46
Nsg47
Nsg48
VDaisy_dotty
p936
sg49
Nsg50
I244107857
sg51
Nsg52
I00
sg53
Nsg54
(lp937
g3
(g56
g5
Ntp938
Rp939
(dp940
g10
Nsg60
Nsg61
Nsg62
Nsg63
Nsg64
Nsg44
Nsg65
Nsg66
Nsg67
Nsg68
Nsg69
Nsg70
Nsg71
Nsg72
Nsg73
Nsg74
Nsg75
Nsg76
Nsg77
Nsg78
Nsg79
Nsg80
VDaisy_dotty
p941
sg82
Nsg83
VDaisy\u2122
p942
sg85
Nsg86
Nsg87
I244107857
sg88
Nsbasg89
Nsg90
V543295126655610881
p943
sg92
I543293829785604096
sg93
V@Daisy_dotty Yes! We have plenty that! #Soca #Reggae #DanceHall #Caribbean
p944
sg95
I00
sg96
Ven
p945
sg98
g3
(g56
g5
Ntp946
Rp947
(dp948
g10
VColumbus, Ohio
p949
sg60
V333333
p950
sg61
Ven
p951
sg62
VEastern Time (US & Canada)
p952
sg63
I2000
sg64
I6231
sg44
VFri Apr 05 03:59:07 +0000 2013
p953
sg65
I00
sg66
VRadio El Yeffe !!  A free streaming radio station featuring Roots Reggae, Soca and Dancehall!
p954
sg67
Vhttps://pbs.twimg.com/profile_images/3478581297/b23ef6fb71017c1a1e8cd15074811f78_normal.jpeg
p955
sg68
I2087
sg69
I548
sg70
I-18000
sg71
Nsg72
I00
sg73
Vhttps://pbs.twimg.com/profile_banners/1328350363/1402544254
p956
sg74
I00
sg75
I01
sg76
V0084B4
p957
sg77
I00
sg78
I00
sg79
Vhttp://pbs.twimg.com/profile_background_images/850908636/b73fe1ff80b5e23fc85e6800d2d5d90d.jpeg
p958
sg80
VRadioYeffe
p959
sg82
I11
sg83
VRadio Yeffe
p960
sg85
VDDEEF6
p961
sg86
Vhttp://t.co/lxenDi3FSt
p962
sg87
I1328350363
sg88
VC0DEED
p963
sbsg117
I1
sg118
V<a href="http://twitter.com/download/iphone" rel="nofollow">Twitter for iPhone</a>
p964
sg120
(lp965
sg87
I543295126655610881
sbag3
(g4
g5
Ntp966
Rp967
(dp968
g9
I0
sg10
Nsg11
Nsg12
(lp969
g3
(g14
g5
Ntp970
Rp971
(dp972
g18
VSoca
p973
sbag3
(g14
g5
Ntp974
Rp975
(dp976
g18
VReggae
p977
sbag3
(g14
g5
Ntp978
Rp979
(dp980
g18
VDancehall
p981
sbag3
(g14
g5
Ntp982
Rp983
(dp984
g18
VCaribbean
p985
sbasg36
I00
sg37
Nsg38
Nsg39
(lp986
sg41
Nsg42
Nsg43
Nsg44
VFri Dec 12 06:22:51 +0000 2014
p987
sg46
Nsg47
Nsg48
Vlucky_ox
p988
sg49
Nsg50
I231587646
sg51
Nsg52
I00
sg53
Nsg54
(lp989
g3
(g56
g5
Ntp990
Rp991
(dp992
g10
Nsg60
Nsg61
Nsg62
Nsg63
Nsg64
Nsg44
Nsg65
Nsg66
Nsg67
Nsg68
Nsg69
Nsg70
Nsg71
Nsg72
Nsg73
Nsg74
Nsg75
Nsg76
Nsg77
Nsg78
Nsg79
Nsg80
Vlucky_ox
p993
sg82
Nsg83
Vbeloved 
p994
sg85
Nsg86
Nsg87
I231587646
sg88
Nsbasg89
Nsg90
V543289860279111680
p995
sg92
I543284225513115649
sg93
V@lucky_ox No need for mixtape... You have us!! #Soca #Reggae #Dancehall  #Caribbean
p996
sg95
I00
sg96
Ven
p997
sg98
g3
(g56
g5
Ntp998
Rp999
(dp1000
g10
VColumbus, Ohio
p1001
sg60
V333333
p1002
sg61
Ven
p1003
sg62
VEastern Time (US & Canada)
p1004
sg63
I2000
sg64
I6231
sg44
VFri Apr 05 03:59:07 +0000 2013
p1005
sg65
I00
sg66
VRadio El Yeffe !!  A free streaming radio station featuring Roots Reggae, Soca and Dancehall!
p1006
sg67
Vhttps://pbs.twimg.com/profile_images/3478581297/b23ef6fb71017c1a1e8cd15074811f78_normal.jpeg
p1007
sg68
I2087
sg69
I548
sg70
I-18000
sg71
Nsg72
I00
sg73
Vhttps://pbs.twimg.com/profile_banners/1328350363/1402544254
p1008
sg74
I00
sg75
I01
sg76
V0084B4
p1009
sg77
I00
sg78
I00
sg79
Vhttp://pbs.twimg.com/profile_background_images/850908636/b73fe1ff80b5e23fc85e6800d2d5d90d.jpeg
p1010
sg80
VRadioYeffe
p1011
sg82
I11
sg83
VRadio Yeffe
p1012
sg85
VDDEEF6
p1013
sg86
Vhttp://t.co/lxenDi3FSt
p1014
sg87
I1328350363
sg88
VC0DEED
p1015
sbsg117
I0
sg118
V<a href="http://twitter.com/download/iphone" rel="nofollow">Twitter for iPhone</a>
p1016
sg120
(lp1017
sg87
I543289860279111680
sbag3
(g4
g5
Ntp1018
Rp1019
(dp1020
g9
I1
sg10
Nsg11
Nsg12
(lp1021
g3
(g14
g5
Ntp1022
Rp1023
(dp1024
g18
VSoca
p1025
sbag3
(g14
g5
Ntp1026
Rp1027
(dp1028
g18
VReggae
p1029
sbag3
(g14
g5
Ntp1030
Rp1031
(dp1032
g18
VOneCaribbean
p1033
sbag3
(g14
g5
Ntp1034
Rp1035
(dp1036
g18
VSocaMusic
p1037
sbag3
(g14
g5
Ntp1038
Rp1039
(dp1040
g18
VTeamToronto
p1041
sbag3
(g14
g5
Ntp1042
Rp1043
(dp1044
g18
VTeamLondon
p1045
sbag3
(g14
g5
Ntp1046
Rp1047
(dp1048
g18
VTeamGuyanese
p1049
sbag3
(g14
g5
Ntp1050
Rp1051
(dp1052
g18
VRastafari
p1053
sbasg36
I00
sg37
Nsg38
Nsg39
(lp1054
sg41
Nsg42
Nsg43
Nsg44
VFri Dec 12 06:19:10 +0000 2014
p1055
sg46
Nsg47
I00
sg48
Nsg49
Nsg50
Nsg51
Nsg52
I00
sg53
Nsg54
(lp1056
sg89
Nsg90
V543288936185868289
p1057
sg92
Nsg93
V#Soca &amp; #Reggae NONSTOP All Night Long!! http://t.co/lxenDi3FSt   #OneCaribbean #SocaMusic #TeamToronto #TeamLondon #TeamGuyanese #Rastafari
p1058
sg95
I00
sg96
Ven
p1059
sg98
g3
(g56
g5
Ntp1060
Rp1061
(dp1062
g10
VColumbus, Ohio
p1063
sg60
V333333
p1064
sg61
Ven
p1065
sg62
VEastern Time (US & Canada)
p1066
sg63
I2000
sg64
I6231
sg44
VFri Apr 05 03:59:07 +0000 2013
p1067
sg65
I00
sg66
VRadio El Yeffe !!  A free streaming radio station featuring Roots Reggae, Soca and Dancehall!
p1068
sg67
Vhttps://pbs.twimg.com/profile_images/3478581297/b23ef6fb71017c1a1e8cd15074811f78_normal.jpeg
p1069
sg68
I2087
sg69
I548
sg70
I-18000
sg71
Nsg72
I00
sg73
Vhttps://pbs.twimg.com/profile_banners/1328350363/1402544254
p1070
sg74
I00
sg75
I01
sg76
V0084B4
p1071
sg77
I00
sg78
I00
sg79
Vhttp://pbs.twimg.com/profile_background_images/850908636/b73fe1ff80b5e23fc85e6800d2d5d90d.jpeg
p1072
sg80
VRadioYeffe
p1073
sg82
I11
sg83
VRadio Yeffe
p1074
sg85
VDDEEF6
p1075
sg86
Vhttp://t.co/lxenDi3FSt
p1076
sg87
I1328350363
sg88
VC0DEED
p1077
sbsg117
I0
sg118
V<a href="http://twitter.com/download/iphone" rel="nofollow">Twitter for iPhone</a>
p1078
sg120
(lp1079
g3
(g122
g5
Ntp1080
Rp1081
(dp1082
g126
Vhttp://t.co/lxenDi3FSt
p1083
sg128
Vhttp://elyeffe.listen2myradio.com
p1084
sbasg87
I543288936185868289
sbag3
(g4
g5
Ntp1085
Rp1086
(dp1087
g9
I0
sg10
Nsg11
Nsg12
(lp1088
g3
(g14
g5
Ntp1089
Rp1090
(dp1091
g18
VReggae
p1092
sbag3
(g14
g5
Ntp1093
Rp1094
(dp1095
g18
VJamaica
p1096
sbag3
(g14
g5
Ntp1097
Rp1098
(dp1099
g18
VRastafari
p1100
sbag3
(g14
g5
Ntp1101
Rp1102
(dp1103
g18
VVibes
p1104
sbag3
(g14
g5
Ntp1105
Rp1106
(dp1107
g18
VTeamReggae
p1108
sbag3
(g14
g5
Ntp1109
Rp1110
(dp1111
g18
VZion
p1112
sbag3
(g14
g5
Ntp1113
Rp1114
(dp1115
g18
VTeamKenya
p1116
sbag3
(g14
g5
Ntp1117
Rp1118
(dp1119
g18
VTeamRasta
p1120
sbag3
(g14
g5
Ntp1121
Rp1122
(dp1123
g18
VEthiopia
p1124
sbasg36
I00
sg37
Nsg38
Nsg39
(lp1125
sg41
Nsg42
Nsg43
Nsg44
VFri Dec 12 03:01:21 +0000 2014
p1126
sg46
Nsg47
I00
sg48
Nsg49
Nsg50
Nsg51
Nsg52
I00
sg53
Nsg54
(lp1127
sg89
Nsg90
V543239151013736448
p1128
sg92
Nsg93
VRoots #Reggae !! Commercial Free! http://t.co/n8UAOdU5zs  #Jamaica #Rastafari #Vibes #TeamReggae #Zion #TeamKenya #TeamRasta #Ethiopia
p1129
sg95
I00
sg96
Ven
p1130
sg98
g3
(g56
g5
Ntp1131
Rp1132
(dp1133
g10
VColumbus, Ohio
p1134
sg60
V333333
p1135
sg61
Ven
p1136
sg62
VEastern Time (US & Canada)
p1137
sg63
I2000
sg64
I6231
sg44
VFri Apr 05 03:59:07 +0000 2013
p1138
sg65
I00
sg66
VRadio El Yeffe !!  A free streaming radio station featuring Roots Reggae, Soca and Dancehall!
p1139
sg67
Vhttps://pbs.twimg.com/profile_images/3478581297/b23ef6fb71017c1a1e8cd15074811f78_normal.jpeg
p1140
sg68
I2087
sg69
I548
sg70
I-18000
sg71
Nsg72
I00
sg73
Vhttps://pbs.twimg.com/profile_banners/1328350363/1402544254
p1141
sg74
I00
sg75
I01
sg76
V0084B4
p1142
sg77
I00
sg78
I00
sg79
Vhttp://pbs.twimg.com/profile_background_images/850908636/b73fe1ff80b5e23fc85e6800d2d5d90d.jpeg
p1143
sg80
VRadioYeffe
p1144
sg82
I11
sg83
VRadio Yeffe
p1145
sg85
VDDEEF6
p1146
sg86
Vhttp://t.co/lxenDi3FSt
p1147
sg87
I1328350363
sg88
VC0DEED
p1148
sbsg117
I0
sg118
V<a href="http://twitter.com/download/iphone" rel="nofollow">Twitter for iPhone</a>
p1149
sg120
(lp1150
g3
(g122
g5
Ntp1151
Rp1152
(dp1153
g126
Vhttp://t.co/n8UAOdU5zs
p1154
sg128
Vhttp://elyeffe.listen2myradio.com
p1155
sbasg87
I543239151013736448
sbag3
(g4
g5
Ntp1156
Rp1157
(dp1158
g9
I0
sg10
Nsg11
Nsg12
(lp1159
g3
(g14
g5
Ntp1160
Rp1161
(dp1162
g18
VLosAngeles
p1163
sbag3
(g14
g5
Ntp1164
Rp1165
(dp1166
g18
VZimbabwe
p1167
sbag3
(g14
g5
Ntp1168
Rp1169
(dp1170
g18
VRoots
p1171
sbag3
(g14
g5
Ntp1172
Rp1173
(dp1174
g18
VReggae
p1175
sbag3
(g14
g5
Ntp1176
Rp1177
(dp1178
g18
VDanceHall
p1179
sbag3
(g14
g5
Ntp1180
Rp1181
(dp1182
g18
VSoca
p1183
sbag3
(g14
g5
Ntp1184
Rp1185
(dp1186
g18
VCaribbean
p1187
sbag3
(g14
g5
Ntp1188
Rp1189
(dp1190
g18
VJamaica
p1191
sbag3
(g14
g5
Ntp1192
Rp1193
(dp1194
g18
VTeamSoca
p1195
sbasg36
I00
sg37
Nsg38
Nsg39
(lp1196
sg41
Nsg42
Nsg43
Nsg44
VFri Dec 12 02:57:56 +0000 2014
p1197
sg46
Nsg47
I00
sg48
Nsg49
Nsg50
Nsg51
Nsg52
I00
sg53
Nsg54
(lp1198
sg89
Nsg90
V543238291571494912
p1199
sg92
Nsg93
VFrom #LosAngeles to #Zimbabwe Our listeners know #Roots #Reggae #DanceHall &amp; #Soca !! http://t.co/F0vFIvTLe2  #Caribbean #Jamaica #TeamSoca
p1200
sg95
I00
sg96
Ven
p1201
sg98
g3
(g56
g5
Ntp1202
Rp1203
(dp1204
g10
VColumbus, Ohio
p1205
sg60
V333333
p1206
sg61
Ven
p1207
sg62
VEastern Time (US & Canada)
p1208
sg63
I2000
sg64
I6231
sg44
VFri Apr 05 03:59:07 +0000 2013
p1209
sg65
I00
sg66
VRadio El Yeffe !!  A free streaming radio station featuring Roots Reggae, Soca and Dancehall!
p1210
sg67
Vhttps://pbs.twimg.com/profile_images/3478581297/b23ef6fb71017c1a1e8cd15074811f78_normal.jpeg
p1211
sg68
I2087
sg69
I548
sg70
I-18000
sg71
Nsg72
I00
sg73
Vhttps://pbs.twimg.com/profile_banners/1328350363/1402544254
p1212
sg74
I00
sg75
I01
sg76
V0084B4
p1213
sg77
I00
sg78
I00
sg79
Vhttp://pbs.twimg.com/profile_background_images/850908636/b73fe1ff80b5e23fc85e6800d2d5d90d.jpeg
p1214
sg80
VRadioYeffe
p1215
sg82
I11
sg83
VRadio Yeffe
p1216
sg85
VDDEEF6
p1217
sg86
Vhttp://t.co/lxenDi3FSt
p1218
sg87
I1328350363
sg88
VC0DEED
p1219
sbsg117
I0
sg118
V<a href="http://twitter.com/download/iphone" rel="nofollow">Twitter for iPhone</a>
p1220
sg120
(lp1221
g3
(g122
g5
Ntp1222
Rp1223
(dp1224
g126
Vhttp://t.co/F0vFIvTLe2
p1225
sg128
Vhttp://elyeffe.listen2myradio.com
p1226
sbasg87
I543238291571494912
sbag3
(g4
g5
Ntp1227
Rp1228
(dp1229
g9
I0
sg10
Nsg11
Nsg12
(lp1230
g3
(g14
g5
Ntp1231
Rp1232
(dp1233
g18
VSoca
p1234
sbag3
(g14
g5
Ntp1235
Rp1236
(dp1237
g18
VReggae
p1238
sbag3
(g14
g5
Ntp1239
Rp1240
(dp1241
g18
VDanceHall
p1242
sbag3
(g14
g5
Ntp1243
Rp1244
(dp1245
g18
VTeamKenya
p1246
sbag3
(g14
g5
Ntp1247
Rp1248
(dp1249
g18
VToronto
p1250
sbag3
(g14
g5
Ntp1251
Rp1252
(dp1253
g18
VVancouver
p1254
sbag3
(g14
g5
Ntp1255
Rp1256
(dp1257
g18
VMiami
p1258
sbag3
(g14
g5
Ntp1259
Rp1260
(dp1261
g18
VHouston
p1262
sbasg36
I00
sg37
Nsg38
Nsg39
(lp1263
sg41
Nsg42
Nsg43
Nsg44
VFri Dec 12 02:56:58 +0000 2014
p1264
sg46
Nsg47
I00
sg48
Nsg49
Nsg50
Nsg51
Nsg52
I00
sg53
Nsg54
(lp1265
sg89
Nsg90
V543238051053322241
p1266
sg92
Nsg93
VFULL WEEKEND TUN_UP!! #Soca #Reggae &amp; #DanceHall Right Here------&gt;http://t.co/n8UAOdU5zs     #TeamKenya #Toronto #Vancouver #Miami #Houston
p1267
sg95
I00
sg96
Ven
p1268
sg98
g3
(g56
g5
Ntp1269
Rp1270
(dp1271
g10
VColumbus, Ohio
p1272
sg60
V333333
p1273
sg61
Ven
p1274
sg62
VEastern Time (US & Canada)
p1275
sg63
I2000
sg64
I6231
sg44
VFri Apr 05 03:59:07 +0000 2013
p1276
sg65
I00
sg66
VRadio El Yeffe !!  A free streaming radio station featuring Roots Reggae, Soca and Dancehall!
p1277
sg67
Vhttps://pbs.twimg.com/profile_images/3478581297/b23ef6fb71017c1a1e8cd15074811f78_normal.jpeg
p1278
sg68
I2087
sg69
I548
sg70
I-18000
sg71
Nsg72
I00
sg73
Vhttps://pbs.twimg.com/profile_banners/1328350363/1402544254
p1279
sg74
I00
sg75
I01
sg76
V0084B4
p1280
sg77
I00
sg78
I00
sg79
Vhttp://pbs.twimg.com/profile_background_images/850908636/b73fe1ff80b5e23fc85e6800d2d5d90d.jpeg
p1281
sg80
VRadioYeffe
p1282
sg82
I11
sg83
VRadio Yeffe
p1283
sg85
VDDEEF6
p1284
sg86
Vhttp://t.co/lxenDi3FSt
p1285
sg87
I1328350363
sg88
VC0DEED
p1286
sbsg117
I0
sg118
V<a href="http://twitter.com/download/iphone" rel="nofollow">Twitter for iPhone</a>
p1287
sg120
(lp1288
g3
(g122
g5
Ntp1289
Rp1290
(dp1291
g126
Vhttp://t.co/n8UAOdU5zs
p1292
sg128
Vhttp://elyeffe.listen2myradio.com
p1293
sbasg87
I543238051053322241
sbaa.