(lp0
S'riseof_empire'
p1
a(lp2
ccopy_reg
_reconstructor
p3
(ctwitter
Status
p4
c__builtin__
object
p5
Ntp6
Rp7
(dp8
S'_favorite_count'
p9
I0
sS'_location'
p10
NsS'_withheld_scope'
p11
NsS'hashtags'
p12
(lp13
sS'_truncated'
p14
I00
sS'_retweeted_status'
p15
g3
(g4
g5
Ntp16
Rp17
(dp18
g9
I14
sg10
Nsg11
Nsg12
(lp19
sg14
I00
sg15
NsS'_withheld_copyright'
p20
NsS'media'
p21
(lp22
sS'_place'
p23
NsS'_contributors'
p24
NsS'_current_user_retweet'
p25
NsS'_created_at'
p26
VSun Dec 14 12:44:07 +0000 2014
p27
sS'_scopes'
p28
NsS'_possibly_sensitive'
p29
I01
sS'_in_reply_to_screen_name'
p30
NsS'_coordinates'
p31
NsS'_in_reply_to_user_id'
p32
NsS'_geo'
p33
NsS'_favorited'
p34
I00
sS'_withheld_in_countries'
p35
NsS'user_mentions'
p36
(lp37
sS'_now'
p38
NsS'_id_str'
p39
V544110585256747008
p40
sS'_in_reply_to_status_id'
p41
NsS'_text'
p42
VGrown men racing Barbie Jeeps. Must watch! http://t.co/pNRmVV6lhT - sp
p43
sS'_retweeted'
p44
I00
sS'lang'
p45
Ven
p46
sS'_user'
p47
g3
(ctwitter
User
p48
g5
Ntp49
Rp50
(dp51
g10
V
p52
sS'_profile_text_color'
p53
V838978
p54
sS'_lang'
p55
Ven
p56
sS'_time_zone'
p57
VHawaii
p58
sS'_followers_count'
p59
I79555
sS'_statuses_count'
p60
I94
sg26
VWed Mar 05 18:08:04 +0000 2014
p61
sS'_verified'
p62
I00
sS'_description'
p63
VDon't judge me, you can't handle half of what I've dealt with. There's a reason I do the things I do, there's a reason I am who I am.
p64
sS'_profile_image_url'
p65
Vhttps://pbs.twimg.com/profile_images/542936935010816000/g5Rswoxg_normal.jpeg
p66
sS'_friends_count'
p67
I64743
sS'_favourites_count'
p68
I3
sS'_utc_offset'
p69
I-36000
sS'_status'
p70
NsS'_protected'
p71
I00
sS'_profile_banner_url'
p72
Vhttps://pbs.twimg.com/profile_banners/2374149744/1418281579
p73
sS'_notifications'
p74
I00
sS'_profile_background_tile'
p75
I00
sS'_profile_link_color'
p76
V4F3F38
p77
sS'_geo_enabled'
p78
I01
sS'_contributors_enabled'
p79
I00
sS'_profile_background_image_url'
p80
Vhttp://pbs.twimg.com/profile_background_images/510843676352708608/YC7cB2bK.jpeg
p81
sS'_screen_name'
p82
V00relationship
p83
sS'_listed_count'
p84
I139
sS'_name'
p85
VRelationship
p86
sS'_profile_sidebar_fill_color'
p87
V140E0A
p88
sS'_url'
p89
NsS'_id'
p90
I2374149744
sS'_profile_background_color'
p91
V1C130E
p92
sbsS'_retweet_count'
p93
I50
sS'_source'
p94
V<a href="http://mylikes.com" rel="nofollow">MyLikes Network</a>
p95
sS'urls'
p96
(lp97
g3
(ctwitter
Url
p98
g5
Ntp99
Rp100
(dp101
S'url'
p102
Vhttp://t.co/pNRmVV6lhT
p103
sS'expanded_url'
p104
Vhttp://itsfuntime.org/r/2z46L
p105
sbasg90
I544110585256747008
sbsg20
Nsg21
(lp106
sg23
Nsg24
Nsg25
Nsg26
VSun Dec 14 13:42:24 +0000 2014
p107
sg28
Nsg29
I00
sg30
Nsg31
Nsg32
Nsg33
Nsg34
I00
sg35
Nsg36
(lp108
g3
(g48
g5
Ntp109
Rp110
(dp111
g10
Nsg53
Nsg55
Nsg57
Nsg59
Nsg60
Nsg26
Nsg62
Nsg63
Nsg65
Nsg67
Nsg68
Nsg69
Nsg70
Nsg71
Nsg72
Nsg74
Nsg75
Nsg76
Nsg78
Nsg79
Nsg80
Nsg82
V00relationship
p112
sg84
Nsg85
VRelationship
p113
sg87
Nsg89
Nsg90
I2374149744
sg91
Nsbasg38
Nsg39
V544125252565864448
p114
sg41
Nsg42
VRT @00relationship: Grown men racing Barbie Jeeps. Must watch! http://t.co/pNRmVV6lhT - sp
p115
sg44
I00
sg45
Ven
p116
sg47
g3
(g48
g5
Ntp117
Rp118
(dp119
g10
Vworld wide
p120
sg53
V333333
p121
sg55
Ven
p122
sg57
VNew Delhi
p123
sg59
I47298
sg60
I134
sg26
VTue Sep 16 03:38:38 +0000 2014
p124
sg62
I00
sg63
VTell me who admires you and loves you, and I will tell you who you are.
p125
sg65
Vhttps://pbs.twimg.com/profile_images/529344512535961600/KLEuihMB_normal.jpeg
p126
sg67
I43161
sg68
I3
sg69
I19800
sg70
Nsg71
I00
sg72
Vhttps://pbs.twimg.com/profile_banners/2812377188/1417169052
p127
sg74
I00
sg75
I00
sg76
V0084B4
p128
sg78
I00
sg79
I00
sg80
Vhttp://abs.twimg.com/images/themes/theme1/bg.png
p129
sg82
Vriseof_empire
p130
sg84
I60
sg85
V\u03b3\u03bf\u03c5\u03b7g\u03b9s\u03c4\u03b1\u03b1\u03b7 
p131
sg87
VDDEEF6
p132
sg89
Nsg90
I2812377188
sg91
VC0DEED
p133
sbsg93
I50
sg94
V<a href="http://twitter.com/download/android" rel="nofollow">Twitter for Android</a>
p134
sg96
(lp135
g3
(g98
g5
Ntp136
Rp137
(dp138
g102
Vhttp://t.co/pNRmVV6lhT
p139
sg104
Vhttp://itsfuntime.org/r/2z46L
p140
sbasg90
I544125252565864448
sbag3
(g4
g5
Ntp141
Rp142
(dp143
g9
I0
sg10
Nsg11
Nsg12
(lp144
sg14
I00
sg15
g3
(g4
g5
Ntp145
Rp146
(dp147
g9
I9
sg10
Nsg11
Nsg12
(lp148
sg14
I00
sg15
Nsg20
Nsg21
(lp149
sg23
Nsg24
Nsg25
Nsg26
VSun Dec 14 12:44:07 +0000 2014
p150
sg28
Nsg29
I01
sg30
Nsg31
Nsg32
Nsg33
Nsg34
I00
sg35
Nsg36
(lp151
sg38
Nsg39
V544110587853029376
p152
sg41
Nsg42
VThis woman is a CrossFit power house! http://t.co/Ia2KbqnnMM - sp
p153
sg44
I00
sg45
Ven
p154
sg47
g3
(g48
g5
Ntp155
Rp156
(dp157
g10
g52
sg53
V838978
p158
sg55
Ven
p159
sg57
VHawaii
p160
sg59
I79555
sg60
I94
sg26
VWed Mar 05 18:08:04 +0000 2014
p161
sg62
I00
sg63
VDon't judge me, you can't handle half of what I've dealt with. There's a reason I do the things I do, there's a reason I am who I am.
p162
sg65
Vhttps://pbs.twimg.com/profile_images/542936935010816000/g5Rswoxg_normal.jpeg
p163
sg67
I64743
sg68
I3
sg69
I-36000
sg70
Nsg71
I00
sg72
Vhttps://pbs.twimg.com/profile_banners/2374149744/1418281579
p164
sg74
I00
sg75
I00
sg76
V4F3F38
p165
sg78
I01
sg79
I00
sg80
Vhttp://pbs.twimg.com/profile_background_images/510843676352708608/YC7cB2bK.jpeg
p166
sg82
V00relationship
p167
sg84
I139
sg85
VRelationship
p168
sg87
V140E0A
p169
sg89
Nsg90
I2374149744
sg91
V1C130E
p170
sbsg93
I79
sg94
V<a href="http://mylikes.com" rel="nofollow">MyLikes Network</a>
p171
sg96
(lp172
g3
(g98
g5
Ntp173
Rp174
(dp175
g102
Vhttp://t.co/Ia2KbqnnMM
p176
sg104
Vhttp://itsfuntime.org/r/2z46M
p177
sbasg90
I544110587853029376
sbsg20
Nsg21
(lp178
sg23
Nsg24
Nsg25
Nsg26
VSun Dec 14 13:42:24 +0000 2014
p179
sg28
Nsg29
I00
sg30
Nsg31
Nsg32
Nsg33
Nsg34
I00
sg35
Nsg36
(lp180
g3
(g48
g5
Ntp181
Rp182
(dp183
g10
Nsg53
Nsg55
Nsg57
Nsg59
Nsg60
Nsg26
Nsg62
Nsg63
Nsg65
Nsg67
Nsg68
Nsg69
Nsg70
Nsg71
Nsg72
Nsg74
Nsg75
Nsg76
Nsg78
Nsg79
Nsg80
Nsg82
V00relationship
p184
sg84
Nsg85
VRelationship
p185
sg87
Nsg89
Nsg90
I2374149744
sg91
Nsbasg38
Nsg39
V544125252083523584
p186
sg41
Nsg42
VRT @00relationship: This woman is a CrossFit power house! http://t.co/Ia2KbqnnMM - sp
p187
sg44
I00
sg45
Ven
p188
sg47
g3
(g48
g5
Ntp189
Rp190
(dp191
g10
Vworld wide
p192
sg53
V333333
p193
sg55
Ven
p194
sg57
VNew Delhi
p195
sg59
I47298
sg60
I134
sg26
VTue Sep 16 03:38:38 +0000 2014
p196
sg62
I00
sg63
VTell me who admires you and loves you, and I will tell you who you are.
p197
sg65
Vhttps://pbs.twimg.com/profile_images/529344512535961600/KLEuihMB_normal.jpeg
p198
sg67
I43161
sg68
I3
sg69
I19800
sg70
Nsg71
I00
sg72
Vhttps://pbs.twimg.com/profile_banners/2812377188/1417169052
p199
sg74
I00
sg75
I00
sg76
V0084B4
p200
sg78
I00
sg79
I00
sg80
Vhttp://abs.twimg.com/images/themes/theme1/bg.png
p201
sg82
Vriseof_empire
p202
sg84
I60
sg85
V\u03b3\u03bf\u03c5\u03b7g\u03b9s\u03c4\u03b1\u03b1\u03b7 
p203
sg87
VDDEEF6
p204
sg89
Nsg90
I2812377188
sg91
VC0DEED
p205
sbsg93
I79
sg94
V<a href="http://twitter.com/download/android" rel="nofollow">Twitter for Android</a>
p206
sg96
(lp207
g3
(g98
g5
Ntp208
Rp209
(dp210
g102
Vhttp://t.co/Ia2KbqnnMM
p211
sg104
Vhttp://itsfuntime.org/r/2z46M
p212
sbasg90
I544125252083523584
sbag3
(g4
g5
Ntp213
Rp214
(dp215
g9
I0
sg10
Nsg11
Nsg12
(lp216
sg14
I00
sg15
g3
(g4
g5
Ntp217
Rp218
(dp219
g9
I12
sg10
Nsg11
Nsg12
(lp220
sg14
I00
sg15
Nsg20
Nsg21
(lp221
sg23
Nsg24
Nsg25
Nsg26
VSun Dec 14 12:44:30 +0000 2014
p222
sg28
Nsg29
I01
sg30
Nsg31
Nsg32
Nsg33
Nsg34
I00
sg35
Nsg36
(lp223
sg38
Nsg39
V544110681142734848
p224
sg41
Nsg42
VYou won't believe how strong this grandma is! http://t.co/Q6izwQUmqq - sp
p225
sg44
I00
sg45
Ven
p226
sg47
g3
(g48
g5
Ntp227
Rp228
(dp229
g10
g52
sg53
V838978
p230
sg55
Ven
p231
sg57
VHawaii
p232
sg59
I79555
sg60
I94
sg26
VWed Mar 05 18:08:04 +0000 2014
p233
sg62
I00
sg63
VDon't judge me, you can't handle half of what I've dealt with. There's a reason I do the things I do, there's a reason I am who I am.
p234
sg65
Vhttps://pbs.twimg.com/profile_images/542936935010816000/g5Rswoxg_normal.jpeg
p235
sg67
I64743
sg68
I3
sg69
I-36000
sg70
Nsg71
I00
sg72
Vhttps://pbs.twimg.com/profile_banners/2374149744/1418281579
p236
sg74
I00
sg75
I00
sg76
V4F3F38
p237
sg78
I01
sg79
I00
sg80
Vhttp://pbs.twimg.com/profile_background_images/510843676352708608/YC7cB2bK.jpeg
p238
sg82
V00relationship
p239
sg84
I139
sg85
VRelationship
p240
sg87
V140E0A
p241
sg89
Nsg90
I2374149744
sg91
V1C130E
p242
sbsg93
I85
sg94
V<a href="http://mylikes.com" rel="nofollow">MyLikes Network</a>
p243
sg96
(lp244
g3
(g98
g5
Ntp245
Rp246
(dp247
g102
Vhttp://t.co/Q6izwQUmqq
p248
sg104
Vhttp://itsfuntime.org/r/2z46Z
p249
sbasg90
I544110681142734848
sbsg20
Nsg21
(lp250
sg23
Nsg24
Nsg25
Nsg26
VSun Dec 14 13:42:21 +0000 2014
p251
sg28
Nsg29
I00
sg30
Nsg31
Nsg32
Nsg33
Nsg34
I00
sg35
Nsg36
(lp252
g3
(g48
g5
Ntp253
Rp254
(dp255
g10
Nsg53
Nsg55
Nsg57
Nsg59
Nsg60
Nsg26
Nsg62
Nsg63
Nsg65
Nsg67
Nsg68
Nsg69
Nsg70
Nsg71
Nsg72
Nsg74
Nsg75
Nsg76
Nsg78
Nsg79
Nsg80
Nsg82
V00relationship
p256
sg84
Nsg85
VRelationship
p257
sg87
Nsg89
Nsg90
I2374149744
sg91
Nsbasg38
Nsg39
V544125239810994176
p258
sg41
Nsg42
VRT @00relationship: You won't believe how strong this grandma is! http://t.co/Q6izwQUmqq - sp
p259
sg44
I00
sg45
Ven
p260
sg47
g3
(g48
g5
Ntp261
Rp262
(dp263
g10
Vworld wide
p264
sg53
V333333
p265
sg55
Ven
p266
sg57
VNew Delhi
p267
sg59
I47298
sg60
I134
sg26
VTue Sep 16 03:38:38 +0000 2014
p268
sg62
I00
sg63
VTell me who admires you and loves you, and I will tell you who you are.
p269
sg65
Vhttps://pbs.twimg.com/profile_images/529344512535961600/KLEuihMB_normal.jpeg
p270
sg67
I43161
sg68
I3
sg69
I19800
sg70
Nsg71
I00
sg72
Vhttps://pbs.twimg.com/profile_banners/2812377188/1417169052
p271
sg74
I00
sg75
I00
sg76
V0084B4
p272
sg78
I00
sg79
I00
sg80
Vhttp://abs.twimg.com/images/themes/theme1/bg.png
p273
sg82
Vriseof_empire
p274
sg84
I60
sg85
V\u03b3\u03bf\u03c5\u03b7g\u03b9s\u03c4\u03b1\u03b1\u03b7 
p275
sg87
VDDEEF6
p276
sg89
Nsg90
I2812377188
sg91
VC0DEED
p277
sbsg93
I85
sg94
V<a href="http://twitter.com/download/android" rel="nofollow">Twitter for Android</a>
p278
sg96
(lp279
g3
(g98
g5
Ntp280
Rp281
(dp282
g102
Vhttp://t.co/Q6izwQUmqq
p283
sg104
Vhttp://itsfuntime.org/r/2z46Z
p284
sbasg90
I544125239810994176
sbag3
(g4
g5
Ntp285
Rp286
(dp287
g9
I31
sg10
Nsg11
Nsg12
(lp288
sg14
I00
sg15
Nsg20
Nsg21
(lp289
sg23
Nsg24
Nsg25
Nsg26
VWed Sep 17 07:27:15 +0000 2014
p290
sg28
Nsg29
Nsg30
Nsg31
Nsg32
Nsg33
Nsg34
I00
sg35
Nsg36
(lp291
sg38
Nsg39
V512140712842756096
p292
sg41
Nsg42
VIt\u2019s one thing to fall in love. It\u2019s another to feel someone else fall in love with you, and to feel a responsibility toward that love.
p293
sg44
I00
sg45
Ven
p294
sg47
g3
(g48
g5
Ntp295
Rp296
(dp297
g10
Vworld wide
p298
sg53
V333333
p299
sg55
Ven
p300
sg57
VNew Delhi
p301
sg59
I47298
sg60
I134
sg26
VTue Sep 16 03:38:38 +0000 2014
p302
sg62
I00
sg63
VTell me who admires you and loves you, and I will tell you who you are.
p303
sg65
Vhttps://pbs.twimg.com/profile_images/529344512535961600/KLEuihMB_normal.jpeg
p304
sg67
I43161
sg68
I3
sg69
I19800
sg70
Nsg71
I00
sg72
Vhttps://pbs.twimg.com/profile_banners/2812377188/1417169052
p305
sg74
I00
sg75
I00
sg76
V0084B4
p306
sg78
I00
sg79
I00
sg80
Vhttp://abs.twimg.com/images/themes/theme1/bg.png
p307
sg82
Vriseof_empire
p308
sg84
I60
sg85
V\u03b3\u03bf\u03c5\u03b7g\u03b9s\u03c4\u03b1\u03b1\u03b7 
p309
sg87
VDDEEF6
p310
sg89
Nsg90
I2812377188
sg91
VC0DEED
p311
sbsg93
I23
sg94
V<a href="http://twitter.com" rel="nofollow">Twitter Web Client</a>
p312
sg96
(lp313
sg90
I512140712842756096
sbaa.