(lp0
S'kymecuzulyzu'
p1
a(lp2
ccopy_reg
_reconstructor
p3
(ctwitter
Status
p4
c__builtin__
object
p5
Ntp6
Rp7
(dp8
S'_favorite_count'
p9
I0
sS'_location'
p10
NsS'_withheld_scope'
p11
NsS'hashtags'
p12
(lp13
sS'_truncated'
p14
I00
sS'_retweeted_status'
p15
NsS'_withheld_copyright'
p16
NsS'media'
p17
(lp18
sS'_place'
p19
NsS'_contributors'
p20
NsS'_current_user_retweet'
p21
NsS'_created_at'
p22
VSun Dec 14 19:06:26 +0000 2014
p23
sS'_scopes'
p24
NsS'_possibly_sensitive'
p25
NsS'_in_reply_to_screen_name'
p26
NsS'_coordinates'
p27
NsS'_in_reply_to_user_id'
p28
NsS'_geo'
p29
NsS'_favorited'
p30
I00
sS'_withheld_in_countries'
p31
NsS'user_mentions'
p32
(lp33
sS'_now'
p34
NsS'_id_str'
p35
V544206798333304832
p36
sS'_in_reply_to_status_id'
p37
NsS'_text'
p38
VThe simplification of life is one of the steps to inner peace. In my life, what I want and what I need are exactly the same. -Pilgrims
p39
sS'_retweeted'
p40
I00
sS'lang'
p41
Ven
p42
sS'_user'
p43
g3
(ctwitter
User
p44
g5
Ntp45
Rp46
(dp47
g10
V
p48
sS'_profile_text_color'
p49
V333333
p50
sS'_lang'
p51
Ven
p52
sS'_time_zone'
p53
NsS'_followers_count'
p54
I206
sS'_statuses_count'
p55
I3294
sg22
VMon Oct 14 17:17:40 +0000 2013
p56
sS'_verified'
p57
I00
sS'_description'
p58
VTotal zombie evangelist
p59
sS'_profile_image_url'
p60
Vhttps://pbs.twimg.com/profile_images/530743792500895744/Fxipy244_normal.png
p61
sS'_friends_count'
p62
I166
sS'_favourites_count'
p63
I0
sS'_utc_offset'
p64
NsS'_status'
p65
NsS'_protected'
p66
I00
sS'_profile_banner_url'
p67
NsS'_notifications'
p68
I00
sS'_profile_background_tile'
p69
I00
sS'_profile_link_color'
p70
V0099CC
p71
sS'_geo_enabled'
p72
I00
sS'_contributors_enabled'
p73
I00
sS'_profile_background_image_url'
p74
Vhttp://abs.twimg.com/images/themes/theme19/bg.gif
p75
sS'_screen_name'
p76
Vkymecuzulyzu
p77
sS'_listed_count'
p78
I0
sS'_name'
p79
VSenapati Schmidt
p80
sS'_profile_sidebar_fill_color'
p81
VF6FFD1
p82
sS'_url'
p83
NsS'_id'
p84
I1961070920
sS'_profile_background_color'
p85
VFFF04D
p86
sbsS'_retweet_count'
p87
I0
sS'_source'
p88
V<a href="http://twitter.com" rel="nofollow">Twitter Web Client</a>
p89
sS'urls'
p90
(lp91
sg84
I544206798333304832
sbag3
(g4
g5
Ntp92
Rp93
(dp94
g9
I0
sg10
Nsg11
Nsg12
(lp95
sg14
I00
sg15
Nsg16
Nsg17
(lp96
sg19
Nsg20
Nsg21
Nsg22
VSun Dec 14 19:03:01 +0000 2014
p97
sg24
Nsg25
Nsg26
Nsg27
Nsg28
Nsg29
Nsg30
I00
sg31
Nsg32
(lp98
sg34
Nsg35
V544205941579608065
p99
sg37
Nsg38
VI shit you not, my landlord has watched Flashdance twice in 24hrs .. she's 31!
p100
sg40
I00
sg41
Ven
p101
sg43
g3
(g44
g5
Ntp102
Rp103
(dp104
g10
g48
sg49
V333333
p105
sg51
Ven
p106
sg53
Nsg54
I206
sg55
I3294
sg22
VMon Oct 14 17:17:40 +0000 2013
p107
sg57
I00
sg58
VTotal zombie evangelist
p108
sg60
Vhttps://pbs.twimg.com/profile_images/530743792500895744/Fxipy244_normal.png
p109
sg62
I166
sg63
I0
sg64
Nsg65
Nsg66
I00
sg67
Nsg68
I00
sg69
I00
sg70
V0099CC
p110
sg72
I00
sg73
I00
sg74
Vhttp://abs.twimg.com/images/themes/theme19/bg.gif
p111
sg76
Vkymecuzulyzu
p112
sg78
I0
sg79
VSenapati Schmidt
p113
sg81
VF6FFD1
p114
sg83
Nsg84
I1961070920
sg85
VFFF04D
p115
sbsg87
I0
sg88
V<a href="http://twitter.com" rel="nofollow">Twitter Web Client</a>
p116
sg90
(lp117
sg84
I544205941579608065
sbag3
(g4
g5
Ntp118
Rp119
(dp120
g9
I0
sg10
Nsg11
Nsg12
(lp121
sg14
I00
sg15
Nsg16
Nsg17
(lp122
sg19
Nsg20
Nsg21
Nsg22
VSun Dec 14 18:58:52 +0000 2014
p123
sg24
Nsg25
I00
sg26
Vmoodswxngs
p124
sg27
Nsg28
I85127415
sg29
Nsg30
I00
sg31
Nsg32
(lp125
g3
(g44
g5
Ntp126
Rp127
(dp128
g10
Nsg49
Nsg51
Nsg53
Nsg54
Nsg55
Nsg22
Nsg57
Nsg58
Nsg60
Nsg62
Nsg63
Nsg64
Nsg65
Nsg66
Nsg67
Nsg68
Nsg69
Nsg70
Nsg72
Nsg73
Nsg74
Nsg76
Vmoodswxngs
p129
sg78
Nsg79
Vyas
p130
sg81
Nsg83
Nsg84
I85127415
sg85
Nsbasg34
Nsg35
V544204896556183552
p131
sg37
I544200801288486913
sg38
V@moodswxngs Stop feeling lonely this holiday season click here https://t.co/rsBzmmJUa9
p132
sg40
I00
sg41
Ven
p133
sg43
g3
(g44
g5
Ntp134
Rp135
(dp136
g10
g48
sg49
V333333
p137
sg51
Ven
p138
sg53
Nsg54
I206
sg55
I3294
sg22
VMon Oct 14 17:17:40 +0000 2013
p139
sg57
I00
sg58
VTotal zombie evangelist
p140
sg60
Vhttps://pbs.twimg.com/profile_images/530743792500895744/Fxipy244_normal.png
p141
sg62
I166
sg63
I0
sg64
Nsg65
Nsg66
I00
sg67
Nsg68
I00
sg69
I00
sg70
V0099CC
p142
sg72
I00
sg73
I00
sg74
Vhttp://abs.twimg.com/images/themes/theme19/bg.gif
p143
sg76
Vkymecuzulyzu
p144
sg78
I0
sg79
VSenapati Schmidt
p145
sg81
VF6FFD1
p146
sg83
Nsg84
I1961070920
sg85
VFFF04D
p147
sbsg87
I0
sg88
V<a href="http://twitter.com" rel="nofollow">Twitter Web Client</a>
p148
sg90
(lp149
g3
(ctwitter
Url
p150
g5
Ntp151
Rp152
(dp153
S'url'
p154
Vhttps://t.co/rsBzmmJUa9
p155
sS'expanded_url'
p156
Vhttps://holiday-blues.com/?=vffusszq
p157
sbasg84
I544204896556183552
sbag3
(g4
g5
Ntp158
Rp159
(dp160
g9
I0
sg10
Nsg11
Nsg12
(lp161
sg14
I00
sg15
Nsg16
Nsg17
(lp162
sg19
Nsg20
Nsg21
Nsg22
VSun Dec 14 18:54:29 +0000 2014
p163
sg24
Nsg25
Nsg26
Nsg27
Nsg28
Nsg29
Nsg30
I00
sg31
Nsg32
(lp164
sg34
Nsg35
V544203792502112256
p165
sg37
Nsg38
VLet him that would move the world first move himself. - Socrates
p166
sg40
I00
sg41
Ven
p167
sg43
g3
(g44
g5
Ntp168
Rp169
(dp170
g10
g48
sg49
V333333
p171
sg51
Ven
p172
sg53
Nsg54
I206
sg55
I3294
sg22
VMon Oct 14 17:17:40 +0000 2013
p173
sg57
I00
sg58
VTotal zombie evangelist
p174
sg60
Vhttps://pbs.twimg.com/profile_images/530743792500895744/Fxipy244_normal.png
p175
sg62
I166
sg63
I0
sg64
Nsg65
Nsg66
I00
sg67
Nsg68
I00
sg69
I00
sg70
V0099CC
p176
sg72
I00
sg73
I00
sg74
Vhttp://abs.twimg.com/images/themes/theme19/bg.gif
p177
sg76
Vkymecuzulyzu
p178
sg78
I0
sg79
VSenapati Schmidt
p179
sg81
VF6FFD1
p180
sg83
Nsg84
I1961070920
sg85
VFFF04D
p181
sbsg87
I0
sg88
V<a href="http://twitter.com" rel="nofollow">Twitter Web Client</a>
p182
sg90
(lp183
sg84
I544203792502112256
sbag3
(g4
g5
Ntp184
Rp185
(dp186
g9
I0
sg10
Nsg11
Nsg12
(lp187
sg14
I00
sg15
Nsg16
Nsg17
(lp188
sg19
Nsg20
Nsg21
Nsg22
VSun Dec 14 18:50:07 +0000 2014
p189
sg24
Nsg25
Nsg26
Nsg27
Nsg28
Nsg29
Nsg30
I00
sg31
Nsg32
(lp190
sg34
Nsg35
V544202692612993024
p191
sg37
Nsg38
VUnless a tree has borne blossoms in spring, you will vainly look for fruit on it in autumn. -Hare Charles
p192
sg40
I00
sg41
Ven
p193
sg43
g3
(g44
g5
Ntp194
Rp195
(dp196
g10
g48
sg49
V333333
p197
sg51
Ven
p198
sg53
Nsg54
I206
sg55
I3294
sg22
VMon Oct 14 17:17:40 +0000 2013
p199
sg57
I00
sg58
VTotal zombie evangelist
p200
sg60
Vhttps://pbs.twimg.com/profile_images/530743792500895744/Fxipy244_normal.png
p201
sg62
I166
sg63
I0
sg64
Nsg65
Nsg66
I00
sg67
Nsg68
I00
sg69
I00
sg70
V0099CC
p202
sg72
I00
sg73
I00
sg74
Vhttp://abs.twimg.com/images/themes/theme19/bg.gif
p203
sg76
Vkymecuzulyzu
p204
sg78
I0
sg79
VSenapati Schmidt
p205
sg81
VF6FFD1
p206
sg83
Nsg84
I1961070920
sg85
VFFF04D
p207
sbsg87
I0
sg88
V<a href="http://twitter.com" rel="nofollow">Twitter Web Client</a>
p208
sg90
(lp209
sg84
I544202692612993024
sbag3
(g4
g5
Ntp210
Rp211
(dp212
g9
I0
sg10
Nsg11
Nsg12
(lp213
sg14
I00
sg15
Nsg16
Nsg17
(lp214
sg19
Nsg20
Nsg21
Nsg22
VSun Dec 14 18:46:15 +0000 2014
p215
sg24
Nsg25
Nsg26
Nsg27
Nsg28
Nsg29
Nsg30
I00
sg31
Nsg32
(lp216
sg34
Nsg35
V544201718452330497
p217
sg37
Nsg38
VSir John Harington~ Books give not wisdome where none was before But where some is there reading makes it more.
p218
sg40
I00
sg41
Ven
p219
sg43
g3
(g44
g5
Ntp220
Rp221
(dp222
g10
g48
sg49
V333333
p223
sg51
Ven
p224
sg53
Nsg54
I206
sg55
I3294
sg22
VMon Oct 14 17:17:40 +0000 2013
p225
sg57
I00
sg58
VTotal zombie evangelist
p226
sg60
Vhttps://pbs.twimg.com/profile_images/530743792500895744/Fxipy244_normal.png
p227
sg62
I166
sg63
I0
sg64
Nsg65
Nsg66
I00
sg67
Nsg68
I00
sg69
I00
sg70
V0099CC
p228
sg72
I00
sg73
I00
sg74
Vhttp://abs.twimg.com/images/themes/theme19/bg.gif
p229
sg76
Vkymecuzulyzu
p230
sg78
I0
sg79
VSenapati Schmidt
p231
sg81
VF6FFD1
p232
sg83
Nsg84
I1961070920
sg85
VFFF04D
p233
sbsg87
I0
sg88
V<a href="http://twitter.com" rel="nofollow">Twitter Web Client</a>
p234
sg90
(lp235
sg84
I544201718452330497
sbag3
(g4
g5
Ntp236
Rp237
(dp238
g9
I0
sg10
Nsg11
Nsg12
(lp239
sg14
I00
sg15
Nsg16
Nsg17
(lp240
sg19
Nsg20
Nsg21
Nsg22
VSun Dec 14 18:42:42 +0000 2014
p241
sg24
Nsg25
I00
sg26
VCaleneth
p242
sg27
Nsg28
I1979545130
sg29
Nsg30
I00
sg31
Nsg32
(lp243
g3
(g44
g5
Ntp244
Rp245
(dp246
g10
Nsg49
Nsg51
Nsg53
Nsg54
Nsg55
Nsg22
Nsg57
Nsg58
Nsg60
Nsg62
Nsg63
Nsg64
Nsg65
Nsg66
Nsg67
Nsg68
Nsg69
Nsg70
Nsg72
Nsg73
Nsg74
Nsg76
VCaleneth
p247
sg78
Nsg79
VCaleneth Belegur
p248
sg81
Nsg83
Nsg84
I1979545130
sg85
Nsbasg34
Nsg35
V544200827007561728
p249
sg37
I544196820361306112
sg38
V@Caleneth If you feel isolated during the holidays watch this https://t.co/5BptCgrado
p250
sg40
I00
sg41
Ven
p251
sg43
g3
(g44
g5
Ntp252
Rp253
(dp254
g10
g48
sg49
V333333
p255
sg51
Ven
p256
sg53
Nsg54
I206
sg55
I3294
sg22
VMon Oct 14 17:17:40 +0000 2013
p257
sg57
I00
sg58
VTotal zombie evangelist
p258
sg60
Vhttps://pbs.twimg.com/profile_images/530743792500895744/Fxipy244_normal.png
p259
sg62
I166
sg63
I0
sg64
Nsg65
Nsg66
I00
sg67
Nsg68
I00
sg69
I00
sg70
V0099CC
p260
sg72
I00
sg73
I00
sg74
Vhttp://abs.twimg.com/images/themes/theme19/bg.gif
p261
sg76
Vkymecuzulyzu
p262
sg78
I0
sg79
VSenapati Schmidt
p263
sg81
VF6FFD1
p264
sg83
Nsg84
I1961070920
sg85
VFFF04D
p265
sbsg87
I0
sg88
V<a href="http://twitter.com" rel="nofollow">Twitter Web Client</a>
p266
sg90
(lp267
g3
(g150
g5
Ntp268
Rp269
(dp270
g154
Vhttps://t.co/5BptCgrado
p271
sg156
Vhttps://holiday-blues.com/?=vtcemda
p272
sbasg84
I544200827007561728
sbag3
(g4
g5
Ntp273
Rp274
(dp275
g9
I0
sg10
Nsg11
Nsg12
(lp276
sg14
I00
sg15
Nsg16
Nsg17
(lp277
sg19
Nsg20
Nsg21
Nsg22
VSun Dec 14 18:38:52 +0000 2014
p278
sg24
Nsg25
Nsg26
Nsg27
Nsg28
Nsg29
Nsg30
I00
sg31
Nsg32
(lp279
sg34
Nsg35
V544199861411651586
p280
sg37
Nsg38
VThe tragedy of life doesn't lie in not reaching your goal. The tragedy lies in having no goal to reach. (Benjamin Mays)
p281
sg40
I00
sg41
Ven
p282
sg43
g3
(g44
g5
Ntp283
Rp284
(dp285
g10
g48
sg49
V333333
p286
sg51
Ven
p287
sg53
Nsg54
I206
sg55
I3294
sg22
VMon Oct 14 17:17:40 +0000 2013
p288
sg57
I00
sg58
VTotal zombie evangelist
p289
sg60
Vhttps://pbs.twimg.com/profile_images/530743792500895744/Fxipy244_normal.png
p290
sg62
I166
sg63
I0
sg64
Nsg65
Nsg66
I00
sg67
Nsg68
I00
sg69
I00
sg70
V0099CC
p291
sg72
I00
sg73
I00
sg74
Vhttp://abs.twimg.com/images/themes/theme19/bg.gif
p292
sg76
Vkymecuzulyzu
p293
sg78
I0
sg79
VSenapati Schmidt
p294
sg81
VF6FFD1
p295
sg83
Nsg84
I1961070920
sg85
VFFF04D
p296
sbsg87
I0
sg88
V<a href="http://twitter.com" rel="nofollow">Twitter Web Client</a>
p297
sg90
(lp298
sg84
I544199861411651586
sbag3
(g4
g5
Ntp299
Rp300
(dp301
g9
I0
sg10
Nsg11
Nsg12
(lp302
sg14
I00
sg15
Nsg16
Nsg17
(lp303
sg19
Nsg20
Nsg21
Nsg22
VSun Dec 14 18:34:55 +0000 2014
p304
sg24
Nsg25
Nsg26
Nsg27
Nsg28
Nsg29
Nsg30
I00
sg31
Nsg32
(lp305
sg34
Nsg35
V544198866363379713
p306
sg37
Nsg38
VNever look down on anybody unless you're helping him up. -The Reverend Jesse Jackson, American Civil Rights Leader
p307
sg40
I00
sg41
Ven
p308
sg43
g3
(g44
g5
Ntp309
Rp310
(dp311
g10
g48
sg49
V333333
p312
sg51
Ven
p313
sg53
Nsg54
I206
sg55
I3294
sg22
VMon Oct 14 17:17:40 +0000 2013
p314
sg57
I00
sg58
VTotal zombie evangelist
p315
sg60
Vhttps://pbs.twimg.com/profile_images/530743792500895744/Fxipy244_normal.png
p316
sg62
I166
sg63
I0
sg64
Nsg65
Nsg66
I00
sg67
Nsg68
I00
sg69
I00
sg70
V0099CC
p317
sg72
I00
sg73
I00
sg74
Vhttp://abs.twimg.com/images/themes/theme19/bg.gif
p318
sg76
Vkymecuzulyzu
p319
sg78
I0
sg79
VSenapati Schmidt
p320
sg81
VF6FFD1
p321
sg83
Nsg84
I1961070920
sg85
VFFF04D
p322
sbsg87
I0
sg88
V<a href="http://twitter.com" rel="nofollow">Twitter Web Client</a>
p323
sg90
(lp324
sg84
I544198866363379713
sbag3
(g4
g5
Ntp325
Rp326
(dp327
g9
I0
sg10
Nsg11
Nsg12
(lp328
sg14
I00
sg15
Nsg16
Nsg17
(lp329
sg19
Nsg20
Nsg21
Nsg22
VSun Dec 14 18:31:06 +0000 2014
p330
sg24
Nsg25
Nsg26
Nsg27
Nsg28
Nsg29
Nsg30
I00
sg31
Nsg32
(lp331
sg34
Nsg35
V544197909130924032
p332
sg37
Nsg38
VAlbert Einstein~ The American lives even more for his goals for the future than the European. Life for him is always becoming never being.
p333
sg40
I00
sg41
Ven
p334
sg43
g3
(g44
g5
Ntp335
Rp336
(dp337
g10
g48
sg49
V333333
p338
sg51
Ven
p339
sg53
Nsg54
I206
sg55
I3294
sg22
VMon Oct 14 17:17:40 +0000 2013
p340
sg57
I00
sg58
VTotal zombie evangelist
p341
sg60
Vhttps://pbs.twimg.com/profile_images/530743792500895744/Fxipy244_normal.png
p342
sg62
I166
sg63
I0
sg64
Nsg65
Nsg66
I00
sg67
Nsg68
I00
sg69
I00
sg70
V0099CC
p343
sg72
I00
sg73
I00
sg74
Vhttp://abs.twimg.com/images/themes/theme19/bg.gif
p344
sg76
Vkymecuzulyzu
p345
sg78
I0
sg79
VSenapati Schmidt
p346
sg81
VF6FFD1
p347
sg83
Nsg84
I1961070920
sg85
VFFF04D
p348
sbsg87
I0
sg88
V<a href="http://twitter.com" rel="nofollow">Twitter Web Client</a>
p349
sg90
(lp350
sg84
I544197909130924032
sbag3
(g4
g5
Ntp351
Rp352
(dp353
g9
I0
sg10
Nsg11
Nsg12
(lp354
sg14
I00
sg15
Nsg16
Nsg17
(lp355
sg19
Nsg20
Nsg21
Nsg22
VSun Dec 14 18:26:52 +0000 2014
p356
sg24
Nsg25
I00
sg26
VDylanDoma
p357
sg27
Nsg28
I322931767
sg29
Nsg30
I00
sg31
Nsg32
(lp358
g3
(g44
g5
Ntp359
Rp360
(dp361
g10
Nsg49
Nsg51
Nsg53
Nsg54
Nsg55
Nsg22
Nsg57
Nsg58
Nsg60
Nsg62
Nsg63
Nsg64
Nsg65
Nsg66
Nsg67
Nsg68
Nsg69
Nsg70
Nsg72
Nsg73
Nsg74
Nsg76
VDylanDoma
p362
sg78
Nsg79
VDylan Doma
p363
sg81
Nsg83
Nsg84
I322931767
sg85
Nsbasg34
Nsg35
V544196844008398848
p364
sg37
I544193280813330432
sg38
V@DylanDoma video: how to handle holiday depression https://t.co/ytNBVmXPTs
p365
sg40
I00
sg41
Ven
p366
sg43
g3
(g44
g5
Ntp367
Rp368
(dp369
g10
g48
sg49
V333333
p370
sg51
Ven
p371
sg53
Nsg54
I206
sg55
I3294
sg22
VMon Oct 14 17:17:40 +0000 2013
p372
sg57
I00
sg58
VTotal zombie evangelist
p373
sg60
Vhttps://pbs.twimg.com/profile_images/530743792500895744/Fxipy244_normal.png
p374
sg62
I166
sg63
I0
sg64
Nsg65
Nsg66
I00
sg67
Nsg68
I00
sg69
I00
sg70
V0099CC
p375
sg72
I00
sg73
I00
sg74
Vhttp://abs.twimg.com/images/themes/theme19/bg.gif
p376
sg76
Vkymecuzulyzu
p377
sg78
I0
sg79
VSenapati Schmidt
p378
sg81
VF6FFD1
p379
sg83
Nsg84
I1961070920
sg85
VFFF04D
p380
sbsg87
I0
sg88
V<a href="http://twitter.com" rel="nofollow">Twitter Web Client</a>
p381
sg90
(lp382
g3
(g150
g5
Ntp383
Rp384
(dp385
g154
Vhttps://t.co/ytNBVmXPTs
p386
sg156
Vhttps://holiday-blues.com/?=uynk
p387
sbasg84
I544196844008398848
sbag3
(g4
g5
Ntp388
Rp389
(dp390
g9
I0
sg10
Nsg11
Nsg12
(lp391
sg14
I00
sg15
Nsg16
Nsg17
(lp392
sg19
Nsg20
Nsg21
Nsg22
VSun Dec 14 18:23:21 +0000 2014
p393
sg24
Nsg25
Nsg26
Nsg27
Nsg28
Nsg29
Nsg30
I00
sg31
Nsg32
(lp394
sg34
Nsg35
V544195958070710272
p395
sg37
Nsg38
VHeinrich Heine~ Whenever books are burned men also in the end are burned.
p396
sg40
I00
sg41
Ven
p397
sg43
g3
(g44
g5
Ntp398
Rp399
(dp400
g10
g48
sg49
V333333
p401
sg51
Ven
p402
sg53
Nsg54
I206
sg55
I3294
sg22
VMon Oct 14 17:17:40 +0000 2013
p403
sg57
I00
sg58
VTotal zombie evangelist
p404
sg60
Vhttps://pbs.twimg.com/profile_images/530743792500895744/Fxipy244_normal.png
p405
sg62
I166
sg63
I0
sg64
Nsg65
Nsg66
I00
sg67
Nsg68
I00
sg69
I00
sg70
V0099CC
p406
sg72
I00
sg73
I00
sg74
Vhttp://abs.twimg.com/images/themes/theme19/bg.gif
p407
sg76
Vkymecuzulyzu
p408
sg78
I0
sg79
VSenapati Schmidt
p409
sg81
VF6FFD1
p410
sg83
Nsg84
I1961070920
sg85
VFFF04D
p411
sbsg87
I0
sg88
V<a href="http://twitter.com" rel="nofollow">Twitter Web Client</a>
p412
sg90
(lp413
sg84
I544195958070710272
sbag3
(g4
g5
Ntp414
Rp415
(dp416
g9
I0
sg10
Nsg11
Nsg12
(lp417
sg14
I00
sg15
Nsg16
Nsg17
(lp418
sg19
Nsg20
Nsg21
Nsg22
VSun Dec 14 18:20:15 +0000 2014
p419
sg24
Nsg25
Nsg26
Nsg27
Nsg28
Nsg29
Nsg30
I00
sg31
Nsg32
(lp420
sg34
Nsg35
V544195177015808000
p421
sg37
Nsg38
VDon Hays~ Emotions are your worst enemy in the stock market.
p422
sg40
I00
sg41
Ven
p423
sg43
g3
(g44
g5
Ntp424
Rp425
(dp426
g10
g48
sg49
V333333
p427
sg51
Ven
p428
sg53
Nsg54
I206
sg55
I3294
sg22
VMon Oct 14 17:17:40 +0000 2013
p429
sg57
I00
sg58
VTotal zombie evangelist
p430
sg60
Vhttps://pbs.twimg.com/profile_images/530743792500895744/Fxipy244_normal.png
p431
sg62
I166
sg63
I0
sg64
Nsg65
Nsg66
I00
sg67
Nsg68
I00
sg69
I00
sg70
V0099CC
p432
sg72
I00
sg73
I00
sg74
Vhttp://abs.twimg.com/images/themes/theme19/bg.gif
p433
sg76
Vkymecuzulyzu
p434
sg78
I0
sg79
VSenapati Schmidt
p435
sg81
VF6FFD1
p436
sg83
Nsg84
I1961070920
sg85
VFFF04D
p437
sbsg87
I0
sg88
V<a href="http://twitter.com" rel="nofollow">Twitter Web Client</a>
p438
sg90
(lp439
sg84
I544195177015808000
sbag3
(g4
g5
Ntp440
Rp441
(dp442
g9
I0
sg10
Nsg11
Nsg12
(lp443
sg14
I00
sg15
Nsg16
Nsg17
(lp444
sg19
Nsg20
Nsg21
Nsg22
VSun Dec 14 18:17:09 +0000 2014
p445
sg24
Nsg25
Nsg26
Nsg27
Nsg28
Nsg29
Nsg30
I00
sg31
Nsg32
(lp446
sg34
Nsg35
V544194395935739904
p447
sg37
Nsg38
VWhen you're a winner you're always happy, but if you're happy as a loser you'll always be a loser. -Mark Fidrych
p448
sg40
I00
sg41
Ven
p449
sg43
g3
(g44
g5
Ntp450
Rp451
(dp452
g10
g48
sg49
V333333
p453
sg51
Ven
p454
sg53
Nsg54
I206
sg55
I3294
sg22
VMon Oct 14 17:17:40 +0000 2013
p455
sg57
I00
sg58
VTotal zombie evangelist
p456
sg60
Vhttps://pbs.twimg.com/profile_images/530743792500895744/Fxipy244_normal.png
p457
sg62
I166
sg63
I0
sg64
Nsg65
Nsg66
I00
sg67
Nsg68
I00
sg69
I00
sg70
V0099CC
p458
sg72
I00
sg73
I00
sg74
Vhttp://abs.twimg.com/images/themes/theme19/bg.gif
p459
sg76
Vkymecuzulyzu
p460
sg78
I0
sg79
VSenapati Schmidt
p461
sg81
VF6FFD1
p462
sg83
Nsg84
I1961070920
sg85
VFFF04D
p463
sbsg87
I0
sg88
V<a href="http://twitter.com" rel="nofollow">Twitter Web Client</a>
p464
sg90
(lp465
sg84
I544194395935739904
sbag3
(g4
g5
Ntp466
Rp467
(dp468
g9
I0
sg10
Nsg11
Nsg12
(lp469
sg14
I00
sg15
Nsg16
Nsg17
(lp470
sg19
Nsg20
Nsg21
Nsg22
VSun Dec 14 18:13:18 +0000 2014
p471
sg24
Nsg25
I00
sg26
Vlouwzetlebo
p472
sg27
Nsg28
I2662656237
sg29
Nsg30
I00
sg31
Nsg32
(lp473
g3
(g44
g5
Ntp474
Rp475
(dp476
g10
Nsg49
Nsg51
Nsg53
Nsg54
Nsg55
Nsg22
Nsg57
Nsg58
Nsg60
Nsg62
Nsg63
Nsg64
Nsg65
Nsg66
Nsg67
Nsg68
Nsg69
Nsg70
Nsg72
Nsg73
Nsg74
Nsg76
Vlouwzetlebo
p477
sg78
Nsg79
VLarry Louw
p478
sg81
Nsg83
Nsg84
I2662656237
sg85
Nsbasg34
Nsg35
V544193427676475392
p479
sg37
I544189749880426496
sg38
V@louwzetlebo new video: how to handle holiday depression https://t.co/xNS5nOTsAG
p480
sg40
I00
sg41
Ven
p481
sg43
g3
(g44
g5
Ntp482
Rp483
(dp484
g10
g48
sg49
V333333
p485
sg51
Ven
p486
sg53
Nsg54
I206
sg55
I3294
sg22
VMon Oct 14 17:17:40 +0000 2013
p487
sg57
I00
sg58
VTotal zombie evangelist
p488
sg60
Vhttps://pbs.twimg.com/profile_images/530743792500895744/Fxipy244_normal.png
p489
sg62
I166
sg63
I0
sg64
Nsg65
Nsg66
I00
sg67
Nsg68
I00
sg69
I00
sg70
V0099CC
p490
sg72
I00
sg73
I00
sg74
Vhttp://abs.twimg.com/images/themes/theme19/bg.gif
p491
sg76
Vkymecuzulyzu
p492
sg78
I0
sg79
VSenapati Schmidt
p493
sg81
VF6FFD1
p494
sg83
Nsg84
I1961070920
sg85
VFFF04D
p495
sbsg87
I0
sg88
V<a href="http://twitter.com" rel="nofollow">Twitter Web Client</a>
p496
sg90
(lp497
g3
(g150
g5
Ntp498
Rp499
(dp500
g154
Vhttps://t.co/xNS5nOTsAG
p501
sg156
Vhttps://holiday-blues.com/?=iccnwcltk
p502
sbasg84
I544193427676475392
sbag3
(g4
g5
Ntp503
Rp504
(dp505
g9
I0
sg10
Nsg11
Nsg12
(lp506
sg14
I00
sg15
Nsg16
Nsg17
(lp507
sg19
Nsg20
Nsg21
Nsg22
VSun Dec 14 18:10:03 +0000 2014
p508
sg24
Nsg25
Nsg26
Nsg27
Nsg28
Nsg29
Nsg30
I00
sg31
Nsg32
(lp509
sg34
Nsg35
V544192608751210496
p510
sg37
Nsg38
VUrsula K. LeGuin~ The only thing that makes life possible is permanent intolerable uncertainty not knowing what comes next.
p511
sg40
I00
sg41
Ven
p512
sg43
g3
(g44
g5
Ntp513
Rp514
(dp515
g10
g48
sg49
V333333
p516
sg51
Ven
p517
sg53
Nsg54
I206
sg55
I3294
sg22
VMon Oct 14 17:17:40 +0000 2013
p518
sg57
I00
sg58
VTotal zombie evangelist
p519
sg60
Vhttps://pbs.twimg.com/profile_images/530743792500895744/Fxipy244_normal.png
p520
sg62
I166
sg63
I0
sg64
Nsg65
Nsg66
I00
sg67
Nsg68
I00
sg69
I00
sg70
V0099CC
p521
sg72
I00
sg73
I00
sg74
Vhttp://abs.twimg.com/images/themes/theme19/bg.gif
p522
sg76
Vkymecuzulyzu
p523
sg78
I0
sg79
VSenapati Schmidt
p524
sg81
VF6FFD1
p525
sg83
Nsg84
I1961070920
sg85
VFFF04D
p526
sbsg87
I0
sg88
V<a href="http://twitter.com" rel="nofollow">Twitter Web Client</a>
p527
sg90
(lp528
sg84
I544192608751210496
sbag3
(g4
g5
Ntp529
Rp530
(dp531
g9
I0
sg10
Nsg11
Nsg12
(lp532
sg14
I00
sg15
Nsg16
Nsg17
(lp533
sg19
Nsg20
Nsg21
Nsg22
VSun Dec 14 18:06:18 +0000 2014
p534
sg24
Nsg25
Nsg26
Nsg27
Nsg28
Nsg29
Nsg30
I00
sg31
Nsg32
(lp535
sg34
Nsg35
V544191668283404288
p536
sg37
Nsg38
VNever go to bed angry. Stay up and fight. - J. W. Eagan
p537
sg40
I00
sg41
Ven
p538
sg43
g3
(g44
g5
Ntp539
Rp540
(dp541
g10
g48
sg49
V333333
p542
sg51
Ven
p543
sg53
Nsg54
I206
sg55
I3294
sg22
VMon Oct 14 17:17:40 +0000 2013
p544
sg57
I00
sg58
VTotal zombie evangelist
p545
sg60
Vhttps://pbs.twimg.com/profile_images/530743792500895744/Fxipy244_normal.png
p546
sg62
I166
sg63
I0
sg64
Nsg65
Nsg66
I00
sg67
Nsg68
I00
sg69
I00
sg70
V0099CC
p547
sg72
I00
sg73
I00
sg74
Vhttp://abs.twimg.com/images/themes/theme19/bg.gif
p548
sg76
Vkymecuzulyzu
p549
sg78
I0
sg79
VSenapati Schmidt
p550
sg81
VF6FFD1
p551
sg83
Nsg84
I1961070920
sg85
VFFF04D
p552
sbsg87
I0
sg88
V<a href="http://twitter.com" rel="nofollow">Twitter Web Client</a>
p553
sg90
(lp554
sg84
I544191668283404288
sbag3
(g4
g5
Ntp555
Rp556
(dp557
g9
I0
sg10
Nsg11
Nsg12
(lp558
sg14
I00
sg15
Nsg16
Nsg17
(lp559
sg19
Nsg20
Nsg21
Nsg22
VSun Dec 14 18:02:55 +0000 2014
p560
sg24
Nsg25
Nsg26
Nsg27
Nsg28
Nsg29
Nsg30
I00
sg31
Nsg32
(lp561
sg34
Nsg35
V544190815883362306
p562
sg37
Nsg38
VKitaro Nishida~ If my heart can become pure and simple like that of a child I think there probably can be no greater happiness than this.
p563
sg40
I00
sg41
Ven
p564
sg43
g3
(g44
g5
Ntp565
Rp566
(dp567
g10
g48
sg49
V333333
p568
sg51
Ven
p569
sg53
Nsg54
I206
sg55
I3294
sg22
VMon Oct 14 17:17:40 +0000 2013
p570
sg57
I00
sg58
VTotal zombie evangelist
p571
sg60
Vhttps://pbs.twimg.com/profile_images/530743792500895744/Fxipy244_normal.png
p572
sg62
I166
sg63
I0
sg64
Nsg65
Nsg66
I00
sg67
Nsg68
I00
sg69
I00
sg70
V0099CC
p573
sg72
I00
sg73
I00
sg74
Vhttp://abs.twimg.com/images/themes/theme19/bg.gif
p574
sg76
Vkymecuzulyzu
p575
sg78
I0
sg79
VSenapati Schmidt
p576
sg81
VF6FFD1
p577
sg83
Nsg84
I1961070920
sg85
VFFF04D
p578
sbsg87
I0
sg88
V<a href="http://twitter.com" rel="nofollow">Twitter Web Client</a>
p579
sg90
(lp580
sg84
I544190815883362306
sbag3
(g4
g5
Ntp581
Rp582
(dp583
g9
I0
sg10
Nsg11
Nsg12
(lp584
sg14
I00
sg15
Nsg16
Nsg17
(lp585
sg19
Nsg20
Nsg21
Nsg22
VSun Dec 14 17:58:58 +0000 2014
p586
sg24
Nsg25
I00
sg26
VZalenH
p587
sg27
Nsg28
I549899451
sg29
Nsg30
I00
sg31
Nsg32
(lp588
g3
(g44
g5
Ntp589
Rp590
(dp591
g10
Nsg49
Nsg51
Nsg53
Nsg54
Nsg55
Nsg22
Nsg57
Nsg58
Nsg60
Nsg62
Nsg63
Nsg64
Nsg65
Nsg66
Nsg67
Nsg68
Nsg69
Nsg70
Nsg72
Nsg73
Nsg74
Nsg76
VZalenH
p592
sg78
Nsg79
VZalen
p593
sg81
Nsg83
Nsg84
I549899451
sg85
Nsbasg34
Nsg35
V544189818838601728
p594
sg37
I544186165754990592
sg38
V@ZalenH Can't stand the holidays? Get rid of the holiday blues https://t.co/TAPWki8fC8
p595
sg40
I00
sg41
Ven
p596
sg43
g3
(g44
g5
Ntp597
Rp598
(dp599
g10
g48
sg49
V333333
p600
sg51
Ven
p601
sg53
Nsg54
I206
sg55
I3294
sg22
VMon Oct 14 17:17:40 +0000 2013
p602
sg57
I00
sg58
VTotal zombie evangelist
p603
sg60
Vhttps://pbs.twimg.com/profile_images/530743792500895744/Fxipy244_normal.png
p604
sg62
I166
sg63
I0
sg64
Nsg65
Nsg66
I00
sg67
Nsg68
I00
sg69
I00
sg70
V0099CC
p605
sg72
I00
sg73
I00
sg74
Vhttp://abs.twimg.com/images/themes/theme19/bg.gif
p606
sg76
Vkymecuzulyzu
p607
sg78
I0
sg79
VSenapati Schmidt
p608
sg81
VF6FFD1
p609
sg83
Nsg84
I1961070920
sg85
VFFF04D
p610
sbsg87
I0
sg88
V<a href="http://twitter.com" rel="nofollow">Twitter Web Client</a>
p611
sg90
(lp612
g3
(g150
g5
Ntp613
Rp614
(dp615
g154
Vhttps://t.co/TAPWki8fC8
p616
sg156
Vhttps://holiday-blues.com/?=logzkus
p617
sbasg84
I544189818838601728
sbag3
(g4
g5
Ntp618
Rp619
(dp620
g9
I0
sg10
Nsg11
Nsg12
(lp621
sg14
I00
sg15
Nsg16
Nsg17
(lp622
sg19
Nsg20
Nsg21
Nsg22
VSun Dec 14 17:54:52 +0000 2014
p623
sg24
Nsg25
Nsg26
Nsg27
Nsg28
Nsg29
Nsg30
I00
sg31
Nsg32
(lp624
sg34
Nsg35
V544188790273605632
p625
sg37
Nsg38
VDieting is wishful shrinking.
p626
sg40
I00
sg41
Ven
p627
sg43
g3
(g44
g5
Ntp628
Rp629
(dp630
g10
g48
sg49
V333333
p631
sg51
Ven
p632
sg53
Nsg54
I206
sg55
I3294
sg22
VMon Oct 14 17:17:40 +0000 2013
p633
sg57
I00
sg58
VTotal zombie evangelist
p634
sg60
Vhttps://pbs.twimg.com/profile_images/530743792500895744/Fxipy244_normal.png
p635
sg62
I166
sg63
I0
sg64
Nsg65
Nsg66
I00
sg67
Nsg68
I00
sg69
I00
sg70
V0099CC
p636
sg72
I00
sg73
I00
sg74
Vhttp://abs.twimg.com/images/themes/theme19/bg.gif
p637
sg76
Vkymecuzulyzu
p638
sg78
I0
sg79
VSenapati Schmidt
p639
sg81
VF6FFD1
p640
sg83
Nsg84
I1961070920
sg85
VFFF04D
p641
sbsg87
I0
sg88
V<a href="http://twitter.com" rel="nofollow">Twitter Web Client</a>
p642
sg90
(lp643
sg84
I544188790273605632
sbaa.