(lp0
S'DemeraEthiopian'
p1
a(lp2
ccopy_reg
_reconstructor
p3
(ctwitter
Status
p4
c__builtin__
object
p5
Ntp6
Rp7
(dp8
S'_favorite_count'
p9
I0
sS'_location'
p10
NsS'_withheld_scope'
p11
NsS'hashtags'
p12
(lp13
sS'_truncated'
p14
I00
sS'_retweeted_status'
p15
NsS'_withheld_copyright'
p16
NsS'media'
p17
(lp18
sS'_place'
p19
NsS'_contributors'
p20
NsS'_current_user_retweet'
p21
NsS'_created_at'
p22
VSun Dec 14 13:40:32 +0000 2014
p23
sS'_scopes'
p24
NsS'_possibly_sensitive'
p25
I00
sS'_in_reply_to_screen_name'
p26
NsS'_coordinates'
p27
NsS'_in_reply_to_user_id'
p28
NsS'_geo'
p29
NsS'_favorited'
p30
I00
sS'_withheld_in_countries'
p31
NsS'user_mentions'
p32
(lp33
g3
(ctwitter
User
p34
g5
Ntp35
Rp36
(dp37
g10
NsS'_profile_text_color'
p38
NsS'_lang'
p39
NsS'_time_zone'
p40
NsS'_followers_count'
p41
NsS'_statuses_count'
p42
Nsg22
NsS'_verified'
p43
NsS'_description'
p44
NsS'_profile_image_url'
p45
NsS'_friends_count'
p46
NsS'_favourites_count'
p47
NsS'_utc_offset'
p48
NsS'_status'
p49
NsS'_protected'
p50
NsS'_profile_banner_url'
p51
NsS'_notifications'
p52
NsS'_profile_background_tile'
p53
NsS'_profile_link_color'
p54
NsS'_geo_enabled'
p55
NsS'_contributors_enabled'
p56
NsS'_profile_background_image_url'
p57
NsS'_screen_name'
p58
Vsabinaearthling
p59
sS'_listed_count'
p60
NsS'_name'
p61
VSabina Kajtezovic
p62
sS'_profile_sidebar_fill_color'
p63
NsS'_url'
p64
NsS'_id'
p65
I103475352
sS'_profile_background_color'
p66
Nsbag3
(g34
g5
Ntp67
Rp68
(dp69
g10
Nsg38
Nsg39
Nsg40
Nsg41
Nsg42
Nsg22
Nsg43
Nsg44
Nsg45
Nsg46
Nsg47
Nsg48
Nsg49
Nsg50
Nsg51
Nsg52
Nsg53
Nsg54
Nsg55
Nsg56
Nsg57
Nsg58
VDemeraEthiopian
p70
sg60
Nsg61
VDemera Ethiopian
p71
sg63
Nsg64
Nsg65
I418131069
sg66
NsbasS'_now'
p72
NsS'_id_str'
p73
V544124782674210818
p74
sS'_in_reply_to_status_id'
p75
NsS'_text'
p76
VRT @sabinaearthling: Celebrating 3 years with Justin (@DemeraEthiopian Restaurant in Chicago, IL) http://t.co/4HfkUff6jR Congratulations!
p77
sS'_retweeted'
p78
I00
sS'lang'
p79
Ven
p80
sS'_user'
p81
g3
(g34
g5
Ntp82
Rp83
(dp84
g10
VChicago, IL
p85
sg38
V333333
p86
sg39
Ven
p87
sg40
Nsg41
I94
sg42
I652
sg22
VMon Nov 21 20:04:37 +0000 2011
p88
sg43
I00
sg44
VAt Demera Ethiopian Restaurant we serve traditional Ethiopian cuisine using only the freshest and authentic ingredients.
p89
sg45
Vhttps://pbs.twimg.com/profile_images/497095369713393664/y6QYcpLX_normal.jpeg
p90
sg46
I294
sg47
I10
sg48
Nsg49
Nsg50
I00
sg51
Vhttps://pbs.twimg.com/profile_banners/418131069/1407356761
p91
sg52
I00
sg53
I01
sg54
V0084B4
p92
sg55
I00
sg56
I00
sg57
Vhttp://pbs.twimg.com/profile_background_images/367961815/homebg.jpg
p93
sg58
VDemeraEthiopian
p94
sg60
I8
sg61
VDemera Ethiopian
p95
sg63
VDDEEF6
p96
sg64
Vhttp://t.co/VhMbb1DGhf
p97
sg65
I418131069
sg66
VC0DEED
p98
sbsS'_retweet_count'
p99
I0
sS'_source'
p100
V<a href="https://about.twitter.com/products/tweetdeck" rel="nofollow">TweetDeck</a>
p101
sS'urls'
p102
(lp103
g3
(ctwitter
Url
p104
g5
Ntp105
Rp106
(dp107
S'url'
p108
Vhttp://t.co/4HfkUff6jR
p109
sS'expanded_url'
p110
Vhttp://bit.ly/1sqkdR3
p111
sbasg65
I544124782674210818
sbag3
(g4
g5
Ntp112
Rp113
(dp114
g9
I0
sg10
Nsg11
Nsg12
(lp115
sg14
I00
sg15
g3
(g4
g5
Ntp116
Rp117
(dp118
g9
I0
sg10
Nsg11
Nsg12
(lp119
sg14
I00
sg15
Nsg16
Nsg17
(lp120
sg19
Nsg20
Nsg21
Nsg22
VSun Dec 14 01:57:44 +0000 2014
p121
sg24
Nsg25
I00
sg26
Nsg27
Nsg28
Nsg29
Nsg30
I00
sg31
Nsg32
(lp122
g3
(g34
g5
Ntp123
Rp124
(dp125
g10
Nsg38
Nsg39
Nsg40
Nsg41
Nsg42
Nsg22
Nsg43
Nsg44
Nsg45
Nsg46
Nsg47
Nsg48
Nsg49
Nsg50
Nsg51
Nsg52
Nsg53
Nsg54
Nsg55
Nsg56
Nsg57
Nsg58
VDemeraEthiopian
p126
sg60
Nsg61
VDemera Ethiopian
p127
sg63
Nsg64
Nsg65
I418131069
sg66
Nsbasg72
Nsg73
V543947918571765760
p128
sg75
Nsg76
VYumm'd up! (at @DemeraEthiopian Restaurant in Chicago, IL) https://t.co/cE3sPvba4n
p129
sg78
I00
sg79
Ven
p130
sg81
g3
(g34
g5
Ntp131
Rp132
(dp133
g10
Vchicago il
p134
sg38
V333333
p135
sg39
Ven
p136
sg40
VEastern Time (US & Canada)
p137
sg41
I14
sg42
I155
sg22
VTue Dec 10 01:38:45 +0000 2013
p138
sg43
I00
sg44
V
p139
sg45
Vhttps://pbs.twimg.com/profile_images/412620296596627456/z4ZylpSm_normal.jpeg
p140
sg46
I69
sg47
I11
sg48
I-18000
sg49
Nsg50
I00
sg51
Vhttps://pbs.twimg.com/profile_banners/2238419737/1387211318
p141
sg52
I00
sg53
I00
sg54
V0084B4
p142
sg55
I00
sg56
I00
sg57
Vhttp://abs.twimg.com/images/themes/theme1/bg.png
p143
sg58
VFuglybusteef
p144
sg60
I0
sg61
Vaggb
p145
sg63
VDDEEF6
p146
sg64
Nsg65
I2238419737
sg66
VC0DEED
p147
sbsg99
I1
sg100
V<a href="http://foursquare.com" rel="nofollow">Foursquare</a>
p148
sg102
(lp149
g3
(g104
g5
Ntp150
Rp151
(dp152
g108
Vhttps://t.co/cE3sPvba4n
p153
sg110
Vhttps://www.swarmapp.com/c/danvVrgWZNQ
p154
sbasg65
I543947918571765760
sbsg16
Nsg17
(lp155
sg19
Nsg20
Nsg21
Nsg22
VSun Dec 14 13:40:01 +0000 2014
p156
sg24
Nsg25
I00
sg26
Nsg27
Nsg28
Nsg29
Nsg30
I00
sg31
Nsg32
(lp157
g3
(g34
g5
Ntp158
Rp159
(dp160
g10
Nsg38
Nsg39
Nsg40
Nsg41
Nsg42
Nsg22
Nsg43
Nsg44
Nsg45
Nsg46
Nsg47
Nsg48
Nsg49
Nsg50
Nsg51
Nsg52
Nsg53
Nsg54
Nsg55
Nsg56
Nsg57
Nsg58
VFuglybusteef
p161
sg60
Nsg61
Vaggb
p162
sg63
Nsg64
Nsg65
I2238419737
sg66
Nsbag3
(g34
g5
Ntp163
Rp164
(dp165
g10
Nsg38
Nsg39
Nsg40
Nsg41
Nsg42
Nsg22
Nsg43
Nsg44
Nsg45
Nsg46
Nsg47
Nsg48
Nsg49
Nsg50
Nsg51
Nsg52
Nsg53
Nsg54
Nsg55
Nsg56
Nsg57
Nsg58
VDemeraEthiopian
p166
sg60
Nsg61
VDemera Ethiopian
p167
sg63
Nsg64
Nsg65
I418131069
sg66
Nsbasg72
Nsg73
V544124654525632513
p168
sg75
Nsg76
VRT @Fuglybusteef: Yumm'd up! (at @DemeraEthiopian Restaurant in Chicago, IL) https://t.co/cE3sPvba4n
p169
sg78
I00
sg79
Ven
p170
sg81
g3
(g34
g5
Ntp171
Rp172
(dp173
g10
VChicago, IL
p174
sg38
V333333
p175
sg39
Ven
p176
sg40
Nsg41
I94
sg42
I652
sg22
VMon Nov 21 20:04:37 +0000 2011
p177
sg43
I00
sg44
VAt Demera Ethiopian Restaurant we serve traditional Ethiopian cuisine using only the freshest and authentic ingredients.
p178
sg45
Vhttps://pbs.twimg.com/profile_images/497095369713393664/y6QYcpLX_normal.jpeg
p179
sg46
I294
sg47
I10
sg48
Nsg49
Nsg50
I00
sg51
Vhttps://pbs.twimg.com/profile_banners/418131069/1407356761
p180
sg52
I00
sg53
I01
sg54
V0084B4
p181
sg55
I00
sg56
I00
sg57
Vhttp://pbs.twimg.com/profile_background_images/367961815/homebg.jpg
p182
sg58
VDemeraEthiopian
p183
sg60
I8
sg61
VDemera Ethiopian
p184
sg63
VDDEEF6
p185
sg64
Vhttp://t.co/VhMbb1DGhf
p186
sg65
I418131069
sg66
VC0DEED
p187
sbsg99
I1
sg100
V<a href="https://about.twitter.com/products/tweetdeck" rel="nofollow">TweetDeck</a>
p188
sg102
(lp189
g3
(g104
g5
Ntp190
Rp191
(dp192
g108
Vhttps://t.co/cE3sPvba4n
p193
sg110
Vhttps://www.swarmapp.com/c/danvVrgWZNQ
p194
sbasg65
I544124654525632513
sbag3
(g4
g5
Ntp195
Rp196
(dp197
g9
I0
sg10
Nsg11
Nsg12
(lp198
g3
(ctwitter
Hashtag
p199
g5
Ntp200
Rp201
(dp202
S'text'
p203
Vmenu
p204
sbag3
(g199
g5
Ntp205
Rp206
(dp207
g203
Vweekend
p208
sbasg14
I00
sg15
Nsg16
Nsg17
(lp209
(dp210
Vexpanded_url
p211
Vhttp://twitter.com/DemeraEthiopian/status/543496767099006978/photo/1
p212
sVdisplay_url
p213
Vpic.twitter.com/EVPYJPeuXr
p214
sVurl
p215
Vhttp://t.co/EVPYJPeuXr
p216
sVmedia_url_https
p217
Vhttps://pbs.twimg.com/media/B4rjbhgCMAAV1cB.jpg
p218
sVid_str
p219
V543496767040270336
p220
sVsizes
p221
(dp222
Vsmall
p223
(dp224
Vh
p225
I340
sVresize
p226
Vfit
p227
sVw
p228
I340
ssVlarge
p229
(dp230
Vh
p231
I500
sVresize
p232
Vfit
p233
sVw
p234
I500
ssVmedium
p235
(dp236
Vh
p237
I500
sVresize
p238
Vfit
p239
sVw
p240
I500
ssVthumb
p241
(dp242
Vh
p243
I150
sVresize
p244
Vcrop
p245
sVw
p246
I150
sssVindices
p247
(lp248
I87
aI109
asVtype
p249
Vphoto
p250
sVid
p251
I543496767040270336
sVmedia_url
p252
Vhttp://pbs.twimg.com/media/B4rjbhgCMAAV1cB.jpg
p253
sasg19
Nsg20
Nsg21
Nsg22
VFri Dec 12 20:05:01 +0000 2014
p254
sg24
Nsg25
I00
sg26
Nsg27
Nsg28
Nsg29
Nsg30
I00
sg31
Nsg32
(lp255
sg72
Nsg73
V543496767099006978
p256
sg75
Nsg76
VWhat's on the #menu this #weekend? Click here for ours &gt;&gt; http://t.co/3rZJhJwKJY http://t.co/EVPYJPeuXr
p257
sg78
I00
sg79
Ven
p258
sg81
g3
(g34
g5
Ntp259
Rp260
(dp261
g10
VChicago, IL
p262
sg38
V333333
p263
sg39
Ven
p264
sg40
Nsg41
I94
sg42
I652
sg22
VMon Nov 21 20:04:37 +0000 2011
p265
sg43
I00
sg44
VAt Demera Ethiopian Restaurant we serve traditional Ethiopian cuisine using only the freshest and authentic ingredients.
p266
sg45
Vhttps://pbs.twimg.com/profile_images/497095369713393664/y6QYcpLX_normal.jpeg
p267
sg46
I294
sg47
I10
sg48
Nsg49
Nsg50
I00
sg51
Vhttps://pbs.twimg.com/profile_banners/418131069/1407356761
p268
sg52
I00
sg53
I01
sg54
V0084B4
p269
sg55
I00
sg56
I00
sg57
Vhttp://pbs.twimg.com/profile_background_images/367961815/homebg.jpg
p270
sg58
VDemeraEthiopian
p271
sg60
I8
sg61
VDemera Ethiopian
p272
sg63
VDDEEF6
p273
sg64
Vhttp://t.co/VhMbb1DGhf
p274
sg65
I418131069
sg66
VC0DEED
p275
sbsg99
I0
sg100
V<a href="http://sproutsocial.com" rel="nofollow">Sprout Social</a>
p276
sg102
(lp277
g3
(g104
g5
Ntp278
Rp279
(dp280
g108
Vhttp://t.co/3rZJhJwKJY
p281
sg110
Vhttp://bit.ly/1hHi1cP
p282
sbasg65
I543496767099006978
sbag3
(g4
g5
Ntp283
Rp284
(dp285
g9
I2
sg10
Nsg11
Nsg12
(lp286
g3
(g199
g5
Ntp287
Rp288
(dp289
g203
VRecipe
p290
sbasg14
I00
sg15
Nsg16
Nsg17
(lp291
(dp292
Vexpanded_url
p293
Vhttp://twitter.com/DemeraEthiopian/status/542771993955688450/photo/1
p294
sVdisplay_url
p295
Vpic.twitter.com/ymZJbdcBAR
p296
sVurl
p297
Vhttp://t.co/ymZJbdcBAR
p298
sVmedia_url_https
p299
Vhttps://pbs.twimg.com/media/B4hQQLACUAINZFA.png
p300
sVid_str
p301
V542771993859215362
p302
sVsizes
p303
(dp304
Vlarge
p305
(dp306
Vh
p307
I245
sVresize
p308
Vfit
p309
sVw
p310
I192
ssVsmall
p311
(dp312
Vh
p313
I245
sVresize
p314
Vfit
p315
sVw
p316
I192
ssVmedium
p317
(dp318
Vh
p319
I245
sVresize
p320
Vfit
p321
sVw
p322
I192
ssVthumb
p323
(dp324
Vh
p325
I150
sVresize
p326
Vcrop
p327
sVw
p328
I150
sssVindices
p329
(lp330
I118
aI140
asVtype
p331
Vphoto
p332
sVid
p333
I542771993859215362
sVmedia_url
p334
Vhttp://pbs.twimg.com/media/B4hQQLACUAINZFA.png
p335
sasg19
Nsg20
Nsg21
Nsg22
VWed Dec 10 20:05:02 +0000 2014
p336
sg24
Nsg25
I00
sg26
Nsg27
Nsg28
Nsg29
Nsg30
I00
sg31
Nsg32
(lp337
g3
(g34
g5
Ntp338
Rp339
(dp340
g10
Nsg38
Nsg39
Nsg40
Nsg41
Nsg42
Nsg22
Nsg43
Nsg44
Nsg45
Nsg46
Nsg47
Nsg48
Nsg49
Nsg50
Nsg51
Nsg52
Nsg53
Nsg54
Nsg55
Nsg56
Nsg57
Nsg58
VMarcusCooks
p341
sg60
Nsg61
VMarcus Samuelsson
p342
sg63
Nsg64
Nsg65
I65733755
sg66
Nsbag3
(g34
g5
Ntp343
Rp344
(dp345
g10
Nsg38
Nsg39
Nsg40
Nsg41
Nsg42
Nsg22
Nsg43
Nsg44
Nsg45
Nsg46
Nsg47
Nsg48
Nsg49
Nsg50
Nsg51
Nsg52
Nsg53
Nsg54
Nsg55
Nsg56
Nsg57
Nsg58
Vfoodandwine
p346
sg60
Nsg61
VFood & Wine magazine
p347
sg63
Nsg64
Nsg65
I30278532
sg66
Nsbasg72
Nsg73
V542771993955688450
p348
sg75
Nsg76
VRoasted Butternut Squash w/ Spiced Pecans #Recipe by @MarcusCooks via @foodandwine! Click here http://t.co/WB11M5W8JH http://t.co/ymZJbdcBAR
p349
sg78
I00
sg79
Ven
p350
sg81
g3
(g34
g5
Ntp351
Rp352
(dp353
g10
VChicago, IL
p354
sg38
V333333
p355
sg39
Ven
p356
sg40
Nsg41
I94
sg42
I652
sg22
VMon Nov 21 20:04:37 +0000 2011
p357
sg43
I00
sg44
VAt Demera Ethiopian Restaurant we serve traditional Ethiopian cuisine using only the freshest and authentic ingredients.
p358
sg45
Vhttps://pbs.twimg.com/profile_images/497095369713393664/y6QYcpLX_normal.jpeg
p359
sg46
I294
sg47
I10
sg48
Nsg49
Nsg50
I00
sg51
Vhttps://pbs.twimg.com/profile_banners/418131069/1407356761
p360
sg52
I00
sg53
I01
sg54
V0084B4
p361
sg55
I00
sg56
I00
sg57
Vhttp://pbs.twimg.com/profile_background_images/367961815/homebg.jpg
p362
sg58
VDemeraEthiopian
p363
sg60
I8
sg61
VDemera Ethiopian
p364
sg63
VDDEEF6
p365
sg64
Vhttp://t.co/VhMbb1DGhf
p366
sg65
I418131069
sg66
VC0DEED
p367
sbsg99
I0
sg100
V<a href="http://sproutsocial.com" rel="nofollow">Sprout Social</a>
p368
sg102
(lp369
g3
(g104
g5
Ntp370
Rp371
(dp372
g108
Vhttp://t.co/WB11M5W8JH
p373
sg110
Vhttp://fandw.me/1yyCb5v
p374
sbasg65
I542771993955688450
sbag3
(g4
g5
Ntp375
Rp376
(dp377
g9
I0
sg10
Nsg11
Nsg12
(lp378
sg14
I00
sg15
Nsg16
Nsg17
(lp379
(dp380
Vexpanded_url
p381
Vhttp://twitter.com/DemeraEthiopian/status/542410915904110594/photo/1
p382
sVdisplay_url
p383
Vpic.twitter.com/mukZLFRPt0
p384
sVurl
p385
Vhttp://t.co/mukZLFRPt0
p386
sVmedia_url_https
p387
Vhttps://pbs.twimg.com/media/B4WFop3CYAABV9r.jpg
p388
sVid_str
p389
V541986263645970432
p390
sVsizes
p391
(dp392
Vsmall
p393
(dp394
Vh
p395
I255
sVresize
p396
Vfit
p397
sVw
p398
I340
ssVlarge
p399
(dp400
Vh
p401
I768
sVresize
p402
Vfit
p403
sVw
p404
I1024
ssVmedium
p405
(dp406
Vh
p407
I450
sVresize
p408
Vfit
p409
sVw
p410
I600
ssVthumb
p411
(dp412
Vh
p413
I150
sVresize
p414
Vcrop
p415
sVw
p416
I150
sssVindices
p417
(lp418
I81
aI103
asVtype
p419
Vphoto
p420
sVid
p421
I541986263645970432
sVmedia_url
p422
Vhttp://pbs.twimg.com/media/B4WFop3CYAABV9r.jpg
p423
sasg19
Nsg20
Nsg21
Nsg22
VTue Dec 09 20:10:14 +0000 2014
p424
sg24
Nsg25
I00
sg26
Nsg27
Nsg28
Nsg29
Nsg30
I00
sg31
Nsg32
(lp425
sg72
Nsg73
V542410915904110594
p426
sg75
Nsg76
VClick here to purchase a Demera gift card today! &gt;&gt; http://t.co/A58rTUmx8e http://t.co/mukZLFRPt0
p427
sg78
I00
sg79
Ven
p428
sg81
g3
(g34
g5
Ntp429
Rp430
(dp431
g10
VChicago, IL
p432
sg38
V333333
p433
sg39
Ven
p434
sg40
Nsg41
I94
sg42
I652
sg22
VMon Nov 21 20:04:37 +0000 2011
p435
sg43
I00
sg44
VAt Demera Ethiopian Restaurant we serve traditional Ethiopian cuisine using only the freshest and authentic ingredients.
p436
sg45
Vhttps://pbs.twimg.com/profile_images/497095369713393664/y6QYcpLX_normal.jpeg
p437
sg46
I294
sg47
I10
sg48
Nsg49
Nsg50
I00
sg51
Vhttps://pbs.twimg.com/profile_banners/418131069/1407356761
p438
sg52
I00
sg53
I01
sg54
V0084B4
p439
sg55
I00
sg56
I00
sg57
Vhttp://pbs.twimg.com/profile_background_images/367961815/homebg.jpg
p440
sg58
VDemeraEthiopian
p441
sg60
I8
sg61
VDemera Ethiopian
p442
sg63
VDDEEF6
p443
sg64
Vhttp://t.co/VhMbb1DGhf
p444
sg65
I418131069
sg66
VC0DEED
p445
sbsg99
I0
sg100
V<a href="https://about.twitter.com/products/tweetdeck" rel="nofollow">TweetDeck</a>
p446
sg102
(lp447
g3
(g104
g5
Ntp448
Rp449
(dp450
g108
Vhttp://t.co/A58rTUmx8e
p451
sg110
Vhttp://bit.ly/1xAJhWJ
p452
sbasg65
I542410915904110594
sbag3
(g4
g5
Ntp453
Rp454
(dp455
g9
I0
sg10
Nsg11
Nsg12
(lp456
sg14
I00
sg15
Nsg16
Nsg17
(lp457
(dp458
Vexpanded_url
p459
Vhttp://twitter.com/DemeraEthiopian/status/542047216517394432/photo/1
p460
sVdisplay_url
p461
Vpic.twitter.com/kwPOATbXKr
p462
sVurl
p463
Vhttp://t.co/kwPOATbXKr
p464
sVmedia_url_https
p465
Vhttps://pbs.twimg.com/media/B4W9EkvCYAAIclC.jpg
p466
sVid_str
p467
V542047216446103552
p468
sVsizes
p469
(dp470
Vsmall
p471
(dp472
Vh
p473
I340
sVresize
p474
Vfit
p475
sVw
p476
I340
ssVlarge
p477
(dp478
Vh
p479
I612
sVresize
p480
Vfit
p481
sVw
p482
I612
ssVmedium
p483
(dp484
Vh
p485
I600
sVresize
p486
Vfit
p487
sVw
p488
I600
ssVthumb
p489
(dp490
Vh
p491
I150
sVresize
p492
Vcrop
p493
sVw
p494
I150
sssVindices
p495
(lp496
I47
aI69
asVtype
p497
Vphoto
p498
sVid
p499
I542047216446103552
sVmedia_url
p500
Vhttp://pbs.twimg.com/media/B4W9EkvCYAAIclC.jpg
p501
sasg19
Nsg20
Nsg21
Nsg22
VMon Dec 08 20:05:01 +0000 2014
p502
sg24
Nsg25
I00
sg26
Nsg27
Nsg28
Nsg29
Nsg30
I00
sg31
Nsg32
(lp503
sg72
Nsg73
V542047216517394432
p504
sg75
Nsg76
VWe guarantee our guests love at first bite. ;) http://t.co/kwPOATbXKr
p505
sg78
I00
sg79
Ven
p506
sg81
g3
(g34
g5
Ntp507
Rp508
(dp509
g10
VChicago, IL
p510
sg38
V333333
p511
sg39
Ven
p512
sg40
Nsg41
I94
sg42
I652
sg22
VMon Nov 21 20:04:37 +0000 2011
p513
sg43
I00
sg44
VAt Demera Ethiopian Restaurant we serve traditional Ethiopian cuisine using only the freshest and authentic ingredients.
p514
sg45
Vhttps://pbs.twimg.com/profile_images/497095369713393664/y6QYcpLX_normal.jpeg
p515
sg46
I294
sg47
I10
sg48
Nsg49
Nsg50
I00
sg51
Vhttps://pbs.twimg.com/profile_banners/418131069/1407356761
p516
sg52
I00
sg53
I01
sg54
V0084B4
p517
sg55
I00
sg56
I00
sg57
Vhttp://pbs.twimg.com/profile_background_images/367961815/homebg.jpg
p518
sg58
VDemeraEthiopian
p519
sg60
I8
sg61
VDemera Ethiopian
p520
sg63
VDDEEF6
p521
sg64
Vhttp://t.co/VhMbb1DGhf
p522
sg65
I418131069
sg66
VC0DEED
p523
sbsg99
I0
sg100
V<a href="http://sproutsocial.com" rel="nofollow">Sprout Social</a>
p524
sg102
(lp525
sg65
I542047216517394432
sbag3
(g4
g5
Ntp526
Rp527
(dp528
g9
I0
sg10
Nsg11
Nsg12
(lp529
g3
(g199
g5
Ntp530
Rp531
(dp532
g203
VBerbere
p533
sbag3
(g199
g5
Ntp534
Rp535
(dp536
g203
Vrecipe
p537
sbasg14
I00
sg15
Nsg16
Nsg17
(lp538
sg19
Nsg20
Nsg21
Nsg22
VFri Dec 05 20:05:01 +0000 2014
p539
sg24
Nsg25
I00
sg26
Nsg27
Nsg28
Nsg29
Nsg30
I00
sg31
Nsg32
(lp540
g3
(g34
g5
Ntp541
Rp542
(dp543
g10
Nsg38
Nsg39
Nsg40
Nsg41
Nsg42
Nsg22
Nsg43
Nsg44
Nsg45
Nsg46
Nsg47
Nsg48
Nsg49
Nsg50
Nsg51
Nsg52
Nsg53
Nsg54
Nsg55
Nsg56
Nsg57
Nsg58
VFooddotcom
p544
sg60
Nsg61
VFood.com
p545
sg63
Nsg64
Nsg65
I18913121
sg66
Nsbasg72
Nsg73
V540960052274667520
p546
sg75
Nsg76
V"Spice" up your weekend with this #Berbere #recipe via @Fooddotcom! Click here &gt;&gt; http://t.co/ehI7Z3xK5L
p547
sg78
I00
sg79
Ven
p548
sg81
g3
(g34
g5
Ntp549
Rp550
(dp551
g10
VChicago, IL
p552
sg38
V333333
p553
sg39
Ven
p554
sg40
Nsg41
I94
sg42
I652
sg22
VMon Nov 21 20:04:37 +0000 2011
p555
sg43
I00
sg44
VAt Demera Ethiopian Restaurant we serve traditional Ethiopian cuisine using only the freshest and authentic ingredients.
p556
sg45
Vhttps://pbs.twimg.com/profile_images/497095369713393664/y6QYcpLX_normal.jpeg
p557
sg46
I294
sg47
I10
sg48
Nsg49
Nsg50
I00
sg51
Vhttps://pbs.twimg.com/profile_banners/418131069/1407356761
p558
sg52
I00
sg53
I01
sg54
V0084B4
p559
sg55
I00
sg56
I00
sg57
Vhttp://pbs.twimg.com/profile_background_images/367961815/homebg.jpg
p560
sg58
VDemeraEthiopian
p561
sg60
I8
sg61
VDemera Ethiopian
p562
sg63
VDDEEF6
p563
sg64
Vhttp://t.co/VhMbb1DGhf
p564
sg65
I418131069
sg66
VC0DEED
p565
sbsg99
I0
sg100
V<a href="http://sproutsocial.com" rel="nofollow">Sprout Social</a>
p566
sg102
(lp567
g3
(g104
g5
Ntp568
Rp569
(dp570
g108
Vhttp://t.co/ehI7Z3xK5L
p571
sg110
Vhttp://fd.cm/120ugzG
p572
sbasg65
I540960052274667520
sbag3
(g4
g5
Ntp573
Rp574
(dp575
g9
I0
sg10
Nsg11
Nsg12
(lp576
g3
(g199
g5
Ntp577
Rp578
(dp579
g203
VPopQuiz
p580
sbasg14
I00
sg15
Nsg16
Nsg17
(lp581
(dp582
Vexpanded_url
p583
Vhttp://twitter.com/DemeraEthiopian/status/540158632344551424/photo/1
p584
sVdisplay_url
p585
Vpic.twitter.com/i7n5U0T4Hj
p586
sVurl
p587
Vhttp://t.co/i7n5U0T4Hj
p588
sVmedia_url_https
p589
Vhttps://pbs.twimg.com/media/B38HagYCUAAounF.jpg
p590
sVid_str
p591
V540158632256491520
p592
sVsizes
p593
(dp594
Vlarge
p595
(dp596
Vh
p597
I295
sVresize
p598
Vfit
p599
sVw
p600
I431
ssVsmall
p601
(dp602
Vh
p603
I232
sVresize
p604
Vfit
p605
sVw
p606
I340
ssVmedium
p607
(dp608
Vh
p609
I295
sVresize
p610
Vfit
p611
sVw
p612
I431
ssVthumb
p613
(dp614
Vh
p615
I150
sVresize
p616
Vcrop
p617
sVw
p618
I150
sssVindices
p619
(lp620
I101
aI123
asVtype
p621
Vphoto
p622
sVid
p623
I540158632256491520
sVmedia_url
p624
Vhttp://pbs.twimg.com/media/B38HagYCUAAounF.jpg
p625
sasg19
Nsg20
Nsg21
Nsg22
VWed Dec 03 15:00:28 +0000 2014
p626
sg24
Nsg25
I00
sg26
Nsg27
Nsg28
Nsg29
Nsg30
I00
sg31
Nsg32
(lp627
sg72
Nsg73
V540158632344551424
p628
sg75
Nsg76
V#PopQuiz! \u000a\u000aTolo-Tolo Wot is the country\u2019s first line of frozen Ethiopian food. What does tolo mean? http://t.co/i7n5U0T4Hj
p629
sg78
I00
sg79
Ven
p630
sg81
g3
(g34
g5
Ntp631
Rp632
(dp633
g10
VChicago, IL
p634
sg38
V333333
p635
sg39
Ven
p636
sg40
Nsg41
I94
sg42
I652
sg22
VMon Nov 21 20:04:37 +0000 2011
p637
sg43
I00
sg44
VAt Demera Ethiopian Restaurant we serve traditional Ethiopian cuisine using only the freshest and authentic ingredients.
p638
sg45
Vhttps://pbs.twimg.com/profile_images/497095369713393664/y6QYcpLX_normal.jpeg
p639
sg46
I294
sg47
I10
sg48
Nsg49
Nsg50
I00
sg51
Vhttps://pbs.twimg.com/profile_banners/418131069/1407356761
p640
sg52
I00
sg53
I01
sg54
V0084B4
p641
sg55
I00
sg56
I00
sg57
Vhttp://pbs.twimg.com/profile_background_images/367961815/homebg.jpg
p642
sg58
VDemeraEthiopian
p643
sg60
I8
sg61
VDemera Ethiopian
p644
sg63
VDDEEF6
p645
sg64
Vhttp://t.co/VhMbb1DGhf
p646
sg65
I418131069
sg66
VC0DEED
p647
sbsg99
I1
sg100
V<a href="http://sproutsocial.com" rel="nofollow">Sprout Social</a>
p648
sg102
(lp649
sg65
I540158632344551424
sbag3
(g4
g5
Ntp650
Rp651
(dp652
g9
I0
sg10
Nsg11
Nsg12
(lp653
g3
(g199
g5
Ntp654
Rp655
(dp656
g203
VThanksgiving
p657
sbag3
(g199
g5
Ntp658
Rp659
(dp660
g203
VFoodie
p661
sbasg14
I00
sg15
Nsg16
Nsg17
(lp662
sg19
Nsg20
Nsg21
Nsg22
VTue Dec 02 20:05:01 +0000 2014
p663
sg24
Nsg25
I00
sg26
Nsg27
Nsg28
Nsg29
Nsg30
I00
sg31
Nsg32
(lp664
g3
(g34
g5
Ntp665
Rp666
(dp667
g10
Nsg38
Nsg39
Nsg40
Nsg41
Nsg42
Nsg22
Nsg43
Nsg44
Nsg45
Nsg46
Nsg47
Nsg48
Nsg49
Nsg50
Nsg51
Nsg52
Nsg53
Nsg54
Nsg55
Nsg56
Nsg57
Nsg58
VMarcusCooks
p668
sg60
Nsg61
VMarcus Samuelsson
p669
sg63
Nsg64
Nsg65
I65733755
sg66
Nsbasg72
Nsg73
V539872887038283777
p670
sg75
Nsg76
VNeeding a detox after the long #Thanksgiving binge? Click here &gt;&gt; http://t.co/ne8Go1E9Lr @MarcusCooks can help! #Foodie
p671
sg78
I00
sg79
Ven
p672
sg81
g3
(g34
g5
Ntp673
Rp674
(dp675
g10
VChicago, IL
p676
sg38
V333333
p677
sg39
Ven
p678
sg40
Nsg41
I94
sg42
I652
sg22
VMon Nov 21 20:04:37 +0000 2011
p679
sg43
I00
sg44
VAt Demera Ethiopian Restaurant we serve traditional Ethiopian cuisine using only the freshest and authentic ingredients.
p680
sg45
Vhttps://pbs.twimg.com/profile_images/497095369713393664/y6QYcpLX_normal.jpeg
p681
sg46
I294
sg47
I10
sg48
Nsg49
Nsg50
I00
sg51
Vhttps://pbs.twimg.com/profile_banners/418131069/1407356761
p682
sg52
I00
sg53
I01
sg54
V0084B4
p683
sg55
I00
sg56
I00
sg57
Vhttp://pbs.twimg.com/profile_background_images/367961815/homebg.jpg
p684
sg58
VDemeraEthiopian
p685
sg60
I8
sg61
VDemera Ethiopian
p686
sg63
VDDEEF6
p687
sg64
Vhttp://t.co/VhMbb1DGhf
p688
sg65
I418131069
sg66
VC0DEED
p689
sbsg99
I0
sg100
V<a href="http://sproutsocial.com" rel="nofollow">Sprout Social</a>
p690
sg102
(lp691
g3
(g104
g5
Ntp692
Rp693
(dp694
g108
Vhttp://t.co/ne8Go1E9Lr
p695
sg110
Vhttp://bit.ly/1vLFQcH
p696
sbasg65
I539872887038283777
sbag3
(g4
g5
Ntp697
Rp698
(dp699
g9
I0
sg10
Nsg11
Nsg12
(lp700
g3
(g199
g5
Ntp701
Rp702
(dp703
g203
VSmallBizSat
p704
sbag3
(g199
g5
Ntp705
Rp706
(dp707
g203
VShopSmall
p708
sbasg14
I00
sg15
Nsg16
Nsg17
(lp709
(dp710
Vexpanded_url
p711
Vhttp://twitter.com/DemeraEthiopian/status/538784507722084353/photo/1
p712
sVdisplay_url
p713
Vpic.twitter.com/vkV2y0fZMV
p714
sVurl
p715
Vhttp://t.co/vkV2y0fZMV
p716
sVmedia_url_https
p717
Vhttps://pbs.twimg.com/media/B3olp7QCcAA30ds.png
p718
sVid_str
p719
V538784507634020352
p720
sVsizes
p721
(dp722
Vlarge
p723
(dp724
Vh
p725
I556
sVresize
p726
Vfit
p727
sVw
p728
I442
ssVsmall
p729
(dp730
Vh
p731
I427
sVresize
p732
Vfit
p733
sVw
p734
I340
ssVmedium
p735
(dp736
Vh
p737
I556
sVresize
p738
Vfit
p739
sVw
p740
I442
ssVthumb
p741
(dp742
Vh
p743
I150
sVresize
p744
Vcrop
p745
sVw
p746
I150
sssVindices
p747
(lp748
I48
aI70
asVtype
p749
Vphoto
p750
sVid
p751
I538784507634020352
sVmedia_url
p752
Vhttp://pbs.twimg.com/media/B3olp7QCcAA30ds.png
p753
sasg19
Nsg20
Nsg21
Nsg22
VSat Nov 29 20:00:11 +0000 2014
p754
sg24
Nsg25
I00
sg26
Nsg27
Nsg28
Nsg29
Nsg30
I00
sg31
Nsg32
(lp755
sg72
Nsg73
V538784507722084353
p756
sg75
Nsg76
VWe hope to see you for #SmallBizSat! #ShopSmall http://t.co/vkV2y0fZMV
p757
sg78
I00
sg79
Ven
p758
sg81
g3
(g34
g5
Ntp759
Rp760
(dp761
g10
VChicago, IL
p762
sg38
V333333
p763
sg39
Ven
p764
sg40
Nsg41
I94
sg42
I652
sg22
VMon Nov 21 20:04:37 +0000 2011
p765
sg43
I00
sg44
VAt Demera Ethiopian Restaurant we serve traditional Ethiopian cuisine using only the freshest and authentic ingredients.
p766
sg45
Vhttps://pbs.twimg.com/profile_images/497095369713393664/y6QYcpLX_normal.jpeg
p767
sg46
I294
sg47
I10
sg48
Nsg49
Nsg50
I00
sg51
Vhttps://pbs.twimg.com/profile_banners/418131069/1407356761
p768
sg52
I00
sg53
I01
sg54
V0084B4
p769
sg55
I00
sg56
I00
sg57
Vhttp://pbs.twimg.com/profile_background_images/367961815/homebg.jpg
p770
sg58
VDemeraEthiopian
p771
sg60
I8
sg61
VDemera Ethiopian
p772
sg63
VDDEEF6
p773
sg64
Vhttp://t.co/VhMbb1DGhf
p774
sg65
I418131069
sg66
VC0DEED
p775
sbsg99
I0
sg100
V<a href="http://sproutsocial.com" rel="nofollow">Sprout Social</a>
p776
sg102
(lp777
sg65
I538784507722084353
sbag3
(g4
g5
Ntp778
Rp779
(dp780
g9
I0
sg10
Nsg11
Nsg12
(lp781
g3
(g199
g5
Ntp782
Rp783
(dp784
g203
VSmallBizSat
p785
sbasg14
I00
sg15
Nsg16
Nsg17
(lp786
(dp787
Vexpanded_url
p788
Vhttp://twitter.com/DemeraEthiopian/status/538754281428353024/photo/1
p789
sVdisplay_url
p790
Vpic.twitter.com/wScM9Jb7sA
p791
sVurl
p792
Vhttp://t.co/wScM9Jb7sA
p793
sVmedia_url_https
p794
Vhttps://pbs.twimg.com/media/B3oKKhQCEAArT-6.png
p795
sVid_str
p796
V538754281264779264
p797
sVsizes
p798
(dp799
Vsmall
p800
(dp801
Vh
p802
I211
sVresize
p803
Vfit
p804
sVw
p805
I340
ssVlarge
p806
(dp807
Vh
p808
I637
sVresize
p809
Vfit
p810
sVw
p811
I1024
ssVmedium
p812
(dp813
Vh
p814
I373
sVresize
p815
Vfit
p816
sVw
p817
I600
ssVthumb
p818
(dp819
Vh
p820
I150
sVresize
p821
Vcrop
p822
sVw
p823
I150
sssVindices
p824
(lp825
I39
aI61
asVtype
p826
Vphoto
p827
sVid
p828
I538754281264779264
sVmedia_url
p829
Vhttp://pbs.twimg.com/media/B3oKKhQCEAArT-6.png
p830
sasg19
Nsg20
Nsg21
Nsg22
VSat Nov 29 18:00:04 +0000 2014
p831
sg24
Nsg25
I00
sg26
Nsg27
Nsg28
Nsg29
Nsg30
I00
sg31
Nsg32
(lp832
sg72
Nsg73
V538754281428353024
p833
sg75
Nsg76
VStop by Demera 11/29 for #SmallBizSat! http://t.co/wScM9Jb7sA
p834
sg78
I00
sg79
Ven
p835
sg81
g3
(g34
g5
Ntp836
Rp837
(dp838
g10
VChicago, IL
p839
sg38
V333333
p840
sg39
Ven
p841
sg40
Nsg41
I94
sg42
I652
sg22
VMon Nov 21 20:04:37 +0000 2011
p842
sg43
I00
sg44
VAt Demera Ethiopian Restaurant we serve traditional Ethiopian cuisine using only the freshest and authentic ingredients.
p843
sg45
Vhttps://pbs.twimg.com/profile_images/497095369713393664/y6QYcpLX_normal.jpeg
p844
sg46
I294
sg47
I10
sg48
Nsg49
Nsg50
I00
sg51
Vhttps://pbs.twimg.com/profile_banners/418131069/1407356761
p845
sg52
I00
sg53
I01
sg54
V0084B4
p846
sg55
I00
sg56
I00
sg57
Vhttp://pbs.twimg.com/profile_background_images/367961815/homebg.jpg
p847
sg58
VDemeraEthiopian
p848
sg60
I8
sg61
VDemera Ethiopian
p849
sg63
VDDEEF6
p850
sg64
Vhttp://t.co/VhMbb1DGhf
p851
sg65
I418131069
sg66
VC0DEED
p852
sbsg99
I0
sg100
V<a href="http://sproutsocial.com" rel="nofollow">Sprout Social</a>
p853
sg102
(lp854
sg65
I538754281428353024
sbag3
(g4
g5
Ntp855
Rp856
(dp857
g9
I0
sg10
Nsg11
Nsg12
(lp858
g3
(g199
g5
Ntp859
Rp860
(dp861
g203
VShopSmall
p862
sbasg14
I00
sg15
g3
(g4
g5
Ntp863
Rp864
(dp865
g9
I213
sg10
Nsg11
Nsg12
(lp866
g3
(g199
g5
Ntp867
Rp868
(dp869
g203
VShopSmall
p870
sbasg14
I00
sg15
Nsg16
Nsg17
(lp871
(dp872
Vexpanded_url
p873
Vhttp://twitter.com/ShopSmall/status/538316405867683840/photo/1
p874
sVdisplay_url
p875
Vpic.twitter.com/z360rcWCDw
p876
sVurl
p877
Vhttp://t.co/z360rcWCDw
p878
sVmedia_url_https
p879
Vhttps://pbs.twimg.com/media/B3YSCPFCcAA7ykd.jpg
p880
sVid_str
p881
V537637035134054400
p882
sVsizes
p883
(dp884
Vlarge
p885
(dp886
Vh
p887
I512
sVresize
p888
Vfit
p889
sVw
p890
I1024
ssVsmall
p891
(dp892
Vh
p893
I170
sVresize
p894
Vfit
p895
sVw
p896
I340
ssVmedium
p897
(dp898
Vh
p899
I300
sVresize
p900
Vfit
p901
sVw
p902
I600
ssVthumb
p903
(dp904
Vh
p905
I150
sVresize
p906
Vcrop
p907
sVw
p908
I150
sssVindices
p909
(lp910
I77
aI99
asVtype
p911
Vphoto
p912
sVid
p913
I537637035134054400
sVmedia_url
p914
Vhttp://pbs.twimg.com/media/B3YSCPFCcAA7ykd.jpg
p915
sasg19
Nsg20
Nsg21
Nsg22
VFri Nov 28 13:00:07 +0000 2014
p916
sg24
(dp917
Vfollowers
p918
I00
ssg25
I00
sg26
Nsg27
Nsg28
Nsg29
Nsg30
I00
sg31
Nsg32
(lp919
sg72
Nsg73
V538316405867683840
p920
sg75
Nsg76
VRT if you know where you\u2019ll #ShopSmall this Saturday! http://t.co/AAL80jEeGI http://t.co/z360rcWCDw
p921
sg78
I00
sg79
Ven
p922
sg81
g3
(g34
g5
Ntp923
Rp924
(dp925
g10
VCommunity Guidelines
p926
sg38
V333333
p927
sg39
Ven
p928
sg40
VEastern Time (US & Canada)
p929
sg41
I43236
sg42
I3123
sg22
VFri Nov 04 08:59:18 +0000 2011
p930
sg43
I01
sg44
VWelcome to the Official Shop Small Twitter Page from @AmericanExpress. Follow along for the latest updates on Small Business Saturday. http://t.co/iz1WF8y4nH
p931
sg45
Vhttps://pbs.twimg.com/profile_images/520582570480640000/V7kuLdAd_normal.jpeg
p932
sg46
I123
sg47
I915
sg48
I-18000
sg49
Nsg50
I00
sg51
Nsg52
I00
sg53
I00
sg54
V002966
p933
sg55
I00
sg56
I00
sg57
Vhttp://pbs.twimg.com/profile_background_images/520676376790061056/4WqvaCa0.png
p934
sg58
VShopSmall
p935
sg60
I388
sg61
VShop Small
p936
sg63
VDDEEF6
p937
sg64
Vhttp://t.co/TEcHs3Bx6T
p938
sg65
I404700013
sg66
VC0DEED
p939
sbsg99
I388
sg100
V<a href="https://ads.twitter.com" rel="nofollow">Twitter Ads</a>
p940
sg102
(lp941
g3
(g104
g5
Ntp942
Rp943
(dp944
g108
Vhttp://t.co/AAL80jEeGI
p945
sg110
Vhttp://amex.co/1xzhxk5
p946
sbasg65
I538316405867683840
sbsg16
Nsg17
(lp947
(dp948
Vsource_user_id
p949
I404700013
sVsource_status_id_str
p950
V538316405867683840
p951
sVexpanded_url
p952
Vhttp://twitter.com/ShopSmall/status/538316405867683840/photo/1
p953
sVdisplay_url
p954
Vpic.twitter.com/z360rcWCDw
p955
sVurl
p956
Vhttp://t.co/z360rcWCDw
p957
sVmedia_url_https
p958
Vhttps://pbs.twimg.com/media/B3YSCPFCcAA7ykd.jpg
p959
sVsource_user_id_str
p960
V404700013
p961
sVsource_status_id
p962
I538316405867683840
sVid_str
p963
V537637035134054400
p964
sVsizes
p965
(dp966
Vlarge
p967
(dp968
Vh
p969
I512
sVresize
p970
Vfit
p971
sVw
p972
I1024
ssVsmall
p973
(dp974
Vh
p975
I170
sVresize
p976
Vfit
p977
sVw
p978
I340
ssVmedium
p979
(dp980
Vh
p981
I300
sVresize
p982
Vfit
p983
sVw
p984
I600
ssVthumb
p985
(dp986
Vh
p987
I150
sVresize
p988
Vcrop
p989
sVw
p990
I150
sssVindices
p991
(lp992
I92
aI114
asVtype
p993
Vphoto
p994
sVid
p995
I537637035134054400
sVmedia_url
p996
Vhttp://pbs.twimg.com/media/B3YSCPFCcAA7ykd.jpg
p997
sasg19
Nsg20
Nsg21
Nsg22
VSat Nov 29 16:08:16 +0000 2014
p998
sg24
Nsg25
I00
sg26
Nsg27
Nsg28
Nsg29
Nsg30
I00
sg31
Nsg32
(lp999
g3
(g34
g5
Ntp1000
Rp1001
(dp1002
g10
Nsg38
Nsg39
Nsg40
Nsg41
Nsg42
Nsg22
Nsg43
Nsg44
Nsg45
Nsg46
Nsg47
Nsg48
Nsg49
Nsg50
Nsg51
Nsg52
Nsg53
Nsg54
Nsg55
Nsg56
Nsg57
Nsg58
VShopSmall
p1003
sg60
Nsg61
VShop Small
p1004
sg63
Nsg64
Nsg65
I404700013
sg66
Nsbasg72
Nsg73
V538726144368189440
p1005
sg75
Nsg76
VRT @ShopSmall: RT if you know where you\u2019ll #ShopSmall this Saturday! http://t.co/AAL80jEeGI http://t.co/z360rcWCDw
p1006
sg78
I00
sg79
Ven
p1007
sg81
g3
(g34
g5
Ntp1008
Rp1009
(dp1010
g10
VChicago, IL
p1011
sg38
V333333
p1012
sg39
Ven
p1013
sg40
Nsg41
I94
sg42
I652
sg22
VMon Nov 21 20:04:37 +0000 2011
p1014
sg43
I00
sg44
VAt Demera Ethiopian Restaurant we serve traditional Ethiopian cuisine using only the freshest and authentic ingredients.
p1015
sg45
Vhttps://pbs.twimg.com/profile_images/497095369713393664/y6QYcpLX_normal.jpeg
p1016
sg46
I294
sg47
I10
sg48
Nsg49
Nsg50
I00
sg51
Vhttps://pbs.twimg.com/profile_banners/418131069/1407356761
p1017
sg52
I00
sg53
I01
sg54
V0084B4
p1018
sg55
I00
sg56
I00
sg57
Vhttp://pbs.twimg.com/profile_background_images/367961815/homebg.jpg
p1019
sg58
VDemeraEthiopian
p1020
sg60
I8
sg61
VDemera Ethiopian
p1021
sg63
VDDEEF6
p1022
sg64
Vhttp://t.co/VhMbb1DGhf
p1023
sg65
I418131069
sg66
VC0DEED
p1024
sbsg99
I388
sg100
V<a href="https://about.twitter.com/products/tweetdeck" rel="nofollow">TweetDeck</a>
p1025
sg102
(lp1026
g3
(g104
g5
Ntp1027
Rp1028
(dp1029
g108
Vhttp://t.co/AAL80jEeGI
p1030
sg110
Vhttp://amex.co/1xzhxk5
p1031
sbasg65
I538726144368189440
sbag3
(g4
g5
Ntp1032
Rp1033
(dp1034
g9
I0
sg10
Nsg11
Nsg12
(lp1035
g3
(g199
g5
Ntp1036
Rp1037
(dp1038
g203
VSmallBizSat
p1039
sbasg14
I00
sg15
Nsg16
Nsg17
(lp1040
(dp1041
Vexpanded_url
p1042
Vhttp://twitter.com/DemeraEthiopian/status/538391906120527872/photo/1
p1043
sVdisplay_url
p1044
Vpic.twitter.com/stcwvWY9pK
p1045
sVurl
p1046
Vhttp://t.co/stcwvWY9pK
p1047
sVmedia_url_https
p1048
Vhttps://pbs.twimg.com/media/B3jAlftCcAAgZUP.png
p1049
sVid_str
p1050
V538391905868869632
p1051
sVsizes
p1052
(dp1053
Vsmall
p1054
(dp1055
Vh
p1056
I211
sVresize
p1057
Vfit
p1058
sVw
p1059
I340
ssVlarge
p1060
(dp1061
Vh
p1062
I637
sVresize
p1063
Vfit
p1064
sVw
p1065
I1024
ssVmedium
p1066
(dp1067
Vh
p1068
I373
sVresize
p1069
Vfit
p1070
sVw
p1071
I600
ssVthumb
p1072
(dp1073
Vh
p1074
I150
sVresize
p1075
Vcrop
p1076
sVw
p1077
I150
sssVindices
p1078
(lp1079
I39
aI61
asVtype
p1080
Vphoto
p1081
sVid
p1082
I538391905868869632
sVmedia_url
p1083
Vhttp://pbs.twimg.com/media/B3jAlftCcAAgZUP.png
p1084
sasg19
Nsg20
Nsg21
Nsg22
VFri Nov 28 18:00:07 +0000 2014
p1085
sg24
Nsg25
I00
sg26
Nsg27
Nsg28
Nsg29
Nsg30
I00
sg31
Nsg32
(lp1086
sg72
Nsg73
V538391906120527872
p1087
sg75
Nsg76
VStop by Demera 11/29 for #SmallBizSat! http://t.co/stcwvWY9pK
p1088
sg78
I00
sg79
Ven
p1089
sg81
g3
(g34
g5
Ntp1090
Rp1091
(dp1092
g10
VChicago, IL
p1093
sg38
V333333
p1094
sg39
Ven
p1095
sg40
Nsg41
I94
sg42
I652
sg22
VMon Nov 21 20:04:37 +0000 2011
p1096
sg43
I00
sg44
VAt Demera Ethiopian Restaurant we serve traditional Ethiopian cuisine using only the freshest and authentic ingredients.
p1097
sg45
Vhttps://pbs.twimg.com/profile_images/497095369713393664/y6QYcpLX_normal.jpeg
p1098
sg46
I294
sg47
I10
sg48
Nsg49
Nsg50
I00
sg51
Vhttps://pbs.twimg.com/profile_banners/418131069/1407356761
p1099
sg52
I00
sg53
I01
sg54
V0084B4
p1100
sg55
I00
sg56
I00
sg57
Vhttp://pbs.twimg.com/profile_background_images/367961815/homebg.jpg
p1101
sg58
VDemeraEthiopian
p1102
sg60
I8
sg61
VDemera Ethiopian
p1103
sg63
VDDEEF6
p1104
sg64
Vhttp://t.co/VhMbb1DGhf
p1105
sg65
I418131069
sg66
VC0DEED
p1106
sbsg99
I0
sg100
V<a href="http://sproutsocial.com" rel="nofollow">Sprout Social</a>
p1107
sg102
(lp1108
sg65
I538391906120527872
sbag3
(g4
g5
Ntp1109
Rp1110
(dp1111
g9
I0
sg10
Nsg11
Nsg12
(lp1112
sg14
I00
sg15
Nsg16
Nsg17
(lp1113
(dp1114
Vexpanded_url
p1115
Vhttp://twitter.com/DemeraEthiopian/status/538059701225676800/photo/1
p1116
sVdisplay_url
p1117
Vpic.twitter.com/NzN7iTkuAE
p1118
sVurl
p1119
Vhttp://t.co/NzN7iTkuAE
p1120
sVmedia_url_https
p1121
Vhttps://pbs.twimg.com/media/B3eScopCcAAxY0J.jpg
p1122
sVid_str
p1123
V538059701137600512
p1124
sVsizes
p1125
(dp1126
Vsmall
p1127
(dp1128
Vh
p1129
I226
sVresize
p1130
Vfit
p1131
sVw
p1132
I340
ssVlarge
p1133
(dp1134
Vh
p1135
I333
sVresize
p1136
Vfit
p1137
sVw
p1138
I500
ssVmedium
p1139
(dp1140
Vh
p1141
I333
sVresize
p1142
Vfit
p1143
sVw
p1144
I500
ssVthumb
p1145
(dp1146
Vh
p1147
I150
sVresize
p1148
Vcrop
p1149
sVw
p1150
I150
sssVindices
p1151
(lp1152
I32
aI54
asVtype
p1153
Vphoto
p1154
sVid
p1155
I538059701137600512
sVmedia_url
p1156
Vhttp://pbs.twimg.com/media/B3eScopCcAAxY0J.jpg
p1157
sasg19
Nsg20
Nsg21
Nsg22
VThu Nov 27 20:00:04 +0000 2014
p1158
sg24
Nsg25
I00
sg26
Nsg27
Nsg28
Nsg29
Nsg30
I00
sg31
Nsg32
(lp1159
sg72
Nsg73
V538059701225676800
p1160
sg75
Nsg76
VHappy Thanksgiving from Demera! http://t.co/NzN7iTkuAE
p1161
sg78
I00
sg79
Ven
p1162
sg81
g3
(g34
g5
Ntp1163
Rp1164
(dp1165
g10
VChicago, IL
p1166
sg38
V333333
p1167
sg39
Ven
p1168
sg40
Nsg41
I94
sg42
I652
sg22
VMon Nov 21 20:04:37 +0000 2011
p1169
sg43
I00
sg44
VAt Demera Ethiopian Restaurant we serve traditional Ethiopian cuisine using only the freshest and authentic ingredients.
p1170
sg45
Vhttps://pbs.twimg.com/profile_images/497095369713393664/y6QYcpLX_normal.jpeg
p1171
sg46
I294
sg47
I10
sg48
Nsg49
Nsg50
I00
sg51
Vhttps://pbs.twimg.com/profile_banners/418131069/1407356761
p1172
sg52
I00
sg53
I01
sg54
V0084B4
p1173
sg55
I00
sg56
I00
sg57
Vhttp://pbs.twimg.com/profile_background_images/367961815/homebg.jpg
p1174
sg58
VDemeraEthiopian
p1175
sg60
I8
sg61
VDemera Ethiopian
p1176
sg63
VDDEEF6
p1177
sg64
Vhttp://t.co/VhMbb1DGhf
p1178
sg65
I418131069
sg66
VC0DEED
p1179
sbsg99
I0
sg100
V<a href="http://sproutsocial.com" rel="nofollow">Sprout Social</a>
p1180
sg102
(lp1181
sg65
I538059701225676800
sbag3
(g4
g5
Ntp1182
Rp1183
(dp1184
g9
I0
sg10
Nsg11
Nsg12
(lp1185
g3
(g199
g5
Ntp1186
Rp1187
(dp1188
g203
VSmallBizSat
p1189
sbasg14
I00
sg15
Nsg16
Nsg17
(lp1190
(dp1191
Vexpanded_url
p1192
Vhttp://twitter.com/DemeraEthiopian/status/537667119056293888/photo/1
p1193
sVdisplay_url
p1194
Vpic.twitter.com/7A8e2L1N07
p1195
sVurl
p1196
Vhttp://t.co/7A8e2L1N07
p1197
sVmedia_url_https
p1198
Vhttps://pbs.twimg.com/media/B3YtZVpCQAE4x5W.png
p1199
sVid_str
p1200
V537667118846590977
p1201
sVsizes
p1202
(dp1203
Vsmall
p1204
(dp1205
Vh
p1206
I211
sVresize
p1207
Vfit
p1208
sVw
p1209
I340
ssVlarge
p1210
(dp1211
Vh
p1212
I637
sVresize
p1213
Vfit
p1214
sVw
p1215
I1024
ssVmedium
p1216
(dp1217
Vh
p1218
I373
sVresize
p1219
Vfit
p1220
sVw
p1221
I600
ssVthumb
p1222
(dp1223
Vh
p1224
I150
sVresize
p1225
Vcrop
p1226
sVw
p1227
I150
sssVindices
p1228
(lp1229
I39
aI61
asVtype
p1230
Vphoto
p1231
sVid
p1232
I537667118846590977
sVmedia_url
p1233
Vhttp://pbs.twimg.com/media/B3YtZVpCQAE4x5W.png
p1234
sasg19
Nsg20
Nsg21
Nsg22
VWed Nov 26 18:00:05 +0000 2014
p1235
sg24
Nsg25
I00
sg26
Nsg27
Nsg28
Nsg29
Nsg30
I00
sg31
Nsg32
(lp1236
sg72
Nsg73
V537667119056293888
p1237
sg75
Nsg76
VStop by Demera 11/29 for #SmallBizSat! http://t.co/7A8e2L1N07
p1238
sg78
I00
sg79
Ven
p1239
sg81
g3
(g34
g5
Ntp1240
Rp1241
(dp1242
g10
VChicago, IL
p1243
sg38
V333333
p1244
sg39
Ven
p1245
sg40
Nsg41
I94
sg42
I652
sg22
VMon Nov 21 20:04:37 +0000 2011
p1246
sg43
I00
sg44
VAt Demera Ethiopian Restaurant we serve traditional Ethiopian cuisine using only the freshest and authentic ingredients.
p1247
sg45
Vhttps://pbs.twimg.com/profile_images/497095369713393664/y6QYcpLX_normal.jpeg
p1248
sg46
I294
sg47
I10
sg48
Nsg49
Nsg50
I00
sg51
Vhttps://pbs.twimg.com/profile_banners/418131069/1407356761
p1249
sg52
I00
sg53
I01
sg54
V0084B4
p1250
sg55
I00
sg56
I00
sg57
Vhttp://pbs.twimg.com/profile_background_images/367961815/homebg.jpg
p1251
sg58
VDemeraEthiopian
p1252
sg60
I8
sg61
VDemera Ethiopian
p1253
sg63
VDDEEF6
p1254
sg64
Vhttp://t.co/VhMbb1DGhf
p1255
sg65
I418131069
sg66
VC0DEED
p1256
sbsg99
I0
sg100
V<a href="http://sproutsocial.com" rel="nofollow">Sprout Social</a>
p1257
sg102
(lp1258
sg65
I537667119056293888
sbag3
(g4
g5
Ntp1259
Rp1260
(dp1261
g9
I0
sg10
Nsg11
Nsg12
(lp1262
sg14
I00
sg15
Nsg16
Nsg17
(lp1263
sg19
Nsg20
Nsg21
Nsg22
VWed Nov 26 14:09:12 +0000 2014
p1264
sg24
Nsg25
Nsg26
Vdr_blackheart
p1265
sg27
Nsg28
I65360758
sg29
Nsg30
I00
sg31
Nsg32
(lp1266
g3
(g34
g5
Ntp1267
Rp1268
(dp1269
g10
Nsg38
Nsg39
Nsg40
Nsg41
Nsg42
Nsg22
Nsg43
Nsg44
Nsg45
Nsg46
Nsg47
Nsg48
Nsg49
Nsg50
Nsg51
Nsg52
Nsg53
Nsg54
Nsg55
Nsg56
Nsg57
Nsg58
Vdr_blackheart
p1270
sg60
Nsg61
VErik Wallin
p1271
sg63
Nsg64
Nsg65
I65360758
sg66
Nsbasg72
Nsg73
V537609016705155072
p1272
sg75
I537409196405579776
sg76
V@dr_blackheart We're the lucky ones! So great to see you again. :)
p1273
sg78
I00
sg79
Ven
p1274
sg81
g3
(g34
g5
Ntp1275
Rp1276
(dp1277
g10
VChicago, IL
p1278
sg38
V333333
p1279
sg39
Ven
p1280
sg40
Nsg41
I94
sg42
I652
sg22
VMon Nov 21 20:04:37 +0000 2011
p1281
sg43
I00
sg44
VAt Demera Ethiopian Restaurant we serve traditional Ethiopian cuisine using only the freshest and authentic ingredients.
p1282
sg45
Vhttps://pbs.twimg.com/profile_images/497095369713393664/y6QYcpLX_normal.jpeg
p1283
sg46
I294
sg47
I10
sg48
Nsg49
Nsg50
I00
sg51
Vhttps://pbs.twimg.com/profile_banners/418131069/1407356761
p1284
sg52
I00
sg53
I01
sg54
V0084B4
p1285
sg55
I00
sg56
I00
sg57
Vhttp://pbs.twimg.com/profile_background_images/367961815/homebg.jpg
p1286
sg58
VDemeraEthiopian
p1287
sg60
I8
sg61
VDemera Ethiopian
p1288
sg63
VDDEEF6
p1289
sg64
Vhttp://t.co/VhMbb1DGhf
p1290
sg65
I418131069
sg66
VC0DEED
p1291
sbsg99
I0
sg100
V<a href="https://about.twitter.com/products/tweetdeck" rel="nofollow">TweetDeck</a>
p1292
sg102
(lp1293
sg65
I537609016705155072
sbag3
(g4
g5
Ntp1294
Rp1295
(dp1296
g9
I0
sg10
Nsg11
Nsg12
(lp1297
sg14
I00
sg15
g3
(g4
g5
Ntp1298
Rp1299
(dp1300
g9
I2
sg10
Nsg11
Nsg12
(lp1301
sg14
I00
sg15
Nsg16
Nsg17
(lp1302
sg19
(dp1303
Vfull_name
p1304
VChicago, IL
p1305
sVurl
p1306
Vhttps://api.twitter.com/1.1/geo/id/1d9a5370a355ab0c.json
p1307
sVcountry
p1308
VUnited States
p1309
sVplace_type
p1310
Vcity
p1311
sVbounding_box
p1312
(dp1313
Vtype
p1314
VPolygon
p1315
sVcoordinates
p1316
(lp1317
(lp1318
(lp1319
F-87.940033
aF41.644102
aa(lp1320
F-87.523993
aF41.644102
aa(lp1321
F-87.523993
aF42.0230669
aa(lp1322
F-87.940033
aF42.0230669
aaassVcontained_within
p1323
(lp1324
sVcountry_code
p1325
VUS
p1326
sVattributes
p1327
(dp1328
sVid
p1329
V1d9a5370a355ab0c
p1330
sVname
p1331
VChicago
p1332
ssg20
Nsg21
Nsg22
VWed Nov 26 00:55:11 +0000 2014
p1333
sg24
Nsg25
I00
sg26
Nsg27
(dp1334
Vtype
p1335
VPoint
p1336
sVcoordinates
p1337
(lp1338
F-87.65963265
aF41.96911129
assg28
Nsg29
(dp1339
Vtype
p1340
VPoint
p1341
sVcoordinates
p1342
(lp1343
F41.96911129
aF-87.65963265
assg30
I00
sg31
Nsg32
(lp1344
g3
(g34
g5
Ntp1345
Rp1346
(dp1347
g10
Nsg38
Nsg39
Nsg40
Nsg41
Nsg42
Nsg22
Nsg43
Nsg44
Nsg45
Nsg46
Nsg47
Nsg48
Nsg49
Nsg50
Nsg51
Nsg52
Nsg53
Nsg54
Nsg55
Nsg56
Nsg57
Nsg58
VDemeraEthiopian
p1348
sg60
Nsg61
VDemera Ethiopian
p1349
sg63
Nsg64
Nsg65
I418131069
sg66
Nsbasg72
Nsg73
V537409196405579776
p1350
sg75
Nsg76
VLucky. Second time having Ethiopian in the past two weeks. (at @DemeraEthiopian Restaurant in Chicago, IL) https://t.co/dDKZj5zvkG
p1351
sg78
I00
sg79
Ven
p1352
sg81
g3
(g34
g5
Ntp1353
Rp1354
(dp1355
g10
VHumboldt Park, Chicago
p1356
sg38
V333333
p1357
sg39
Ven
p1358
sg40
VCentral Time (US & Canada)
p1359
sg41
I140
sg42
I4287
sg22
VThu Aug 13 13:23:07 +0000 2009
p1360
sg43
I00
sg44
VBleeding heart, craft beer drinking, movie and music enthusiast, city by the lake loving, vegan wannabe
p1361
sg45
Vhttps://pbs.twimg.com/profile_images/484821190771372033/sAvaVjVz_normal.jpeg
p1362
sg46
I349
sg47
I15
sg48
I-21600
sg49
Nsg50
I00
sg51
Nsg52
I00
sg53
I00
sg54
V0084B4
p1363
sg55
I01
sg56
I00
sg57
Vhttp://abs.twimg.com/images/themes/theme1/bg.png
p1364
sg58
Vdr_blackheart
p1365
sg60
I5
sg61
VErik Wallin
p1366
sg63
VDDEEF6
p1367
sg64
Nsg65
I65360758
sg66
VC0DEED
p1368
sbsg99
I1
sg100
V<a href="http://foursquare.com" rel="nofollow">Foursquare</a>
p1369
sg102
(lp1370
g3
(g104
g5
Ntp1371
Rp1372
(dp1373
g108
Vhttps://t.co/dDKZj5zvkG
p1374
sg110
Vhttps://www.swarmapp.com/c/5wJLLGXBWnS
p1375
sbasg65
I537409196405579776
sbsg16
Nsg17
(lp1376
sg19
Nsg20
Nsg21
Nsg22
VWed Nov 26 14:08:41 +0000 2014
p1377
sg24
Nsg25
I00
sg26
Nsg27
Nsg28
Nsg29
Nsg30
I00
sg31
Nsg32
(lp1378
g3
(g34
g5
Ntp1379
Rp1380
(dp1381
g10
Nsg38
Nsg39
Nsg40
Nsg41
Nsg42
Nsg22
Nsg43
Nsg44
Nsg45
Nsg46
Nsg47
Nsg48
Nsg49
Nsg50
Nsg51
Nsg52
Nsg53
Nsg54
Nsg55
Nsg56
Nsg57
Nsg58
Vdr_blackheart
p1382
sg60
Nsg61
VErik Wallin
p1383
sg63
Nsg64
Nsg65
I65360758
sg66
Nsbag3
(g34
g5
Ntp1384
Rp1385
(dp1386
g10
Nsg38
Nsg39
Nsg40
Nsg41
Nsg42
Nsg22
Nsg43
Nsg44
Nsg45
Nsg46
Nsg47
Nsg48
Nsg49
Nsg50
Nsg51
Nsg52
Nsg53
Nsg54
Nsg55
Nsg56
Nsg57
Nsg58
VDemeraEthiopian
p1387
sg60
Nsg61
VDemera Ethiopian
p1388
sg63
Nsg64
Nsg65
I418131069
sg66
Nsbasg72
Nsg73
V537608885872254978
p1389
sg75
Nsg76
VRT @dr_blackheart: Lucky. Second time having Ethiopian in the past two weeks. (at @DemeraEthiopian Restaurant in Chicago, IL) https://t.co/\u2026
p1390
sg78
I00
sg79
Ven
p1391
sg81
g3
(g34
g5
Ntp1392
Rp1393
(dp1394
g10
VChicago, IL
p1395
sg38
V333333
p1396
sg39
Ven
p1397
sg40
Nsg41
I94
sg42
I652
sg22
VMon Nov 21 20:04:37 +0000 2011
p1398
sg43
I00
sg44
VAt Demera Ethiopian Restaurant we serve traditional Ethiopian cuisine using only the freshest and authentic ingredients.
p1399
sg45
Vhttps://pbs.twimg.com/profile_images/497095369713393664/y6QYcpLX_normal.jpeg
p1400
sg46
I294
sg47
I10
sg48
Nsg49
Nsg50
I00
sg51
Vhttps://pbs.twimg.com/profile_banners/418131069/1407356761
p1401
sg52
I00
sg53
I01
sg54
V0084B4
p1402
sg55
I00
sg56
I00
sg57
Vhttp://pbs.twimg.com/profile_background_images/367961815/homebg.jpg
p1403
sg58
VDemeraEthiopian
p1404
sg60
I8
sg61
VDemera Ethiopian
p1405
sg63
VDDEEF6
p1406
sg64
Vhttp://t.co/VhMbb1DGhf
p1407
sg65
I418131069
sg66
VC0DEED
p1408
sbsg99
I1
sg100
V<a href="https://about.twitter.com/products/tweetdeck" rel="nofollow">TweetDeck</a>
p1409
sg102
(lp1410
g3
(g104
g5
Ntp1411
Rp1412
(dp1413
g108
Vhttps://t.co/dDKZj5zvkG
p1414
sg110
Vhttps://www.swarmapp.com/c/5wJLLGXBWnS
p1415
sbasg65
I537608885872254978
sbag3
(g4
g5
Ntp1416
Rp1417
(dp1418
g9
I0
sg10
Nsg11
Nsg12
(lp1419
g3
(g199
g5
Ntp1420
Rp1421
(dp1422
g203
VSmallBizSat
p1423
sbasg14
I00
sg15
Nsg16
Nsg17
(lp1424
(dp1425
Vexpanded_url
p1426
Vhttp://twitter.com/DemeraEthiopian/status/537304871813140480/photo/1
p1427
sVdisplay_url
p1428
Vpic.twitter.com/qFZfHJkilw
p1429
sVurl
p1430
Vhttp://t.co/qFZfHJkilw
p1431
sVmedia_url_https
p1432
Vhttps://pbs.twimg.com/media/B3Tj7xmCEAAoKHe.png
p1433
sVid_str
p1434
V537304871628574720
p1435
sVsizes
p1436
(dp1437
Vsmall
p1438
(dp1439
Vh
p1440
I211
sVresize
p1441
Vfit
p1442
sVw
p1443
I340
ssVlarge
p1444
(dp1445
Vh
p1446
I637
sVresize
p1447
Vfit
p1448
sVw
p1449
I1024
ssVmedium
p1450
(dp1451
Vh
p1452
I373
sVresize
p1453
Vfit
p1454
sVw
p1455
I600
ssVthumb
p1456
(dp1457
Vh
p1458
I150
sVresize
p1459
Vcrop
p1460
sVw
p1461
I150
sssVindices
p1462
(lp1463
I39
aI61
asVtype
p1464
Vphoto
p1465
sVid
p1466
I537304871628574720
sVmedia_url
p1467
Vhttp://pbs.twimg.com/media/B3Tj7xmCEAAoKHe.png
p1468
sasg19
Nsg20
Nsg21
Nsg22
VTue Nov 25 18:00:38 +0000 2014
p1469
sg24
Nsg25
I00
sg26
Nsg27
Nsg28
Nsg29
Nsg30
I00
sg31
Nsg32
(lp1470
sg72
Nsg73
V537304871813140480
p1471
sg75
Nsg76
VStop by Demera 11/29 for #SmallBizSat! http://t.co/qFZfHJkilw
p1472
sg78
I00
sg79
Ven
p1473
sg81
g3
(g34
g5
Ntp1474
Rp1475
(dp1476
g10
VChicago, IL
p1477
sg38
V333333
p1478
sg39
Ven
p1479
sg40
Nsg41
I94
sg42
I652
sg22
VMon Nov 21 20:04:37 +0000 2011
p1480
sg43
I00
sg44
VAt Demera Ethiopian Restaurant we serve traditional Ethiopian cuisine using only the freshest and authentic ingredients.
p1481
sg45
Vhttps://pbs.twimg.com/profile_images/497095369713393664/y6QYcpLX_normal.jpeg
p1482
sg46
I294
sg47
I10
sg48
Nsg49
Nsg50
I00
sg51
Vhttps://pbs.twimg.com/profile_banners/418131069/1407356761
p1483
sg52
I00
sg53
I01
sg54
V0084B4
p1484
sg55
I00
sg56
I00
sg57
Vhttp://pbs.twimg.com/profile_background_images/367961815/homebg.jpg
p1485
sg58
VDemeraEthiopian
p1486
sg60
I8
sg61
VDemera Ethiopian
p1487
sg63
VDDEEF6
p1488
sg64
Vhttp://t.co/VhMbb1DGhf
p1489
sg65
I418131069
sg66
VC0DEED
p1490
sbsg99
I0
sg100
V<a href="http://sproutsocial.com" rel="nofollow">Sprout Social</a>
p1491
sg102
(lp1492
sg65
I537304871813140480
sbag3
(g4
g5
Ntp1493
Rp1494
(dp1495
g9
I0
sg10
Nsg11
Nsg12
(lp1496
g3
(g199
g5
Ntp1497
Rp1498
(dp1499
g203
VThanksgiving
p1500
sbag3
(g199
g5
Ntp1501
Rp1502
(dp1503
g203
Vcater
p1504
sbasg14
I00
sg15
Nsg16
Nsg17
(lp1505
sg19
Nsg20
Nsg21
Nsg22
VMon Nov 24 20:06:01 +0000 2014
p1506
sg24
Nsg25
I00
sg26
Nsg27
Nsg28
Nsg29
Nsg30
I00
sg31
Nsg32
(lp1507
sg72
Nsg73
V536974035239071745
p1508
sg75
Nsg76
VAlthough we're closed on #Thanksgiving, we can certainly #cater any other day of the week - Click here to order! &gt;&gt; http://t.co/ZOjzeDrDcB
p1509
sg78
I00
sg79
Ven
p1510
sg81
g3
(g34
g5
Ntp1511
Rp1512
(dp1513
g10
VChicago, IL
p1514
sg38
V333333
p1515
sg39
Ven
p1516
sg40
Nsg41
I94
sg42
I652
sg22
VMon Nov 21 20:04:37 +0000 2011
p1517
sg43
I00
sg44
VAt Demera Ethiopian Restaurant we serve traditional Ethiopian cuisine using only the freshest and authentic ingredients.
p1518
sg45
Vhttps://pbs.twimg.com/profile_images/497095369713393664/y6QYcpLX_normal.jpeg
p1519
sg46
I294
sg47
I10
sg48
Nsg49
Nsg50
I00
sg51
Vhttps://pbs.twimg.com/profile_banners/418131069/1407356761
p1520
sg52
I00
sg53
I01
sg54
V0084B4
p1521
sg55
I00
sg56
I00
sg57
Vhttp://pbs.twimg.com/profile_background_images/367961815/homebg.jpg
p1522
sg58
VDemeraEthiopian
p1523
sg60
I8
sg61
VDemera Ethiopian
p1524
sg63
VDDEEF6
p1525
sg64
Vhttp://t.co/VhMbb1DGhf
p1526
sg65
I418131069
sg66
VC0DEED
p1527
sbsg99
I0
sg100
V<a href="http://sproutsocial.com" rel="nofollow">Sprout Social</a>
p1528
sg102
(lp1529
g3
(g104
g5
Ntp1530
Rp1531
(dp1532
g108
Vhttp://t.co/ZOjzeDrDcB
p1533
sg110
Vhttp://bit.ly/DemeraCatering
p1534
sbasg65
I536974035239071745
sbag3
(g4
g5
Ntp1535
Rp1536
(dp1537
g9
I0
sg10
Nsg11
Nsg12
(lp1538
g3
(g199
g5
Ntp1539
Rp1540
(dp1541
g203
VFacebook
p1542
sbag3
(g199
g5
Ntp1543
Rp1544
(dp1545
g203
VFF
p1546
sbasg14
I00
sg15
Nsg16
Nsg17
(lp1547
(dp1548
Vexpanded_url
p1549
Vhttp://twitter.com/DemeraEthiopian/status/535885380344487936/photo/1
p1550
sVdisplay_url
p1551
Vpic.twitter.com/NJdL1dbfj7
p1552
sVurl
p1553
Vhttp://t.co/NJdL1dbfj7
p1554
sVmedia_url_https
p1555
Vhttps://pbs.twimg.com/media/B2_Y6gVCEAAWpVw.jpg
p1556
sVid_str
p1557
V535885380302540800
p1558
sVsizes
p1559
(dp1560
Vsmall
p1561
(dp1562
Vh
p1563
I226
sVresize
p1564
Vfit
p1565
sVw
p1566
I236
ssVlarge
p1567
(dp1568
Vh
p1569
I226
sVresize
p1570
Vfit
p1571
sVw
p1572
I236
ssVmedium
p1573
(dp1574
Vh
p1575
I226
sVresize
p1576
Vfit
p1577
sVw
p1578
I236
ssVthumb
p1579
(dp1580
Vh
p1581
I150
sVresize
p1582
Vcrop
p1583
sVw
p1584
I150
sssVindices
p1585
(lp1586
I80
aI102
asVtype
p1587
Vphoto
p1588
sVid
p1589
I535885380302540800
sVmedia_url
p1590
Vhttp://pbs.twimg.com/media/B2_Y6gVCEAAWpVw.jpg
p1591
sasg19
Nsg20
Nsg21
Nsg22
VFri Nov 21 20:00:05 +0000 2014
p1592
sg24
Nsg25
I00
sg26
Nsg27
Nsg28
Nsg29
Nsg30
I00
sg31
Nsg32
(lp1593
sg72
Nsg73
V535885380344487936
p1594
sg75
Nsg76
VAre you a Demera #Facebook Fan? Click here! &gt;&gt; http://t.co/94iSbPOtnY #FF http://t.co/NJdL1dbfj7
p1595
sg78
I00
sg79
Ven
p1596
sg81
g3
(g34
g5
Ntp1597
Rp1598
(dp1599
g10
VChicago, IL
p1600
sg38
V333333
p1601
sg39
Ven
p1602
sg40
Nsg41
I94
sg42
I652
sg22
VMon Nov 21 20:04:37 +0000 2011
p1603
sg43
I00
sg44
VAt Demera Ethiopian Restaurant we serve traditional Ethiopian cuisine using only the freshest and authentic ingredients.
p1604
sg45
Vhttps://pbs.twimg.com/profile_images/497095369713393664/y6QYcpLX_normal.jpeg
p1605
sg46
I294
sg47
I10
sg48
Nsg49
Nsg50
I00
sg51
Vhttps://pbs.twimg.com/profile_banners/418131069/1407356761
p1606
sg52
I00
sg53
I01
sg54
V0084B4
p1607
sg55
I00
sg56
I00
sg57
Vhttp://pbs.twimg.com/profile_background_images/367961815/homebg.jpg
p1608
sg58
VDemeraEthiopian
p1609
sg60
I8
sg61
VDemera Ethiopian
p1610
sg63
VDDEEF6
p1611
sg64
Vhttp://t.co/VhMbb1DGhf
p1612
sg65
I418131069
sg66
VC0DEED
p1613
sbsg99
I0
sg100
V<a href="http://sproutsocial.com" rel="nofollow">Sprout Social</a>
p1614
sg102
(lp1615
g3
(g104
g5
Ntp1616
Rp1617
(dp1618
g108
Vhttp://t.co/94iSbPOtnY
p1619
sg110
Vhttp://bit.ly/DemeraFB
p1620
sbasg65
I535885380344487936
sbaa.