(lp0
S'cindycroom'
p1
a(lp2
ccopy_reg
_reconstructor
p3
(ctwitter
Status
p4
c__builtin__
object
p5
Ntp6
Rp7
(dp8
S'_favorite_count'
p9
I0
sS'_location'
p10
NsS'_withheld_scope'
p11
NsS'hashtags'
p12
(lp13
g3
(ctwitter
Hashtag
p14
g5
Ntp15
Rp16
(dp17
S'text'
p18
V12DaysofKeurig
p19
sbag3
(g14
g5
Ntp20
Rp21
(dp22
g18
VGiveaway
p23
sbasS'_truncated'
p24
I00
sS'_retweeted_status'
p25
NsS'_withheld_copyright'
p26
NsS'media'
p27
(lp28
sS'_place'
p29
NsS'_contributors'
p30
NsS'_current_user_retweet'
p31
NsS'_created_at'
p32
VSun Dec 14 15:25:09 +0000 2014
p33
sS'_scopes'
p34
NsS'_possibly_sensitive'
p35
I00
sS'_in_reply_to_screen_name'
p36
VCinnabon
p37
sS'_coordinates'
p38
NsS'_in_reply_to_user_id'
p39
I84708371
sS'_geo'
p40
NsS'_favorited'
p41
I00
sS'_withheld_in_countries'
p42
NsS'user_mentions'
p43
(lp44
g3
(ctwitter
User
p45
g5
Ntp46
Rp47
(dp48
g10
NsS'_profile_text_color'
p49
NsS'_lang'
p50
NsS'_time_zone'
p51
NsS'_followers_count'
p52
NsS'_statuses_count'
p53
Nsg32
NsS'_verified'
p54
NsS'_description'
p55
NsS'_profile_image_url'
p56
NsS'_friends_count'
p57
NsS'_favourites_count'
p58
NsS'_utc_offset'
p59
NsS'_status'
p60
NsS'_protected'
p61
NsS'_profile_banner_url'
p62
NsS'_notifications'
p63
NsS'_profile_background_tile'
p64
NsS'_profile_link_color'
p65
NsS'_geo_enabled'
p66
NsS'_contributors_enabled'
p67
NsS'_profile_background_image_url'
p68
NsS'_screen_name'
p69
VCinnabon
p70
sS'_listed_count'
p71
NsS'_name'
p72
VCinnabon
p73
sS'_profile_sidebar_fill_color'
p74
NsS'_url'
p75
NsS'_id'
p76
I84708371
sS'_profile_background_color'
p77
Nsbag3
(g45
g5
Ntp78
Rp79
(dp80
g10
Nsg49
Nsg50
Nsg51
Nsg52
Nsg53
Nsg32
Nsg54
Nsg55
Nsg56
Nsg57
Nsg58
Nsg59
Nsg60
Nsg61
Nsg62
Nsg63
Nsg64
Nsg65
Nsg66
Nsg67
Nsg68
Nsg69
VKeurig
p81
sg71
Nsg72
VKeurig
p82
sg74
Nsg75
Nsg76
I33330562
sg77
NsbasS'_now'
p83
NsS'_id_str'
p84
V544151110341386241
p85
sS'_in_reply_to_status_id'
p86
I544143541522280448
sS'_text'
p87
V@Cinnabon @Keurig Ease of use and flavors up my day #12DaysofKeurig #Giveaway http://t.co/eTthZVULlk
p88
sS'_retweeted'
p89
I00
sS'lang'
p90
Ven
p91
sS'_user'
p92
g3
(g45
g5
Ntp93
Rp94
(dp95
g10
VTexas
p96
sg49
V333333
p97
sg50
Ven
p98
sg51
VCentral Time (US & Canada)
p99
sg52
I88
sg53
I8519
sg32
VFri Apr 15 20:28:15 +0000 2011
p100
sg54
I00
sg55
V
p101
sg56
Vhttps://abs.twimg.com/sticky/default_profile_images/default_profile_0_normal.png
p102
sg57
I556
sg58
I55
sg59
I-21600
sg60
Nsg61
I00
sg62
Nsg63
I00
sg64
I00
sg65
V0084B4
p103
sg66
I00
sg67
I00
sg68
Vhttp://abs.twimg.com/images/themes/theme1/bg.png
p104
sg69
Vcindycroom
p105
sg71
I5
sg72
VCindy C.
p106
sg74
VDDEEF6
p107
sg75
Nsg76
I282737119
sg77
VC0DEED
p108
sbsS'_retweet_count'
p109
I0
sS'_source'
p110
V<a href="http://twitter.com" rel="nofollow">Twitter Web Client</a>
p111
sS'urls'
p112
(lp113
g3
(ctwitter
Url
p114
g5
Ntp115
Rp116
(dp117
S'url'
p118
Vhttp://t.co/eTthZVULlk
p119
sS'expanded_url'
p120
Vhttp://on.fb.me/1vQtY9o
p121
sbasg76
I544151110341386241
sbag3
(g4
g5
Ntp122
Rp123
(dp124
g9
I0
sg10
Nsg11
Nsg12
(lp125
g3
(g14
g5
Ntp126
Rp127
(dp128
g18
VReadySetGive
p129
sbasg24
I00
sg25
Nsg26
Nsg27
(lp130
sg29
Nsg30
Nsg31
Nsg32
VSun Dec 14 02:58:06 +0000 2014
p131
sg34
Nsg35
I00
sg36
Nsg38
Nsg39
Nsg40
Nsg41
I00
sg42
Nsg43
(lp132
g3
(g45
g5
Ntp133
Rp134
(dp135
g10
Nsg49
Nsg50
Nsg51
Nsg52
Nsg53
Nsg32
Nsg54
Nsg55
Nsg56
Nsg57
Nsg58
Nsg59
Nsg60
Nsg61
Nsg62
Nsg63
Nsg64
Nsg65
Nsg66
Nsg67
Nsg68
Nsg69
VBobbiBrown
p136
sg71
Nsg72
VBobbiBrown Cosmetics
p137
sg74
Nsg75
Nsg76
I43121121
sg77
Nsbasg83
Nsg84
V543963110088798208
p138
sg86
Nsg87
VI just entered @BobbiBrown's #ReadySetGive Giveaway and you should, too! It's the gift that keeps on giving. http://t.co/nt8wfasjnU
p139
sg89
I00
sg90
Ven
p140
sg92
g3
(g45
g5
Ntp141
Rp142
(dp143
g10
VTexas
p144
sg49
V333333
p145
sg50
Ven
p146
sg51
VCentral Time (US & Canada)
p147
sg52
I88
sg53
I8519
sg32
VFri Apr 15 20:28:15 +0000 2011
p148
sg54
I00
sg55
g101
sg56
Vhttps://abs.twimg.com/sticky/default_profile_images/default_profile_0_normal.png
p149
sg57
I556
sg58
I55
sg59
I-21600
sg60
Nsg61
I00
sg62
Nsg63
I00
sg64
I00
sg65
V0084B4
p150
sg66
I00
sg67
I00
sg68
Vhttp://abs.twimg.com/images/themes/theme1/bg.png
p151
sg69
Vcindycroom
p152
sg71
I5
sg72
VCindy C.
p153
sg74
VDDEEF6
p154
sg75
Nsg76
I282737119
sg77
VC0DEED
p155
sbsg109
I0
sg110
V<a href="https://dev.twitter.com/docs/tfw" rel="nofollow">Twitter for Websites</a>
p156
sg112
(lp157
g3
(g114
g5
Ntp158
Rp159
(dp160
g118
Vhttp://t.co/nt8wfasjnU
p161
sg120
Vhttp://bbrwn.co/BBHoliday
p162
sbasg76
I543963110088798208
sbag3
(g4
g5
Ntp163
Rp164
(dp165
g9
I0
sg10
Nsg11
Nsg12
(lp166
g3
(g14
g5
Ntp167
Rp168
(dp169
g18
VPopUpSantaSweepsEntry
p170
sbasg24
I00
sg25
Nsg26
Nsg27
(lp171
sg29
Nsg30
Nsg31
Nsg32
VSun Dec 14 02:35:28 +0000 2014
p172
sg34
Nsg35
I00
sg36
Nsg38
Nsg39
Nsg40
Nsg41
I00
sg42
Nsg43
(lp173
g3
(g45
g5
Ntp174
Rp175
(dp176
g10
Nsg49
Nsg50
Nsg51
Nsg52
Nsg53
Nsg32
Nsg54
Nsg55
Nsg56
Nsg57
Nsg58
Nsg59
Nsg60
Nsg61
Nsg62
Nsg63
Nsg64
Nsg65
Nsg66
Nsg67
Nsg68
Nsg69
VABCF25days
p177
sg71
Nsg72
V25 Days of Christmas
p178
sg74
Nsg75
Nsg76
I91432615
sg77
Nsbasg83
Nsg84
V543957414282670080
p179
sg86
Nsg87
VI just entered @ABCF25Days Pop Up Santa Sweepstakes! #PopUpSantaSweepsEntry http://t.co/M6dgULTh0F
p180
sg89
I00
sg90
Ven
p181
sg92
g3
(g45
g5
Ntp182
Rp183
(dp184
g10
VTexas
p185
sg49
V333333
p186
sg50
Ven
p187
sg51
VCentral Time (US & Canada)
p188
sg52
I88
sg53
I8519
sg32
VFri Apr 15 20:28:15 +0000 2011
p189
sg54
I00
sg55
g101
sg56
Vhttps://abs.twimg.com/sticky/default_profile_images/default_profile_0_normal.png
p190
sg57
I556
sg58
I55
sg59
I-21600
sg60
Nsg61
I00
sg62
Nsg63
I00
sg64
I00
sg65
V0084B4
p191
sg66
I00
sg67
I00
sg68
Vhttp://abs.twimg.com/images/themes/theme1/bg.png
p192
sg69
Vcindycroom
p193
sg71
I5
sg72
VCindy C.
p194
sg74
VDDEEF6
p195
sg75
Nsg76
I282737119
sg77
VC0DEED
p196
sbsg109
I0
sg110
V<a href="https://dev.twitter.com/docs/tfw" rel="nofollow">Twitter for Websites</a>
p197
sg112
(lp198
g3
(g114
g5
Ntp199
Rp200
(dp201
g118
Vhttp://t.co/M6dgULTh0F
p202
sg120
Vhttp://www.popupsanta.tv/day/13/sweepstakes
p203
sbasg76
I543957414282670080
sbag3
(g4
g5
Ntp204
Rp205
(dp206
g9
I0
sg10
Nsg11
Nsg12
(lp207
g3
(g14
g5
Ntp208
Rp209
(dp210
g18
Vwin
p211
sbag3
(g14
g5
Ntp212
Rp213
(dp214
g18
VMarvelSuperHeroes
p215
sbasg24
I00
sg25
Nsg26
Nsg27
(lp216
sg29
Nsg30
Nsg31
Nsg32
VSun Dec 14 01:55:37 +0000 2014
p217
sg34
Nsg35
I00
sg36
Nsg38
Nsg39
Nsg40
Nsg41
I00
sg42
Nsg43
(lp218
g3
(g45
g5
Ntp219
Rp220
(dp221
g10
Nsg49
Nsg50
Nsg51
Nsg52
Nsg53
Nsg32
Nsg54
Nsg55
Nsg56
Nsg57
Nsg58
Nsg59
Nsg60
Nsg61
Nsg62
Nsg63
Nsg64
Nsg65
Nsg66
Nsg67
Nsg68
Nsg69
VDisneyInfinity
p222
sg71
Nsg72
VDisney Infinity
p223
sg74
Nsg75
Nsg76
I807289412
sg77
Nsbag3
(g45
g5
Ntp224
Rp225
(dp226
g10
Nsg49
Nsg50
Nsg51
Nsg52
Nsg53
Nsg32
Nsg54
Nsg55
Nsg56
Nsg57
Nsg58
Nsg59
Nsg60
Nsg61
Nsg62
Nsg63
Nsg64
Nsg65
Nsg66
Nsg67
Nsg68
Nsg69
VUrbanGiveaways
p227
sg71
Nsg72
VUrbanMedia Contests
p228
sg74
Nsg75
Nsg76
I1134919392
sg77
Nsbasg83
Nsg84
V543947384938442752
p229
sg86
Nsg87
VI entered to #win a @DisneyInfinity #MarvelSuperHeroes Starter pack from @UrbanGiveaways! Ends 12/14 http://t.co/TYx9d0OgPs
p230
sg89
I00
sg90
Ven
p231
sg92
g3
(g45
g5
Ntp232
Rp233
(dp234
g10
VTexas
p235
sg49
V333333
p236
sg50
Ven
p237
sg51
VCentral Time (US & Canada)
p238
sg52
I88
sg53
I8519
sg32
VFri Apr 15 20:28:15 +0000 2011
p239
sg54
I00
sg55
g101
sg56
Vhttps://abs.twimg.com/sticky/default_profile_images/default_profile_0_normal.png
p240
sg57
I556
sg58
I55
sg59
I-21600
sg60
Nsg61
I00
sg62
Nsg63
I00
sg64
I00
sg65
V0084B4
p241
sg66
I00
sg67
I00
sg68
Vhttp://abs.twimg.com/images/themes/theme1/bg.png
p242
sg69
Vcindycroom
p243
sg71
I5
sg72
VCindy C.
p244
sg74
VDDEEF6
p245
sg75
Nsg76
I282737119
sg77
VC0DEED
p246
sbsg109
I0
sg110
V<a href="https://dev.twitter.com/docs/tfw" rel="nofollow">Twitter for Websites</a>
p247
sg112
(lp248
g3
(g114
g5
Ntp249
Rp250
(dp251
g118
Vhttp://t.co/TYx9d0OgPs
p252
sg120
Vhttp://www.urbanmommies.com/contests/disney-infinity-2-0-marvel-super-heroes-giveaway/
p253
sbasg76
I543947384938442752
sbag3
(g4
g5
Ntp254
Rp255
(dp256
g9
I0
sg10
Nsg11
Nsg12
(lp257
g3
(g14
g5
Ntp258
Rp259
(dp260
g18
Vstealorstay
p261
sbasg24
I00
sg25
g3
(g4
g5
Ntp262
Rp263
(dp264
g9
I199
sg10
Nsg11
Nsg12
(lp265
g3
(g14
g5
Ntp266
Rp267
(dp268
g18
Vstealorstay
p269
sbasg24
I00
sg25
Nsg26
Nsg27
(lp270
sg29
Nsg30
Nsg31
Nsg32
VFri Dec 12 23:06:05 +0000 2014
p271
sg34
Nsg35
I00
sg36
Nsg38
Nsg39
Nsg40
Nsg41
I00
sg42
Nsg43
(lp272
g3
(g45
g5
Ntp273
Rp274
(dp275
g10
Nsg49
Nsg50
Nsg51
Nsg52
Nsg53
Nsg32
Nsg54
Nsg55
Nsg56
Nsg57
Nsg58
Nsg59
Nsg60
Nsg61
Nsg62
Nsg63
Nsg64
Nsg65
Nsg66
Nsg67
Nsg68
Nsg69
VOldNavy
p276
sg71
Nsg72
VOld Navy Official
p277
sg74
Nsg75
Nsg76
I18462539
sg77
Nsbasg83
Nsg84
V543542334563295232
p278
sg86
Nsg87
VSo excited to play white elephant! \U0001f385\U0001f418 I'm going to stay &amp; get a gift! Use #stealorstay, &amp; follow @OldNavy  ... https://t.co/yLof5T9x1U
p279
sg89
I00
sg90
Ven
p280
sg92
g3
(g45
g5
Ntp281
Rp282
(dp283
g10
VLV//LA//SD
p284
sg49
V333333
p285
sg50
Ven
p286
sg51
VAlaska
p287
sg52
I1422
sg53
I10102
sg32
VFri Sep 30 04:19:26 +0000 2011
p288
sg54
I00
sg55
VI like to sing sometimes || vine & instagram @lexisorrentino
p289
sg56
Vhttps://pbs.twimg.com/profile_images/543845955343495168/rsCq9qBa_normal.jpeg
p290
sg57
I173
sg58
I4793
sg59
I-32400
sg60
Nsg61
I00
sg62
Vhttps://pbs.twimg.com/profile_banners/382478348/1375128363
p291
sg63
I00
sg64
I00
sg65
V0084B4
p292
sg66
I00
sg67
I00
sg68
Vhttp://abs.twimg.com/images/themes/theme1/bg.png
p293
sg69
VLexiiSorrentino
p294
sg71
I3
sg72
VLexi Sorrentino \u0950\u262f
p295
sg74
VDDEEF6
p296
sg75
Vhttp://t.co/GKTZYEsi9Z
p297
sg76
I382478348
sg77
VC0DEED
p298
sbsg109
I49
sg110
V<a href="http://vine.co" rel="nofollow">Vine - Make a Scene</a>
p299
sg112
(lp300
g3
(g114
g5
Ntp301
Rp302
(dp303
g118
Vhttps://t.co/yLof5T9x1U
p304
sg120
Vhttps://vine.co/v/O66XKQOLr0l
p305
sbasg76
I543542334563295232
sbsg26
Nsg27
(lp306
sg29
Nsg30
Nsg31
Nsg32
VSun Dec 14 00:30:22 +0000 2014
p307
sg34
Nsg35
I00
sg36
Nsg38
Nsg39
Nsg40
Nsg41
I00
sg42
Nsg43
(lp308
g3
(g45
g5
Ntp309
Rp310
(dp311
g10
Nsg49
Nsg50
Nsg51
Nsg52
Nsg53
Nsg32
Nsg54
Nsg55
Nsg56
Nsg57
Nsg58
Nsg59
Nsg60
Nsg61
Nsg62
Nsg63
Nsg64
Nsg65
Nsg66
Nsg67
Nsg68
Nsg69
VLexiiSorrentino
p312
sg71
Nsg72
VLexi Sorrentino \u0950\u262f
p313
sg74
Nsg75
Nsg76
I382478348
sg77
Nsbag3
(g45
g5
Ntp314
Rp315
(dp316
g10
Nsg49
Nsg50
Nsg51
Nsg52
Nsg53
Nsg32
Nsg54
Nsg55
Nsg56
Nsg57
Nsg58
Nsg59
Nsg60
Nsg61
Nsg62
Nsg63
Nsg64
Nsg65
Nsg66
Nsg67
Nsg68
Nsg69
VOldNavy
p317
sg71
Nsg72
VOld Navy Official
p318
sg74
Nsg75
Nsg76
I18462539
sg77
Nsbasg83
Nsg84
V543925931422011393
p319
sg86
Nsg87
VRT @LexiiSorrentino: So excited to play white elephant! \U0001f385\U0001f418 I'm going to stay &amp; get a gift! Use #stealorstay, &amp; follow @OldNavy  ... https:/\u2026
p320
sg89
I00
sg90
Ven
p321
sg92
g3
(g45
g5
Ntp322
Rp323
(dp324
g10
VTexas
p325
sg49
V333333
p326
sg50
Ven
p327
sg51
VCentral Time (US & Canada)
p328
sg52
I88
sg53
I8519
sg32
VFri Apr 15 20:28:15 +0000 2011
p329
sg54
I00
sg55
g101
sg56
Vhttps://abs.twimg.com/sticky/default_profile_images/default_profile_0_normal.png
p330
sg57
I556
sg58
I55
sg59
I-21600
sg60
Nsg61
I00
sg62
Nsg63
I00
sg64
I00
sg65
V0084B4
p331
sg66
I00
sg67
I00
sg68
Vhttp://abs.twimg.com/images/themes/theme1/bg.png
p332
sg69
Vcindycroom
p333
sg71
I5
sg72
VCindy C.
p334
sg74
VDDEEF6
p335
sg75
Nsg76
I282737119
sg77
VC0DEED
p336
sbsg109
I49
sg110
V<a href="http://twitter.com" rel="nofollow">Twitter Web Client</a>
p337
sg112
(lp338
g3
(g114
g5
Ntp339
Rp340
(dp341
g118
Vhttps://t.co/yLof5T9x1U
p342
sg120
Vhttps://vine.co/v/O66XKQOLr0l
p343
sbasg76
I543925931422011393
sbag3
(g4
g5
Ntp344
Rp345
(dp346
g9
I0
sg10
Nsg11
Nsg12
(lp347
g3
(g14
g5
Ntp348
Rp349
(dp350
g18
V12DaysOfFandangoSweeps
p351
sbag3
(g14
g5
Ntp352
Rp353
(dp354
g18
Vsweeps
p355
sbasg24
I00
sg25
g3
(g4
g5
Ntp356
Rp357
(dp358
g9
I141
sg10
Nsg11
Nsg12
(lp359
g3
(g14
g5
Ntp360
Rp361
(dp362
g18
V12DaysOfFandangoSweeps
p363
sbag3
(g14
g5
Ntp364
Rp365
(dp366
g18
Vsweeps
p367
sbasg24
I00
sg25
Nsg26
Nsg27
(lp368
sg29
Nsg30
Nsg31
Nsg32
VSat Dec 13 18:00:02 +0000 2014
p369
sg34
Nsg35
I00
sg36
Nsg38
Nsg39
Nsg40
Nsg41
I00
sg42
Nsg43
(lp370
sg83
Nsg84
V543827699773747200
p371
sg86
Nsg87
V12 days, 12 giveaways. Be on the lookout, it all starts today! #12DaysOfFandangoSweeps http://t.co/5yMCTNP9i5\u000a(NoPurNec 18+ USres) #sweeps
p372
sg89
I00
sg90
Ven
p373
sg92
g3
(g45
g5
Ntp374
Rp375
(dp376
g10
VLos Angeles
p377
sg49
V333333
p378
sg50
Ven
p379
sg51
VPacific Time (US & Canada)
p380
sg52
I153705
sg53
I15143
sg32
VMon Jun 02 18:52:51 +0000 2008
p381
sg54
I01
sg55
VWelcome to the official Twitter page for Fandango. We're tweeting the latest movie news, trailers & giveaways. Buy your movie tickets at http://t.co/pItjdWqzIJ!
p382
sg56
Vhttps://pbs.twimg.com/profile_images/474231151033200641/sdlhhJ7c_normal.png
p383
sg57
I884
sg58
I2521
sg59
I-28800
sg60
Nsg61
I00
sg62
Vhttps://pbs.twimg.com/profile_banners/14983499/1399567867
p384
sg63
I00
sg64
I00
sg65
V3478C1
p385
sg66
I01
sg67
I00
sg68
Vhttp://pbs.twimg.com/profile_background_images/455821305225297922/1bgVOxsL.png
p386
sg69
VFandango
p387
sg71
I1977
sg72
VFandango
p388
sg74
VDDEEF6
p389
sg75
Vhttp://t.co/NxhcPQj26a
p390
sg76
I14983499
sg77
V150000
p391
sbsg109
I220
sg110
V<a href="http://tra.cx" rel="nofollow">tracx platform</a>
p392
sg112
(lp393
g3
(g114
g5
Ntp394
Rp395
(dp396
g118
Vhttp://t.co/5yMCTNP9i5
p397
sg120
Vhttp://fandan.co/12days
p398
sbasg76
I543827699773747200
sbsg26
Nsg27
(lp399
sg29
Nsg30
Nsg31
Nsg32
VSun Dec 14 00:24:52 +0000 2014
p400
sg34
Nsg35
I00
sg36
Nsg38
Nsg39
Nsg40
Nsg41
I00
sg42
Nsg43
(lp401
g3
(g45
g5
Ntp402
Rp403
(dp404
g10
Nsg49
Nsg50
Nsg51
Nsg52
Nsg53
Nsg32
Nsg54
Nsg55
Nsg56
Nsg57
Nsg58
Nsg59
Nsg60
Nsg61
Nsg62
Nsg63
Nsg64
Nsg65
Nsg66
Nsg67
Nsg68
Nsg69
VFandango
p405
sg71
Nsg72
VFandango
p406
sg74
Nsg75
Nsg76
I14983499
sg77
Nsbasg83
Nsg84
V543924545955328000
p407
sg86
Nsg87
VRT @Fandango: 12 days, 12 giveaways. Be on the lookout, it all starts today! #12DaysOfFandangoSweeps http://t.co/5yMCTNP9i5\u000a(NoPurNec 18+ U\u2026
p408
sg89
I00
sg90
Ven
p409
sg92
g3
(g45
g5
Ntp410
Rp411
(dp412
g10
VTexas
p413
sg49
V333333
p414
sg50
Ven
p415
sg51
VCentral Time (US & Canada)
p416
sg52
I88
sg53
I8519
sg32
VFri Apr 15 20:28:15 +0000 2011
p417
sg54
I00
sg55
g101
sg56
Vhttps://abs.twimg.com/sticky/default_profile_images/default_profile_0_normal.png
p418
sg57
I556
sg58
I55
sg59
I-21600
sg60
Nsg61
I00
sg62
Nsg63
I00
sg64
I00
sg65
V0084B4
p419
sg66
I00
sg67
I00
sg68
Vhttp://abs.twimg.com/images/themes/theme1/bg.png
p420
sg69
Vcindycroom
p421
sg71
I5
sg72
VCindy C.
p422
sg74
VDDEEF6
p423
sg75
Nsg76
I282737119
sg77
VC0DEED
p424
sbsg109
I220
sg110
V<a href="http://twitter.com" rel="nofollow">Twitter Web Client</a>
p425
sg112
(lp426
g3
(g114
g5
Ntp427
Rp428
(dp429
g118
Vhttp://t.co/5yMCTNP9i5
p430
sg120
Vhttp://fandan.co/12days
p431
sbasg76
I543924545955328000
sbag3
(g4
g5
Ntp432
Rp433
(dp434
g9
I0
sg10
Nsg11
Nsg12
(lp435
g3
(g14
g5
Ntp436
Rp437
(dp438
g18
V12DaysOfFandangoSweeps
p439
sbag3
(g14
g5
Ntp440
Rp441
(dp442
g18
VMockingjay
p443
sbasg24
I00
sg25
Nsg26
Nsg27
(lp444
sg29
Nsg30
Nsg31
Nsg32
VSun Dec 14 00:24:16 +0000 2014
p445
sg34
Nsg35
Nsg36
VFandango
p446
sg38
Nsg39
I14983499
sg40
Nsg41
I00
sg42
Nsg43
(lp447
g3
(g45
g5
Ntp448
Rp449
(dp450
g10
Nsg49
Nsg50
Nsg51
Nsg52
Nsg53
Nsg32
Nsg54
Nsg55
Nsg56
Nsg57
Nsg58
Nsg59
Nsg60
Nsg61
Nsg62
Nsg63
Nsg64
Nsg65
Nsg66
Nsg67
Nsg68
Nsg69
VFandango
p451
sg71
Nsg72
VFandango
p452
sg74
Nsg75
Nsg76
I14983499
sg77
Nsbag3
(g45
g5
Ntp453
Rp454
(dp455
g10
Nsg49
Nsg50
Nsg51
Nsg52
Nsg53
Nsg32
Nsg54
Nsg55
Nsg56
Nsg57
Nsg58
Nsg59
Nsg60
Nsg61
Nsg62
Nsg63
Nsg64
Nsg65
Nsg66
Nsg67
Nsg68
Nsg69
VTheHungerGames
p456
sg71
Nsg72
VMockingjay - Part 1
p457
sg74
Nsg75
Nsg76
I227390518
sg77
Nsbasg83
Nsg84
V543924398370332672
p458
sg86
I543889865189122048
sg87
V@Fandango @TheHungerGames MAGS #12DaysOfFandangoSweeps  #Mockingjay
p459
sg89
I00
sg90
Ven
p460
sg92
g3
(g45
g5
Ntp461
Rp462
(dp463
g10
VTexas
p464
sg49
V333333
p465
sg50
Ven
p466
sg51
VCentral Time (US & Canada)
p467
sg52
I88
sg53
I8519
sg32
VFri Apr 15 20:28:15 +0000 2011
p468
sg54
I00
sg55
g101
sg56
Vhttps://abs.twimg.com/sticky/default_profile_images/default_profile_0_normal.png
p469
sg57
I556
sg58
I55
sg59
I-21600
sg60
Nsg61
I00
sg62
Nsg63
I00
sg64
I00
sg65
V0084B4
p470
sg66
I00
sg67
I00
sg68
Vhttp://abs.twimg.com/images/themes/theme1/bg.png
p471
sg69
Vcindycroom
p472
sg71
I5
sg72
VCindy C.
p473
sg74
VDDEEF6
p474
sg75
Nsg76
I282737119
sg77
VC0DEED
p475
sbsg109
I0
sg110
V<a href="http://twitter.com" rel="nofollow">Twitter Web Client</a>
p476
sg112
(lp477
sg76
I543924398370332672
sbag3
(g4
g5
Ntp478
Rp479
(dp480
g9
I0
sg10
Nsg11
Nsg12
(lp481
g3
(g14
g5
Ntp482
Rp483
(dp484
g18
VHostessTip
p485
sbasg24
I00
sg25
Nsg26
Nsg27
(lp486
sg29
Nsg30
Nsg31
Nsg32
VSat Dec 13 17:14:49 +0000 2014
p487
sg34
Nsg35
Nsg36
VLandsEnd
p488
sg38
Nsg39
I16492352
sg40
Nsg41
I00
sg42
Nsg43
(lp489
g3
(g45
g5
Ntp490
Rp491
(dp492
g10
Nsg49
Nsg50
Nsg51
Nsg52
Nsg53
Nsg32
Nsg54
Nsg55
Nsg56
Nsg57
Nsg58
Nsg59
Nsg60
Nsg61
Nsg62
Nsg63
Nsg64
Nsg65
Nsg66
Nsg67
Nsg68
Nsg69
VLandsEnd
p493
sg71
Nsg72
VLandsEnd
p494
sg74
Nsg75
Nsg76
I16492352
sg77
Nsbasg83
Nsg84
V543816323575611392
p495
sg86
I543767373673545728
sg87
V@LandsEnd Make one spectacular dish and have recipe cards by dish for guests to take home #HostessTip
p496
sg89
I00
sg90
Ven
p497
sg92
g3
(g45
g5
Ntp498
Rp499
(dp500
g10
VTexas
p501
sg49
V333333
p502
sg50
Ven
p503
sg51
VCentral Time (US & Canada)
p504
sg52
I88
sg53
I8519
sg32
VFri Apr 15 20:28:15 +0000 2011
p505
sg54
I00
sg55
g101
sg56
Vhttps://abs.twimg.com/sticky/default_profile_images/default_profile_0_normal.png
p506
sg57
I556
sg58
I55
sg59
I-21600
sg60
Nsg61
I00
sg62
Nsg63
I00
sg64
I00
sg65
V0084B4
p507
sg66
I00
sg67
I00
sg68
Vhttp://abs.twimg.com/images/themes/theme1/bg.png
p508
sg69
Vcindycroom
p509
sg71
I5
sg72
VCindy C.
p510
sg74
VDDEEF6
p511
sg75
Nsg76
I282737119
sg77
VC0DEED
p512
sbsg109
I0
sg110
V<a href="http://twitter.com" rel="nofollow">Twitter Web Client</a>
p513
sg112
(lp514
sg76
I543816323575611392
sbag3
(g4
g5
Ntp515
Rp516
(dp517
g9
I0
sg10
Nsg11
Nsg12
(lp518
g3
(g14
g5
Ntp519
Rp520
(dp521
g18
VTryDry
p522
sbag3
(g14
g5
Ntp523
Rp524
(dp525
g18
VEntry
p526
sbasg24
I00
sg25
g3
(g4
g5
Ntp527
Rp528
(dp529
g9
I137
sg10
Nsg11
Nsg12
(lp530
g3
(g14
g5
Ntp531
Rp532
(dp533
g18
VTryDry
p534
sbag3
(g14
g5
Ntp535
Rp536
(dp537
g18
VEntry
p538
sbasg24
I00
sg25
Nsg26
Nsg27
(lp539
sg29
Nsg30
Nsg31
Nsg32
VMon Dec 01 17:46:12 +0000 2014
p540
sg34
(dp541
Vfollowers
p542
I00
ssg35
I00
sg36
Nsg38
Nsg39
Nsg40
Nsg41
I00
sg42
Nsg43
(lp543
sg83
Nsg84
V539475566496215041
p544
sg86
Nsg87
VIt\u2019s time to #TryDry! RT &amp; you can instantly WIN 1 of 100s of prizes #Entry 18+NoPurNec12/1-30 http://t.co/6qYD46K5RI http://t.co/8jGpprWjKj
p545
sg89
I00
sg90
Ven
p546
sg92
g3
(g45
g5
Ntp547
Rp548
(dp549
g10
g101
sg49
V333333
p550
sg50
Ven
p551
sg51
VEastern Time (US & Canada)
p552
sg52
I59115
sg53
I12000
sg32
VThu May 07 14:31:41 +0000 2009
p553
sg54
I01
sg55
VFor those who DO, we say DO:MORE.
p554
sg56
Vhttps://pbs.twimg.com/profile_images/423476238934487040/Zvzce5GU_normal.jpeg
p555
sg57
I765
sg58
I2207
sg59
I-18000
sg60
Nsg61
I00
sg62
Vhttps://pbs.twimg.com/profile_banners/38440946/1417444996
p556
sg63
I00
sg64
I00
sg65
V99D0F1
p557
sg66
I00
sg67
I00
sg68
Vhttp://pbs.twimg.com/profile_background_images/378800000169409816/I627-OUS.jpeg
p558
sg69
VDegreeWomen
p559
sg71
I124
sg72
VDegree Women
p560
sg74
V755BA6
p561
sg75
Vhttp://t.co/wY9RxW3Apu
p562
sg76
I38440946
sg77
V483D37
p563
sbsg109
I1108
sg110
V<a href="https://ads.twitter.com" rel="nofollow">Twitter Ads</a>
p564
sg112
(lp565
g3
(g114
g5
Ntp566
Rp567
(dp568
g118
Vhttp://t.co/6qYD46K5RI
p569
sg120
Vhttp://Bit.ly/ClickForRules
p570
sbag3
(g114
g5
Ntp571
Rp572
(dp573
g118
Vhttp://t.co/8jGpprWjKj
p574
sg120
Vhttp://youtu.be/vaqC5kvUDkk
p575
sbasg76
I539475566496215041
sbsg26
Nsg27
(lp576
sg29
Nsg30
Nsg31
Nsg32
VSat Dec 13 16:48:52 +0000 2014
p577
sg34
Nsg35
I00
sg36
Nsg38
Nsg39
Nsg40
Nsg41
I00
sg42
Nsg43
(lp578
g3
(g45
g5
Ntp579
Rp580
(dp581
g10
Nsg49
Nsg50
Nsg51
Nsg52
Nsg53
Nsg32
Nsg54
Nsg55
Nsg56
Nsg57
Nsg58
Nsg59
Nsg60
Nsg61
Nsg62
Nsg63
Nsg64
Nsg65
Nsg66
Nsg67
Nsg68
Nsg69
VDegreeWomen
p582
sg71
Nsg72
VDegree Women
p583
sg74
Nsg75
Nsg76
I38440946
sg77
Nsbasg83
Nsg84
V543809793723756545
p584
sg86
Nsg87
VRT @DegreeWomen: It\u2019s time to #TryDry! RT &amp; you can instantly WIN 1 of 100s of prizes #Entry 18+NoPurNec12/1-30 http://t.co/6qYD46K5RI http\u2026
p585
sg89
I00
sg90
Ven
p586
sg92
g3
(g45
g5
Ntp587
Rp588
(dp589
g10
VTexas
p590
sg49
V333333
p591
sg50
Ven
p592
sg51
VCentral Time (US & Canada)
p593
sg52
I88
sg53
I8519
sg32
VFri Apr 15 20:28:15 +0000 2011
p594
sg54
I00
sg55
g101
sg56
Vhttps://abs.twimg.com/sticky/default_profile_images/default_profile_0_normal.png
p595
sg57
I556
sg58
I55
sg59
I-21600
sg60
Nsg61
I00
sg62
Nsg63
I00
sg64
I00
sg65
V0084B4
p596
sg66
I00
sg67
I00
sg68
Vhttp://abs.twimg.com/images/themes/theme1/bg.png
p597
sg69
Vcindycroom
p598
sg71
I5
sg72
VCindy C.
p599
sg74
VDDEEF6
p600
sg75
Nsg76
I282737119
sg77
VC0DEED
p601
sbsg109
I1108
sg110
V<a href="http://twitter.com" rel="nofollow">Twitter Web Client</a>
p602
sg112
(lp603
g3
(g114
g5
Ntp604
Rp605
(dp606
g118
Vhttp://t.co/6qYD46K5RI
p607
sg120
Vhttp://Bit.ly/ClickForRules
p608
sbag3
(g114
g5
Ntp609
Rp610
(dp611
g118
Vhttp://t.co/8jGpprWjKj
p612
sg120
Vhttp://youtu.be/vaqC5kvUDkk
p613
sbasg76
I543809793723756545
sbag3
(g4
g5
Ntp614
Rp615
(dp616
g9
I0
sg10
Nsg11
Nsg12
(lp617
g3
(g14
g5
Ntp618
Rp619
(dp620
g18
VTryDry
p621
sbag3
(g14
g5
Ntp622
Rp623
(dp624
g18
VEntry
p625
sbasg24
I00
sg25
g3
(g4
g5
Ntp626
Rp627
(dp628
g9
I686
sg10
Nsg11
Nsg12
(lp629
g3
(g14
g5
Ntp630
Rp631
(dp632
g18
VTryDry
p633
sbag3
(g14
g5
Ntp634
Rp635
(dp636
g18
VEntry
p637
sbasg24
I00
sg25
Nsg26
Nsg27
(lp638
sg29
Nsg30
Nsg31
Nsg32
VMon Dec 01 19:56:38 +0000 2014
p639
sg34
Nsg35
I00
sg36
Nsg38
Nsg39
Nsg40
Nsg41
I00
sg42
Nsg43
(lp640
g3
(g45
g5
Ntp641
Rp642
(dp643
g10
Nsg49
Nsg50
Nsg51
Nsg52
Nsg53
Nsg32
Nsg54
Nsg55
Nsg56
Nsg57
Nsg58
Nsg59
Nsg60
Nsg61
Nsg62
Nsg63
Nsg64
Nsg65
Nsg66
Nsg67
Nsg68
Nsg69
VKenMarino
p644
sg71
Nsg72
VKen Marino
p645
sg74
Nsg75
Nsg76
I310109265
sg77
Nsbasg83
Nsg84
V539508391560114176
p646
sg86
Nsg87
VWatch @KenMarino #TryDry http://t.co/4lb8574Mfw\u000aRT &amp; you cld win 1of100s of instant prizes #Entry 18+NoPurNec12/1-30 http://t.co/txfU93TyGk
p647
sg89
I00
sg90
Ven
p648
sg92
g3
(g45
g5
Ntp649
Rp650
(dp651
g10
g101
sg49
V333333
p652
sg50
Ven
p653
sg51
VEastern Time (US & Canada)
p654
sg52
I132923
sg53
I52261
sg32
VFri Feb 06 00:36:37 +0000 2009
p655
sg54
I01
sg55
VExperience AXE Redesigned and own it, seven days a week..
p656
sg56
Vhttps://pbs.twimg.com/profile_images/519917611249717248/yqvDaaX0_normal.jpeg
p657
sg57
I699
sg58
I292
sg59
I-18000
sg60
Nsg61
I00
sg62
Vhttps://pbs.twimg.com/profile_banners/20205854/1412793022
p658
sg63
I00
sg64
I00
sg65
V5C4209
p659
sg66
I01
sg67
I00
sg68
Vhttp://pbs.twimg.com/profile_background_images/378800000169905468/QtyPTwBg.jpeg
p660
sg69
VAXE
p661
sg71
I572
sg72
VAXE
p662
sg74
VEFEFEF
p663
sg75
Vhttp://t.co/oV2UD0blBH
p664
sg76
I20205854
sg77
V131516
p665
sbsg109
I3482
sg110
V<a href="http://twitter.com" rel="nofollow">Twitter Web Client</a>
p666
sg112
(lp667
g3
(g114
g5
Ntp668
Rp669
(dp670
g118
Vhttp://t.co/4lb8574Mfw
p671
sg120
Vhttp://youtu.be/qjmE2Ry-r9Y
p672
sbag3
(g114
g5
Ntp673
Rp674
(dp675
g118
Vhttp://t.co/txfU93TyGk
p676
sg120
Vhttp://bit.ly/ClickForRules
p677
sbasg76
I539508391560114176
sbsg26
Nsg27
(lp678
sg29
Nsg30
Nsg31
Nsg32
VSat Dec 13 16:48:32 +0000 2014
p679
sg34
Nsg35
I00
sg36
Nsg38
Nsg39
Nsg40
Nsg41
I00
sg42
Nsg43
(lp680
g3
(g45
g5
Ntp681
Rp682
(dp683
g10
Nsg49
Nsg50
Nsg51
Nsg52
Nsg53
Nsg32
Nsg54
Nsg55
Nsg56
Nsg57
Nsg58
Nsg59
Nsg60
Nsg61
Nsg62
Nsg63
Nsg64
Nsg65
Nsg66
Nsg67
Nsg68
Nsg69
VAXE
p684
sg71
Nsg72
VAXE
p685
sg74
Nsg75
Nsg76
I20205854
sg77
Nsbag3
(g45
g5
Ntp686
Rp687
(dp688
g10
Nsg49
Nsg50
Nsg51
Nsg52
Nsg53
Nsg32
Nsg54
Nsg55
Nsg56
Nsg57
Nsg58
Nsg59
Nsg60
Nsg61
Nsg62
Nsg63
Nsg64
Nsg65
Nsg66
Nsg67
Nsg68
Nsg69
VKenMarino
p689
sg71
Nsg72
VKen Marino
p690
sg74
Nsg75
Nsg76
I310109265
sg77
Nsbasg83
Nsg84
V543809706876497921
p691
sg86
Nsg87
VRT @AXE: Watch @KenMarino #TryDry http://t.co/4lb8574Mfw\u000aRT &amp; you cld win 1of100s of instant prizes #Entry 18+NoPurNec12/1-30 http://t.co/t\u2026
p692
sg89
I00
sg90
Ven
p693
sg92
g3
(g45
g5
Ntp694
Rp695
(dp696
g10
VTexas
p697
sg49
V333333
p698
sg50
Ven
p699
sg51
VCentral Time (US & Canada)
p700
sg52
I88
sg53
I8519
sg32
VFri Apr 15 20:28:15 +0000 2011
p701
sg54
I00
sg55
g101
sg56
Vhttps://abs.twimg.com/sticky/default_profile_images/default_profile_0_normal.png
p702
sg57
I556
sg58
I55
sg59
I-21600
sg60
Nsg61
I00
sg62
Nsg63
I00
sg64
I00
sg65
V0084B4
p703
sg66
I00
sg67
I00
sg68
Vhttp://abs.twimg.com/images/themes/theme1/bg.png
p704
sg69
Vcindycroom
p705
sg71
I5
sg72
VCindy C.
p706
sg74
VDDEEF6
p707
sg75
Nsg76
I282737119
sg77
VC0DEED
p708
sbsg109
I3482
sg110
V<a href="http://twitter.com" rel="nofollow">Twitter Web Client</a>
p709
sg112
(lp710
g3
(g114
g5
Ntp711
Rp712
(dp713
g118
Vhttp://t.co/4lb8574Mfw
p714
sg120
Vhttp://youtu.be/qjmE2Ry-r9Y
p715
sbag3
(g114
g5
Ntp716
Rp717
(dp718
g118
Vhttp://t.co/txfU93TyGk
p719
sg120
Vhttp://bit.ly/ClickForRules
p720
sbasg76
I543809706876497921
sbag3
(g4
g5
Ntp721
Rp722
(dp723
g9
I0
sg10
Nsg11
Nsg12
(lp724
g3
(g14
g5
Ntp725
Rp726
(dp727
g18
Vstealorstay
p728
sbasg24
I00
sg25
g3
(g4
g5
Ntp729
Rp730
(dp731
g9
I231
sg10
Nsg11
Nsg12
(lp732
g3
(g14
g5
Ntp733
Rp734
(dp735
g18
Vstealorstay
p736
sbasg24
I00
sg25
Nsg26
Nsg27
(lp737
sg29
Nsg30
Nsg31
Nsg32
VSat Dec 13 00:31:04 +0000 2014
p738
sg34
Nsg35
I00
sg36
Nsg38
Nsg39
Nsg40
Nsg41
I00
sg42
Nsg43
(lp739
sg83
Nsg84
V543563720605986817
p740
sg86
Nsg87
VHey big spender, RT for a chance to win a $1000 shopping spree! #stealorstay http://t.co/bRwHg0EUbq https://t.co/RtLeWbeKZW
p741
sg89
I00
sg90
Ven
p742
sg92
g3
(g45
g5
Ntp743
Rp744
(dp745
g10
g101
sg49
V333333
p746
sg50
Ven
p747
sg51
VPacific Time (US & Canada)
p748
sg52
I270849
sg53
I12205
sg32
VMon Dec 29 22:56:38 +0000 2008
p749
sg54
I01
sg55
VFashion for the people. Need customer service? Please tweet @ONCustServ or call 1-800-OLD-NAVY.
p750
sg56
Vhttps://pbs.twimg.com/profile_images/537017729849360384/JAyPB3mU_normal.png
p751
sg57
I3109
sg58
I3835
sg59
I-28800
sg60
Nsg61
I00
sg62
Vhttps://pbs.twimg.com/profile_banners/18462539/1417722700
p752
sg63
I00
sg64
I01
sg65
V008DB8
p753
sg66
I00
sg67
I00
sg68
Vhttp://pbs.twimg.com/profile_background_images/466999282113855488/5WwjzFxp.jpeg
p754
sg69
VOldNavy
p755
sg71
I2452
sg72
VOld Navy Official
p756
sg74
VFDDC46
p757
sg75
Vhttp://t.co/Ulj6zQnMVP
p758
sg76
I18462539
sg77
VFFFFFF
p759
sbsg109
I1506
sg110
V<a href="http://twitter.com" rel="nofollow">Twitter Web Client</a>
p760
sg112
(lp761
g3
(g114
g5
Ntp762
Rp763
(dp764
g118
Vhttp://t.co/bRwHg0EUbq
p765
sg120
Vhttp://oldnvy.me/1yYvlnz
p766
sbag3
(g114
g5
Ntp767
Rp768
(dp769
g118
Vhttps://t.co/RtLeWbeKZW
p770
sg120
Vhttps://vine.co/v/O6gZF07UghU
p771
sbasg76
I543563720605986817
sbsg26
Nsg27
(lp772
sg29
Nsg30
Nsg31
Nsg32
VSat Dec 13 16:47:25 +0000 2014
p773
sg34
Nsg35
I00
sg36
Nsg38
Nsg39
Nsg40
Nsg41
I00
sg42
Nsg43
(lp774
g3
(g45
g5
Ntp775
Rp776
(dp777
g10
Nsg49
Nsg50
Nsg51
Nsg52
Nsg53
Nsg32
Nsg54
Nsg55
Nsg56
Nsg57
Nsg58
Nsg59
Nsg60
Nsg61
Nsg62
Nsg63
Nsg64
Nsg65
Nsg66
Nsg67
Nsg68
Nsg69
VOldNavy
p778
sg71
Nsg72
VOld Navy Official
p779
sg74
Nsg75
Nsg76
I18462539
sg77
Nsbasg83
Nsg84
V543809427565211648
p780
sg86
Nsg87
VRT @OldNavy: Hey big spender, RT for a chance to win a $1000 shopping spree! #stealorstay http://t.co/bRwHg0EUbq https://t.co/RtLeWbeKZW
p781
sg89
I00
sg90
Ven
p782
sg92
g3
(g45
g5
Ntp783
Rp784
(dp785
g10
VTexas
p786
sg49
V333333
p787
sg50
Ven
p788
sg51
VCentral Time (US & Canada)
p789
sg52
I88
sg53
I8519
sg32
VFri Apr 15 20:28:15 +0000 2011
p790
sg54
I00
sg55
g101
sg56
Vhttps://abs.twimg.com/sticky/default_profile_images/default_profile_0_normal.png
p791
sg57
I556
sg58
I55
sg59
I-21600
sg60
Nsg61
I00
sg62
Nsg63
I00
sg64
I00
sg65
V0084B4
p792
sg66
I00
sg67
I00
sg68
Vhttp://abs.twimg.com/images/themes/theme1/bg.png
p793
sg69
Vcindycroom
p794
sg71
I5
sg72
VCindy C.
p795
sg74
VDDEEF6
p796
sg75
Nsg76
I282737119
sg77
VC0DEED
p797
sbsg109
I1506
sg110
V<a href="http://twitter.com" rel="nofollow">Twitter Web Client</a>
p798
sg112
(lp799
g3
(g114
g5
Ntp800
Rp801
(dp802
g118
Vhttp://t.co/bRwHg0EUbq
p803
sg120
Vhttp://oldnvy.me/1yYvlnz
p804
sbag3
(g114
g5
Ntp805
Rp806
(dp807
g118
Vhttps://t.co/RtLeWbeKZW
p808
sg120
Vhttps://vine.co/v/O6gZF07UghU
p809
sbasg76
I543809427565211648
sbag3
(g4
g5
Ntp810
Rp811
(dp812
g9
I0
sg10
Nsg11
Nsg12
(lp813
g3
(g14
g5
Ntp814
Rp815
(dp816
g18
Vminutetipsweeps
p817
sbasg24
I00
sg25
Nsg26
Nsg27
(lp818
sg29
Nsg30
Nsg31
Nsg32
VSat Dec 13 16:46:46 +0000 2014
p819
sg34
Nsg35
Nsg36
Vminutemaid_us
p820
sg38
Nsg39
I213417597
sg40
Nsg41
I00
sg42
Nsg43
(lp821
g3
(g45
g5
Ntp822
Rp823
(dp824
g10
Nsg49
Nsg50
Nsg51
Nsg52
Nsg53
Nsg32
Nsg54
Nsg55
Nsg56
Nsg57
Nsg58
Nsg59
Nsg60
Nsg61
Nsg62
Nsg63
Nsg64
Nsg65
Nsg66
Nsg67
Nsg68
Nsg69
Vminutemaid_us
p825
sg71
Nsg72
VMinute Maid US
p826
sg74
Nsg75
Nsg76
I213417597
sg77
Nsbasg83
Nsg84
V543809263945400321
p827
sg86
Nsg87
V@minutemaid_us Holiday Entertaining, prepare this weekend and freeze it. #minutetipsweeps
p828
sg89
I00
sg90
Ven
p829
sg92
g3
(g45
g5
Ntp830
Rp831
(dp832
g10
VTexas
p833
sg49
V333333
p834
sg50
Ven
p835
sg51
VCentral Time (US & Canada)
p836
sg52
I88
sg53
I8519
sg32
VFri Apr 15 20:28:15 +0000 2011
p837
sg54
I00
sg55
g101
sg56
Vhttps://abs.twimg.com/sticky/default_profile_images/default_profile_0_normal.png
p838
sg57
I556
sg58
I55
sg59
I-21600
sg60
Nsg61
I00
sg62
Nsg63
I00
sg64
I00
sg65
V0084B4
p839
sg66
I00
sg67
I00
sg68
Vhttp://abs.twimg.com/images/themes/theme1/bg.png
p840
sg69
Vcindycroom
p841
sg71
I5
sg72
VCindy C.
p842
sg74
VDDEEF6
p843
sg75
Nsg76
I282737119
sg77
VC0DEED
p844
sbsg109
I0
sg110
V<a href="http://twitter.com" rel="nofollow">Twitter Web Client</a>
p845
sg112
(lp846
sg76
I543809263945400321
sbag3
(g4
g5
Ntp847
Rp848
(dp849
g9
I0
sg10
Nsg11
Nsg12
(lp850
g3
(g14
g5
Ntp851
Rp852
(dp853
g18
VItsMillerTime
p854
sbasg24
I00
sg25
Nsg26
Nsg27
(lp855
(dp856
Vexpanded_url
p857
Vhttp://twitter.com/cindycroom/status/543808604428832768/photo/1
p858
sVdisplay_url
p859
Vpic.twitter.com/CgCLZ0L1Bm
p860
sVurl
p861
Vhttp://t.co/CgCLZ0L1Bm
p862
sVmedia_url_https
p863
Vhttps://pbs.twimg.com/media/B4v_CyRIEAA27oG.jpg
p864
sVid_str
p865
V543808603346702336
p866
sVsizes
p867
(dp868
Vsmall
p869
(dp870
Vh
p871
I255
sVresize
p872
Vfit
p873
sVw
p874
I340
ssVlarge
p875
(dp876
Vh
p877
I768
sVresize
p878
Vfit
p879
sVw
p880
I1024
ssVmedium
p881
(dp882
Vh
p883
I450
sVresize
p884
Vfit
p885
sVw
p886
I600
ssVthumb
p887
(dp888
Vh
p889
I150
sVresize
p890
Vcrop
p891
sVw
p892
I150
sssVindices
p893
(lp894
I57
aI79
asVtype
p895
Vphoto
p896
sVid
p897
I543808603346702336
sVmedia_url
p898
Vhttp://pbs.twimg.com/media/B4v_CyRIEAA27oG.jpg
p899
sasg29
Nsg30
Nsg31
Nsg32
VSat Dec 13 16:44:09 +0000 2014
p900
sg34
Nsg35
I00
sg36
VMillerLite
p901
sg38
Nsg39
I509145315
sg40
Nsg41
I00
sg42
Nsg43
(lp902
g3
(g45
g5
Ntp903
Rp904
(dp905
g10
Nsg49
Nsg50
Nsg51
Nsg52
Nsg53
Nsg32
Nsg54
Nsg55
Nsg56
Nsg57
Nsg58
Nsg59
Nsg60
Nsg61
Nsg62
Nsg63
Nsg64
Nsg65
Nsg66
Nsg67
Nsg68
Nsg69
VMillerLite
p906
sg71
Nsg72
VMiller Lite
p907
sg74
Nsg75
Nsg76
I509145315
sg77
Nsbasg83
Nsg84
V543808604428832768
p908
sg86
Nsg87
V@MillerLite Stock up day for the holidays #ItsMillerTime http://t.co/CgCLZ0L1Bm
p909
sg89
I00
sg90
Ven
p910
sg92
g3
(g45
g5
Ntp911
Rp912
(dp913
g10
VTexas
p914
sg49
V333333
p915
sg50
Ven
p916
sg51
VCentral Time (US & Canada)
p917
sg52
I88
sg53
I8519
sg32
VFri Apr 15 20:28:15 +0000 2011
p918
sg54
I00
sg55
g101
sg56
Vhttps://abs.twimg.com/sticky/default_profile_images/default_profile_0_normal.png
p919
sg57
I556
sg58
I55
sg59
I-21600
sg60
Nsg61
I00
sg62
Nsg63
I00
sg64
I00
sg65
V0084B4
p920
sg66
I00
sg67
I00
sg68
Vhttp://abs.twimg.com/images/themes/theme1/bg.png
p921
sg69
Vcindycroom
p922
sg71
I5
sg72
VCindy C.
p923
sg74
VDDEEF6
p924
sg75
Nsg76
I282737119
sg77
VC0DEED
p925
sbsg109
I0
sg110
V<a href="http://twitter.com" rel="nofollow">Twitter Web Client</a>
p926
sg112
(lp927
sg76
I543808604428832768
sbag3
(g4
g5
Ntp928
Rp929
(dp930
g9
I0
sg10
Nsg11
Nsg12
(lp931
g3
(g14
g5
Ntp932
Rp933
(dp934
g18
Vwin
p935
sbag3
(g14
g5
Ntp936
Rp937
(dp938
g18
Vtheshoelover
p939
sbag3
(g14
g5
Ntp940
Rp941
(dp942
g18
Vfreeshoes
p943
sbasg24
I00
sg25
Nsg26
Nsg27
(lp944
sg29
Nsg30
Nsg31
Nsg32
VSat Dec 13 16:27:02 +0000 2014
p945
sg34
Nsg35
I00
sg36
Nsg38
Nsg39
Nsg40
Nsg41
I00
sg42
Nsg43
(lp946
g3
(g45
g5
Ntp947
Rp948
(dp949
g10
Nsg49
Nsg50
Nsg51
Nsg52
Nsg53
Nsg32
Nsg54
Nsg55
Nsg56
Nsg57
Nsg58
Nsg59
Nsg60
Nsg61
Nsg62
Nsg63
Nsg64
Nsg65
Nsg66
Nsg67
Nsg68
Nsg69
Vtheshoelover
p950
sg71
Nsg72
VThe Shoe Lover
p951
sg74
Nsg75
Nsg76
I139790337
sg77
Nsbasg83
Nsg84
V543804298925072385
p952
sg86
Nsg87
VEnter to #win FREE SHOES from @theshoelover Click Here Now! #theshoelover #freeshoes http://t.co/uQI8qZKGZl
p953
sg89
I00
sg90
Ven
p954
sg92
g3
(g45
g5
Ntp955
Rp956
(dp957
g10
VTexas
p958
sg49
V333333
p959
sg50
Ven
p960
sg51
VCentral Time (US & Canada)
p961
sg52
I88
sg53
I8519
sg32
VFri Apr 15 20:28:15 +0000 2011
p962
sg54
I00
sg55
g101
sg56
Vhttps://abs.twimg.com/sticky/default_profile_images/default_profile_0_normal.png
p963
sg57
I556
sg58
I55
sg59
I-21600
sg60
Nsg61
I00
sg62
Nsg63
I00
sg64
I00
sg65
V0084B4
p964
sg66
I00
sg67
I00
sg68
Vhttp://abs.twimg.com/images/themes/theme1/bg.png
p965
sg69
Vcindycroom
p966
sg71
I5
sg72
VCindy C.
p967
sg74
VDDEEF6
p968
sg75
Nsg76
I282737119
sg77
VC0DEED
p969
sbsg109
I0
sg110
V<a href="https://dev.twitter.com/docs/tfw" rel="nofollow">Twitter for Websites</a>
p970
sg112
(lp971
g3
(g114
g5
Ntp972
Rp973
(dp974
g118
Vhttp://t.co/uQI8qZKGZl
p975
sg120
Vhttp://theshoelover.com/win-free-shoes-shoe-lover-theshoelover/
p976
sbasg76
I543804298925072385
sbag3
(g4
g5
Ntp977
Rp978
(dp979
g9
I0
sg10
Nsg11
Nsg12
(lp980
g3
(g14
g5
Ntp981
Rp982
(dp983
g18
VGiftGorgeously
p984
sbag3
(g14
g5
Ntp985
Rp986
(dp987
g18
VSweeps
p988
sbasg24
I00
sg25
Nsg26
Nsg27
(lp989
sg29
Nsg30
Nsg31
Nsg32
VSat Dec 13 16:22:54 +0000 2014
p990
sg34
Nsg35
Nsg36
VULTA_Beauty
p991
sg38
Nsg39
I28134825
sg40
Nsg41
I00
sg42
Nsg43
(lp992
g3
(g45
g5
Ntp993
Rp994
(dp995
g10
Nsg49
Nsg50
Nsg51
Nsg52
Nsg53
Nsg32
Nsg54
Nsg55
Nsg56
Nsg57
Nsg58
Nsg59
Nsg60
Nsg61
Nsg62
Nsg63
Nsg64
Nsg65
Nsg66
Nsg67
Nsg68
Nsg69
VULTA_Beauty
p996
sg71
Nsg72
VULTA Beauty
p997
sg74
Nsg75
Nsg76
I28134825
sg77
Nsbasg83
Nsg84
V543803257601011713
p998
sg86
I543646514330206208
sg87
V@ULTA_Beauty the smell of PINE brings all the holiday memories back #GiftGorgeously  #Sweeps
p999
sg89
I00
sg90
Ven
p1000
sg92
g3
(g45
g5
Ntp1001
Rp1002
(dp1003
g10
VTexas
p1004
sg49
V333333
p1005
sg50
Ven
p1006
sg51
VCentral Time (US & Canada)
p1007
sg52
I88
sg53
I8519
sg32
VFri Apr 15 20:28:15 +0000 2011
p1008
sg54
I00
sg55
g101
sg56
Vhttps://abs.twimg.com/sticky/default_profile_images/default_profile_0_normal.png
p1009
sg57
I556
sg58
I55
sg59
I-21600
sg60
Nsg61
I00
sg62
Nsg63
I00
sg64
I00
sg65
V0084B4
p1010
sg66
I00
sg67
I00
sg68
Vhttp://abs.twimg.com/images/themes/theme1/bg.png
p1011
sg69
Vcindycroom
p1012
sg71
I5
sg72
VCindy C.
p1013
sg74
VDDEEF6
p1014
sg75
Nsg76
I282737119
sg77
VC0DEED
p1015
sbsg109
I0
sg110
V<a href="http://twitter.com" rel="nofollow">Twitter Web Client</a>
p1016
sg112
(lp1017
sg76
I543803257601011713
sbag3
(g4
g5
Ntp1018
Rp1019
(dp1020
g9
I0
sg10
Nsg11
Nsg12
(lp1021
g3
(g14
g5
Ntp1022
Rp1023
(dp1024
g18
Vwinabaggiveabag
p1025
sbasg24
I00
sg25
Nsg26
Nsg27
(lp1026
sg29
Nsg30
Nsg31
Nsg32
VSat Dec 13 15:58:27 +0000 2014
p1027
sg34
Nsg35
I00
sg36
Nsg38
Nsg39
Nsg40
Nsg41
I00
sg42
Nsg43
(lp1028
sg83
Nsg84
V543797104674484224
p1029
sg86
Nsg87
VI &lt;3 The Cheri Hobo in Rose by Emilie M. and I entered for a chance to #winabaggiveabag http://t.co/Bvlsyhb8eE
p1030
sg89
I00
sg90
Ven
p1031
sg92
g3
(g45
g5
Ntp1032
Rp1033
(dp1034
g10
VTexas
p1035
sg49
V333333
p1036
sg50
Ven
p1037
sg51
VCentral Time (US & Canada)
p1038
sg52
I88
sg53
I8519
sg32
VFri Apr 15 20:28:15 +0000 2011
p1039
sg54
I00
sg55
g101
sg56
Vhttps://abs.twimg.com/sticky/default_profile_images/default_profile_0_normal.png
p1040
sg57
I556
sg58
I55
sg59
I-21600
sg60
Nsg61
I00
sg62
Nsg63
I00
sg64
I00
sg65
V0084B4
p1041
sg66
I00
sg67
I00
sg68
Vhttp://abs.twimg.com/images/themes/theme1/bg.png
p1042
sg69
Vcindycroom
p1043
sg71
I5
sg72
VCindy C.
p1044
sg74
VDDEEF6
p1045
sg75
Nsg76
I282737119
sg77
VC0DEED
p1046
sbsg109
I0
sg110
V<a href="https://dev.twitter.com/docs/tfw" rel="nofollow">Twitter for Websites</a>
p1047
sg112
(lp1048
g3
(g114
g5
Ntp1049
Rp1050
(dp1051
g118
Vhttp://t.co/Bvlsyhb8eE
p1052
sg120
Vhttp://is.gd/dwD3SB
p1053
sbasg76
I543797104674484224
sbag3
(g4
g5
Ntp1054
Rp1055
(dp1056
g9
I0
sg10
Nsg11
Nsg12
(lp1057
g3
(g14
g5
Ntp1058
Rp1059
(dp1060
g18
V12DaysofKeurig
p1061
sbag3
(g14
g5
Ntp1062
Rp1063
(dp1064
g18
VGiveaway
p1065
sbasg24
I00
sg25
Nsg26
Nsg27
(lp1066
sg29
Nsg30
Nsg31
Nsg32
VSat Dec 13 15:05:29 +0000 2014
p1067
sg34
Nsg35
Nsg36
VCinnabon
p1068
sg38
Nsg39
I84708371
sg40
Nsg41
I00
sg42
Nsg43
(lp1069
g3
(g45
g5
Ntp1070
Rp1071
(dp1072
g10
Nsg49
Nsg50
Nsg51
Nsg52
Nsg53
Nsg32
Nsg54
Nsg55
Nsg56
Nsg57
Nsg58
Nsg59
Nsg60
Nsg61
Nsg62
Nsg63
Nsg64
Nsg65
Nsg66
Nsg67
Nsg68
Nsg69
VCinnabon
p1073
sg71
Nsg72
VCinnabon
p1074
sg74
Nsg75
Nsg76
I84708371
sg77
Nsbasg83
Nsg84
V543783776107900928
p1075
sg86
I543782688889786368
sg87
V@Cinnabon Afternoon for a treat #12DaysofKeurig  #Giveaway
p1076
sg89
I00
sg90
Ven
p1077
sg92
g3
(g45
g5
Ntp1078
Rp1079
(dp1080
g10
VTexas
p1081
sg49
V333333
p1082
sg50
Ven
p1083
sg51
VCentral Time (US & Canada)
p1084
sg52
I88
sg53
I8519
sg32
VFri Apr 15 20:28:15 +0000 2011
p1085
sg54
I00
sg55
g101
sg56
Vhttps://abs.twimg.com/sticky/default_profile_images/default_profile_0_normal.png
p1086
sg57
I556
sg58
I55
sg59
I-21600
sg60
Nsg61
I00
sg62
Nsg63
I00
sg64
I00
sg65
V0084B4
p1087
sg66
I00
sg67
I00
sg68
Vhttp://abs.twimg.com/images/themes/theme1/bg.png
p1088
sg69
Vcindycroom
p1089
sg71
I5
sg72
VCindy C.
p1090
sg74
VDDEEF6
p1091
sg75
Nsg76
I282737119
sg77
VC0DEED
p1092
sbsg109
I0
sg110
V<a href="http://twitter.com" rel="nofollow">Twitter Web Client</a>
p1093
sg112
(lp1094
sg76
I543783776107900928
sbag3
(g4
g5
Ntp1095
Rp1096
(dp1097
g9
I0
sg10
Nsg11
Nsg12
(lp1098
g3
(g14
g5
Ntp1099
Rp1100
(dp1101
g18
V201413HD
p1102
sbasg24
I00
sg25
Nsg26
Nsg27
(lp1103
sg29
Nsg30
Nsg31
Nsg32
VSat Dec 13 14:32:09 +0000 2014
p1104
sg34
Nsg35
Nsg36
VHarryandDavid
p1105
sg38
Nsg39
I21440100
sg40
Nsg41
I00
sg42
Nsg43
(lp1106
g3
(g45
g5
Ntp1107
Rp1108
(dp1109
g10
Nsg49
Nsg50
Nsg51
Nsg52
Nsg53
Nsg32
Nsg54
Nsg55
Nsg56
Nsg57
Nsg58
Nsg59
Nsg60
Nsg61
Nsg62
Nsg63
Nsg64
Nsg65
Nsg66
Nsg67
Nsg68
Nsg69
VHarryandDavid
p1110
sg71
Nsg72
VHarry & David
p1111
sg74
Nsg75
Nsg76
I21440100
sg77
Nsbasg83
Nsg84
V543775385583116288
p1112
sg86
I543722019091931136
sg87
V@HarryandDavid #201413HD
p1113
sg89
I00
sg90
Vund
p1114
sg92
g3
(g45
g5
Ntp1115
Rp1116
(dp1117
g10
VTexas
p1118
sg49
V333333
p1119
sg50
Ven
p1120
sg51
VCentral Time (US & Canada)
p1121
sg52
I88
sg53
I8519
sg32
VFri Apr 15 20:28:15 +0000 2011
p1122
sg54
I00
sg55
g101
sg56
Vhttps://abs.twimg.com/sticky/default_profile_images/default_profile_0_normal.png
p1123
sg57
I556
sg58
I55
sg59
I-21600
sg60
Nsg61
I00
sg62
Nsg63
I00
sg64
I00
sg65
V0084B4
p1124
sg66
I00
sg67
I00
sg68
Vhttp://abs.twimg.com/images/themes/theme1/bg.png
p1125
sg69
Vcindycroom
p1126
sg71
I5
sg72
VCindy C.
p1127
sg74
VDDEEF6
p1128
sg75
Nsg76
I282737119
sg77
VC0DEED
p1129
sbsg109
I0
sg110
V<a href="http://twitter.com" rel="nofollow">Twitter Web Client</a>
p1130
sg112
(lp1131
sg76
I543775385583116288
sbag3
(g4
g5
Ntp1132
Rp1133
(dp1134
g9
I0
sg10
Nsg11
Nsg12
(lp1135
g3
(g14
g5
Ntp1136
Rp1137
(dp1138
g18
VHostessTip
p1139
sbasg24
I00
sg25
Nsg26
Nsg27
(lp1140
sg29
Nsg30
Nsg31
Nsg32
VSat Dec 13 14:22:10 +0000 2014
p1141
sg34
Nsg35
Nsg36
VLandsEnd
p1142
sg38
Nsg39
I16492352
sg40
Nsg41
I00
sg42
Nsg43
(lp1143
g3
(g45
g5
Ntp1144
Rp1145
(dp1146
g10
Nsg49
Nsg50
Nsg51
Nsg52
Nsg53
Nsg32
Nsg54
Nsg55
Nsg56
Nsg57
Nsg58
Nsg59
Nsg60
Nsg61
Nsg62
Nsg63
Nsg64
Nsg65
Nsg66
Nsg67
Nsg68
Nsg69
VLandsEnd
p1147
sg71
Nsg72
VLandsEnd
p1148
sg74
Nsg75
Nsg76
I16492352
sg77
Nsbasg83
Nsg84
V543772873769623552
p1149
sg86
I543767373673545728
sg87
V@LandsEnd Only invite the amount of people you have comfortable seating for in your location #HostessTip
p1150
sg89
I00
sg90
Ven
p1151
sg92
g3
(g45
g5
Ntp1152
Rp1153
(dp1154
g10
VTexas
p1155
sg49
V333333
p1156
sg50
Ven
p1157
sg51
VCentral Time (US & Canada)
p1158
sg52
I88
sg53
I8519
sg32
VFri Apr 15 20:28:15 +0000 2011
p1159
sg54
I00
sg55
g101
sg56
Vhttps://abs.twimg.com/sticky/default_profile_images/default_profile_0_normal.png
p1160
sg57
I556
sg58
I55
sg59
I-21600
sg60
Nsg61
I00
sg62
Nsg63
I00
sg64
I00
sg65
V0084B4
p1161
sg66
I00
sg67
I00
sg68
Vhttp://abs.twimg.com/images/themes/theme1/bg.png
p1162
sg69
Vcindycroom
p1163
sg71
I5
sg72
VCindy C.
p1164
sg74
VDDEEF6
p1165
sg75
Nsg76
I282737119
sg77
VC0DEED
p1166
sbsg109
I0
sg110
V<a href="http://twitter.com" rel="nofollow">Twitter Web Client</a>
p1167
sg112
(lp1168
sg76
I543772873769623552
sbag3
(g4
g5
Ntp1169
Rp1170
(dp1171
g9
I0
sg10
Nsg11
Nsg12
(lp1172
g3
(g14
g5
Ntp1173
Rp1174
(dp1175
g18
VHostessTip
p1176
sbasg24
I00
sg25
Nsg26
Nsg27
(lp1177
sg29
Nsg30
Nsg31
Nsg32
VSat Dec 13 14:20:03 +0000 2014
p1178
sg34
Nsg35
Nsg36
VLandsEnd
p1179
sg38
Nsg39
I16492352
sg40
Nsg41
I00
sg42
Nsg43
(lp1180
g3
(g45
g5
Ntp1181
Rp1182
(dp1183
g10
Nsg49
Nsg50
Nsg51
Nsg52
Nsg53
Nsg32
Nsg54
Nsg55
Nsg56
Nsg57
Nsg58
Nsg59
Nsg60
Nsg61
Nsg62
Nsg63
Nsg64
Nsg65
Nsg66
Nsg67
Nsg68
Nsg69
VLandsEnd
p1184
sg71
Nsg72
VLandsEnd
p1185
sg74
Nsg75
Nsg76
I16492352
sg77
Nsbasg83
Nsg84
V543772342795919360
p1186
sg86
I543767373673545728
sg87
V@LandsEnd Have multiple choices of food and desert making sure that one doesn't include nuts or strawberries. #HostessTip
p1187
sg89
I00
sg90
Ven
p1188
sg92
g3
(g45
g5
Ntp1189
Rp1190
(dp1191
g10
VTexas
p1192
sg49
V333333
p1193
sg50
Ven
p1194
sg51
VCentral Time (US & Canada)
p1195
sg52
I88
sg53
I8519
sg32
VFri Apr 15 20:28:15 +0000 2011
p1196
sg54
I00
sg55
g101
sg56
Vhttps://abs.twimg.com/sticky/default_profile_images/default_profile_0_normal.png
p1197
sg57
I556
sg58
I55
sg59
I-21600
sg60
Nsg61
I00
sg62
Nsg63
I00
sg64
I00
sg65
V0084B4
p1198
sg66
I00
sg67
I00
sg68
Vhttp://abs.twimg.com/images/themes/theme1/bg.png
p1199
sg69
Vcindycroom
p1200
sg71
I5
sg72
VCindy C.
p1201
sg74
VDDEEF6
p1202
sg75
Nsg76
I282737119
sg77
VC0DEED
p1203
sbsg109
I0
sg110
V<a href="http://twitter.com" rel="nofollow">Twitter Web Client</a>
p1204
sg112
(lp1205
sg76
I543772342795919360
sbaa.