(lp0
S'stitchesintyme'
p1
a(lp2
ccopy_reg
_reconstructor
p3
(ctwitter.status
Status
p4
c__builtin__
object
p5
Ntp6
Rp7
(dp8
S'_favorite_count'
p9
I0
sS'_location'
p10
NsS'_withheld_scope'
p11
NsS'hashtags'
p12
(lp13
sS'_truncated'
p14
I00
sS'_retweeted_status'
p15
NsS'_withheld_copyright'
p16
NsS'media'
p17
(lp18
sS'_place'
p19
NsS'_contributors'
p20
NsS'_current_user_retweet'
p21
NsS'_created_at'
p22
VWed Dec 10 20:01:41 +0000 2014
p23
sS'_scopes'
p24
NsS'_possibly_sensitive'
p25
I00
sS'_in_reply_to_screen_name'
p26
NsS'_coordinates'
p27
NsS'_in_reply_to_user_id'
p28
NsS'_geo'
p29
NsS'_favorited'
p30
I00
sS'_withheld_in_countries'
p31
NsS'user_mentions'
p32
(lp33
g3
(ctwitter.user
User
p34
g5
Ntp35
Rp36
(dp37
g10
NsS'_profile_text_color'
p38
NsS'_lang'
p39
NsS'_time_zone'
p40
NsS'_followers_count'
p41
NsS'_statuses_count'
p42
Nsg22
NsS'_verified'
p43
NsS'_description'
p44
NsS'_profile_image_url'
p45
NsS'_friends_count'
p46
NsS'_favourites_count'
p47
NsS'_utc_offset'
p48
NsS'_status'
p49
NsS'_protected'
p50
NsS'_profile_banner_url'
p51
NsS'_notifications'
p52
NsS'_profile_background_tile'
p53
NsS'_profile_link_color'
p54
NsS'_geo_enabled'
p55
NsS'_contributors_enabled'
p56
NsS'_profile_background_image_url'
p57
NsS'_screen_name'
p58
VKnitPicks
p59
sS'_listed_count'
p60
NsS'_name'
p61
VKnit Picks staff
p62
sS'_profile_sidebar_fill_color'
p63
NsS'_url'
p64
NsS'_id'
p65
I44473771
sS'_profile_background_color'
p66
NsbasS'_now'
p67
NsS'_id_str'
p68
NsS'_in_reply_to_status_id'
p69
NsS'_text'
p70
VI just entered the @KnitPicks Facebook Fan contest! I hope I win ! Click here to enter too: http://t.co/o9XUBioGaA
p71
sS'_retweeted'
p72
I00
sS'lang'
p73
Ven
p74
sS'_user'
p75
g3
(g34
g5
Ntp76
Rp77
(dp78
g10
VBay City, Michigan
p79
sg38
V333333
p80
sg39
Ven
p81
sg40
VAtlantic Time (Canada)
p82
sg41
I7
sg42
I10
sg22
VFri Jun 08 16:43:33 +0000 2012
p83
sg43
I00
sg44
VYour alterations destination in Bay City!
p84
sg45
Vhttps://pbs.twimg.com/profile_images/2290138320/SITsign2s_normal.jpg
p85
sg46
I8
sg47
I0
sg48
I-14400
sg49
Nsg50
I00
sg51
Nsg52
I00
sg53
I00
sg54
V0084B4
p86
sg55
I00
sg56
I00
sg57
Vhttp://abs.twimg.com/images/themes/theme1/bg.png
p87
sg58
Vstitchesintyme
p88
sg60
I0
sg61
VStitches in Tyme
p89
sg63
VDDEEF6
p90
sg64
Vhttp://t.co/eLwruaBeHk
p91
sg65
I602978346
sg66
VC0DEED
p92
sbsS'_retweet_count'
p93
I0
sS'_source'
p94
V<a href="https://dev.twitter.com/docs/tfw" rel="nofollow">Twitter for Websites</a>
p95
sS'urls'
p96
(lp97
g3
(ctwitter.url
Url
p98
g5
Ntp99
Rp100
(dp101
S'url'
p102
Vhttp://t.co/o9XUBioGaA
p103
sS'expanded_url'
p104
Vhttp://woobox.com/myiq94/cieujg
p105
sbasg65
I542771152888684544
sbag3
(g4
g5
Ntp106
Rp107
(dp108
g9
I0
sg10
Nsg11
Nsg12
(lp109
g3
(ctwitter.hashtag
Hashtag
p110
g5
Ntp111
Rp112
(dp113
S'text'
p114
Vwin
p115
sbag3
(g110
g5
Ntp116
Rp117
(dp118
g114
Vgiveaway
p119
sbasg14
I00
sg15
Nsg16
Nsg17
(lp120
sg19
Nsg20
Nsg21
Nsg22
VMon Nov 04 22:32:22 +0000 2013
p121
sg24
Nsg25
I00
sg26
Nsg27
Nsg28
Nsg29
Nsg30
I00
sg31
Nsg32
(lp122
sg67
Nsg68
Nsg69
Nsg70
VI just entered to #win &amp; you can too: "$100 WAWAK Gift Certificate". Enter the #giveaway here: http://t.co/vXgb5I9M3b
p123
sg72
I00
sg73
Ven
p124
sg75
g3
(g34
g5
Ntp125
Rp126
(dp127
g10
VBay City, Michigan
p128
sg38
V333333
p129
sg39
Ven
p130
sg40
VAtlantic Time (Canada)
p131
sg41
I7
sg42
I10
sg22
VFri Jun 08 16:43:33 +0000 2012
p132
sg43
I00
sg44
VYour alterations destination in Bay City!
p133
sg45
Vhttps://pbs.twimg.com/profile_images/2290138320/SITsign2s_normal.jpg
p134
sg46
I8
sg47
I0
sg48
I-14400
sg49
Nsg50
I00
sg51
Nsg52
I00
sg53
I00
sg54
V0084B4
p135
sg55
I00
sg56
I00
sg57
Vhttp://abs.twimg.com/images/themes/theme1/bg.png
p136
sg58
Vstitchesintyme
p137
sg60
I0
sg61
VStitches in Tyme
p138
sg63
VDDEEF6
p139
sg64
Vhttp://t.co/eLwruaBeHk
p140
sg65
I602978346
sg66
VC0DEED
p141
sbsg93
I0
sg94
V<a href="https://dev.twitter.com/docs/tfw" rel="nofollow">Twitter for Websites</a>
p142
sg96
(lp143
g3
(g98
g5
Ntp144
Rp145
(dp146
g102
Vhttp://t.co/vXgb5I9M3b
p147
sg104
Vhttp://is.gd/m553WB
p148
sbasg65
I397491540160806913
sbag3
(g4
g5
Ntp149
Rp150
(dp151
g9
I0
sg10
Nsg11
Nsg12
(lp152
g3
(g110
g5
Ntp153
Rp154
(dp155
g114
VAshleyNGB
p156
sbasg14
I00
sg15
Nsg16
Nsg17
(lp157
sg19
Nsg20
Nsg21
Nsg22
VTue Feb 12 02:23:16 +0000 2013
p158
sg24
Nsg25
Nsg26
Nsg27
Nsg28
Nsg29
Nsg30
I00
sg31
Nsg32
(lp159
sg67
Nsg68
Nsg69
Nsg70
V#AshleyNGB
p160
sg72
I00
sg73
Vund
p161
sg75
g3
(g34
g5
Ntp162
Rp163
(dp164
g10
VBay City, Michigan
p165
sg38
V333333
p166
sg39
Ven
p167
sg40
VAtlantic Time (Canada)
p168
sg41
I7
sg42
I10
sg22
VFri Jun 08 16:43:33 +0000 2012
p169
sg43
I00
sg44
VYour alterations destination in Bay City!
p170
sg45
Vhttps://pbs.twimg.com/profile_images/2290138320/SITsign2s_normal.jpg
p171
sg46
I8
sg47
I0
sg48
I-14400
sg49
Nsg50
I00
sg51
Nsg52
I00
sg53
I00
sg54
V0084B4
p172
sg55
I00
sg56
I00
sg57
Vhttp://abs.twimg.com/images/themes/theme1/bg.png
p173
sg58
Vstitchesintyme
p174
sg60
I0
sg61
VStitches in Tyme
p175
sg63
VDDEEF6
p176
sg64
Vhttp://t.co/eLwruaBeHk
p177
sg65
I602978346
sg66
VC0DEED
p178
sbsg93
I0
sg94
V<a href="https://mobile.twitter.com" rel="nofollow">Mobile Web (M5)</a>
p179
sg96
(lp180
sg65
I301154472204304384
sbag3
(g4
g5
Ntp181
Rp182
(dp183
g9
I0
sg10
Nsg11
Nsg12
(lp184
sg14
I00
sg15
Nsg16
Nsg17
(lp185
sg19
Nsg20
Nsg21
Nsg22
VSun Jan 20 04:16:53 +0000 2013
p186
sg24
Nsg25
I00
sg26
Nsg27
Nsg28
Nsg29
Nsg30
I00
sg31
Nsg32
(lp187
sg67
Nsg68
Nsg69
Nsg70
VPrevent the labeling of physical illnesses as mental illnesses based on revised criteria of the DSM-5 in May 2013. http://t.co/hUs6Dg7s
p188
sg72
I00
sg73
Ven
p189
sg75
g3
(g34
g5
Ntp190
Rp191
(dp192
g10
VBay City, Michigan
p193
sg38
V333333
p194
sg39
Ven
p195
sg40
VAtlantic Time (Canada)
p196
sg41
I7
sg42
I10
sg22
VFri Jun 08 16:43:33 +0000 2012
p197
sg43
I00
sg44
VYour alterations destination in Bay City!
p198
sg45
Vhttps://pbs.twimg.com/profile_images/2290138320/SITsign2s_normal.jpg
p199
sg46
I8
sg47
I0
sg48
I-14400
sg49
Nsg50
I00
sg51
Nsg52
I00
sg53
I00
sg54
V0084B4
p200
sg55
I00
sg56
I00
sg57
Vhttp://abs.twimg.com/images/themes/theme1/bg.png
p201
sg58
Vstitchesintyme
p202
sg60
I0
sg61
VStitches in Tyme
p203
sg63
VDDEEF6
p204
sg64
Vhttp://t.co/eLwruaBeHk
p205
sg65
I602978346
sg66
VC0DEED
p206
sbsg93
I0
sg94
V<a href="https://dev.twitter.com/docs/tfw" rel="nofollow">Twitter for Websites</a>
p207
sg96
(lp208
g3
(g98
g5
Ntp209
Rp210
(dp211
g102
Vhttp://t.co/hUs6Dg7s
p212
sg104
Vhttp://wh.gov/md6g
p213
sbasg65
I292848145128366081
sbag3
(g4
g5
Ntp214
Rp215
(dp216
g9
I0
sg10
Nsg11
Nsg12
(lp217
g3
(g110
g5
Ntp218
Rp219
(dp220
g114
Vfedexgrantcontest
p221
sbasg14
I00
sg15
Nsg16
Nsg17
(lp222
sg19
Nsg20
Nsg21
Nsg22
VMon Oct 29 22:11:51 +0000 2012
p223
sg24
Nsg25
I00
sg26
Nsg27
Nsg28
Nsg29
Nsg30
I00
sg31
Nsg32
(lp224
sg67
Nsg68
Nsg69
Nsg70
VI just voted for a Stitches in Tyme in the Small Business Grant Contest from FedEx. #fedexgrantcontest http://t.co/jOCyDRrf
p225
sg72
I00
sg73
Ven
p226
sg75
g3
(g34
g5
Ntp227
Rp228
(dp229
g10
VBay City, Michigan
p230
sg38
V333333
p231
sg39
Ven
p232
sg40
VAtlantic Time (Canada)
p233
sg41
I7
sg42
I10
sg22
VFri Jun 08 16:43:33 +0000 2012
p234
sg43
I00
sg44
VYour alterations destination in Bay City!
p235
sg45
Vhttps://pbs.twimg.com/profile_images/2290138320/SITsign2s_normal.jpg
p236
sg46
I8
sg47
I0
sg48
I-14400
sg49
Nsg50
I00
sg51
Nsg52
I00
sg53
I00
sg54
V0084B4
p237
sg55
I00
sg56
I00
sg57
Vhttp://abs.twimg.com/images/themes/theme1/bg.png
p238
sg58
Vstitchesintyme
p239
sg60
I0
sg61
VStitches in Tyme
p240
sg63
VDDEEF6
p241
sg64
Vhttp://t.co/eLwruaBeHk
p242
sg65
I602978346
sg66
VC0DEED
p243
sbsg93
I0
sg94
V<a href="https://dev.twitter.com/docs/tfw" rel="nofollow">Twitter for Websites</a>
p244
sg96
(lp245
g3
(g98
g5
Ntp246
Rp247
(dp248
g102
Vhttp://t.co/jOCyDRrf
p249
sg104
Vhttp://bit.ly/RNxnSS
p250
sbasg65
I263040479015362561
sbag3
(g4
g5
Ntp251
Rp252
(dp253
g9
I0
sg10
Nsg11
Nsg12
(lp254
g3
(g110
g5
Ntp255
Rp256
(dp257
g114
VDrawtheline
p258
sbasg14
I00
sg15
Nsg16
Nsg17
(lp259
sg19
Nsg20
Nsg21
Nsg22
VFri Oct 19 19:30:27 +0000 2012
p260
sg24
Nsg25
I00
sg26
Nsg27
Nsg28
Nsg29
Nsg30
I00
sg31
Nsg32
(lp261
g3
(g34
g5
Ntp262
Rp263
(dp264
g10
Nsg38
Nsg39
Nsg40
Nsg41
Nsg42
Nsg22
Nsg43
Nsg44
Nsg45
Nsg46
Nsg47
Nsg48
Nsg49
Nsg50
Nsg51
Nsg52
Nsg53
Nsg54
Nsg55
Nsg56
Nsg57
Nsg58
VReproRights
p265
sg60
Nsg61
VCenterforReproRights
p266
sg63
Nsg64
Nsg65
I50310311
sg66
Nsbasg67
Nsg68
Nsg69
Nsg70
VI signed the Bill of @ReproRights &amp; Amy Poehler thanked me. What?! See for yourself. #Drawtheline &amp; make sure to sign. http://t.co/LAZLydLW
p267
sg72
I00
sg73
Ven
p268
sg75
g3
(g34
g5
Ntp269
Rp270
(dp271
g10
VBay City, Michigan
p272
sg38
V333333
p273
sg39
Ven
p274
sg40
VAtlantic Time (Canada)
p275
sg41
I7
sg42
I10
sg22
VFri Jun 08 16:43:33 +0000 2012
p276
sg43
I00
sg44
VYour alterations destination in Bay City!
p277
sg45
Vhttps://pbs.twimg.com/profile_images/2290138320/SITsign2s_normal.jpg
p278
sg46
I8
sg47
I0
sg48
I-14400
sg49
Nsg50
I00
sg51
Nsg52
I00
sg53
I00
sg54
V0084B4
p279
sg55
I00
sg56
I00
sg57
Vhttp://abs.twimg.com/images/themes/theme1/bg.png
p280
sg58
Vstitchesintyme
p281
sg60
I0
sg61
VStitches in Tyme
p282
sg63
VDDEEF6
p283
sg64
Vhttp://t.co/eLwruaBeHk
p284
sg65
I602978346
sg66
VC0DEED
p285
sbsg93
I0
sg94
V<a href="https://dev.twitter.com/docs/tfw" rel="nofollow">Twitter for Websites</a>
p286
sg96
(lp287
g3
(g98
g5
Ntp288
Rp289
(dp290
g102
Vhttp://t.co/LAZLydLW
p291
sg104
Vhttp://bit.ly/PTqCLp
p292
sbasg65
I259375980202840064
sbag3
(g4
g5
Ntp293
Rp294
(dp295
g9
I0
sg10
Nsg11
Nsg12
(lp296
g3
(g110
g5
Ntp297
Rp298
(dp299
g114
VUnlockBigBangTheory
p300
sbasg14
I00
sg15
Nsg16
Nsg17
(lp301
sg19
Nsg20
Nsg21
Nsg22
VTue Aug 28 17:01:53 +0000 2012
p302
sg24
Nsg25
I00
sg26
Nsg27
Nsg28
Nsg29
Nsg30
I00
sg31
Nsg32
(lp303
sg67
Nsg68
Nsg69
Nsg70
VI want to see an exclusive photo from "The Big Bang Theory".  RT to help me #UnlockBigBangTheory http://t.co/t0fwiQ9X
p304
sg72
I00
sg73
Ven
p305
sg75
g3
(g34
g5
Ntp306
Rp307
(dp308
g10
VBay City, Michigan
p309
sg38
V333333
p310
sg39
Ven
p311
sg40
VAtlantic Time (Canada)
p312
sg41
I7
sg42
I10
sg22
VFri Jun 08 16:43:33 +0000 2012
p313
sg43
I00
sg44
VYour alterations destination in Bay City!
p314
sg45
Vhttps://pbs.twimg.com/profile_images/2290138320/SITsign2s_normal.jpg
p315
sg46
I8
sg47
I0
sg48
I-14400
sg49
Nsg50
I00
sg51
Nsg52
I00
sg53
I00
sg54
V0084B4
p316
sg55
I00
sg56
I00
sg57
Vhttp://abs.twimg.com/images/themes/theme1/bg.png
p317
sg58
Vstitchesintyme
p318
sg60
I0
sg61
VStitches in Tyme
p319
sg63
VDDEEF6
p320
sg64
Vhttp://t.co/eLwruaBeHk
p321
sg65
I602978346
sg66
VC0DEED
p322
sbsg93
I0
sg94
V<a href="https://dev.twitter.com/docs/tfw" rel="nofollow">Twitter for Websites</a>
p323
sg96
(lp324
g3
(g98
g5
Ntp325
Rp326
(dp327
g102
Vhttp://t.co/t0fwiQ9X
p328
sg104
Vhttp://www.cbs.com/shows/fall-previews-2012/flock-to-unlock/
p329
sbasg65
I240494422750535681
sbag3
(g4
g5
Ntp330
Rp331
(dp332
g9
I0
sg10
Nsg11
Nsg12
(lp333
sg14
I00
sg15
Nsg16
Nsg17
(lp334
sg19
Nsg20
Nsg21
Nsg22
VThu Jun 14 19:13:57 +0000 2012
p335
sg24
Nsg25
I00
sg26
Nsg27
Nsg28
Nsg29
Nsg30
I00
sg31
Nsg32
(lp336
sg67
Nsg68
Nsg69
Nsg70
VMission: Small Business\u2120: http://t.co/jPTesq7x 16 more days left to vote!
p337
sg72
I00
sg73
Ven
p338
sg75
g3
(g34
g5
Ntp339
Rp340
(dp341
g10
VBay City, Michigan
p342
sg38
V333333
p343
sg39
Ven
p344
sg40
VAtlantic Time (Canada)
p345
sg41
I7
sg42
I10
sg22
VFri Jun 08 16:43:33 +0000 2012
p346
sg43
I00
sg44
VYour alterations destination in Bay City!
p347
sg45
Vhttps://pbs.twimg.com/profile_images/2290138320/SITsign2s_normal.jpg
p348
sg46
I8
sg47
I0
sg48
I-14400
sg49
Nsg50
I00
sg51
Nsg52
I00
sg53
I00
sg54
V0084B4
p349
sg55
I00
sg56
I00
sg57
Vhttp://abs.twimg.com/images/themes/theme1/bg.png
p350
sg58
Vstitchesintyme
p351
sg60
I0
sg61
VStitches in Tyme
p352
sg63
VDDEEF6
p353
sg64
Vhttp://t.co/eLwruaBeHk
p354
sg65
I602978346
sg66
VC0DEED
p355
sbsg93
I0
sg94
V<a href="https://dev.twitter.com/docs/tfw" rel="nofollow">Twitter for Websites</a>
p356
sg96
(lp357
g3
(g98
g5
Ntp358
Rp359
(dp360
g102
Vhttp://t.co/jPTesq7x
p361
sg104
Vhttp://bit.ly/LO8RQ2
p362
sbasg65
I213348569829216256
sbag3
(g4
g5
Ntp363
Rp364
(dp365
g9
I0
sg10
Nsg11
Nsg12
(lp366
sg14
I00
sg15
Nsg16
Nsg17
(lp367
sg19
Nsg20
Nsg21
Nsg22
VFri Jun 08 17:14:13 +0000 2012
p368
sg24
Nsg25
I00
sg26
Nsg27
Nsg28
Nsg29
Nsg30
I00
sg31
Nsg32
(lp369
sg67
Nsg68
Nsg69
Nsg70
VMission: Small Business\u2120: http://t.co/juUyUEqp
p370
sg72
I00
sg73
Ven
p371
sg75
g3
(g34
g5
Ntp372
Rp373
(dp374
g10
VBay City, Michigan
p375
sg38
V333333
p376
sg39
Ven
p377
sg40
VAtlantic Time (Canada)
p378
sg41
I7
sg42
I10
sg22
VFri Jun 08 16:43:33 +0000 2012
p379
sg43
I00
sg44
VYour alterations destination in Bay City!
p380
sg45
Vhttps://pbs.twimg.com/profile_images/2290138320/SITsign2s_normal.jpg
p381
sg46
I8
sg47
I0
sg48
I-14400
sg49
Nsg50
I00
sg51
Nsg52
I00
sg53
I00
sg54
V0084B4
p382
sg55
I00
sg56
I00
sg57
Vhttp://abs.twimg.com/images/themes/theme1/bg.png
p383
sg58
Vstitchesintyme
p384
sg60
I0
sg61
VStitches in Tyme
p385
sg63
VDDEEF6
p386
sg64
Vhttp://t.co/eLwruaBeHk
p387
sg65
I602978346
sg66
VC0DEED
p388
sbsg93
I0
sg94
V<a href="https://dev.twitter.com/docs/tfw" rel="nofollow">Twitter for Websites</a>
p389
sg96
(lp390
g3
(g98
g5
Ntp391
Rp392
(dp393
g102
Vhttp://t.co/juUyUEqp
p394
sg104
Vhttp://bit.ly/Ltx2mI
p395
sbasg65
I211144110034264065
sbag3
(g4
g5
Ntp396
Rp397
(dp398
g9
I0
sg10
Nsg11
Nsg12
(lp399
sg14
I00
sg15
Nsg16
Nsg17
(lp400
sg19
Nsg20
Nsg21
Nsg22
VFri Jun 08 16:58:57 +0000 2012
p401
sg24
Nsg25
Nsg26
Nsg27
Nsg28
Nsg29
Nsg30
I00
sg31
Nsg32
(lp402
sg67
Nsg68
Nsg69
Nsg70
VHelp us get 250 votes at Mission: Small Business\u2120 to qualify for a $250,000 Grant. Click \u201cSupport\u201d on the home page, look for us &amp; vote!
p403
sg72
I00
sg73
Ven
p404
sg75
g3
(g34
g5
Ntp405
Rp406
(dp407
g10
VBay City, Michigan
p408
sg38
V333333
p409
sg39
Ven
p410
sg40
VAtlantic Time (Canada)
p411
sg41
I7
sg42
I10
sg22
VFri Jun 08 16:43:33 +0000 2012
p412
sg43
I00
sg44
VYour alterations destination in Bay City!
p413
sg45
Vhttps://pbs.twimg.com/profile_images/2290138320/SITsign2s_normal.jpg
p414
sg46
I8
sg47
I0
sg48
I-14400
sg49
Nsg50
I00
sg51
Nsg52
I00
sg53
I00
sg54
V0084B4
p415
sg55
I00
sg56
I00
sg57
Vhttp://abs.twimg.com/images/themes/theme1/bg.png
p416
sg58
Vstitchesintyme
p417
sg60
I0
sg61
VStitches in Tyme
p418
sg63
VDDEEF6
p419
sg64
Vhttp://t.co/eLwruaBeHk
p420
sg65
I602978346
sg66
VC0DEED
p421
sbsg93
I0
sg94
V<a href="http://twitter.com" rel="nofollow">Twitter Web Client</a>
p422
sg96
(lp423
sg65
I211140270736158722
sbaa.