(lp0
S'love_suchi'
p1
a(lp2
ccopy_reg
_reconstructor
p3
(ctwitter
Status
p4
c__builtin__
object
p5
Ntp6
Rp7
(dp8
S'_favorite_count'
p9
I0
sS'_location'
p10
NsS'_withheld_scope'
p11
NsS'hashtags'
p12
(lp13
sS'_truncated'
p14
I00
sS'_retweeted_status'
p15
NsS'_withheld_copyright'
p16
NsS'media'
p17
(lp18
sS'_place'
p19
NsS'_contributors'
p20
NsS'_current_user_retweet'
p21
NsS'_created_at'
p22
VSun Dec 14 17:35:40 +0000 2014
p23
sS'_scopes'
p24
NsS'_possibly_sensitive'
p25
NsS'_in_reply_to_screen_name'
p26
VFishyEdalene
p27
sS'_coordinates'
p28
NsS'_in_reply_to_user_id'
p29
I178023804
sS'_geo'
p30
NsS'_favorited'
p31
I00
sS'_withheld_in_countries'
p32
NsS'user_mentions'
p33
(lp34
g3
(ctwitter
User
p35
g5
Ntp36
Rp37
(dp38
g10
NsS'_profile_text_color'
p39
NsS'_lang'
p40
NsS'_time_zone'
p41
NsS'_followers_count'
p42
NsS'_statuses_count'
p43
Nsg22
NsS'_verified'
p44
NsS'_description'
p45
NsS'_profile_image_url'
p46
NsS'_friends_count'
p47
NsS'_favourites_count'
p48
NsS'_utc_offset'
p49
NsS'_status'
p50
NsS'_protected'
p51
NsS'_profile_banner_url'
p52
NsS'_notifications'
p53
NsS'_profile_background_tile'
p54
NsS'_profile_link_color'
p55
NsS'_geo_enabled'
p56
NsS'_contributors_enabled'
p57
NsS'_profile_background_image_url'
p58
NsS'_screen_name'
p59
VFishyEdalene
p60
sS'_listed_count'
p61
NsS'_name'
p62
VFishyE
p63
sS'_profile_sidebar_fill_color'
p64
NsS'_url'
p65
NsS'_id'
p66
I178023804
sS'_profile_background_color'
p67
NsbasS'_now'
p68
NsS'_id_str'
p69
V544183957684617217
p70
sS'_in_reply_to_status_id'
p71
I544177002367168512
sS'_text'
p72
V@FishyEdalene her kids?
p73
sS'_retweeted'
p74
I00
sS'lang'
p75
Ven
p76
sS'_user'
p77
g3
(g35
g5
Ntp78
Rp79
(dp80
g10
V
p81
sg39
VCCC0CC
p82
sg40
Ven
p83
sg41
VKuala Lumpur
p84
sg42
I97
sg43
I11887
sg22
VSat Oct 22 00:58:27 +0000 2011
p85
sg44
I00
sg45
VSmile because it's beautiful :)
p86
sg46
Vhttps://pbs.twimg.com/profile_images/532462885113307136/s157nFVW_normal.jpeg
p87
sg47
I85
sg48
I840
sg49
I28800
sg50
Nsg51
I00
sg52
Vhttps://pbs.twimg.com/profile_banners/395649520/1362548432
p88
sg53
I00
sg54
I01
sg55
VEB9FE6
p89
sg56
I01
sg57
I00
sg58
Vhttp://pbs.twimg.com/profile_background_images/457398451118960640/6EGLkhIA.png
p90
sg59
Vlove_suchi
p91
sg61
I0
sg62
Vracheal chong
p92
sg64
VF3F3F3
p93
sg65
Nsg66
I395649520
sg67
VEBEBEB
p94
sbsS'_retweet_count'
p95
I0
sS'_source'
p96
V<a href="http://twitter.com/download/iphone" rel="nofollow">Twitter for iPhone</a>
p97
sS'urls'
p98
(lp99
sg66
I544183957684617217
sbag3
(g4
g5
Ntp100
Rp101
(dp102
g9
I0
sg10
Nsg11
Nsg12
(lp103
sg14
I00
sg15
Nsg16
Nsg17
(lp104
sg19
Nsg20
Nsg21
Nsg22
VSun Dec 14 17:14:56 +0000 2014
p105
sg24
Nsg25
Nsg26
VSuMeng_Chong
p106
sg28
Nsg29
I2868445548
sg30
Nsg31
I00
sg32
Nsg33
(lp107
g3
(g35
g5
Ntp108
Rp109
(dp110
g10
Nsg39
Nsg40
Nsg41
Nsg42
Nsg43
Nsg22
Nsg44
Nsg45
Nsg46
Nsg47
Nsg48
Nsg49
Nsg50
Nsg51
Nsg52
Nsg53
Nsg54
Nsg55
Nsg56
Nsg57
Nsg58
Nsg59
VSuMeng_Chong
p111
sg61
Nsg62
VSuMeng
p112
sg64
Nsg65
Nsg66
I2868445548
sg67
Nsbasg68
Nsg69
V544178740217921537
p113
sg71
I544178463142576128
sg72
V@SuMeng_Chong got direct fly back to ipoh okay. Go buy flight ticket from sg back to ipoh when you free. Early buy will be cheap.
p114
sg74
I00
sg75
Ven
p115
sg77
g3
(g35
g5
Ntp116
Rp117
(dp118
g10
g81
sg39
VCCC0CC
p119
sg40
Ven
p120
sg41
VKuala Lumpur
p121
sg42
I97
sg43
I11887
sg22
VSat Oct 22 00:58:27 +0000 2011
p122
sg44
I00
sg45
VSmile because it's beautiful :)
p123
sg46
Vhttps://pbs.twimg.com/profile_images/532462885113307136/s157nFVW_normal.jpeg
p124
sg47
I85
sg48
I840
sg49
I28800
sg50
Nsg51
I00
sg52
Vhttps://pbs.twimg.com/profile_banners/395649520/1362548432
p125
sg53
I00
sg54
I01
sg55
VEB9FE6
p126
sg56
I01
sg57
I00
sg58
Vhttp://pbs.twimg.com/profile_background_images/457398451118960640/6EGLkhIA.png
p127
sg59
Vlove_suchi
p128
sg61
I0
sg62
Vracheal chong
p129
sg64
VF3F3F3
p130
sg65
Nsg66
I395649520
sg67
VEBEBEB
p131
sbsg95
I0
sg96
V<a href="http://twitter.com/download/iphone" rel="nofollow">Twitter for iPhone</a>
p132
sg98
(lp133
sg66
I544178740217921537
sbag3
(g4
g5
Ntp134
Rp135
(dp136
g9
I0
sg10
Nsg11
Nsg12
(lp137
sg14
I00
sg15
Nsg16
Nsg17
(lp138
sg19
Nsg20
Nsg21
Nsg22
VSun Dec 14 17:12:36 +0000 2014
p139
sg24
Nsg25
Nsg26
VSuMeng_Chong
p140
sg28
Nsg29
I2868445548
sg30
Nsg31
I00
sg32
Nsg33
(lp141
g3
(g35
g5
Ntp142
Rp143
(dp144
g10
Nsg39
Nsg40
Nsg41
Nsg42
Nsg43
Nsg22
Nsg44
Nsg45
Nsg46
Nsg47
Nsg48
Nsg49
Nsg50
Nsg51
Nsg52
Nsg53
Nsg54
Nsg55
Nsg56
Nsg57
Nsg58
Nsg59
VSuMeng_Chong
p145
sg61
Nsg62
VSuMeng
p146
sg64
Nsg65
Nsg66
I2868445548
sg67
Nsbasg68
Nsg69
V544178153808076800
p147
sg71
I544178012845903872
sg72
V@SuMeng_Chong 20 fly also okay ar 23 morning back ipoh la.
p148
sg74
I00
sg75
Ven
p149
sg77
g3
(g35
g5
Ntp150
Rp151
(dp152
g10
g81
sg39
VCCC0CC
p153
sg40
Ven
p154
sg41
VKuala Lumpur
p155
sg42
I97
sg43
I11887
sg22
VSat Oct 22 00:58:27 +0000 2011
p156
sg44
I00
sg45
VSmile because it's beautiful :)
p157
sg46
Vhttps://pbs.twimg.com/profile_images/532462885113307136/s157nFVW_normal.jpeg
p158
sg47
I85
sg48
I840
sg49
I28800
sg50
Nsg51
I00
sg52
Vhttps://pbs.twimg.com/profile_banners/395649520/1362548432
p159
sg53
I00
sg54
I01
sg55
VEB9FE6
p160
sg56
I01
sg57
I00
sg58
Vhttp://pbs.twimg.com/profile_background_images/457398451118960640/6EGLkhIA.png
p161
sg59
Vlove_suchi
p162
sg61
I0
sg62
Vracheal chong
p163
sg64
VF3F3F3
p164
sg65
Nsg66
I395649520
sg67
VEBEBEB
p165
sbsg95
I0
sg96
V<a href="http://twitter.com/download/iphone" rel="nofollow">Twitter for iPhone</a>
p166
sg98
(lp167
sg66
I544178153808076800
sbag3
(g4
g5
Ntp168
Rp169
(dp170
g9
I1
sg10
Nsg11
Nsg12
(lp171
sg14
I00
sg15
Nsg16
Nsg17
(lp172
sg19
Nsg20
Nsg21
Nsg22
VSun Dec 14 17:08:11 +0000 2014
p173
sg24
Nsg25
Nsg26
VSuMeng_Chong
p174
sg28
Nsg29
I2868445548
sg30
Nsg31
I00
sg32
Nsg33
(lp175
g3
(g35
g5
Ntp176
Rp177
(dp178
g10
Nsg39
Nsg40
Nsg41
Nsg42
Nsg43
Nsg22
Nsg44
Nsg45
Nsg46
Nsg47
Nsg48
Nsg49
Nsg50
Nsg51
Nsg52
Nsg53
Nsg54
Nsg55
Nsg56
Nsg57
Nsg58
Nsg59
VSuMeng_Chong
p179
sg61
Nsg62
VSuMeng
p180
sg64
Nsg65
Nsg66
I2868445548
sg67
Nsbasg68
Nsg69
V544177042367856640
p181
sg71
I544176941629050880
sg72
V@SuMeng_Chong I told you already wert your bday will be in ipoh
p182
sg74
I00
sg75
Ven
p183
sg77
g3
(g35
g5
Ntp184
Rp185
(dp186
g10
g81
sg39
VCCC0CC
p187
sg40
Ven
p188
sg41
VKuala Lumpur
p189
sg42
I97
sg43
I11887
sg22
VSat Oct 22 00:58:27 +0000 2011
p190
sg44
I00
sg45
VSmile because it's beautiful :)
p191
sg46
Vhttps://pbs.twimg.com/profile_images/532462885113307136/s157nFVW_normal.jpeg
p192
sg47
I85
sg48
I840
sg49
I28800
sg50
Nsg51
I00
sg52
Vhttps://pbs.twimg.com/profile_banners/395649520/1362548432
p193
sg53
I00
sg54
I01
sg55
VEB9FE6
p194
sg56
I01
sg57
I00
sg58
Vhttp://pbs.twimg.com/profile_background_images/457398451118960640/6EGLkhIA.png
p195
sg59
Vlove_suchi
p196
sg61
I0
sg62
Vracheal chong
p197
sg64
VF3F3F3
p198
sg65
Nsg66
I395649520
sg67
VEBEBEB
p199
sbsg95
I0
sg96
V<a href="http://twitter.com/download/iphone" rel="nofollow">Twitter for iPhone</a>
p200
sg98
(lp201
sg66
I544177042367856640
sbag3
(g4
g5
Ntp202
Rp203
(dp204
g9
I0
sg10
Nsg11
Nsg12
(lp205
sg14
I00
sg15
Nsg16
Nsg17
(lp206
sg19
Nsg20
Nsg21
Nsg22
VSun Dec 14 17:07:15 +0000 2014
p207
sg24
Nsg25
Nsg26
VSuMeng_Chong
p208
sg28
Nsg29
I2868445548
sg30
Nsg31
I00
sg32
Nsg33
(lp209
g3
(g35
g5
Ntp210
Rp211
(dp212
g10
Nsg39
Nsg40
Nsg41
Nsg42
Nsg43
Nsg22
Nsg44
Nsg45
Nsg46
Nsg47
Nsg48
Nsg49
Nsg50
Nsg51
Nsg52
Nsg53
Nsg54
Nsg55
Nsg56
Nsg57
Nsg58
Nsg59
VSuMeng_Chong
p213
sg61
Nsg62
VSuMeng
p214
sg64
Nsg65
Nsg66
I2868445548
sg67
Nsbasg68
Nsg69
V544176804898951168
p215
sg71
I544176741535588352
sg72
V@SuMeng_Chong yes if you want I will make plan
p216
sg74
I00
sg75
Ven
p217
sg77
g3
(g35
g5
Ntp218
Rp219
(dp220
g10
g81
sg39
VCCC0CC
p221
sg40
Ven
p222
sg41
VKuala Lumpur
p223
sg42
I97
sg43
I11887
sg22
VSat Oct 22 00:58:27 +0000 2011
p224
sg44
I00
sg45
VSmile because it's beautiful :)
p225
sg46
Vhttps://pbs.twimg.com/profile_images/532462885113307136/s157nFVW_normal.jpeg
p226
sg47
I85
sg48
I840
sg49
I28800
sg50
Nsg51
I00
sg52
Vhttps://pbs.twimg.com/profile_banners/395649520/1362548432
p227
sg53
I00
sg54
I01
sg55
VEB9FE6
p228
sg56
I01
sg57
I00
sg58
Vhttp://pbs.twimg.com/profile_background_images/457398451118960640/6EGLkhIA.png
p229
sg59
Vlove_suchi
p230
sg61
I0
sg62
Vracheal chong
p231
sg64
VF3F3F3
p232
sg65
Nsg66
I395649520
sg67
VEBEBEB
p233
sbsg95
I0
sg96
V<a href="http://twitter.com/download/iphone" rel="nofollow">Twitter for iPhone</a>
p234
sg98
(lp235
sg66
I544176804898951168
sbag3
(g4
g5
Ntp236
Rp237
(dp238
g9
I0
sg10
Nsg11
Nsg12
(lp239
sg14
I00
sg15
Nsg16
Nsg17
(lp240
sg19
Nsg20
Nsg21
Nsg22
VSun Dec 14 17:04:32 +0000 2014
p241
sg24
Nsg25
Nsg26
VSuMeng_Chong
p242
sg28
Nsg29
I2868445548
sg30
Nsg31
I00
sg32
Nsg33
(lp243
g3
(g35
g5
Ntp244
Rp245
(dp246
g10
Nsg39
Nsg40
Nsg41
Nsg42
Nsg43
Nsg22
Nsg44
Nsg45
Nsg46
Nsg47
Nsg48
Nsg49
Nsg50
Nsg51
Nsg52
Nsg53
Nsg54
Nsg55
Nsg56
Nsg57
Nsg58
Nsg59
VSuMeng_Chong
p247
sg61
Nsg62
VSuMeng
p248
sg64
Nsg65
Nsg66
I2868445548
sg67
Nsbasg68
Nsg69
V544176120560496641
p249
sg71
I544175973906657281
sg72
V@SuMeng_Chong next year !
p250
sg74
I00
sg75
Ven
p251
sg77
g3
(g35
g5
Ntp252
Rp253
(dp254
g10
g81
sg39
VCCC0CC
p255
sg40
Ven
p256
sg41
VKuala Lumpur
p257
sg42
I97
sg43
I11887
sg22
VSat Oct 22 00:58:27 +0000 2011
p258
sg44
I00
sg45
VSmile because it's beautiful :)
p259
sg46
Vhttps://pbs.twimg.com/profile_images/532462885113307136/s157nFVW_normal.jpeg
p260
sg47
I85
sg48
I840
sg49
I28800
sg50
Nsg51
I00
sg52
Vhttps://pbs.twimg.com/profile_banners/395649520/1362548432
p261
sg53
I00
sg54
I01
sg55
VEB9FE6
p262
sg56
I01
sg57
I00
sg58
Vhttp://pbs.twimg.com/profile_background_images/457398451118960640/6EGLkhIA.png
p263
sg59
Vlove_suchi
p264
sg61
I0
sg62
Vracheal chong
p265
sg64
VF3F3F3
p266
sg65
Nsg66
I395649520
sg67
VEBEBEB
p267
sbsg95
I0
sg96
V<a href="http://twitter.com/download/iphone" rel="nofollow">Twitter for iPhone</a>
p268
sg98
(lp269
sg66
I544176120560496641
sbag3
(g4
g5
Ntp270
Rp271
(dp272
g9
I2
sg10
Nsg11
Nsg12
(lp273
sg14
I00
sg15
Nsg16
Nsg17
(lp274
sg19
Nsg20
Nsg21
Nsg22
VSun Dec 14 16:32:37 +0000 2014
p275
sg24
Nsg25
Nsg26
Nsg28
Nsg29
Nsg30
Nsg31
I00
sg32
Nsg33
(lp276
sg68
Nsg69
V544168091832156160
p277
sg71
Nsg72
VI miss hk \U0001f62d\U0001f62d
p278
sg74
I00
sg75
Ven
p279
sg77
g3
(g35
g5
Ntp280
Rp281
(dp282
g10
g81
sg39
VCCC0CC
p283
sg40
Ven
p284
sg41
VKuala Lumpur
p285
sg42
I97
sg43
I11887
sg22
VSat Oct 22 00:58:27 +0000 2011
p286
sg44
I00
sg45
VSmile because it's beautiful :)
p287
sg46
Vhttps://pbs.twimg.com/profile_images/532462885113307136/s157nFVW_normal.jpeg
p288
sg47
I85
sg48
I840
sg49
I28800
sg50
Nsg51
I00
sg52
Vhttps://pbs.twimg.com/profile_banners/395649520/1362548432
p289
sg53
I00
sg54
I01
sg55
VEB9FE6
p290
sg56
I01
sg57
I00
sg58
Vhttp://pbs.twimg.com/profile_background_images/457398451118960640/6EGLkhIA.png
p291
sg59
Vlove_suchi
p292
sg61
I0
sg62
Vracheal chong
p293
sg64
VF3F3F3
p294
sg65
Nsg66
I395649520
sg67
VEBEBEB
p295
sbsg95
I0
sg96
V<a href="http://twitter.com/download/iphone" rel="nofollow">Twitter for iPhone</a>
p296
sg98
(lp297
sg66
I544168091832156160
sbag3
(g4
g5
Ntp298
Rp299
(dp300
g9
I0
sg10
Nsg11
Nsg12
(lp301
sg14
I00
sg15
Nsg16
Nsg17
(lp302
sg19
(dp303
Vfull_name
p304
VKota Kinabalu, Bahagian Pantai Barat
p305
sVurl
p306
Vhttps://api.twitter.com/1.1/geo/id/7257885c03987f56.json
p307
sVcountry
p308
VMalaysia
p309
sVplace_type
p310
Vcity
p311
sVbounding_box
p312
(dp313
Vtype
p314
VPolygon
p315
sVcoordinates
p316
(lp317
(lp318
(lp319
F116.0398657
aF5.83293
aa(lp320
F116.2860894
aF5.83293
aa(lp321
F116.2860894
aF6.143625
aa(lp322
F116.0398657
aF6.143625
aaassVcontained_within
p323
(lp324
sVcountry_code
p325
VMY
p326
sVattributes
p327
(dp328
sVid
p329
V7257885c03987f56
p330
sVname
p331
VKota Kinabalu
p332
ssg20
Nsg21
Nsg22
VSun Dec 14 12:48:51 +0000 2014
p333
sg24
Nsg25
I00
sg26
Nsg28
(dp334
Vtype
p335
VPoint
p336
sVcoordinates
p337
(lp338
F116.08618589
aF5.96203439
assg29
Nsg30
(dp339
Vtype
p340
VPoint
p341
sVcoordinates
p342
(lp343
F5.96203439
aF116.08618589
assg31
I00
sg32
Nsg33
(lp344
sg68
Nsg69
V544111777722925056
p345
sg71
Nsg72
VI'm at Lintas Superstore in Kota Kinabalu, Sabah https://t.co/t3rMftR3Z3
p346
sg74
I00
sg75
Vin
p347
sg77
g3
(g35
g5
Ntp348
Rp349
(dp350
g10
g81
sg39
VCCC0CC
p351
sg40
Ven
p352
sg41
VKuala Lumpur
p353
sg42
I97
sg43
I11887
sg22
VSat Oct 22 00:58:27 +0000 2011
p354
sg44
I00
sg45
VSmile because it's beautiful :)
p355
sg46
Vhttps://pbs.twimg.com/profile_images/532462885113307136/s157nFVW_normal.jpeg
p356
sg47
I85
sg48
I840
sg49
I28800
sg50
Nsg51
I00
sg52
Vhttps://pbs.twimg.com/profile_banners/395649520/1362548432
p357
sg53
I00
sg54
I01
sg55
VEB9FE6
p358
sg56
I01
sg57
I00
sg58
Vhttp://pbs.twimg.com/profile_background_images/457398451118960640/6EGLkhIA.png
p359
sg59
Vlove_suchi
p360
sg61
I0
sg62
Vracheal chong
p361
sg64
VF3F3F3
p362
sg65
Nsg66
I395649520
sg67
VEBEBEB
p363
sbsg95
I0
sg96
V<a href="http://foursquare.com" rel="nofollow">Foursquare</a>
p364
sg98
(lp365
g3
(ctwitter
Url
p366
g5
Ntp367
Rp368
(dp369
S'url'
p370
Vhttps://t.co/t3rMftR3Z3
p371
sS'expanded_url'
p372
Vhttps://www.swarmapp.com/c/0pRSYcUx7Dv
p373
sbasg66
I544111777722925056
sbag3
(g4
g5
Ntp374
Rp375
(dp376
g9
I0
sg10
Nsg11
Nsg12
(lp377
sg14
I00
sg15
Nsg16
Nsg17
(lp378
sg19
(dp379
Vfull_name
p380
VKota Kinabalu, Bahagian Pantai Barat
p381
sVurl
p382
Vhttps://api.twitter.com/1.1/geo/id/7257885c03987f56.json
p383
sVcountry
p384
VMalaysia
p385
sVplace_type
p386
Vcity
p387
sVbounding_box
p388
(dp389
Vtype
p390
VPolygon
p391
sVcoordinates
p392
(lp393
(lp394
(lp395
F116.0398657
aF5.83293
aa(lp396
F116.2860894
aF5.83293
aa(lp397
F116.2860894
aF6.143625
aa(lp398
F116.0398657
aF6.143625
aaassVcontained_within
p399
(lp400
sVcountry_code
p401
VMY
p402
sVattributes
p403
(dp404
sVid
p405
V7257885c03987f56
p406
sVname
p407
VKota Kinabalu
p408
ssg20
Nsg21
Nsg22
VSun Dec 14 10:26:29 +0000 2014
p409
sg24
Nsg25
I00
sg26
Nsg28
(dp410
Vtype
p411
VPoint
p412
sVcoordinates
p413
(lp414
F116.07688833
aF5.98330142
assg29
Nsg30
(dp415
Vtype
p416
VPoint
p417
sVcoordinates
p418
(lp419
F5.98330142
aF116.07688833
assg31
I00
sg32
Nsg33
(lp420
sg68
Nsg69
V544075950691201025
p421
sg71
Nsg72
VI'm at Yamagoya Ramen in Kota Kinabalu, Sabah https://t.co/UrqGJe1zNu
p422
sg74
I00
sg75
Vin
p423
sg77
g3
(g35
g5
Ntp424
Rp425
(dp426
g10
g81
sg39
VCCC0CC
p427
sg40
Ven
p428
sg41
VKuala Lumpur
p429
sg42
I97
sg43
I11887
sg22
VSat Oct 22 00:58:27 +0000 2011
p430
sg44
I00
sg45
VSmile because it's beautiful :)
p431
sg46
Vhttps://pbs.twimg.com/profile_images/532462885113307136/s157nFVW_normal.jpeg
p432
sg47
I85
sg48
I840
sg49
I28800
sg50
Nsg51
I00
sg52
Vhttps://pbs.twimg.com/profile_banners/395649520/1362548432
p433
sg53
I00
sg54
I01
sg55
VEB9FE6
p434
sg56
I01
sg57
I00
sg58
Vhttp://pbs.twimg.com/profile_background_images/457398451118960640/6EGLkhIA.png
p435
sg59
Vlove_suchi
p436
sg61
I0
sg62
Vracheal chong
p437
sg64
VF3F3F3
p438
sg65
Nsg66
I395649520
sg67
VEBEBEB
p439
sbsg95
I0
sg96
V<a href="http://foursquare.com" rel="nofollow">Foursquare</a>
p440
sg98
(lp441
g3
(g366
g5
Ntp442
Rp443
(dp444
g370
Vhttps://t.co/UrqGJe1zNu
p445
sg372
Vhttps://www.swarmapp.com/c/eMjMjPjTReC
p446
sbasg66
I544075950691201025
sbag3
(g4
g5
Ntp447
Rp448
(dp449
g9
I0
sg10
Nsg11
Nsg12
(lp450
sg14
I00
sg15
g3
(g4
g5
Ntp451
Rp452
(dp453
g9
I1773
sg10
Nsg11
Nsg12
(lp454
sg14
I00
sg15
Nsg16
Nsg17
(lp455
(dp456
Vexpanded_url
p457
Vhttp://twitter.com/IntThings/status/543759803852804096/photo/1
p458
sVdisplay_url
p459
Vpic.twitter.com/PodfnZI49s
p460
sVurl
p461
Vhttp://t.co/PodfnZI49s
p462
sVmedia_url_https
p463
Vhttps://pbs.twimg.com/media/B4vSqRnIEAA_b8u.jpg
p464
sVid_str
p465
V543759803752124416
p466
sVsizes
p467
(dp468
Vlarge
p469
(dp470
Vh
p471
I372
sVresize
p472
Vfit
p473
sVw
p474
I600
ssVsmall
p475
(dp476
Vh
p477
I210
sVresize
p478
Vfit
p479
sVw
p480
I340
ssVmedium
p481
(dp482
Vh
p483
I372
sVresize
p484
Vfit
p485
sVw
p486
I600
ssVthumb
p487
(dp488
Vh
p489
I150
sVresize
p490
Vcrop
p491
sVw
p492
I150
sssVindices
p493
(lp494
I0
aI22
asVtype
p495
Vphoto
p496
sVid
p497
I543759803752124416
sVmedia_url
p498
Vhttp://pbs.twimg.com/media/B4vSqRnIEAA_b8u.jpg
p499
sasg19
Nsg20
Nsg21
Nsg22
VSat Dec 13 13:30:14 +0000 2014
p500
sg24
Nsg25
I00
sg26
Nsg28
Nsg29
Nsg30
Nsg31
I00
sg32
Nsg33
(lp501
sg68
Nsg69
V543759803852804096
p502
sg71
Nsg72
Vhttp://t.co/PodfnZI49s
p503
sg74
I00
sg75
Vund
p504
sg77
g3
(g35
g5
Ntp505
Rp506
(dp507
g10
VWorldwide
p508
sg39
V3C3940
p509
sg40
Ven
p510
sg41
VNew Delhi
p511
sg42
I2295340
sg43
I34276
sg22
VFri Apr 09 08:02:37 +0000 2010
p512
sg44
I00
sg45
VEverything about human psychology & behavior. *Not affiliated with huge laurie* parody account Contact: omghardik@gmail.com Creator: @Hardikvinchhi
p513
sg46
Vhttps://pbs.twimg.com/profile_images/532918024802545664/1FvOYz4S_normal.jpeg
p514
sg47
I232
sg48
I2227
sg49
I19800
sg50
Nsg51
I00
sg52
Nsg53
I00
sg54
I00
sg55
V0099B9
p515
sg56
I00
sg57
I00
sg58
Vhttp://pbs.twimg.com/profile_background_images/469502152281317376/ddcXijFk.png
p516
sg59
VIntThings
p517
sg61
I4067
sg62
VPSYCHOLOGICAL
p518
sg64
V95E8EC
p519
sg65
Nsg66
I131102007
sg67
V0099B9
p520
sbsg95
I1089
sg96
V<a href="http://bufferapp.com" rel="nofollow">Buffer</a>
p521
sg98
(lp522
sg66
I543759803852804096
sbsg16
Nsg17
(lp523
(dp524
Vsource_user_id
p525
I131102007
sVsource_status_id_str
p526
V543759803852804096
p527
sVexpanded_url
p528
Vhttp://twitter.com/IntThings/status/543759803852804096/photo/1
p529
sVdisplay_url
p530
Vpic.twitter.com/PodfnZI49s
p531
sVurl
p532
Vhttp://t.co/PodfnZI49s
p533
sVmedia_url_https
p534
Vhttps://pbs.twimg.com/media/B4vSqRnIEAA_b8u.jpg
p535
sVsource_user_id_str
p536
V131102007
p537
sVsource_status_id
p538
I543759803852804096
sVid_str
p539
V543759803752124416
p540
sVsizes
p541
(dp542
Vlarge
p543
(dp544
Vh
p545
I372
sVresize
p546
Vfit
p547
sVw
p548
I600
ssVsmall
p549
(dp550
Vh
p551
I210
sVresize
p552
Vfit
p553
sVw
p554
I340
ssVmedium
p555
(dp556
Vh
p557
I372
sVresize
p558
Vfit
p559
sVw
p560
I600
ssVthumb
p561
(dp562
Vh
p563
I150
sVresize
p564
Vcrop
p565
sVw
p566
I150
sssVindices
p567
(lp568
I15
aI37
asVtype
p569
Vphoto
p570
sVid
p571
I543759803752124416
sVmedia_url
p572
Vhttp://pbs.twimg.com/media/B4vSqRnIEAA_b8u.jpg
p573
sasg19
Nsg20
Nsg21
Nsg22
VSat Dec 13 16:44:41 +0000 2014
p574
sg24
Nsg25
I00
sg26
Nsg28
Nsg29
Nsg30
Nsg31
I00
sg32
Nsg33
(lp575
g3
(g35
g5
Ntp576
Rp577
(dp578
g10
Nsg39
Nsg40
Nsg41
Nsg42
Nsg43
Nsg22
Nsg44
Nsg45
Nsg46
Nsg47
Nsg48
Nsg49
Nsg50
Nsg51
Nsg52
Nsg53
Nsg54
Nsg55
Nsg56
Nsg57
Nsg58
Nsg59
VIntThings
p579
sg61
Nsg62
VPSYCHOLOGICAL
p580
sg64
Nsg65
Nsg66
I131102007
sg67
Nsbasg68
Nsg69
V543808738541314048
p581
sg71
Nsg72
VRT @IntThings: http://t.co/PodfnZI49s
p582
sg74
I00
sg75
Vund
p583
sg77
g3
(g35
g5
Ntp584
Rp585
(dp586
g10
g81
sg39
VCCC0CC
p587
sg40
Ven
p588
sg41
VKuala Lumpur
p589
sg42
I97
sg43
I11887
sg22
VSat Oct 22 00:58:27 +0000 2011
p590
sg44
I00
sg45
VSmile because it's beautiful :)
p591
sg46
Vhttps://pbs.twimg.com/profile_images/532462885113307136/s157nFVW_normal.jpeg
p592
sg47
I85
sg48
I840
sg49
I28800
sg50
Nsg51
I00
sg52
Vhttps://pbs.twimg.com/profile_banners/395649520/1362548432
p593
sg53
I00
sg54
I01
sg55
VEB9FE6
p594
sg56
I01
sg57
I00
sg58
Vhttp://pbs.twimg.com/profile_background_images/457398451118960640/6EGLkhIA.png
p595
sg59
Vlove_suchi
p596
sg61
I0
sg62
Vracheal chong
p597
sg64
VF3F3F3
p598
sg65
Nsg66
I395649520
sg67
VEBEBEB
p599
sbsg95
I1089
sg96
V<a href="http://twitter.com/download/iphone" rel="nofollow">Twitter for iPhone</a>
p600
sg98
(lp601
sg66
I543808738541314048
sbag3
(g4
g5
Ntp602
Rp603
(dp604
g9
I0
sg10
Nsg11
Nsg12
(lp605
sg14
I00
sg15
Nsg16
Nsg17
(lp606
sg19
Nsg20
Nsg21
Nsg22
VSat Dec 13 15:47:49 +0000 2014
p607
sg24
Nsg25
Nsg26
Nsg28
Nsg29
Nsg30
Nsg31
I00
sg32
Nsg33
(lp608
sg68
Nsg69
V543794427144065025
p609
sg71
Nsg72
VWell this pretty sums up everything. I've changed. No longer the naive and dumb girl that I'm used to be.
p610
sg74
I00
sg75
Ven
p611
sg77
g3
(g35
g5
Ntp612
Rp613
(dp614
g10
g81
sg39
VCCC0CC
p615
sg40
Ven
p616
sg41
VKuala Lumpur
p617
sg42
I97
sg43
I11887
sg22
VSat Oct 22 00:58:27 +0000 2011
p618
sg44
I00
sg45
VSmile because it's beautiful :)
p619
sg46
Vhttps://pbs.twimg.com/profile_images/532462885113307136/s157nFVW_normal.jpeg
p620
sg47
I85
sg48
I840
sg49
I28800
sg50
Nsg51
I00
sg52
Vhttps://pbs.twimg.com/profile_banners/395649520/1362548432
p621
sg53
I00
sg54
I01
sg55
VEB9FE6
p622
sg56
I01
sg57
I00
sg58
Vhttp://pbs.twimg.com/profile_background_images/457398451118960640/6EGLkhIA.png
p623
sg59
Vlove_suchi
p624
sg61
I0
sg62
Vracheal chong
p625
sg64
VF3F3F3
p626
sg65
Nsg66
I395649520
sg67
VEBEBEB
p627
sbsg95
I0
sg96
V<a href="http://twitter.com/download/iphone" rel="nofollow">Twitter for iPhone</a>
p628
sg98
(lp629
sg66
I543794427144065025
sbag3
(g4
g5
Ntp630
Rp631
(dp632
g9
I0
sg10
Nsg11
Nsg12
(lp633
g3
(ctwitter
Hashtag
p634
g5
Ntp635
Rp636
(dp637
S'text'
p638
Vnowplaying
p639
sbasg14
I00
sg15
Nsg16
Nsg17
(lp640
sg19
Nsg20
Nsg21
Nsg22
VSat Dec 13 15:30:07 +0000 2014
p641
sg24
Nsg25
Nsg26
Nsg28
Nsg29
Nsg30
Nsg31
I00
sg32
Nsg33
(lp642
sg68
Nsg69
V543789971774386176
p643
sg71
Nsg72
V#nowplaying Best thing in my life
p644
sg74
I00
sg75
Ven
p645
sg77
g3
(g35
g5
Ntp646
Rp647
(dp648
g10
g81
sg39
VCCC0CC
p649
sg40
Ven
p650
sg41
VKuala Lumpur
p651
sg42
I97
sg43
I11887
sg22
VSat Oct 22 00:58:27 +0000 2011
p652
sg44
I00
sg45
VSmile because it's beautiful :)
p653
sg46
Vhttps://pbs.twimg.com/profile_images/532462885113307136/s157nFVW_normal.jpeg
p654
sg47
I85
sg48
I840
sg49
I28800
sg50
Nsg51
I00
sg52
Vhttps://pbs.twimg.com/profile_banners/395649520/1362548432
p655
sg53
I00
sg54
I01
sg55
VEB9FE6
p656
sg56
I01
sg57
I00
sg58
Vhttp://pbs.twimg.com/profile_background_images/457398451118960640/6EGLkhIA.png
p657
sg59
Vlove_suchi
p658
sg61
I0
sg62
Vracheal chong
p659
sg64
VF3F3F3
p660
sg65
Nsg66
I395649520
sg67
VEBEBEB
p661
sbsg95
I0
sg96
V<a href="http://twitter.com/download/iphone" rel="nofollow">Twitter for iPhone</a>
p662
sg98
(lp663
sg66
I543789971774386176
sbag3
(g4
g5
Ntp664
Rp665
(dp666
g9
I1
sg10
Nsg11
Nsg12
(lp667
sg14
I00
sg15
Nsg16
Nsg17
(lp668
sg19
Nsg20
Nsg21
Nsg22
VSat Dec 13 14:26:47 +0000 2014
p669
sg24
Nsg25
Nsg26
Nsg28
Nsg29
Nsg30
Nsg31
I00
sg32
Nsg33
(lp670
g3
(g35
g5
Ntp671
Rp672
(dp673
g10
Nsg39
Nsg40
Nsg41
Nsg42
Nsg43
Nsg22
Nsg44
Nsg45
Nsg46
Nsg47
Nsg48
Nsg49
Nsg50
Nsg51
Nsg52
Nsg53
Nsg54
Nsg55
Nsg56
Nsg57
Nsg58
Nsg59
VJeaaaniebean
p674
sg61
Nsg62
VJean
p675
sg64
Nsg65
Nsg66
I1911655064
sg67
Nsbasg68
Nsg69
V543774034979069953
p676
sg71
Nsg72
VI miss you @Jeaaaniebean
p677
sg74
I00
sg75
Ven
p678
sg77
g3
(g35
g5
Ntp679
Rp680
(dp681
g10
g81
sg39
VCCC0CC
p682
sg40
Ven
p683
sg41
VKuala Lumpur
p684
sg42
I97
sg43
I11887
sg22
VSat Oct 22 00:58:27 +0000 2011
p685
sg44
I00
sg45
VSmile because it's beautiful :)
p686
sg46
Vhttps://pbs.twimg.com/profile_images/532462885113307136/s157nFVW_normal.jpeg
p687
sg47
I85
sg48
I840
sg49
I28800
sg50
Nsg51
I00
sg52
Vhttps://pbs.twimg.com/profile_banners/395649520/1362548432
p688
sg53
I00
sg54
I01
sg55
VEB9FE6
p689
sg56
I01
sg57
I00
sg58
Vhttp://pbs.twimg.com/profile_background_images/457398451118960640/6EGLkhIA.png
p690
sg59
Vlove_suchi
p691
sg61
I0
sg62
Vracheal chong
p692
sg64
VF3F3F3
p693
sg65
Nsg66
I395649520
sg67
VEBEBEB
p694
sbsg95
I0
sg96
V<a href="http://twitter.com/download/iphone" rel="nofollow">Twitter for iPhone</a>
p695
sg98
(lp696
sg66
I543774034979069953
sbag3
(g4
g5
Ntp697
Rp698
(dp699
g9
I0
sg10
Nsg11
Nsg12
(lp700
sg14
I00
sg15
g3
(g4
g5
Ntp701
Rp702
(dp703
g9
I0
sg10
Nsg11
Nsg12
(lp704
sg14
I00
sg15
Nsg16
Nsg17
(lp705
sg19
(dp706
Vfull_name
p707
VHulu Kinta, Kinta
p708
sVurl
p709
Vhttps://api.twitter.com/1.1/geo/id/ad0583514bf760c4.json
p710
sVcountry
p711
VMalaysia
p712
sVplace_type
p713
Vcity
p714
sVbounding_box
p715
(dp716
Vtype
p717
VPolygon
p718
sVcoordinates
p719
(lp720
(lp721
(lp722
F101.0280151
aF4.5100145
aa(lp723
F101.377182
aF4.5100145
aa(lp724
F101.377182
aF4.7842503
aa(lp725
F101.0280151
aF4.7842503
aaassVcontained_within
p726
(lp727
sVcountry_code
p728
VMY
p729
sVattributes
p730
(dp731
sVid
p732
Vad0583514bf760c4
p733
sVname
p734
VHulu Kinta
p735
ssg20
Nsg21
Nsg22
VSat Dec 13 14:23:05 +0000 2014
p736
sg24
Nsg25
Nsg26
Nsg28
(dp737
Vtype
p738
VPoint
p739
sVcoordinates
p740
(lp741
F101.1264564
aF4.6156566
assg29
Nsg30
(dp742
Vtype
p743
VPoint
p744
sVcoordinates
p745
(lp746
F4.6156566
aF101.1264564
assg31
I00
sg32
Nsg33
(lp747
sg68
Nsg69
V543773105580044288
p748
sg71
Nsg72
V"Sometimes just wanting each other isn't enough."
p749
sg74
I00
sg75
Ven
p750
sg77
g3
(g35
g5
Ntp751
Rp752
(dp753
g10
VMalaysia.
p754
sg39
V000000
p755
sg40
Ven
p756
sg41
VAlaska
p757
sg42
I465
sg43
I32193
sg22
VThu Jun 04 05:01:32 +0000 2009
p758
sg44
I00
sg45
VNot your cup of tea.
p759
sg46
Vhttps://pbs.twimg.com/profile_images/499872972237066241/P1qwkHHL_normal.jpeg
p760
sg47
I194
sg48
I2156
sg49
I-32400
sg50
Nsg51
I00
sg52
Vhttps://pbs.twimg.com/profile_banners/44550238/1358678418
p761
sg53
I00
sg54
I00
sg55
V000000
p762
sg56
I01
sg57
I00
sg58
Vhttp://pbs.twimg.com/profile_background_images/536446363261612032/5FOGO5Mp.png
p763
sg59
VNavayh
p764
sg61
I1
sg62
VNavitra Selva \u2661
p765
sg64
VFFFFFF
p766
sg65
Vhttp://t.co/gLrrkt5Tb3
p767
sg66
I44550238
sg67
VFFFFFF
p768
sbsg95
I1
sg96
V<a href="http://twitter.com/download/android" rel="nofollow">Twitter for Android</a>
p769
sg98
(lp770
sg66
I543773105580044288
sbsg16
Nsg17
(lp771
sg19
Nsg20
Nsg21
Nsg22
VSat Dec 13 14:25:53 +0000 2014
p772
sg24
Nsg25
Nsg26
Nsg28
Nsg29
Nsg30
Nsg31
I00
sg32
Nsg33
(lp773
g3
(g35
g5
Ntp774
Rp775
(dp776
g10
Nsg39
Nsg40
Nsg41
Nsg42
Nsg43
Nsg22
Nsg44
Nsg45
Nsg46
Nsg47
Nsg48
Nsg49
Nsg50
Nsg51
Nsg52
Nsg53
Nsg54
Nsg55
Nsg56
Nsg57
Nsg58
Nsg59
VNavayh
p777
sg61
Nsg62
VNavitra Selva \u2661
p778
sg64
Nsg65
Nsg66
I44550238
sg67
Nsbasg68
Nsg69
V543773810495717376
p779
sg71
Nsg72
VRT @Navayh: "Sometimes just wanting each other isn't enough."
p780
sg74
I00
sg75
Ven
p781
sg77
g3
(g35
g5
Ntp782
Rp783
(dp784
g10
g81
sg39
VCCC0CC
p785
sg40
Ven
p786
sg41
VKuala Lumpur
p787
sg42
I97
sg43
I11887
sg22
VSat Oct 22 00:58:27 +0000 2011
p788
sg44
I00
sg45
VSmile because it's beautiful :)
p789
sg46
Vhttps://pbs.twimg.com/profile_images/532462885113307136/s157nFVW_normal.jpeg
p790
sg47
I85
sg48
I840
sg49
I28800
sg50
Nsg51
I00
sg52
Vhttps://pbs.twimg.com/profile_banners/395649520/1362548432
p791
sg53
I00
sg54
I01
sg55
VEB9FE6
p792
sg56
I01
sg57
I00
sg58
Vhttp://pbs.twimg.com/profile_background_images/457398451118960640/6EGLkhIA.png
p793
sg59
Vlove_suchi
p794
sg61
I0
sg62
Vracheal chong
p795
sg64
VF3F3F3
p796
sg65
Nsg66
I395649520
sg67
VEBEBEB
p797
sbsg95
I1
sg96
V<a href="http://twitter.com/download/iphone" rel="nofollow">Twitter for iPhone</a>
p798
sg98
(lp799
sg66
I543773810495717376
sbag3
(g4
g5
Ntp800
Rp801
(dp802
g9
I0
sg10
Nsg11
Nsg12
(lp803
sg14
I00
sg15
Nsg16
Nsg17
(lp804
sg19
Nsg20
Nsg21
Nsg22
VSat Dec 13 13:47:31 +0000 2014
p805
sg24
Nsg25
Nsg26
Vkaiwenteoh
p806
sg28
Nsg29
I263563811
sg30
Nsg31
I00
sg32
Nsg33
(lp807
g3
(g35
g5
Ntp808
Rp809
(dp810
g10
Nsg39
Nsg40
Nsg41
Nsg42
Nsg43
Nsg22
Nsg44
Nsg45
Nsg46
Nsg47
Nsg48
Nsg49
Nsg50
Nsg51
Nsg52
Nsg53
Nsg54
Nsg55
Nsg56
Nsg57
Nsg58
Nsg59
Vkaiwenteoh
p811
sg61
Nsg62
VKaiwen Teoh
p812
sg64
Nsg65
Nsg66
I263563811
sg67
Nsbasg68
Nsg69
V543764154054483968
p813
sg71
I543747948052365312
sg72
V@kaiwenteoh if the person are meant to be.
p814
sg74
I00
sg75
Ven
p815
sg77
g3
(g35
g5
Ntp816
Rp817
(dp818
g10
g81
sg39
VCCC0CC
p819
sg40
Ven
p820
sg41
VKuala Lumpur
p821
sg42
I97
sg43
I11887
sg22
VSat Oct 22 00:58:27 +0000 2011
p822
sg44
I00
sg45
VSmile because it's beautiful :)
p823
sg46
Vhttps://pbs.twimg.com/profile_images/532462885113307136/s157nFVW_normal.jpeg
p824
sg47
I85
sg48
I840
sg49
I28800
sg50
Nsg51
I00
sg52
Vhttps://pbs.twimg.com/profile_banners/395649520/1362548432
p825
sg53
I00
sg54
I01
sg55
VEB9FE6
p826
sg56
I01
sg57
I00
sg58
Vhttp://pbs.twimg.com/profile_background_images/457398451118960640/6EGLkhIA.png
p827
sg59
Vlove_suchi
p828
sg61
I0
sg62
Vracheal chong
p829
sg64
VF3F3F3
p830
sg65
Nsg66
I395649520
sg67
VEBEBEB
p831
sbsg95
I0
sg96
V<a href="http://twitter.com/download/iphone" rel="nofollow">Twitter for iPhone</a>
p832
sg98
(lp833
sg66
I543764154054483968
sbag3
(g4
g5
Ntp834
Rp835
(dp836
g9
I0
sg10
Nsg11
Nsg12
(lp837
sg14
I00
sg15
Nsg16
Nsg17
(lp838
sg19
Nsg20
Nsg21
Nsg22
VSat Dec 13 13:47:01 +0000 2014
p839
sg24
Nsg25
Nsg26
Nsg28
Nsg29
Nsg30
Nsg31
I00
sg32
Nsg33
(lp840
sg68
Nsg69
V543764027050962944
p841
sg71
Nsg72
VSometimes I forgot to reply. Oops. My bad.
p842
sg74
I00
sg75
Ven
p843
sg77
g3
(g35
g5
Ntp844
Rp845
(dp846
g10
g81
sg39
VCCC0CC
p847
sg40
Ven
p848
sg41
VKuala Lumpur
p849
sg42
I97
sg43
I11887
sg22
VSat Oct 22 00:58:27 +0000 2011
p850
sg44
I00
sg45
VSmile because it's beautiful :)
p851
sg46
Vhttps://pbs.twimg.com/profile_images/532462885113307136/s157nFVW_normal.jpeg
p852
sg47
I85
sg48
I840
sg49
I28800
sg50
Nsg51
I00
sg52
Vhttps://pbs.twimg.com/profile_banners/395649520/1362548432
p853
sg53
I00
sg54
I01
sg55
VEB9FE6
p854
sg56
I01
sg57
I00
sg58
Vhttp://pbs.twimg.com/profile_background_images/457398451118960640/6EGLkhIA.png
p855
sg59
Vlove_suchi
p856
sg61
I0
sg62
Vracheal chong
p857
sg64
VF3F3F3
p858
sg65
Nsg66
I395649520
sg67
VEBEBEB
p859
sbsg95
I0
sg96
V<a href="http://twitter.com/download/iphone" rel="nofollow">Twitter for iPhone</a>
p860
sg98
(lp861
sg66
I543764027050962944
sbag3
(g4
g5
Ntp862
Rp863
(dp864
g9
I0
sg10
Nsg11
Nsg12
(lp865
sg14
I00
sg15
Nsg16
Nsg17
(lp866
sg19
Nsg20
Nsg21
Nsg22
VFri Dec 12 06:51:11 +0000 2014
p867
sg24
Nsg25
Nsg26
Nsg28
Nsg29
Nsg30
Nsg31
I00
sg32
Nsg33
(lp868
sg68
Nsg69
V543296991476719616
p869
sg71
Nsg72
VIt's better late than never.
p870
sg74
I00
sg75
Ven
p871
sg77
g3
(g35
g5
Ntp872
Rp873
(dp874
g10
g81
sg39
VCCC0CC
p875
sg40
Ven
p876
sg41
VKuala Lumpur
p877
sg42
I97
sg43
I11887
sg22
VSat Oct 22 00:58:27 +0000 2011
p878
sg44
I00
sg45
VSmile because it's beautiful :)
p879
sg46
Vhttps://pbs.twimg.com/profile_images/532462885113307136/s157nFVW_normal.jpeg
p880
sg47
I85
sg48
I840
sg49
I28800
sg50
Nsg51
I00
sg52
Vhttps://pbs.twimg.com/profile_banners/395649520/1362548432
p881
sg53
I00
sg54
I01
sg55
VEB9FE6
p882
sg56
I01
sg57
I00
sg58
Vhttp://pbs.twimg.com/profile_background_images/457398451118960640/6EGLkhIA.png
p883
sg59
Vlove_suchi
p884
sg61
I0
sg62
Vracheal chong
p885
sg64
VF3F3F3
p886
sg65
Nsg66
I395649520
sg67
VEBEBEB
p887
sbsg95
I0
sg96
V<a href="http://twitter.com/download/iphone" rel="nofollow">Twitter for iPhone</a>
p888
sg98
(lp889
sg66
I543296991476719616
sbag3
(g4
g5
Ntp890
Rp891
(dp892
g9
I0
sg10
Nsg11
Nsg12
(lp893
sg14
I00
sg15
Nsg16
Nsg17
(lp894
sg19
Nsg20
Nsg21
Nsg22
VFri Dec 12 03:22:18 +0000 2014
p895
sg24
Nsg25
Nsg26
Nsg28
Nsg29
Nsg30
Nsg31
I00
sg32
Nsg33
(lp896
sg68
Nsg69
V543244423534891010
p897
sg71
Nsg72
VGoing full spontaneous mode.
p898
sg74
I00
sg75
Ven
p899
sg77
g3
(g35
g5
Ntp900
Rp901
(dp902
g10
g81
sg39
VCCC0CC
p903
sg40
Ven
p904
sg41
VKuala Lumpur
p905
sg42
I97
sg43
I11887
sg22
VSat Oct 22 00:58:27 +0000 2011
p906
sg44
I00
sg45
VSmile because it's beautiful :)
p907
sg46
Vhttps://pbs.twimg.com/profile_images/532462885113307136/s157nFVW_normal.jpeg
p908
sg47
I85
sg48
I840
sg49
I28800
sg50
Nsg51
I00
sg52
Vhttps://pbs.twimg.com/profile_banners/395649520/1362548432
p909
sg53
I00
sg54
I01
sg55
VEB9FE6
p910
sg56
I01
sg57
I00
sg58
Vhttp://pbs.twimg.com/profile_background_images/457398451118960640/6EGLkhIA.png
p911
sg59
Vlove_suchi
p912
sg61
I0
sg62
Vracheal chong
p913
sg64
VF3F3F3
p914
sg65
Nsg66
I395649520
sg67
VEBEBEB
p915
sbsg95
I0
sg96
V<a href="http://twitter.com/download/iphone" rel="nofollow">Twitter for iPhone</a>
p916
sg98
(lp917
sg66
I543244423534891010
sbag3
(g4
g5
Ntp918
Rp919
(dp920
g9
I0
sg10
Nsg11
Nsg12
(lp921
g3
(g634
g5
Ntp922
Rp923
(dp924
g638
Vyolo
p925
sbasg14
I00
sg15
Nsg16
Nsg17
(lp926
sg19
Nsg20
Nsg21
Nsg22
VFri Dec 12 03:21:24 +0000 2014
p927
sg24
Nsg25
Nsg26
Nsg28
Nsg29
Nsg30
Nsg31
I00
sg32
Nsg33
(lp928
sg68
Nsg69
V543244196916629505
p929
sg71
Nsg72
VFirst time presentation I did not prepared anything at all. #yolo
p930
sg74
I00
sg75
Ven
p931
sg77
g3
(g35
g5
Ntp932
Rp933
(dp934
g10
g81
sg39
VCCC0CC
p935
sg40
Ven
p936
sg41
VKuala Lumpur
p937
sg42
I97
sg43
I11887
sg22
VSat Oct 22 00:58:27 +0000 2011
p938
sg44
I00
sg45
VSmile because it's beautiful :)
p939
sg46
Vhttps://pbs.twimg.com/profile_images/532462885113307136/s157nFVW_normal.jpeg
p940
sg47
I85
sg48
I840
sg49
I28800
sg50
Nsg51
I00
sg52
Vhttps://pbs.twimg.com/profile_banners/395649520/1362548432
p941
sg53
I00
sg54
I01
sg55
VEB9FE6
p942
sg56
I01
sg57
I00
sg58
Vhttp://pbs.twimg.com/profile_background_images/457398451118960640/6EGLkhIA.png
p943
sg59
Vlove_suchi
p944
sg61
I0
sg62
Vracheal chong
p945
sg64
VF3F3F3
p946
sg65
Nsg66
I395649520
sg67
VEBEBEB
p947
sbsg95
I0
sg96
V<a href="http://twitter.com/download/iphone" rel="nofollow">Twitter for iPhone</a>
p948
sg98
(lp949
sg66
I543244196916629505
sbag3
(g4
g5
Ntp950
Rp951
(dp952
g9
I0
sg10
Nsg11
Nsg12
(lp953
sg14
I00
sg15
g3
(g4
g5
Ntp954
Rp955
(dp956
g9
I4798
sg10
Nsg11
Nsg12
(lp957
sg14
I00
sg15
Nsg16
Nsg17
(lp958
(dp959
Vexpanded_url
p960
Vhttp://twitter.com/LearnSomethlng/status/543221504301740032/photo/1
p961
sVdisplay_url
p962
Vpic.twitter.com/HOYA23WosX
p963
sVurl
p964
Vhttp://t.co/HOYA23WosX
p965
sVmedia_url_https
p966
Vhttps://pbs.twimg.com/media/B4npFHlCIAAM8cz.jpg
p967
sVid_str
p968
V543221504217849856
p969
sVsizes
p970
(dp971
Vlarge
p972
(dp973
Vh
p974
I985
sVresize
p975
Vfit
p976
sVw
p977
I556
ssVsmall
p978
(dp979
Vh
p980
I602
sVresize
p981
Vfit
p982
sVw
p983
I340
ssVmedium
p984
(dp985
Vh
p986
I985
sVresize
p987
Vfit
p988
sVw
p989
I556
ssVthumb
p990
(dp991
Vh
p992
I150
sVresize
p993
Vcrop
p994
sVw
p995
I150
sssVindices
p996
(lp997
I8
aI30
asVtype
p998
Vphoto
p999
sVid
p1000
I543221504217849856
sVmedia_url
p1001
Vhttp://pbs.twimg.com/media/B4npFHlCIAAM8cz.jpg
p1002
sasg19
Nsg20
Nsg21
Nsg22
VFri Dec 12 01:51:13 +0000 2014
p1003
sg24
Nsg25
I01
sg26
Nsg28
Nsg29
Nsg30
Nsg31
I00
sg32
Nsg33
(lp1004
sg68
Nsg69
V543221504301740032
p1005
sg71
Nsg72
VFuture: http://t.co/HOYA23WosX
p1006
sg74
I00
sg75
Ven
p1007
sg77
g3
(g35
g5
Ntp1008
Rp1009
(dp1010
g10
VWorldwide
p1011
sg39
V333333
p1012
sg40
Ven
p1013
sg41
VNew Delhi
p1014
sg42
I2059743
sg43
I29216
sg22
VMon Sep 24 07:13:39 +0000 2012
p1015
sg44
I00
sg45
VDiscover amazing photos while expanding your mind. Learn something new every day with us. We don't claim to own any of the pictures that are Posted Here!!
p1016
sg46
Vhttps://pbs.twimg.com/profile_images/535859612939866113/IMWxeWV2_normal.jpeg
p1017
sg47
I300728
sg48
I153
sg49
I19800
sg50
Nsg51
I00
sg52
Vhttps://pbs.twimg.com/profile_banners/843112550/1416594319
p1018
sg53
I00
sg54
I00
sg55
V990000
p1019
sg56
I00
sg57
I00
sg58
Vhttp://abs.twimg.com/images/themes/theme7/bg.gif
p1020
sg59
VLearnSomethlng
p1021
sg61
I3656
sg62
VLearn Something
p1022
sg64
VF3F3F3
p1023
sg65
Nsg66
I843112550
sg67
VEBEBEB
p1024
sbsg95
I3199
sg96
V<a href="http://twitter.com/download/android" rel="nofollow">Twitter for Android</a>
p1025
sg98
(lp1026
sg66
I543221504301740032
sbsg16
Nsg17
(lp1027
(dp1028
Vsource_user_id
p1029
I843112550
sVsource_status_id_str
p1030
V543221504301740032
p1031
sVexpanded_url
p1032
Vhttp://twitter.com/LearnSomethlng/status/543221504301740032/photo/1
p1033
sVdisplay_url
p1034
Vpic.twitter.com/HOYA23WosX
p1035
sVurl
p1036
Vhttp://t.co/HOYA23WosX
p1037
sVmedia_url_https
p1038
Vhttps://pbs.twimg.com/media/B4npFHlCIAAM8cz.jpg
p1039
sVsource_user_id_str
p1040
V843112550
p1041
sVsource_status_id
p1042
I543221504301740032
sVid_str
p1043
V543221504217849856
p1044
sVsizes
p1045
(dp1046
Vlarge
p1047
(dp1048
Vh
p1049
I985
sVresize
p1050
Vfit
p1051
sVw
p1052
I556
ssVsmall
p1053
(dp1054
Vh
p1055
I602
sVresize
p1056
Vfit
p1057
sVw
p1058
I340
ssVmedium
p1059
(dp1060
Vh
p1061
I985
sVresize
p1062
Vfit
p1063
sVw
p1064
I556
ssVthumb
p1065
(dp1066
Vh
p1067
I150
sVresize
p1068
Vcrop
p1069
sVw
p1070
I150
sssVindices
p1071
(lp1072
I28
aI50
asVtype
p1073
Vphoto
p1074
sVid
p1075
I543221504217849856
sVmedia_url
p1076
Vhttp://pbs.twimg.com/media/B4npFHlCIAAM8cz.jpg
p1077
sasg19
Nsg20
Nsg21
Nsg22
VFri Dec 12 02:15:46 +0000 2014
p1078
sg24
Nsg25
I00
sg26
Nsg28
Nsg29
Nsg30
Nsg31
I00
sg32
Nsg33
(lp1079
g3
(g35
g5
Ntp1080
Rp1081
(dp1082
g10
Nsg39
Nsg40
Nsg41
Nsg42
Nsg43
Nsg22
Nsg44
Nsg45
Nsg46
Nsg47
Nsg48
Nsg49
Nsg50
Nsg51
Nsg52
Nsg53
Nsg54
Nsg55
Nsg56
Nsg57
Nsg58
Nsg59
VLearnSomethlng
p1083
sg61
Nsg62
VLearn Something
p1084
sg64
Nsg65
Nsg66
I843112550
sg67
Nsbasg68
Nsg69
V543227682595405825
p1085
sg71
Nsg72
VRT @LearnSomethlng: Future: http://t.co/HOYA23WosX
p1086
sg74
I00
sg75
Ven
p1087
sg77
g3
(g35
g5
Ntp1088
Rp1089
(dp1090
g10
g81
sg39
VCCC0CC
p1091
sg40
Ven
p1092
sg41
VKuala Lumpur
p1093
sg42
I97
sg43
I11887
sg22
VSat Oct 22 00:58:27 +0000 2011
p1094
sg44
I00
sg45
VSmile because it's beautiful :)
p1095
sg46
Vhttps://pbs.twimg.com/profile_images/532462885113307136/s157nFVW_normal.jpeg
p1096
sg47
I85
sg48
I840
sg49
I28800
sg50
Nsg51
I00
sg52
Vhttps://pbs.twimg.com/profile_banners/395649520/1362548432
p1097
sg53
I00
sg54
I01
sg55
VEB9FE6
p1098
sg56
I01
sg57
I00
sg58
Vhttp://pbs.twimg.com/profile_background_images/457398451118960640/6EGLkhIA.png
p1099
sg59
Vlove_suchi
p1100
sg61
I0
sg62
Vracheal chong
p1101
sg64
VF3F3F3
p1102
sg65
Nsg66
I395649520
sg67
VEBEBEB
p1103
sbsg95
I3199
sg96
V<a href="http://twitter.com/download/iphone" rel="nofollow">Twitter for iPhone</a>
p1104
sg98
(lp1105
sg66
I543227682595405825
sbaa.