(lp0
S'amaramoore_'
p1
a(lp2
ccopy_reg
_reconstructor
p3
(ctwitter.status
Status
p4
c__builtin__
object
p5
Ntp6
Rp7
(dp8
S'_favorite_count'
p9
I0
sS'_location'
p10
NsS'_withheld_scope'
p11
NsS'hashtags'
p12
(lp13
g3
(ctwitter.hashtag
Hashtag
p14
g5
Ntp15
Rp16
(dp17
S'text'
p18
VSoundCloud
p19
sbasS'_truncated'
p20
I00
sS'_retweeted_status'
p21
g3
(g4
g5
Ntp22
Rp23
(dp24
g9
I120
sg10
Nsg11
Nsg12
(lp25
g3
(g14
g5
Ntp26
Rp27
(dp28
g18
VSoundCloud
p29
sbasg20
I00
sg21
NsS'_withheld_copyright'
p30
NsS'media'
p31
(lp32
sS'_place'
p33
NsS'_contributors'
p34
NsS'_current_user_retweet'
p35
NsS'_created_at'
p36
VThu Dec 11 20:54:14 +0000 2014
p37
sS'_scopes'
p38
NsS'_possibly_sensitive'
p39
I00
sS'_in_reply_to_screen_name'
p40
NsS'_coordinates'
p41
NsS'_in_reply_to_user_id'
p42
NsS'_geo'
p43
NsS'_favorited'
p44
I00
sS'_withheld_in_countries'
p45
NsS'user_mentions'
p46
(lp47
sS'_now'
p48
NsS'_id_str'
p49
NsS'_in_reply_to_status_id'
p50
NsS'_text'
p51
VHomies by Nate Lewis I on #SoundCloud Everyone Go Listen \U0001f3a4\U0001f3b6\U0001f525  https://t.co/93O1zsRecF
p52
sS'_retweeted'
p53
I00
sS'lang'
p54
Ven
p55
sS'_user'
p56
g3
(ctwitter.user
User
p57
g5
Ntp58
Rp59
(dp60
g10
V
p61
sS'_profile_text_color'
p62
V333333
p63
sS'_lang'
p64
Ven
p65
sS'_time_zone'
p66
VQuito
p67
sS'_followers_count'
p68
I1917
sS'_statuses_count'
p69
I21743
sg36
VSun Jun 05 01:28:38 +0000 2011
p70
sS'_verified'
p71
I00
sS'_description'
p72
VSenior @ Glenoak, Music Producer, check my newest song out  'Homies' below!
p73
sS'_profile_image_url'
p74
Vhttps://pbs.twimg.com/profile_images/543291985575280640/INrskfWe_normal.jpeg
p75
sS'_friends_count'
p76
I789
sS'_favourites_count'
p77
I7471
sS'_utc_offset'
p78
I-18000
sS'_status'
p79
NsS'_protected'
p80
I00
sS'_profile_banner_url'
p81
Vhttps://pbs.twimg.com/profile_banners/311184553/1418014169
p82
sS'_notifications'
p83
I00
sS'_profile_background_tile'
p84
I00
sS'_profile_link_color'
p85
V009999
p86
sS'_geo_enabled'
p87
I01
sS'_contributors_enabled'
p88
I00
sS'_profile_background_image_url'
p89
Vhttp://pbs.twimg.com/profile_background_images/475884903/image
p90
sS'_screen_name'
p91
VNatee_Lewis
p92
sS'_listed_count'
p93
I0
sS'_name'
p94
VNATE LEWIS I
p95
sS'_profile_sidebar_fill_color'
p96
VEFEFEF
p97
sS'_url'
p98
Vhttps://t.co/GhqanGhrqj
p99
sS'_id'
p100
I311184553
sS'_profile_background_color'
p101
V131516
p102
sbsS'_retweet_count'
p103
I339
sS'_source'
p104
V<a href="http://www.apple.com" rel="nofollow">iOS</a>
p105
sS'urls'
p106
(lp107
g3
(ctwitter.url
Url
p108
g5
Ntp109
Rp110
(dp111
S'url'
p112
Vhttps://t.co/93O1zsRecF
p113
sS'expanded_url'
p114
Vhttps://soundcloud.com/nate-lewis-ii/homies
p115
sbasg100
I543146766213062656
sbsg30
Nsg31
(lp116
sg33
Nsg34
Nsg35
Nsg36
VFri Dec 12 06:46:15 +0000 2014
p117
sg38
Nsg39
I00
sg40
Nsg41
Nsg42
Nsg43
Nsg44
I00
sg45
Nsg46
(lp118
g3
(g57
g5
Ntp119
Rp120
(dp121
g10
Nsg62
Nsg64
Nsg66
Nsg68
Nsg69
Nsg36
Nsg71
Nsg72
Nsg74
Nsg76
Nsg77
Nsg78
Nsg79
Nsg80
Nsg81
Nsg83
Nsg84
Nsg85
Nsg87
Nsg88
Nsg89
Nsg91
VNatee_Lewis
p122
sg93
Nsg94
VNATE LEWIS I
p123
sg96
Nsg98
Nsg100
I311184553
sg101
Nsbasg48
Nsg49
Nsg50
Nsg51
VRT @Natee_Lewis: Homies by Nate Lewis I on #SoundCloud Everyone Go Listen \U0001f3a4\U0001f3b6\U0001f525  https://t.co/93O1zsRecF
p124
sg53
I00
sg54
Ven
p125
sg56
g3
(g57
g5
Ntp126
Rp127
(dp128
g10
g61
sg62
V333333
p129
sg64
Ven
p130
sg66
VEastern Time (US & Canada)
p131
sg68
I1126
sg69
I23732
sg36
VWed Oct 10 01:35:28 +0000 2012
p132
sg71
I00
sg72
VIG: @_amaramoore ................................. single, senior, hooper
p133
sg74
Vhttps://pbs.twimg.com/profile_images/541409640655765504/OSph9-1M_normal.jpeg
p134
sg76
I644
sg77
I2277
sg78
I-18000
sg79
Nsg80
I00
sg81
Vhttps://pbs.twimg.com/profile_banners/870912158/1417917161
p135
sg83
I00
sg84
I00
sg85
V0084B4
p136
sg87
I00
sg88
I00
sg89
Vhttp://abs.twimg.com/images/themes/theme1/bg.png
p137
sg91
Vamaramoore_
p138
sg93
I1
sg94
V\u0101
p139
sg96
VDDEEF6
p140
sg98
Nsg100
I870912158
sg101
VC0DEED
p141
sbsg103
I339
sg104
V<a href="http://twitter.com/download/iphone" rel="nofollow">Twitter for iPhone</a>
p142
sg106
(lp143
g3
(g108
g5
Ntp144
Rp145
(dp146
g112
Vhttps://t.co/93O1zsRecF
p147
sg114
Vhttps://soundcloud.com/nate-lewis-ii/homies
p148
sbasg100
I543295752139571200
sbag3
(g4
g5
Ntp149
Rp150
(dp151
g9
I0
sg10
Nsg11
Nsg12
(lp152
sg20
I00
sg21
g3
(g4
g5
Ntp153
Rp154
(dp155
g9
I0
sg10
Nsg11
Nsg12
(lp156
sg20
I00
sg21
Nsg30
Nsg31
(lp157
sg33
Nsg34
Nsg35
Nsg36
VThu Dec 11 06:09:15 +0000 2014
p158
sg38
Nsg39
Nsg40
Vamaramoore_
p159
sg41
Nsg42
I870912158
sg43
Nsg44
I00
sg45
Nsg46
(lp160
g3
(g57
g5
Ntp161
Rp162
(dp163
g10
Nsg62
Nsg64
Nsg66
Nsg68
Nsg69
Nsg36
Nsg71
Nsg72
Nsg74
Nsg76
Nsg77
Nsg78
Nsg79
Nsg80
Nsg81
Nsg83
Nsg84
Nsg85
Nsg87
Nsg88
Nsg89
Nsg91
Vamaramoore_
p164
sg93
Nsg94
V\u0101
p165
sg96
Nsg98
Nsg100
I870912158
sg101
Nsbasg48
Nsg49
Nsg50
I542923847419174913
sg51
V\u201c@amaramoore_: Don't ever put shii past nobody \U0001f645\u201d
p166
sg53
I00
sg54
Ven
p167
sg56
g3
(g57
g5
Ntp168
Rp169
(dp170
g10
g61
sg62
V333333
p171
sg64
Ven
p172
sg66
Nsg68
I1467
sg69
I45981
sg36
VTue Jun 11 03:29:37 +0000 2013
p173
sg71
I00
sg72
ViG : Rondonumbernine__ 1\u20e39\u20e3 Yr Old King | Squad Shit Only | By My Damn Self
p174
sg74
Vhttps://pbs.twimg.com/profile_images/543838528560705537/UuIfzJV__normal.jpeg
p175
sg76
I934
sg77
I30743
sg78
Nsg79
Nsg80
I00
sg81
Vhttps://pbs.twimg.com/profile_banners/1500180596/1417685244
p176
sg83
I00
sg84
I01
sg85
V009999
p177
sg87
I01
sg88
I00
sg89
Vhttp://abs.twimg.com/images/themes/theme14/bg.gif
p178
sg91
Vzheggy_the_hbk
p179
sg93
I1
sg94
V\u2728 #\u3072ncle_\u26a1\ufe0fleez \u2728
p180
sg96
VEFEFEF
p181
sg98
Nsg100
I1500180596
sg101
V131516
p182
sbsg103
I1
sg104
V<a href="http://twitter.com/download/iphone" rel="nofollow">Twitter for iPhone</a>
p183
sg106
(lp184
sg100
I542924050675535872
sbsg30
Nsg31
(lp185
sg33
Nsg34
Nsg35
Nsg36
VThu Dec 11 06:11:24 +0000 2014
p186
sg38
Nsg39
Nsg40
Nsg41
Nsg42
Nsg43
Nsg44
I00
sg45
Nsg46
(lp187
g3
(g57
g5
Ntp188
Rp189
(dp190
g10
Nsg62
Nsg64
Nsg66
Nsg68
Nsg69
Nsg36
Nsg71
Nsg72
Nsg74
Nsg76
Nsg77
Nsg78
Nsg79
Nsg80
Nsg81
Nsg83
Nsg84
Nsg85
Nsg87
Nsg88
Nsg89
Nsg91
Vzheggy_the_hbk
p191
sg93
Nsg94
V\u2728 #\u3072ncle_\u26a1\ufe0fleez \u2728
p192
sg96
Nsg98
Nsg100
I1500180596
sg101
Nsbag3
(g57
g5
Ntp193
Rp194
(dp195
g10
Nsg62
Nsg64
Nsg66
Nsg68
Nsg69
Nsg36
Nsg71
Nsg72
Nsg74
Nsg76
Nsg77
Nsg78
Nsg79
Nsg80
Nsg81
Nsg83
Nsg84
Nsg85
Nsg87
Nsg88
Nsg89
Nsg91
Vamaramoore_
p196
sg93
Nsg94
V\u0101
p197
sg96
Nsg98
Nsg100
I870912158
sg101
Nsbasg48
Nsg49
Nsg50
Nsg51
VRT @zheggy_the_hbk: \u201c@amaramoore_: Don't ever put shii past nobody \U0001f645\u201d
p198
sg53
I00
sg54
Ven
p199
sg56
g3
(g57
g5
Ntp200
Rp201
(dp202
g10
g61
sg62
V333333
p203
sg64
Ven
p204
sg66
VEastern Time (US & Canada)
p205
sg68
I1126
sg69
I23732
sg36
VWed Oct 10 01:35:28 +0000 2012
p206
sg71
I00
sg72
VIG: @_amaramoore ................................. single, senior, hooper
p207
sg74
Vhttps://pbs.twimg.com/profile_images/541409640655765504/OSph9-1M_normal.jpeg
p208
sg76
I644
sg77
I2277
sg78
I-18000
sg79
Nsg80
I00
sg81
Vhttps://pbs.twimg.com/profile_banners/870912158/1417917161
p209
sg83
I00
sg84
I00
sg85
V0084B4
p210
sg87
I00
sg88
I00
sg89
Vhttp://abs.twimg.com/images/themes/theme1/bg.png
p211
sg91
Vamaramoore_
p212
sg93
I1
sg94
V\u0101
p213
sg96
VDDEEF6
p214
sg98
Nsg100
I870912158
sg101
VC0DEED
p215
sbsg103
I1
sg104
V<a href="http://twitter.com/download/iphone" rel="nofollow">Twitter for iPhone</a>
p216
sg106
(lp217
sg100
I542924591023153152
sbag3
(g4
g5
Ntp218
Rp219
(dp220
g9
I0
sg10
Nsg11
Nsg12
(lp221
sg20
I00
sg21
Nsg30
Nsg31
(lp222
sg33
Nsg34
Nsg35
Nsg36
VThu Dec 11 06:08:26 +0000 2014
p223
sg38
Nsg39
Nsg40
Nsg41
Nsg42
Nsg43
Nsg44
I00
sg45
Nsg46
(lp224
sg48
Nsg49
Nsg50
Nsg51
VDon't ever put shii past nobody \U0001f645
p225
sg53
I00
sg54
Ven
p226
sg56
g3
(g57
g5
Ntp227
Rp228
(dp229
g10
g61
sg62
V333333
p230
sg64
Ven
p231
sg66
VEastern Time (US & Canada)
p232
sg68
I1126
sg69
I23732
sg36
VWed Oct 10 01:35:28 +0000 2012
p233
sg71
I00
sg72
VIG: @_amaramoore ................................. single, senior, hooper
p234
sg74
Vhttps://pbs.twimg.com/profile_images/541409640655765504/OSph9-1M_normal.jpeg
p235
sg76
I644
sg77
I2277
sg78
I-18000
sg79
Nsg80
I00
sg81
Vhttps://pbs.twimg.com/profile_banners/870912158/1417917161
p236
sg83
I00
sg84
I00
sg85
V0084B4
p237
sg87
I00
sg88
I00
sg89
Vhttp://abs.twimg.com/images/themes/theme1/bg.png
p238
sg91
Vamaramoore_
p239
sg93
I1
sg94
V\u0101
p240
sg96
VDDEEF6
p241
sg98
Nsg100
I870912158
sg101
VC0DEED
p242
sbsg103
I2
sg104
V<a href="http://twitter.com/download/iphone" rel="nofollow">Twitter for iPhone</a>
p243
sg106
(lp244
sg100
I542923847419174913
sbag3
(g4
g5
Ntp245
Rp246
(dp247
g9
I0
sg10
Nsg11
Nsg12
(lp248
sg20
I00
sg21
g3
(g4
g5
Ntp249
Rp250
(dp251
g9
I1
sg10
Nsg11
Nsg12
(lp252
sg20
I00
sg21
Nsg30
Nsg31
(lp253
sg33
Nsg34
Nsg35
Nsg36
VWed Dec 10 19:49:17 +0000 2014
p254
sg38
Nsg39
Nsg40
Nsg41
Nsg42
Nsg43
Nsg44
I00
sg45
Nsg46
(lp255
sg48
Nsg49
Nsg50
Nsg51
VShit gets old Quick
p256
sg53
I00
sg54
Ven
p257
sg56
g3
(g57
g5
Ntp258
Rp259
(dp260
g10
VCanton OHIO
p261
sg62
V333333
p262
sg64
Ven
p263
sg66
Nsg68
I756
sg69
I18923
sg36
VFri Jan 04 19:53:05 +0000 2013
p264
sg71
I00
sg72
VReal Bo$$ | Free da Guys \u203c\ufe0f
p265
sg74
Vhttps://pbs.twimg.com/profile_images/539225692077318144/GLxbAiH__normal.jpeg
p266
sg76
I387
sg77
I2254
sg78
Nsg79
Nsg80
I00
sg81
Vhttps://pbs.twimg.com/profile_banners/1061293339/1418344694
p267
sg83
I00
sg84
I00
sg85
V0084B4
p268
sg87
I01
sg88
I00
sg89
Vhttp://abs.twimg.com/images/themes/theme1/bg.png
p269
sg91
VJ_thomp100
p270
sg93
I1
sg94
VJtone\u203c\ufe0f
p271
sg96
VDDEEF6
p272
sg98
Nsg100
I1061293339
sg101
VC0DEED
p273
sbsg103
I2
sg104
V<a href="http://twitter.com/download/iphone" rel="nofollow">Twitter for iPhone</a>
p274
sg106
(lp275
sg100
I542768030527549440
sbsg30
Nsg31
(lp276
sg33
Nsg34
Nsg35
Nsg36
VWed Dec 10 19:54:30 +0000 2014
p277
sg38
Nsg39
Nsg40
Nsg41
Nsg42
Nsg43
Nsg44
I00
sg45
Nsg46
(lp278
g3
(g57
g5
Ntp279
Rp280
(dp281
g10
Nsg62
Nsg64
Nsg66
Nsg68
Nsg69
Nsg36
Nsg71
Nsg72
Nsg74
Nsg76
Nsg77
Nsg78
Nsg79
Nsg80
Nsg81
Nsg83
Nsg84
Nsg85
Nsg87
Nsg88
Nsg89
Nsg91
VJ_thomp100
p282
sg93
Nsg94
VJtone\u203c\ufe0f
p283
sg96
Nsg98
Nsg100
I1061293339
sg101
Nsbasg48
Nsg49
Nsg50
Nsg51
VRT @J_thomp100: Shit gets old Quick
p284
sg53
I00
sg54
Ven
p285
sg56
g3
(g57
g5
Ntp286
Rp287
(dp288
g10
g61
sg62
V333333
p289
sg64
Ven
p290
sg66
VEastern Time (US & Canada)
p291
sg68
I1126
sg69
I23732
sg36
VWed Oct 10 01:35:28 +0000 2012
p292
sg71
I00
sg72
VIG: @_amaramoore ................................. single, senior, hooper
p293
sg74
Vhttps://pbs.twimg.com/profile_images/541409640655765504/OSph9-1M_normal.jpeg
p294
sg76
I644
sg77
I2277
sg78
I-18000
sg79
Nsg80
I00
sg81
Vhttps://pbs.twimg.com/profile_banners/870912158/1417917161
p295
sg83
I00
sg84
I00
sg85
V0084B4
p296
sg87
I00
sg88
I00
sg89
Vhttp://abs.twimg.com/images/themes/theme1/bg.png
p297
sg91
Vamaramoore_
p298
sg93
I1
sg94
V\u0101
p299
sg96
VDDEEF6
p300
sg98
Nsg100
I870912158
sg101
VC0DEED
p301
sbsg103
I2
sg104
V<a href="http://twitter.com/download/iphone" rel="nofollow">Twitter for iPhone</a>
p302
sg106
(lp303
sg100
I542769343050690560
sbag3
(g4
g5
Ntp304
Rp305
(dp306
g9
I0
sg10
Nsg11
Nsg12
(lp307
sg20
I00
sg21
g3
(g4
g5
Ntp308
Rp309
(dp310
g9
I0
sg10
Nsg11
Nsg12
(lp311
sg20
I00
sg21
Nsg30
Nsg31
(lp312
(dp313
Vsource_user_id
p314
I1062210343
sVsource_status_id_str
p315
V542718734688059392
p316
sVexpanded_url
p317
Vhttp://twitter.com/_23isBACK_/status/542718734688059392/photo/1
p318
sVdisplay_url
p319
Vpic.twitter.com/wdRRpENliw
p320
sVurl
p321
Vhttp://t.co/wdRRpENliw
p322
sVmedia_url_https
p323
Vhttps://pbs.twimg.com/media/B4gf0DYIUAAm4ve.jpg
p324
sVsource_user_id_str
p325
V1062210343
p326
sVsource_status_id
p327
I542718734688059392
sVid_str
p328
V542718734218317824
p329
sVsizes
p330
(dp331
Vsmall
p332
(dp333
Vh
p334
I455
sVresize
p335
Vfit
p336
sVw
p337
I340
ssVlarge
p338
(dp339
Vh
p340
I804
sVresize
p341
Vfit
p342
sVw
p343
I600
ssVmedium
p344
(dp345
Vh
p346
I804
sVresize
p347
Vfit
p348
sVw
p349
I600
ssVthumb
p350
(dp351
Vh
p352
I150
sVresize
p353
Vcrop
p354
sVw
p355
I150
sssVindices
p356
(lp357
I105
aI127
asVtype
p358
Vphoto
p359
sVid
p360
I542718734218317824
sVmedia_url
p361
Vhttp://pbs.twimg.com/media/B4gf0DYIUAAm4ve.jpg
p362
sasg33
Nsg34
Nsg35
Nsg36
VWed Dec 10 16:45:04 +0000 2014
p363
sg38
Nsg39
I00
sg40
V_23isBACK_
p364
sg41
Nsg42
I1062210343
sg43
Nsg44
I00
sg45
Nsg46
(lp365
g3
(g57
g5
Ntp366
Rp367
(dp368
g10
Nsg62
Nsg64
Nsg66
Nsg68
Nsg69
Nsg36
Nsg71
Nsg72
Nsg74
Nsg76
Nsg77
Nsg78
Nsg79
Nsg80
Nsg81
Nsg83
Nsg84
Nsg85
Nsg87
Nsg88
Nsg89
Nsg91
V_23isBACK_
p369
sg93
Nsg94
V23isBACK.com
p370
sg96
Nsg98
Nsg100
I1062210343
sg101
Nsbasg48
Nsg49
Nsg50
I542718734688059392
sg51
V\u201c@_23isBACK_: "Girls only" Jordans coming out in 2015. Click here http://t.co/egj3f2DVe2  for more pics. http://t.co/wdRRpENliw\u201d Bruh \U0001f611\U0001f64f
p371
sg53
I00
sg54
Ven
p372
sg56
g3
(g57
g5
Ntp373
Rp374
(dp375
g10
g61
sg62
V333333
p376
sg64
Ven
p377
sg66
Nsg68
I1292
sg69
I24794
sg36
VWed Dec 12 18:52:35 +0000 2012
p378
sg71
I00
sg72
VKing \u2728 #Massillon Basketball\u2757\ufe0fNumero 5 \u303d\ufe0f #TGOD \u270a
p379
sg74
Vhttps://pbs.twimg.com/profile_images/541970060177600512/cUY90yuH_normal.jpeg
p380
sg76
I813
sg77
I18546
sg78
Nsg79
Nsg80
I00
sg81
Vhttps://pbs.twimg.com/profile_banners/1007042328/1418324085
p381
sg83
I00
sg84
I00
sg85
V0084B4
p382
sg87
I01
sg88
I00
sg89
Vhttp://abs.twimg.com/images/themes/theme1/bg.png
p383
sg91
VKingMaxx__
p384
sg93
I0
sg94
VKingMax \ue10e
p385
sg96
VDDEEF6
p386
sg98
Nsg100
I1007042328
sg101
VC0DEED
p387
sbsg103
I1
sg104
V<a href="http://twitter.com/download/iphone" rel="nofollow">Twitter for iPhone</a>
p388
sg106
(lp389
g3
(g108
g5
Ntp390
Rp391
(dp392
g112
Vhttp://t.co/egj3f2DVe2
p393
sg114
Vhttp://23isBACK.com/re.htm
p394
sbasg100
I542721672567324672
sbsg30
Nsg31
(lp395
(dp396
Vsource_user_id
p397
I1062210343
sVsource_status_id_str
p398
V542718734688059392
p399
sVexpanded_url
p400
Vhttp://twitter.com/_23isBACK_/status/542718734688059392/photo/1
p401
sVdisplay_url
p402
Vpic.twitter.com/wdRRpENliw
p403
sVurl
p404
Vhttp://t.co/wdRRpENliw
p405
sVmedia_url_https
p406
Vhttps://pbs.twimg.com/media/B4gf0DYIUAAm4ve.jpg
p407
sVsource_user_id_str
p408
V1062210343
p409
sVsource_status_id
p410
I542718734688059392
sVid_str
p411
V542718734218317824
p412
sVsizes
p413
(dp414
Vsmall
p415
(dp416
Vh
p417
I455
sVresize
p418
Vfit
p419
sVw
p420
I340
ssVlarge
p421
(dp422
Vh
p423
I804
sVresize
p424
Vfit
p425
sVw
p426
I600
ssVmedium
p427
(dp428
Vh
p429
I804
sVresize
p430
Vfit
p431
sVw
p432
I600
ssVthumb
p433
(dp434
Vh
p435
I150
sVresize
p436
Vcrop
p437
sVw
p438
I150
sssVindices
p439
(lp440
I139
aI140
asVtype
p441
Vphoto
p442
sVid
p443
I542718734218317824
sVmedia_url
p444
Vhttp://pbs.twimg.com/media/B4gf0DYIUAAm4ve.jpg
p445
sasg33
Nsg34
Nsg35
Nsg36
VWed Dec 10 16:56:59 +0000 2014
p446
sg38
Nsg39
I00
sg40
Nsg41
Nsg42
Nsg43
Nsg44
I00
sg45
Nsg46
(lp447
g3
(g57
g5
Ntp448
Rp449
(dp450
g10
Nsg62
Nsg64
Nsg66
Nsg68
Nsg69
Nsg36
Nsg71
Nsg72
Nsg74
Nsg76
Nsg77
Nsg78
Nsg79
Nsg80
Nsg81
Nsg83
Nsg84
Nsg85
Nsg87
Nsg88
Nsg89
Nsg91
VKingMaxx__
p451
sg93
Nsg94
VKingMax \ue10e
p452
sg96
Nsg98
Nsg100
I1007042328
sg101
Nsbag3
(g57
g5
Ntp453
Rp454
(dp455
g10
Nsg62
Nsg64
Nsg66
Nsg68
Nsg69
Nsg36
Nsg71
Nsg72
Nsg74
Nsg76
Nsg77
Nsg78
Nsg79
Nsg80
Nsg81
Nsg83
Nsg84
Nsg85
Nsg87
Nsg88
Nsg89
Nsg91
V_23isBACK_
p456
sg93
Nsg94
V23isBACK.com
p457
sg96
Nsg98
Nsg100
I1062210343
sg101
Nsbasg48
Nsg49
Nsg50
Nsg51
VRT @KingMaxx__: \u201c@_23isBACK_: "Girls only" Jordans coming out in 2015. Click here http://t.co/egj3f2DVe2  for more pics. http://t.co/wdRRpE\u2026
p458
sg53
I00
sg54
Ven
p459
sg56
g3
(g57
g5
Ntp460
Rp461
(dp462
g10
g61
sg62
V333333
p463
sg64
Ven
p464
sg66
VEastern Time (US & Canada)
p465
sg68
I1126
sg69
I23732
sg36
VWed Oct 10 01:35:28 +0000 2012
p466
sg71
I00
sg72
VIG: @_amaramoore ................................. single, senior, hooper
p467
sg74
Vhttps://pbs.twimg.com/profile_images/541409640655765504/OSph9-1M_normal.jpeg
p468
sg76
I644
sg77
I2277
sg78
I-18000
sg79
Nsg80
I00
sg81
Vhttps://pbs.twimg.com/profile_banners/870912158/1417917161
p469
sg83
I00
sg84
I00
sg85
V0084B4
p470
sg87
I00
sg88
I00
sg89
Vhttp://abs.twimg.com/images/themes/theme1/bg.png
p471
sg91
Vamaramoore_
p472
sg93
I1
sg94
V\u0101
p473
sg96
VDDEEF6
p474
sg98
Nsg100
I870912158
sg101
VC0DEED
p475
sbsg103
I1
sg104
V<a href="http://twitter.com/download/iphone" rel="nofollow">Twitter for iPhone</a>
p476
sg106
(lp477
g3
(g108
g5
Ntp478
Rp479
(dp480
g112
Vhttp://t.co/egj3f2DVe2
p481
sg114
Vhttp://23isBACK.com/re.htm
p482
sbasg100
I542724671917928448
sbag3
(g4
g5
Ntp483
Rp484
(dp485
g9
I0
sg10
Nsg11
Nsg12
(lp486
sg20
I00
sg21
g3
(g4
g5
Ntp487
Rp488
(dp489
g9
I1
sg10
Nsg11
Nsg12
(lp490
sg20
I00
sg21
Nsg30
Nsg31
(lp491
sg33
Nsg34
Nsg35
Nsg36
VWed Dec 10 16:53:50 +0000 2014
p492
sg38
Nsg39
Nsg40
Vamaramoore_
p493
sg41
Nsg42
I870912158
sg43
Nsg44
I00
sg45
Nsg46
(lp494
g3
(g57
g5
Ntp495
Rp496
(dp497
g10
Nsg62
Nsg64
Nsg66
Nsg68
Nsg69
Nsg36
Nsg71
Nsg72
Nsg74
Nsg76
Nsg77
Nsg78
Nsg79
Nsg80
Nsg81
Nsg83
Nsg84
Nsg85
Nsg87
Nsg88
Nsg89
Nsg91
Vamaramoore_
p498
sg93
Nsg94
V\u0101
p499
sg96
Nsg98
Nsg100
I870912158
sg101
Nsbasg48
Nsg49
Nsg50
Nsg51
V@amaramoore_ Avi &gt;&gt;&gt;&gt; \U0001f60d\U0001f60d\U0001f60d\U0001f629
p500
sg53
I00
sg54
Vund
p501
sg56
g3
(g57
g5
Ntp502
Rp503
(dp504
g10
g61
sg62
V333333
p505
sg64
Ven
p506
sg66
Nsg68
I802
sg69
I33812
sg36
VSun Apr 29 03:07:06 +0000 2012
p507
sg71
I00
sg72
V\u2764\u2764 R.I.P. TANNY BABY !!!\u2764\ufe0f\u2764\ufe0f
p508
sg74
Vhttps://pbs.twimg.com/profile_images/543589187287797760/gQzz14bd_normal.jpeg
p509
sg76
I692
sg77
I4026
sg78
Nsg79
Nsg80
I00
sg81
Vhttps://pbs.twimg.com/profile_banners/566015541/1414906592
p510
sg83
I00
sg84
I00
sg85
V0084B4
p511
sg87
I01
sg88
I00
sg89
Vhttp://abs.twimg.com/images/themes/theme1/bg.png
p512
sg91
VFrancis_bitches
p513
sg93
I1
sg94
VImannni\u2764\ufe0f
p514
sg96
VDDEEF6
p515
sg98
Nsg100
I566015541
sg101
VC0DEED
p516
sbsg103
I1
sg104
V<a href="http://twitter.com/download/iphone" rel="nofollow">Twitter for iPhone</a>
p517
sg106
(lp518
sg100
I542723879157112832
sbsg30
Nsg31
(lp519
sg33
Nsg34
Nsg35
Nsg36
VWed Dec 10 16:56:31 +0000 2014
p520
sg38
Nsg39
Nsg40
Nsg41
Nsg42
Nsg43
Nsg44
I00
sg45
Nsg46
(lp521
g3
(g57
g5
Ntp522
Rp523
(dp524
g10
Nsg62
Nsg64
Nsg66
Nsg68
Nsg69
Nsg36
Nsg71
Nsg72
Nsg74
Nsg76
Nsg77
Nsg78
Nsg79
Nsg80
Nsg81
Nsg83
Nsg84
Nsg85
Nsg87
Nsg88
Nsg89
Nsg91
VFrancis_bitches
p525
sg93
Nsg94
VImannni\u2764\ufe0f
p526
sg96
Nsg98
Nsg100
I566015541
sg101
Nsbag3
(g57
g5
Ntp527
Rp528
(dp529
g10
Nsg62
Nsg64
Nsg66
Nsg68
Nsg69
Nsg36
Nsg71
Nsg72
Nsg74
Nsg76
Nsg77
Nsg78
Nsg79
Nsg80
Nsg81
Nsg83
Nsg84
Nsg85
Nsg87
Nsg88
Nsg89
Nsg91
Vamaramoore_
p530
sg93
Nsg94
V\u0101
p531
sg96
Nsg98
Nsg100
I870912158
sg101
Nsbasg48
Nsg49
Nsg50
Nsg51
VRT @Francis_bitches: @amaramoore_ Avi &gt;&gt;&gt;&gt; \U0001f60d\U0001f60d\U0001f60d\U0001f629
p532
sg53
I00
sg54
Vund
p533
sg56
g3
(g57
g5
Ntp534
Rp535
(dp536
g10
g61
sg62
V333333
p537
sg64
Ven
p538
sg66
VEastern Time (US & Canada)
p539
sg68
I1126
sg69
I23732
sg36
VWed Oct 10 01:35:28 +0000 2012
p540
sg71
I00
sg72
VIG: @_amaramoore ................................. single, senior, hooper
p541
sg74
Vhttps://pbs.twimg.com/profile_images/541409640655765504/OSph9-1M_normal.jpeg
p542
sg76
I644
sg77
I2277
sg78
I-18000
sg79
Nsg80
I00
sg81
Vhttps://pbs.twimg.com/profile_banners/870912158/1417917161
p543
sg83
I00
sg84
I00
sg85
V0084B4
p544
sg87
I00
sg88
I00
sg89
Vhttp://abs.twimg.com/images/themes/theme1/bg.png
p545
sg91
Vamaramoore_
p546
sg93
I1
sg94
V\u0101
p547
sg96
VDDEEF6
p548
sg98
Nsg100
I870912158
sg101
VC0DEED
p549
sbsg103
I1
sg104
V<a href="http://twitter.com/download/iphone" rel="nofollow">Twitter for iPhone</a>
p550
sg106
(lp551
sg100
I542724551818215425
sbag3
(g4
g5
Ntp552
Rp553
(dp554
g9
I0
sg10
Nsg11
Nsg12
(lp555
sg20
I00
sg21
Nsg30
Nsg31
(lp556
sg33
Nsg34
Nsg35
Nsg36
VWed Dec 10 16:56:29 +0000 2014
p557
sg38
Nsg39
Nsg40
VFrancis_bitches
p558
sg41
Nsg42
I566015541
sg43
Nsg44
I00
sg45
Nsg46
(lp559
g3
(g57
g5
Ntp560
Rp561
(dp562
g10
Nsg62
Nsg64
Nsg66
Nsg68
Nsg69
Nsg36
Nsg71
Nsg72
Nsg74
Nsg76
Nsg77
Nsg78
Nsg79
Nsg80
Nsg81
Nsg83
Nsg84
Nsg85
Nsg87
Nsg88
Nsg89
Nsg91
VFrancis_bitches
p563
sg93
Nsg94
VImannni\u2764\ufe0f
p564
sg96
Nsg98
Nsg100
I566015541
sg101
Nsbag3
(g57
g5
Ntp565
Rp566
(dp567
g10
Nsg62
Nsg64
Nsg66
Nsg68
Nsg69
Nsg36
Nsg71
Nsg72
Nsg74
Nsg76
Nsg77
Nsg78
Nsg79
Nsg80
Nsg81
Nsg83
Nsg84
Nsg85
Nsg87
Nsg88
Nsg89
Nsg91
Vamaramoore_
p568
sg93
Nsg94
V\u0101
p569
sg96
Nsg98
Nsg100
I870912158
sg101
Nsbasg48
Nsg49
Nsg50
I542723879157112832
sg51
V\u201c@Francis_bitches: @amaramoore_ Avi &gt;&gt;&gt;&gt; \U0001f60d\U0001f60d\U0001f60d\U0001f629\u201d thank you girl \U0001f618\u2764\ufe0f
p570
sg53
I00
sg54
Ven
p571
sg56
g3
(g57
g5
Ntp572
Rp573
(dp574
g10
g61
sg62
V333333
p575
sg64
Ven
p576
sg66
VEastern Time (US & Canada)
p577
sg68
I1126
sg69
I23732
sg36
VWed Oct 10 01:35:28 +0000 2012
p578
sg71
I00
sg72
VIG: @_amaramoore ................................. single, senior, hooper
p579
sg74
Vhttps://pbs.twimg.com/profile_images/541409640655765504/OSph9-1M_normal.jpeg
p580
sg76
I644
sg77
I2277
sg78
I-18000
sg79
Nsg80
I00
sg81
Vhttps://pbs.twimg.com/profile_banners/870912158/1417917161
p581
sg83
I00
sg84
I00
sg85
V0084B4
p582
sg87
I00
sg88
I00
sg89
Vhttp://abs.twimg.com/images/themes/theme1/bg.png
p583
sg91
Vamaramoore_
p584
sg93
I1
sg94
V\u0101
p585
sg96
VDDEEF6
p586
sg98
Nsg100
I870912158
sg101
VC0DEED
p587
sbsg103
I1
sg104
V<a href="http://twitter.com/download/iphone" rel="nofollow">Twitter for iPhone</a>
p588
sg106
(lp589
sg100
I542724543911960576
sbag3
(g4
g5
Ntp590
Rp591
(dp592
g9
I0
sg10
Nsg11
Nsg12
(lp593
sg20
I00
sg21
g3
(g4
g5
Ntp594
Rp595
(dp596
g9
I1
sg10
Nsg11
Nsg12
(lp597
sg20
I00
sg21
Nsg30
Nsg31
(lp598
sg33
Nsg34
Nsg35
Nsg36
VWed Dec 10 16:27:38 +0000 2014
p599
sg38
Nsg39
Nsg40
Nsg41
Nsg42
Nsg43
Nsg44
I00
sg45
Nsg46
(lp600
g3
(g57
g5
Ntp601
Rp602
(dp603
g10
Nsg62
Nsg64
Nsg66
Nsg68
Nsg69
Nsg36
Nsg71
Nsg72
Nsg74
Nsg76
Nsg77
Nsg78
Nsg79
Nsg80
Nsg81
Nsg83
Nsg84
Nsg85
Nsg87
Nsg88
Nsg89
Nsg91
Vamaramoore_
p604
sg93
Nsg94
V\u0101
p605
sg96
Nsg98
Nsg100
I870912158
sg101
Nsbasg48
Nsg49
Nsg50
Nsg51
V"@amaramoore_: I'm so irritated I want this week to b over with."
p606
sg53
I00
sg54
Ven
p607
sg56
g3
(g57
g5
Ntp608
Rp609
(dp610
g10
g61
sg62
V333333
p611
sg64
Ven
p612
sg66
Nsg68
I1
sg69
I39516
sg36
VSat Mar 01 16:41:47 +0000 2014
p613
sg71
I00
sg72
VI'm evil , lol bye.
p614
sg74
Vhttps://pbs.twimg.com/profile_images/542750018802040832/zN6gG1YB_normal.jpeg
p615
sg76
I3
sg77
I5855
sg78
Nsg79
Nsg80
I00
sg81
Vhttps://pbs.twimg.com/profile_banners/2367306840/1418241818
p616
sg83
I00
sg84
I01
sg85
V0084B4
p617
sg87
I01
sg88
I00
sg89
Vhttp://pbs.twimg.com/profile_background_images/441620764018499584/rAYY4lsE.png
p618
sg91
VAyyeDesarae
p619
sg93
I0
sg94
VDesarae \u2764
p620
sg96
VDDEEF6
p621
sg98
Nsg100
I2367306840
sg101
VC0DEED
p622
sbsg103
I1
sg104
V<a href="http://twitter.com/download/android" rel="nofollow">Twitter for Android</a>
p623
sg106
(lp624
sg100
I542717284461318145
sbsg30
Nsg31
(lp625
sg33
Nsg34
Nsg35
Nsg36
VWed Dec 10 16:56:14 +0000 2014
p626
sg38
Nsg39
Nsg40
Nsg41
Nsg42
Nsg43
Nsg44
I00
sg45
Nsg46
(lp627
g3
(g57
g5
Ntp628
Rp629
(dp630
g10
Nsg62
Nsg64
Nsg66
Nsg68
Nsg69
Nsg36
Nsg71
Nsg72
Nsg74
Nsg76
Nsg77
Nsg78
Nsg79
Nsg80
Nsg81
Nsg83
Nsg84
Nsg85
Nsg87
Nsg88
Nsg89
Nsg91
VAyyeDesarae
p631
sg93
Nsg94
VDesarae \u2661
p632
sg96
Nsg98
Nsg100
I2367306840
sg101
Nsbag3
(g57
g5
Ntp633
Rp634
(dp635
g10
Nsg62
Nsg64
Nsg66
Nsg68
Nsg69
Nsg36
Nsg71
Nsg72
Nsg74
Nsg76
Nsg77
Nsg78
Nsg79
Nsg80
Nsg81
Nsg83
Nsg84
Nsg85
Nsg87
Nsg88
Nsg89
Nsg91
Vamaramoore_
p636
sg93
Nsg94
V\u0101
p637
sg96
Nsg98
Nsg100
I870912158
sg101
Nsbasg48
Nsg49
Nsg50
Nsg51
VRT @AyyeDesarae: "@amaramoore_: I'm so irritated I want this week to b over with."
p638
sg53
I00
sg54
Ven
p639
sg56
g3
(g57
g5
Ntp640
Rp641
(dp642
g10
g61
sg62
V333333
p643
sg64
Ven
p644
sg66
VEastern Time (US & Canada)
p645
sg68
I1126
sg69
I23732
sg36
VWed Oct 10 01:35:28 +0000 2012
p646
sg71
I00
sg72
VIG: @_amaramoore ................................. single, senior, hooper
p647
sg74
Vhttps://pbs.twimg.com/profile_images/541409640655765504/OSph9-1M_normal.jpeg
p648
sg76
I644
sg77
I2277
sg78
I-18000
sg79
Nsg80
I00
sg81
Vhttps://pbs.twimg.com/profile_banners/870912158/1417917161
p649
sg83
I00
sg84
I00
sg85
V0084B4
p650
sg87
I00
sg88
I00
sg89
Vhttp://abs.twimg.com/images/themes/theme1/bg.png
p651
sg91
Vamaramoore_
p652
sg93
I1
sg94
V\u0101
p653
sg96
VDDEEF6
p654
sg98
Nsg100
I870912158
sg101
VC0DEED
p655
sbsg103
I1
sg104
V<a href="http://twitter.com/download/iphone" rel="nofollow">Twitter for iPhone</a>
p656
sg106
(lp657
sg100
I542724480007536640
sbag3
(g4
g5
Ntp658
Rp659
(dp660
g9
I0
sg10
Nsg11
Nsg12
(lp661
sg20
I00
sg21
Nsg30
Nsg31
(lp662
sg33
Nsg34
Nsg35
Nsg36
VWed Dec 10 16:25:51 +0000 2014
p663
sg38
Nsg39
Nsg40
Nsg41
Nsg42
Nsg43
Nsg44
I00
sg45
Nsg46
(lp664
sg48
Nsg49
Nsg50
Nsg51
VI'm so irritated I want this week to b over with.
p665
sg53
I00
sg54
Ven
p666
sg56
g3
(g57
g5
Ntp667
Rp668
(dp669
g10
g61
sg62
V333333
p670
sg64
Ven
p671
sg66
VEastern Time (US & Canada)
p672
sg68
I1126
sg69
I23732
sg36
VWed Oct 10 01:35:28 +0000 2012
p673
sg71
I00
sg72
VIG: @_amaramoore ................................. single, senior, hooper
p674
sg74
Vhttps://pbs.twimg.com/profile_images/541409640655765504/OSph9-1M_normal.jpeg
p675
sg76
I644
sg77
I2277
sg78
I-18000
sg79
Nsg80
I00
sg81
Vhttps://pbs.twimg.com/profile_banners/870912158/1417917161
p676
sg83
I00
sg84
I00
sg85
V0084B4
p677
sg87
I00
sg88
I00
sg89
Vhttp://abs.twimg.com/images/themes/theme1/bg.png
p678
sg91
Vamaramoore_
p679
sg93
I1
sg94
V\u0101
p680
sg96
VDDEEF6
p681
sg98
Nsg100
I870912158
sg101
VC0DEED
p682
sbsg103
I0
sg104
V<a href="http://twitter.com/download/iphone" rel="nofollow">Twitter for iPhone</a>
p683
sg106
(lp684
sg100
I542716837796921344
sbag3
(g4
g5
Ntp685
Rp686
(dp687
g9
I1
sg10
Nsg11
Nsg12
(lp688
sg20
I00
sg21
Nsg30
Nsg31
(lp689
sg33
Nsg34
Nsg35
Nsg36
VWed Dec 10 16:21:34 +0000 2014
p690
sg38
Nsg39
Nsg40
Vmeeraconley
p691
sg41
Nsg42
I465035252
sg43
Nsg44
I00
sg45
Nsg46
(lp692
g3
(g57
g5
Ntp693
Rp694
(dp695
g10
Nsg62
Nsg64
Nsg66
Nsg68
Nsg69
Nsg36
Nsg71
Nsg72
Nsg74
Nsg76
Nsg77
Nsg78
Nsg79
Nsg80
Nsg81
Nsg83
Nsg84
Nsg85
Nsg87
Nsg88
Nsg89
Nsg91
Vmeeraconley
p696
sg93
Nsg94
Vidc || Dec 10
p697
sg96
Nsg98
Nsg100
I465035252
sg101
Nsbasg48
Nsg49
Nsg50
Nsg51
V@meeraconley happy birthday shawty \U0001f604\U0001f389
p698
sg53
I00
sg54
Ven
p699
sg56
g3
(g57
g5
Ntp700
Rp701
(dp702
g10
g61
sg62
V333333
p703
sg64
Ven
p704
sg66
VEastern Time (US & Canada)
p705
sg68
I1126
sg69
I23732
sg36
VWed Oct 10 01:35:28 +0000 2012
p706
sg71
I00
sg72
VIG: @_amaramoore ................................. single, senior, hooper
p707
sg74
Vhttps://pbs.twimg.com/profile_images/541409640655765504/OSph9-1M_normal.jpeg
p708
sg76
I644
sg77
I2277
sg78
I-18000
sg79
Nsg80
I00
sg81
Vhttps://pbs.twimg.com/profile_banners/870912158/1417917161
p709
sg83
I00
sg84
I00
sg85
V0084B4
p710
sg87
I00
sg88
I00
sg89
Vhttp://abs.twimg.com/images/themes/theme1/bg.png
p711
sg91
Vamaramoore_
p712
sg93
I1
sg94
V\u0101
p713
sg96
VDDEEF6
p714
sg98
Nsg100
I870912158
sg101
VC0DEED
p715
sbsg103
I1
sg104
V<a href="http://twitter.com/download/iphone" rel="nofollow">Twitter for iPhone</a>
p716
sg106
(lp717
sg100
I542715757998526464
sbag3
(g4
g5
Ntp718
Rp719
(dp720
g9
I0
sg10
Nsg11
Nsg12
(lp721
g3
(g14
g5
Ntp722
Rp723
(dp724
g18
Vrandomtweet
p725
sbasg20
I00
sg21
g3
(g4
g5
Ntp726
Rp727
(dp728
g9
I1
sg10
Nsg11
Nsg12
(lp729
g3
(g14
g5
Ntp730
Rp731
(dp732
g18
Vrandomtweet
p733
sbasg20
I00
sg21
Nsg30
Nsg31
(lp734
sg33
Nsg34
Nsg35
Nsg36
VTue Dec 09 21:22:53 +0000 2014
p735
sg38
Nsg39
Nsg40
Nsg41
Nsg42
Nsg43
Nsg44
I00
sg45
Nsg46
(lp736
sg48
Nsg49
Nsg50
Nsg51
VMar mar sooooo pretty #randomtweet
p737
sg53
I00
sg54
Ven
p738
sg56
g3
(g57
g5
Ntp739
Rp740
(dp741
g10
VAmpadictirious and Independent
p742
sg62
V000000
p743
sg64
Ven
p744
sg66
VCentral Time (US & Canada)
p745
sg68
I851
sg69
I21940
sg36
VThu Apr 14 00:46:15 +0000 2011
p746
sg71
I00
sg72
g61
sg74
Vhttps://pbs.twimg.com/profile_images/544151065244221440/O889MOpM_normal.jpeg
p747
sg76
I827
sg77
I10157
sg78
I-21600
sg79
Nsg80
I00
sg81
Vhttps://pbs.twimg.com/profile_banners/281805839/1418483369
p748
sg83
I00
sg84
I00
sg85
V89C9FA
p749
sg87
I01
sg88
I00
sg89
Vhttp://abs.twimg.com/images/themes/theme1/bg.png
p750
sg91
Vairellesib
p751
sg93
I2
sg94
VA-$ib
p752
sg96
V000000
p753
sg98
Nsg100
I281805839
sg101
V000000
p754
sbsg103
I1
sg104
V<a href="http://twitter.com/download/android" rel="nofollow">Twitter for Android</a>
p755
sg106
(lp756
sg100
I542429196937461760
sbsg30
Nsg31
(lp757
sg33
Nsg34
Nsg35
Nsg36
VTue Dec 09 21:30:31 +0000 2014
p758
sg38
Nsg39
Nsg40
Nsg41
Nsg42
Nsg43
Nsg44
I00
sg45
Nsg46
(lp759
g3
(g57
g5
Ntp760
Rp761
(dp762
g10
Nsg62
Nsg64
Nsg66
Nsg68
Nsg69
Nsg36
Nsg71
Nsg72
Nsg74
Nsg76
Nsg77
Nsg78
Nsg79
Nsg80
Nsg81
Nsg83
Nsg84
Nsg85
Nsg87
Nsg88
Nsg89
Nsg91
Vairellesib
p763
sg93
Nsg94
VAirelle..
p764
sg96
Nsg98
Nsg100
I281805839
sg101
Nsbasg48
Nsg49
Nsg50
Nsg51
VRT @airellesib: Mar mar sooooo pretty #randomtweet
p765
sg53
I00
sg54
Ven
p766
sg56
g3
(g57
g5
Ntp767
Rp768
(dp769
g10
g61
sg62
V333333
p770
sg64
Ven
p771
sg66
VEastern Time (US & Canada)
p772
sg68
I1126
sg69
I23732
sg36
VWed Oct 10 01:35:28 +0000 2012
p773
sg71
I00
sg72
VIG: @_amaramoore ................................. single, senior, hooper
p774
sg74
Vhttps://pbs.twimg.com/profile_images/541409640655765504/OSph9-1M_normal.jpeg
p775
sg76
I644
sg77
I2277
sg78
I-18000
sg79
Nsg80
I00
sg81
Vhttps://pbs.twimg.com/profile_banners/870912158/1417917161
p776
sg83
I00
sg84
I00
sg85
V0084B4
p777
sg87
I00
sg88
I00
sg89
Vhttp://abs.twimg.com/images/themes/theme1/bg.png
p778
sg91
Vamaramoore_
p779
sg93
I1
sg94
V\u0101
p780
sg96
VDDEEF6
p781
sg98
Nsg100
I870912158
sg101
VC0DEED
p782
sbsg103
I1
sg104
V<a href="http://twitter.com/download/iphone" rel="nofollow">Twitter for iPhone</a>
p783
sg106
(lp784
sg100
I542431119912607744
sbag3
(g4
g5
Ntp785
Rp786
(dp787
g9
I1
sg10
Nsg11
Nsg12
(lp788
g3
(g14
g5
Ntp789
Rp790
(dp791
g18
Vrandomtweet
p792
sbasg20
I00
sg21
Nsg30
Nsg31
(lp793
sg33
Nsg34
Nsg35
Nsg36
VTue Dec 09 21:30:30 +0000 2014
p794
sg38
Nsg39
Nsg40
Vairellesib
p795
sg41
Nsg42
I281805839
sg43
Nsg44
I00
sg45
Nsg46
(lp796
g3
(g57
g5
Ntp797
Rp798
(dp799
g10
Nsg62
Nsg64
Nsg66
Nsg68
Nsg69
Nsg36
Nsg71
Nsg72
Nsg74
Nsg76
Nsg77
Nsg78
Nsg79
Nsg80
Nsg81
Nsg83
Nsg84
Nsg85
Nsg87
Nsg88
Nsg89
Nsg91
Vairellesib
p800
sg93
Nsg94
VAirelle..
p801
sg96
Nsg98
Nsg100
I281805839
sg101
Nsbasg48
Nsg49
Nsg50
I542429196937461760
sg51
V\u201c@airellesib: Mar mar sooooo pretty #randomtweet\u201d thanks Air , yu so handsome lol \U0001f618\U0001f648\U0001f60f
p802
sg53
I00
sg54
Ven
p803
sg56
g3
(g57
g5
Ntp804
Rp805
(dp806
g10
g61
sg62
V333333
p807
sg64
Ven
p808
sg66
VEastern Time (US & Canada)
p809
sg68
I1126
sg69
I23732
sg36
VWed Oct 10 01:35:28 +0000 2012
p810
sg71
I00
sg72
VIG: @_amaramoore ................................. single, senior, hooper
p811
sg74
Vhttps://pbs.twimg.com/profile_images/541409640655765504/OSph9-1M_normal.jpeg
p812
sg76
I644
sg77
I2277
sg78
I-18000
sg79
Nsg80
I00
sg81
Vhttps://pbs.twimg.com/profile_banners/870912158/1417917161
p813
sg83
I00
sg84
I00
sg85
V0084B4
p814
sg87
I00
sg88
I00
sg89
Vhttp://abs.twimg.com/images/themes/theme1/bg.png
p815
sg91
Vamaramoore_
p816
sg93
I1
sg94
V\u0101
p817
sg96
VDDEEF6
p818
sg98
Nsg100
I870912158
sg101
VC0DEED
p819
sbsg103
I1
sg104
V<a href="http://twitter.com/download/iphone" rel="nofollow">Twitter for iPhone</a>
p820
sg106
(lp821
sg100
I542431113600192514
sbag3
(g4
g5
Ntp822
Rp823
(dp824
g9
I0
sg10
Nsg11
Nsg12
(lp825
sg20
I00
sg21
g3
(g4
g5
Ntp826
Rp827
(dp828
g9
I6915
sg10
Nsg11
Nsg12
(lp829
sg20
I00
sg21
Nsg30
Nsg31
(lp830
(dp831
Vexpanded_url
p832
Vhttp://twitter.com/BluntPorn/status/535221456834416641/photo/1
p833
sVdisplay_url
p834
Vpic.twitter.com/SFzJp8fjfV
p835
sVurl
p836
Vhttp://t.co/SFzJp8fjfV
p837
sVmedia_url_https
p838
Vhttps://pbs.twimg.com/media/B219EBbIMAAUioM.jpg
p839
sVid_str
p840
V535221438782124032
p841
sVsizes
p842
(dp843
Vsmall
p844
(dp845
Vh
p846
I340
sVresize
p847
Vfit
p848
sVw
p849
I340
ssVlarge
p850
(dp851
Vh
p852
I640
sVresize
p853
Vfit
p854
sVw
p855
I640
ssVmedium
p856
(dp857
Vh
p858
I600
sVresize
p859
Vfit
p860
sVw
p861
I600
ssVthumb
p862
(dp863
Vh
p864
I150
sVresize
p865
Vcrop
p866
sVw
p867
I150
sssVindices
p868
(lp869
I20
aI42
asVtype
p870
Vphoto
p871
sVid
p872
I535221438782124032
sVmedia_url
p873
Vhttp://pbs.twimg.com/media/B219EBbIMAAUioM.jpg
p874
sasg33
Nsg34
Nsg35
Nsg36
VThu Nov 20 00:01:53 +0000 2014
p875
sg38
Nsg39
I00
sg40
Nsg41
Nsg42
Nsg43
Nsg44
I00
sg45
Nsg46
(lp876
sg48
Nsg49
Nsg50
Nsg51
VI AINT GOT NO TYPE\U0001f3b6 http://t.co/SFzJp8fjfV
p877
sg53
I00
sg54
Ven
p878
sg56
g3
(g57
g5
Ntp879
Rp880
(dp881
g10
g61
sg62
V333333
p882
sg64
Ven
p883
sg66
VCentral Time (US & Canada)
p884
sg68
I90719
sg69
I388
sg36
VThu Feb 13 03:22:09 +0000 2014
p885
sg71
I00
sg72
Vthetwitterbizz@gmail.com
p886
sg74
Vhttps://pbs.twimg.com/profile_images/433808907807371266/vQitVscA_normal.jpeg
p887
sg76
I1
sg77
I51
sg78
I-21600
sg79
Nsg80
I00
sg81
Vhttps://pbs.twimg.com/profile_banners/2341308506/1392264986
p888
sg83
I00
sg84
I00
sg85
V0084B4
p889
sg87
I00
sg88
I00
sg89
Vhttp://abs.twimg.com/images/themes/theme1/bg.png
p890
sg91
VBluntPorn
p891
sg93
I64
sg94
VBlunt Porn
p892
sg96
VDDEEF6
p893
sg98
Nsg100
I2341308506
sg101
VC0DEED
p894
sbsg103
I5967
sg104
V<a href="http://twitter.com/download/iphone" rel="nofollow">Twitter for iPhone</a>
p895
sg106
(lp896
sg100
I535221456834416641
sbsg30
Nsg31
(lp897
(dp898
Vsource_user_id
p899
I2341308506
sVsource_status_id_str
p900
V535221456834416641
p901
sVexpanded_url
p902
Vhttp://twitter.com/BluntPorn/status/535221456834416641/photo/1
p903
sVdisplay_url
p904
Vpic.twitter.com/SFzJp8fjfV
p905
sVurl
p906
Vhttp://t.co/SFzJp8fjfV
p907
sVmedia_url_https
p908
Vhttps://pbs.twimg.com/media/B219EBbIMAAUioM.jpg
p909
sVsource_user_id_str
p910
V2341308506
p911
sVsource_status_id
p912
I535221456834416641
sVid_str
p913
V535221438782124032
p914
sVsizes
p915
(dp916
Vsmall
p917
(dp918
Vh
p919
I340
sVresize
p920
Vfit
p921
sVw
p922
I340
ssVlarge
p923
(dp924
Vh
p925
I640
sVresize
p926
Vfit
p927
sVw
p928
I640
ssVmedium
p929
(dp930
Vh
p931
I600
sVresize
p932
Vfit
p933
sVw
p934
I600
ssVthumb
p935
(dp936
Vh
p937
I150
sVresize
p938
Vcrop
p939
sVw
p940
I150
sssVindices
p941
(lp942
I35
aI57
asVtype
p943
Vphoto
p944
sVid
p945
I535221438782124032
sVmedia_url
p946
Vhttp://pbs.twimg.com/media/B219EBbIMAAUioM.jpg
p947
sasg33
Nsg34
Nsg35
Nsg36
VTue Dec 09 20:11:10 +0000 2014
p948
sg38
Nsg39
I00
sg40
Nsg41
Nsg42
Nsg43
Nsg44
I00
sg45
Nsg46
(lp949
g3
(g57
g5
Ntp950
Rp951
(dp952
g10
Nsg62
Nsg64
Nsg66
Nsg68
Nsg69
Nsg36
Nsg71
Nsg72
Nsg74
Nsg76
Nsg77
Nsg78
Nsg79
Nsg80
Nsg81
Nsg83
Nsg84
Nsg85
Nsg87
Nsg88
Nsg89
Nsg91
VBluntPorn
p953
sg93
Nsg94
VBlunt Porn
p954
sg96
Nsg98
Nsg100
I2341308506
sg101
Nsbasg48
Nsg49
Nsg50
Nsg51
VRT @BluntPorn: I AINT GOT NO TYPE\U0001f3b6 http://t.co/SFzJp8fjfV
p955
sg53
I00
sg54
Ven
p956
sg56
g3
(g57
g5
Ntp957
Rp958
(dp959
g10
g61
sg62
V333333
p960
sg64
Ven
p961
sg66
VEastern Time (US & Canada)
p962
sg68
I1126
sg69
I23732
sg36
VWed Oct 10 01:35:28 +0000 2012
p963
sg71
I00
sg72
VIG: @_amaramoore ................................. single, senior, hooper
p964
sg74
Vhttps://pbs.twimg.com/profile_images/541409640655765504/OSph9-1M_normal.jpeg
p965
sg76
I644
sg77
I2277
sg78
I-18000
sg79
Nsg80
I00
sg81
Vhttps://pbs.twimg.com/profile_banners/870912158/1417917161
p966
sg83
I00
sg84
I00
sg85
V0084B4
p967
sg87
I00
sg88
I00
sg89
Vhttp://abs.twimg.com/images/themes/theme1/bg.png
p968
sg91
Vamaramoore_
p969
sg93
I1
sg94
V\u0101
p970
sg96
VDDEEF6
p971
sg98
Nsg100
I870912158
sg101
VC0DEED
p972
sbsg103
I5967
sg104
V<a href="http://twitter.com/download/iphone" rel="nofollow">Twitter for iPhone</a>
p973
sg106
(lp974
sg100
I542411150453768194
sbag3
(g4
g5
Ntp975
Rp976
(dp977
g9
I0
sg10
Nsg11
Nsg12
(lp978
sg20
I00
sg21
Nsg30
Nsg31
(lp979
sg33
Nsg34
Nsg35
Nsg36
VTue Dec 09 17:24:01 +0000 2014
p980
sg38
Nsg39
Nsg40
VGEEK_Qtino
p981
sg41
Nsg42
I167229156
sg43
Nsg44
I00
sg45
Nsg46
(lp982
g3
(g57
g5
Ntp983
Rp984
(dp985
g10
Nsg62
Nsg64
Nsg66
Nsg68
Nsg69
Nsg36
Nsg71
Nsg72
Nsg74
Nsg76
Nsg77
Nsg78
Nsg79
Nsg80
Nsg81
Nsg83
Nsg84
Nsg85
Nsg87
Nsg88
Nsg89
Nsg91
VGEEK_Qtino
p986
sg93
Nsg94
VAhoo Papa Q 
p987
sg96
Nsg98
Nsg100
I167229156
sg101
Nsbasg48
Nsg49
Nsg50
I542368865838444544
sg51
V@GEEK_Qtino r u ?
p988
sg53
I00
sg54
Vund
p989
sg56
g3
(g57
g5
Ntp990
Rp991
(dp992
g10
g61
sg62
V333333
p993
sg64
Ven
p994
sg66
VEastern Time (US & Canada)
p995
sg68
I1126
sg69
I23732
sg36
VWed Oct 10 01:35:28 +0000 2012
p996
sg71
I00
sg72
VIG: @_amaramoore ................................. single, senior, hooper
p997
sg74
Vhttps://pbs.twimg.com/profile_images/541409640655765504/OSph9-1M_normal.jpeg
p998
sg76
I644
sg77
I2277
sg78
I-18000
sg79
Nsg80
I00
sg81
Vhttps://pbs.twimg.com/profile_banners/870912158/1417917161
p999
sg83
I00
sg84
I00
sg85
V0084B4
p1000
sg87
I00
sg88
I00
sg89
Vhttp://abs.twimg.com/images/themes/theme1/bg.png
p1001
sg91
Vamaramoore_
p1002
sg93
I1
sg94
V\u0101
p1003
sg96
VDDEEF6
p1004
sg98
Nsg100
I870912158
sg101
VC0DEED
p1005
sbsg103
I0
sg104
V<a href="http://twitter.com/download/iphone" rel="nofollow">Twitter for iPhone</a>
p1006
sg106
(lp1007
sg100
I542369084902363137
sbag3
(g4
g5
Ntp1008
Rp1009
(dp1010
g9
I0
sg10
Nsg11
Nsg12
(lp1011
sg20
I00
sg21
Nsg30
Nsg31
(lp1012
sg33
Nsg34
Nsg35
Nsg36
VTue Dec 09 17:19:58 +0000 2014
p1013
sg38
Nsg39
Nsg40
VGEEK_Qtino
p1014
sg41
Nsg42
I167229156
sg43
Nsg44
I00
sg45
Nsg46
(lp1015
g3
(g57
g5
Ntp1016
Rp1017
(dp1018
g10
Nsg62
Nsg64
Nsg66
Nsg68
Nsg69
Nsg36
Nsg71
Nsg72
Nsg74
Nsg76
Nsg77
Nsg78
Nsg79
Nsg80
Nsg81
Nsg83
Nsg84
Nsg85
Nsg87
Nsg88
Nsg89
Nsg91
VGEEK_Qtino
p1019
sg93
Nsg94
VAhoo Papa Q 
p1020
sg96
Nsg98
Nsg100
I167229156
sg101
Nsbasg48
Nsg49
Nsg50
I542367610789462016
sg51
V@GEEK_Qtino prolly not!
p1021
sg53
I00
sg54
Ven
p1022
sg56
g3
(g57
g5
Ntp1023
Rp1024
(dp1025
g10
g61
sg62
V333333
p1026
sg64
Ven
p1027
sg66
VEastern Time (US & Canada)
p1028
sg68
I1126
sg69
I23732
sg36
VWed Oct 10 01:35:28 +0000 2012
p1029
sg71
I00
sg72
VIG: @_amaramoore ................................. single, senior, hooper
p1030
sg74
Vhttps://pbs.twimg.com/profile_images/541409640655765504/OSph9-1M_normal.jpeg
p1031
sg76
I644
sg77
I2277
sg78
I-18000
sg79
Nsg80
I00
sg81
Vhttps://pbs.twimg.com/profile_banners/870912158/1417917161
p1032
sg83
I00
sg84
I00
sg85
V0084B4
p1033
sg87
I00
sg88
I00
sg89
Vhttp://abs.twimg.com/images/themes/theme1/bg.png
p1034
sg91
Vamaramoore_
p1035
sg93
I1
sg94
V\u0101
p1036
sg96
VDDEEF6
p1037
sg98
Nsg100
I870912158
sg101
VC0DEED
p1038
sbsg103
I0
sg104
V<a href="http://twitter.com/download/iphone" rel="nofollow">Twitter for iPhone</a>
p1039
sg106
(lp1040
sg100
I542368067062202369
sbag3
(g4
g5
Ntp1041
Rp1042
(dp1043
g9
I0
sg10
Nsg11
Nsg12
(lp1044
g3
(g14
g5
Ntp1045
Rp1046
(dp1047
g18
VFireFoams
p1048
sbag3
(g14
g5
Ntp1049
Rp1050
(dp1051
g18
VLaceEmUp
p1052
sbasg20
I00
sg21
g3
(g4
g5
Ntp1053
Rp1054
(dp1055
g9
I28
sg10
Nsg11
Nsg12
(lp1056
g3
(g14
g5
Ntp1057
Rp1058
(dp1059
g18
VFireFoams
p1060
sbag3
(g14
g5
Ntp1061
Rp1062
(dp1063
g18
VLaceEmUp
p1064
sbasg20
I00
sg21
Nsg30
Nsg31
(lp1065
(dp1066
Vexpanded_url
p1067
Vhttp://twitter.com/LaceEmUpCustoms/status/541658311155015680/photo/1
p1068
sVdisplay_url
p1069
Vpic.twitter.com/QnIc45Fqyz
p1070
sVurl
p1071
Vhttp://t.co/QnIc45Fqyz
p1072
sVmedia_url_https
p1073
Vhttps://pbs.twimg.com/media/B4RbTjRCUAAicLu.jpg
p1074
sVid_str
p1075
V541658246633639936
p1076
sVsizes
p1077
(dp1078
Vsmall
p1079
(dp1080
Vh
p1081
I226
sVresize
p1082
Vfit
p1083
sVw
p1084
I340
ssVlarge
p1085
(dp1086
Vh
p1087
I667
sVresize
p1088
Vfit
p1089
sVw
p1090
I1000
ssVmedium
p1091
(dp1092
Vh
p1093
I400
sVresize
p1094
Vfit
p1095
sVw
p1096
I600
ssVthumb
p1097
(dp1098
Vh
p1099
I150
sVresize
p1100
Vcrop
p1101
sVw
p1102
I150
sssVindices
p1103
(lp1104
I53
aI75
asVtype
p1105
Vphoto
p1106
sVid
p1107
I541658246633639936
sVmedia_url
p1108
Vhttp://pbs.twimg.com/media/B4RbTjRCUAAicLu.jpg
p1109
sasg33
Nsg34
Nsg35
Nsg36
VSun Dec 07 18:19:39 +0000 2014
p1110
sg38
Nsg39
I00
sg40
Nsg41
Nsg42
Nsg43
Nsg44
I00
sg45
Nsg46
(lp1111
sg48
Nsg49
Nsg50
Nsg51
VNike Air Foamposite "Hades" \U0001f631\U0001f631\U0001f631 #FireFoams #LaceEmUp http://t.co/QnIc45Fqyz
p1112
sg53
I00
sg54
Ven
p1113
sg56
g3
(g57
g5
Ntp1114
Rp1115
(dp1116
g10
VNew York
p1117
sg62
V333333
p1118
sg64
Ven
p1119
sg66
Nsg68
I16278
sg69
I1849
sg36
VMon Dec 23 18:25:53 +0000 2013
p1120
sg71
I00
sg72
VTwitter page showing off the hottest J's and customs! We don't take credit for any of the pictures, we just tweet them! #LaceEmUp LaceEmUpCustoms@yahoo.com
p1121
sg74
Vhttps://pbs.twimg.com/profile_images/421392208730673152/Xhge-X5D_normal.png
p1122
sg76
I11893
sg77
I2083
sg78
Nsg79
Nsg80
I00
sg81
Vhttps://pbs.twimg.com/profile_banners/2259253886/1409693354
p1123
sg83
I00
sg84
I01
sg85
V0084B4
p1124
sg87
I00
sg88
I00
sg89
Vhttp://pbs.twimg.com/profile_background_images/378800000165419666/gu9Fg9xo.png
p1125
sg91
VLaceEmUpCustoms
p1126
sg93
I12
sg94
VLace Em Up Customs
p1127
sg96
VDDEEF6
p1128
sg98
Vhttp://t.co/VjWWdBUMQU
p1129
sg100
I2259253886
sg101
VC0DEED
p1130
sbsg103
I44
sg104
V<a href="http://twitter.com/download/iphone" rel="nofollow">Twitter for iPhone</a>
p1131
sg106
(lp1132
sg100
I541658311155015680
sbsg30
Nsg31
(lp1133
(dp1134
Vsource_user_id
p1135
I2259253886
sVsource_status_id_str
p1136
V541658311155015680
p1137
sVexpanded_url
p1138
Vhttp://twitter.com/LaceEmUpCustoms/status/541658311155015680/photo/1
p1139
sVdisplay_url
p1140
Vpic.twitter.com/QnIc45Fqyz
p1141
sVurl
p1142
Vhttp://t.co/QnIc45Fqyz
p1143
sVmedia_url_https
p1144
Vhttps://pbs.twimg.com/media/B4RbTjRCUAAicLu.jpg
p1145
sVsource_user_id_str
p1146
V2259253886
p1147
sVsource_status_id
p1148
I541658311155015680
sVid_str
p1149
V541658246633639936
p1150
sVsizes
p1151
(dp1152
Vsmall
p1153
(dp1154
Vh
p1155
I226
sVresize
p1156
Vfit
p1157
sVw
p1158
I340
ssVlarge
p1159
(dp1160
Vh
p1161
I667
sVresize
p1162
Vfit
p1163
sVw
p1164
I1000
ssVmedium
p1165
(dp1166
Vh
p1167
I400
sVresize
p1168
Vfit
p1169
sVw
p1170
I600
ssVthumb
p1171
(dp1172
Vh
p1173
I150
sVresize
p1174
Vcrop
p1175
sVw
p1176
I150
sssVindices
p1177
(lp1178
I74
aI96
asVtype
p1179
Vphoto
p1180
sVid
p1181
I541658246633639936
sVmedia_url
p1182
Vhttp://pbs.twimg.com/media/B4RbTjRCUAAicLu.jpg
p1183
sasg33
Nsg34
Nsg35
Nsg36
VTue Dec 09 17:19:05 +0000 2014
p1184
sg38
Nsg39
I00
sg40
Nsg41
Nsg42
Nsg43
Nsg44
I00
sg45
Nsg46
(lp1185
g3
(g57
g5
Ntp1186
Rp1187
(dp1188
g10
Nsg62
Nsg64
Nsg66
Nsg68
Nsg69
Nsg36
Nsg71
Nsg72
Nsg74
Nsg76
Nsg77
Nsg78
Nsg79
Nsg80
Nsg81
Nsg83
Nsg84
Nsg85
Nsg87
Nsg88
Nsg89
Nsg91
VLaceEmUpCustoms
p1189
sg93
Nsg94
VLace Em Up Customs
p1190
sg96
Nsg98
Nsg100
I2259253886
sg101
Nsbasg48
Nsg49
Nsg50
Nsg51
VRT @LaceEmUpCustoms: Nike Air Foamposite "Hades" \U0001f631\U0001f631\U0001f631 #FireFoams #LaceEmUp http://t.co/QnIc45Fqyz
p1191
sg53
I00
sg54
Ven
p1192
sg56
g3
(g57
g5
Ntp1193
Rp1194
(dp1195
g10
g61
sg62
V333333
p1196
sg64
Ven
p1197
sg66
VEastern Time (US & Canada)
p1198
sg68
I1126
sg69
I23732
sg36
VWed Oct 10 01:35:28 +0000 2012
p1199
sg71
I00
sg72
VIG: @_amaramoore ................................. single, senior, hooper
p1200
sg74
Vhttps://pbs.twimg.com/profile_images/541409640655765504/OSph9-1M_normal.jpeg
p1201
sg76
I644
sg77
I2277
sg78
I-18000
sg79
Nsg80
I00
sg81
Vhttps://pbs.twimg.com/profile_banners/870912158/1417917161
p1202
sg83
I00
sg84
I00
sg85
V0084B4
p1203
sg87
I00
sg88
I00
sg89
Vhttp://abs.twimg.com/images/themes/theme1/bg.png
p1204
sg91
Vamaramoore_
p1205
sg93
I1
sg94
V\u0101
p1206
sg96
VDDEEF6
p1207
sg98
Nsg100
I870912158
sg101
VC0DEED
p1208
sbsg103
I44
sg104
V<a href="http://twitter.com/download/iphone" rel="nofollow">Twitter for iPhone</a>
p1209
sg106
(lp1210
sg100
I542367842851487744
sbag3
(g4
g5
Ntp1211
Rp1212
(dp1213
g9
I0
sg10
Nsg11
Nsg12
(lp1214
sg20
I00
sg21
Nsg30
Nsg31
(lp1215
sg33
Nsg34
Nsg35
Nsg36
VTue Dec 09 17:15:42 +0000 2014
p1216
sg38
Nsg39
Nsg40
Nsg41
Nsg42
Nsg43
Nsg44
I00
sg45
Nsg46
(lp1217
sg48
Nsg49
Nsg50
Nsg51
VI haven't copped no sneakers in a grip
p1218
sg53
I00
sg54
Ven
p1219
sg56
g3
(g57
g5
Ntp1220
Rp1221
(dp1222
g10
g61
sg62
V333333
p1223
sg64
Ven
p1224
sg66
VEastern Time (US & Canada)
p1225
sg68
I1126
sg69
I23732
sg36
VWed Oct 10 01:35:28 +0000 2012
p1226
sg71
I00
sg72
VIG: @_amaramoore ................................. single, senior, hooper
p1227
sg74
Vhttps://pbs.twimg.com/profile_images/541409640655765504/OSph9-1M_normal.jpeg
p1228
sg76
I644
sg77
I2277
sg78
I-18000
sg79
Nsg80
I00
sg81
Vhttps://pbs.twimg.com/profile_banners/870912158/1417917161
p1229
sg83
I00
sg84
I00
sg85
V0084B4
p1230
sg87
I00
sg88
I00
sg89
Vhttp://abs.twimg.com/images/themes/theme1/bg.png
p1231
sg91
Vamaramoore_
p1232
sg93
I1
sg94
V\u0101
p1233
sg96
VDDEEF6
p1234
sg98
Nsg100
I870912158
sg101
VC0DEED
p1235
sbsg103
I0
sg104
V<a href="http://twitter.com/download/iphone" rel="nofollow">Twitter for iPhone</a>
p1236
sg106
(lp1237
sg100
I542366994855505920
sbag3
(g4
g5
Ntp1238
Rp1239
(dp1240
g9
I1
sg10
Nsg11
Nsg12
(lp1241
g3
(g14
g5
Ntp1242
Rp1243
(dp1244
g18
VGAMEDAY
p1245
sbasg20
I00
sg21
Nsg30
Nsg31
(lp1246
sg33
Nsg34
Nsg35
Nsg36
VTue Dec 09 17:15:17 +0000 2014
p1247
sg38
Nsg39
Nsg40
Nsg41
Nsg42
Nsg43
Nsg44
I00
sg45
Nsg46
(lp1248
sg48
Nsg49
Nsg50
Nsg51
V#GAMEDAY \U0001f3c0
p1249
sg53
I00
sg54
Vund
p1250
sg56
g3
(g57
g5
Ntp1251
Rp1252
(dp1253
g10
g61
sg62
V333333
p1254
sg64
Ven
p1255
sg66
VEastern Time (US & Canada)
p1256
sg68
I1126
sg69
I23732
sg36
VWed Oct 10 01:35:28 +0000 2012
p1257
sg71
I00
sg72
VIG: @_amaramoore ................................. single, senior, hooper
p1258
sg74
Vhttps://pbs.twimg.com/profile_images/541409640655765504/OSph9-1M_normal.jpeg
p1259
sg76
I644
sg77
I2277
sg78
I-18000
sg79
Nsg80
I00
sg81
Vhttps://pbs.twimg.com/profile_banners/870912158/1417917161
p1260
sg83
I00
sg84
I00
sg85
V0084B4
p1261
sg87
I00
sg88
I00
sg89
Vhttp://abs.twimg.com/images/themes/theme1/bg.png
p1262
sg91
Vamaramoore_
p1263
sg93
I1
sg94
V\u0101
p1264
sg96
VDDEEF6
p1265
sg98
Nsg100
I870912158
sg101
VC0DEED
p1266
sbsg103
I0
sg104
V<a href="http://twitter.com/download/iphone" rel="nofollow">Twitter for iPhone</a>
p1267
sg106
(lp1268
sg100
I542366886856384512
sbag3
(g4
g5
Ntp1269
Rp1270
(dp1271
g9
I0
sg10
Nsg11
Nsg12
(lp1272
sg20
I00
sg21
g3
(g4
g5
Ntp1273
Rp1274
(dp1275
g9
I4491
sg10
Nsg11
Nsg12
(lp1276
sg20
I00
sg21
Nsg30
Nsg31
(lp1277
sg33
Nsg34
Nsg35
Nsg36
VThu Dec 04 15:30:14 +0000 2014
p1278
sg38
Nsg39
Nsg40
Nsg41
Nsg42
Nsg43
Nsg44
I00
sg45
Nsg46
(lp1279
sg48
Nsg49
Nsg50
Nsg51
Vclasswork: A\u000ahomework: A\u000aclasswork: A\u000ahomework: A\u000aclasswork: A\u000ahomework: A\u000a\u000atest: F\u000afinal grade: F
p1280
sg53
I00
sg54
Ven
p1281
sg56
g3
(g57
g5
Ntp1282
Rp1283
(dp1284
g10
Vinstagram : diynetwork
p1285
sg62
V333333
p1286
sg64
Ven
p1287
sg66
VEastern Time (US & Canada)
p1288
sg68
I1867282
sg69
I49678
sg36
VThu Dec 16 00:07:25 +0000 2010
p1289
sg71
I00
sg72
VIf you can relate to any of my tweets, congratulations. (Parody account) contact : techgrowerinfo@gmail.com
p1290
sg74
Vhttps://pbs.twimg.com/profile_images/533639722807984128/G2nF5aBg_normal.jpeg
p1291
sg76
I10427
sg77
I439
sg78
I-18000
sg79
Nsg80
I00
sg81
Vhttps://pbs.twimg.com/profile_banners/227121370/1416894936
p1292
sg83
I00
sg84
I00
sg85
VED134D
p1293
sg87
I00
sg88
I00
sg89
Vhttp://pbs.twimg.com/profile_background_images/378800000159680619/TjaB8rut.png
p1294
sg91
VGirlNotes
p1295
sg93
I5886
sg94
VGirl Notes\u2654
p1296
sg96
VF6F6F6
p1297
sg98
Vhttp://t.co/ehHh3ApMq7
p1298
sg100
I227121370
sg101
VFFFFFF
p1299
sbsg103
I4260
sg104
V<a href="http://bufferapp.com" rel="nofollow">Buffer</a>
p1300
sg106
(lp1301
sg100
I540528510683869185
sbsg30
Nsg31
(lp1302
sg33
Nsg34
Nsg35
Nsg36
VTue Dec 09 17:11:59 +0000 2014
p1303
sg38
Nsg39
Nsg40
Nsg41
Nsg42
Nsg43
Nsg44
I00
sg45
Nsg46
(lp1304
g3
(g57
g5
Ntp1305
Rp1306
(dp1307
g10
Nsg62
Nsg64
Nsg66
Nsg68
Nsg69
Nsg36
Nsg71
Nsg72
Nsg74
Nsg76
Nsg77
Nsg78
Nsg79
Nsg80
Nsg81
Nsg83
Nsg84
Nsg85
Nsg87
Nsg88
Nsg89
Nsg91
VGirlNotes
p1308
sg93
Nsg94
VGirl Notes\u2654
p1309
sg96
Nsg98
Nsg100
I227121370
sg101
Nsbasg48
Nsg49
Nsg50
Nsg51
VRT @GirlNotes: classwork: A\u000ahomework: A\u000aclasswork: A\u000ahomework: A\u000aclasswork: A\u000ahomework: A\u000a\u000atest: F\u000afinal grade: F
p1310
sg53
I00
sg54
Ven
p1311
sg56
g3
(g57
g5
Ntp1312
Rp1313
(dp1314
g10
g61
sg62
V333333
p1315
sg64
Ven
p1316
sg66
VEastern Time (US & Canada)
p1317
sg68
I1126
sg69
I23732
sg36
VWed Oct 10 01:35:28 +0000 2012
p1318
sg71
I00
sg72
VIG: @_amaramoore ................................. single, senior, hooper
p1319
sg74
Vhttps://pbs.twimg.com/profile_images/541409640655765504/OSph9-1M_normal.jpeg
p1320
sg76
I644
sg77
I2277
sg78
I-18000
sg79
Nsg80
I00
sg81
Vhttps://pbs.twimg.com/profile_banners/870912158/1417917161
p1321
sg83
I00
sg84
I00
sg85
V0084B4
p1322
sg87
I00
sg88
I00
sg89
Vhttp://abs.twimg.com/images/themes/theme1/bg.png
p1323
sg91
Vamaramoore_
p1324
sg93
I1
sg94
V\u0101
p1325
sg96
VDDEEF6
p1326
sg98
Nsg100
I870912158
sg101
VC0DEED
p1327
sbsg103
I4260
sg104
V<a href="http://twitter.com/download/iphone" rel="nofollow">Twitter for iPhone</a>
p1328
sg106
(lp1329
sg100
I542366057806061568
sbag3
(g4
g5
Ntp1330
Rp1331
(dp1332
g9
I0
sg10
Nsg11
Nsg12
(lp1333
sg20
I00
sg21
Nsg30
Nsg31
(lp1334
sg33
Nsg34
Nsg35
Nsg36
VTue Dec 09 01:15:29 +0000 2014
p1335
sg38
Nsg39
Nsg40
Nsg41
Nsg42
Nsg43
Nsg44
I00
sg45
Nsg46
(lp1336
sg48
Nsg49
Nsg50
Nsg51
VSee I would tell ya what's real but you ain't ready for all that.
p1337
sg53
I00
sg54
Ven
p1338
sg56
g3
(g57
g5
Ntp1339
Rp1340
(dp1341
g10
g61
sg62
V333333
p1342
sg64
Ven
p1343
sg66
VEastern Time (US & Canada)
p1344
sg68
I1126
sg69
I23732
sg36
VWed Oct 10 01:35:28 +0000 2012
p1345
sg71
I00
sg72
VIG: @_amaramoore ................................. single, senior, hooper
p1346
sg74
Vhttps://pbs.twimg.com/profile_images/541409640655765504/OSph9-1M_normal.jpeg
p1347
sg76
I644
sg77
I2277
sg78
I-18000
sg79
Nsg80
I00
sg81
Vhttps://pbs.twimg.com/profile_banners/870912158/1417917161
p1348
sg83
I00
sg84
I00
sg85
V0084B4
p1349
sg87
I00
sg88
I00
sg89
Vhttp://abs.twimg.com/images/themes/theme1/bg.png
p1350
sg91
Vamaramoore_
p1351
sg93
I1
sg94
V\u0101
p1352
sg96
VDDEEF6
p1353
sg98
Nsg100
I870912158
sg101
VC0DEED
p1354
sbsg103
I0
sg104
V<a href="http://twitter.com/download/iphone" rel="nofollow">Twitter for iPhone</a>
p1355
sg106
(lp1356
sg100
I542125346037198848
sbaa.