(lp0
S'ShellieWhittle'
p1
a(lp2
ccopy_reg
_reconstructor
p3
(ctwitter
Status
p4
c__builtin__
object
p5
Ntp6
Rp7
(dp8
S'_favorite_count'
p9
I0
sS'_location'
p10
NsS'_withheld_scope'
p11
NsS'hashtags'
p12
(lp13
sS'_truncated'
p14
I00
sS'_retweeted_status'
p15
NsS'_withheld_copyright'
p16
NsS'media'
p17
(lp18
sS'_place'
p19
NsS'_contributors'
p20
NsS'_current_user_retweet'
p21
NsS'_created_at'
p22
VSat Dec 13 18:28:04 +0000 2014
p23
sS'_scopes'
p24
NsS'_possibly_sensitive'
p25
I00
sS'_in_reply_to_screen_name'
p26
NsS'_coordinates'
p27
NsS'_in_reply_to_user_id'
p28
NsS'_geo'
p29
NsS'_favorited'
p30
I00
sS'_withheld_in_countries'
p31
NsS'user_mentions'
p32
(lp33
sS'_now'
p34
NsS'_id_str'
p35
V543834755838795776
p36
sS'_in_reply_to_status_id'
p37
NsS'_text'
p38
VTake care of your body.  It's the only place you have to live. -- Jim Rohn http://t.co/ryplAXTd9U
p39
sS'_retweeted'
p40
I00
sS'lang'
p41
Ven
p42
sS'_user'
p43
g3
(ctwitter
User
p44
g5
Ntp45
Rp46
(dp47
g10
VAlabama
p48
sS'_profile_text_color'
p49
V362720
p50
sS'_lang'
p51
Ven
p52
sS'_time_zone'
p53
VCentral Time (US & Canada)
p54
sS'_followers_count'
p55
I18
sS'_statuses_count'
p56
I335
sg22
VThu Dec 19 23:19:42 +0000 2013
p57
sS'_verified'
p58
I00
sS'_description'
p59
VIf you love chocolate & you want to be healthy, then I can help!  Check out my website  :)  http://t.co/w8o9RjHwYu
p60
sS'_profile_image_url'
p61
Vhttps://pbs.twimg.com/profile_images/417802720779595777/_dedOOrb_normal.jpeg
p62
sS'_friends_count'
p63
I50
sS'_favourites_count'
p64
I1
sS'_utc_offset'
p65
I-21600
sS'_status'
p66
NsS'_protected'
p67
I00
sS'_profile_banner_url'
p68
Vhttps://pbs.twimg.com/profile_banners/2254180586/1410555818
p69
sS'_notifications'
p70
I00
sS'_profile_background_tile'
p71
I01
sS'_profile_link_color'
p72
VB40B43
p73
sS'_geo_enabled'
p74
I00
sS'_contributors_enabled'
p75
I00
sS'_profile_background_image_url'
p76
Vhttp://abs.twimg.com/images/themes/theme11/bg.gif
p77
sS'_screen_name'
p78
VShellieWhittle
p79
sS'_listed_count'
p80
I0
sS'_name'
p81
VShellie Whittle
p82
sS'_profile_sidebar_fill_color'
p83
VE5507E
p84
sS'_url'
p85
Vhttp://t.co/IslHAmYbDI
p86
sS'_id'
p87
I2254180586
sS'_profile_background_color'
p88
VFF6699
p89
sbsS'_retweet_count'
p90
I0
sS'_source'
p91
V<a href="http://pointclickshare.com" rel="nofollow">Point Click Share</a>
p92
sS'urls'
p93
(lp94
g3
(ctwitter
Url
p95
g5
Ntp96
Rp97
(dp98
S'url'
p99
Vhttp://t.co/ryplAXTd9U
p100
sS'expanded_url'
p101
Vhttp://ltl.is/Cj6Io
p102
sbasg87
I543834755838795776
sbag3
(g4
g5
Ntp103
Rp104
(dp105
g9
I0
sg10
Nsg11
Nsg12
(lp106
sg14
I00
sg15
Nsg16
Nsg17
(lp107
(dp108
Vexpanded_url
p109
Vhttp://twitter.com/ShellieWhittle/status/543567998075039744/photo/1
p110
sVdisplay_url
p111
Vpic.twitter.com/MVv0RJyglv
p112
sVurl
p113
Vhttp://t.co/MVv0RJyglv
p114
sVmedia_url_https
p115
Vhttps://pbs.twimg.com/media/B4skNtfIUAAINNe.jpg
p116
sVid_str
p117
V543567997995339776
p118
sVsizes
p119
(dp120
Vlarge
p121
(dp122
Vh
p123
I537
sVresize
p124
Vfit
p125
sVw
p126
I1024
ssVsmall
p127
(dp128
Vh
p129
I178
sVresize
p130
Vfit
p131
sVw
p132
I340
ssVmedium
p133
(dp134
Vh
p135
I315
sVresize
p136
Vfit
p137
sVw
p138
I600
ssVthumb
p139
(dp140
Vh
p141
I150
sVresize
p142
Vcrop
p143
sVw
p144
I150
sssVindices
p145
(lp146
I40
aI62
asVtype
p147
Vphoto
p148
sVid
p149
I543567997995339776
sVmedia_url
p150
Vhttp://pbs.twimg.com/media/B4skNtfIUAAINNe.jpg
p151
sasg19
Nsg20
Nsg21
Nsg22
VSat Dec 13 00:48:04 +0000 2014
p152
sg24
Nsg25
I00
sg26
Nsg27
Nsg28
Nsg29
Nsg30
I00
sg31
Nsg32
(lp153
sg34
Nsg35
V543567998075039744
p154
sg37
Nsg38
VCheck this out!  http://t.co/InkRJhxYLf http://t.co/MVv0RJyglv
p155
sg40
I00
sg41
Ven
p156
sg43
g3
(g44
g5
Ntp157
Rp158
(dp159
g10
VAlabama
p160
sg49
V362720
p161
sg51
Ven
p162
sg53
VCentral Time (US & Canada)
p163
sg55
I18
sg56
I335
sg22
VThu Dec 19 23:19:42 +0000 2013
p164
sg58
I00
sg59
VIf you love chocolate & you want to be healthy, then I can help!  Check out my website  :)  http://t.co/w8o9RjHwYu
p165
sg61
Vhttps://pbs.twimg.com/profile_images/417802720779595777/_dedOOrb_normal.jpeg
p166
sg63
I50
sg64
I1
sg65
I-21600
sg66
Nsg67
I00
sg68
Vhttps://pbs.twimg.com/profile_banners/2254180586/1410555818
p167
sg70
I00
sg71
I01
sg72
VB40B43
p168
sg74
I00
sg75
I00
sg76
Vhttp://abs.twimg.com/images/themes/theme11/bg.gif
p169
sg78
VShellieWhittle
p170
sg80
I0
sg81
VShellie Whittle
p171
sg83
VE5507E
p172
sg85
Vhttp://t.co/IslHAmYbDI
p173
sg87
I2254180586
sg88
VFF6699
p174
sbsg90
I0
sg91
V<a href="http://pointclickshare.com" rel="nofollow">Point Click Share</a>
p175
sg93
(lp176
g3
(g95
g5
Ntp177
Rp178
(dp179
g99
Vhttp://t.co/InkRJhxYLf
p180
sg101
Vhttp://ltl.is/FfDCY
p181
sbasg87
I543567998075039744
sbag3
(g4
g5
Ntp182
Rp183
(dp184
g9
I0
sg10
Nsg11
Nsg12
(lp185
sg14
I00
sg15
Nsg16
Nsg17
(lp186
(dp187
Vexpanded_url
p188
Vhttp://twitter.com/ShellieWhittle/status/543187249765298179/photo/1
p189
sVdisplay_url
p190
Vpic.twitter.com/vIyYge0hKm
p191
sVurl
p192
Vhttp://t.co/vIyYge0hKm
p193
sVmedia_url_https
p194
Vhttps://pbs.twimg.com/media/B4nJ7PoIEAAuZFB.jpg
p195
sVid_str
p196
V543187249719152640
p197
sVsizes
p198
(dp199
Vsmall
p200
(dp201
Vh
p202
I327
sVresize
p203
Vfit
p204
sVw
p205
I340
ssVlarge
p206
(dp207
Vh
p208
I385
sVresize
p209
Vfit
p210
sVw
p211
I400
ssVmedium
p212
(dp213
Vh
p214
I385
sVresize
p215
Vfit
p216
sVw
p217
I400
ssVthumb
p218
(dp219
Vh
p220
I150
sVresize
p221
Vcrop
p222
sVw
p223
I150
sssVindices
p224
(lp225
I95
aI117
asVtype
p226
Vphoto
p227
sVid
p228
I543187249719152640
sVmedia_url
p229
Vhttp://pbs.twimg.com/media/B4nJ7PoIEAAuZFB.jpg
p230
sasg19
Nsg20
Nsg21
Nsg22
VThu Dec 11 23:35:06 +0000 2014
p231
sg24
Nsg25
I00
sg26
Nsg27
Nsg28
Nsg29
Nsg30
I00
sg31
Nsg32
(lp232
sg34
Nsg35
V543187249765298179
p233
sg37
Nsg38
VIf the body be feeble, the mind will not be strong. -- Thomas Jefferson http://t.co/InkRJhxYLf http://t.co/vIyYge0hKm
p234
sg40
I00
sg41
Ven
p235
sg43
g3
(g44
g5
Ntp236
Rp237
(dp238
g10
VAlabama
p239
sg49
V362720
p240
sg51
Ven
p241
sg53
VCentral Time (US & Canada)
p242
sg55
I18
sg56
I335
sg22
VThu Dec 19 23:19:42 +0000 2013
p243
sg58
I00
sg59
VIf you love chocolate & you want to be healthy, then I can help!  Check out my website  :)  http://t.co/w8o9RjHwYu
p244
sg61
Vhttps://pbs.twimg.com/profile_images/417802720779595777/_dedOOrb_normal.jpeg
p245
sg63
I50
sg64
I1
sg65
I-21600
sg66
Nsg67
I00
sg68
Vhttps://pbs.twimg.com/profile_banners/2254180586/1410555818
p246
sg70
I00
sg71
I01
sg72
VB40B43
p247
sg74
I00
sg75
I00
sg76
Vhttp://abs.twimg.com/images/themes/theme11/bg.gif
p248
sg78
VShellieWhittle
p249
sg80
I0
sg81
VShellie Whittle
p250
sg83
VE5507E
p251
sg85
Vhttp://t.co/IslHAmYbDI
p252
sg87
I2254180586
sg88
VFF6699
p253
sbsg90
I0
sg91
V<a href="http://pointclickshare.com" rel="nofollow">Point Click Share</a>
p254
sg93
(lp255
g3
(g95
g5
Ntp256
Rp257
(dp258
g99
Vhttp://t.co/InkRJhxYLf
p259
sg101
Vhttp://ltl.is/FfDCY
p260
sbasg87
I543187249765298179
sbag3
(g4
g5
Ntp261
Rp262
(dp263
g9
I0
sg10
Nsg11
Nsg12
(lp264
sg14
I00
sg15
Nsg16
Nsg17
(lp265
(dp266
Vexpanded_url
p267
Vhttp://twitter.com/ShellieWhittle/status/542776537582694400/photo/1
p268
sVdisplay_url
p269
Vpic.twitter.com/l6QK3nhALQ
p270
sVurl
p271
Vhttp://t.co/l6QK3nhALQ
p272
sVmedia_url_https
p273
Vhttps://pbs.twimg.com/media/B4hUYpAIYAEIV6b.jpg
p274
sVid_str
p275
V542776537398140929
p276
sVsizes
p277
(dp278
Vlarge
p279
(dp280
Vh
p281
I537
sVresize
p282
Vfit
p283
sVw
p284
I1024
ssVsmall
p285
(dp286
Vh
p287
I178
sVresize
p288
Vfit
p289
sVw
p290
I340
ssVmedium
p291
(dp292
Vh
p293
I315
sVresize
p294
Vfit
p295
sVw
p296
I600
ssVthumb
p297
(dp298
Vh
p299
I150
sVresize
p300
Vcrop
p301
sVw
p302
I150
sssVindices
p303
(lp304
I78
aI100
asVtype
p305
Vphoto
p306
sVid
p307
I542776537398140929
sVmedia_url
p308
Vhttp://pbs.twimg.com/media/B4hUYpAIYAEIV6b.jpg
p309
sasg19
Nsg20
Nsg21
Nsg22
VWed Dec 10 20:23:05 +0000 2014
p310
sg24
Nsg25
I00
sg26
Nsg27
Nsg28
Nsg29
Nsg30
I00
sg31
Nsg32
(lp311
sg34
Nsg35
V542776537582694400
p312
sg37
Nsg38
VClick here to learn how to make your retirement great! http://t.co/ryplAXTd9U http://t.co/l6QK3nhALQ
p313
sg40
I00
sg41
Ven
p314
sg43
g3
(g44
g5
Ntp315
Rp316
(dp317
g10
VAlabama
p318
sg49
V362720
p319
sg51
Ven
p320
sg53
VCentral Time (US & Canada)
p321
sg55
I18
sg56
I335
sg22
VThu Dec 19 23:19:42 +0000 2013
p322
sg58
I00
sg59
VIf you love chocolate & you want to be healthy, then I can help!  Check out my website  :)  http://t.co/w8o9RjHwYu
p323
sg61
Vhttps://pbs.twimg.com/profile_images/417802720779595777/_dedOOrb_normal.jpeg
p324
sg63
I50
sg64
I1
sg65
I-21600
sg66
Nsg67
I00
sg68
Vhttps://pbs.twimg.com/profile_banners/2254180586/1410555818
p325
sg70
I00
sg71
I01
sg72
VB40B43
p326
sg74
I00
sg75
I00
sg76
Vhttp://abs.twimg.com/images/themes/theme11/bg.gif
p327
sg78
VShellieWhittle
p328
sg80
I0
sg81
VShellie Whittle
p329
sg83
VE5507E
p330
sg85
Vhttp://t.co/IslHAmYbDI
p331
sg87
I2254180586
sg88
VFF6699
p332
sbsg90
I0
sg91
V<a href="http://pointclickshare.com" rel="nofollow">Point Click Share</a>
p333
sg93
(lp334
g3
(g95
g5
Ntp335
Rp336
(dp337
g99
Vhttp://t.co/ryplAXTd9U
p338
sg101
Vhttp://ltl.is/Cj6Io
p339
sbasg87
I542776537582694400
sbag3
(g4
g5
Ntp340
Rp341
(dp342
g9
I0
sg10
Nsg11
Nsg12
(lp343
sg14
I00
sg15
Nsg16
Nsg17
(lp344
(dp345
Vexpanded_url
p346
Vhttp://twitter.com/ShellieWhittle/status/542496947416743936/photo/1
p347
sVdisplay_url
p348
Vpic.twitter.com/ksYxRXimJO
p349
sVurl
p350
Vhttp://t.co/ksYxRXimJO
p351
sVmedia_url_https
p352
Vhttps://pbs.twimg.com/media/B4dWGW-CMAEi11r.jpg
p353
sVid_str
p354
V542496947366408193
p355
sVsizes
p356
(dp357
Vlarge
p358
(dp359
Vh
p360
I203
sVresize
p361
Vfit
p362
sVw
p363
I301
ssVsmall
p364
(dp365
Vh
p366
I203
sVresize
p367
Vfit
p368
sVw
p369
I301
ssVmedium
p370
(dp371
Vh
p372
I203
sVresize
p373
Vfit
p374
sVw
p375
I301
ssVthumb
p376
(dp377
Vh
p378
I150
sVresize
p379
Vcrop
p380
sVw
p381
I150
sssVindices
p382
(lp383
I114
aI136
asVtype
p384
Vphoto
p385
sVid
p386
I542496947366408193
sVmedia_url
p387
Vhttp://pbs.twimg.com/media/B4dWGW-CMAEi11r.jpg
p388
sasg19
Nsg20
Nsg21
Nsg22
VWed Dec 10 01:52:06 +0000 2014
p389
sg24
Nsg25
I00
sg26
Nsg27
Nsg28
Nsg29
Nsg30
I00
sg31
Nsg32
(lp390
sg34
Nsg35
V542496947416743936
p391
sg37
Nsg38
VThe human body is the only machine for which there are no spare parts. -- Hermann M. Biggs http://t.co/ffCtPjZ8CC http://t.co/ksYxRXimJO
p392
sg40
I00
sg41
Ven
p393
sg43
g3
(g44
g5
Ntp394
Rp395
(dp396
g10
VAlabama
p397
sg49
V362720
p398
sg51
Ven
p399
sg53
VCentral Time (US & Canada)
p400
sg55
I18
sg56
I335
sg22
VThu Dec 19 23:19:42 +0000 2013
p401
sg58
I00
sg59
VIf you love chocolate & you want to be healthy, then I can help!  Check out my website  :)  http://t.co/w8o9RjHwYu
p402
sg61
Vhttps://pbs.twimg.com/profile_images/417802720779595777/_dedOOrb_normal.jpeg
p403
sg63
I50
sg64
I1
sg65
I-21600
sg66
Nsg67
I00
sg68
Vhttps://pbs.twimg.com/profile_banners/2254180586/1410555818
p404
sg70
I00
sg71
I01
sg72
VB40B43
p405
sg74
I00
sg75
I00
sg76
Vhttp://abs.twimg.com/images/themes/theme11/bg.gif
p406
sg78
VShellieWhittle
p407
sg80
I0
sg81
VShellie Whittle
p408
sg83
VE5507E
p409
sg85
Vhttp://t.co/IslHAmYbDI
p410
sg87
I2254180586
sg88
VFF6699
p411
sbsg90
I0
sg91
V<a href="http://pointclickshare.com" rel="nofollow">Point Click Share</a>
p412
sg93
(lp413
g3
(g95
g5
Ntp414
Rp415
(dp416
g99
Vhttp://t.co/ffCtPjZ8CC
p417
sg101
Vhttp://ltl.is/FfDCY
p418
sbasg87
I542496947416743936
sbag3
(g4
g5
Ntp419
Rp420
(dp421
g9
I0
sg10
Nsg11
Nsg12
(lp422
sg14
I00
sg15
Nsg16
Nsg17
(lp423
sg19
Nsg20
Nsg21
Nsg22
VMon Dec 08 19:50:04 +0000 2014
p424
sg24
Nsg25
I00
sg26
Nsg27
Nsg28
Nsg29
Nsg30
I00
sg31
Nsg32
(lp425
sg34
Nsg35
V542043453178118144
p426
sg37
Nsg38
VWindow to weight loss.  http://t.co/5sMtIxkxKB
p427
sg40
I00
sg41
Ven
p428
sg43
g3
(g44
g5
Ntp429
Rp430
(dp431
g10
VAlabama
p432
sg49
V362720
p433
sg51
Ven
p434
sg53
VCentral Time (US & Canada)
p435
sg55
I18
sg56
I335
sg22
VThu Dec 19 23:19:42 +0000 2013
p436
sg58
I00
sg59
VIf you love chocolate & you want to be healthy, then I can help!  Check out my website  :)  http://t.co/w8o9RjHwYu
p437
sg61
Vhttps://pbs.twimg.com/profile_images/417802720779595777/_dedOOrb_normal.jpeg
p438
sg63
I50
sg64
I1
sg65
I-21600
sg66
Nsg67
I00
sg68
Vhttps://pbs.twimg.com/profile_banners/2254180586/1410555818
p439
sg70
I00
sg71
I01
sg72
VB40B43
p440
sg74
I00
sg75
I00
sg76
Vhttp://abs.twimg.com/images/themes/theme11/bg.gif
p441
sg78
VShellieWhittle
p442
sg80
I0
sg81
VShellie Whittle
p443
sg83
VE5507E
p444
sg85
Vhttp://t.co/IslHAmYbDI
p445
sg87
I2254180586
sg88
VFF6699
p446
sbsg90
I0
sg91
V<a href="http://pointclickshare.com" rel="nofollow">Point Click Share</a>
p447
sg93
(lp448
g3
(g95
g5
Ntp449
Rp450
(dp451
g99
Vhttp://t.co/5sMtIxkxKB
p452
sg101
Vhttp://ltl.is/80iPS
p453
sbasg87
I542043453178118144
sbag3
(g4
g5
Ntp454
Rp455
(dp456
g9
I0
sg10
Nsg11
Nsg12
(lp457
sg14
I00
sg15
Nsg16
Nsg17
(lp458
(dp459
Vexpanded_url
p460
Vhttp://twitter.com/ShellieWhittle/status/541673013180383233/photo/1
p461
sVdisplay_url
p462
Vpic.twitter.com/dHn39i14dc
p463
sVurl
p464
Vhttp://t.co/dHn39i14dc
p465
sVmedia_url_https
p466
Vhttps://pbs.twimg.com/media/B4RovEeIcAECvQd.jpg
p467
sVid_str
p468
V541673013054566401
p469
sVsizes
p470
(dp471
Vlarge
p472
(dp473
Vh
p474
I537
sVresize
p475
Vfit
p476
sVw
p477
I1024
ssVsmall
p478
(dp479
Vh
p480
I178
sVresize
p481
Vfit
p482
sVw
p483
I340
ssVmedium
p484
(dp485
Vh
p486
I315
sVresize
p487
Vfit
p488
sVw
p489
I600
ssVthumb
p490
(dp491
Vh
p492
I150
sVresize
p493
Vcrop
p494
sVw
p495
I150
sssVindices
p496
(lp497
I50
aI72
asVtype
p498
Vphoto
p499
sVid
p500
I541673013054566401
sVmedia_url
p501
Vhttp://pbs.twimg.com/media/B4RovEeIcAECvQd.jpg
p502
sasg19
Nsg20
Nsg21
Nsg22
VSun Dec 07 19:18:04 +0000 2014
p503
sg24
Nsg25
I00
sg26
Nsg27
Nsg28
Nsg29
Nsg30
I00
sg31
Nsg32
(lp504
sg34
Nsg35
V541673013180383233
p505
sg37
Nsg38
VOwn your life. Ask me how. http://t.co/InkRJhxYLf http://t.co/dHn39i14dc
p506
sg40
I00
sg41
Ven
p507
sg43
g3
(g44
g5
Ntp508
Rp509
(dp510
g10
VAlabama
p511
sg49
V362720
p512
sg51
Ven
p513
sg53
VCentral Time (US & Canada)
p514
sg55
I18
sg56
I335
sg22
VThu Dec 19 23:19:42 +0000 2013
p515
sg58
I00
sg59
VIf you love chocolate & you want to be healthy, then I can help!  Check out my website  :)  http://t.co/w8o9RjHwYu
p516
sg61
Vhttps://pbs.twimg.com/profile_images/417802720779595777/_dedOOrb_normal.jpeg
p517
sg63
I50
sg64
I1
sg65
I-21600
sg66
Nsg67
I00
sg68
Vhttps://pbs.twimg.com/profile_banners/2254180586/1410555818
p518
sg70
I00
sg71
I01
sg72
VB40B43
p519
sg74
I00
sg75
I00
sg76
Vhttp://abs.twimg.com/images/themes/theme11/bg.gif
p520
sg78
VShellieWhittle
p521
sg80
I0
sg81
VShellie Whittle
p522
sg83
VE5507E
p523
sg85
Vhttp://t.co/IslHAmYbDI
p524
sg87
I2254180586
sg88
VFF6699
p525
sbsg90
I0
sg91
V<a href="http://pointclickshare.com" rel="nofollow">Point Click Share</a>
p526
sg93
(lp527
g3
(g95
g5
Ntp528
Rp529
(dp530
g99
Vhttp://t.co/InkRJhxYLf
p531
sg101
Vhttp://ltl.is/FfDCY
p532
sbasg87
I541673013180383233
sbag3
(g4
g5
Ntp533
Rp534
(dp535
g9
I0
sg10
Nsg11
Nsg12
(lp536
sg14
I00
sg15
Nsg16
Nsg17
(lp537
sg19
Nsg20
Nsg21
Nsg22
VSat Dec 06 16:23:04 +0000 2014
p538
sg24
Nsg25
I00
sg26
Nsg27
Nsg28
Nsg29
Nsg30
I00
sg31
Nsg32
(lp539
sg34
Nsg35
V541266581817671681
p540
sg37
Nsg38
VGet rid of that stubborn belly fat http://t.co/zUToBDahC8
p541
sg40
I00
sg41
Ven
p542
sg43
g3
(g44
g5
Ntp543
Rp544
(dp545
g10
VAlabama
p546
sg49
V362720
p547
sg51
Ven
p548
sg53
VCentral Time (US & Canada)
p549
sg55
I18
sg56
I335
sg22
VThu Dec 19 23:19:42 +0000 2013
p550
sg58
I00
sg59
VIf you love chocolate & you want to be healthy, then I can help!  Check out my website  :)  http://t.co/w8o9RjHwYu
p551
sg61
Vhttps://pbs.twimg.com/profile_images/417802720779595777/_dedOOrb_normal.jpeg
p552
sg63
I50
sg64
I1
sg65
I-21600
sg66
Nsg67
I00
sg68
Vhttps://pbs.twimg.com/profile_banners/2254180586/1410555818
p553
sg70
I00
sg71
I01
sg72
VB40B43
p554
sg74
I00
sg75
I00
sg76
Vhttp://abs.twimg.com/images/themes/theme11/bg.gif
p555
sg78
VShellieWhittle
p556
sg80
I0
sg81
VShellie Whittle
p557
sg83
VE5507E
p558
sg85
Vhttp://t.co/IslHAmYbDI
p559
sg87
I2254180586
sg88
VFF6699
p560
sbsg90
I0
sg91
V<a href="http://pointclickshare.com" rel="nofollow">Point Click Share</a>
p561
sg93
(lp562
g3
(g95
g5
Ntp563
Rp564
(dp565
g99
Vhttp://t.co/zUToBDahC8
p566
sg101
Vhttp://ltl.is/FKSo0
p567
sbasg87
I541266581817671681
sbag3
(g4
g5
Ntp568
Rp569
(dp570
g9
I0
sg10
Nsg11
Nsg12
(lp571
sg14
I00
sg15
Nsg16
Nsg17
(lp572
(dp573
Vexpanded_url
p574
Vhttp://twitter.com/ShellieWhittle/status/540932888888619009/photo/1
p575
sVdisplay_url
p576
Vpic.twitter.com/YeZBsE2JKO
p577
sVurl
p578
Vhttp://t.co/YeZBsE2JKO
p579
sVmedia_url_https
p580
Vhttps://pbs.twimg.com/media/B4HHmK4IUAA9iP8.jpg
p581
sVid_str
p582
V540932888829906944
p583
sVsizes
p584
(dp585
Vlarge
p586
(dp587
Vh
p588
I537
sVresize
p589
Vfit
p590
sVw
p591
I1024
ssVsmall
p592
(dp593
Vh
p594
I178
sVresize
p595
Vfit
p596
sVw
p597
I340
ssVmedium
p598
(dp599
Vh
p600
I315
sVresize
p601
Vfit
p602
sVw
p603
I600
ssVthumb
p604
(dp605
Vh
p606
I150
sVresize
p607
Vcrop
p608
sVw
p609
I150
sssVindices
p610
(lp611
I83
aI105
asVtype
p612
Vphoto
p613
sVid
p614
I540932888829906944
sVmedia_url
p615
Vhttp://pbs.twimg.com/media/B4HHmK4IUAA9iP8.jpg
p616
sasg19
Nsg20
Nsg21
Nsg22
VFri Dec 05 18:17:05 +0000 2014
p617
sg24
Nsg25
I00
sg26
Nsg27
Nsg28
Nsg29
Nsg30
I00
sg31
Nsg32
(lp618
sg34
Nsg35
V540932888888619009
p619
sg37
Nsg38
VClick here to learn more about how to increase your income! http://t.co/0vtg5Ffj46 http://t.co/YeZBsE2JKO
p620
sg40
I00
sg41
Ven
p621
sg43
g3
(g44
g5
Ntp622
Rp623
(dp624
g10
VAlabama
p625
sg49
V362720
p626
sg51
Ven
p627
sg53
VCentral Time (US & Canada)
p628
sg55
I18
sg56
I335
sg22
VThu Dec 19 23:19:42 +0000 2013
p629
sg58
I00
sg59
VIf you love chocolate & you want to be healthy, then I can help!  Check out my website  :)  http://t.co/w8o9RjHwYu
p630
sg61
Vhttps://pbs.twimg.com/profile_images/417802720779595777/_dedOOrb_normal.jpeg
p631
sg63
I50
sg64
I1
sg65
I-21600
sg66
Nsg67
I00
sg68
Vhttps://pbs.twimg.com/profile_banners/2254180586/1410555818
p632
sg70
I00
sg71
I01
sg72
VB40B43
p633
sg74
I00
sg75
I00
sg76
Vhttp://abs.twimg.com/images/themes/theme11/bg.gif
p634
sg78
VShellieWhittle
p635
sg80
I0
sg81
VShellie Whittle
p636
sg83
VE5507E
p637
sg85
Vhttp://t.co/IslHAmYbDI
p638
sg87
I2254180586
sg88
VFF6699
p639
sbsg90
I0
sg91
V<a href="http://pointclickshare.com" rel="nofollow">Point Click Share</a>
p640
sg93
(lp641
g3
(g95
g5
Ntp642
Rp643
(dp644
g99
Vhttp://t.co/0vtg5Ffj46
p645
sg101
Vhttp://ltl.is/S5Qp6
p646
sbasg87
I540932888888619009
sbag3
(g4
g5
Ntp647
Rp648
(dp649
g9
I0
sg10
Nsg11
Nsg12
(lp650
sg14
I00
sg15
Nsg16
Nsg17
(lp651
sg19
Nsg20
Nsg21
Nsg22
VThu Dec 04 20:01:05 +0000 2014
p652
sg24
Nsg25
I00
sg26
Nsg27
Nsg28
Nsg29
Nsg30
I00
sg31
Nsg32
(lp653
sg34
Nsg35
V540596673526112256
p654
sg37
Nsg38
VAre you getting enough sleep? http://t.co/FMCwzM8JeR
p655
sg40
I00
sg41
Ven
p656
sg43
g3
(g44
g5
Ntp657
Rp658
(dp659
g10
VAlabama
p660
sg49
V362720
p661
sg51
Ven
p662
sg53
VCentral Time (US & Canada)
p663
sg55
I18
sg56
I335
sg22
VThu Dec 19 23:19:42 +0000 2013
p664
sg58
I00
sg59
VIf you love chocolate & you want to be healthy, then I can help!  Check out my website  :)  http://t.co/w8o9RjHwYu
p665
sg61
Vhttps://pbs.twimg.com/profile_images/417802720779595777/_dedOOrb_normal.jpeg
p666
sg63
I50
sg64
I1
sg65
I-21600
sg66
Nsg67
I00
sg68
Vhttps://pbs.twimg.com/profile_banners/2254180586/1410555818
p667
sg70
I00
sg71
I01
sg72
VB40B43
p668
sg74
I00
sg75
I00
sg76
Vhttp://abs.twimg.com/images/themes/theme11/bg.gif
p669
sg78
VShellieWhittle
p670
sg80
I0
sg81
VShellie Whittle
p671
sg83
VE5507E
p672
sg85
Vhttp://t.co/IslHAmYbDI
p673
sg87
I2254180586
sg88
VFF6699
p674
sbsg90
I0
sg91
V<a href="http://pointclickshare.com" rel="nofollow">Point Click Share</a>
p675
sg93
(lp676
g3
(g95
g5
Ntp677
Rp678
(dp679
g99
Vhttp://t.co/FMCwzM8JeR
p680
sg101
Vhttp://ltl.is/u29Fo
p681
sbasg87
I540596673526112256
sbag3
(g4
g5
Ntp682
Rp683
(dp684
g9
I0
sg10
Nsg11
Nsg12
(lp685
sg14
I00
sg15
Nsg16
Nsg17
(lp686
sg19
Nsg20
Nsg21
Nsg22
VThu Dec 04 01:58:03 +0000 2014
p687
sg24
Nsg25
I00
sg26
Nsg27
Nsg28
Nsg29
Nsg30
I00
sg31
Nsg32
(lp688
sg34
Nsg35
V540324120995827712
p689
sg37
Nsg38
VThis is the world's first "super shake" to deliver all the nutrition your body needs on a daily basis in a way that's http://t.co/RcT0heWVuM
p690
sg40
I00
sg41
Ven
p691
sg43
g3
(g44
g5
Ntp692
Rp693
(dp694
g10
VAlabama
p695
sg49
V362720
p696
sg51
Ven
p697
sg53
VCentral Time (US & Canada)
p698
sg55
I18
sg56
I335
sg22
VThu Dec 19 23:19:42 +0000 2013
p699
sg58
I00
sg59
VIf you love chocolate & you want to be healthy, then I can help!  Check out my website  :)  http://t.co/w8o9RjHwYu
p700
sg61
Vhttps://pbs.twimg.com/profile_images/417802720779595777/_dedOOrb_normal.jpeg
p701
sg63
I50
sg64
I1
sg65
I-21600
sg66
Nsg67
I00
sg68
Vhttps://pbs.twimg.com/profile_banners/2254180586/1410555818
p702
sg70
I00
sg71
I01
sg72
VB40B43
p703
sg74
I00
sg75
I00
sg76
Vhttp://abs.twimg.com/images/themes/theme11/bg.gif
p704
sg78
VShellieWhittle
p705
sg80
I0
sg81
VShellie Whittle
p706
sg83
VE5507E
p707
sg85
Vhttp://t.co/IslHAmYbDI
p708
sg87
I2254180586
sg88
VFF6699
p709
sbsg90
I0
sg91
V<a href="http://pointclickshare.com" rel="nofollow">Point Click Share</a>
p710
sg93
(lp711
g3
(g95
g5
Ntp712
Rp713
(dp714
g99
Vhttp://t.co/RcT0heWVuM
p715
sg101
Vhttp://ltl.is/RvbOf
p716
sbasg87
I540324120995827712
sbag3
(g4
g5
Ntp717
Rp718
(dp719
g9
I0
sg10
Nsg11
Nsg12
(lp720
sg14
I00
sg15
Nsg16
Nsg17
(lp721
(dp722
Vexpanded_url
p723
Vhttp://twitter.com/ShellieWhittle/status/539866606349086720/photo/1
p724
sVdisplay_url
p725
Vpic.twitter.com/2FxLYioxfw
p726
sVurl
p727
Vhttp://t.co/2FxLYioxfw
p728
sVmedia_url_https
p729
Vhttps://pbs.twimg.com/media/B3390W5IYAARRib.jpg
p730
sVid_str
p731
V539866606294556672
p732
sVsizes
p733
(dp734
Vsmall
p735
(dp736
Vh
p737
I327
sVresize
p738
Vfit
p739
sVw
p740
I340
ssVlarge
p741
(dp742
Vh
p743
I385
sVresize
p744
Vfit
p745
sVw
p746
I400
ssVmedium
p747
(dp748
Vh
p749
I385
sVresize
p750
Vfit
p751
sVw
p752
I400
ssVthumb
p753
(dp754
Vh
p755
I150
sVresize
p756
Vcrop
p757
sVw
p758
I150
sssVindices
p759
(lp760
I95
aI117
asVtype
p761
Vphoto
p762
sVid
p763
I539866606294556672
sVmedia_url
p764
Vhttp://pbs.twimg.com/media/B3390W5IYAARRib.jpg
p765
sasg19
Nsg20
Nsg21
Nsg22
VTue Dec 02 19:40:03 +0000 2014
p766
sg24
Nsg25
I00
sg26
Nsg27
Nsg28
Nsg29
Nsg30
I00
sg31
Nsg32
(lp767
sg34
Nsg35
V539866606349086720
p768
sg37
Nsg38
VIf the body be feeble, the mind will not be strong. -- Thomas Jefferson http://t.co/InkRJhxYLf http://t.co/2FxLYioxfw
p769
sg40
I00
sg41
Ven
p770
sg43
g3
(g44
g5
Ntp771
Rp772
(dp773
g10
VAlabama
p774
sg49
V362720
p775
sg51
Ven
p776
sg53
VCentral Time (US & Canada)
p777
sg55
I18
sg56
I335
sg22
VThu Dec 19 23:19:42 +0000 2013
p778
sg58
I00
sg59
VIf you love chocolate & you want to be healthy, then I can help!  Check out my website  :)  http://t.co/w8o9RjHwYu
p779
sg61
Vhttps://pbs.twimg.com/profile_images/417802720779595777/_dedOOrb_normal.jpeg
p780
sg63
I50
sg64
I1
sg65
I-21600
sg66
Nsg67
I00
sg68
Vhttps://pbs.twimg.com/profile_banners/2254180586/1410555818
p781
sg70
I00
sg71
I01
sg72
VB40B43
p782
sg74
I00
sg75
I00
sg76
Vhttp://abs.twimg.com/images/themes/theme11/bg.gif
p783
sg78
VShellieWhittle
p784
sg80
I0
sg81
VShellie Whittle
p785
sg83
VE5507E
p786
sg85
Vhttp://t.co/IslHAmYbDI
p787
sg87
I2254180586
sg88
VFF6699
p788
sbsg90
I0
sg91
V<a href="http://pointclickshare.com" rel="nofollow">Point Click Share</a>
p789
sg93
(lp790
g3
(g95
g5
Ntp791
Rp792
(dp793
g99
Vhttp://t.co/InkRJhxYLf
p794
sg101
Vhttp://ltl.is/FfDCY
p795
sbasg87
I539866606349086720
sbag3
(g4
g5
Ntp796
Rp797
(dp798
g9
I0
sg10
Nsg11
Nsg12
(lp799
sg14
I00
sg15
Nsg16
Nsg17
(lp800
(dp801
Vexpanded_url
p802
Vhttp://twitter.com/ShellieWhittle/status/539446841180684288/photo/1
p803
sVdisplay_url
p804
Vpic.twitter.com/9yO7LVfxrJ
p805
sVurl
p806
Vhttp://t.co/9yO7LVfxrJ
p807
sVmedia_url_https
p808
Vhttps://pbs.twimg.com/media/B3yACziIgAAdoOF.jpg
p809
sVid_str
p810
V539446841059082240
p811
sVsizes
p812
(dp813
Vlarge
p814
(dp815
Vh
p816
I537
sVresize
p817
Vfit
p818
sVw
p819
I1024
ssVsmall
p820
(dp821
Vh
p822
I178
sVresize
p823
Vfit
p824
sVw
p825
I340
ssVmedium
p826
(dp827
Vh
p828
I315
sVresize
p829
Vfit
p830
sVw
p831
I600
ssVthumb
p832
(dp833
Vh
p834
I150
sVresize
p835
Vcrop
p836
sVw
p837
I150
sssVindices
p838
(lp839
I56
aI78
asVtype
p840
Vphoto
p841
sVid
p842
I539446841059082240
sVmedia_url
p843
Vhttp://pbs.twimg.com/media/B3yACziIgAAdoOF.jpg
p844
sasg19
Nsg20
Nsg21
Nsg22
VMon Dec 01 15:52:04 +0000 2014
p845
sg24
Nsg25
I00
sg26
Nsg27
Nsg28
Nsg29
Nsg30
I00
sg31
Nsg32
(lp846
sg34
Nsg35
V539446841180684288
p847
sg37
Nsg38
VRemember what's truly important. http://t.co/InkRJhxYLf http://t.co/9yO7LVfxrJ
p848
sg40
I00
sg41
Ven
p849
sg43
g3
(g44
g5
Ntp850
Rp851
(dp852
g10
VAlabama
p853
sg49
V362720
p854
sg51
Ven
p855
sg53
VCentral Time (US & Canada)
p856
sg55
I18
sg56
I335
sg22
VThu Dec 19 23:19:42 +0000 2013
p857
sg58
I00
sg59
VIf you love chocolate & you want to be healthy, then I can help!  Check out my website  :)  http://t.co/w8o9RjHwYu
p858
sg61
Vhttps://pbs.twimg.com/profile_images/417802720779595777/_dedOOrb_normal.jpeg
p859
sg63
I50
sg64
I1
sg65
I-21600
sg66
Nsg67
I00
sg68
Vhttps://pbs.twimg.com/profile_banners/2254180586/1410555818
p860
sg70
I00
sg71
I01
sg72
VB40B43
p861
sg74
I00
sg75
I00
sg76
Vhttp://abs.twimg.com/images/themes/theme11/bg.gif
p862
sg78
VShellieWhittle
p863
sg80
I0
sg81
VShellie Whittle
p864
sg83
VE5507E
p865
sg85
Vhttp://t.co/IslHAmYbDI
p866
sg87
I2254180586
sg88
VFF6699
p867
sbsg90
I0
sg91
V<a href="http://pointclickshare.com" rel="nofollow">Point Click Share</a>
p868
sg93
(lp869
g3
(g95
g5
Ntp870
Rp871
(dp872
g99
Vhttp://t.co/InkRJhxYLf
p873
sg101
Vhttp://ltl.is/FfDCY
p874
sbasg87
I539446841180684288
sbag3
(g4
g5
Ntp875
Rp876
(dp877
g9
I0
sg10
Nsg11
Nsg12
(lp878
sg14
I00
sg15
Nsg16
Nsg17
(lp879
(dp880
Vexpanded_url
p881
Vhttp://twitter.com/ShellieWhittle/status/539150888833916928/photo/1
p882
sVdisplay_url
p883
Vpic.twitter.com/JO73yx2Uc9
p884
sVurl
p885
Vhttp://t.co/JO73yx2Uc9
p886
sVmedia_url_https
p887
Vhttps://pbs.twimg.com/media/B3ty4HAIUAAl60t.jpg
p888
sVid_str
p889
V539150888678739968
p890
sVsizes
p891
(dp892
Vlarge
p893
(dp894
Vh
p895
I537
sVresize
p896
Vfit
p897
sVw
p898
I1024
ssVsmall
p899
(dp900
Vh
p901
I178
sVresize
p902
Vfit
p903
sVw
p904
I340
ssVmedium
p905
(dp906
Vh
p907
I315
sVresize
p908
Vfit
p909
sVw
p910
I600
ssVthumb
p911
(dp912
Vh
p913
I150
sVresize
p914
Vcrop
p915
sVw
p916
I150
sssVindices
p917
(lp918
I69
aI91
asVtype
p919
Vphoto
p920
sVid
p921
I539150888678739968
sVmedia_url
p922
Vhttp://pbs.twimg.com/media/B3ty4HAIUAAl60t.jpg
p923
sasg19
Nsg20
Nsg21
Nsg22
VSun Nov 30 20:16:03 +0000 2014
p924
sg24
Nsg25
I00
sg26
Nsg27
Nsg28
Nsg29
Nsg30
I00
sg31
Nsg32
(lp925
sg34
Nsg35
V539150888833916928
p926
sg37
Nsg38
VThis is a great quote. Dragons can be beaten! http://t.co/InkRJhxYLf http://t.co/JO73yx2Uc9
p927
sg40
I00
sg41
Ven
p928
sg43
g3
(g44
g5
Ntp929
Rp930
(dp931
g10
VAlabama
p932
sg49
V362720
p933
sg51
Ven
p934
sg53
VCentral Time (US & Canada)
p935
sg55
I18
sg56
I335
sg22
VThu Dec 19 23:19:42 +0000 2013
p936
sg58
I00
sg59
VIf you love chocolate & you want to be healthy, then I can help!  Check out my website  :)  http://t.co/w8o9RjHwYu
p937
sg61
Vhttps://pbs.twimg.com/profile_images/417802720779595777/_dedOOrb_normal.jpeg
p938
sg63
I50
sg64
I1
sg65
I-21600
sg66
Nsg67
I00
sg68
Vhttps://pbs.twimg.com/profile_banners/2254180586/1410555818
p939
sg70
I00
sg71
I01
sg72
VB40B43
p940
sg74
I00
sg75
I00
sg76
Vhttp://abs.twimg.com/images/themes/theme11/bg.gif
p941
sg78
VShellieWhittle
p942
sg80
I0
sg81
VShellie Whittle
p943
sg83
VE5507E
p944
sg85
Vhttp://t.co/IslHAmYbDI
p945
sg87
I2254180586
sg88
VFF6699
p946
sbsg90
I0
sg91
V<a href="http://pointclickshare.com" rel="nofollow">Point Click Share</a>
p947
sg93
(lp948
g3
(g95
g5
Ntp949
Rp950
(dp951
g99
Vhttp://t.co/InkRJhxYLf
p952
sg101
Vhttp://ltl.is/FfDCY
p953
sbasg87
I539150888833916928
sbag3
(g4
g5
Ntp954
Rp955
(dp956
g9
I0
sg10
Nsg11
Nsg12
(lp957
sg14
I00
sg15
Nsg16
Nsg17
(lp958
(dp959
Vexpanded_url
p960
Vhttp://twitter.com/ShellieWhittle/status/538865505877385216/photo/1
p961
sVdisplay_url
p962
Vpic.twitter.com/2gqfT2qZcK
p963
sVurl
p964
Vhttp://t.co/2gqfT2qZcK
p965
sVmedia_url_https
p966
Vhttps://pbs.twimg.com/media/B3pvUn_IMAAl-nk.jpg
p967
sVid_str
p968
V538865505546022912
p969
sVsizes
p970
(dp971
Vlarge
p972
(dp973
Vh
p974
I537
sVresize
p975
Vfit
p976
sVw
p977
I1024
ssVsmall
p978
(dp979
Vh
p980
I178
sVresize
p981
Vfit
p982
sVw
p983
I340
ssVmedium
p984
(dp985
Vh
p986
I315
sVresize
p987
Vfit
p988
sVw
p989
I600
ssVthumb
p990
(dp991
Vh
p992
I150
sVresize
p993
Vcrop
p994
sVw
p995
I150
sssVindices
p996
(lp997
I50
aI72
asVtype
p998
Vphoto
p999
sVid
p1000
I538865505546022912
sVmedia_url
p1001
Vhttp://pbs.twimg.com/media/B3pvUn_IMAAl-nk.jpg
p1002
sasg19
Nsg20
Nsg21
Nsg22
VSun Nov 30 01:22:02 +0000 2014
p1003
sg24
Nsg25
I00
sg26
Nsg27
Nsg28
Nsg29
Nsg30
I00
sg31
Nsg32
(lp1004
sg34
Nsg35
V538865505877385216
p1005
sg37
Nsg38
VOwn your life. Ask me how. http://t.co/InkRJhxYLf http://t.co/2gqfT2qZcK
p1006
sg40
I00
sg41
Ven
p1007
sg43
g3
(g44
g5
Ntp1008
Rp1009
(dp1010
g10
VAlabama
p1011
sg49
V362720
p1012
sg51
Ven
p1013
sg53
VCentral Time (US & Canada)
p1014
sg55
I18
sg56
I335
sg22
VThu Dec 19 23:19:42 +0000 2013
p1015
sg58
I00
sg59
VIf you love chocolate & you want to be healthy, then I can help!  Check out my website  :)  http://t.co/w8o9RjHwYu
p1016
sg61
Vhttps://pbs.twimg.com/profile_images/417802720779595777/_dedOOrb_normal.jpeg
p1017
sg63
I50
sg64
I1
sg65
I-21600
sg66
Nsg67
I00
sg68
Vhttps://pbs.twimg.com/profile_banners/2254180586/1410555818
p1018
sg70
I00
sg71
I01
sg72
VB40B43
p1019
sg74
I00
sg75
I00
sg76
Vhttp://abs.twimg.com/images/themes/theme11/bg.gif
p1020
sg78
VShellieWhittle
p1021
sg80
I0
sg81
VShellie Whittle
p1022
sg83
VE5507E
p1023
sg85
Vhttp://t.co/IslHAmYbDI
p1024
sg87
I2254180586
sg88
VFF6699
p1025
sbsg90
I0
sg91
V<a href="http://pointclickshare.com" rel="nofollow">Point Click Share</a>
p1026
sg93
(lp1027
g3
(g95
g5
Ntp1028
Rp1029
(dp1030
g99
Vhttp://t.co/InkRJhxYLf
p1031
sg101
Vhttp://ltl.is/FfDCY
p1032
sbasg87
I538865505877385216
sbag3
(g4
g5
Ntp1033
Rp1034
(dp1035
g9
I0
sg10
Nsg11
Nsg12
(lp1036
sg14
I00
sg15
Nsg16
Nsg17
(lp1037
(dp1038
Vexpanded_url
p1039
Vhttp://twitter.com/ShellieWhittle/status/538513438570741760/photo/1
p1040
sVdisplay_url
p1041
Vpic.twitter.com/LDoD93czcc
p1042
sVurl
p1043
Vhttp://t.co/LDoD93czcc
p1044
sVmedia_url_https
p1045
Vhttps://pbs.twimg.com/media/B3kvHoJIIAASFdn.jpg
p1046
sVid_str
p1047
V538513438528774144
p1048
sVsizes
p1049
(dp1050
Vlarge
p1051
(dp1052
Vh
p1053
I203
sVresize
p1054
Vfit
p1055
sVw
p1056
I301
ssVsmall
p1057
(dp1058
Vh
p1059
I203
sVresize
p1060
Vfit
p1061
sVw
p1062
I301
ssVmedium
p1063
(dp1064
Vh
p1065
I203
sVresize
p1066
Vfit
p1067
sVw
p1068
I301
ssVthumb
p1069
(dp1070
Vh
p1071
I150
sVresize
p1072
Vcrop
p1073
sVw
p1074
I150
sssVindices
p1075
(lp1076
I114
aI136
asVtype
p1077
Vphoto
p1078
sVid
p1079
I538513438528774144
sVmedia_url
p1080
Vhttp://pbs.twimg.com/media/B3kvHoJIIAASFdn.jpg
p1081
sasg19
Nsg20
Nsg21
Nsg22
VSat Nov 29 02:03:03 +0000 2014
p1082
sg24
Nsg25
I00
sg26
Nsg27
Nsg28
Nsg29
Nsg30
I00
sg31
Nsg32
(lp1083
sg34
Nsg35
V538513438570741760
p1084
sg37
Nsg38
VThe human body is the only machine for which there are no spare parts. -- Hermann M. Biggs http://t.co/InkRJhxYLf http://t.co/LDoD93czcc
p1085
sg40
I00
sg41
Ven
p1086
sg43
g3
(g44
g5
Ntp1087
Rp1088
(dp1089
g10
VAlabama
p1090
sg49
V362720
p1091
sg51
Ven
p1092
sg53
VCentral Time (US & Canada)
p1093
sg55
I18
sg56
I335
sg22
VThu Dec 19 23:19:42 +0000 2013
p1094
sg58
I00
sg59
VIf you love chocolate & you want to be healthy, then I can help!  Check out my website  :)  http://t.co/w8o9RjHwYu
p1095
sg61
Vhttps://pbs.twimg.com/profile_images/417802720779595777/_dedOOrb_normal.jpeg
p1096
sg63
I50
sg64
I1
sg65
I-21600
sg66
Nsg67
I00
sg68
Vhttps://pbs.twimg.com/profile_banners/2254180586/1410555818
p1097
sg70
I00
sg71
I01
sg72
VB40B43
p1098
sg74
I00
sg75
I00
sg76
Vhttp://abs.twimg.com/images/themes/theme11/bg.gif
p1099
sg78
VShellieWhittle
p1100
sg80
I0
sg81
VShellie Whittle
p1101
sg83
VE5507E
p1102
sg85
Vhttp://t.co/IslHAmYbDI
p1103
sg87
I2254180586
sg88
VFF6699
p1104
sbsg90
I0
sg91
V<a href="http://pointclickshare.com" rel="nofollow">Point Click Share</a>
p1105
sg93
(lp1106
g3
(g95
g5
Ntp1107
Rp1108
(dp1109
g99
Vhttp://t.co/InkRJhxYLf
p1110
sg101
Vhttp://ltl.is/FfDCY
p1111
sbasg87
I538513438570741760
sbag3
(g4
g5
Ntp1112
Rp1113
(dp1114
g9
I0
sg10
Nsg11
Nsg12
(lp1115
sg14
I00
sg15
Nsg16
Nsg17
(lp1116
(dp1117
Vexpanded_url
p1118
Vhttp://twitter.com/ShellieWhittle/status/538127641724084224/photo/1
p1119
sVdisplay_url
p1120
Vpic.twitter.com/7UpgpjUDzJ
p1121
sVurl
p1122
Vhttp://t.co/7UpgpjUDzJ
p1123
sVmedia_url_https
p1124
Vhttps://pbs.twimg.com/media/B3fQPSaIMAAS7_X.jpg
p1125
sVid_str
p1126
V538127641552105472
p1127
sVsizes
p1128
(dp1129
Vlarge
p1130
(dp1131
Vh
p1132
I265
sVresize
p1133
Vfit
p1134
sVw
p1135
I505
ssVsmall
p1136
(dp1137
Vh
p1138
I178
sVresize
p1139
Vfit
p1140
sVw
p1141
I340
ssVmedium
p1142
(dp1143
Vh
p1144
I265
sVresize
p1145
Vfit
p1146
sVw
p1147
I505
ssVthumb
p1148
(dp1149
Vh
p1150
I150
sVresize
p1151
Vcrop
p1152
sVw
p1153
I150
sssVindices
p1154
(lp1155
I60
aI82
asVtype
p1156
Vphoto
p1157
sVid
p1158
I538127641552105472
sVmedia_url
p1159
Vhttp://pbs.twimg.com/media/B3fQPSaIMAAS7_X.jpg
p1160
sasg19
Nsg20
Nsg21
Nsg22
VFri Nov 28 00:30:02 +0000 2014
p1161
sg24
Nsg25
I00
sg26
Nsg27
Nsg28
Nsg29
Nsg30
I00
sg31
Nsg32
(lp1162
sg34
Nsg35
V538127641724084224
p1163
sg37
Nsg38
VFailure brings you closer to success http://t.co/InkRJhxYLf http://t.co/7UpgpjUDzJ
p1164
sg40
I00
sg41
Ven
p1165
sg43
g3
(g44
g5
Ntp1166
Rp1167
(dp1168
g10
VAlabama
p1169
sg49
V362720
p1170
sg51
Ven
p1171
sg53
VCentral Time (US & Canada)
p1172
sg55
I18
sg56
I335
sg22
VThu Dec 19 23:19:42 +0000 2013
p1173
sg58
I00
sg59
VIf you love chocolate & you want to be healthy, then I can help!  Check out my website  :)  http://t.co/w8o9RjHwYu
p1174
sg61
Vhttps://pbs.twimg.com/profile_images/417802720779595777/_dedOOrb_normal.jpeg
p1175
sg63
I50
sg64
I1
sg65
I-21600
sg66
Nsg67
I00
sg68
Vhttps://pbs.twimg.com/profile_banners/2254180586/1410555818
p1176
sg70
I00
sg71
I01
sg72
VB40B43
p1177
sg74
I00
sg75
I00
sg76
Vhttp://abs.twimg.com/images/themes/theme11/bg.gif
p1178
sg78
VShellieWhittle
p1179
sg80
I0
sg81
VShellie Whittle
p1180
sg83
VE5507E
p1181
sg85
Vhttp://t.co/IslHAmYbDI
p1182
sg87
I2254180586
sg88
VFF6699
p1183
sbsg90
I0
sg91
V<a href="http://pointclickshare.com" rel="nofollow">Point Click Share</a>
p1184
sg93
(lp1185
g3
(g95
g5
Ntp1186
Rp1187
(dp1188
g99
Vhttp://t.co/InkRJhxYLf
p1189
sg101
Vhttp://ltl.is/FfDCY
p1190
sbasg87
I538127641724084224
sbag3
(g4
g5
Ntp1191
Rp1192
(dp1193
g9
I0
sg10
Nsg11
Nsg12
(lp1194
sg14
I00
sg15
Nsg16
Nsg17
(lp1195
(dp1196
Vexpanded_url
p1197
Vhttp://twitter.com/ShellieWhittle/status/537739836564574208/photo/1
p1198
sVdisplay_url
p1199
Vpic.twitter.com/LN4vCkAvzX
p1200
sVurl
p1201
Vhttp://t.co/LN4vCkAvzX
p1202
sVmedia_url_https
p1203
Vhttps://pbs.twimg.com/media/B3ZviEDCEAEMFp4.jpg
p1204
sVid_str
p1205
V537739836510048257
p1206
sVsizes
p1207
(dp1208
Vsmall
p1209
(dp1210
Vh
p1211
I327
sVresize
p1212
Vfit
p1213
sVw
p1214
I340
ssVlarge
p1215
(dp1216
Vh
p1217
I385
sVresize
p1218
Vfit
p1219
sVw
p1220
I400
ssVmedium
p1221
(dp1222
Vh
p1223
I385
sVresize
p1224
Vfit
p1225
sVw
p1226
I400
ssVthumb
p1227
(dp1228
Vh
p1229
I150
sVresize
p1230
Vcrop
p1231
sVw
p1232
I150
sssVindices
p1233
(lp1234
I111
aI133
asVtype
p1235
Vphoto
p1236
sVid
p1237
I537739836510048257
sVmedia_url
p1238
Vhttp://pbs.twimg.com/media/B3ZviEDCEAEMFp4.jpg
p1239
sasg19
Nsg20
Nsg21
Nsg22
VWed Nov 26 22:49:02 +0000 2014
p1240
sg24
Nsg25
I00
sg26
Nsg27
Nsg28
Nsg29
Nsg30
I00
sg31
Nsg32
(lp1241
sg34
Nsg35
V537739836564574208
p1242
sg37
Nsg38
VLeave all the afternoon for exercise and recreation, which are as necessary as reading. http://t.co/ffCtPjZ8CC http://t.co/LN4vCkAvzX
p1243
sg40
I00
sg41
Ven
p1244
sg43
g3
(g44
g5
Ntp1245
Rp1246
(dp1247
g10
VAlabama
p1248
sg49
V362720
p1249
sg51
Ven
p1250
sg53
VCentral Time (US & Canada)
p1251
sg55
I18
sg56
I335
sg22
VThu Dec 19 23:19:42 +0000 2013
p1252
sg58
I00
sg59
VIf you love chocolate & you want to be healthy, then I can help!  Check out my website  :)  http://t.co/w8o9RjHwYu
p1253
sg61
Vhttps://pbs.twimg.com/profile_images/417802720779595777/_dedOOrb_normal.jpeg
p1254
sg63
I50
sg64
I1
sg65
I-21600
sg66
Nsg67
I00
sg68
Vhttps://pbs.twimg.com/profile_banners/2254180586/1410555818
p1255
sg70
I00
sg71
I01
sg72
VB40B43
p1256
sg74
I00
sg75
I00
sg76
Vhttp://abs.twimg.com/images/themes/theme11/bg.gif
p1257
sg78
VShellieWhittle
p1258
sg80
I0
sg81
VShellie Whittle
p1259
sg83
VE5507E
p1260
sg85
Vhttp://t.co/IslHAmYbDI
p1261
sg87
I2254180586
sg88
VFF6699
p1262
sbsg90
I0
sg91
V<a href="http://pointclickshare.com" rel="nofollow">Point Click Share</a>
p1263
sg93
(lp1264
g3
(g95
g5
Ntp1265
Rp1266
(dp1267
g99
Vhttp://t.co/ffCtPjZ8CC
p1268
sg101
Vhttp://ltl.is/FfDCY
p1269
sbasg87
I537739836564574208
sbag3
(g4
g5
Ntp1270
Rp1271
(dp1272
g9
I0
sg10
Nsg11
Nsg12
(lp1273
sg14
I00
sg15
Nsg16
Nsg17
(lp1274
(dp1275
Vexpanded_url
p1276
Vhttp://twitter.com/ShellieWhittle/status/537396074626154496/photo/1
p1277
sVdisplay_url
p1278
Vpic.twitter.com/VJWsLgP04d
p1279
sVurl
p1280
Vhttp://t.co/VJWsLgP04d
p1281
sVmedia_url_https
p1282
Vhttps://pbs.twimg.com/media/B3U24fDIgAErTig.jpg
p1283
sVid_str
p1284
V537396074575855617
p1285
sVsizes
p1286
(dp1287
Vlarge
p1288
(dp1289
Vh
p1290
I537
sVresize
p1291
Vfit
p1292
sVw
p1293
I1024
ssVsmall
p1294
(dp1295
Vh
p1296
I178
sVresize
p1297
Vfit
p1298
sVw
p1299
I340
ssVmedium
p1300
(dp1301
Vh
p1302
I315
sVresize
p1303
Vfit
p1304
sVw
p1305
I600
ssVthumb
p1306
(dp1307
Vh
p1308
I150
sVresize
p1309
Vcrop
p1310
sVw
p1311
I150
sssVindices
p1312
(lp1313
I89
aI111
asVtype
p1314
Vphoto
p1315
sVid
p1316
I537396074575855617
sVmedia_url
p1317
Vhttp://pbs.twimg.com/media/B3U24fDIgAErTig.jpg
p1318
sasg19
Nsg20
Nsg21
Nsg22
VWed Nov 26 00:03:03 +0000 2014
p1319
sg24
Nsg25
I00
sg26
Nsg27
Nsg28
Nsg29
Nsg30
I00
sg31
Nsg32
(lp1320
sg34
Nsg35
V537396074626154496
p1321
sg37
Nsg38
VWhat could that extra money do for you? Click here to learn more! http://t.co/ryplAXTd9U http://t.co/VJWsLgP04d
p1322
sg40
I00
sg41
Ven
p1323
sg43
g3
(g44
g5
Ntp1324
Rp1325
(dp1326
g10
VAlabama
p1327
sg49
V362720
p1328
sg51
Ven
p1329
sg53
VCentral Time (US & Canada)
p1330
sg55
I18
sg56
I335
sg22
VThu Dec 19 23:19:42 +0000 2013
p1331
sg58
I00
sg59
VIf you love chocolate & you want to be healthy, then I can help!  Check out my website  :)  http://t.co/w8o9RjHwYu
p1332
sg61
Vhttps://pbs.twimg.com/profile_images/417802720779595777/_dedOOrb_normal.jpeg
p1333
sg63
I50
sg64
I1
sg65
I-21600
sg66
Nsg67
I00
sg68
Vhttps://pbs.twimg.com/profile_banners/2254180586/1410555818
p1334
sg70
I00
sg71
I01
sg72
VB40B43
p1335
sg74
I00
sg75
I00
sg76
Vhttp://abs.twimg.com/images/themes/theme11/bg.gif
p1336
sg78
VShellieWhittle
p1337
sg80
I0
sg81
VShellie Whittle
p1338
sg83
VE5507E
p1339
sg85
Vhttp://t.co/IslHAmYbDI
p1340
sg87
I2254180586
sg88
VFF6699
p1341
sbsg90
I0
sg91
V<a href="http://pointclickshare.com" rel="nofollow">Point Click Share</a>
p1342
sg93
(lp1343
g3
(g95
g5
Ntp1344
Rp1345
(dp1346
g99
Vhttp://t.co/ryplAXTd9U
p1347
sg101
Vhttp://ltl.is/Cj6Io
p1348
sbasg87
I537396074626154496
sbag3
(g4
g5
Ntp1349
Rp1350
(dp1351
g9
I0
sg10
Nsg11
Nsg12
(lp1352
sg14
I00
sg15
Nsg16
Nsg17
(lp1353
(dp1354
Vexpanded_url
p1355
Vhttp://twitter.com/ShellieWhittle/status/536592526824968193/photo/1
p1356
sVdisplay_url
p1357
Vpic.twitter.com/8qz6mJGVt5
p1358
sVurl
p1359
Vhttp://t.co/8qz6mJGVt5
p1360
sVmedia_url_https
p1361
Vhttps://pbs.twimg.com/media/B3JcD16IEAA5WU5.jpg
p1362
sVid_str
p1363
V536592526690750464
p1364
sVsizes
p1365
(dp1366
Vlarge
p1367
(dp1368
Vh
p1369
I537
sVresize
p1370
Vfit
p1371
sVw
p1372
I1024
ssVsmall
p1373
(dp1374
Vh
p1375
I178
sVresize
p1376
Vfit
p1377
sVw
p1378
I340
ssVmedium
p1379
(dp1380
Vh
p1381
I315
sVresize
p1382
Vfit
p1383
sVw
p1384
I600
ssVthumb
p1385
(dp1386
Vh
p1387
I150
sVresize
p1388
Vcrop
p1389
sVw
p1390
I150
sssVindices
p1391
(lp1392
I34
aI56
asVtype
p1393
Vphoto
p1394
sVid
p1395
I536592526690750464
sVmedia_url
p1396
Vhttp://pbs.twimg.com/media/B3JcD16IEAA5WU5.jpg
p1397
sasg19
Nsg20
Nsg21
Nsg22
VSun Nov 23 18:50:02 +0000 2014
p1398
sg24
Nsg25
I00
sg26
Nsg27
Nsg28
Nsg29
Nsg30
I00
sg31
Nsg32
(lp1399
sg34
Nsg35
V536592526824968193
p1400
sg37
Nsg38
VDelicious! http://t.co/InkRJhxYLf http://t.co/8qz6mJGVt5
p1401
sg40
I00
sg41
Ven
p1402
sg43
g3
(g44
g5
Ntp1403
Rp1404
(dp1405
g10
VAlabama
p1406
sg49
V362720
p1407
sg51
Ven
p1408
sg53
VCentral Time (US & Canada)
p1409
sg55
I18
sg56
I335
sg22
VThu Dec 19 23:19:42 +0000 2013
p1410
sg58
I00
sg59
VIf you love chocolate & you want to be healthy, then I can help!  Check out my website  :)  http://t.co/w8o9RjHwYu
p1411
sg61
Vhttps://pbs.twimg.com/profile_images/417802720779595777/_dedOOrb_normal.jpeg
p1412
sg63
I50
sg64
I1
sg65
I-21600
sg66
Nsg67
I00
sg68
Vhttps://pbs.twimg.com/profile_banners/2254180586/1410555818
p1413
sg70
I00
sg71
I01
sg72
VB40B43
p1414
sg74
I00
sg75
I00
sg76
Vhttp://abs.twimg.com/images/themes/theme11/bg.gif
p1415
sg78
VShellieWhittle
p1416
sg80
I0
sg81
VShellie Whittle
p1417
sg83
VE5507E
p1418
sg85
Vhttp://t.co/IslHAmYbDI
p1419
sg87
I2254180586
sg88
VFF6699
p1420
sbsg90
I0
sg91
V<a href="http://pointclickshare.com" rel="nofollow">Point Click Share</a>
p1421
sg93
(lp1422
g3
(g95
g5
Ntp1423
Rp1424
(dp1425
g99
Vhttp://t.co/InkRJhxYLf
p1426
sg101
Vhttp://ltl.is/FfDCY
p1427
sbasg87
I536592526824968193
sbaa.