(lp0
S'lesaann98'
p1
a(lp2
ccopy_reg
_reconstructor
p3
(ctwitter.status
Status
p4
c__builtin__
object
p5
Ntp6
Rp7
(dp8
S'_favorite_count'
p9
I1
sS'_location'
p10
NsS'_withheld_scope'
p11
NsS'hashtags'
p12
(lp13
sS'_truncated'
p14
I00
sS'_retweeted_status'
p15
NsS'_withheld_copyright'
p16
NsS'media'
p17
(lp18
sS'_place'
p19
(dp20
Vfull_name
p21
VWest Virginia, US
p22
sVurl
p23
Vhttps://api.twitter.com/1.1/geo/id/2d83c71ce16cd187.json
p24
sVcountry
p25
VUnited States
p26
sVplace_type
p27
Vadmin
p28
sVbounding_box
p29
(dp30
Vtype
p31
VPolygon
p32
sVcoordinates
p33
(lp34
(lp35
(lp36
F-82.644739
aF37.201483
aa(lp37
F-77.718935
aF37.201483
aa(lp38
F-77.718935
aF40.638802
aa(lp39
F-82.644739
aF40.638802
aaassVcontained_within
p40
(lp41
sVcountry_code
p42
VUS
p43
sVattributes
p44
(dp45
sVid
p46
V2d83c71ce16cd187
p47
sVname
p48
VWest Virginia
p49
ssS'_contributors'
p50
NsS'_current_user_retweet'
p51
NsS'_created_at'
p52
VSun Dec 14 19:36:09 +0000 2014
p53
sS'_scopes'
p54
NsS'_possibly_sensitive'
p55
NsS'_in_reply_to_screen_name'
p56
VCraziMomOf2Boys
p57
sS'_coordinates'
p58
NsS'_in_reply_to_user_id'
p59
I607363619
sS'_geo'
p60
NsS'_favorited'
p61
I00
sS'_withheld_in_countries'
p62
NsS'user_mentions'
p63
(lp64
g3
(ctwitter.user
User
p65
g5
Ntp66
Rp67
(dp68
g10
NsS'_profile_text_color'
p69
NsS'_lang'
p70
NsS'_time_zone'
p71
NsS'_followers_count'
p72
NsS'_statuses_count'
p73
Nsg52
NsS'_verified'
p74
NsS'_description'
p75
NsS'_profile_image_url'
p76
NsS'_friends_count'
p77
NsS'_favourites_count'
p78
NsS'_utc_offset'
p79
NsS'_status'
p80
NsS'_protected'
p81
NsS'_profile_banner_url'
p82
NsS'_notifications'
p83
NsS'_profile_background_tile'
p84
NsS'_profile_link_color'
p85
NsS'_geo_enabled'
p86
NsS'_contributors_enabled'
p87
NsS'_profile_background_image_url'
p88
NsS'_screen_name'
p89
VCraziMomOf2Boys
p90
sS'_listed_count'
p91
NsS'_name'
p92
VTiffany Anne
p93
sS'_profile_sidebar_fill_color'
p94
NsS'_url'
p95
NsS'_id'
p96
I607363619
sS'_profile_background_color'
p97
Nsbag3
(g65
g5
Ntp98
Rp99
(dp100
g10
Nsg69
Nsg70
Nsg71
Nsg72
Nsg73
Nsg52
Nsg74
Nsg75
Nsg76
Nsg77
Nsg78
Nsg79
Nsg80
Nsg81
Nsg82
Nsg83
Nsg84
Nsg85
Nsg86
Nsg87
Nsg88
Nsg89
Vallsweaty
p101
sg91
Nsg92
V\u2620all sweaty\u2620
p102
sg94
Nsg95
Nsg96
I91283750
sg97
Nsbag3
(g65
g5
Ntp103
Rp104
(dp105
g10
Nsg69
Nsg70
Nsg71
Nsg72
Nsg73
Nsg52
Nsg74
Nsg75
Nsg76
Nsg77
Nsg78
Nsg79
Nsg80
Nsg81
Nsg82
Nsg83
Nsg84
Nsg85
Nsg86
Nsg87
Nsg88
Nsg89
Vdeebenn87
p106
sg91
Nsg92
VDanielle Bennett
p107
sg94
Nsg95
Nsg96
I2749721508
sg97
NsbasS'_now'
p108
NsS'_id_str'
p109
NsS'_in_reply_to_status_id'
p110
I544213965585125377
sS'_text'
p111
V@CraziMomOf2Boys @allsweaty @deebenn87 I am going to have to make the recipe up myself so they might not be lol
p112
sS'_retweeted'
p113
I00
sS'lang'
p114
Ven
p115
sS'_user'
p116
g3
(g65
g5
Ntp117
Rp118
(dp119
g10
VHacker Valley, WV
p120
sg69
V3D1957
p121
sg70
Ven
p122
sg71
VEastern Time (US & Canada)
p123
sg72
I1972
sg73
I116504
sg52
VTue Mar 19 04:40:04 +0000 2013
p124
sg74
I00
sg75
V
p125
sg76
Vhttps://pbs.twimg.com/profile_images/511724176546074625/Ndh7zDIk_normal.jpeg
p126
sg77
I2127
sg78
I58747
sg79
I-18000
sg80
Nsg81
I00
sg82
Vhttps://pbs.twimg.com/profile_banners/1279517976/1411130517
p127
sg83
I00
sg84
I01
sg85
V5E4155
p128
sg86
I01
sg87
I00
sg88
Vhttp://abs.twimg.com/images/themes/theme10/bg.gif
p129
sg89
Vlesaann98
p130
sg91
I39
sg92
VLesa Moats
p131
sg94
V7AC3EE
p132
sg95
Nsg96
I1279517976
sg97
V642D8B
p133
sbsS'_retweet_count'
p134
I0
sS'_source'
p135
V<a href="http://twitter.com" rel="nofollow">Twitter Web Client</a>
p136
sS'urls'
p137
(lp138
sg96
I544214278333427712
sbag3
(g4
g5
Ntp139
Rp140
(dp141
g9
I1
sg10
Nsg11
Nsg12
(lp142
sg14
I00
sg15
Nsg16
Nsg17
(lp143
sg19
(dp144
Vfull_name
p145
VWest Virginia, US
p146
sVurl
p147
Vhttps://api.twitter.com/1.1/geo/id/2d83c71ce16cd187.json
p148
sVcountry
p149
VUnited States
p150
sVplace_type
p151
Vadmin
p152
sVbounding_box
p153
(dp154
Vtype
p155
VPolygon
p156
sVcoordinates
p157
(lp158
(lp159
(lp160
F-82.644739
aF37.201483
aa(lp161
F-77.718935
aF37.201483
aa(lp162
F-77.718935
aF40.638802
aa(lp163
F-82.644739
aF40.638802
aaassVcontained_within
p164
(lp165
sVcountry_code
p166
VUS
p167
sVattributes
p168
(dp169
sVid
p170
V2d83c71ce16cd187
p171
sVname
p172
VWest Virginia
p173
ssg50
Nsg51
Nsg52
VSun Dec 14 19:34:31 +0000 2014
p174
sg54
Nsg55
Nsg56
Vallsweaty
p175
sg58
Nsg59
I91283750
sg60
Nsg61
I00
sg62
Nsg63
(lp176
g3
(g65
g5
Ntp177
Rp178
(dp179
g10
Nsg69
Nsg70
Nsg71
Nsg72
Nsg73
Nsg52
Nsg74
Nsg75
Nsg76
Nsg77
Nsg78
Nsg79
Nsg80
Nsg81
Nsg82
Nsg83
Nsg84
Nsg85
Nsg86
Nsg87
Nsg88
Nsg89
Vallsweaty
p180
sg91
Nsg92
V\u2620all sweaty\u2620
p181
sg94
Nsg95
Nsg96
I91283750
sg97
Nsbag3
(g65
g5
Ntp182
Rp183
(dp184
g10
Nsg69
Nsg70
Nsg71
Nsg72
Nsg73
Nsg52
Nsg74
Nsg75
Nsg76
Nsg77
Nsg78
Nsg79
Nsg80
Nsg81
Nsg82
Nsg83
Nsg84
Nsg85
Nsg86
Nsg87
Nsg88
Nsg89
VCraziMomOf2Boys
p185
sg91
Nsg92
VTiffany Anne
p186
sg94
Nsg95
Nsg96
I607363619
sg97
Nsbag3
(g65
g5
Ntp187
Rp188
(dp189
g10
Nsg69
Nsg70
Nsg71
Nsg72
Nsg73
Nsg52
Nsg74
Nsg75
Nsg76
Nsg77
Nsg78
Nsg79
Nsg80
Nsg81
Nsg82
Nsg83
Nsg84
Nsg85
Nsg86
Nsg87
Nsg88
Nsg89
Vdeebenn87
p190
sg91
Nsg92
VDanielle Bennett
p191
sg94
Nsg95
Nsg96
I2749721508
sg97
Nsbasg108
Nsg109
Nsg110
I544213620054179840
sg111
V@allsweaty @CraziMomOf2Boys @deebenn87 I haven't made them before so will try them to see what they turn out like first
p192
sg113
I00
sg114
Ven
p193
sg116
g3
(g65
g5
Ntp194
Rp195
(dp196
g10
VHacker Valley, WV
p197
sg69
V3D1957
p198
sg70
Ven
p199
sg71
VEastern Time (US & Canada)
p200
sg72
I1972
sg73
I116504
sg52
VTue Mar 19 04:40:04 +0000 2013
p201
sg74
I00
sg75
g125
sg76
Vhttps://pbs.twimg.com/profile_images/511724176546074625/Ndh7zDIk_normal.jpeg
p202
sg77
I2127
sg78
I58747
sg79
I-18000
sg80
Nsg81
I00
sg82
Vhttps://pbs.twimg.com/profile_banners/1279517976/1411130517
p203
sg83
I00
sg84
I01
sg85
V5E4155
p204
sg86
I01
sg87
I00
sg88
Vhttp://abs.twimg.com/images/themes/theme10/bg.gif
p205
sg89
Vlesaann98
p206
sg91
I39
sg92
VLesa Moats
p207
sg94
V7AC3EE
p208
sg95
Nsg96
I1279517976
sg97
V642D8B
p209
sbsg134
I0
sg135
V<a href="http://twitter.com" rel="nofollow">Twitter Web Client</a>
p210
sg137
(lp211
sg96
I544213864942817281
sbag3
(g4
g5
Ntp212
Rp213
(dp214
g9
I0
sg10
Nsg11
Nsg12
(lp215
sg14
I00
sg15
g3
(g4
g5
Ntp216
Rp217
(dp218
g9
I3
sg10
Nsg11
Nsg12
(lp219
sg14
I00
sg15
Nsg16
Nsg17
(lp220
(dp221
Vexpanded_url
p222
Vhttp://twitter.com/BellaLife/status/544213415925776384/photo/1
p223
sVdisplay_url
p224
Vpic.twitter.com/EnVzW5N0Sb
p225
sVurl
p226
Vhttp://t.co/EnVzW5N0Sb
p227
sVmedia_url_https
p228
Vhttps://pbs.twimg.com/media/B41vNviCUAEuHIc.jpg
p229
sVid_str
p230
V544213411869904897
p231
sVsizes
p232
(dp233
Vlarge
p234
(dp235
Vh
p236
I1000
sVresize
p237
Vfit
p238
sVw
p239
I1000
ssVsmall
p240
(dp241
Vh
p242
I340
sVresize
p243
Vfit
p244
sVw
p245
I340
ssVmedium
p246
(dp247
Vh
p248
I600
sVresize
p249
Vfit
p250
sVw
p251
I600
ssVthumb
p252
(dp253
Vh
p254
I150
sVresize
p255
Vcrop
p256
sVw
p257
I150
sssVindices
p258
(lp259
I114
aI136
asVtype
p260
Vphoto
p261
sVid
p262
I544213411869904897
sVmedia_url
p263
Vhttp://pbs.twimg.com/media/B41vNviCUAEuHIc.jpg
p264
sasg19
Nsg50
Nsg51
Nsg52
VSun Dec 14 19:32:44 +0000 2014
p265
sg54
Nsg55
I00
sg56
Nsg58
Nsg59
Nsg60
Nsg61
I00
sg62
Nsg63
(lp266
sg108
Nsg109
Nsg110
Nsg111
VDay #14: SPOTLIGHT\u000aOur Collection Slow Cookers bring style &amp; color to your countertop. http://t.co/W53ifxivcy http://t.co/EnVzW5N0Sb
p267
sg113
I00
sg114
Ven
p268
sg116
g3
(g65
g5
Ntp269
Rp270
(dp271
g10
VKitchens Across America
p272
sg69
V333333
p273
sg70
Ven
p274
sg71
VEastern Time (US & Canada)
p275
sg72
I16361
sg73
I2647
sg52
VThu Dec 15 14:39:47 +0000 2011
p276
sg74
I01
sg75
VGenuine. Playful. Social. Bold. This is what makes a BELLA product uniquely BELLA. We want the kitchen to be fun. With BELLA, it can be. #myBELLAlife
p277
sg76
Vhttps://pbs.twimg.com/profile_images/460844735645491200/ZfG25Brd_normal.png
p278
sg77
I671
sg78
I2962
sg79
I-18000
sg80
Nsg81
I00
sg82
Vhttps://pbs.twimg.com/profile_banners/437534877/1417370365
p279
sg83
I00
sg84
I01
sg85
V42BCCC
p280
sg86
I00
sg87
I00
sg88
Vhttp://pbs.twimg.com/profile_background_images/539905376309612545/PwS2vLWV.png
p281
sg89
VBellaLife
p282
sg91
I51
sg92
VBELLA
p283
sg94
VDDEEF6
p284
sg95
Vhttp://t.co/DIcI73bt6u
p285
sg96
I437534877
sg97
VFFCC4D
p286
sbsg134
I9
sg135
V<a href="http://twitter.com" rel="nofollow">Twitter Web Client</a>
p287
sg137
(lp288
g3
(ctwitter.url
Url
p289
g5
Ntp290
Rp291
(dp292
S'url'
p293
Vhttp://t.co/W53ifxivcy
p294
sS'expanded_url'
p295
Vhttp://bellahouse.co/1BDFBSU
p296
sbasg96
I544213415925776384
sbsg16
Nsg17
(lp297
(dp298
Vsource_user_id
p299
I437534877
sVsource_status_id_str
p300
V544213415925776384
p301
sVexpanded_url
p302
Vhttp://twitter.com/BellaLife/status/544213415925776384/photo/1
p303
sVdisplay_url
p304
Vpic.twitter.com/EnVzW5N0Sb
p305
sVurl
p306
Vhttp://t.co/EnVzW5N0Sb
p307
sVmedia_url_https
p308
Vhttps://pbs.twimg.com/media/B41vNviCUAEuHIc.jpg
p309
sVsource_user_id_str
p310
V437534877
p311
sVsource_status_id
p312
I544213415925776384
sVid_str
p313
V544213411869904897
p314
sVsizes
p315
(dp316
Vlarge
p317
(dp318
Vh
p319
I1000
sVresize
p320
Vfit
p321
sVw
p322
I1000
ssVsmall
p323
(dp324
Vh
p325
I340
sVresize
p326
Vfit
p327
sVw
p328
I340
ssVmedium
p329
(dp330
Vh
p331
I600
sVresize
p332
Vfit
p333
sVw
p334
I600
ssVthumb
p335
(dp336
Vh
p337
I150
sVresize
p338
Vcrop
p339
sVw
p340
I150
sssVindices
p341
(lp342
I143
aI144
asVtype
p343
Vphoto
p344
sVid
p345
I544213411869904897
sVmedia_url
p346
Vhttp://pbs.twimg.com/media/B41vNviCUAEuHIc.jpg
p347
sasg19
Nsg50
Nsg51
Nsg52
VSun Dec 14 19:33:06 +0000 2014
p348
sg54
Nsg55
I00
sg56
Nsg58
Nsg59
Nsg60
Nsg61
I00
sg62
Nsg63
(lp349
g3
(g65
g5
Ntp350
Rp351
(dp352
g10
Nsg69
Nsg70
Nsg71
Nsg72
Nsg73
Nsg52
Nsg74
Nsg75
Nsg76
Nsg77
Nsg78
Nsg79
Nsg80
Nsg81
Nsg82
Nsg83
Nsg84
Nsg85
Nsg86
Nsg87
Nsg88
Nsg89
VBellaLife
p353
sg91
Nsg92
VBELLA
p354
sg94
Nsg95
Nsg96
I437534877
sg97
Nsbasg108
Nsg109
Nsg110
Nsg111
VRT @BellaLife: Day #14: SPOTLIGHT\u000aOur Collection Slow Cookers bring style &amp; color to your countertop. http://t.co/W53ifxivcy http://t.co/En\u2026
p355
sg113
I00
sg114
Ven
p356
sg116
g3
(g65
g5
Ntp357
Rp358
(dp359
g10
VHacker Valley, WV
p360
sg69
V3D1957
p361
sg70
Ven
p362
sg71
VEastern Time (US & Canada)
p363
sg72
I1972
sg73
I116504
sg52
VTue Mar 19 04:40:04 +0000 2013
p364
sg74
I00
sg75
g125
sg76
Vhttps://pbs.twimg.com/profile_images/511724176546074625/Ndh7zDIk_normal.jpeg
p365
sg77
I2127
sg78
I58747
sg79
I-18000
sg80
Nsg81
I00
sg82
Vhttps://pbs.twimg.com/profile_banners/1279517976/1411130517
p366
sg83
I00
sg84
I01
sg85
V5E4155
p367
sg86
I01
sg87
I00
sg88
Vhttp://abs.twimg.com/images/themes/theme10/bg.gif
p368
sg89
Vlesaann98
p369
sg91
I39
sg92
VLesa Moats
p370
sg94
V7AC3EE
p371
sg95
Nsg96
I1279517976
sg97
V642D8B
p372
sbsg134
I9
sg135
V<a href="http://twitter.com" rel="nofollow">Twitter Web Client</a>
p373
sg137
(lp374
g3
(g289
g5
Ntp375
Rp376
(dp377
g293
Vhttp://t.co/W53ifxivcy
p378
sg295
Vhttp://bellahouse.co/1BDFBSU
p379
sbasg96
I544213509811085313
sbag3
(g4
g5
Ntp380
Rp381
(dp382
g9
I1
sg10
Nsg11
Nsg12
(lp383
sg14
I00
sg15
Nsg16
Nsg17
(lp384
sg19
(dp385
Vfull_name
p386
VWest Virginia, US
p387
sVurl
p388
Vhttps://api.twitter.com/1.1/geo/id/2d83c71ce16cd187.json
p389
sVcountry
p390
VUnited States
p391
sVplace_type
p392
Vadmin
p393
sVbounding_box
p394
(dp395
Vtype
p396
VPolygon
p397
sVcoordinates
p398
(lp399
(lp400
(lp401
F-82.644739
aF37.201483
aa(lp402
F-77.718935
aF37.201483
aa(lp403
F-77.718935
aF40.638802
aa(lp404
F-82.644739
aF40.638802
aaassVcontained_within
p405
(lp406
sVcountry_code
p407
VUS
p408
sVattributes
p409
(dp410
sVid
p411
V2d83c71ce16cd187
p412
sVname
p413
VWest Virginia
p414
ssg50
Nsg51
Nsg52
VSun Dec 14 19:31:38 +0000 2014
p415
sg54
Nsg55
Nsg56
Vallsweaty
p416
sg58
Nsg59
I91283750
sg60
Nsg61
I00
sg62
Nsg63
(lp417
g3
(g65
g5
Ntp418
Rp419
(dp420
g10
Nsg69
Nsg70
Nsg71
Nsg72
Nsg73
Nsg52
Nsg74
Nsg75
Nsg76
Nsg77
Nsg78
Nsg79
Nsg80
Nsg81
Nsg82
Nsg83
Nsg84
Nsg85
Nsg86
Nsg87
Nsg88
Nsg89
Vallsweaty
p421
sg91
Nsg92
V\u2620all sweaty\u2620
p422
sg94
Nsg95
Nsg96
I91283750
sg97
Nsbag3
(g65
g5
Ntp423
Rp424
(dp425
g10
Nsg69
Nsg70
Nsg71
Nsg72
Nsg73
Nsg52
Nsg74
Nsg75
Nsg76
Nsg77
Nsg78
Nsg79
Nsg80
Nsg81
Nsg82
Nsg83
Nsg84
Nsg85
Nsg86
Nsg87
Nsg88
Nsg89
VCraziMomOf2Boys
p426
sg91
Nsg92
VTiffany Anne
p427
sg94
Nsg95
Nsg96
I607363619
sg97
Nsbag3
(g65
g5
Ntp428
Rp429
(dp430
g10
Nsg69
Nsg70
Nsg71
Nsg72
Nsg73
Nsg52
Nsg74
Nsg75
Nsg76
Nsg77
Nsg78
Nsg79
Nsg80
Nsg81
Nsg82
Nsg83
Nsg84
Nsg85
Nsg86
Nsg87
Nsg88
Nsg89
Vdeebenn87
p431
sg91
Nsg92
VDanielle Bennett
p432
sg94
Nsg95
Nsg96
I2749721508
sg97
Nsbasg108
Nsg109
Nsg110
I544211880705667072
sg111
V@allsweaty @CraziMomOf2Boys @deebenn87 If I could send you a blueberry roll I would but it has cream cheese &amp; has to be refrigerated
p433
sg113
I00
sg114
Ven
p434
sg116
g3
(g65
g5
Ntp435
Rp436
(dp437
g10
VHacker Valley, WV
p438
sg69
V3D1957
p439
sg70
Ven
p440
sg71
VEastern Time (US & Canada)
p441
sg72
I1972
sg73
I116504
sg52
VTue Mar 19 04:40:04 +0000 2013
p442
sg74
I00
sg75
g125
sg76
Vhttps://pbs.twimg.com/profile_images/511724176546074625/Ndh7zDIk_normal.jpeg
p443
sg77
I2127
sg78
I58747
sg79
I-18000
sg80
Nsg81
I00
sg82
Vhttps://pbs.twimg.com/profile_banners/1279517976/1411130517
p444
sg83
I00
sg84
I01
sg85
V5E4155
p445
sg86
I01
sg87
I00
sg88
Vhttp://abs.twimg.com/images/themes/theme10/bg.gif
p446
sg89
Vlesaann98
p447
sg91
I39
sg92
VLesa Moats
p448
sg94
V7AC3EE
p449
sg95
Nsg96
I1279517976
sg97
V642D8B
p450
sbsg134
I0
sg135
V<a href="http://twitter.com" rel="nofollow">Twitter Web Client</a>
p451
sg137
(lp452
sg96
I544213141454725120
sbag3
(g4
g5
Ntp453
Rp454
(dp455
g9
I1
sg10
Nsg11
Nsg12
(lp456
sg14
I00
sg15
Nsg16
Nsg17
(lp457
sg19
(dp458
Vfull_name
p459
VWest Virginia, US
p460
sVurl
p461
Vhttps://api.twitter.com/1.1/geo/id/2d83c71ce16cd187.json
p462
sVcountry
p463
VUnited States
p464
sVplace_type
p465
Vadmin
p466
sVbounding_box
p467
(dp468
Vtype
p469
VPolygon
p470
sVcoordinates
p471
(lp472
(lp473
(lp474
F-82.644739
aF37.201483
aa(lp475
F-77.718935
aF37.201483
aa(lp476
F-77.718935
aF40.638802
aa(lp477
F-82.644739
aF40.638802
aaassVcontained_within
p478
(lp479
sVcountry_code
p480
VUS
p481
sVattributes
p482
(dp483
sVid
p484
V2d83c71ce16cd187
p485
sVname
p486
VWest Virginia
p487
ssg50
Nsg51
Nsg52
VSun Dec 14 19:30:57 +0000 2014
p488
sg54
Nsg55
Nsg56
VCraziMomOf2Boys
p489
sg58
Nsg59
I607363619
sg60
Nsg61
I00
sg62
Nsg63
(lp490
g3
(g65
g5
Ntp491
Rp492
(dp493
g10
Nsg69
Nsg70
Nsg71
Nsg72
Nsg73
Nsg52
Nsg74
Nsg75
Nsg76
Nsg77
Nsg78
Nsg79
Nsg80
Nsg81
Nsg82
Nsg83
Nsg84
Nsg85
Nsg86
Nsg87
Nsg88
Nsg89
VCraziMomOf2Boys
p494
sg91
Nsg92
VTiffany Anne
p495
sg94
Nsg95
Nsg96
I607363619
sg97
Nsbag3
(g65
g5
Ntp496
Rp497
(dp498
g10
Nsg69
Nsg70
Nsg71
Nsg72
Nsg73
Nsg52
Nsg74
Nsg75
Nsg76
Nsg77
Nsg78
Nsg79
Nsg80
Nsg81
Nsg82
Nsg83
Nsg84
Nsg85
Nsg86
Nsg87
Nsg88
Nsg89
Vallsweaty
p499
sg91
Nsg92
V\u2620all sweaty\u2620
p500
sg94
Nsg95
Nsg96
I91283750
sg97
Nsbag3
(g65
g5
Ntp501
Rp502
(dp503
g10
Nsg69
Nsg70
Nsg71
Nsg72
Nsg73
Nsg52
Nsg74
Nsg75
Nsg76
Nsg77
Nsg78
Nsg79
Nsg80
Nsg81
Nsg82
Nsg83
Nsg84
Nsg85
Nsg86
Nsg87
Nsg88
Nsg89
Vdeebenn87
p504
sg91
Nsg92
VDanielle Bennett
p505
sg94
Nsg95
Nsg96
I2749721508
sg97
Nsbasg108
Nsg109
Nsg110
I544211893494091776
sg111
V@CraziMomOf2Boys @allsweaty @deebenn87 I don't make toffee lol
p506
sg113
I00
sg114
Ven
p507
sg116
g3
(g65
g5
Ntp508
Rp509
(dp510
g10
VHacker Valley, WV
p511
sg69
V3D1957
p512
sg70
Ven
p513
sg71
VEastern Time (US & Canada)
p514
sg72
I1972
sg73
I116504
sg52
VTue Mar 19 04:40:04 +0000 2013
p515
sg74
I00
sg75
g125
sg76
Vhttps://pbs.twimg.com/profile_images/511724176546074625/Ndh7zDIk_normal.jpeg
p516
sg77
I2127
sg78
I58747
sg79
I-18000
sg80
Nsg81
I00
sg82
Vhttps://pbs.twimg.com/profile_banners/1279517976/1411130517
p517
sg83
I00
sg84
I01
sg85
V5E4155
p518
sg86
I01
sg87
I00
sg88
Vhttp://abs.twimg.com/images/themes/theme10/bg.gif
p519
sg89
Vlesaann98
p520
sg91
I39
sg92
VLesa Moats
p521
sg94
V7AC3EE
p522
sg95
Nsg96
I1279517976
sg97
V642D8B
p523
sbsg134
I0
sg135
V<a href="http://twitter.com" rel="nofollow">Twitter Web Client</a>
p524
sg137
(lp525
sg96
I544212969769275392
sbag3
(g4
g5
Ntp526
Rp527
(dp528
g9
I0
sg10
Nsg11
Nsg12
(lp529
g3
(ctwitter.hashtag
Hashtag
p530
g5
Ntp531
Rp532
(dp533
S'text'
p534
VColourInvasion
p535
sbasg14
I00
sg15
Nsg16
Nsg17
(lp536
sg19
(dp537
Vfull_name
p538
VWest Virginia, US
p539
sVurl
p540
Vhttps://api.twitter.com/1.1/geo/id/2d83c71ce16cd187.json
p541
sVcountry
p542
VUnited States
p543
sVplace_type
p544
Vadmin
p545
sVbounding_box
p546
(dp547
Vtype
p548
VPolygon
p549
sVcoordinates
p550
(lp551
(lp552
(lp553
F-82.644739
aF37.201483
aa(lp554
F-77.718935
aF37.201483
aa(lp555
F-77.718935
aF40.638802
aa(lp556
F-82.644739
aF40.638802
aaassVcontained_within
p557
(lp558
sVcountry_code
p559
VUS
p560
sVattributes
p561
(dp562
sVid
p563
V2d83c71ce16cd187
p564
sVname
p565
VWest Virginia
p566
ssg50
Nsg51
Nsg52
VSun Dec 14 19:29:56 +0000 2014
p567
sg54
Nsg55
Nsg56
VCPWTweets
p568
sg58
Nsg59
I17833933
sg60
Nsg61
I00
sg62
Nsg63
(lp569
g3
(g65
g5
Ntp570
Rp571
(dp572
g10
Nsg69
Nsg70
Nsg71
Nsg72
Nsg73
Nsg52
Nsg74
Nsg75
Nsg76
Nsg77
Nsg78
Nsg79
Nsg80
Nsg81
Nsg82
Nsg83
Nsg84
Nsg85
Nsg86
Nsg87
Nsg88
Nsg89
VCPWTweets
p573
sg91
Nsg92
VCarphone Warehouse
p574
sg94
Nsg95
Nsg96
I17833933
sg97
Nsbasg108
Nsg109
Nsg110
I544212078601699329
sg111
V@CPWTweets A. Blue  #ColourInvasion
p575
sg113
I00
sg114
Ven
p576
sg116
g3
(g65
g5
Ntp577
Rp578
(dp579
g10
VHacker Valley, WV
p580
sg69
V3D1957
p581
sg70
Ven
p582
sg71
VEastern Time (US & Canada)
p583
sg72
I1972
sg73
I116504
sg52
VTue Mar 19 04:40:04 +0000 2013
p584
sg74
I00
sg75
g125
sg76
Vhttps://pbs.twimg.com/profile_images/511724176546074625/Ndh7zDIk_normal.jpeg
p585
sg77
I2127
sg78
I58747
sg79
I-18000
sg80
Nsg81
I00
sg82
Vhttps://pbs.twimg.com/profile_banners/1279517976/1411130517
p586
sg83
I00
sg84
I01
sg85
V5E4155
p587
sg86
I01
sg87
I00
sg88
Vhttp://abs.twimg.com/images/themes/theme10/bg.gif
p588
sg89
Vlesaann98
p589
sg91
I39
sg92
VLesa Moats
p590
sg94
V7AC3EE
p591
sg95
Nsg96
I1279517976
sg97
V642D8B
p592
sbsg134
I0
sg135
V<a href="http://twitter.com" rel="nofollow">Twitter Web Client</a>
p593
sg137
(lp594
sg96
I544212711446286336
sbag3
(g4
g5
Ntp595
Rp596
(dp597
g9
I0
sg10
Nsg11
Nsg12
(lp598
g3
(g530
g5
Ntp599
Rp600
(dp601
g534
VColourInvasion
p602
sbasg14
I00
sg15
g3
(g4
g5
Ntp603
Rp604
(dp605
g9
I69
sg10
Nsg11
Nsg12
(lp606
g3
(g530
g5
Ntp607
Rp608
(dp609
g534
VColourInvasion
p610
sbasg14
I00
sg15
Nsg16
Nsg17
(lp611
(dp612
Vexpanded_url
p613
Vhttp://twitter.com/CPWTweets/status/544088233559482368/photo/1
p614
sVdisplay_url
p615
Vpic.twitter.com/MdjwDxPZjM
p616
sVurl
p617
Vhttp://t.co/MdjwDxPZjM
p618
sVmedia_url_https
p619
Vhttps://pbs.twimg.com/media/B4z9XVcIMAAPweo.png
p620
sVid_str
p621
V544088232338927616
p622
sVsizes
p623
(dp624
Vsmall
p625
(dp626
Vh
p627
I179
sVresize
p628
Vfit
p629
sVw
p630
I340
ssVlarge
p631
(dp632
Vh
p633
I403
sVresize
p634
Vfit
p635
sVw
p636
I763
ssVmedium
p637
(dp638
Vh
p639
I316
sVresize
p640
Vfit
p641
sVw
p642
I600
ssVthumb
p643
(dp644
Vh
p645
I150
sVresize
p646
Vcrop
p647
sVw
p648
I150
sssVindices
p649
(lp650
I114
aI136
asVtype
p651
Vphoto
p652
sVid
p653
I544088232338927616
sVmedia_url
p654
Vhttp://pbs.twimg.com/media/B4z9XVcIMAAPweo.png
p655
sasg19
Nsg50
Nsg51
Nsg52
VSun Dec 14 11:15:18 +0000 2014
p656
sg54
Nsg55
I00
sg56
Nsg58
Nsg59
Nsg60
Nsg61
I00
sg62
Nsg63
(lp657
sg108
Nsg109
Nsg110
Nsg111
VUse or RT the hashtag #ColourInvasion for a chance to win a Nexus 6 and a Harley-Davidson! http://t.co/9R9ypDZUOv http://t.co/MdjwDxPZjM
p658
sg113
I00
sg114
Ven
p659
sg116
g3
(g65
g5
Ntp660
Rp661
(dp662
g10
VNorth Acton, England
p663
sg69
V333333
p664
sg70
Ven
p665
sg71
VLondon
p666
sg72
I38484
sg73
I54782
sg52
VWed Dec 03 10:46:25 +0000 2008
p667
sg74
I01
sg75
VNeed a great deal on your new phone? We compare thousands, so you save money. Follow us for the latest news and reviews. Tweet @CPWCares for mobile support.
p668
sg76
Vhttps://pbs.twimg.com/profile_images/378800000409899332/d13f6fa00c1117f954e933fccae5a4e5_normal.png
p669
sg77
I1065
sg78
I1591
sg79
I0
sg80
Nsg81
I00
sg82
Vhttps://pbs.twimg.com/profile_banners/17833933/1418401939
p670
sg83
I00
sg84
I00
sg85
V0084B4
p671
sg86
I01
sg87
I00
sg88
Vhttp://abs.twimg.com/images/themes/theme1/bg.png
p672
sg89
VCPWTweets
p673
sg91
I314
sg92
VCarphone Warehouse
p674
sg94
VDDEEF6
p675
sg95
Vhttp://t.co/rjee54HZCK
p676
sg96
I17833933
sg97
VC0DEED
p677
sbsg134
I554
sg135
V<a href="http://twitter.com" rel="nofollow">Twitter Web Client</a>
p678
sg137
(lp679
g3
(g289
g5
Ntp680
Rp681
(dp682
g293
Vhttp://t.co/9R9ypDZUOv
p683
sg295
Vhttp://bit.ly/ColourInvasion
p684
sbasg96
I544088233559482368
sbsg16
Nsg17
(lp685
(dp686
Vsource_user_id
p687
I17833933
sVsource_status_id_str
p688
V544088233559482368
p689
sVexpanded_url
p690
Vhttp://twitter.com/CPWTweets/status/544088233559482368/photo/1
p691
sVdisplay_url
p692
Vpic.twitter.com/MdjwDxPZjM
p693
sVurl
p694
Vhttp://t.co/MdjwDxPZjM
p695
sVmedia_url_https
p696
Vhttps://pbs.twimg.com/media/B4z9XVcIMAAPweo.png
p697
sVsource_user_id_str
p698
V17833933
p699
sVsource_status_id
p700
I544088233559482368
sVid_str
p701
V544088232338927616
p702
sVsizes
p703
(dp704
Vsmall
p705
(dp706
Vh
p707
I179
sVresize
p708
Vfit
p709
sVw
p710
I340
ssVlarge
p711
(dp712
Vh
p713
I403
sVresize
p714
Vfit
p715
sVw
p716
I763
ssVmedium
p717
(dp718
Vh
p719
I316
sVresize
p720
Vfit
p721
sVw
p722
I600
ssVthumb
p723
(dp724
Vh
p725
I150
sVresize
p726
Vcrop
p727
sVw
p728
I150
sssVindices
p729
(lp730
I139
aI140
asVtype
p731
Vphoto
p732
sVid
p733
I544088232338927616
sVmedia_url
p734
Vhttp://pbs.twimg.com/media/B4z9XVcIMAAPweo.png
p735
sasg19
Nsg50
Nsg51
Nsg52
VSun Dec 14 19:26:20 +0000 2014
p736
sg54
Nsg55
I00
sg56
Nsg58
Nsg59
Nsg60
Nsg61
I00
sg62
Nsg63
(lp737
g3
(g65
g5
Ntp738
Rp739
(dp740
g10
Nsg69
Nsg70
Nsg71
Nsg72
Nsg73
Nsg52
Nsg74
Nsg75
Nsg76
Nsg77
Nsg78
Nsg79
Nsg80
Nsg81
Nsg82
Nsg83
Nsg84
Nsg85
Nsg86
Nsg87
Nsg88
Nsg89
VCPWTweets
p741
sg91
Nsg92
VCarphone Warehouse
p742
sg94
Nsg95
Nsg96
I17833933
sg97
Nsbasg108
Nsg109
Nsg110
Nsg111
VRT @CPWTweets: Use or RT the hashtag #ColourInvasion for a chance to win a Nexus 6 and a Harley-Davidson! http://t.co/9R9ypDZUOv http://t.c\u2026
p743
sg113
I00
sg114
Ven
p744
sg116
g3
(g65
g5
Ntp745
Rp746
(dp747
g10
VHacker Valley, WV
p748
sg69
V3D1957
p749
sg70
Ven
p750
sg71
VEastern Time (US & Canada)
p751
sg72
I1972
sg73
I116504
sg52
VTue Mar 19 04:40:04 +0000 2013
p752
sg74
I00
sg75
g125
sg76
Vhttps://pbs.twimg.com/profile_images/511724176546074625/Ndh7zDIk_normal.jpeg
p753
sg77
I2127
sg78
I58747
sg79
I-18000
sg80
Nsg81
I00
sg82
Vhttps://pbs.twimg.com/profile_banners/1279517976/1411130517
p754
sg83
I00
sg84
I01
sg85
V5E4155
p755
sg86
I01
sg87
I00
sg88
Vhttp://abs.twimg.com/images/themes/theme10/bg.gif
p756
sg89
Vlesaann98
p757
sg91
I39
sg92
VLesa Moats
p758
sg94
V7AC3EE
p759
sg95
Nsg96
I1279517976
sg97
V642D8B
p760
sbsg134
I554
sg135
V<a href="http://twitter.com" rel="nofollow">Twitter Web Client</a>
p761
sg137
(lp762
g3
(g289
g5
Ntp763
Rp764
(dp765
g293
Vhttp://t.co/9R9ypDZUOv
p766
sg295
Vhttp://bit.ly/ColourInvasion
p767
sbasg96
I544211806856560640
sbag3
(g4
g5
Ntp768
Rp769
(dp770
g9
I1
sg10
Nsg11
Nsg12
(lp771
sg14
I00
sg15
Nsg16
Nsg17
(lp772
sg19
(dp773
Vfull_name
p774
VWest Virginia, US
p775
sVurl
p776
Vhttps://api.twitter.com/1.1/geo/id/2d83c71ce16cd187.json
p777
sVcountry
p778
VUnited States
p779
sVplace_type
p780
Vadmin
p781
sVbounding_box
p782
(dp783
Vtype
p784
VPolygon
p785
sVcoordinates
p786
(lp787
(lp788
(lp789
F-82.644739
aF37.201483
aa(lp790
F-77.718935
aF37.201483
aa(lp791
F-77.718935
aF40.638802
aa(lp792
F-82.644739
aF40.638802
aaassVcontained_within
p793
(lp794
sVcountry_code
p795
VUS
p796
sVattributes
p797
(dp798
sVid
p799
V2d83c71ce16cd187
p800
sVname
p801
VWest Virginia
p802
ssg50
Nsg51
Nsg52
VSun Dec 14 19:25:06 +0000 2014
p803
sg54
Nsg55
Nsg56
VCraziMomOf2Boys
p804
sg58
Nsg59
I607363619
sg60
Nsg61
I00
sg62
Nsg63
(lp805
g3
(g65
g5
Ntp806
Rp807
(dp808
g10
Nsg69
Nsg70
Nsg71
Nsg72
Nsg73
Nsg52
Nsg74
Nsg75
Nsg76
Nsg77
Nsg78
Nsg79
Nsg80
Nsg81
Nsg82
Nsg83
Nsg84
Nsg85
Nsg86
Nsg87
Nsg88
Nsg89
VCraziMomOf2Boys
p809
sg91
Nsg92
VTiffany Anne
p810
sg94
Nsg95
Nsg96
I607363619
sg97
Nsbag3
(g65
g5
Ntp811
Rp812
(dp813
g10
Nsg69
Nsg70
Nsg71
Nsg72
Nsg73
Nsg52
Nsg74
Nsg75
Nsg76
Nsg77
Nsg78
Nsg79
Nsg80
Nsg81
Nsg82
Nsg83
Nsg84
Nsg85
Nsg86
Nsg87
Nsg88
Nsg89
Vallsweaty
p814
sg91
Nsg92
V\u2620all sweaty\u2620
p815
sg94
Nsg95
Nsg96
I91283750
sg97
Nsbag3
(g65
g5
Ntp816
Rp817
(dp818
g10
Nsg69
Nsg70
Nsg71
Nsg72
Nsg73
Nsg52
Nsg74
Nsg75
Nsg76
Nsg77
Nsg78
Nsg79
Nsg80
Nsg81
Nsg82
Nsg83
Nsg84
Nsg85
Nsg86
Nsg87
Nsg88
Nsg89
Vdeebenn87
p819
sg91
Nsg92
VDanielle Bennett
p820
sg94
Nsg95
Nsg96
I2749721508
sg97
Nsbasg108
Nsg109
Nsg110
I544211386729906178
sg111
V@CraziMomOf2Boys @allsweaty @deebenn87 what's your favorite?
p821
sg113
I00
sg114
Ven
p822
sg116
g3
(g65
g5
Ntp823
Rp824
(dp825
g10
VHacker Valley, WV
p826
sg69
V3D1957
p827
sg70
Ven
p828
sg71
VEastern Time (US & Canada)
p829
sg72
I1972
sg73
I116504
sg52
VTue Mar 19 04:40:04 +0000 2013
p830
sg74
I00
sg75
g125
sg76
Vhttps://pbs.twimg.com/profile_images/511724176546074625/Ndh7zDIk_normal.jpeg
p831
sg77
I2127
sg78
I58747
sg79
I-18000
sg80
Nsg81
I00
sg82
Vhttps://pbs.twimg.com/profile_banners/1279517976/1411130517
p832
sg83
I00
sg84
I01
sg85
V5E4155
p833
sg86
I01
sg87
I00
sg88
Vhttp://abs.twimg.com/images/themes/theme10/bg.gif
p834
sg89
Vlesaann98
p835
sg91
I39
sg92
VLesa Moats
p836
sg94
V7AC3EE
p837
sg95
Nsg96
I1279517976
sg97
V642D8B
p838
sbsg134
I0
sg135
V<a href="http://twitter.com" rel="nofollow">Twitter Web Client</a>
p839
sg137
(lp840
sg96
I544211498956886016
sbag3
(g4
g5
Ntp841
Rp842
(dp843
g9
I0
sg10
Nsg11
Nsg12
(lp844
g3
(g530
g5
Ntp845
Rp846
(dp847
g534
VKlipschSix
p848
sbasg14
I00
sg15
Nsg16
Nsg17
(lp849
sg19
Nsg50
Nsg51
Nsg52
VSun Dec 14 19:23:30 +0000 2014
p850
sg54
Nsg55
Nsg56
VKlipschAudio
p851
sg58
Nsg59
I16892754
sg60
Nsg61
I00
sg62
Nsg63
(lp852
g3
(g65
g5
Ntp853
Rp854
(dp855
g10
Nsg69
Nsg70
Nsg71
Nsg72
Nsg73
Nsg52
Nsg74
Nsg75
Nsg76
Nsg77
Nsg78
Nsg79
Nsg80
Nsg81
Nsg82
Nsg83
Nsg84
Nsg85
Nsg86
Nsg87
Nsg88
Nsg89
VKlipschAudio
p856
sg91
Nsg92
VKlipsch Audio
p857
sg94
Nsg95
Nsg96
I16892754
sg97
Nsbag3
(g65
g5
Ntp858
Rp859
(dp860
g10
Nsg69
Nsg70
Nsg71
Nsg72
Nsg73
Nsg52
Nsg74
Nsg75
Nsg76
Nsg77
Nsg78
Nsg79
Nsg80
Nsg81
Nsg82
Nsg83
Nsg84
Nsg85
Nsg86
Nsg87
Nsg88
Nsg89
VColts
p861
sg91
Nsg92
VIndianapolis Colts
p862
sg94
Nsg95
Nsg96
I180884045
sg97
Nsbasg108
Nsg109
Nsg110
I544204250533089280
sg111
V@KlipschAudio @Colts #KlipschSix
p863
sg113
I00
sg114
Vund
p864
sg116
g3
(g65
g5
Ntp865
Rp866
(dp867
g10
VHacker Valley, WV
p868
sg69
V3D1957
p869
sg70
Ven
p870
sg71
VEastern Time (US & Canada)
p871
sg72
I1972
sg73
I116504
sg52
VTue Mar 19 04:40:04 +0000 2013
p872
sg74
I00
sg75
g125
sg76
Vhttps://pbs.twimg.com/profile_images/511724176546074625/Ndh7zDIk_normal.jpeg
p873
sg77
I2127
sg78
I58747
sg79
I-18000
sg80
Nsg81
I00
sg82
Vhttps://pbs.twimg.com/profile_banners/1279517976/1411130517
p874
sg83
I00
sg84
I01
sg85
V5E4155
p875
sg86
I01
sg87
I00
sg88
Vhttp://abs.twimg.com/images/themes/theme10/bg.gif
p876
sg89
Vlesaann98
p877
sg91
I39
sg92
VLesa Moats
p878
sg94
V7AC3EE
p879
sg95
Nsg96
I1279517976
sg97
V642D8B
p880
sbsg134
I0
sg135
V<a href="http://twitter.com" rel="nofollow">Twitter Web Client</a>
p881
sg137
(lp882
sg96
I544211094001041408
sbag3
(g4
g5
Ntp883
Rp884
(dp885
g9
I0
sg10
Nsg11
Nsg12
(lp886
sg14
I00
sg15
Nsg16
Nsg17
(lp887
sg19
(dp888
Vfull_name
p889
VWest Virginia, US
p890
sVurl
p891
Vhttps://api.twitter.com/1.1/geo/id/2d83c71ce16cd187.json
p892
sVcountry
p893
VUnited States
p894
sVplace_type
p895
Vadmin
p896
sVbounding_box
p897
(dp898
Vtype
p899
VPolygon
p900
sVcoordinates
p901
(lp902
(lp903
(lp904
F-82.644739
aF37.201483
aa(lp905
F-77.718935
aF37.201483
aa(lp906
F-77.718935
aF40.638802
aa(lp907
F-82.644739
aF40.638802
aaassVcontained_within
p908
(lp909
sVcountry_code
p910
VUS
p911
sVattributes
p912
(dp913
sVid
p914
V2d83c71ce16cd187
p915
sVname
p916
VWest Virginia
p917
ssg50
Nsg51
Nsg52
VSun Dec 14 19:15:49 +0000 2014
p918
sg54
Nsg55
Nsg56
VFoodNetwork
p919
sg58
Nsg59
I20710809
sg60
Nsg61
I00
sg62
Nsg63
(lp920
g3
(g65
g5
Ntp921
Rp922
(dp923
g10
Nsg69
Nsg70
Nsg71
Nsg72
Nsg73
Nsg52
Nsg74
Nsg75
Nsg76
Nsg77
Nsg78
Nsg79
Nsg80
Nsg81
Nsg82
Nsg83
Nsg84
Nsg85
Nsg86
Nsg87
Nsg88
Nsg89
VFoodNetwork
p924
sg91
Nsg92
VFood Network
p925
sg94
Nsg95
Nsg96
I20710809
sg97
Nsbasg108
Nsg109
Nsg110
I544208973000224769
sg111
V@FoodNetwork Naylet
p926
sg113
I00
sg114
Vtr
p927
sg116
g3
(g65
g5
Ntp928
Rp929
(dp930
g10
VHacker Valley, WV
p931
sg69
V3D1957
p932
sg70
Ven
p933
sg71
VEastern Time (US & Canada)
p934
sg72
I1972
sg73
I116504
sg52
VTue Mar 19 04:40:04 +0000 2013
p935
sg74
I00
sg75
g125
sg76
Vhttps://pbs.twimg.com/profile_images/511724176546074625/Ndh7zDIk_normal.jpeg
p936
sg77
I2127
sg78
I58747
sg79
I-18000
sg80
Nsg81
I00
sg82
Vhttps://pbs.twimg.com/profile_banners/1279517976/1411130517
p937
sg83
I00
sg84
I01
sg85
V5E4155
p938
sg86
I01
sg87
I00
sg88
Vhttp://abs.twimg.com/images/themes/theme10/bg.gif
p939
sg89
Vlesaann98
p940
sg91
I39
sg92
VLesa Moats
p941
sg94
V7AC3EE
p942
sg95
Nsg96
I1279517976
sg97
V642D8B
p943
sbsg134
I0
sg135
V<a href="http://twitter.com" rel="nofollow">Twitter Web Client</a>
p944
sg137
(lp945
sg96
I544209158786912256
sbag3
(g4
g5
Ntp946
Rp947
(dp948
g9
I0
sg10
Nsg11
Nsg12
(lp949
g3
(g530
g5
Ntp950
Rp951
(dp952
g534
Vgiveaway
p953
sbag3
(g530
g5
Ntp954
Rp955
(dp956
g534
Vtonight
p957
sbag3
(g530
g5
Ntp958
Rp959
(dp960
g534
Vbenefit
p961
sbag3
(g530
g5
Ntp962
Rp963
(dp964
g534
Vcompetition
p965
sbasg14
I00
sg15
g3
(g4
g5
Ntp966
Rp967
(dp968
g9
I87
sg10
Nsg11
Nsg12
(lp969
g3
(g530
g5
Ntp970
Rp971
(dp972
g534
Vgiveaway
p973
sbag3
(g530
g5
Ntp974
Rp975
(dp976
g534
Vtonight
p977
sbag3
(g530
g5
Ntp978
Rp979
(dp980
g534
Vbenefit
p981
sbag3
(g530
g5
Ntp982
Rp983
(dp984
g534
Vcompetition
p985
sbasg14
I00
sg15
Nsg16
Nsg17
(lp986
(dp987
Vsource_user_id
p988
I26024214
sVsource_status_id_str
p989
V539343642721529856
p990
sVexpanded_url
p991
Vhttp://twitter.com/Jadeelliott85/status/539343642721529856/photo/1
p992
sVdisplay_url
p993
Vpic.twitter.com/rChyAs98Qh
p994
sVurl
p995
Vhttp://t.co/rChyAs98Qh
p996
sVmedia_url_https
p997
Vhttps://pbs.twimg.com/media/B3wiL21IEAENjbE.jpg
p998
sVsource_user_id_str
p999
V26024214
p1000
sVsource_status_id
p1001
I539343642721529856
sVid_str
p1002
V539343642469863425
p1003
sVsizes
p1004
(dp1005
Vsmall
p1006
(dp1007
Vh
p1008
I340
sVresize
p1009
Vfit
p1010
sVw
p1011
I340
ssVlarge
p1012
(dp1013
Vh
p1014
I640
sVresize
p1015
Vfit
p1016
sVw
p1017
I640
ssVmedium
p1018
(dp1019
Vh
p1020
I600
sVresize
p1021
Vfit
p1022
sVw
p1023
I600
ssVthumb
p1024
(dp1025
Vh
p1026
I150
sVresize
p1027
Vcrop
p1028
sVw
p1029
I150
sssVindices
p1030
(lp1031
I122
aI144
asVtype
p1032
Vphoto
p1033
sVid
p1034
I539343642469863425
sVmedia_url
p1035
Vhttp://pbs.twimg.com/media/B3wiL21IEAENjbE.jpg
p1036
sasg19
Nsg50
Nsg51
Nsg52
VSun Dec 14 17:00:10 +0000 2014
p1037
sg54
Nsg55
I00
sg56
Nsg58
Nsg59
Nsg60
Nsg61
I00
sg62
Nsg63
(lp1038
g3
(g65
g5
Ntp1039
Rp1040
(dp1041
g10
Nsg69
Nsg70
Nsg71
Nsg72
Nsg73
Nsg52
Nsg74
Nsg75
Nsg76
Nsg77
Nsg78
Nsg79
Nsg80
Nsg81
Nsg82
Nsg83
Nsg84
Nsg85
Nsg86
Nsg87
Nsg88
Nsg89
VJadeelliott85
p1042
sg91
Nsg92
VJade Elliott
p1043
sg94
Nsg95
Nsg96
I26024214
sg97
Nsbasg108
Nsg109
Nsg110
Nsg111
VWho is gonna win my #giveaway follow @Jadeelliott85 &amp; RT to enter winner being chosen #tonight #benefit #competition  http://t.co/rChyAs98Qh
p1044
sg113
I00
sg114
Ven
p1045
sg116
g3
(g65
g5
Ntp1046
Rp1047
(dp1048
g10
VLondon
p1049
sg69
V333333
p1050
sg70
Ven
p1051
sg71
Nsg72
I41384
sg73
I11221
sg52
VMon Mar 23 15:41:37 +0000 2009
p1052
sg74
I00
sg75
VCelebrity Fashion Stylist & Beauty blogger Fashion finds& Beauty Tips Jadeelliottwork@hotmail.co.uk blog: http://t.co/Rz8APHuMjJ
p1053
sg76
Vhttps://pbs.twimg.com/profile_images/458969955258863616/kyiCdHGa_normal.jpeg
p1054
sg77
I8838
sg78
I8766
sg79
Nsg80
Nsg81
I00
sg82
Vhttps://pbs.twimg.com/profile_banners/26024214/1398272247
p1055
sg83
I00
sg84
I00
sg85
V0084B4
p1056
sg86
I01
sg87
I00
sg88
Vhttp://abs.twimg.com/images/themes/theme1/bg.png
p1057
sg89
VJadeelliott85
p1058
sg91
I97
sg92
VJade Elliott
p1059
sg94
VDDEEF6
p1060
sg95
Nsg96
I26024214
sg97
VC0DEED
p1061
sbsg134
I549
sg135
V<a href="http://twitter.com/download/iphone" rel="nofollow">Twitter for iPhone</a>
p1062
sg137
(lp1063
sg96
I544175022181732352
sbsg16
Nsg17
(lp1064
(dp1065
Vsource_user_id
p1066
I26024214
sVsource_status_id_str
p1067
V539343642721529856
p1068
sVexpanded_url
p1069
Vhttp://twitter.com/Jadeelliott85/status/539343642721529856/photo/1
p1070
sVdisplay_url
p1071
Vpic.twitter.com/rChyAs98Qh
p1072
sVurl
p1073
Vhttp://t.co/rChyAs98Qh
p1074
sVmedia_url_https
p1075
Vhttps://pbs.twimg.com/media/B3wiL21IEAENjbE.jpg
p1076
sVsource_user_id_str
p1077
V26024214
p1078
sVsource_status_id
p1079
I539343642721529856
sVid_str
p1080
V539343642469863425
p1081
sVsizes
p1082
(dp1083
Vsmall
p1084
(dp1085
Vh
p1086
I340
sVresize
p1087
Vfit
p1088
sVw
p1089
I340
ssVlarge
p1090
(dp1091
Vh
p1092
I640
sVresize
p1093
Vfit
p1094
sVw
p1095
I640
ssVmedium
p1096
(dp1097
Vh
p1098
I600
sVresize
p1099
Vfit
p1100
sVw
p1101
I600
ssVthumb
p1102
(dp1103
Vh
p1104
I150
sVresize
p1105
Vcrop
p1106
sVw
p1107
I150
sssVindices
p1108
(lp1109
I143
aI144
asVtype
p1110
Vphoto
p1111
sVid
p1112
I539343642469863425
sVmedia_url
p1113
Vhttp://pbs.twimg.com/media/B3wiL21IEAENjbE.jpg
p1114
sasg19
Nsg50
Nsg51
Nsg52
VSun Dec 14 19:14:53 +0000 2014
p1115
sg54
Nsg55
I00
sg56
Nsg58
Nsg59
Nsg60
Nsg61
I00
sg62
Nsg63
(lp1116
g3
(g65
g5
Ntp1117
Rp1118
(dp1119
g10
Nsg69
Nsg70
Nsg71
Nsg72
Nsg73
Nsg52
Nsg74
Nsg75
Nsg76
Nsg77
Nsg78
Nsg79
Nsg80
Nsg81
Nsg82
Nsg83
Nsg84
Nsg85
Nsg86
Nsg87
Nsg88
Nsg89
VJadeelliott85
p1120
sg91
Nsg92
VJade Elliott
p1121
sg94
Nsg95
Nsg96
I26024214
sg97
Nsbag3
(g65
g5
Ntp1122
Rp1123
(dp1124
g10
Nsg69
Nsg70
Nsg71
Nsg72
Nsg73
Nsg52
Nsg74
Nsg75
Nsg76
Nsg77
Nsg78
Nsg79
Nsg80
Nsg81
Nsg82
Nsg83
Nsg84
Nsg85
Nsg86
Nsg87
Nsg88
Nsg89
VJadeelliott85
p1125
sg91
Nsg92
VJade Elliott
p1126
sg94
Nsg95
Nsg96
I26024214
sg97
Nsbasg108
Nsg109
Nsg110
Nsg111
VRT @Jadeelliott85: Who is gonna win my #giveaway follow @Jadeelliott85 &amp; RT to enter winner being chosen #tonight #benefit #competition  ht\u2026
p1127
sg113
I00
sg114
Ven
p1128
sg116
g3
(g65
g5
Ntp1129
Rp1130
(dp1131
g10
VHacker Valley, WV
p1132
sg69
V3D1957
p1133
sg70
Ven
p1134
sg71
VEastern Time (US & Canada)
p1135
sg72
I1972
sg73
I116504
sg52
VTue Mar 19 04:40:04 +0000 2013
p1136
sg74
I00
sg75
g125
sg76
Vhttps://pbs.twimg.com/profile_images/511724176546074625/Ndh7zDIk_normal.jpeg
p1137
sg77
I2127
sg78
I58747
sg79
I-18000
sg80
Nsg81
I00
sg82
Vhttps://pbs.twimg.com/profile_banners/1279517976/1411130517
p1138
sg83
I00
sg84
I01
sg85
V5E4155
p1139
sg86
I01
sg87
I00
sg88
Vhttp://abs.twimg.com/images/themes/theme10/bg.gif
p1140
sg89
Vlesaann98
p1141
sg91
I39
sg92
VLesa Moats
p1142
sg94
V7AC3EE
p1143
sg95
Nsg96
I1279517976
sg97
V642D8B
p1144
sbsg134
I549
sg135
V<a href="http://twitter.com" rel="nofollow">Twitter Web Client</a>
p1145
sg137
(lp1146
sg96
I544208926502166529
sbag3
(g4
g5
Ntp1147
Rp1148
(dp1149
g9
I1
sg10
Nsg11
Nsg12
(lp1150
sg14
I00
sg15
Nsg16
Nsg17
(lp1151
sg19
(dp1152
Vfull_name
p1153
VWest Virginia, US
p1154
sVurl
p1155
Vhttps://api.twitter.com/1.1/geo/id/2d83c71ce16cd187.json
p1156
sVcountry
p1157
VUnited States
p1158
sVplace_type
p1159
Vadmin
p1160
sVbounding_box
p1161
(dp1162
Vtype
p1163
VPolygon
p1164
sVcoordinates
p1165
(lp1166
(lp1167
(lp1168
F-82.644739
aF37.201483
aa(lp1169
F-77.718935
aF37.201483
aa(lp1170
F-77.718935
aF40.638802
aa(lp1171
F-82.644739
aF40.638802
aaassVcontained_within
p1172
(lp1173
sVcountry_code
p1174
VUS
p1175
sVattributes
p1176
(dp1177
sVid
p1178
V2d83c71ce16cd187
p1179
sVname
p1180
VWest Virginia
p1181
ssg50
Nsg51
Nsg52
VSun Dec 14 19:05:49 +0000 2014
p1182
sg54
Nsg55
Nsg56
VCraziMomOf2Boys
p1183
sg58
Nsg59
I607363619
sg60
Nsg61
I00
sg62
Nsg63
(lp1184
g3
(g65
g5
Ntp1185
Rp1186
(dp1187
g10
Nsg69
Nsg70
Nsg71
Nsg72
Nsg73
Nsg52
Nsg74
Nsg75
Nsg76
Nsg77
Nsg78
Nsg79
Nsg80
Nsg81
Nsg82
Nsg83
Nsg84
Nsg85
Nsg86
Nsg87
Nsg88
Nsg89
VCraziMomOf2Boys
p1188
sg91
Nsg92
VTiffany Anne
p1189
sg94
Nsg95
Nsg96
I607363619
sg97
Nsbag3
(g65
g5
Ntp1190
Rp1191
(dp1192
g10
Nsg69
Nsg70
Nsg71
Nsg72
Nsg73
Nsg52
Nsg74
Nsg75
Nsg76
Nsg77
Nsg78
Nsg79
Nsg80
Nsg81
Nsg82
Nsg83
Nsg84
Nsg85
Nsg86
Nsg87
Nsg88
Nsg89
Vallsweaty
p1193
sg91
Nsg92
V\u2620all sweaty\u2620
p1194
sg94
Nsg95
Nsg96
I91283750
sg97
Nsbag3
(g65
g5
Ntp1195
Rp1196
(dp1197
g10
Nsg69
Nsg70
Nsg71
Nsg72
Nsg73
Nsg52
Nsg74
Nsg75
Nsg76
Nsg77
Nsg78
Nsg79
Nsg80
Nsg81
Nsg82
Nsg83
Nsg84
Nsg85
Nsg86
Nsg87
Nsg88
Nsg89
Vdeebenn87
p1198
sg91
Nsg92
VDanielle Bennett
p1199
sg94
Nsg95
Nsg96
I2749721508
sg97
Nsbasg108
Nsg109
Nsg110
I544206184681451520
sg111
V@CraziMomOf2Boys @allsweaty @deebenn87 my sister, mom, one of hubbys friends &amp; whoever wants it :)
p1200
sg113
I00
sg114
Ven
p1201
sg116
g3
(g65
g5
Ntp1202
Rp1203
(dp1204
g10
VHacker Valley, WV
p1205
sg69
V3D1957
p1206
sg70
Ven
p1207
sg71
VEastern Time (US & Canada)
p1208
sg72
I1972
sg73
I116504
sg52
VTue Mar 19 04:40:04 +0000 2013
p1209
sg74
I00
sg75
g125
sg76
Vhttps://pbs.twimg.com/profile_images/511724176546074625/Ndh7zDIk_normal.jpeg
p1210
sg77
I2127
sg78
I58747
sg79
I-18000
sg80
Nsg81
I00
sg82
Vhttps://pbs.twimg.com/profile_banners/1279517976/1411130517
p1211
sg83
I00
sg84
I01
sg85
V5E4155
p1212
sg86
I01
sg87
I00
sg88
Vhttp://abs.twimg.com/images/themes/theme10/bg.gif
p1213
sg89
Vlesaann98
p1214
sg91
I39
sg92
VLesa Moats
p1215
sg94
V7AC3EE
p1216
sg95
Nsg96
I1279517976
sg97
V642D8B
p1217
sbsg134
I0
sg135
V<a href="http://twitter.com" rel="nofollow">Twitter Web Client</a>
p1218
sg137
(lp1219
sg96
I544206642577805312
sbag3
(g4
g5
Ntp1220
Rp1221
(dp1222
g9
I0
sg10
Nsg11
Nsg12
(lp1223
g3
(g530
g5
Ntp1224
Rp1225
(dp1226
g534
VTheChristmasParade
p1227
sbasg14
I00
sg15
Nsg16
Nsg17
(lp1228
sg19
(dp1229
Vfull_name
p1230
VWest Virginia, US
p1231
sVurl
p1232
Vhttps://api.twitter.com/1.1/geo/id/2d83c71ce16cd187.json
p1233
sVcountry
p1234
VUnited States
p1235
sVplace_type
p1236
Vadmin
p1237
sVbounding_box
p1238
(dp1239
Vtype
p1240
VPolygon
p1241
sVcoordinates
p1242
(lp1243
(lp1244
(lp1245
F-82.644739
aF37.201483
aa(lp1246
F-77.718935
aF37.201483
aa(lp1247
F-77.718935
aF40.638802
aa(lp1248
F-82.644739
aF40.638802
aaassVcontained_within
p1249
(lp1250
sVcountry_code
p1251
VUS
p1252
sVattributes
p1253
(dp1254
sVid
p1255
V2d83c71ce16cd187
p1256
sVname
p1257
VWest Virginia
p1258
ssg50
Nsg51
Nsg52
VSun Dec 14 18:20:13 +0000 2014
p1259
sg54
Nsg55
Nsg56
VFansofScottBros
p1260
sg58
Nsg59
I592837282
sg60
Nsg61
I00
sg62
Nsg63
(lp1261
g3
(g65
g5
Ntp1262
Rp1263
(dp1264
g10
Nsg69
Nsg70
Nsg71
Nsg72
Nsg73
Nsg52
Nsg74
Nsg75
Nsg76
Nsg77
Nsg78
Nsg79
Nsg80
Nsg81
Nsg82
Nsg83
Nsg84
Nsg85
Nsg86
Nsg87
Nsg88
Nsg89
VFansofScottBros
p1265
sg91
Nsg92
VTeam ScottBrothers
p1266
sg94
Nsg95
Nsg96
I592837282
sg97
Nsbag3
(g65
g5
Ntp1267
Rp1268
(dp1269
g10
Nsg69
Nsg70
Nsg71
Nsg72
Nsg73
Nsg52
Nsg74
Nsg75
Nsg76
Nsg77
Nsg78
Nsg79
Nsg80
Nsg81
Nsg82
Nsg83
Nsg84
Nsg85
Nsg86
Nsg87
Nsg88
Nsg89
Vhallmarkchannel
p1270
sg91
Nsg92
VHallmark Channel
p1271
sg94
Nsg95
Nsg96
I25453312
sg97
Nsbag3
(g65
g5
Ntp1272
Rp1273
(dp1274
g10
Nsg69
Nsg70
Nsg71
Nsg72
Nsg73
Nsg52
Nsg74
Nsg75
Nsg76
Nsg77
Nsg78
Nsg79
Nsg80
Nsg81
Nsg82
Nsg83
Nsg84
Nsg85
Nsg86
Nsg87
Nsg88
Nsg89
VMrDrewScott
p1275
sg91
Nsg92
VDrew Scott
p1276
sg94
Nsg95
Nsg96
I86972419
sg97
Nsbasg108
Nsg109
Nsg110
I544189886454976512
sg111
V@FansofScottBros @hallmarkchannel @MrDrewScott I am so excited #TheChristmasParade
p1277
sg113
I00
sg114
Ven
p1278
sg116
g3
(g65
g5
Ntp1279
Rp1280
(dp1281
g10
VHacker Valley, WV
p1282
sg69
V3D1957
p1283
sg70
Ven
p1284
sg71
VEastern Time (US & Canada)
p1285
sg72
I1972
sg73
I116504
sg52
VTue Mar 19 04:40:04 +0000 2013
p1286
sg74
I00
sg75
g125
sg76
Vhttps://pbs.twimg.com/profile_images/511724176546074625/Ndh7zDIk_normal.jpeg
p1287
sg77
I2127
sg78
I58747
sg79
I-18000
sg80
Nsg81
I00
sg82
Vhttps://pbs.twimg.com/profile_banners/1279517976/1411130517
p1288
sg83
I00
sg84
I01
sg85
V5E4155
p1289
sg86
I01
sg87
I00
sg88
Vhttp://abs.twimg.com/images/themes/theme10/bg.gif
p1290
sg89
Vlesaann98
p1291
sg91
I39
sg92
VLesa Moats
p1292
sg94
V7AC3EE
p1293
sg95
Nsg96
I1279517976
sg97
V642D8B
p1294
sbsg134
I0
sg135
V<a href="http://twitter.com" rel="nofollow">Twitter Web Client</a>
p1295
sg137
(lp1296
sg96
I544195170162327552
sbag3
(g4
g5
Ntp1297
Rp1298
(dp1299
g9
I0
sg10
Nsg11
Nsg12
(lp1300
g3
(g530
g5
Ntp1301
Rp1302
(dp1303
g534
V201414HD
p1304
sbasg14
I00
sg15
Nsg16
Nsg17
(lp1305
sg19
(dp1306
Vfull_name
p1307
VWest Virginia, US
p1308
sVurl
p1309
Vhttps://api.twitter.com/1.1/geo/id/2d83c71ce16cd187.json
p1310
sVcountry
p1311
VUnited States
p1312
sVplace_type
p1313
Vadmin
p1314
sVbounding_box
p1315
(dp1316
Vtype
p1317
VPolygon
p1318
sVcoordinates
p1319
(lp1320
(lp1321
(lp1322
F-82.644739
aF37.201483
aa(lp1323
F-77.718935
aF37.201483
aa(lp1324
F-77.718935
aF40.638802
aa(lp1325
F-82.644739
aF40.638802
aaassVcontained_within
p1326
(lp1327
sVcountry_code
p1328
VUS
p1329
sVattributes
p1330
(dp1331
sVid
p1332
V2d83c71ce16cd187
p1333
sVname
p1334
VWest Virginia
p1335
ssg50
Nsg51
Nsg52
VSun Dec 14 18:12:57 +0000 2014
p1336
sg54
Nsg55
Nsg56
VHarryandDavid
p1337
sg58
Nsg59
I21440100
sg60
Nsg61
I00
sg62
Nsg63
(lp1338
g3
(g65
g5
Ntp1339
Rp1340
(dp1341
g10
Nsg69
Nsg70
Nsg71
Nsg72
Nsg73
Nsg52
Nsg74
Nsg75
Nsg76
Nsg77
Nsg78
Nsg79
Nsg80
Nsg81
Nsg82
Nsg83
Nsg84
Nsg85
Nsg86
Nsg87
Nsg88
Nsg89
VHarryandDavid
p1342
sg91
Nsg92
VHarry & David
p1343
sg94
Nsg95
Nsg96
I21440100
sg97
Nsbasg108
Nsg109
Nsg110
Nsg111
V@HarryandDavid  #201414HD
p1344
sg113
I00
sg114
Vund
p1345
sg116
g3
(g65
g5
Ntp1346
Rp1347
(dp1348
g10
VHacker Valley, WV
p1349
sg69
V3D1957
p1350
sg70
Ven
p1351
sg71
VEastern Time (US & Canada)
p1352
sg72
I1972
sg73
I116504
sg52
VTue Mar 19 04:40:04 +0000 2013
p1353
sg74
I00
sg75
g125
sg76
Vhttps://pbs.twimg.com/profile_images/511724176546074625/Ndh7zDIk_normal.jpeg
p1354
sg77
I2127
sg78
I58747
sg79
I-18000
sg80
Nsg81
I00
sg82
Vhttps://pbs.twimg.com/profile_banners/1279517976/1411130517
p1355
sg83
I00
sg84
I01
sg85
V5E4155
p1356
sg86
I01
sg87
I00
sg88
Vhttp://abs.twimg.com/images/themes/theme10/bg.gif
p1357
sg89
Vlesaann98
p1358
sg91
I39
sg92
VLesa Moats
p1359
sg94
V7AC3EE
p1360
sg95
Nsg96
I1279517976
sg97
V642D8B
p1361
sbsg134
I0
sg135
V<a href="http://twitter.com" rel="nofollow">Twitter Web Client</a>
p1362
sg137
(lp1363
sg96
I544193338467823616
sbag3
(g4
g5
Ntp1364
Rp1365
(dp1366
g9
I1
sg10
Nsg11
Nsg12
(lp1367
sg14
I00
sg15
Nsg16
Nsg17
(lp1368
sg19
(dp1369
Vfull_name
p1370
VWest Virginia, US
p1371
sVurl
p1372
Vhttps://api.twitter.com/1.1/geo/id/2d83c71ce16cd187.json
p1373
sVcountry
p1374
VUnited States
p1375
sVplace_type
p1376
Vadmin
p1377
sVbounding_box
p1378
(dp1379
Vtype
p1380
VPolygon
p1381
sVcoordinates
p1382
(lp1383
(lp1384
(lp1385
F-82.644739
aF37.201483
aa(lp1386
F-77.718935
aF37.201483
aa(lp1387
F-77.718935
aF40.638802
aa(lp1388
F-82.644739
aF40.638802
aaassVcontained_within
p1389
(lp1390
sVcountry_code
p1391
VUS
p1392
sVattributes
p1393
(dp1394
sVid
p1395
V2d83c71ce16cd187
p1396
sVname
p1397
VWest Virginia
p1398
ssg50
Nsg51
Nsg52
VSun Dec 14 17:50:34 +0000 2014
p1399
sg54
Nsg55
Nsg56
Vallsweaty
p1400
sg58
Nsg59
I91283750
sg60
Nsg61
I00
sg62
Nsg63
(lp1401
g3
(g65
g5
Ntp1402
Rp1403
(dp1404
g10
Nsg69
Nsg70
Nsg71
Nsg72
Nsg73
Nsg52
Nsg74
Nsg75
Nsg76
Nsg77
Nsg78
Nsg79
Nsg80
Nsg81
Nsg82
Nsg83
Nsg84
Nsg85
Nsg86
Nsg87
Nsg88
Nsg89
Vallsweaty
p1405
sg91
Nsg92
V\u2620all sweaty\u2620
p1406
sg94
Nsg95
Nsg96
I91283750
sg97
Nsbag3
(g65
g5
Ntp1407
Rp1408
(dp1409
g10
Nsg69
Nsg70
Nsg71
Nsg72
Nsg73
Nsg52
Nsg74
Nsg75
Nsg76
Nsg77
Nsg78
Nsg79
Nsg80
Nsg81
Nsg82
Nsg83
Nsg84
Nsg85
Nsg86
Nsg87
Nsg88
Nsg89
VCraziMomOf2Boys
p1410
sg91
Nsg92
VTiffany Anne
p1411
sg94
Nsg95
Nsg96
I607363619
sg97
Nsbasg108
Nsg109
Nsg110
I544187461027385344
sg111
V@allsweaty @CraziMomOf2Boys almost still have more to make lol Rock candy &amp; pumpkin rolls, strawberry rolls &amp; blueberry rolls
p1412
sg113
I00
sg114
Ven
p1413
sg116
g3
(g65
g5
Ntp1414
Rp1415
(dp1416
g10
VHacker Valley, WV
p1417
sg69
V3D1957
p1418
sg70
Ven
p1419
sg71
VEastern Time (US & Canada)
p1420
sg72
I1972
sg73
I116504
sg52
VTue Mar 19 04:40:04 +0000 2013
p1421
sg74
I00
sg75
g125
sg76
Vhttps://pbs.twimg.com/profile_images/511724176546074625/Ndh7zDIk_normal.jpeg
p1422
sg77
I2127
sg78
I58747
sg79
I-18000
sg80
Nsg81
I00
sg82
Vhttps://pbs.twimg.com/profile_banners/1279517976/1411130517
p1423
sg83
I00
sg84
I01
sg85
V5E4155
p1424
sg86
I01
sg87
I00
sg88
Vhttp://abs.twimg.com/images/themes/theme10/bg.gif
p1425
sg89
Vlesaann98
p1426
sg91
I39
sg92
VLesa Moats
p1427
sg94
V7AC3EE
p1428
sg95
Nsg96
I1279517976
sg97
V642D8B
p1429
sbsg134
I0
sg135
V<a href="http://twitter.com" rel="nofollow">Twitter Web Client</a>
p1430
sg137
(lp1431
sg96
I544187706570330112
sbag3
(g4
g5
Ntp1432
Rp1433
(dp1434
g9
I0
sg10
Nsg11
Nsg12
(lp1435
g3
(g530
g5
Ntp1436
Rp1437
(dp1438
g534
VHelloKurio
p1439
sbag3
(g530
g5
Ntp1440
Rp1441
(dp1442
g534
V12DaysofMerryMagic
p1443
sbasg14
I00
sg15
Nsg16
Nsg17
(lp1444
sg19
(dp1445
Vfull_name
p1446
VWest Virginia, US
p1447
sVurl
p1448
Vhttps://api.twitter.com/1.1/geo/id/2d83c71ce16cd187.json
p1449
sVcountry
p1450
VUnited States
p1451
sVplace_type
p1452
Vadmin
p1453
sVbounding_box
p1454
(dp1455
Vtype
p1456
VPolygon
p1457
sVcoordinates
p1458
(lp1459
(lp1460
(lp1461
F-82.644739
aF37.201483
aa(lp1462
F-77.718935
aF37.201483
aa(lp1463
F-77.718935
aF40.638802
aa(lp1464
F-82.644739
aF40.638802
aaassVcontained_within
p1465
(lp1466
sVcountry_code
p1467
VUS
p1468
sVattributes
p1469
(dp1470
sVid
p1471
V2d83c71ce16cd187
p1472
sVname
p1473
VWest Virginia
p1474
ssg50
Nsg51
Nsg52
VSun Dec 14 17:48:47 +0000 2014
p1475
sg54
Nsg55
Nsg56
VKurioTabletUSA
p1476
sg58
Nsg59
I764299988
sg60
Nsg61
I00
sg62
Nsg63
(lp1477
g3
(g65
g5
Ntp1478
Rp1479
(dp1480
g10
Nsg69
Nsg70
Nsg71
Nsg72
Nsg73
Nsg52
Nsg74
Nsg75
Nsg76
Nsg77
Nsg78
Nsg79
Nsg80
Nsg81
Nsg82
Nsg83
Nsg84
Nsg85
Nsg86
Nsg87
Nsg88
Nsg89
VKurioTabletUSA
p1481
sg91
Nsg92
VKurioTabletUSA
p1482
sg94
Nsg95
Nsg96
I764299988
sg97
Nsbasg108
Nsg109
Nsg110
I543435702864994304
sg111
V@KurioTabletUSA #HelloKurio would love to win soon #12DaysofMerryMagic
p1483
sg113
I00
sg114
Ven
p1484
sg116
g3
(g65
g5
Ntp1485
Rp1486
(dp1487
g10
VHacker Valley, WV
p1488
sg69
V3D1957
p1489
sg70
Ven
p1490
sg71
VEastern Time (US & Canada)
p1491
sg72
I1972
sg73
I116504
sg52
VTue Mar 19 04:40:04 +0000 2013
p1492
sg74
I00
sg75
g125
sg76
Vhttps://pbs.twimg.com/profile_images/511724176546074625/Ndh7zDIk_normal.jpeg
p1493
sg77
I2127
sg78
I58747
sg79
I-18000
sg80
Nsg81
I00
sg82
Vhttps://pbs.twimg.com/profile_banners/1279517976/1411130517
p1494
sg83
I00
sg84
I01
sg85
V5E4155
p1495
sg86
I01
sg87
I00
sg88
Vhttp://abs.twimg.com/images/themes/theme10/bg.gif
p1496
sg89
Vlesaann98
p1497
sg91
I39
sg92
VLesa Moats
p1498
sg94
V7AC3EE
p1499
sg95
Nsg96
I1279517976
sg97
V642D8B
p1500
sbsg134
I0
sg135
V<a href="http://twitter.com" rel="nofollow">Twitter Web Client</a>
p1501
sg137
(lp1502
sg96
I544187259570757632
sbag3
(g4
g5
Ntp1503
Rp1504
(dp1505
g9
I1
sg10
Nsg11
Nsg12
(lp1506
sg14
I00
sg15
Nsg16
Nsg17
(lp1507
sg19
(dp1508
Vfull_name
p1509
VWest Virginia, US
p1510
sVurl
p1511
Vhttps://api.twitter.com/1.1/geo/id/2d83c71ce16cd187.json
p1512
sVcountry
p1513
VUnited States
p1514
sVplace_type
p1515
Vadmin
p1516
sVbounding_box
p1517
(dp1518
Vtype
p1519
VPolygon
p1520
sVcoordinates
p1521
(lp1522
(lp1523
(lp1524
F-82.644739
aF37.201483
aa(lp1525
F-77.718935
aF37.201483
aa(lp1526
F-77.718935
aF40.638802
aa(lp1527
F-82.644739
aF40.638802
aaassVcontained_within
p1528
(lp1529
sVcountry_code
p1530
VUS
p1531
sVattributes
p1532
(dp1533
sVid
p1534
V2d83c71ce16cd187
p1535
sVname
p1536
VWest Virginia
p1537
ssg50
Nsg51
Nsg52
VSun Dec 14 17:46:15 +0000 2014
p1538
sg54
Nsg55
Nsg56
VDynamiteStyle
p1539
sg58
Nsg59
I787567513
sg60
Nsg61
I00
sg62
Nsg63
(lp1540
g3
(g65
g5
Ntp1541
Rp1542
(dp1543
g10
Nsg69
Nsg70
Nsg71
Nsg72
Nsg73
Nsg52
Nsg74
Nsg75
Nsg76
Nsg77
Nsg78
Nsg79
Nsg80
Nsg81
Nsg82
Nsg83
Nsg84
Nsg85
Nsg86
Nsg87
Nsg88
Nsg89
VDynamiteStyle
p1544
sg91
Nsg92
VDynamite Clothing
p1545
sg94
Nsg95
Nsg96
I787567513
sg97
Nsbag3
(g65
g5
Ntp1546
Rp1547
(dp1548
g10
Nsg69
Nsg70
Nsg71
Nsg72
Nsg73
Nsg52
Nsg74
Nsg75
Nsg76
Nsg77
Nsg78
Nsg79
Nsg80
Nsg81
Nsg82
Nsg83
Nsg84
Nsg85
Nsg86
Nsg87
Nsg88
Nsg89
Vallsweaty
p1549
sg91
Nsg92
V\u2620all sweaty\u2620
p1550
sg94
Nsg95
Nsg96
I91283750
sg97
Nsbag3
(g65
g5
Ntp1551
Rp1552
(dp1553
g10
Nsg69
Nsg70
Nsg71
Nsg72
Nsg73
Nsg52
Nsg74
Nsg75
Nsg76
Nsg77
Nsg78
Nsg79
Nsg80
Nsg81
Nsg82
Nsg83
Nsg84
Nsg85
Nsg86
Nsg87
Nsg88
Nsg89
VCraziMomOf2Boys
p1554
sg91
Nsg92
VTiffany Anne
p1555
sg94
Nsg95
Nsg96
I607363619
sg97
Nsbag3
(g65
g5
Ntp1556
Rp1557
(dp1558
g10
Nsg69
Nsg70
Nsg71
Nsg72
Nsg73
Nsg52
Nsg74
Nsg75
Nsg76
Nsg77
Nsg78
Nsg79
Nsg80
Nsg81
Nsg82
Nsg83
Nsg84
Nsg85
Nsg86
Nsg87
Nsg88
Nsg89
Vsherrybracy
p1559
sg91
Nsg92
Vsherry bracy
p1560
sg94
Nsg95
Nsg96
I737657348
sg97
Nsbasg108
Nsg109
Nsg110
I544178003463663616
sg111
V@DynamiteStyle @allsweaty @CraziMomOf2Boys @sherrybracy
p1561
sg113
I00
sg114
Vund
p1562
sg116
g3
(g65
g5
Ntp1563
Rp1564
(dp1565
g10
VHacker Valley, WV
p1566
sg69
V3D1957
p1567
sg70
Ven
p1568
sg71
VEastern Time (US & Canada)
p1569
sg72
I1972
sg73
I116504
sg52
VTue Mar 19 04:40:04 +0000 2013
p1570
sg74
I00
sg75
g125
sg76
Vhttps://pbs.twimg.com/profile_images/511724176546074625/Ndh7zDIk_normal.jpeg
p1571
sg77
I2127
sg78
I58747
sg79
I-18000
sg80
Nsg81
I00
sg82
Vhttps://pbs.twimg.com/profile_banners/1279517976/1411130517
p1572
sg83
I00
sg84
I01
sg85
V5E4155
p1573
sg86
I01
sg87
I00
sg88
Vhttp://abs.twimg.com/images/themes/theme10/bg.gif
p1574
sg89
Vlesaann98
p1575
sg91
I39
sg92
VLesa Moats
p1576
sg94
V7AC3EE
p1577
sg95
Nsg96
I1279517976
sg97
V642D8B
p1578
sbsg134
I0
sg135
V<a href="http://twitter.com" rel="nofollow">Twitter Web Client</a>
p1579
sg137
(lp1580
sg96
I544186619213787140
sbag3
(g4
g5
Ntp1581
Rp1582
(dp1583
g9
I0
sg10
Nsg11
Nsg12
(lp1584
sg14
I00
sg15
g3
(g4
g5
Ntp1585
Rp1586
(dp1587
g9
I85
sg10
Nsg11
Nsg12
(lp1588
sg14
I00
sg15
Nsg16
Nsg17
(lp1589
(dp1590
Vexpanded_url
p1591
Vhttp://twitter.com/tieks/status/544144845946638337/photo/1
p1592
sVdisplay_url
p1593
Vpic.twitter.com/dd8zOZ9xer
p1594
sVurl
p1595
Vhttp://t.co/dd8zOZ9xer
p1596
sVmedia_url_https
p1597
Vhttps://pbs.twimg.com/media/B4mjJorCYAErtWd.png
p1598
sVid_str
p1599
V543144616006934529
p1600
sVsizes
p1601
(dp1602
Vsmall
p1603
(dp1604
Vh
p1605
I170
sVresize
p1606
Vfit
p1607
sVw
p1608
I340
ssVlarge
p1609
(dp1610
Vh
p1611
I500
sVresize
p1612
Vfit
p1613
sVw
p1614
I1000
ssVmedium
p1615
(dp1616
Vh
p1617
I300
sVresize
p1618
Vfit
p1619
sVw
p1620
I600
ssVthumb
p1621
(dp1622
Vh
p1623
I150
sVresize
p1624
Vcrop
p1625
sVw
p1626
I150
sssVindices
p1627
(lp1628
I120
aI142
asVtype
p1629
Vphoto
p1630
sVid
p1631
I543144616006934529
sVmedia_url
p1632
Vhttp://pbs.twimg.com/media/B4mjJorCYAErtWd.png
p1633
sasg19
Nsg50
Nsg51
Nsg52
VSun Dec 14 15:00:15 +0000 2014
p1634
sg54
Nsg55
I00
sg56
Nsg58
Nsg59
Nsg60
Nsg61
I00
sg62
Nsg63
(lp1635
g3
(g65
g5
Ntp1636
Rp1637
(dp1638
g10
Nsg69
Nsg70
Nsg71
Nsg72
Nsg73
Nsg52
Nsg74
Nsg75
Nsg76
Nsg77
Nsg78
Nsg79
Nsg80
Nsg81
Nsg82
Nsg83
Nsg84
Nsg85
Nsg86
Nsg87
Nsg88
Nsg89
Vtieks
p1639
sg91
Nsg92
VTieks Girl
p1640
sg94
Nsg95
Nsg96
I33852340
sg97
Nsbasg108
Nsg109
Nsg110
Nsg111
VDay 14: RT &amp; follow @tieks for the chance to win a holiday surprise! Join in our Advent Calendar fun through 12/24! http://t.co/dd8zOZ9xer
p1641
sg113
I00
sg114
Ven
p1642
sg116
g3
(g65
g5
Ntp1643
Rp1644
(dp1645
g10
VBeverly Hills, CA
p1646
sg69
V333333
p1647
sg70
Ven
p1648
sg71
VPacific Time (US & Canada)
p1649
sg72
I152145
sg73
I9459
sg52
VTue Apr 21 08:34:50 +0000 2009
p1650
sg74
I00
sg75
VGlobetrotting fashionista and PR girl for Tieks ballet flats. Follow my blue prints, one adventure at a time.
p1651
sg76
Vhttps://pbs.twimg.com/profile_images/2958496089/608687302ffad442e727e90375234e6a_normal.png
p1652
sg77
I1958
sg78
I15499
sg79
I-28800
sg80
Nsg81
I00
sg82
Vhttps://pbs.twimg.com/profile_banners/33852340/1417806304
p1653
sg83
I00
sg84
I00
sg85
V009999
p1654
sg86
I01
sg87
I00
sg88
Vhttp://abs.twimg.com/images/themes/theme14/bg.gif
p1655
sg89
Vtieks
p1656
sg91
I397
sg92
VTieks Girl
p1657
sg94
VEFEFEF
p1658
sg95
Vhttp://t.co/yZrOO1SIji
p1659
sg96
I33852340
sg97
V000000
p1660
sbsg134
I540
sg135
V<a href="https://ads.twitter.com" rel="nofollow">Twitter Ads</a>
p1661
sg137
(lp1662
sg96
I544144845946638337
sbsg16
Nsg17
(lp1663
(dp1664
Vsource_user_id
p1665
I33852340
sVsource_status_id_str
p1666
V544144845946638337
p1667
sVexpanded_url
p1668
Vhttp://twitter.com/tieks/status/544144845946638337/photo/1
p1669
sVdisplay_url
p1670
Vpic.twitter.com/dd8zOZ9xer
p1671
sVurl
p1672
Vhttp://t.co/dd8zOZ9xer
p1673
sVmedia_url_https
p1674
Vhttps://pbs.twimg.com/media/B4mjJorCYAErtWd.png
p1675
sVsource_user_id_str
p1676
V33852340
p1677
sVsource_status_id
p1678
I544144845946638337
sVid_str
p1679
V543144616006934529
p1680
sVsizes
p1681
(dp1682
Vsmall
p1683
(dp1684
Vh
p1685
I170
sVresize
p1686
Vfit
p1687
sVw
p1688
I340
ssVlarge
p1689
(dp1690
Vh
p1691
I500
sVresize
p1692
Vfit
p1693
sVw
p1694
I1000
ssVmedium
p1695
(dp1696
Vh
p1697
I300
sVresize
p1698
Vfit
p1699
sVw
p1700
I600
ssVthumb
p1701
(dp1702
Vh
p1703
I150
sVresize
p1704
Vcrop
p1705
sVw
p1706
I150
sssVindices
p1707
(lp1708
I143
aI144
asVtype
p1709
Vphoto
p1710
sVid
p1711
I543144616006934529
sVmedia_url
p1712
Vhttp://pbs.twimg.com/media/B4mjJorCYAErtWd.png
p1713
sasg19
Nsg50
Nsg51
Nsg52
VSun Dec 14 17:45:03 +0000 2014
p1714
sg54
Nsg55
I00
sg56
Nsg58
Nsg59
Nsg60
Nsg61
I00
sg62
Nsg63
(lp1715
g3
(g65
g5
Ntp1716
Rp1717
(dp1718
g10
Nsg69
Nsg70
Nsg71
Nsg72
Nsg73
Nsg52
Nsg74
Nsg75
Nsg76
Nsg77
Nsg78
Nsg79
Nsg80
Nsg81
Nsg82
Nsg83
Nsg84
Nsg85
Nsg86
Nsg87
Nsg88
Nsg89
Vtieks
p1719
sg91
Nsg92
VTieks Girl
p1720
sg94
Nsg95
Nsg96
I33852340
sg97
Nsbag3
(g65
g5
Ntp1721
Rp1722
(dp1723
g10
Nsg69
Nsg70
Nsg71
Nsg72
Nsg73
Nsg52
Nsg74
Nsg75
Nsg76
Nsg77
Nsg78
Nsg79
Nsg80
Nsg81
Nsg82
Nsg83
Nsg84
Nsg85
Nsg86
Nsg87
Nsg88
Nsg89
Vtieks
p1724
sg91
Nsg92
VTieks Girl
p1725
sg94
Nsg95
Nsg96
I33852340
sg97
Nsbasg108
Nsg109
Nsg110
Nsg111
VRT @tieks: Day 14: RT &amp; follow @tieks for the chance to win a holiday surprise! Join in our Advent Calendar fun through 12/24! http://t.co/\u2026
p1726
sg113
I00
sg114
Ven
p1727
sg116
g3
(g65
g5
Ntp1728
Rp1729
(dp1730
g10
VHacker Valley, WV
p1731
sg69
V3D1957
p1732
sg70
Ven
p1733
sg71
VEastern Time (US & Canada)
p1734
sg72
I1972
sg73
I116504
sg52
VTue Mar 19 04:40:04 +0000 2013
p1735
sg74
I00
sg75
g125
sg76
Vhttps://pbs.twimg.com/profile_images/511724176546074625/Ndh7zDIk_normal.jpeg
p1736
sg77
I2127
sg78
I58747
sg79
I-18000
sg80
Nsg81
I00
sg82
Vhttps://pbs.twimg.com/profile_banners/1279517976/1411130517
p1737
sg83
I00
sg84
I01
sg85
V5E4155
p1738
sg86
I01
sg87
I00
sg88
Vhttp://abs.twimg.com/images/themes/theme10/bg.gif
p1739
sg89
Vlesaann98
p1740
sg91
I39
sg92
VLesa Moats
p1741
sg94
V7AC3EE
p1742
sg95
Nsg96
I1279517976
sg97
V642D8B
p1743
sbsg134
I540
sg135
V<a href="http://twitter.com" rel="nofollow">Twitter Web Client</a>
p1744
sg137
(lp1745
sg96
I544186317798535169
sbag3
(g4
g5
Ntp1746
Rp1747
(dp1748
g9
I0
sg10
Nsg11
Nsg12
(lp1749
g3
(g530
g5
Ntp1750
Rp1751
(dp1752
g534
VChristmas
p1753
sbag3
(g530
g5
Ntp1754
Rp1755
(dp1756
g534
VNorthpole
p1757
sbag3
(g530
g5
Ntp1758
Rp1759
(dp1760
g534
Vwin
p1761
sbasg14
I00
sg15
g3
(g4
g5
Ntp1762
Rp1763
(dp1764
g9
I26
sg10
Nsg11
Nsg12
(lp1765
g3
(g530
g5
Ntp1766
Rp1767
(dp1768
g534
VChristmas
p1769
sbag3
(g530
g5
Ntp1770
Rp1771
(dp1772
g534
VNorthpole
p1773
sbag3
(g530
g5
Ntp1774
Rp1775
(dp1776
g534
Vwin
p1777
sbasg14
I00
sg15
Nsg16
Nsg17
(lp1778
(dp1779
Vexpanded_url
p1780
Vhttp://twitter.com/Hallmark/status/544123415318523904/photo/1
p1781
sVdisplay_url
p1782
Vpic.twitter.com/JhotiGd6AE
p1783
sVurl
p1784
Vhttp://t.co/JhotiGd6AE
p1785
sVmedia_url_https
p1786
Vhttps://pbs.twimg.com/media/B40dXPvIQAAkoKh.jpg
p1787
sVid_str
p1788
V544123415180099584
p1789
sVsizes
p1790
(dp1791
Vsmall
p1792
(dp1793
Vh
p1794
I340
sVresize
p1795
Vfit
p1796
sVw
p1797
I340
ssVlarge
p1798
(dp1799
Vh
p1800
I1024
sVresize
p1801
Vfit
p1802
sVw
p1803
I1024
ssVmedium
p1804
(dp1805
Vh
p1806
I600
sVresize
p1807
Vfit
p1808
sVw
p1809
I600
ssVthumb
p1810
(dp1811
Vh
p1812
I150
sVresize
p1813
Vcrop
p1814
sVw
p1815
I150
sssVindices
p1816
(lp1817
I114
aI136
asVtype
p1818
Vphoto
p1819
sVid
p1820
I544123415180099584
sVmedia_url
p1821
Vhttp://pbs.twimg.com/media/B40dXPvIQAAkoKh.jpg
p1822
sasg19
Nsg50
Nsg51
Nsg52
VSun Dec 14 13:35:06 +0000 2014
p1823
sg54
Nsg55
I00
sg56
Nsg58
Nsg59
Nsg60
Nsg61
I00
sg62
Nsg63
(lp1824
sg108
Nsg109
Nsg110
Nsg111
V#Christmas hostess gift? Give warm glow w #Northpole Snowflake Candle. RT 4 chance 2 #win: http://t.co/s2BPMq3hQ8 http://t.co/JhotiGd6AE
p1825
sg113
I00
sg114
Ven
p1826
sg116
g3
(g65
g5
Ntp1827
Rp1828
(dp1829
g10
VKansas City, MO
p1830
sg69
V333333
p1831
sg70
Ven
p1832
sg71
VCentral Time (US & Canada)
p1833
sg72
I32899
sg73
I8732
sg52
VMon Mar 23 17:03:40 +0000 2009
p1834
sg74
I01
sg75
VSharing the latest and greatest news from Hallmark U.S. Managed Mon - Fri from 8 a.m. to 5 p.m. CST.
p1835
sg76
Vhttps://pbs.twimg.com/profile_images/463319400909516800/v9mXKhXh_normal.png
p1836
sg77
I1482
sg78
I1259
sg79
I-21600
sg80
Nsg81
I00
sg82
Vhttps://pbs.twimg.com/profile_banners/26040944/1416240319
p1837
sg83
I00
sg84
I00
sg85
V0084B4
p1838
sg86
I00
sg87
I00
sg88
Vhttp://pbs.twimg.com/profile_background_images/197614218/RE-branding-background_SOURCE.jpg
p1839
sg89
VHallmark
p1840
sg91
I599
sg92
VHallmark Cards
p1841
sg94
VDDEEF6
p1842
sg95
Vhttp://t.co/QEqF7m5afl
p1843
sg96
I26040944
sg97
V584982
p1844
sbsg134
I171
sg135
V<a href="https://manage.involver.com" rel="nofollow">Oracle Engage</a>
p1845
sg137
(lp1846
g3
(g289
g5
Ntp1847
Rp1848
(dp1849
g293
Vhttp://t.co/s2BPMq3hQ8
p1850
sg295
Vhttp://hall.mk/b5o
p1851
sbasg96
I544123415318523904
sbsg16
Nsg17
(lp1852
(dp1853
Vsource_user_id
p1854
I26040944
sVsource_status_id_str
p1855
V544123415318523904
p1856
sVexpanded_url
p1857
Vhttp://twitter.com/Hallmark/status/544123415318523904/photo/1
p1858
sVdisplay_url
p1859
Vpic.twitter.com/JhotiGd6AE
p1860
sVurl
p1861
Vhttp://t.co/JhotiGd6AE
p1862
sVmedia_url_https
p1863
Vhttps://pbs.twimg.com/media/B40dXPvIQAAkoKh.jpg
p1864
sVsource_user_id_str
p1865
V26040944
p1866
sVsource_status_id
p1867
I544123415318523904
sVid_str
p1868
V544123415180099584
p1869
sVsizes
p1870
(dp1871
Vsmall
p1872
(dp1873
Vh
p1874
I340
sVresize
p1875
Vfit
p1876
sVw
p1877
I340
ssVlarge
p1878
(dp1879
Vh
p1880
I1024
sVresize
p1881
Vfit
p1882
sVw
p1883
I1024
ssVmedium
p1884
(dp1885
Vh
p1886
I600
sVresize
p1887
Vfit
p1888
sVw
p1889
I600
ssVthumb
p1890
(dp1891
Vh
p1892
I150
sVresize
p1893
Vcrop
p1894
sVw
p1895
I150
sssVindices
p1896
(lp1897
I139
aI140
asVtype
p1898
Vphoto
p1899
sVid
p1900
I544123415180099584
sVmedia_url
p1901
Vhttp://pbs.twimg.com/media/B40dXPvIQAAkoKh.jpg
p1902
sasg19
Nsg50
Nsg51
Nsg52
VSun Dec 14 17:44:54 +0000 2014
p1903
sg54
Nsg55
I00
sg56
Nsg58
Nsg59
Nsg60
Nsg61
I00
sg62
Nsg63
(lp1904
g3
(g65
g5
Ntp1905
Rp1906
(dp1907
g10
Nsg69
Nsg70
Nsg71
Nsg72
Nsg73
Nsg52
Nsg74
Nsg75
Nsg76
Nsg77
Nsg78
Nsg79
Nsg80
Nsg81
Nsg82
Nsg83
Nsg84
Nsg85
Nsg86
Nsg87
Nsg88
Nsg89
VHallmark
p1908
sg91
Nsg92
VHallmark Cards
p1909
sg94
Nsg95
Nsg96
I26040944
sg97
Nsbasg108
Nsg109
Nsg110
Nsg111
VRT @Hallmark: #Christmas hostess gift? Give warm glow w #Northpole Snowflake Candle. RT 4 chance 2 #win: http://t.co/s2BPMq3hQ8 http://t.co\u2026
p1910
sg113
I00
sg114
Ven
p1911
sg116
g3
(g65
g5
Ntp1912
Rp1913
(dp1914
g10
VHacker Valley, WV
p1915
sg69
V3D1957
p1916
sg70
Ven
p1917
sg71
VEastern Time (US & Canada)
p1918
sg72
I1972
sg73
I116504
sg52
VTue Mar 19 04:40:04 +0000 2013
p1919
sg74
I00
sg75
g125
sg76
Vhttps://pbs.twimg.com/profile_images/511724176546074625/Ndh7zDIk_normal.jpeg
p1920
sg77
I2127
sg78
I58747
sg79
I-18000
sg80
Nsg81
I00
sg82
Vhttps://pbs.twimg.com/profile_banners/1279517976/1411130517
p1921
sg83
I00
sg84
I01
sg85
V5E4155
p1922
sg86
I01
sg87
I00
sg88
Vhttp://abs.twimg.com/images/themes/theme10/bg.gif
p1923
sg89
Vlesaann98
p1924
sg91
I39
sg92
VLesa Moats
p1925
sg94
V7AC3EE
p1926
sg95
Nsg96
I1279517976
sg97
V642D8B
p1927
sbsg134
I171
sg135
V<a href="http://twitter.com" rel="nofollow">Twitter Web Client</a>
p1928
sg137
(lp1929
g3
(g289
g5
Ntp1930
Rp1931
(dp1932
g293
Vhttp://t.co/s2BPMq3hQ8
p1933
sg295
Vhttp://hall.mk/b5o
p1934
sbasg96
I544186281052209152
sbag3
(g4
g5
Ntp1935
Rp1936
(dp1937
g9
I0
sg10
Nsg11
Nsg12
(lp1938
g3
(g530
g5
Ntp1939
Rp1940
(dp1941
g534
V12daysofbenefit
p1942
sbasg14
I00
sg15
g3
(g4
g5
Ntp1943
Rp1944
(dp1945
g9
I184
sg10
Nsg11
Nsg12
(lp1946
g3
(g530
g5
Ntp1947
Rp1948
(dp1949
g534
V12daysofbenefit
p1950
sbasg14
I00
sg15
Nsg16
Nsg17
(lp1951
sg19
Nsg50
Nsg51
Nsg52
VSun Dec 14 14:02:40 +0000 2014
p1952
sg54
Nsg55
I00
sg56
Nsg58
Nsg59
Nsg60
Nsg61
I00
sg62
Nsg63
(lp1953
g3
(g65
g5
Ntp1954
Rp1955
(dp1956
g10
Nsg69
Nsg70
Nsg71
Nsg72
Nsg73
Nsg52
Nsg74
Nsg75
Nsg76
Nsg77
Nsg78
Nsg79
Nsg80
Nsg81
Nsg82
Nsg83
Nsg84
Nsg85
Nsg86
Nsg87
Nsg88
Nsg89
VBenefitBeauty
p1957
sg91
Nsg92
VBenefit Cosmetics
p1958
sg94
Nsg95
Nsg96
I18220767
sg97
Nsbasg108
Nsg109
Nsg110
Nsg111
VRT &amp; follow @BenefitBeauty for a chance to WIN the entire Benefit brow collection! #12daysofbenefit http://t.co/W537aR8E1n
p1959
sg113
I00
sg114
Ven
p1960
sg116
g3
(g65
g5
Ntp1961
Rp1962
(dp1963
g10
VSan Francisco, CA
p1964
sg69
V74A39A
p1965
sg70
Ven
p1966
sg71
VPacific Time (US & Canada)
p1967
sg72
I431484
sg73
I29129
sg52
VThu Dec 18 18:14:32 +0000 2008
p1968
sg74
I01
sg75
VThe official twitter of Benefit Cosmetics. Laughter is the best cosmetic!
p1969
sg76
Vhttps://pbs.twimg.com/profile_images/2219271581/profile_normal.jpg
p1970
sg77
I2131
sg78
I27334
sg79
I-28800
sg80
Nsg81
I00
sg82
Vhttps://pbs.twimg.com/profile_banners/18220767/1401401087
p1971
sg83
I00
sg84
I00
sg85
VF16B95
p1972
sg86
I01
sg87
I00
sg88
Vhttp://pbs.twimg.com/profile_background_images/378800000001354083/0386982dda99fecbd7407b7b0e82a62b.jpeg
p1973
sg89
VBenefitBeauty
p1974
sg91
I2657
sg92
VBenefit Cosmetics
p1975
sg94
VF5F5F5
p1976
sg95
Vhttp://t.co/FKn6v7mXzI
p1977
sg96
I18220767
sg97
VFFFFFF
p1978
sbsg134
I1060
sg135
V<a href="http://www.offerpop.com" rel="nofollow">Offerpop Apps</a>
p1979
sg137
(lp1980
g3
(g289
g5
Ntp1981
Rp1982
(dp1983
g293
Vhttp://t.co/W537aR8E1n
p1984
sg295
Vhttp://bit.ly/1vOvLf9
p1985
sbasg96
I544130355754987522
sbsg16
Nsg17
(lp1986
sg19
Nsg50
Nsg51
Nsg52
VSun Dec 14 17:44:48 +0000 2014
p1987
sg54
Nsg55
I00
sg56
Nsg58
Nsg59
Nsg60
Nsg61
I00
sg62
Nsg63
(lp1988
g3
(g65
g5
Ntp1989
Rp1990
(dp1991
g10
Nsg69
Nsg70
Nsg71
Nsg72
Nsg73
Nsg52
Nsg74
Nsg75
Nsg76
Nsg77
Nsg78
Nsg79
Nsg80
Nsg81
Nsg82
Nsg83
Nsg84
Nsg85
Nsg86
Nsg87
Nsg88
Nsg89
VBenefitBeauty
p1992
sg91
Nsg92
VBenefit Cosmetics
p1993
sg94
Nsg95
Nsg96
I18220767
sg97
Nsbag3
(g65
g5
Ntp1994
Rp1995
(dp1996
g10
Nsg69
Nsg70
Nsg71
Nsg72
Nsg73
Nsg52
Nsg74
Nsg75
Nsg76
Nsg77
Nsg78
Nsg79
Nsg80
Nsg81
Nsg82
Nsg83
Nsg84
Nsg85
Nsg86
Nsg87
Nsg88
Nsg89
VBenefitBeauty
p1997
sg91
Nsg92
VBenefit Cosmetics
p1998
sg94
Nsg95
Nsg96
I18220767
sg97
Nsbasg108
Nsg109
Nsg110
Nsg111
VRT @BenefitBeauty: RT &amp; follow @BenefitBeauty for a chance to WIN the entire Benefit brow collection! #12daysofbenefit http://t.co/W537aR8E\u2026
p1999
sg113
I00
sg114
Ven
p2000
sg116
g3
(g65
g5
Ntp2001
Rp2002
(dp2003
g10
VHacker Valley, WV
p2004
sg69
V3D1957
p2005
sg70
Ven
p2006
sg71
VEastern Time (US & Canada)
p2007
sg72
I1972
sg73
I116504
sg52
VTue Mar 19 04:40:04 +0000 2013
p2008
sg74
I00
sg75
g125
sg76
Vhttps://pbs.twimg.com/profile_images/511724176546074625/Ndh7zDIk_normal.jpeg
p2009
sg77
I2127
sg78
I58747
sg79
I-18000
sg80
Nsg81
I00
sg82
Vhttps://pbs.twimg.com/profile_banners/1279517976/1411130517
p2010
sg83
I00
sg84
I01
sg85
V5E4155
p2011
sg86
I01
sg87
I00
sg88
Vhttp://abs.twimg.com/images/themes/theme10/bg.gif
p2012
sg89
Vlesaann98
p2013
sg91
I39
sg92
VLesa Moats
p2014
sg94
V7AC3EE
p2015
sg95
Nsg96
I1279517976
sg97
V642D8B
p2016
sbsg134
I1060
sg135
V<a href="http://twitter.com" rel="nofollow">Twitter Web Client</a>
p2017
sg137
(lp2018
g3
(g289
g5
Ntp2019
Rp2020
(dp2021
g293
Vhttp://t.co/W537aR8E1n
p2022
sg295
Vhttp://bit.ly/1vOvLf9
p2023
sbasg96
I544186256314224640
sbaa.