(lp0
S'stitchesintyme'
p1
a(lp2
ccopy_reg
_reconstructor
p3
(ctwitter
Status
p4
c__builtin__
object
p5
Ntp6
Rp7
(dp8
S'_favorite_count'
p9
I0
sS'_location'
p10
NsS'_withheld_scope'
p11
NsS'hashtags'
p12
(lp13
sS'_truncated'
p14
I00
sS'_retweeted_status'
p15
NsS'_withheld_copyright'
p16
NsS'media'
p17
(lp18
sS'_place'
p19
NsS'_contributors'
p20
NsS'_current_user_retweet'
p21
NsS'_created_at'
p22
VWed Dec 10 20:01:41 +0000 2014
p23
sS'_scopes'
p24
NsS'_possibly_sensitive'
p25
I00
sS'_in_reply_to_screen_name'
p26
NsS'_coordinates'
p27
NsS'_in_reply_to_user_id'
p28
NsS'_geo'
p29
NsS'_favorited'
p30
I00
sS'_withheld_in_countries'
p31
NsS'user_mentions'
p32
(lp33
g3
(ctwitter
User
p34
g5
Ntp35
Rp36
(dp37
g10
NsS'_profile_text_color'
p38
NsS'_lang'
p39
NsS'_time_zone'
p40
NsS'_followers_count'
p41
NsS'_statuses_count'
p42
Nsg22
NsS'_verified'
p43
NsS'_description'
p44
NsS'_profile_image_url'
p45
NsS'_friends_count'
p46
NsS'_favourites_count'
p47
NsS'_utc_offset'
p48
NsS'_status'
p49
NsS'_protected'
p50
NsS'_profile_banner_url'
p51
NsS'_notifications'
p52
NsS'_profile_background_tile'
p53
NsS'_profile_link_color'
p54
NsS'_geo_enabled'
p55
NsS'_contributors_enabled'
p56
NsS'_profile_background_image_url'
p57
NsS'_screen_name'
p58
VKnitPicks
p59
sS'_listed_count'
p60
NsS'_name'
p61
VKnit Picks staff
p62
sS'_profile_sidebar_fill_color'
p63
NsS'_url'
p64
NsS'_id'
p65
I44473771
sS'_profile_background_color'
p66
NsbasS'_now'
p67
NsS'_id_str'
p68
V542771152888684544
p69
sS'_in_reply_to_status_id'
p70
NsS'_text'
p71
VI just entered the @KnitPicks Facebook Fan contest! I hope I win ! Click here to enter too: http://t.co/o9XUBioGaA
p72
sS'_retweeted'
p73
I00
sS'lang'
p74
Ven
p75
sS'_user'
p76
g3
(g34
g5
Ntp77
Rp78
(dp79
g10
VBay City, Michigan
p80
sg38
V333333
p81
sg39
Ven
p82
sg40
VAtlantic Time (Canada)
p83
sg41
I7
sg42
I10
sg22
VFri Jun 08 16:43:33 +0000 2012
p84
sg43
I00
sg44
VYour alterations destination in Bay City!
p85
sg45
Vhttps://pbs.twimg.com/profile_images/2290138320/SITsign2s_normal.jpg
p86
sg46
I8
sg47
I0
sg48
I-14400
sg49
Nsg50
I00
sg51
Nsg52
I00
sg53
I00
sg54
V0084B4
p87
sg55
I00
sg56
I00
sg57
Vhttp://abs.twimg.com/images/themes/theme1/bg.png
p88
sg58
Vstitchesintyme
p89
sg60
I0
sg61
VStitches in Tyme
p90
sg63
VDDEEF6
p91
sg64
Vhttp://t.co/eLwruaBeHk
p92
sg65
I602978346
sg66
VC0DEED
p93
sbsS'_retweet_count'
p94
I0
sS'_source'
p95
V<a href="https://dev.twitter.com/docs/tfw" rel="nofollow">Twitter for Websites</a>
p96
sS'urls'
p97
(lp98
g3
(ctwitter
Url
p99
g5
Ntp100
Rp101
(dp102
S'url'
p103
Vhttp://t.co/o9XUBioGaA
p104
sS'expanded_url'
p105
Vhttp://woobox.com/myiq94/cieujg
p106
sbasg65
I542771152888684544
sbag3
(g4
g5
Ntp107
Rp108
(dp109
g9
I0
sg10
Nsg11
Nsg12
(lp110
g3
(ctwitter
Hashtag
p111
g5
Ntp112
Rp113
(dp114
S'text'
p115
Vwin
p116
sbag3
(g111
g5
Ntp117
Rp118
(dp119
g115
Vgiveaway
p120
sbasg14
I00
sg15
Nsg16
Nsg17
(lp121
sg19
Nsg20
Nsg21
Nsg22
VMon Nov 04 22:32:22 +0000 2013
p122
sg24
Nsg25
I00
sg26
Nsg27
Nsg28
Nsg29
Nsg30
I00
sg31
Nsg32
(lp123
sg67
Nsg68
V397491540160806913
p124
sg70
Nsg71
VI just entered to #win &amp; you can too: "$100 WAWAK Gift Certificate". Enter the #giveaway here: http://t.co/vXgb5I9M3b
p125
sg73
I00
sg74
Ven
p126
sg76
g3
(g34
g5
Ntp127
Rp128
(dp129
g10
VBay City, Michigan
p130
sg38
V333333
p131
sg39
Ven
p132
sg40
VAtlantic Time (Canada)
p133
sg41
I7
sg42
I10
sg22
VFri Jun 08 16:43:33 +0000 2012
p134
sg43
I00
sg44
VYour alterations destination in Bay City!
p135
sg45
Vhttps://pbs.twimg.com/profile_images/2290138320/SITsign2s_normal.jpg
p136
sg46
I8
sg47
I0
sg48
I-14400
sg49
Nsg50
I00
sg51
Nsg52
I00
sg53
I00
sg54
V0084B4
p137
sg55
I00
sg56
I00
sg57
Vhttp://abs.twimg.com/images/themes/theme1/bg.png
p138
sg58
Vstitchesintyme
p139
sg60
I0
sg61
VStitches in Tyme
p140
sg63
VDDEEF6
p141
sg64
Vhttp://t.co/eLwruaBeHk
p142
sg65
I602978346
sg66
VC0DEED
p143
sbsg94
I0
sg95
V<a href="https://dev.twitter.com/docs/tfw" rel="nofollow">Twitter for Websites</a>
p144
sg97
(lp145
g3
(g99
g5
Ntp146
Rp147
(dp148
g103
Vhttp://t.co/vXgb5I9M3b
p149
sg105
Vhttp://is.gd/m553WB
p150
sbasg65
I397491540160806913
sbag3
(g4
g5
Ntp151
Rp152
(dp153
g9
I0
sg10
Nsg11
Nsg12
(lp154
g3
(g111
g5
Ntp155
Rp156
(dp157
g115
VAshleyNGB
p158
sbasg14
I00
sg15
Nsg16
Nsg17
(lp159
sg19
Nsg20
Nsg21
Nsg22
VTue Feb 12 02:23:16 +0000 2013
p160
sg24
Nsg25
Nsg26
Nsg27
Nsg28
Nsg29
Nsg30
I00
sg31
Nsg32
(lp161
sg67
Nsg68
V301154472204304384
p162
sg70
Nsg71
V#AshleyNGB
p163
sg73
I00
sg74
Vund
p164
sg76
g3
(g34
g5
Ntp165
Rp166
(dp167
g10
VBay City, Michigan
p168
sg38
V333333
p169
sg39
Ven
p170
sg40
VAtlantic Time (Canada)
p171
sg41
I7
sg42
I10
sg22
VFri Jun 08 16:43:33 +0000 2012
p172
sg43
I00
sg44
VYour alterations destination in Bay City!
p173
sg45
Vhttps://pbs.twimg.com/profile_images/2290138320/SITsign2s_normal.jpg
p174
sg46
I8
sg47
I0
sg48
I-14400
sg49
Nsg50
I00
sg51
Nsg52
I00
sg53
I00
sg54
V0084B4
p175
sg55
I00
sg56
I00
sg57
Vhttp://abs.twimg.com/images/themes/theme1/bg.png
p176
sg58
Vstitchesintyme
p177
sg60
I0
sg61
VStitches in Tyme
p178
sg63
VDDEEF6
p179
sg64
Vhttp://t.co/eLwruaBeHk
p180
sg65
I602978346
sg66
VC0DEED
p181
sbsg94
I0
sg95
V<a href="https://mobile.twitter.com" rel="nofollow">Mobile Web (M5)</a>
p182
sg97
(lp183
sg65
I301154472204304384
sbag3
(g4
g5
Ntp184
Rp185
(dp186
g9
I0
sg10
Nsg11
Nsg12
(lp187
sg14
I00
sg15
Nsg16
Nsg17
(lp188
sg19
Nsg20
Nsg21
Nsg22
VSun Jan 20 04:16:53 +0000 2013
p189
sg24
Nsg25
I00
sg26
Nsg27
Nsg28
Nsg29
Nsg30
I00
sg31
Nsg32
(lp190
sg67
Nsg68
V292848145128366081
p191
sg70
Nsg71
VPrevent the labeling of physical illnesses as mental illnesses based on revised criteria of the DSM-5 in May 2013. http://t.co/hUs6Dg7s
p192
sg73
I00
sg74
Ven
p193
sg76
g3
(g34
g5
Ntp194
Rp195
(dp196
g10
VBay City, Michigan
p197
sg38
V333333
p198
sg39
Ven
p199
sg40
VAtlantic Time (Canada)
p200
sg41
I7
sg42
I10
sg22
VFri Jun 08 16:43:33 +0000 2012
p201
sg43
I00
sg44
VYour alterations destination in Bay City!
p202
sg45
Vhttps://pbs.twimg.com/profile_images/2290138320/SITsign2s_normal.jpg
p203
sg46
I8
sg47
I0
sg48
I-14400
sg49
Nsg50
I00
sg51
Nsg52
I00
sg53
I00
sg54
V0084B4
p204
sg55
I00
sg56
I00
sg57
Vhttp://abs.twimg.com/images/themes/theme1/bg.png
p205
sg58
Vstitchesintyme
p206
sg60
I0
sg61
VStitches in Tyme
p207
sg63
VDDEEF6
p208
sg64
Vhttp://t.co/eLwruaBeHk
p209
sg65
I602978346
sg66
VC0DEED
p210
sbsg94
I0
sg95
V<a href="https://dev.twitter.com/docs/tfw" rel="nofollow">Twitter for Websites</a>
p211
sg97
(lp212
g3
(g99
g5
Ntp213
Rp214
(dp215
g103
Vhttp://t.co/hUs6Dg7s
p216
sg105
Vhttp://wh.gov/md6g
p217
sbasg65
I292848145128366081
sbag3
(g4
g5
Ntp218
Rp219
(dp220
g9
I0
sg10
Nsg11
Nsg12
(lp221
g3
(g111
g5
Ntp222
Rp223
(dp224
g115
Vfedexgrantcontest
p225
sbasg14
I00
sg15
Nsg16
Nsg17
(lp226
sg19
Nsg20
Nsg21
Nsg22
VMon Oct 29 22:11:51 +0000 2012
p227
sg24
Nsg25
I00
sg26
Nsg27
Nsg28
Nsg29
Nsg30
I00
sg31
Nsg32
(lp228
sg67
Nsg68
V263040479015362561
p229
sg70
Nsg71
VI just voted for a Stitches in Tyme in the Small Business Grant Contest from FedEx. #fedexgrantcontest http://t.co/jOCyDRrf
p230
sg73
I00
sg74
Ven
p231
sg76
g3
(g34
g5
Ntp232
Rp233
(dp234
g10
VBay City, Michigan
p235
sg38
V333333
p236
sg39
Ven
p237
sg40
VAtlantic Time (Canada)
p238
sg41
I7
sg42
I10
sg22
VFri Jun 08 16:43:33 +0000 2012
p239
sg43
I00
sg44
VYour alterations destination in Bay City!
p240
sg45
Vhttps://pbs.twimg.com/profile_images/2290138320/SITsign2s_normal.jpg
p241
sg46
I8
sg47
I0
sg48
I-14400
sg49
Nsg50
I00
sg51
Nsg52
I00
sg53
I00
sg54
V0084B4
p242
sg55
I00
sg56
I00
sg57
Vhttp://abs.twimg.com/images/themes/theme1/bg.png
p243
sg58
Vstitchesintyme
p244
sg60
I0
sg61
VStitches in Tyme
p245
sg63
VDDEEF6
p246
sg64
Vhttp://t.co/eLwruaBeHk
p247
sg65
I602978346
sg66
VC0DEED
p248
sbsg94
I0
sg95
V<a href="https://dev.twitter.com/docs/tfw" rel="nofollow">Twitter for Websites</a>
p249
sg97
(lp250
g3
(g99
g5
Ntp251
Rp252
(dp253
g103
Vhttp://t.co/jOCyDRrf
p254
sg105
Vhttp://bit.ly/RNxnSS
p255
sbasg65
I263040479015362561
sbag3
(g4
g5
Ntp256
Rp257
(dp258
g9
I0
sg10
Nsg11
Nsg12
(lp259
g3
(g111
g5
Ntp260
Rp261
(dp262
g115
VDrawtheline
p263
sbasg14
I00
sg15
Nsg16
Nsg17
(lp264
sg19
Nsg20
Nsg21
Nsg22
VFri Oct 19 19:30:27 +0000 2012
p265
sg24
Nsg25
I00
sg26
Nsg27
Nsg28
Nsg29
Nsg30
I00
sg31
Nsg32
(lp266
g3
(g34
g5
Ntp267
Rp268
(dp269
g10
Nsg38
Nsg39
Nsg40
Nsg41
Nsg42
Nsg22
Nsg43
Nsg44
Nsg45
Nsg46
Nsg47
Nsg48
Nsg49
Nsg50
Nsg51
Nsg52
Nsg53
Nsg54
Nsg55
Nsg56
Nsg57
Nsg58
VReproRights
p270
sg60
Nsg61
VCenterforReproRights
p271
sg63
Nsg64
Nsg65
I50310311
sg66
Nsbasg67
Nsg68
V259375980202840064
p272
sg70
Nsg71
VI signed the Bill of @ReproRights &amp; Amy Poehler thanked me. What?! See for yourself. #Drawtheline &amp; make sure to sign. http://t.co/LAZLydLW
p273
sg73
I00
sg74
Ven
p274
sg76
g3
(g34
g5
Ntp275
Rp276
(dp277
g10
VBay City, Michigan
p278
sg38
V333333
p279
sg39
Ven
p280
sg40
VAtlantic Time (Canada)
p281
sg41
I7
sg42
I10
sg22
VFri Jun 08 16:43:33 +0000 2012
p282
sg43
I00
sg44
VYour alterations destination in Bay City!
p283
sg45
Vhttps://pbs.twimg.com/profile_images/2290138320/SITsign2s_normal.jpg
p284
sg46
I8
sg47
I0
sg48
I-14400
sg49
Nsg50
I00
sg51
Nsg52
I00
sg53
I00
sg54
V0084B4
p285
sg55
I00
sg56
I00
sg57
Vhttp://abs.twimg.com/images/themes/theme1/bg.png
p286
sg58
Vstitchesintyme
p287
sg60
I0
sg61
VStitches in Tyme
p288
sg63
VDDEEF6
p289
sg64
Vhttp://t.co/eLwruaBeHk
p290
sg65
I602978346
sg66
VC0DEED
p291
sbsg94
I0
sg95
V<a href="https://dev.twitter.com/docs/tfw" rel="nofollow">Twitter for Websites</a>
p292
sg97
(lp293
g3
(g99
g5
Ntp294
Rp295
(dp296
g103
Vhttp://t.co/LAZLydLW
p297
sg105
Vhttp://bit.ly/PTqCLp
p298
sbasg65
I259375980202840064
sbag3
(g4
g5
Ntp299
Rp300
(dp301
g9
I0
sg10
Nsg11
Nsg12
(lp302
g3
(g111
g5
Ntp303
Rp304
(dp305
g115
VUnlockBigBangTheory
p306
sbasg14
I00
sg15
Nsg16
Nsg17
(lp307
sg19
Nsg20
Nsg21
Nsg22
VTue Aug 28 17:01:53 +0000 2012
p308
sg24
Nsg25
I00
sg26
Nsg27
Nsg28
Nsg29
Nsg30
I00
sg31
Nsg32
(lp309
sg67
Nsg68
V240494422750535681
p310
sg70
Nsg71
VI want to see an exclusive photo from "The Big Bang Theory".  RT to help me #UnlockBigBangTheory http://t.co/t0fwiQ9X
p311
sg73
I00
sg74
Ven
p312
sg76
g3
(g34
g5
Ntp313
Rp314
(dp315
g10
VBay City, Michigan
p316
sg38
V333333
p317
sg39
Ven
p318
sg40
VAtlantic Time (Canada)
p319
sg41
I7
sg42
I10
sg22
VFri Jun 08 16:43:33 +0000 2012
p320
sg43
I00
sg44
VYour alterations destination in Bay City!
p321
sg45
Vhttps://pbs.twimg.com/profile_images/2290138320/SITsign2s_normal.jpg
p322
sg46
I8
sg47
I0
sg48
I-14400
sg49
Nsg50
I00
sg51
Nsg52
I00
sg53
I00
sg54
V0084B4
p323
sg55
I00
sg56
I00
sg57
Vhttp://abs.twimg.com/images/themes/theme1/bg.png
p324
sg58
Vstitchesintyme
p325
sg60
I0
sg61
VStitches in Tyme
p326
sg63
VDDEEF6
p327
sg64
Vhttp://t.co/eLwruaBeHk
p328
sg65
I602978346
sg66
VC0DEED
p329
sbsg94
I0
sg95
V<a href="https://dev.twitter.com/docs/tfw" rel="nofollow">Twitter for Websites</a>
p330
sg97
(lp331
g3
(g99
g5
Ntp332
Rp333
(dp334
g103
Vhttp://t.co/t0fwiQ9X
p335
sg105
Vhttp://www.cbs.com/shows/fall-previews-2012/flock-to-unlock/
p336
sbasg65
I240494422750535681
sbag3
(g4
g5
Ntp337
Rp338
(dp339
g9
I0
sg10
Nsg11
Nsg12
(lp340
sg14
I00
sg15
Nsg16
Nsg17
(lp341
sg19
Nsg20
Nsg21
Nsg22
VThu Jun 14 19:13:57 +0000 2012
p342
sg24
Nsg25
I00
sg26
Nsg27
Nsg28
Nsg29
Nsg30
I00
sg31
Nsg32
(lp343
sg67
Nsg68
V213348569829216256
p344
sg70
Nsg71
VMission: Small Business\u2120: http://t.co/jPTesq7x 16 more days left to vote!
p345
sg73
I00
sg74
Ven
p346
sg76
g3
(g34
g5
Ntp347
Rp348
(dp349
g10
VBay City, Michigan
p350
sg38
V333333
p351
sg39
Ven
p352
sg40
VAtlantic Time (Canada)
p353
sg41
I7
sg42
I10
sg22
VFri Jun 08 16:43:33 +0000 2012
p354
sg43
I00
sg44
VYour alterations destination in Bay City!
p355
sg45
Vhttps://pbs.twimg.com/profile_images/2290138320/SITsign2s_normal.jpg
p356
sg46
I8
sg47
I0
sg48
I-14400
sg49
Nsg50
I00
sg51
Nsg52
I00
sg53
I00
sg54
V0084B4
p357
sg55
I00
sg56
I00
sg57
Vhttp://abs.twimg.com/images/themes/theme1/bg.png
p358
sg58
Vstitchesintyme
p359
sg60
I0
sg61
VStitches in Tyme
p360
sg63
VDDEEF6
p361
sg64
Vhttp://t.co/eLwruaBeHk
p362
sg65
I602978346
sg66
VC0DEED
p363
sbsg94
I0
sg95
V<a href="https://dev.twitter.com/docs/tfw" rel="nofollow">Twitter for Websites</a>
p364
sg97
(lp365
g3
(g99
g5
Ntp366
Rp367
(dp368
g103
Vhttp://t.co/jPTesq7x
p369
sg105
Vhttp://bit.ly/LO8RQ2
p370
sbasg65
I213348569829216256
sbag3
(g4
g5
Ntp371
Rp372
(dp373
g9
I0
sg10
Nsg11
Nsg12
(lp374
sg14
I00
sg15
Nsg16
Nsg17
(lp375
sg19
Nsg20
Nsg21
Nsg22
VFri Jun 08 17:14:13 +0000 2012
p376
sg24
Nsg25
I00
sg26
Nsg27
Nsg28
Nsg29
Nsg30
I00
sg31
Nsg32
(lp377
sg67
Nsg68
V211144110034264065
p378
sg70
Nsg71
VMission: Small Business\u2120: http://t.co/juUyUEqp
p379
sg73
I00
sg74
Ven
p380
sg76
g3
(g34
g5
Ntp381
Rp382
(dp383
g10
VBay City, Michigan
p384
sg38
V333333
p385
sg39
Ven
p386
sg40
VAtlantic Time (Canada)
p387
sg41
I7
sg42
I10
sg22
VFri Jun 08 16:43:33 +0000 2012
p388
sg43
I00
sg44
VYour alterations destination in Bay City!
p389
sg45
Vhttps://pbs.twimg.com/profile_images/2290138320/SITsign2s_normal.jpg
p390
sg46
I8
sg47
I0
sg48
I-14400
sg49
Nsg50
I00
sg51
Nsg52
I00
sg53
I00
sg54
V0084B4
p391
sg55
I00
sg56
I00
sg57
Vhttp://abs.twimg.com/images/themes/theme1/bg.png
p392
sg58
Vstitchesintyme
p393
sg60
I0
sg61
VStitches in Tyme
p394
sg63
VDDEEF6
p395
sg64
Vhttp://t.co/eLwruaBeHk
p396
sg65
I602978346
sg66
VC0DEED
p397
sbsg94
I0
sg95
V<a href="https://dev.twitter.com/docs/tfw" rel="nofollow">Twitter for Websites</a>
p398
sg97
(lp399
g3
(g99
g5
Ntp400
Rp401
(dp402
g103
Vhttp://t.co/juUyUEqp
p403
sg105
Vhttp://bit.ly/Ltx2mI
p404
sbasg65
I211144110034264065
sbag3
(g4
g5
Ntp405
Rp406
(dp407
g9
I0
sg10
Nsg11
Nsg12
(lp408
sg14
I00
sg15
Nsg16
Nsg17
(lp409
sg19
Nsg20
Nsg21
Nsg22
VFri Jun 08 16:58:57 +0000 2012
p410
sg24
Nsg25
Nsg26
Nsg27
Nsg28
Nsg29
Nsg30
I00
sg31
Nsg32
(lp411
sg67
Nsg68
V211140270736158722
p412
sg70
Nsg71
VHelp us get 250 votes at Mission: Small Business\u2120 to qualify for a $250,000 Grant. Click \u201cSupport\u201d on the home page, look for us &amp; vote!
p413
sg73
I00
sg74
Ven
p414
sg76
g3
(g34
g5
Ntp415
Rp416
(dp417
g10
VBay City, Michigan
p418
sg38
V333333
p419
sg39
Ven
p420
sg40
VAtlantic Time (Canada)
p421
sg41
I7
sg42
I10
sg22
VFri Jun 08 16:43:33 +0000 2012
p422
sg43
I00
sg44
VYour alterations destination in Bay City!
p423
sg45
Vhttps://pbs.twimg.com/profile_images/2290138320/SITsign2s_normal.jpg
p424
sg46
I8
sg47
I0
sg48
I-14400
sg49
Nsg50
I00
sg51
Nsg52
I00
sg53
I00
sg54
V0084B4
p425
sg55
I00
sg56
I00
sg57
Vhttp://abs.twimg.com/images/themes/theme1/bg.png
p426
sg58
Vstitchesintyme
p427
sg60
I0
sg61
VStitches in Tyme
p428
sg63
VDDEEF6
p429
sg64
Vhttp://t.co/eLwruaBeHk
p430
sg65
I602978346
sg66
VC0DEED
p431
sbsg94
I0
sg95
V<a href="http://twitter.com" rel="nofollow">Twitter Web Client</a>
p432
sg97
(lp433
sg65
I211140270736158722
sbaa.