(lp0
S'ARStateChamber'
p1
a(lp2
ccopy_reg
_reconstructor
p3
(ctwitter.status
Status
p4
c__builtin__
object
p5
Ntp6
Rp7
(dp8
S'_favorite_count'
p9
I0
sS'_location'
p10
NsS'_withheld_scope'
p11
NsS'hashtags'
p12
(lp13
sS'_truncated'
p14
I00
sS'_retweeted_status'
p15
NsS'_withheld_copyright'
p16
NsS'media'
p17
(lp18
sS'_place'
p19
NsS'_contributors'
p20
NsS'_current_user_retweet'
p21
NsS'_created_at'
p22
VFri Dec 12 22:19:22 +0000 2014
p23
sS'_scopes'
p24
NsS'_possibly_sensitive'
p25
I00
sS'_in_reply_to_screen_name'
p26
NsS'_coordinates'
p27
NsS'_in_reply_to_user_id'
p28
NsS'_geo'
p29
NsS'_favorited'
p30
I00
sS'_withheld_in_countries'
p31
NsS'user_mentions'
p32
(lp33
sS'_now'
p34
NsS'_id_str'
p35
NsS'_in_reply_to_status_id'
p36
NsS'_text'
p37
VFor more information on the dates, times and locations of the meetings, click http://t.co/2an6syZJ6h
p38
sS'_retweeted'
p39
I00
sS'lang'
p40
Ven
p41
sS'_user'
p42
g3
(ctwitter.user
User
p43
g5
Ntp44
Rp45
(dp46
g10
VLittle Rock, AR
p47
sS'_profile_text_color'
p48
V333333
p49
sS'_lang'
p50
Ven
p51
sS'_time_zone'
p52
NsS'_followers_count'
p53
I709
sS'_statuses_count'
p54
I3595
sg22
VFri Feb 07 20:41:21 +0000 2014
p55
sS'_verified'
p56
I00
sS'_description'
p57
VThe Arkansas State Chamber of Commerce/Associated Industry of Arkansas is the leading voice for business at the State Capitol.
p58
sS'_profile_image_url'
p59
Vhttps://pbs.twimg.com/profile_images/431907443757432832/SotGENdf_normal.png
p60
sS'_friends_count'
p61
I504
sS'_favourites_count'
p62
I149
sS'_utc_offset'
p63
NsS'_status'
p64
NsS'_protected'
p65
I00
sS'_profile_banner_url'
p66
Vhttps://pbs.twimg.com/profile_banners/2332384178/1391810227
p67
sS'_notifications'
p68
I00
sS'_profile_background_tile'
p69
I00
sS'_profile_link_color'
p70
V0084B4
p71
sS'_geo_enabled'
p72
I01
sS'_contributors_enabled'
p73
I00
sS'_profile_background_image_url'
p74
Vhttp://abs.twimg.com/images/themes/theme1/bg.png
p75
sS'_screen_name'
p76
VARStateChamber
p77
sS'_listed_count'
p78
I16
sS'_name'
p79
VAR State Chamber
p80
sS'_profile_sidebar_fill_color'
p81
VDDEEF6
p82
sS'_url'
p83
Vhttp://t.co/3xxZUTMJJj
p84
sS'_id'
p85
I2332384178
sS'_profile_background_color'
p86
VC0DEED
p87
sbsS'_retweet_count'
p88
I0
sS'_source'
p89
V<a href="http://twitter.com" rel="nofollow">Twitter Web Client</a>
p90
sS'urls'
p91
(lp92
g3
(ctwitter.url
Url
p93
g5
Ntp94
Rp95
(dp96
S'url'
p97
Vhttp://t.co/2an6syZJ6h
p98
sS'expanded_url'
p99
Vhttp://www.arkansasstatechamber.com/news-center/news-releases/u.s.-sen.-john-boozman-schedules-meetings-with-local-chambers-throughout-arkansas.html
p100
sbasg85
I543530575676837888
sbag3
(g4
g5
Ntp101
Rp102
(dp103
g9
I0
sg10
Nsg11
Nsg12
(lp104
sg14
I00
sg15
Nsg16
Nsg17
(lp105
sg19
Nsg20
Nsg21
Nsg22
VFri Dec 12 22:19:06 +0000 2014
p106
sg24
Nsg25
Nsg26
Nsg27
Nsg28
Nsg29
Nsg30
I00
sg31
Nsg32
(lp107
sg34
Nsg35
Nsg36
Nsg37
VWe encourage all State Chamber/AIA members and local chamber members to attend these meetings and visit with Sen. Boozman.
p108
sg39
I00
sg40
Ven
p109
sg42
g3
(g43
g5
Ntp110
Rp111
(dp112
g10
VLittle Rock, AR
p113
sg48
V333333
p114
sg50
Ven
p115
sg52
Nsg53
I709
sg54
I3595
sg22
VFri Feb 07 20:41:21 +0000 2014
p116
sg56
I00
sg57
VThe Arkansas State Chamber of Commerce/Associated Industry of Arkansas is the leading voice for business at the State Capitol.
p117
sg59
Vhttps://pbs.twimg.com/profile_images/431907443757432832/SotGENdf_normal.png
p118
sg61
I504
sg62
I149
sg63
Nsg64
Nsg65
I00
sg66
Vhttps://pbs.twimg.com/profile_banners/2332384178/1391810227
p119
sg68
I00
sg69
I00
sg70
V0084B4
p120
sg72
I01
sg73
I00
sg74
Vhttp://abs.twimg.com/images/themes/theme1/bg.png
p121
sg76
VARStateChamber
p122
sg78
I16
sg79
VAR State Chamber
p123
sg81
VDDEEF6
p124
sg83
Vhttp://t.co/3xxZUTMJJj
p125
sg85
I2332384178
sg86
VC0DEED
p126
sbsg88
I0
sg89
V<a href="http://twitter.com" rel="nofollow">Twitter Web Client</a>
p127
sg91
(lp128
sg85
I543530509062930433
sbag3
(g4
g5
Ntp129
Rp130
(dp131
g9
I0
sg10
Nsg11
Nsg12
(lp132
sg14
I00
sg15
Nsg16
Nsg17
(lp133
sg19
Nsg20
Nsg21
Nsg22
VFri Dec 12 22:18:21 +0000 2014
p134
sg24
Nsg25
Nsg26
Nsg27
Nsg28
Nsg29
Nsg30
I00
sg31
Nsg32
(lp135
sg34
Nsg35
Nsg36
Nsg37
VU.S. Sen. John Boozman (R-Ark.) has scheduled meetings next week with various local chambers of commerce throughout the state.
p136
sg39
I00
sg40
Ven
p137
sg42
g3
(g43
g5
Ntp138
Rp139
(dp140
g10
VLittle Rock, AR
p141
sg48
V333333
p142
sg50
Ven
p143
sg52
Nsg53
I709
sg54
I3595
sg22
VFri Feb 07 20:41:21 +0000 2014
p144
sg56
I00
sg57
VThe Arkansas State Chamber of Commerce/Associated Industry of Arkansas is the leading voice for business at the State Capitol.
p145
sg59
Vhttps://pbs.twimg.com/profile_images/431907443757432832/SotGENdf_normal.png
p146
sg61
I504
sg62
I149
sg63
Nsg64
Nsg65
I00
sg66
Vhttps://pbs.twimg.com/profile_banners/2332384178/1391810227
p147
sg68
I00
sg69
I00
sg70
V0084B4
p148
sg72
I01
sg73
I00
sg74
Vhttp://abs.twimg.com/images/themes/theme1/bg.png
p149
sg76
VARStateChamber
p150
sg78
I16
sg79
VAR State Chamber
p151
sg81
VDDEEF6
p152
sg83
Vhttp://t.co/3xxZUTMJJj
p153
sg85
I2332384178
sg86
VC0DEED
p154
sbsg88
I1
sg89
V<a href="http://twitter.com" rel="nofollow">Twitter Web Client</a>
p155
sg91
(lp156
sg85
I543530321195839489
sbag3
(g4
g5
Ntp157
Rp158
(dp159
g9
I0
sg10
Nsg11
Nsg12
(lp160
sg14
I00
sg15
Nsg16
Nsg17
(lp161
sg19
Nsg20
Nsg21
Nsg22
VFri Dec 12 19:02:08 +0000 2014
p162
sg24
Nsg25
I00
sg26
Nsg27
Nsg28
Nsg29
Nsg30
I00
sg31
Nsg32
(lp163
sg34
Nsg35
Nsg36
Nsg37
VThank you for following us on Twitter! Are you a fan of ours on Facebook? CLICK HERE: http://t.co/L10SynMSo1
p164
sg39
I00
sg40
Ven
p165
sg42
g3
(g43
g5
Ntp166
Rp167
(dp168
g10
VLittle Rock, AR
p169
sg48
V333333
p170
sg50
Ven
p171
sg52
Nsg53
I709
sg54
I3595
sg22
VFri Feb 07 20:41:21 +0000 2014
p172
sg56
I00
sg57
VThe Arkansas State Chamber of Commerce/Associated Industry of Arkansas is the leading voice for business at the State Capitol.
p173
sg59
Vhttps://pbs.twimg.com/profile_images/431907443757432832/SotGENdf_normal.png
p174
sg61
I504
sg62
I149
sg63
Nsg64
Nsg65
I00
sg66
Vhttps://pbs.twimg.com/profile_banners/2332384178/1391810227
p175
sg68
I00
sg69
I00
sg70
V0084B4
p176
sg72
I01
sg73
I00
sg74
Vhttp://abs.twimg.com/images/themes/theme1/bg.png
p177
sg76
VARStateChamber
p178
sg78
I16
sg79
VAR State Chamber
p179
sg81
VDDEEF6
p180
sg83
Vhttp://t.co/3xxZUTMJJj
p181
sg85
I2332384178
sg86
VC0DEED
p182
sbsg88
I0
sg89
V<a href="http://www.hootsuite.com" rel="nofollow">Hootsuite</a>
p183
sg91
(lp184
g3
(g93
g5
Ntp185
Rp186
(dp187
g97
Vhttp://t.co/L10SynMSo1
p188
sg99
Vhttp://ow.ly/Fr2uD
p189
sbasg85
I543480943294812161
sbag3
(g4
g5
Ntp190
Rp191
(dp192
g9
I0
sg10
Nsg11
Nsg12
(lp193
sg14
I00
sg15
Nsg16
Nsg17
(lp194
sg19
Nsg20
Nsg21
Nsg22
VFri Dec 12 18:40:25 +0000 2014
p195
sg24
Nsg25
Nsg26
Nsg27
Nsg28
Nsg29
Nsg30
I00
sg31
Nsg32
(lp196
sg34
Nsg35
Nsg36
Nsg37
VSponsorship of the Legislative Reception is critical to make this event a success. Contact Bill Watson at bwatson@arkansasstatechamber.com.
p197
sg39
I00
sg40
Ven
p198
sg42
g3
(g43
g5
Ntp199
Rp200
(dp201
g10
VLittle Rock, AR
p202
sg48
V333333
p203
sg50
Ven
p204
sg52
Nsg53
I709
sg54
I3595
sg22
VFri Feb 07 20:41:21 +0000 2014
p205
sg56
I00
sg57
VThe Arkansas State Chamber of Commerce/Associated Industry of Arkansas is the leading voice for business at the State Capitol.
p206
sg59
Vhttps://pbs.twimg.com/profile_images/431907443757432832/SotGENdf_normal.png
p207
sg61
I504
sg62
I149
sg63
Nsg64
Nsg65
I00
sg66
Vhttps://pbs.twimg.com/profile_banners/2332384178/1391810227
p208
sg68
I00
sg69
I00
sg70
V0084B4
p209
sg72
I01
sg73
I00
sg74
Vhttp://abs.twimg.com/images/themes/theme1/bg.png
p210
sg76
VARStateChamber
p211
sg78
I16
sg79
VAR State Chamber
p212
sg81
VDDEEF6
p213
sg83
Vhttp://t.co/3xxZUTMJJj
p214
sg85
I2332384178
sg86
VC0DEED
p215
sbsg88
I0
sg89
V<a href="http://www.hootsuite.com" rel="nofollow">Hootsuite</a>
p216
sg91
(lp217
sg85
I543475478011838465
sbag3
(g4
g5
Ntp218
Rp219
(dp220
g9
I0
sg10
Nsg11
Nsg12
(lp221
sg14
I00
sg15
Nsg16
Nsg17
(lp222
sg19
Nsg20
Nsg21
Nsg22
VFri Dec 12 18:35:18 +0000 2014
p223
sg24
Nsg25
Nsg26
Nsg27
Nsg28
Nsg29
Nsg30
I00
sg31
Nsg32
(lp224
sg34
Nsg35
Nsg36
Nsg37
VSponsorships for our Annual Legislative Reception are still available to members. Contact Bill Watson at bwatson@arkansasstatechamber.com
p225
sg39
I00
sg40
Ven
p226
sg42
g3
(g43
g5
Ntp227
Rp228
(dp229
g10
VLittle Rock, AR
p230
sg48
V333333
p231
sg50
Ven
p232
sg52
Nsg53
I709
sg54
I3595
sg22
VFri Feb 07 20:41:21 +0000 2014
p233
sg56
I00
sg57
VThe Arkansas State Chamber of Commerce/Associated Industry of Arkansas is the leading voice for business at the State Capitol.
p234
sg59
Vhttps://pbs.twimg.com/profile_images/431907443757432832/SotGENdf_normal.png
p235
sg61
I504
sg62
I149
sg63
Nsg64
Nsg65
I00
sg66
Vhttps://pbs.twimg.com/profile_banners/2332384178/1391810227
p236
sg68
I00
sg69
I00
sg70
V0084B4
p237
sg72
I01
sg73
I00
sg74
Vhttp://abs.twimg.com/images/themes/theme1/bg.png
p238
sg76
VARStateChamber
p239
sg78
I16
sg79
VAR State Chamber
p240
sg81
VDDEEF6
p241
sg83
Vhttp://t.co/3xxZUTMJJj
p242
sg85
I2332384178
sg86
VC0DEED
p243
sbsg88
I0
sg89
V<a href="http://www.hootsuite.com" rel="nofollow">Hootsuite</a>
p244
sg91
(lp245
sg85
I543474188057870337
sbag3
(g4
g5
Ntp246
Rp247
(dp248
g9
I0
sg10
Nsg11
Nsg12
(lp249
sg14
I00
sg15
Nsg16
Nsg17
(lp250
sg19
Nsg20
Nsg21
Nsg22
VFri Dec 12 18:30:54 +0000 2014
p251
sg24
Nsg25
Nsg26
Nsg27
Nsg28
Nsg29
Nsg30
I00
sg31
Nsg32
(lp252
sg34
Nsg35
Nsg36
Nsg37
VOur Annual Legislative Reception is open to all Chamber members and well-attended by the business community, civic and elected leadership.
p253
sg39
I00
sg40
Ven
p254
sg42
g3
(g43
g5
Ntp255
Rp256
(dp257
g10
VLittle Rock, AR
p258
sg48
V333333
p259
sg50
Ven
p260
sg52
Nsg53
I709
sg54
I3595
sg22
VFri Feb 07 20:41:21 +0000 2014
p261
sg56
I00
sg57
VThe Arkansas State Chamber of Commerce/Associated Industry of Arkansas is the leading voice for business at the State Capitol.
p262
sg59
Vhttps://pbs.twimg.com/profile_images/431907443757432832/SotGENdf_normal.png
p263
sg61
I504
sg62
I149
sg63
Nsg64
Nsg65
I00
sg66
Vhttps://pbs.twimg.com/profile_banners/2332384178/1391810227
p264
sg68
I00
sg69
I00
sg70
V0084B4
p265
sg72
I01
sg73
I00
sg74
Vhttp://abs.twimg.com/images/themes/theme1/bg.png
p266
sg76
VARStateChamber
p267
sg78
I16
sg79
VAR State Chamber
p268
sg81
VDDEEF6
p269
sg83
Vhttp://t.co/3xxZUTMJJj
p270
sg85
I2332384178
sg86
VC0DEED
p271
sbsg88
I0
sg89
V<a href="http://www.hootsuite.com" rel="nofollow">Hootsuite</a>
p272
sg91
(lp273
sg85
I543473081701109760
sbag3
(g4
g5
Ntp274
Rp275
(dp276
g9
I0
sg10
Nsg11
Nsg12
(lp277
sg14
I00
sg15
Nsg16
Nsg17
(lp278
sg19
Nsg20
Nsg21
Nsg22
VFri Dec 12 18:25:20 +0000 2014
p279
sg24
Nsg25
Nsg26
Nsg27
Nsg28
Nsg29
Nsg30
I00
sg31
Nsg32
(lp280
sg34
Nsg35
Nsg36
Nsg37
VWant to be recognized by the more than 600 state and local leaders? Sponsor the Annual Legislative Reception under the Big Tent.
p281
sg39
I00
sg40
Ven
p282
sg42
g3
(g43
g5
Ntp283
Rp284
(dp285
g10
VLittle Rock, AR
p286
sg48
V333333
p287
sg50
Ven
p288
sg52
Nsg53
I709
sg54
I3595
sg22
VFri Feb 07 20:41:21 +0000 2014
p289
sg56
I00
sg57
VThe Arkansas State Chamber of Commerce/Associated Industry of Arkansas is the leading voice for business at the State Capitol.
p290
sg59
Vhttps://pbs.twimg.com/profile_images/431907443757432832/SotGENdf_normal.png
p291
sg61
I504
sg62
I149
sg63
Nsg64
Nsg65
I00
sg66
Vhttps://pbs.twimg.com/profile_banners/2332384178/1391810227
p292
sg68
I00
sg69
I00
sg70
V0084B4
p293
sg72
I01
sg73
I00
sg74
Vhttp://abs.twimg.com/images/themes/theme1/bg.png
p294
sg76
VARStateChamber
p295
sg78
I16
sg79
VAR State Chamber
p296
sg81
VDDEEF6
p297
sg83
Vhttp://t.co/3xxZUTMJJj
p298
sg85
I2332384178
sg86
VC0DEED
p299
sbsg88
I0
sg89
V<a href="http://www.hootsuite.com" rel="nofollow">Hootsuite</a>
p300
sg91
(lp301
sg85
I543471680535154688
sbag3
(g4
g5
Ntp302
Rp303
(dp304
g9
I0
sg10
Nsg11
Nsg12
(lp305
sg14
I00
sg15
Nsg16
Nsg17
(lp306
sg19
Nsg20
Nsg21
Nsg22
VFri Dec 12 18:20:29 +0000 2014
p307
sg24
Nsg25
Nsg26
Nsg27
Nsg28
Nsg29
Nsg30
I00
sg31
Nsg32
(lp308
sg34
Nsg35
Nsg36
Nsg37
VThe State Chamber Annual Legislative Reception is the premier networking event for our members.
p309
sg39
I00
sg40
Ven
p310
sg42
g3
(g43
g5
Ntp311
Rp312
(dp313
g10
VLittle Rock, AR
p314
sg48
V333333
p315
sg50
Ven
p316
sg52
Nsg53
I709
sg54
I3595
sg22
VFri Feb 07 20:41:21 +0000 2014
p317
sg56
I00
sg57
VThe Arkansas State Chamber of Commerce/Associated Industry of Arkansas is the leading voice for business at the State Capitol.
p318
sg59
Vhttps://pbs.twimg.com/profile_images/431907443757432832/SotGENdf_normal.png
p319
sg61
I504
sg62
I149
sg63
Nsg64
Nsg65
I00
sg66
Vhttps://pbs.twimg.com/profile_banners/2332384178/1391810227
p320
sg68
I00
sg69
I00
sg70
V0084B4
p321
sg72
I01
sg73
I00
sg74
Vhttp://abs.twimg.com/images/themes/theme1/bg.png
p322
sg76
VARStateChamber
p323
sg78
I16
sg79
VAR State Chamber
p324
sg81
VDDEEF6
p325
sg83
Vhttp://t.co/3xxZUTMJJj
p326
sg85
I2332384178
sg86
VC0DEED
p327
sbsg88
I0
sg89
V<a href="http://www.hootsuite.com" rel="nofollow">Hootsuite</a>
p328
sg91
(lp329
sg85
I543470461305520129
sbag3
(g4
g5
Ntp330
Rp331
(dp332
g9
I1
sg10
Nsg11
Nsg12
(lp333
sg14
I00
sg15
Nsg16
Nsg17
(lp334
sg19
Nsg20
Nsg21
Nsg22
VFri Dec 12 18:15:35 +0000 2014
p335
sg24
Nsg25
Nsg26
Nsg27
Nsg28
Nsg29
Nsg30
I00
sg31
Nsg32
(lp336
sg34
Nsg35
Nsg36
Nsg37
VThe State Chamber will kick off the New Year with our 2015 Legislative Reception on Tuesday evening, January 20, 2015, 4:30-6:30 pm
p337
sg39
I00
sg40
Ven
p338
sg42
g3
(g43
g5
Ntp339
Rp340
(dp341
g10
VLittle Rock, AR
p342
sg48
V333333
p343
sg50
Ven
p344
sg52
Nsg53
I709
sg54
I3595
sg22
VFri Feb 07 20:41:21 +0000 2014
p345
sg56
I00
sg57
VThe Arkansas State Chamber of Commerce/Associated Industry of Arkansas is the leading voice for business at the State Capitol.
p346
sg59
Vhttps://pbs.twimg.com/profile_images/431907443757432832/SotGENdf_normal.png
p347
sg61
I504
sg62
I149
sg63
Nsg64
Nsg65
I00
sg66
Vhttps://pbs.twimg.com/profile_banners/2332384178/1391810227
p348
sg68
I00
sg69
I00
sg70
V0084B4
p349
sg72
I01
sg73
I00
sg74
Vhttp://abs.twimg.com/images/themes/theme1/bg.png
p350
sg76
VARStateChamber
p351
sg78
I16
sg79
VAR State Chamber
p352
sg81
VDDEEF6
p353
sg83
Vhttp://t.co/3xxZUTMJJj
p354
sg85
I2332384178
sg86
VC0DEED
p355
sbsg88
I0
sg89
V<a href="http://www.hootsuite.com" rel="nofollow">Hootsuite</a>
p356
sg91
(lp357
sg85
I543469226884104193
sbag3
(g4
g5
Ntp358
Rp359
(dp360
g9
I1
sg10
Nsg11
Nsg12
(lp361
sg14
I00
sg15
Nsg16
Nsg17
(lp362
sg19
Nsg20
Nsg21
Nsg22
VFri Dec 12 17:50:26 +0000 2014
p363
sg24
Nsg25
Nsg26
Nsg27
Nsg28
Nsg29
Nsg30
I00
sg31
Nsg32
(lp364
g3
(g43
g5
Ntp365
Rp366
(dp367
g10
Nsg48
Nsg50
Nsg52
Nsg53
Nsg54
Nsg22
Nsg56
Nsg57
Nsg59
Nsg61
Nsg62
Nsg63
Nsg64
Nsg65
Nsg66
Nsg68
Nsg69
Nsg70
Nsg72
Nsg73
Nsg74
Nsg76
VElecCoopsArk
p368
sg78
Nsg79
VElec Co-ops of Ark
p369
sg81
Nsg83
Nsg85
I1905205968
sg86
Nsbasg34
Nsg35
Nsg36
Nsg37
VWe would also like to thank and recognize the Host Sponsor for the Legislative Reception, @ElecCoopsArk.
p370
sg39
I00
sg40
Ven
p371
sg42
g3
(g43
g5
Ntp372
Rp373
(dp374
g10
VLittle Rock, AR
p375
sg48
V333333
p376
sg50
Ven
p377
sg52
Nsg53
I709
sg54
I3595
sg22
VFri Feb 07 20:41:21 +0000 2014
p378
sg56
I00
sg57
VThe Arkansas State Chamber of Commerce/Associated Industry of Arkansas is the leading voice for business at the State Capitol.
p379
sg59
Vhttps://pbs.twimg.com/profile_images/431907443757432832/SotGENdf_normal.png
p380
sg61
I504
sg62
I149
sg63
Nsg64
Nsg65
I00
sg66
Vhttps://pbs.twimg.com/profile_banners/2332384178/1391810227
p381
sg68
I00
sg69
I00
sg70
V0084B4
p382
sg72
I01
sg73
I00
sg74
Vhttp://abs.twimg.com/images/themes/theme1/bg.png
p383
sg76
VARStateChamber
p384
sg78
I16
sg79
VAR State Chamber
p385
sg81
VDDEEF6
p386
sg83
Vhttp://t.co/3xxZUTMJJj
p387
sg85
I2332384178
sg86
VC0DEED
p388
sbsg88
I1
sg89
V<a href="http://www.hootsuite.com" rel="nofollow">Hootsuite</a>
p389
sg91
(lp390
sg85
I543462896085508096
sbag3
(g4
g5
Ntp391
Rp392
(dp393
g9
I0
sg10
Nsg11
Nsg12
(lp394
sg14
I00
sg15
g3
(g4
g5
Ntp395
Rp396
(dp397
g9
I0
sg10
Nsg11
Nsg12
(lp398
sg14
I00
sg15
Nsg16
Nsg17
(lp399
sg19
(dp400
Vfull_name
p401
VBatesville, AR
p402
sVurl
p403
Vhttps://api.twitter.com/1.1/geo/id/2f5745deaec67fb6.json
p404
sVcountry
p405
VUnited States
p406
sVplace_type
p407
Vcity
p408
sVbounding_box
p409
(dp410
Vtype
p411
VPolygon
p412
sVcoordinates
p413
(lp414
(lp415
(lp416
F-91.669914
aF35.755315
aa(lp417
F-91.580241
aF35.755315
aa(lp418
F-91.580241
aF35.8162372
aa(lp419
F-91.669914
aF35.8162372
aaassVcontained_within
p420
(lp421
sVcountry_code
p422
VUS
p423
sVattributes
p424
(dp425
sVid
p426
V2f5745deaec67fb6
p427
sVname
p428
VBatesville
p429
ssg20
Nsg21
Nsg22
VFri Dec 12 17:42:00 +0000 2014
p430
sg24
Nsg25
Nsg26
VLeadershipAR
p431
sg27
(dp432
Vtype
p433
VPoint
p434
sVcoordinates
p435
(lp436
F-91.6381488
aF35.7907421
assg28
I2704320451
sg29
(dp437
Vtype
p438
VPoint
p439
sVcoordinates
p440
(lp441
F35.7907421
aF-91.6381488
assg30
I00
sg31
Nsg32
(lp442
g3
(g43
g5
Ntp443
Rp444
(dp445
g10
Nsg48
Nsg50
Nsg52
Nsg53
Nsg54
Nsg22
Nsg56
Nsg57
Nsg59
Nsg61
Nsg62
Nsg63
Nsg64
Nsg65
Nsg66
Nsg68
Nsg69
Nsg70
Nsg72
Nsg73
Nsg74
Nsg76
VLeadershipAR
p446
sg78
Nsg79
VLeadership Arkansas
p447
sg81
Nsg83
Nsg85
I2704320451
sg86
Nsbag3
(g43
g5
Ntp448
Rp449
(dp450
g10
Nsg48
Nsg50
Nsg52
Nsg53
Nsg54
Nsg22
Nsg56
Nsg57
Nsg59
Nsg61
Nsg62
Nsg63
Nsg64
Nsg65
Nsg66
Nsg68
Nsg69
Nsg70
Nsg72
Nsg73
Nsg74
Nsg76
VARStateChamber
p451
sg78
Nsg79
VAR State Chamber
p452
sg81
Nsg83
Nsg85
I2332384178
sg86
Nsbasg34
Nsg35
Nsg36
Nsg37
V@LeadershipAR Class IX presents economic development projects @ARStateChamber
p453
sg39
I00
sg40
Ven
p454
sg42
g3
(g43
g5
Ntp455
Rp456
(dp457
g10
VLittle Rock, Arkansas
p458
sg48
V3C3940
p459
sg50
Ven
p460
sg52
VCentral Time (US & Canada)
p461
sg53
I385
sg54
I1576
sg22
VSun Mar 11 22:57:37 +0000 2012
p462
sg56
I00
sg57
V21 yr Certified Chamber Executive
p463
sg59
Vhttps://pbs.twimg.com/profile_images/1914830760/SusieMarks3_VISA_normal.JPG
p464
sg61
I450
sg62
I84
sg63
I-21600
sg64
Nsg65
I00
sg66
Nsg68
I00
sg69
I01
sg70
V0099B9
p465
sg72
I01
sg73
I00
sg74
Vhttp://pbs.twimg.com/profile_background_images/446107458763632643/8WWBTOji.jpeg
p466
sg76
VMarksSusie
p467
sg78
I12
sg79
VSusie Porchia Marks
p468
sg81
V95E8EC
p469
sg83
Nsg85
I521754685
sg86
V0099B9
p470
sbsg88
I1
sg89
V<a href="http://twitter.com/download/android" rel="nofollow">Twitter for Android</a>
p471
sg91
(lp472
sg85
I543460774715609088
sbsg16
Nsg17
(lp473
sg19
Nsg20
Nsg21
Nsg22
VFri Dec 12 17:50:00 +0000 2014
p474
sg24
Nsg25
Nsg26
Nsg27
Nsg28
Nsg29
Nsg30
I00
sg31
Nsg32
(lp475
g3
(g43
g5
Ntp476
Rp477
(dp478
g10
Nsg48
Nsg50
Nsg52
Nsg53
Nsg54
Nsg22
Nsg56
Nsg57
Nsg59
Nsg61
Nsg62
Nsg63
Nsg64
Nsg65
Nsg66
Nsg68
Nsg69
Nsg70
Nsg72
Nsg73
Nsg74
Nsg76
VMarksSusie
p479
sg78
Nsg79
VSusie Porchia Marks
p480
sg81
Nsg83
Nsg85
I521754685
sg86
Nsbag3
(g43
g5
Ntp481
Rp482
(dp483
g10
Nsg48
Nsg50
Nsg52
Nsg53
Nsg54
Nsg22
Nsg56
Nsg57
Nsg59
Nsg61
Nsg62
Nsg63
Nsg64
Nsg65
Nsg66
Nsg68
Nsg69
Nsg70
Nsg72
Nsg73
Nsg74
Nsg76
VLeadershipAR
p484
sg78
Nsg79
VLeadership Arkansas
p485
sg81
Nsg83
Nsg85
I2704320451
sg86
Nsbag3
(g43
g5
Ntp486
Rp487
(dp488
g10
Nsg48
Nsg50
Nsg52
Nsg53
Nsg54
Nsg22
Nsg56
Nsg57
Nsg59
Nsg61
Nsg62
Nsg63
Nsg64
Nsg65
Nsg66
Nsg68
Nsg69
Nsg70
Nsg72
Nsg73
Nsg74
Nsg76
VARStateChamber
p489
sg78
Nsg79
VAR State Chamber
p490
sg81
Nsg83
Nsg85
I2332384178
sg86
Nsbasg34
Nsg35
Nsg36
Nsg37
VRT @MarksSusie: @LeadershipAR Class IX presents economic development projects @ARStateChamber
p491
sg39
I00
sg40
Ven
p492
sg42
g3
(g43
g5
Ntp493
Rp494
(dp495
g10
VLittle Rock, AR
p496
sg48
V333333
p497
sg50
Ven
p498
sg52
Nsg53
I709
sg54
I3595
sg22
VFri Feb 07 20:41:21 +0000 2014
p499
sg56
I00
sg57
VThe Arkansas State Chamber of Commerce/Associated Industry of Arkansas is the leading voice for business at the State Capitol.
p500
sg59
Vhttps://pbs.twimg.com/profile_images/431907443757432832/SotGENdf_normal.png
p501
sg61
I504
sg62
I149
sg63
Nsg64
Nsg65
I00
sg66
Vhttps://pbs.twimg.com/profile_banners/2332384178/1391810227
p502
sg68
I00
sg69
I00
sg70
V0084B4
p503
sg72
I01
sg73
I00
sg74
Vhttp://abs.twimg.com/images/themes/theme1/bg.png
p504
sg76
VARStateChamber
p505
sg78
I16
sg79
VAR State Chamber
p506
sg81
VDDEEF6
p507
sg83
Vhttp://t.co/3xxZUTMJJj
p508
sg85
I2332384178
sg86
VC0DEED
p509
sbsg88
I1
sg89
V<a href="https://dev.twitter.com/docs/tfw" rel="nofollow">Twitter for Websites</a>
p510
sg91
(lp511
sg85
I543462790321541121
sbag3
(g4
g5
Ntp512
Rp513
(dp514
g9
I1
sg10
Nsg11
Nsg12
(lp515
sg14
I00
sg15
Nsg16
Nsg17
(lp516
sg19
Nsg20
Nsg21
Nsg22
VFri Dec 12 17:45:38 +0000 2014
p517
sg24
Nsg25
Nsg26
Nsg27
Nsg28
Nsg29
Nsg30
I00
sg31
Nsg32
(lp518
g3
(g43
g5
Ntp519
Rp520
(dp521
g10
Nsg48
Nsg50
Nsg52
Nsg53
Nsg54
Nsg22
Nsg56
Nsg57
Nsg59
Nsg61
Nsg62
Nsg63
Nsg64
Nsg65
Nsg66
Nsg68
Nsg69
Nsg70
Nsg72
Nsg73
Nsg74
Nsg76
VArFB
p522
sg78
Nsg79
VArkansas Farm Bureau
p523
sg81
Nsg83
Nsg85
I61225743
sg86
Nsbag3
(g43
g5
Ntp524
Rp525
(dp526
g10
Nsg48
Nsg50
Nsg52
Nsg53
Nsg54
Nsg22
Nsg56
Nsg57
Nsg59
Nsg61
Nsg62
Nsg63
Nsg64
Nsg65
Nsg66
Nsg68
Nsg69
Nsg70
Nsg72
Nsg73
Nsg74
Nsg76
VCleanLineEnergy
p527
sg78
Nsg79
VClean Line Energy
p528
sg81
Nsg83
Nsg85
I413404483
sg86
Nsbag3
(g43
g5
Ntp529
Rp530
(dp531
g10
Nsg48
Nsg50
Nsg52
Nsg53
Nsg54
Nsg22
Nsg56
Nsg57
Nsg59
Nsg61
Nsg62
Nsg63
Nsg64
Nsg65
Nsg66
Nsg68
Nsg69
Nsg70
Nsg72
Nsg73
Nsg74
Nsg76
VDeltaDentalAR
p532
sg78
Nsg79
VDelta Dental AR
p533
sg81
Nsg83
Nsg85
I369507356
sg86
Nsbag3
(g43
g5
Ntp534
Rp535
(dp536
g10
Nsg48
Nsg50
Nsg52
Nsg53
Nsg54
Nsg22
Nsg56
Nsg57
Nsg59
Nsg61
Nsg62
Nsg63
Nsg64
Nsg65
Nsg66
Nsg68
Nsg69
Nsg70
Nsg72
Nsg73
Nsg74
Nsg76
VEntergyArk
p537
sg78
Nsg79
VEntergy Arkansas
p538
sg81
Nsg83
Nsg85
I104947556
sg86
Nsbag3
(g43
g5
Ntp539
Rp540
(dp541
g10
Nsg48
Nsg50
Nsg52
Nsg53
Nsg54
Nsg22
Nsg56
Nsg57
Nsg59
Nsg61
Nsg62
Nsg63
Nsg64
Nsg65
Nsg66
Nsg68
Nsg69
Nsg70
Nsg72
Nsg73
Nsg74
Nsg76
VSWN_energy
p542
sg78
Nsg79
VSouthwestern Energy
p543
sg81
Nsg83
Nsg85
I631430524
sg86
Nsbag3
(g43
g5
Ntp544
Rp545
(dp546
g10
Nsg48
Nsg50
Nsg52
Nsg53
Nsg54
Nsg22
Nsg56
Nsg57
Nsg59
Nsg61
Nsg62
Nsg63
Nsg64
Nsg65
Nsg66
Nsg68
Nsg69
Nsg70
Nsg72
Nsg73
Nsg74
Nsg76
VWalmart
p547
sg78
Nsg79
VWalmart
p548
sg81
Nsg83
Nsg85
I17137891
sg86
Nsbag3
(g43
g5
Ntp549
Rp550
(dp551
g10
Nsg48
Nsg50
Nsg52
Nsg53
Nsg54
Nsg22
Nsg56
Nsg57
Nsg59
Nsg61
Nsg62
Nsg63
Nsg64
Nsg65
Nsg66
Nsg68
Nsg69
Nsg70
Nsg72
Nsg73
Nsg74
Nsg76
VXTOEnergy
p552
sg78
Nsg79
VXTO Energy
p553
sg81
Nsg83
Nsg85
I1444866517
sg86
Nsbasg34
Nsg35
Nsg36
Nsg37
VThanks also to Premier Sponsors: @ArFB, @CleanLineEnergy, @DeltaDentalAR, Deltic Timber. @EntergyArk, @SWN_energy, @Walmart and @XTOEnergy.
p554
sg39
I00
sg40
Ven
p555
sg42
g3
(g43
g5
Ntp556
Rp557
(dp558
g10
VLittle Rock, AR
p559
sg48
V333333
p560
sg50
Ven
p561
sg52
Nsg53
I709
sg54
I3595
sg22
VFri Feb 07 20:41:21 +0000 2014
p562
sg56
I00
sg57
VThe Arkansas State Chamber of Commerce/Associated Industry of Arkansas is the leading voice for business at the State Capitol.
p563
sg59
Vhttps://pbs.twimg.com/profile_images/431907443757432832/SotGENdf_normal.png
p564
sg61
I504
sg62
I149
sg63
Nsg64
Nsg65
I00
sg66
Vhttps://pbs.twimg.com/profile_banners/2332384178/1391810227
p565
sg68
I00
sg69
I00
sg70
V0084B4
p566
sg72
I01
sg73
I00
sg74
Vhttp://abs.twimg.com/images/themes/theme1/bg.png
p567
sg76
VARStateChamber
p568
sg78
I16
sg79
VAR State Chamber
p569
sg81
VDDEEF6
p570
sg83
Vhttp://t.co/3xxZUTMJJj
p571
sg85
I2332384178
sg86
VC0DEED
p572
sbsg88
I0
sg89
V<a href="http://www.hootsuite.com" rel="nofollow">Hootsuite</a>
p573
sg91
(lp574
sg85
I543461688318894081
sbag3
(g4
g5
Ntp575
Rp576
(dp577
g9
I0
sg10
Nsg11
Nsg12
(lp578
g3
(ctwitter.hashtag
Hashtag
p579
g5
Ntp580
Rp581
(dp582
S'text'
p583
VAnnual
p584
sbasg14
I00
sg15
Nsg16
Nsg17
(lp585
sg19
Nsg20
Nsg21
Nsg22
VFri Dec 12 17:40:27 +0000 2014
p586
sg24
Nsg25
Nsg26
Nsg27
Nsg28
Nsg29
Nsg30
I00
sg31
Nsg32
(lp587
g3
(g43
g5
Ntp588
Rp589
(dp590
g10
Nsg48
Nsg50
Nsg52
Nsg53
Nsg54
Nsg22
Nsg56
Nsg57
Nsg59
Nsg61
Nsg62
Nsg63
Nsg64
Nsg65
Nsg66
Nsg68
Nsg69
Nsg70
Nsg72
Nsg73
Nsg74
Nsg76
VArkansasLearns
p591
sg78
Nsg79
VArkansas Learns
p592
sg81
Nsg83
Nsg85
I627538806
sg86
Nsbag3
(g43
g5
Ntp593
Rp594
(dp595
g10
Nsg48
Nsg50
Nsg52
Nsg53
Nsg54
Nsg22
Nsg56
Nsg57
Nsg59
Nsg61
Nsg62
Nsg63
Nsg64
Nsg65
Nsg66
Nsg68
Nsg69
Nsg70
Nsg72
Nsg73
Nsg74
Nsg76
Vgerdau
p596
sg78
Nsg79
VGerdau
p597
sg81
Nsg83
Nsg85
I1057564986
sg86
Nsbag3
(g43
g5
Ntp598
Rp599
(dp600
g10
Nsg48
Nsg50
Nsg52
Nsg53
Nsg54
Nsg22
Nsg56
Nsg57
Nsg59
Nsg61
Nsg62
Nsg63
Nsg64
Nsg65
Nsg66
Nsg68
Nsg69
Nsg70
Nsg72
Nsg73
Nsg74
Nsg76
Vsouthlandgaming
p601
sg78
Nsg79
VSouthland Park G & R
p602
sg81
Nsg83
Nsg85
I35056579
sg86
Nsbasg34
Nsg35
Nsg36
Nsg37
VWe would like to recognize the Presenting Sponsors for the #Annual Legislative Reception: @ArkansasLearns, @Gerdau and @SouthlandGaming.
p603
sg39
I00
sg40
Ven
p604
sg42
g3
(g43
g5
Ntp605
Rp606
(dp607
g10
VLittle Rock, AR
p608
sg48
V333333
p609
sg50
Ven
p610
sg52
Nsg53
I709
sg54
I3595
sg22
VFri Feb 07 20:41:21 +0000 2014
p611
sg56
I00
sg57
VThe Arkansas State Chamber of Commerce/Associated Industry of Arkansas is the leading voice for business at the State Capitol.
p612
sg59
Vhttps://pbs.twimg.com/profile_images/431907443757432832/SotGENdf_normal.png
p613
sg61
I504
sg62
I149
sg63
Nsg64
Nsg65
I00
sg66
Vhttps://pbs.twimg.com/profile_banners/2332384178/1391810227
p614
sg68
I00
sg69
I00
sg70
V0084B4
p615
sg72
I01
sg73
I00
sg74
Vhttp://abs.twimg.com/images/themes/theme1/bg.png
p616
sg76
VARStateChamber
p617
sg78
I16
sg79
VAR State Chamber
p618
sg81
VDDEEF6
p619
sg83
Vhttp://t.co/3xxZUTMJJj
p620
sg85
I2332384178
sg86
VC0DEED
p621
sbsg88
I0
sg89
V<a href="http://www.hootsuite.com" rel="nofollow">Hootsuite</a>
p622
sg91
(lp623
sg85
I543460383458353152
sbag3
(g4
g5
Ntp624
Rp625
(dp626
g9
I0
sg10
Nsg11
Nsg12
(lp627
sg14
I00
sg15
Nsg16
Nsg17
(lp628
sg19
Nsg20
Nsg21
Nsg22
VFri Dec 12 17:35:30 +0000 2014
p629
sg24
Nsg25
Nsg26
Nsg27
Nsg28
Nsg29
Nsg30
I00
sg31
Nsg32
(lp630
sg34
Nsg35
Nsg36
Nsg37
VPlease add this event to your calendar and join us from 4:30 \u2013 6:30 p.m. on January 20th under the heated big tent on our parking lot.
p631
sg39
I00
sg40
Ven
p632
sg42
g3
(g43
g5
Ntp633
Rp634
(dp635
g10
VLittle Rock, AR
p636
sg48
V333333
p637
sg50
Ven
p638
sg52
Nsg53
I709
sg54
I3595
sg22
VFri Feb 07 20:41:21 +0000 2014
p639
sg56
I00
sg57
VThe Arkansas State Chamber of Commerce/Associated Industry of Arkansas is the leading voice for business at the State Capitol.
p640
sg59
Vhttps://pbs.twimg.com/profile_images/431907443757432832/SotGENdf_normal.png
p641
sg61
I504
sg62
I149
sg63
Nsg64
Nsg65
I00
sg66
Vhttps://pbs.twimg.com/profile_banners/2332384178/1391810227
p642
sg68
I00
sg69
I00
sg70
V0084B4
p643
sg72
I01
sg73
I00
sg74
Vhttp://abs.twimg.com/images/themes/theme1/bg.png
p644
sg76
VARStateChamber
p645
sg78
I16
sg79
VAR State Chamber
p646
sg81
VDDEEF6
p647
sg83
Vhttp://t.co/3xxZUTMJJj
p648
sg85
I2332384178
sg86
VC0DEED
p649
sbsg88
I1
sg89
V<a href="http://www.hootsuite.com" rel="nofollow">Hootsuite</a>
p650
sg91
(lp651
sg85
I543459137431285760
sbag3
(g4
g5
Ntp652
Rp653
(dp654
g9
I0
sg10
Nsg11
Nsg12
(lp655
g3
(g579
g5
Ntp656
Rp657
(dp658
g583
VAnnual
p659
sbasg14
I00
sg15
Nsg16
Nsg17
(lp660
sg19
Nsg20
Nsg21
Nsg22
VFri Dec 12 17:31:01 +0000 2014
p661
sg24
Nsg25
Nsg26
Nsg27
Nsg28
Nsg29
Nsg30
I00
sg31
Nsg32
(lp662
g3
(g43
g5
Ntp663
Rp664
(dp665
g10
Nsg48
Nsg50
Nsg52
Nsg53
Nsg54
Nsg22
Nsg56
Nsg57
Nsg59
Nsg61
Nsg62
Nsg63
Nsg64
Nsg65
Nsg66
Nsg68
Nsg69
Nsg70
Nsg72
Nsg73
Nsg74
Nsg76
VARStateChamber
p666
sg78
Nsg79
VAR State Chamber
p667
sg81
Nsg83
Nsg85
I2332384178
sg86
Nsbasg34
Nsg35
Nsg36
Nsg37
VSave the Date for January 20, 2015 when @ARStateChamber will once again host our #Annual Legislative Reception.
p668
sg39
I00
sg40
Ven
p669
sg42
g3
(g43
g5
Ntp670
Rp671
(dp672
g10
VLittle Rock, AR
p673
sg48
V333333
p674
sg50
Ven
p675
sg52
Nsg53
I709
sg54
I3595
sg22
VFri Feb 07 20:41:21 +0000 2014
p676
sg56
I00
sg57
VThe Arkansas State Chamber of Commerce/Associated Industry of Arkansas is the leading voice for business at the State Capitol.
p677
sg59
Vhttps://pbs.twimg.com/profile_images/431907443757432832/SotGENdf_normal.png
p678
sg61
I504
sg62
I149
sg63
Nsg64
Nsg65
I00
sg66
Vhttps://pbs.twimg.com/profile_banners/2332384178/1391810227
p679
sg68
I00
sg69
I00
sg70
V0084B4
p680
sg72
I01
sg73
I00
sg74
Vhttp://abs.twimg.com/images/themes/theme1/bg.png
p681
sg76
VARStateChamber
p682
sg78
I16
sg79
VAR State Chamber
p683
sg81
VDDEEF6
p684
sg83
Vhttp://t.co/3xxZUTMJJj
p685
sg85
I2332384178
sg86
VC0DEED
p686
sbsg88
I2
sg89
V<a href="http://www.hootsuite.com" rel="nofollow">Hootsuite</a>
p687
sg91
(lp688
sg85
I543458012456046592
sbag3
(g4
g5
Ntp689
Rp690
(dp691
g9
I0
sg10
Nsg11
Nsg12
(lp692
sg14
I00
sg15
Nsg16
Nsg17
(lp693
sg19
Nsg20
Nsg21
Nsg22
VFri Dec 12 17:30:59 +0000 2014
p694
sg24
Nsg25
Nsg26
Nsg27
Nsg28
Nsg29
Nsg30
I00
sg31
Nsg32
(lp695
sg34
Nsg35
Nsg36
Nsg37
VThis event will include the General Assembly, Gov.-elect Asa Hutchinson, other newly elected Constitutional officers and state agency heads.
p696
sg39
I00
sg40
Ven
p697
sg42
g3
(g43
g5
Ntp698
Rp699
(dp700
g10
VLittle Rock, AR
p701
sg48
V333333
p702
sg50
Ven
p703
sg52
Nsg53
I709
sg54
I3595
sg22
VFri Feb 07 20:41:21 +0000 2014
p704
sg56
I00
sg57
VThe Arkansas State Chamber of Commerce/Associated Industry of Arkansas is the leading voice for business at the State Capitol.
p705
sg59
Vhttps://pbs.twimg.com/profile_images/431907443757432832/SotGENdf_normal.png
p706
sg61
I504
sg62
I149
sg63
Nsg64
Nsg65
I00
sg66
Vhttps://pbs.twimg.com/profile_banners/2332384178/1391810227
p707
sg68
I00
sg69
I00
sg70
V0084B4
p708
sg72
I01
sg73
I00
sg74
Vhttp://abs.twimg.com/images/themes/theme1/bg.png
p709
sg76
VARStateChamber
p710
sg78
I16
sg79
VAR State Chamber
p711
sg81
VDDEEF6
p712
sg83
Vhttp://t.co/3xxZUTMJJj
p713
sg85
I2332384178
sg86
VC0DEED
p714
sbsg88
I0
sg89
V<a href="http://www.hootsuite.com" rel="nofollow">Hootsuite</a>
p715
sg91
(lp716
sg85
I543458002075140096
sbag3
(g4
g5
Ntp717
Rp718
(dp719
g9
I0
sg10
Nsg11
Nsg12
(lp720
sg14
I00
sg15
g3
(g4
g5
Ntp721
Rp722
(dp723
g9
I0
sg10
Nsg11
Nsg12
(lp724
sg14
I00
sg15
Nsg16
Nsg17
(lp725
sg19
(dp726
Vfull_name
p727
VBatesville, AR
p728
sVurl
p729
Vhttps://api.twitter.com/1.1/geo/id/2f5745deaec67fb6.json
p730
sVcountry
p731
VUnited States
p732
sVplace_type
p733
Vcity
p734
sVbounding_box
p735
(dp736
Vtype
p737
VPolygon
p738
sVcoordinates
p739
(lp740
(lp741
(lp742
F-91.669914
aF35.755315
aa(lp743
F-91.580241
aF35.755315
aa(lp744
F-91.580241
aF35.8162372
aa(lp745
F-91.669914
aF35.8162372
aaassVcontained_within
p746
(lp747
sVcountry_code
p748
VUS
p749
sVattributes
p750
(dp751
sVid
p752
V2f5745deaec67fb6
p753
sVname
p754
VBatesville
p755
ssg20
Nsg21
Nsg22
VFri Dec 12 16:02:25 +0000 2014
p756
sg24
Nsg25
Nsg26
Nsg27
(dp757
Vtype
p758
VPoint
p759
sVcoordinates
p760
(lp761
F-91.6381488
aF35.7907421
assg28
Nsg29
(dp762
Vtype
p763
VPoint
p764
sVcoordinates
p765
(lp766
F35.7907421
aF-91.6381488
assg30
I00
sg31
Nsg32
(lp767
g3
(g43
g5
Ntp768
Rp769
(dp770
g10
Nsg48
Nsg50
Nsg52
Nsg53
Nsg54
Nsg22
Nsg56
Nsg57
Nsg59
Nsg61
Nsg62
Nsg63
Nsg64
Nsg65
Nsg66
Nsg68
Nsg69
Nsg70
Nsg72
Nsg73
Nsg74
Nsg76
VArkansasEDC
p771
sg78
Nsg79
VArkansas EDC
p772
sg81
Nsg83
Nsg85
I279210639
sg86
Nsbag3
(g43
g5
Ntp773
Rp774
(dp775
g10
Nsg48
Nsg50
Nsg52
Nsg53
Nsg54
Nsg22
Nsg56
Nsg57
Nsg59
Nsg61
Nsg62
Nsg63
Nsg64
Nsg65
Nsg66
Nsg68
Nsg69
Nsg70
Nsg72
Nsg73
Nsg74
Nsg76
VLeadershipAR
p776
sg78
Nsg79
VLeadership Arkansas
p777
sg81
Nsg83
Nsg85
I2704320451
sg86
Nsbag3
(g43
g5
Ntp778
Rp779
(dp780
g10
Nsg48
Nsg50
Nsg52
Nsg53
Nsg54
Nsg22
Nsg56
Nsg57
Nsg59
Nsg61
Nsg62
Nsg63
Nsg64
Nsg65
Nsg66
Nsg68
Nsg69
Nsg70
Nsg72
Nsg73
Nsg74
Nsg76
VARStateChamber
p781
sg78
Nsg79
VAR State Chamber
p782
sg81
Nsg83
Nsg85
I2332384178
sg86
Nsbag3
(g43
g5
Ntp783
Rp784
(dp785
g10
Nsg48
Nsg50
Nsg52
Nsg53
Nsg54
Nsg22
Nsg56
Nsg57
Nsg59
Nsg61
Nsg62
Nsg63
Nsg64
Nsg65
Nsg66
Nsg68
Nsg69
Nsg70
Nsg72
Nsg73
Nsg74
Nsg76
Vbadboymowers
p786
sg78
Nsg79
VBad Boy Mowers
p787
sg81
Nsg83
Nsg85
I263251929
sg86
Nsbag3
(g43
g5
Ntp788
Rp789
(dp790
g10
Nsg48
Nsg50
Nsg52
Nsg53
Nsg54
Nsg22
Nsg56
Nsg57
Nsg59
Nsg61
Nsg62
Nsg63
Nsg64
Nsg65
Nsg66
Nsg68
Nsg69
Nsg70
Nsg72
Nsg73
Nsg74
Nsg76
VMyBatesville
p791
sg78
Nsg79
VBatesville Chamber
p792
sg81
Nsg83
Nsg85
I214117949
sg86
Nsbasg34
Nsg35
Nsg36
Nsg37
VDenisa Pennington @ArkansasEDC presents to @LeadershipAR @ARStateChamber @badboymowers  @MyBatesville
p793
sg39
I00
sg40
Ven
p794
sg42
g3
(g43
g5
Ntp795
Rp796
(dp797
g10
VLittle Rock, Arkansas
p798
sg48
V3C3940
p799
sg50
Ven
p800
sg52
VCentral Time (US & Canada)
p801
sg53
I385
sg54
I1576
sg22
VSun Mar 11 22:57:37 +0000 2012
p802
sg56
I00
sg57
V21 yr Certified Chamber Executive
p803
sg59
Vhttps://pbs.twimg.com/profile_images/1914830760/SusieMarks3_VISA_normal.JPG
p804
sg61
I450
sg62
I84
sg63
I-21600
sg64
Nsg65
I00
sg66
Nsg68
I00
sg69
I01
sg70
V0099B9
p805
sg72
I01
sg73
I00
sg74
Vhttp://pbs.twimg.com/profile_background_images/446107458763632643/8WWBTOji.jpeg
p806
sg76
VMarksSusie
p807
sg78
I12
sg79
VSusie Porchia Marks
p808
sg81
V95E8EC
p809
sg83
Nsg85
I521754685
sg86
V0099B9
p810
sbsg88
I2
sg89
V<a href="http://twitter.com/download/android" rel="nofollow">Twitter for Android</a>
p811
sg91
(lp812
sg85
I543435712407040000
sbsg16
Nsg17
(lp813
sg19
Nsg20
Nsg21
Nsg22
VFri Dec 12 16:06:57 +0000 2014
p814
sg24
Nsg25
Nsg26
Nsg27
Nsg28
Nsg29
Nsg30
I00
sg31
Nsg32
(lp815
g3
(g43
g5
Ntp816
Rp817
(dp818
g10
Nsg48
Nsg50
Nsg52
Nsg53
Nsg54
Nsg22
Nsg56
Nsg57
Nsg59
Nsg61
Nsg62
Nsg63
Nsg64
Nsg65
Nsg66
Nsg68
Nsg69
Nsg70
Nsg72
Nsg73
Nsg74
Nsg76
VMarksSusie
p819
sg78
Nsg79
VSusie Porchia Marks
p820
sg81
Nsg83
Nsg85
I521754685
sg86
Nsbag3
(g43
g5
Ntp821
Rp822
(dp823
g10
Nsg48
Nsg50
Nsg52
Nsg53
Nsg54
Nsg22
Nsg56
Nsg57
Nsg59
Nsg61
Nsg62
Nsg63
Nsg64
Nsg65
Nsg66
Nsg68
Nsg69
Nsg70
Nsg72
Nsg73
Nsg74
Nsg76
VArkansasEDC
p824
sg78
Nsg79
VArkansas EDC
p825
sg81
Nsg83
Nsg85
I279210639
sg86
Nsbag3
(g43
g5
Ntp826
Rp827
(dp828
g10
Nsg48
Nsg50
Nsg52
Nsg53
Nsg54
Nsg22
Nsg56
Nsg57
Nsg59
Nsg61
Nsg62
Nsg63
Nsg64
Nsg65
Nsg66
Nsg68
Nsg69
Nsg70
Nsg72
Nsg73
Nsg74
Nsg76
VLeadershipAR
p829
sg78
Nsg79
VLeadership Arkansas
p830
sg81
Nsg83
Nsg85
I2704320451
sg86
Nsbag3
(g43
g5
Ntp831
Rp832
(dp833
g10
Nsg48
Nsg50
Nsg52
Nsg53
Nsg54
Nsg22
Nsg56
Nsg57
Nsg59
Nsg61
Nsg62
Nsg63
Nsg64
Nsg65
Nsg66
Nsg68
Nsg69
Nsg70
Nsg72
Nsg73
Nsg74
Nsg76
VARStateChamber
p834
sg78
Nsg79
VAR State Chamber
p835
sg81
Nsg83
Nsg85
I2332384178
sg86
Nsbag3
(g43
g5
Ntp836
Rp837
(dp838
g10
Nsg48
Nsg50
Nsg52
Nsg53
Nsg54
Nsg22
Nsg56
Nsg57
Nsg59
Nsg61
Nsg62
Nsg63
Nsg64
Nsg65
Nsg66
Nsg68
Nsg69
Nsg70
Nsg72
Nsg73
Nsg74
Nsg76
Vbadboymowers
p839
sg78
Nsg79
VBad Boy Mowers
p840
sg81
Nsg83
Nsg85
I263251929
sg86
Nsbag3
(g43
g5
Ntp841
Rp842
(dp843
g10
Nsg48
Nsg50
Nsg52
Nsg53
Nsg54
Nsg22
Nsg56
Nsg57
Nsg59
Nsg61
Nsg62
Nsg63
Nsg64
Nsg65
Nsg66
Nsg68
Nsg69
Nsg70
Nsg72
Nsg73
Nsg74
Nsg76
VMyBatesville
p844
sg78
Nsg79
VBatesville Chamber
p845
sg81
Nsg83
Nsg85
I214117949
sg86
Nsbasg34
Nsg35
Nsg36
Nsg37
VRT @MarksSusie: Denisa Pennington @ArkansasEDC presents to @LeadershipAR @ARStateChamber @badboymowers  @MyBatesville
p846
sg39
I00
sg40
Ven
p847
sg42
g3
(g43
g5
Ntp848
Rp849
(dp850
g10
VLittle Rock, AR
p851
sg48
V333333
p852
sg50
Ven
p853
sg52
Nsg53
I709
sg54
I3595
sg22
VFri Feb 07 20:41:21 +0000 2014
p854
sg56
I00
sg57
VThe Arkansas State Chamber of Commerce/Associated Industry of Arkansas is the leading voice for business at the State Capitol.
p855
sg59
Vhttps://pbs.twimg.com/profile_images/431907443757432832/SotGENdf_normal.png
p856
sg61
I504
sg62
I149
sg63
Nsg64
Nsg65
I00
sg66
Vhttps://pbs.twimg.com/profile_banners/2332384178/1391810227
p857
sg68
I00
sg69
I00
sg70
V0084B4
p858
sg72
I01
sg73
I00
sg74
Vhttp://abs.twimg.com/images/themes/theme1/bg.png
p859
sg76
VARStateChamber
p860
sg78
I16
sg79
VAR State Chamber
p861
sg81
VDDEEF6
p862
sg83
Vhttp://t.co/3xxZUTMJJj
p863
sg85
I2332384178
sg86
VC0DEED
p864
sbsg88
I2
sg89
V<a href="https://dev.twitter.com/docs/tfw" rel="nofollow">Twitter for Websites</a>
p865
sg91
(lp866
sg85
I543436853286694912
sbag3
(g4
g5
Ntp867
Rp868
(dp869
g9
I0
sg10
Nsg11
Nsg12
(lp870
sg14
I00
sg15
Nsg16
Nsg17
(lp871
sg19
Nsg20
Nsg21
Nsg22
VThu Dec 11 18:40:26 +0000 2014
p872
sg24
Nsg25
Nsg26
Nsg27
Nsg28
Nsg29
Nsg30
I00
sg31
Nsg32
(lp873
sg34
Nsg35
Nsg36
Nsg37
VFor more information, contact Carol Silverstrom at 501-296-3027 or carol.silverstrom@sba.gov.
p874
sg39
I00
sg40
Ven
p875
sg42
g3
(g43
g5
Ntp876
Rp877
(dp878
g10
VLittle Rock, AR
p879
sg48
V333333
p880
sg50
Ven
p881
sg52
Nsg53
I709
sg54
I3595
sg22
VFri Feb 07 20:41:21 +0000 2014
p882
sg56
I00
sg57
VThe Arkansas State Chamber of Commerce/Associated Industry of Arkansas is the leading voice for business at the State Capitol.
p883
sg59
Vhttps://pbs.twimg.com/profile_images/431907443757432832/SotGENdf_normal.png
p884
sg61
I504
sg62
I149
sg63
Nsg64
Nsg65
I00
sg66
Vhttps://pbs.twimg.com/profile_banners/2332384178/1391810227
p885
sg68
I00
sg69
I00
sg70
V0084B4
p886
sg72
I01
sg73
I00
sg74
Vhttp://abs.twimg.com/images/themes/theme1/bg.png
p887
sg76
VARStateChamber
p888
sg78
I16
sg79
VAR State Chamber
p889
sg81
VDDEEF6
p890
sg83
Vhttp://t.co/3xxZUTMJJj
p891
sg85
I2332384178
sg86
VC0DEED
p892
sbsg88
I0
sg89
V<a href="http://www.hootsuite.com" rel="nofollow">Hootsuite</a>
p893
sg91
(lp894
sg85
I543113094386704384
sbag3
(g4
g5
Ntp895
Rp896
(dp897
g9
I0
sg10
Nsg11
Nsg12
(lp898
sg14
I00
sg15
Nsg16
Nsg17
(lp899
sg19
Nsg20
Nsg21
Nsg22
VThu Dec 11 18:35:19 +0000 2014
p900
sg24
Nsg25
Nsg26
Nsg27
Nsg28
Nsg29
Nsg30
I00
sg31
Nsg32
(lp901
sg34
Nsg35
Nsg36
Nsg37
VThe AR Small Business Person of the Year will be selected based on number of years in business, growth in employees, increase in sales, etc.
p902
sg39
I00
sg40
Ven
p903
sg42
g3
(g43
g5
Ntp904
Rp905
(dp906
g10
VLittle Rock, AR
p907
sg48
V333333
p908
sg50
Ven
p909
sg52
Nsg53
I709
sg54
I3595
sg22
VFri Feb 07 20:41:21 +0000 2014
p910
sg56
I00
sg57
VThe Arkansas State Chamber of Commerce/Associated Industry of Arkansas is the leading voice for business at the State Capitol.
p911
sg59
Vhttps://pbs.twimg.com/profile_images/431907443757432832/SotGENdf_normal.png
p912
sg61
I504
sg62
I149
sg63
Nsg64
Nsg65
I00
sg66
Vhttps://pbs.twimg.com/profile_banners/2332384178/1391810227
p913
sg68
I00
sg69
I00
sg70
V0084B4
p914
sg72
I01
sg73
I00
sg74
Vhttp://abs.twimg.com/images/themes/theme1/bg.png
p915
sg76
VARStateChamber
p916
sg78
I16
sg79
VAR State Chamber
p917
sg81
VDDEEF6
p918
sg83
Vhttp://t.co/3xxZUTMJJj
p919
sg85
I2332384178
sg86
VC0DEED
p920
sbsg88
I0
sg89
V<a href="http://www.hootsuite.com" rel="nofollow">Hootsuite</a>
p921
sg91
(lp922
sg85
I543111805191856128
sbaa.