(lp0
S'KurtFoedisch'
p1
a(lp2
ccopy_reg
_reconstructor
p3
(ctwitter.status
Status
p4
c__builtin__
object
p5
Ntp6
Rp7
(dp8
S'_favorite_count'
p9
I0
sS'_location'
p10
NsS'_withheld_scope'
p11
NsS'hashtags'
p12
(lp13
g3
(ctwitter.hashtag
Hashtag
p14
g5
Ntp15
Rp16
(dp17
S'text'
p18
VLinkedIn
p19
sbag3
(g14
g5
Ntp20
Rp21
(dp22
g18
VSocialSelling
p23
sbasS'_truncated'
p24
I00
sS'_retweeted_status'
p25
NsS'_withheld_copyright'
p26
NsS'media'
p27
(lp28
sS'_place'
p29
NsS'_contributors'
p30
NsS'_current_user_retweet'
p31
NsS'_created_at'
p32
VFri Dec 12 17:10:24 +0000 2014
p33
sS'_scopes'
p34
NsS'_possibly_sensitive'
p35
I00
sS'_in_reply_to_screen_name'
p36
NsS'_coordinates'
p37
NsS'_in_reply_to_user_id'
p38
NsS'_geo'
p39
NsS'_favorited'
p40
I00
sS'_withheld_in_countries'
p41
NsS'user_mentions'
p42
(lp43
sS'_now'
p44
NsS'_id_str'
p45
NsS'_in_reply_to_status_id'
p46
NsS'_text'
p47
VWhy Won\u2019t CEO's Connect with Me on #LinkedIn? http://t.co/Uk8rpYGnJu\u000a#SocialSelling
p48
sS'_retweeted'
p49
I00
sS'lang'
p50
Ven
p51
sS'_user'
p52
g3
(ctwitter.user
User
p53
g5
Ntp54
Rp55
(dp56
g10
VPhilly
p57
sS'_profile_text_color'
p58
V333333
p59
sS'_lang'
p60
Ven
p61
sS'_time_zone'
p62
NsS'_followers_count'
p63
I660
sS'_statuses_count'
p64
I957
sg32
VSat Jul 12 21:07:00 +0000 2014
p65
sS'_verified'
p66
I00
sS'_description'
p67
V#AllAboutLeverage \u2666 #SocialSelling \u2666 #LinkedIn \u2666#Twitter \u2666 #Networking \u2666 Love all things #Philly
p68
sS'_profile_image_url'
p69
Vhttps://pbs.twimg.com/profile_images/488070333660790784/_h1MiVxC_normal.jpeg
p70
sS'_friends_count'
p71
I344
sS'_favourites_count'
p72
I48
sS'_utc_offset'
p73
NsS'_status'
p74
NsS'_protected'
p75
I00
sS'_profile_banner_url'
p76
Vhttps://pbs.twimg.com/profile_banners/2630850469/1405200379
p77
sS'_notifications'
p78
I00
sS'_profile_background_tile'
p79
I01
sS'_profile_link_color'
p80
VF7870F
p81
sS'_geo_enabled'
p82
I00
sS'_contributors_enabled'
p83
I00
sS'_profile_background_image_url'
p84
Vhttp://pbs.twimg.com/profile_background_images/488072119830319104/uGjfsVkh.jpeg
p85
sS'_screen_name'
p86
VKurtFoedisch
p87
sS'_listed_count'
p88
I8
sS'_name'
p89
VKurt Foedisch
p90
sS'_profile_sidebar_fill_color'
p91
VDDEEF6
p92
sS'_url'
p93
Vhttp://t.co/bKmKgXu0s7
p94
sS'_id'
p95
I2630850469
sS'_profile_background_color'
p96
VC0DEED
p97
sbsS'_retweet_count'
p98
I0
sS'_source'
p99
V<a href="http://www.hootsuite.com" rel="nofollow">Hootsuite</a>
p100
sS'urls'
p101
(lp102
g3
(ctwitter.url
Url
p103
g5
Ntp104
Rp105
(dp106
S'url'
p107
Vhttp://t.co/Uk8rpYGnJu
p108
sS'expanded_url'
p109
Vhttp://ow.ly/FHrSB
p110
sbasg95
I543452821258252288
sbag3
(g4
g5
Ntp111
Rp112
(dp113
g9
I0
sg10
Nsg11
Nsg12
(lp114
g3
(g14
g5
Ntp115
Rp116
(dp117
g18
VLinkedIn
p118
sbag3
(g14
g5
Ntp119
Rp120
(dp121
g18
VSocialSelling
p122
sbasg24
I00
sg25
Nsg26
Nsg27
(lp123
sg29
Nsg30
Nsg31
Nsg32
VFri Dec 12 13:30:35 +0000 2014
p124
sg34
Nsg35
I00
sg36
Nsg37
Nsg38
Nsg39
Nsg40
I00
sg41
Nsg42
(lp125
sg44
Nsg45
Nsg46
Nsg47
VNetworking on #LinkedIn: 3 Ways to Open Doors http://t.co/IW8H9tb91g\u000a#SocialSelling
p126
sg49
I00
sg50
Ven
p127
sg52
g3
(g53
g5
Ntp128
Rp129
(dp130
g10
VPhilly
p131
sg58
V333333
p132
sg60
Ven
p133
sg62
Nsg63
I660
sg64
I957
sg32
VSat Jul 12 21:07:00 +0000 2014
p134
sg66
I00
sg67
V#AllAboutLeverage \u2666 #SocialSelling \u2666 #LinkedIn \u2666#Twitter \u2666 #Networking \u2666 Love all things #Philly
p135
sg69
Vhttps://pbs.twimg.com/profile_images/488070333660790784/_h1MiVxC_normal.jpeg
p136
sg71
I344
sg72
I48
sg73
Nsg74
Nsg75
I00
sg76
Vhttps://pbs.twimg.com/profile_banners/2630850469/1405200379
p137
sg78
I00
sg79
I01
sg80
VF7870F
p138
sg82
I00
sg83
I00
sg84
Vhttp://pbs.twimg.com/profile_background_images/488072119830319104/uGjfsVkh.jpeg
p139
sg86
VKurtFoedisch
p140
sg88
I8
sg89
VKurt Foedisch
p141
sg91
VDDEEF6
p142
sg93
Vhttp://t.co/bKmKgXu0s7
p143
sg95
I2630850469
sg96
VC0DEED
p144
sbsg98
I0
sg99
V<a href="http://www.hootsuite.com" rel="nofollow">Hootsuite</a>
p145
sg101
(lp146
g3
(g103
g5
Ntp147
Rp148
(dp149
g107
Vhttp://t.co/IW8H9tb91g
p150
sg109
Vhttp://ow.ly/FHcmX
p151
sbasg95
I543397506294775808
sbag3
(g4
g5
Ntp152
Rp153
(dp154
g9
I0
sg10
Nsg11
Nsg12
(lp155
g3
(g14
g5
Ntp156
Rp157
(dp158
g18
VLinkedIn
p159
sbag3
(g14
g5
Ntp160
Rp161
(dp162
g18
VAllAboutLeverage
p163
sbasg24
I00
sg25
Nsg26
Nsg27
(lp164
sg29
Nsg30
Nsg31
Nsg32
VFri Dec 12 13:00:51 +0000 2014
p165
sg34
Nsg35
I00
sg36
Nsg37
Nsg38
Nsg39
Nsg40
I00
sg41
Nsg42
(lp166
sg44
Nsg45
Nsg46
Nsg47
V#LinkedIn... It\u2019s All About Leverage... isn\u2019t it? http://t.co/vE3nI9WW0F\u000a#AllAboutLeverage
p167
sg49
I00
sg50
Ven
p168
sg52
g3
(g53
g5
Ntp169
Rp170
(dp171
g10
VPhilly
p172
sg58
V333333
p173
sg60
Ven
p174
sg62
Nsg63
I660
sg64
I957
sg32
VSat Jul 12 21:07:00 +0000 2014
p175
sg66
I00
sg67
V#AllAboutLeverage \u2666 #SocialSelling \u2666 #LinkedIn \u2666#Twitter \u2666 #Networking \u2666 Love all things #Philly
p176
sg69
Vhttps://pbs.twimg.com/profile_images/488070333660790784/_h1MiVxC_normal.jpeg
p177
sg71
I344
sg72
I48
sg73
Nsg74
Nsg75
I00
sg76
Vhttps://pbs.twimg.com/profile_banners/2630850469/1405200379
p178
sg78
I00
sg79
I01
sg80
VF7870F
p179
sg82
I00
sg83
I00
sg84
Vhttp://pbs.twimg.com/profile_background_images/488072119830319104/uGjfsVkh.jpeg
p180
sg86
VKurtFoedisch
p181
sg88
I8
sg89
VKurt Foedisch
p182
sg91
VDDEEF6
p183
sg93
Vhttp://t.co/bKmKgXu0s7
p184
sg95
I2630850469
sg96
VC0DEED
p185
sbsg98
I0
sg99
V<a href="http://www.hootsuite.com" rel="nofollow">Hootsuite</a>
p186
sg101
(lp187
g3
(g103
g5
Ntp188
Rp189
(dp190
g107
Vhttp://t.co/vE3nI9WW0F
p191
sg109
Vhttp://ow.ly/FHoXh
p192
sbasg95
I543390022452654080
sbag3
(g4
g5
Ntp193
Rp194
(dp195
g9
I0
sg10
Nsg11
Nsg12
(lp196
g3
(g14
g5
Ntp197
Rp198
(dp199
g18
VLinkedIn
p200
sbasg24
I00
sg25
Nsg26
Nsg27
(lp201
(dp202
Vexpanded_url
p203
Vhttp://twitter.com/KurtFoedisch/status/543205729973571584/photo/1
p204
sVdisplay_url
p205
Vpic.twitter.com/GwUpWZ8xJz
p206
sVurl
p207
Vhttp://t.co/GwUpWZ8xJz
p208
sVmedia_url_https
p209
Vhttps://pbs.twimg.com/media/B4nau7mIgAARXtv.jpg
p210
sVid_str
p211
V543205729881325568
p212
sVsizes
p213
(dp214
Vlarge
p215
(dp216
Vh
p217
I136
sVresize
p218
Vfit
p219
sVw
p220
I372
ssVsmall
p221
(dp222
Vh
p223
I124
sVresize
p224
Vfit
p225
sVw
p226
I340
ssVmedium
p227
(dp228
Vh
p229
I136
sVresize
p230
Vfit
p231
sVw
p232
I372
ssVthumb
p233
(dp234
Vh
p235
I136
sVresize
p236
Vcrop
p237
sVw
p238
I150
sssVindices
p239
(lp240
I118
aI140
asVtype
p241
Vphoto
p242
sVid
p243
I543205729881325568
sVmedia_url
p244
Vhttp://pbs.twimg.com/media/B4nau7mIgAARXtv.jpg
p245
sasg29
Nsg30
Nsg31
Nsg32
VFri Dec 12 00:48:32 +0000 2014
p246
sg34
Nsg35
I00
sg36
Nsg37
Nsg38
Nsg39
Nsg40
I00
sg41
Nsg42
(lp247
sg44
Nsg45
Nsg46
Nsg47
V#LinkedIn Tip 16-Add value to LinkedIn groups: Share visual presentations that will interest group members. \u2014 Jay Bae http://t.co/GwUpWZ8xJz
p248
sg49
I00
sg50
Ven
p249
sg52
g3
(g53
g5
Ntp250
Rp251
(dp252
g10
VPhilly
p253
sg58
V333333
p254
sg60
Ven
p255
sg62
Nsg63
I660
sg64
I957
sg32
VSat Jul 12 21:07:00 +0000 2014
p256
sg66
I00
sg67
V#AllAboutLeverage \u2666 #SocialSelling \u2666 #LinkedIn \u2666#Twitter \u2666 #Networking \u2666 Love all things #Philly
p257
sg69
Vhttps://pbs.twimg.com/profile_images/488070333660790784/_h1MiVxC_normal.jpeg
p258
sg71
I344
sg72
I48
sg73
Nsg74
Nsg75
I00
sg76
Vhttps://pbs.twimg.com/profile_banners/2630850469/1405200379
p259
sg78
I00
sg79
I01
sg80
VF7870F
p260
sg82
I00
sg83
I00
sg84
Vhttp://pbs.twimg.com/profile_background_images/488072119830319104/uGjfsVkh.jpeg
p261
sg86
VKurtFoedisch
p262
sg88
I8
sg89
VKurt Foedisch
p263
sg91
VDDEEF6
p264
sg93
Vhttp://t.co/bKmKgXu0s7
p265
sg95
I2630850469
sg96
VC0DEED
p266
sbsg98
I0
sg99
V<a href="http://tweetadder.com" rel="nofollow">TweetAdder v4</a>
p267
sg101
(lp268
sg95
I543205729973571584
sbag3
(g4
g5
Ntp269
Rp270
(dp271
g9
I0
sg10
Nsg11
Nsg12
(lp272
g3
(g14
g5
Ntp273
Rp274
(dp275
g18
VLinkedIn
p276
sbag3
(g14
g5
Ntp277
Rp278
(dp279
g18
VSocialSelling
p280
sbasg24
I00
sg25
Nsg26
Nsg27
(lp281
sg29
Nsg30
Nsg31
Nsg32
VThu Dec 11 21:50:14 +0000 2014
p282
sg34
Nsg35
I00
sg36
Nsg37
Nsg38
Nsg39
Nsg40
I00
sg41
Nsg42
(lp283
sg44
Nsg45
Nsg46
Nsg47
VLeveraging #LinkedIn Groups: 5 Tips in 10 Minutes a Day http://t.co/cu6DoHqWSZ\u000a#SocialSelling
p284
sg49
I00
sg50
Ven
p285
sg52
g3
(g53
g5
Ntp286
Rp287
(dp288
g10
VPhilly
p289
sg58
V333333
p290
sg60
Ven
p291
sg62
Nsg63
I660
sg64
I957
sg32
VSat Jul 12 21:07:00 +0000 2014
p292
sg66
I00
sg67
V#AllAboutLeverage \u2666 #SocialSelling \u2666 #LinkedIn \u2666#Twitter \u2666 #Networking \u2666 Love all things #Philly
p293
sg69
Vhttps://pbs.twimg.com/profile_images/488070333660790784/_h1MiVxC_normal.jpeg
p294
sg71
I344
sg72
I48
sg73
Nsg74
Nsg75
I00
sg76
Vhttps://pbs.twimg.com/profile_banners/2630850469/1405200379
p295
sg78
I00
sg79
I01
sg80
VF7870F
p296
sg82
I00
sg83
I00
sg84
Vhttp://pbs.twimg.com/profile_background_images/488072119830319104/uGjfsVkh.jpeg
p297
sg86
VKurtFoedisch
p298
sg88
I8
sg89
VKurt Foedisch
p299
sg91
VDDEEF6
p300
sg93
Vhttp://t.co/bKmKgXu0s7
p301
sg95
I2630850469
sg96
VC0DEED
p302
sbsg98
I0
sg99
V<a href="http://www.hootsuite.com" rel="nofollow">Hootsuite</a>
p303
sg101
(lp304
g3
(g103
g5
Ntp305
Rp306
(dp307
g107
Vhttp://t.co/cu6DoHqWSZ
p308
sg109
Vhttp://ow.ly/FHo0q
p309
sbasg95
I543160857392607232
sbag3
(g4
g5
Ntp310
Rp311
(dp312
g9
I0
sg10
Nsg11
Nsg12
(lp313
g3
(g14
g5
Ntp314
Rp315
(dp316
g18
VLinkedIn
p317
sbag3
(g14
g5
Ntp318
Rp319
(dp320
g18
VSocialSelling
p321
sbasg24
I00
sg25
Nsg26
Nsg27
(lp322
sg29
Nsg30
Nsg31
Nsg32
VThu Dec 11 21:30:24 +0000 2014
p323
sg34
Nsg35
I00
sg36
Nsg37
Nsg38
Nsg39
Nsg40
I00
sg41
Nsg42
(lp324
sg44
Nsg45
Nsg46
Nsg47
VAre Your #LinkedIn Connections More Like a Disconnect? 3 Tips and 1 Golden Rule http://t.co/FE7ZNcFHlt\u000a#SocialSelling
p325
sg49
I00
sg50
Ven
p326
sg52
g3
(g53
g5
Ntp327
Rp328
(dp329
g10
VPhilly
p330
sg58
V333333
p331
sg60
Ven
p332
sg62
Nsg63
I660
sg64
I957
sg32
VSat Jul 12 21:07:00 +0000 2014
p333
sg66
I00
sg67
V#AllAboutLeverage \u2666 #SocialSelling \u2666 #LinkedIn \u2666#Twitter \u2666 #Networking \u2666 Love all things #Philly
p334
sg69
Vhttps://pbs.twimg.com/profile_images/488070333660790784/_h1MiVxC_normal.jpeg
p335
sg71
I344
sg72
I48
sg73
Nsg74
Nsg75
I00
sg76
Vhttps://pbs.twimg.com/profile_banners/2630850469/1405200379
p336
sg78
I00
sg79
I01
sg80
VF7870F
p337
sg82
I00
sg83
I00
sg84
Vhttp://pbs.twimg.com/profile_background_images/488072119830319104/uGjfsVkh.jpeg
p338
sg86
VKurtFoedisch
p339
sg88
I8
sg89
VKurt Foedisch
p340
sg91
VDDEEF6
p341
sg93
Vhttp://t.co/bKmKgXu0s7
p342
sg95
I2630850469
sg96
VC0DEED
p343
sbsg98
I0
sg99
V<a href="http://www.hootsuite.com" rel="nofollow">Hootsuite</a>
p344
sg101
(lp345
g3
(g103
g5
Ntp346
Rp347
(dp348
g107
Vhttp://t.co/FE7ZNcFHlt
p349
sg109
Vhttp://ow.ly/FHdS0
p350
sbasg95
I543155864778317825
sbag3
(g4
g5
Ntp351
Rp352
(dp353
g9
I0
sg10
Nsg11
Nsg12
(lp354
g3
(g14
g5
Ntp355
Rp356
(dp357
g18
VLinkedIn
p358
sbasg24
I00
sg25
Nsg26
Nsg27
(lp359
(dp360
Vexpanded_url
p361
Vhttp://twitter.com/KurtFoedisch/status/543115660323467264/photo/1
p362
sVdisplay_url
p363
Vpic.twitter.com/DuGUL4pm3d
p364
sVurl
p365
Vhttp://t.co/DuGUL4pm3d
p366
sVmedia_url_https
p367
Vhttps://pbs.twimg.com/media/B4mI0MNIMAIuetO.jpg
p368
sVid_str
p369
V543115660285718530
p370
sVsizes
p371
(dp372
Vlarge
p373
(dp374
Vh
p375
I220
sVresize
p376
Vfit
p377
sVw
p378
I229
ssVsmall
p379
(dp380
Vh
p381
I220
sVresize
p382
Vfit
p383
sVw
p384
I229
ssVmedium
p385
(dp386
Vh
p387
I220
sVresize
p388
Vfit
p389
sVw
p390
I229
ssVthumb
p391
(dp392
Vh
p393
I150
sVresize
p394
Vcrop
p395
sVw
p396
I150
sssVindices
p397
(lp398
I117
aI139
asVtype
p399
Vphoto
p400
sVid
p401
I543115660285718530
sVmedia_url
p402
Vhttp://pbs.twimg.com/media/B4mI0MNIMAIuetO.jpg
p403
sasg29
Nsg30
Nsg31
Nsg32
VThu Dec 11 18:50:38 +0000 2014
p404
sg34
Nsg35
I00
sg36
Nsg37
Nsg38
Nsg39
Nsg40
I00
sg41
Nsg42
(lp405
sg44
Nsg45
Nsg46
Nsg47
V#LinkedIn Tip 33-Use visuals; embed SlideShare presentations and infographics into your profile and long-form posts. http://t.co/DuGUL4pm3d
p406
sg49
I00
sg50
Ven
p407
sg52
g3
(g53
g5
Ntp408
Rp409
(dp410
g10
VPhilly
p411
sg58
V333333
p412
sg60
Ven
p413
sg62
Nsg63
I660
sg64
I957
sg32
VSat Jul 12 21:07:00 +0000 2014
p414
sg66
I00
sg67
V#AllAboutLeverage \u2666 #SocialSelling \u2666 #LinkedIn \u2666#Twitter \u2666 #Networking \u2666 Love all things #Philly
p415
sg69
Vhttps://pbs.twimg.com/profile_images/488070333660790784/_h1MiVxC_normal.jpeg
p416
sg71
I344
sg72
I48
sg73
Nsg74
Nsg75
I00
sg76
Vhttps://pbs.twimg.com/profile_banners/2630850469/1405200379
p417
sg78
I00
sg79
I01
sg80
VF7870F
p418
sg82
I00
sg83
I00
sg84
Vhttp://pbs.twimg.com/profile_background_images/488072119830319104/uGjfsVkh.jpeg
p419
sg86
VKurtFoedisch
p420
sg88
I8
sg89
VKurt Foedisch
p421
sg91
VDDEEF6
p422
sg93
Vhttp://t.co/bKmKgXu0s7
p423
sg95
I2630850469
sg96
VC0DEED
p424
sbsg98
I0
sg99
V<a href="http://tweetadder.com" rel="nofollow">TweetAdder v4</a>
p425
sg101
(lp426
sg95
I543115660323467264
sbag3
(g4
g5
Ntp427
Rp428
(dp429
g9
I0
sg10
Nsg11
Nsg12
(lp430
g3
(g14
g5
Ntp431
Rp432
(dp433
g18
VLinkedIn
p434
sbasg24
I00
sg25
Nsg26
Nsg27
(lp435
(dp436
Vexpanded_url
p437
Vhttp://twitter.com/KurtFoedisch/status/543106609824952321/photo/1
p438
sVdisplay_url
p439
Vpic.twitter.com/K42OG4niQ2
p440
sVurl
p441
Vhttp://t.co/K42OG4niQ2
p442
sVmedia_url_https
p443
Vhttps://pbs.twimg.com/media/B4mAlYeIcAECAlc.jpg
p444
sVid_str
p445
V543106609787203585
p446
sVsizes
p447
(dp448
Vsmall
p449
(dp450
Vh
p451
I225
sVresize
p452
Vfit
p453
sVw
p454
I225
ssVlarge
p455
(dp456
Vh
p457
I225
sVresize
p458
Vfit
p459
sVw
p460
I225
ssVmedium
p461
(dp462
Vh
p463
I225
sVresize
p464
Vfit
p465
sVw
p466
I225
ssVthumb
p467
(dp468
Vh
p469
I150
sVresize
p470
Vcrop
p471
sVw
p472
I150
sssVindices
p473
(lp474
I117
aI139
asVtype
p475
Vphoto
p476
sVid
p477
I543106609787203585
sVmedia_url
p478
Vhttp://pbs.twimg.com/media/B4mAlYeIcAECAlc.jpg
p479
sasg29
Nsg30
Nsg31
Nsg32
VThu Dec 11 18:14:40 +0000 2014
p480
sg34
Nsg35
I00
sg36
Nsg37
Nsg38
Nsg39
Nsg40
I00
sg41
Nsg42
(lp481
sg44
Nsg45
Nsg46
Nsg47
V#LinkedIn Tip 31-Struggling to fill a role in your company? Instead of hiring a recruiter, join LinkedIn's Recruiter http://t.co/K42OG4niQ2
p482
sg49
I00
sg50
Ven
p483
sg52
g3
(g53
g5
Ntp484
Rp485
(dp486
g10
VPhilly
p487
sg58
V333333
p488
sg60
Ven
p489
sg62
Nsg63
I660
sg64
I957
sg32
VSat Jul 12 21:07:00 +0000 2014
p490
sg66
I00
sg67
V#AllAboutLeverage \u2666 #SocialSelling \u2666 #LinkedIn \u2666#Twitter \u2666 #Networking \u2666 Love all things #Philly
p491
sg69
Vhttps://pbs.twimg.com/profile_images/488070333660790784/_h1MiVxC_normal.jpeg
p492
sg71
I344
sg72
I48
sg73
Nsg74
Nsg75
I00
sg76
Vhttps://pbs.twimg.com/profile_banners/2630850469/1405200379
p493
sg78
I00
sg79
I01
sg80
VF7870F
p494
sg82
I00
sg83
I00
sg84
Vhttp://pbs.twimg.com/profile_background_images/488072119830319104/uGjfsVkh.jpeg
p495
sg86
VKurtFoedisch
p496
sg88
I8
sg89
VKurt Foedisch
p497
sg91
VDDEEF6
p498
sg93
Vhttp://t.co/bKmKgXu0s7
p499
sg95
I2630850469
sg96
VC0DEED
p500
sbsg98
I0
sg99
V<a href="http://tweetadder.com" rel="nofollow">TweetAdder v4</a>
p501
sg101
(lp502
sg95
I543106609824952321
sbag3
(g4
g5
Ntp503
Rp504
(dp505
g9
I0
sg10
Nsg11
Nsg12
(lp506
g3
(g14
g5
Ntp507
Rp508
(dp509
g18
VLinkedIn
p510
sbag3
(g14
g5
Ntp511
Rp512
(dp513
g18
VSocialSelling
p514
sbasg24
I00
sg25
Nsg26
Nsg27
(lp515
sg29
Nsg30
Nsg31
Nsg32
VThu Dec 11 17:02:33 +0000 2014
p516
sg34
Nsg35
I00
sg36
Nsg37
Nsg38
Nsg39
Nsg40
I00
sg41
Nsg42
(lp517
sg44
Nsg45
Nsg46
Nsg47
VMaximize Your #LinkedIn Presence with These 7 Tools! http://t.co/SmglFlUDkl\u000a#SocialSelling
p518
sg49
I00
sg50
Ven
p519
sg52
g3
(g53
g5
Ntp520
Rp521
(dp522
g10
VPhilly
p523
sg58
V333333
p524
sg60
Ven
p525
sg62
Nsg63
I660
sg64
I957
sg32
VSat Jul 12 21:07:00 +0000 2014
p526
sg66
I00
sg67
V#AllAboutLeverage \u2666 #SocialSelling \u2666 #LinkedIn \u2666#Twitter \u2666 #Networking \u2666 Love all things #Philly
p527
sg69
Vhttps://pbs.twimg.com/profile_images/488070333660790784/_h1MiVxC_normal.jpeg
p528
sg71
I344
sg72
I48
sg73
Nsg74
Nsg75
I00
sg76
Vhttps://pbs.twimg.com/profile_banners/2630850469/1405200379
p529
sg78
I00
sg79
I01
sg80
VF7870F
p530
sg82
I00
sg83
I00
sg84
Vhttp://pbs.twimg.com/profile_background_images/488072119830319104/uGjfsVkh.jpeg
p531
sg86
VKurtFoedisch
p532
sg88
I8
sg89
VKurt Foedisch
p533
sg91
VDDEEF6
p534
sg93
Vhttp://t.co/bKmKgXu0s7
p535
sg95
I2630850469
sg96
VC0DEED
p536
sbsg98
I0
sg99
V<a href="http://www.hootsuite.com" rel="nofollow">Hootsuite</a>
p537
sg101
(lp538
g3
(g103
g5
Ntp539
Rp540
(dp541
g107
Vhttp://t.co/SmglFlUDkl
p542
sg109
Vhttp://ow.ly/FHf08
p543
sbasg95
I543088460543062017
sbag3
(g4
g5
Ntp544
Rp545
(dp546
g9
I0
sg10
Nsg11
Nsg12
(lp547
g3
(g14
g5
Ntp548
Rp549
(dp550
g18
VLinkedIn
p551
sbasg24
I00
sg25
Nsg26
Nsg27
(lp552
(dp553
Vexpanded_url
p554
Vhttp://twitter.com/KurtFoedisch/status/543077912984178689/photo/1
p555
sVdisplay_url
p556
Vpic.twitter.com/aWLQLFzKsw
p557
sVurl
p558
Vhttp://t.co/aWLQLFzKsw
p559
sVmedia_url_https
p560
Vhttps://pbs.twimg.com/media/B4lmfAQIUAEBt42.jpg
p561
sVid_str
p562
V543077912904486913
p563
sVsizes
p564
(dp565
Vlarge
p566
(dp567
Vh
p568
I204
sVresize
p569
Vfit
p570
sVw
p571
I204
ssVsmall
p572
(dp573
Vh
p574
I204
sVresize
p575
Vfit
p576
sVw
p577
I204
ssVmedium
p578
(dp579
Vh
p580
I204
sVresize
p581
Vfit
p582
sVw
p583
I204
ssVthumb
p584
(dp585
Vh
p586
I150
sVresize
p587
Vcrop
p588
sVw
p589
I150
sssVindices
p590
(lp591
I118
aI140
asVtype
p592
Vphoto
p593
sVid
p594
I543077912904486913
sVmedia_url
p595
Vhttp://pbs.twimg.com/media/B4lmfAQIUAEBt42.jpg
p596
sasg29
Nsg30
Nsg31
Nsg32
VThu Dec 11 16:20:39 +0000 2014
p597
sg34
Nsg35
I00
sg36
Nsg37
Nsg38
Nsg39
Nsg40
I00
sg41
Nsg42
(lp598
sg44
Nsg45
Nsg46
Nsg47
V#LinkedIn Tip 19-Don't use the automated invitations message: "I'd like to add you to my professional network on Link http://t.co/aWLQLFzKsw
p599
sg49
I00
sg50
Ven
p600
sg52
g3
(g53
g5
Ntp601
Rp602
(dp603
g10
VPhilly
p604
sg58
V333333
p605
sg60
Ven
p606
sg62
Nsg63
I660
sg64
I957
sg32
VSat Jul 12 21:07:00 +0000 2014
p607
sg66
I00
sg67
V#AllAboutLeverage \u2666 #SocialSelling \u2666 #LinkedIn \u2666#Twitter \u2666 #Networking \u2666 Love all things #Philly
p608
sg69
Vhttps://pbs.twimg.com/profile_images/488070333660790784/_h1MiVxC_normal.jpeg
p609
sg71
I344
sg72
I48
sg73
Nsg74
Nsg75
I00
sg76
Vhttps://pbs.twimg.com/profile_banners/2630850469/1405200379
p610
sg78
I00
sg79
I01
sg80
VF7870F
p611
sg82
I00
sg83
I00
sg84
Vhttp://pbs.twimg.com/profile_background_images/488072119830319104/uGjfsVkh.jpeg
p612
sg86
VKurtFoedisch
p613
sg88
I8
sg89
VKurt Foedisch
p614
sg91
VDDEEF6
p615
sg93
Vhttp://t.co/bKmKgXu0s7
p616
sg95
I2630850469
sg96
VC0DEED
p617
sbsg98
I0
sg99
V<a href="http://tweetadder.com" rel="nofollow">TweetAdder v4</a>
p618
sg101
(lp619
sg95
I543077912984178689
sbag3
(g4
g5
Ntp620
Rp621
(dp622
g9
I0
sg10
Nsg11
Nsg12
(lp623
g3
(g14
g5
Ntp624
Rp625
(dp626
g18
VLinkedIn
p627
sbag3
(g14
g5
Ntp628
Rp629
(dp630
g18
VAllAboutLeverage
p631
sbasg24
I00
sg25
Nsg26
Nsg27
(lp632
(dp633
Vexpanded_url
p634
Vhttp://twitter.com/KurtFoedisch/status/543068977183064066/photo/1
p635
sVdisplay_url
p636
Vpic.twitter.com/EnnjVz1ApH
p637
sVurl
p638
Vhttp://t.co/EnnjVz1ApH
p639
sVmedia_url_https
p640
Vhttps://pbs.twimg.com/media/B4leW38IcAAyd7x.jpg
p641
sVid_str
p642
V543068977141149696
p643
sVsizes
p644
(dp645
Vlarge
p646
(dp647
Vh
p648
I168
sVresize
p649
Vfit
p650
sVw
p651
I299
ssVsmall
p652
(dp653
Vh
p654
I168
sVresize
p655
Vfit
p656
sVw
p657
I299
ssVmedium
p658
(dp659
Vh
p660
I168
sVresize
p661
Vfit
p662
sVw
p663
I299
ssVthumb
p664
(dp665
Vh
p666
I150
sVresize
p667
Vcrop
p668
sVw
p669
I150
sssVindices
p670
(lp671
I77
aI99
asVtype
p672
Vphoto
p673
sVid
p674
I543068977141149696
sVmedia_url
p675
Vhttp://pbs.twimg.com/media/B4leW38IcAAyd7x.jpg
p676
sasg29
Nsg30
Nsg31
Nsg32
VThu Dec 11 15:45:08 +0000 2014
p677
sg34
Nsg35
I00
sg36
Nsg37
Nsg38
Nsg39
Nsg40
I00
sg41
Nsg42
(lp678
sg44
Nsg45
Nsg46
Nsg47
V#LinkedIn Recap 2014 - check it out http://t.co/bi5fGld1T5 #AllAboutLeverage http://t.co/EnnjVz1ApH
p679
sg49
I00
sg50
Ven
p680
sg52
g3
(g53
g5
Ntp681
Rp682
(dp683
g10
VPhilly
p684
sg58
V333333
p685
sg60
Ven
p686
sg62
Nsg63
I660
sg64
I957
sg32
VSat Jul 12 21:07:00 +0000 2014
p687
sg66
I00
sg67
V#AllAboutLeverage \u2666 #SocialSelling \u2666 #LinkedIn \u2666#Twitter \u2666 #Networking \u2666 Love all things #Philly
p688
sg69
Vhttps://pbs.twimg.com/profile_images/488070333660790784/_h1MiVxC_normal.jpeg
p689
sg71
I344
sg72
I48
sg73
Nsg74
Nsg75
I00
sg76
Vhttps://pbs.twimg.com/profile_banners/2630850469/1405200379
p690
sg78
I00
sg79
I01
sg80
VF7870F
p691
sg82
I00
sg83
I00
sg84
Vhttp://pbs.twimg.com/profile_background_images/488072119830319104/uGjfsVkh.jpeg
p692
sg86
VKurtFoedisch
p693
sg88
I8
sg89
VKurt Foedisch
p694
sg91
VDDEEF6
p695
sg93
Vhttp://t.co/bKmKgXu0s7
p696
sg95
I2630850469
sg96
VC0DEED
p697
sbsg98
I0
sg99
V<a href="http://tweetadder.com" rel="nofollow">TweetAdder v4</a>
p698
sg101
(lp699
g3
(g103
g5
Ntp700
Rp701
(dp702
g107
Vhttp://t.co/bi5fGld1T5
p703
sg109
Vhttp://linkd.in/1Afxz1R
p704
sbasg95
I543068977183064066
sbag3
(g4
g5
Ntp705
Rp706
(dp707
g9
I0
sg10
Nsg11
Nsg12
(lp708
g3
(g14
g5
Ntp709
Rp710
(dp711
g18
VSocialSelling
p712
sbag3
(g14
g5
Ntp713
Rp714
(dp715
g18
VLinkedIn
p716
sbag3
(g14
g5
Ntp717
Rp718
(dp719
g18
VNetworking
p720
sbag3
(g14
g5
Ntp721
Rp722
(dp723
g18
VTwitter
p724
sbasg24
I00
sg25
Nsg26
Nsg27
(lp725
(dp726
Vexpanded_url
p727
Vhttp://twitter.com/KurtFoedisch/status/543060649522528256/photo/1
p728
sVdisplay_url
p729
Vpic.twitter.com/93h16BKLC5
p730
sVurl
p731
Vhttp://t.co/93h16BKLC5
p732
sVmedia_url_https
p733
Vhttps://pbs.twimg.com/media/B4lWyIvIAAAhFaL.jpg
p734
sVid_str
p735
V543060649413443584
p736
sVsizes
p737
(dp738
Vsmall
p739
(dp740
Vh
p741
I148
sVresize
p742
Vfit
p743
sVw
p744
I240
ssVlarge
p745
(dp746
Vh
p747
I148
sVresize
p748
Vfit
p749
sVw
p750
I240
ssVmedium
p751
(dp752
Vh
p753
I148
sVresize
p754
Vfit
p755
sVw
p756
I240
ssVthumb
p757
(dp758
Vh
p759
I148
sVresize
p760
Vcrop
p761
sVw
p762
I150
sssVindices
p763
(lp764
I122
aI144
asVtype
p765
Vphoto
p766
sVid
p767
I543060649413443584
sVmedia_url
p768
Vhttp://pbs.twimg.com/media/B4lWyIvIAAAhFaL.jpg
p769
sasg29
Nsg30
Nsg31
Nsg32
VThu Dec 11 15:12:03 +0000 2014
p770
sg34
Nsg35
I00
sg36
Nsg37
Nsg38
Nsg39
Nsg40
I00
sg41
Nsg42
(lp771
sg44
Nsg45
Nsg46
Nsg47
VFor #SocialSelling, #LinkedIn, #Networking &amp; #Twitter workshops, click here to register! http://www.allaboutleveragel http://t.co/93h16BKLC5
p772
sg49
I00
sg50
Ven
p773
sg52
g3
(g53
g5
Ntp774
Rp775
(dp776
g10
VPhilly
p777
sg58
V333333
p778
sg60
Ven
p779
sg62
Nsg63
I660
sg64
I957
sg32
VSat Jul 12 21:07:00 +0000 2014
p780
sg66
I00
sg67
V#AllAboutLeverage \u2666 #SocialSelling \u2666 #LinkedIn \u2666#Twitter \u2666 #Networking \u2666 Love all things #Philly
p781
sg69
Vhttps://pbs.twimg.com/profile_images/488070333660790784/_h1MiVxC_normal.jpeg
p782
sg71
I344
sg72
I48
sg73
Nsg74
Nsg75
I00
sg76
Vhttps://pbs.twimg.com/profile_banners/2630850469/1405200379
p783
sg78
I00
sg79
I01
sg80
VF7870F
p784
sg82
I00
sg83
I00
sg84
Vhttp://pbs.twimg.com/profile_background_images/488072119830319104/uGjfsVkh.jpeg
p785
sg86
VKurtFoedisch
p786
sg88
I8
sg89
VKurt Foedisch
p787
sg91
VDDEEF6
p788
sg93
Vhttp://t.co/bKmKgXu0s7
p789
sg95
I2630850469
sg96
VC0DEED
p790
sbsg98
I0
sg99
V<a href="http://tweetadder.com" rel="nofollow">TweetAdder v4</a>
p791
sg101
(lp792
sg95
I543060649522528256
sbag3
(g4
g5
Ntp793
Rp794
(dp795
g9
I0
sg10
Nsg11
Nsg12
(lp796
g3
(g14
g5
Ntp797
Rp798
(dp799
g18
VLinkedIn
p800
sbasg24
I00
sg25
Nsg26
Nsg27
(lp801
(dp802
Vexpanded_url
p803
Vhttp://twitter.com/KurtFoedisch/status/543052383392370688/photo/1
p804
sVdisplay_url
p805
Vpic.twitter.com/aHyueFaCr9
p806
sVurl
p807
Vhttp://t.co/aHyueFaCr9
p808
sVmedia_url_https
p809
Vhttps://pbs.twimg.com/media/B4lPQ_RIAAAnRYE.jpg
p810
sVid_str
p811
V543052383354617856
p812
sVsizes
p813
(dp814
Vlarge
p815
(dp816
Vh
p817
I204
sVresize
p818
Vfit
p819
sVw
p820
I204
ssVsmall
p821
(dp822
Vh
p823
I204
sVresize
p824
Vfit
p825
sVw
p826
I204
ssVmedium
p827
(dp828
Vh
p829
I204
sVresize
p830
Vfit
p831
sVw
p832
I204
ssVthumb
p833
(dp834
Vh
p835
I150
sVresize
p836
Vcrop
p837
sVw
p838
I150
sssVindices
p839
(lp840
I111
aI133
asVtype
p841
Vphoto
p842
sVid
p843
I543052383354617856
sVmedia_url
p844
Vhttp://pbs.twimg.com/media/B4lPQ_RIAAAnRYE.jpg
p845
sasg29
Nsg30
Nsg31
Nsg32
VThu Dec 11 14:39:12 +0000 2014
p846
sg34
Nsg35
I00
sg36
Nsg37
Nsg38
Nsg39
Nsg40
I00
sg41
Nsg42
(lp847
sg44
Nsg45
Nsg46
Nsg47
V#LinkedIn Tip 28-Endorse people you respect. Send a thank-you message when someone endorses you. \u2014 Jeff Bullas http://t.co/aHyueFaCr9
p848
sg49
I00
sg50
Ven
p849
sg52
g3
(g53
g5
Ntp850
Rp851
(dp852
g10
VPhilly
p853
sg58
V333333
p854
sg60
Ven
p855
sg62
Nsg63
I660
sg64
I957
sg32
VSat Jul 12 21:07:00 +0000 2014
p856
sg66
I00
sg67
V#AllAboutLeverage \u2666 #SocialSelling \u2666 #LinkedIn \u2666#Twitter \u2666 #Networking \u2666 Love all things #Philly
p857
sg69
Vhttps://pbs.twimg.com/profile_images/488070333660790784/_h1MiVxC_normal.jpeg
p858
sg71
I344
sg72
I48
sg73
Nsg74
Nsg75
I00
sg76
Vhttps://pbs.twimg.com/profile_banners/2630850469/1405200379
p859
sg78
I00
sg79
I01
sg80
VF7870F
p860
sg82
I00
sg83
I00
sg84
Vhttp://pbs.twimg.com/profile_background_images/488072119830319104/uGjfsVkh.jpeg
p861
sg86
VKurtFoedisch
p862
sg88
I8
sg89
VKurt Foedisch
p863
sg91
VDDEEF6
p864
sg93
Vhttp://t.co/bKmKgXu0s7
p865
sg95
I2630850469
sg96
VC0DEED
p866
sbsg98
I0
sg99
V<a href="http://tweetadder.com" rel="nofollow">TweetAdder v4</a>
p867
sg101
(lp868
sg95
I543052383392370688
sbag3
(g4
g5
Ntp869
Rp870
(dp871
g9
I0
sg10
Nsg11
Nsg12
(lp872
g3
(g14
g5
Ntp873
Rp874
(dp875
g18
VSocialSelling
p876
sbasg24
I00
sg25
Nsg26
Nsg27
(lp877
(dp878
Vexpanded_url
p879
Vhttp://twitter.com/KurtFoedisch/status/543044339245789184/photo/1
p880
sVdisplay_url
p881
Vpic.twitter.com/51bLeMeQvZ
p882
sVurl
p883
Vhttp://t.co/51bLeMeQvZ
p884
sVmedia_url_https
p885
Vhttps://pbs.twimg.com/media/B4lH8wgIgAA59kU.jpg
p886
sVid_str
p887
V543044339212255232
p888
sVsizes
p889
(dp890
Vlarge
p891
(dp892
Vh
p893
I190
sVresize
p894
Vfit
p895
sVw
p896
I265
ssVsmall
p897
(dp898
Vh
p899
I190
sVresize
p900
Vfit
p901
sVw
p902
I265
ssVmedium
p903
(dp904
Vh
p905
I190
sVresize
p906
Vfit
p907
sVw
p908
I265
ssVthumb
p909
(dp910
Vh
p911
I150
sVresize
p912
Vcrop
p913
sVw
p914
I150
sssVindices
p915
(lp916
I87
aI109
asVtype
p917
Vphoto
p918
sVid
p919
I543044339212255232
sVmedia_url
p920
Vhttp://pbs.twimg.com/media/B4lH8wgIgAA59kU.jpg
p921
sasg29
Nsg30
Nsg31
Nsg32
VThu Dec 11 14:07:14 +0000 2014
p922
sg34
Nsg35
I00
sg36
Nsg37
Nsg38
Nsg39
Nsg40
I00
sg41
Nsg42
(lp923
sg44
Nsg45
Nsg46
Nsg47
VInterested in #SocialSelling coaching? click here for more info http://t.co/SewYl1Wnhx http://t.co/51bLeMeQvZ
p924
sg49
I00
sg50
Ven
p925
sg52
g3
(g53
g5
Ntp926
Rp927
(dp928
g10
VPhilly
p929
sg58
V333333
p930
sg60
Ven
p931
sg62
Nsg63
I660
sg64
I957
sg32
VSat Jul 12 21:07:00 +0000 2014
p932
sg66
I00
sg67
V#AllAboutLeverage \u2666 #SocialSelling \u2666 #LinkedIn \u2666#Twitter \u2666 #Networking \u2666 Love all things #Philly
p933
sg69
Vhttps://pbs.twimg.com/profile_images/488070333660790784/_h1MiVxC_normal.jpeg
p934
sg71
I344
sg72
I48
sg73
Nsg74
Nsg75
I00
sg76
Vhttps://pbs.twimg.com/profile_banners/2630850469/1405200379
p935
sg78
I00
sg79
I01
sg80
VF7870F
p936
sg82
I00
sg83
I00
sg84
Vhttp://pbs.twimg.com/profile_background_images/488072119830319104/uGjfsVkh.jpeg
p937
sg86
VKurtFoedisch
p938
sg88
I8
sg89
VKurt Foedisch
p939
sg91
VDDEEF6
p940
sg93
Vhttp://t.co/bKmKgXu0s7
p941
sg95
I2630850469
sg96
VC0DEED
p942
sbsg98
I0
sg99
V<a href="http://tweetadder.com" rel="nofollow">TweetAdder v4</a>
p943
sg101
(lp944
g3
(g103
g5
Ntp945
Rp946
(dp947
g107
Vhttp://t.co/SewYl1Wnhx
p948
sg109
Vhttp://www.allaboutleveragellc.com/executive-coaching
p949
sbasg95
I543044339245789184
sbag3
(g4
g5
Ntp950
Rp951
(dp952
g9
I0
sg10
Nsg11
Nsg12
(lp953
g3
(g14
g5
Ntp954
Rp955
(dp956
g18
VNetworking
p957
sbag3
(g14
g5
Ntp958
Rp959
(dp960
g18
VLinkedIn
p961
sbag3
(g14
g5
Ntp962
Rp963
(dp964
g18
VAllAboutLeverage
p965
sbasg24
I00
sg25
Nsg26
Nsg27
(lp966
(dp967
Vexpanded_url
p968
Vhttp://twitter.com/KurtFoedisch/status/543035194895527936/photo/1
p969
sVdisplay_url
p970
Vpic.twitter.com/J7qajyr6kL
p971
sVurl
p972
Vhttp://t.co/J7qajyr6kL
p973
sVmedia_url_https
p974
Vhttps://pbs.twimg.com/media/B4k_ofCIgAE_b9O.jpg
p975
sVid_str
p976
V543035194832617473
p977
sVsizes
p978
(dp979
Vsmall
p980
(dp981
Vh
p982
I185
sVresize
p983
Vfit
p984
sVw
p985
I272
ssVlarge
p986
(dp987
Vh
p988
I185
sVresize
p989
Vfit
p990
sVw
p991
I272
ssVmedium
p992
(dp993
Vh
p994
I185
sVresize
p995
Vfit
p996
sVw
p997
I272
ssVthumb
p998
(dp999
Vh
p1000
I150
sVresize
p1001
Vcrop
p1002
sVw
p1003
I150
sssVindices
p1004
(lp1005
I89
aI111
asVtype
p1006
Vphoto
p1007
sVid
p1008
I543035194832617473
sVmedia_url
p1009
Vhttp://pbs.twimg.com/media/B4k_ofCIgAE_b9O.jpg
p1010
sasg29
Nsg30
Nsg31
Nsg32
VThu Dec 11 13:30:54 +0000 2014
p1011
sg34
Nsg35
I00
sg36
Nsg37
Nsg38
Nsg39
Nsg40
I00
sg41
Nsg42
(lp1012
sg44
Nsg45
Nsg46
Nsg47
V#Networking on #LinkedIn - 3 ways to open doors http://t.co/NO3N9Ar2pl #AllAboutLeverage http://t.co/J7qajyr6kL
p1013
sg49
I00
sg50
Ven
p1014
sg52
g3
(g53
g5
Ntp1015
Rp1016
(dp1017
g10
VPhilly
p1018
sg58
V333333
p1019
sg60
Ven
p1020
sg62
Nsg63
I660
sg64
I957
sg32
VSat Jul 12 21:07:00 +0000 2014
p1021
sg66
I00
sg67
V#AllAboutLeverage \u2666 #SocialSelling \u2666 #LinkedIn \u2666#Twitter \u2666 #Networking \u2666 Love all things #Philly
p1022
sg69
Vhttps://pbs.twimg.com/profile_images/488070333660790784/_h1MiVxC_normal.jpeg
p1023
sg71
I344
sg72
I48
sg73
Nsg74
Nsg75
I00
sg76
Vhttps://pbs.twimg.com/profile_banners/2630850469/1405200379
p1024
sg78
I00
sg79
I01
sg80
VF7870F
p1025
sg82
I00
sg83
I00
sg84
Vhttp://pbs.twimg.com/profile_background_images/488072119830319104/uGjfsVkh.jpeg
p1026
sg86
VKurtFoedisch
p1027
sg88
I8
sg89
VKurt Foedisch
p1028
sg91
VDDEEF6
p1029
sg93
Vhttp://t.co/bKmKgXu0s7
p1030
sg95
I2630850469
sg96
VC0DEED
p1031
sbsg98
I0
sg99
V<a href="http://tweetadder.com" rel="nofollow">TweetAdder v4</a>
p1032
sg101
(lp1033
g3
(g103
g5
Ntp1034
Rp1035
(dp1036
g107
Vhttp://t.co/NO3N9Ar2pl
p1037
sg109
Vhttp://linkd.in/1yKVdTV
p1038
sbasg95
I543035194895527936
sbag3
(g4
g5
Ntp1039
Rp1040
(dp1041
g9
I0
sg10
Nsg11
Nsg12
(lp1042
g3
(g14
g5
Ntp1043
Rp1044
(dp1045
g18
VLinkedIn
p1046
sbag3
(g14
g5
Ntp1047
Rp1048
(dp1049
g18
VSocialSelling
p1050
sbasg24
I00
sg25
Nsg26
Nsg27
(lp1051
sg29
Nsg30
Nsg31
Nsg32
VThu Dec 11 13:20:06 +0000 2014
p1052
sg34
Nsg35
I00
sg36
Nsg37
Nsg38
Nsg39
Nsg40
I00
sg41
Nsg42
(lp1053
sg44
Nsg45
Nsg46
Nsg47
V#LinkedIn... It\u2019s All About Leverage... isn\u2019t it? http://t.co/LiFhc0MruC\u000a#SocialSelling
p1054
sg49
I00
sg50
Ven
p1055
sg52
g3
(g53
g5
Ntp1056
Rp1057
(dp1058
g10
VPhilly
p1059
sg58
V333333
p1060
sg60
Ven
p1061
sg62
Nsg63
I660
sg64
I957
sg32
VSat Jul 12 21:07:00 +0000 2014
p1062
sg66
I00
sg67
V#AllAboutLeverage \u2666 #SocialSelling \u2666 #LinkedIn \u2666#Twitter \u2666 #Networking \u2666 Love all things #Philly
p1063
sg69
Vhttps://pbs.twimg.com/profile_images/488070333660790784/_h1MiVxC_normal.jpeg
p1064
sg71
I344
sg72
I48
sg73
Nsg74
Nsg75
I00
sg76
Vhttps://pbs.twimg.com/profile_banners/2630850469/1405200379
p1065
sg78
I00
sg79
I01
sg80
VF7870F
p1066
sg82
I00
sg83
I00
sg84
Vhttp://pbs.twimg.com/profile_background_images/488072119830319104/uGjfsVkh.jpeg
p1067
sg86
VKurtFoedisch
p1068
sg88
I8
sg89
VKurt Foedisch
p1069
sg91
VDDEEF6
p1070
sg93
Vhttp://t.co/bKmKgXu0s7
p1071
sg95
I2630850469
sg96
VC0DEED
p1072
sbsg98
I0
sg99
V<a href="http://www.hootsuite.com" rel="nofollow">Hootsuite</a>
p1073
sg101
(lp1074
g3
(g103
g5
Ntp1075
Rp1076
(dp1077
g107
Vhttp://t.co/LiFhc0MruC
p1078
sg109
Vhttp://ow.ly/FHppg
p1079
sbasg95
I543032476357390336
sbag3
(g4
g5
Ntp1080
Rp1081
(dp1082
g9
I0
sg10
Nsg11
Nsg12
(lp1083
g3
(g14
g5
Ntp1084
Rp1085
(dp1086
g18
VLinkedIn
p1087
sbasg24
I00
sg25
Nsg26
Nsg27
(lp1088
(dp1089
Vexpanded_url
p1090
Vhttp://twitter.com/KurtFoedisch/status/542815457540313088/photo/1
p1091
sVdisplay_url
p1092
Vpic.twitter.com/DsXuQRlIoV
p1093
sVurl
p1094
Vhttp://t.co/DsXuQRlIoV
p1095
sVmedia_url_https
p1096
Vhttps://pbs.twimg.com/media/B4h3yFeIUAAoufQ.jpg
p1097
sVid_str
p1098
V542815457443860480
p1099
sVsizes
p1100
(dp1101
Vsmall
p1102
(dp1103
Vh
p1104
I148
sVresize
p1105
Vfit
p1106
sVw
p1107
I240
ssVlarge
p1108
(dp1109
Vh
p1110
I148
sVresize
p1111
Vfit
p1112
sVw
p1113
I240
ssVmedium
p1114
(dp1115
Vh
p1116
I148
sVresize
p1117
Vfit
p1118
sVw
p1119
I240
ssVthumb
p1120
(dp1121
Vh
p1122
I148
sVresize
p1123
Vcrop
p1124
sVw
p1125
I150
sssVindices
p1126
(lp1127
I117
aI139
asVtype
p1128
Vphoto
p1129
sVid
p1130
I542815457443860480
sVmedia_url
p1131
Vhttp://pbs.twimg.com/media/B4h3yFeIUAAoufQ.jpg
p1132
sasg29
Nsg30
Nsg31
Nsg32
VWed Dec 10 22:57:44 +0000 2014
p1133
sg34
Nsg35
I00
sg36
Nsg37
Nsg38
Nsg39
Nsg40
I00
sg41
Nsg42
(lp1134
sg44
Nsg45
Nsg46
Nsg47
V#LinkedIn Tip 21-The best times to post on LinkedIn: Tuesday and Thursdays, between 7am and 9am local time. \u2014 Social http://t.co/DsXuQRlIoV
p1135
sg49
I00
sg50
Ven
p1136
sg52
g3
(g53
g5
Ntp1137
Rp1138
(dp1139
g10
VPhilly
p1140
sg58
V333333
p1141
sg60
Ven
p1142
sg62
Nsg63
I660
sg64
I957
sg32
VSat Jul 12 21:07:00 +0000 2014
p1143
sg66
I00
sg67
V#AllAboutLeverage \u2666 #SocialSelling \u2666 #LinkedIn \u2666#Twitter \u2666 #Networking \u2666 Love all things #Philly
p1144
sg69
Vhttps://pbs.twimg.com/profile_images/488070333660790784/_h1MiVxC_normal.jpeg
p1145
sg71
I344
sg72
I48
sg73
Nsg74
Nsg75
I00
sg76
Vhttps://pbs.twimg.com/profile_banners/2630850469/1405200379
p1146
sg78
I00
sg79
I01
sg80
VF7870F
p1147
sg82
I00
sg83
I00
sg84
Vhttp://pbs.twimg.com/profile_background_images/488072119830319104/uGjfsVkh.jpeg
p1148
sg86
VKurtFoedisch
p1149
sg88
I8
sg89
VKurt Foedisch
p1150
sg91
VDDEEF6
p1151
sg93
Vhttp://t.co/bKmKgXu0s7
p1152
sg95
I2630850469
sg96
VC0DEED
p1153
sbsg98
I0
sg99
V<a href="http://tweetadder.com" rel="nofollow">TweetAdder v4</a>
p1154
sg101
(lp1155
sg95
I542815457540313088
sbag3
(g4
g5
Ntp1156
Rp1157
(dp1158
g9
I0
sg10
Nsg11
Nsg12
(lp1159
g3
(g14
g5
Ntp1160
Rp1161
(dp1162
g18
VLinkedIn
p1163
sbasg24
I00
sg25
Nsg26
Nsg27
(lp1164
(dp1165
Vexpanded_url
p1166
Vhttp://twitter.com/KurtFoedisch/status/542807379038195713/photo/1
p1167
sVdisplay_url
p1168
Vpic.twitter.com/xLlZJwetZh
p1169
sVurl
p1170
Vhttp://t.co/xLlZJwetZh
p1171
sVmedia_url_https
p1172
Vhttps://pbs.twimg.com/media/B4hwb24IUAA4nZD.png
p1173
sVid_str
p1174
V542807378987864064
p1175
sVsizes
p1176
(dp1177
Vlarge
p1178
(dp1179
Vh
p1180
I320
sVresize
p1181
Vfit
p1182
sVw
p1183
I610
ssVsmall
p1184
(dp1185
Vh
p1186
I178
sVresize
p1187
Vfit
p1188
sVw
p1189
I340
ssVmedium
p1190
(dp1191
Vh
p1192
I314
sVresize
p1193
Vfit
p1194
sVw
p1195
I600
ssVthumb
p1196
(dp1197
Vh
p1198
I150
sVresize
p1199
Vcrop
p1200
sVw
p1201
I150
sssVindices
p1202
(lp1203
I118
aI140
asVtype
p1204
Vphoto
p1205
sVid
p1206
I542807378987864064
sVmedia_url
p1207
Vhttp://pbs.twimg.com/media/B4hwb24IUAA4nZD.png
p1208
sasg29
Nsg30
Nsg31
Nsg32
VWed Dec 10 22:25:38 +0000 2014
p1209
sg34
Nsg35
I00
sg36
Nsg37
Nsg38
Nsg39
Nsg40
I00
sg41
Nsg42
(lp1210
sg44
Nsg45
Nsg46
Nsg47
V#LinkedIn Tip 15-Use your LinkedIn profile as a sales tool. Add a short video about your company to your profile. \u2014 S http://t.co/xLlZJwetZh
p1211
sg49
I00
sg50
Ven
p1212
sg52
g3
(g53
g5
Ntp1213
Rp1214
(dp1215
g10
VPhilly
p1216
sg58
V333333
p1217
sg60
Ven
p1218
sg62
Nsg63
I660
sg64
I957
sg32
VSat Jul 12 21:07:00 +0000 2014
p1219
sg66
I00
sg67
V#AllAboutLeverage \u2666 #SocialSelling \u2666 #LinkedIn \u2666#Twitter \u2666 #Networking \u2666 Love all things #Philly
p1220
sg69
Vhttps://pbs.twimg.com/profile_images/488070333660790784/_h1MiVxC_normal.jpeg
p1221
sg71
I344
sg72
I48
sg73
Nsg74
Nsg75
I00
sg76
Vhttps://pbs.twimg.com/profile_banners/2630850469/1405200379
p1222
sg78
I00
sg79
I01
sg80
VF7870F
p1223
sg82
I00
sg83
I00
sg84
Vhttp://pbs.twimg.com/profile_background_images/488072119830319104/uGjfsVkh.jpeg
p1224
sg86
VKurtFoedisch
p1225
sg88
I8
sg89
VKurt Foedisch
p1226
sg91
VDDEEF6
p1227
sg93
Vhttp://t.co/bKmKgXu0s7
p1228
sg95
I2630850469
sg96
VC0DEED
p1229
sbsg98
I0
sg99
V<a href="http://tweetadder.com" rel="nofollow">TweetAdder v4</a>
p1230
sg101
(lp1231
sg95
I542807379038195713
sbag3
(g4
g5
Ntp1232
Rp1233
(dp1234
g9
I0
sg10
Nsg11
Nsg12
(lp1235
g3
(g14
g5
Ntp1236
Rp1237
(dp1238
g18
VSocialSelling
p1239
sbag3
(g14
g5
Ntp1240
Rp1241
(dp1242
g18
VLinkedIn
p1243
sbag3
(g14
g5
Ntp1244
Rp1245
(dp1246
g18
VNetworking
p1247
sbag3
(g14
g5
Ntp1248
Rp1249
(dp1250
g18
VTwitter
p1251
sbasg24
I00
sg25
Nsg26
Nsg27
(lp1252
(dp1253
Vexpanded_url
p1254
Vhttp://twitter.com/KurtFoedisch/status/542798656836218881/photo/1
p1255
sVdisplay_url
p1256
Vpic.twitter.com/GsQy2uny8T
p1257
sVurl
p1258
Vhttp://t.co/GsQy2uny8T
p1259
sVmedia_url_https
p1260
Vhttps://pbs.twimg.com/media/B4hogKIIMAEDnj4.jpg
p1261
sVid_str
p1262
V542798656781692929
p1263
sVsizes
p1264
(dp1265
Vsmall
p1266
(dp1267
Vh
p1268
I148
sVresize
p1269
Vfit
p1270
sVw
p1271
I240
ssVlarge
p1272
(dp1273
Vh
p1274
I148
sVresize
p1275
Vfit
p1276
sVw
p1277
I240
ssVmedium
p1278
(dp1279
Vh
p1280
I148
sVresize
p1281
Vfit
p1282
sVw
p1283
I240
ssVthumb
p1284
(dp1285
Vh
p1286
I148
sVresize
p1287
Vcrop
p1288
sVw
p1289
I150
sssVindices
p1290
(lp1291
I122
aI144
asVtype
p1292
Vphoto
p1293
sVid
p1294
I542798656781692929
sVmedia_url
p1295
Vhttp://pbs.twimg.com/media/B4hogKIIMAEDnj4.jpg
p1296
sasg29
Nsg30
Nsg31
Nsg32
VWed Dec 10 21:50:59 +0000 2014
p1297
sg34
Nsg35
I00
sg36
Nsg37
Nsg38
Nsg39
Nsg40
I00
sg41
Nsg42
(lp1298
sg44
Nsg45
Nsg46
Nsg47
VFor #SocialSelling, #LinkedIn, #Networking &amp; #Twitter workshops, click here to register! http://www.allaboutleveragel http://t.co/GsQy2uny8T
p1299
sg49
I00
sg50
Ven
p1300
sg52
g3
(g53
g5
Ntp1301
Rp1302
(dp1303
g10
VPhilly
p1304
sg58
V333333
p1305
sg60
Ven
p1306
sg62
Nsg63
I660
sg64
I957
sg32
VSat Jul 12 21:07:00 +0000 2014
p1307
sg66
I00
sg67
V#AllAboutLeverage \u2666 #SocialSelling \u2666 #LinkedIn \u2666#Twitter \u2666 #Networking \u2666 Love all things #Philly
p1308
sg69
Vhttps://pbs.twimg.com/profile_images/488070333660790784/_h1MiVxC_normal.jpeg
p1309
sg71
I344
sg72
I48
sg73
Nsg74
Nsg75
I00
sg76
Vhttps://pbs.twimg.com/profile_banners/2630850469/1405200379
p1310
sg78
I00
sg79
I01
sg80
VF7870F
p1311
sg82
I00
sg83
I00
sg84
Vhttp://pbs.twimg.com/profile_background_images/488072119830319104/uGjfsVkh.jpeg
p1312
sg86
VKurtFoedisch
p1313
sg88
I8
sg89
VKurt Foedisch
p1314
sg91
VDDEEF6
p1315
sg93
Vhttp://t.co/bKmKgXu0s7
p1316
sg95
I2630850469
sg96
VC0DEED
p1317
sbsg98
I0
sg99
V<a href="http://tweetadder.com" rel="nofollow">TweetAdder v4</a>
p1318
sg101
(lp1319
sg95
I542798656836218881
sbag3
(g4
g5
Ntp1320
Rp1321
(dp1322
g9
I0
sg10
Nsg11
Nsg12
(lp1323
g3
(g14
g5
Ntp1324
Rp1325
(dp1326
g18
VLinkedIn
p1327
sbag3
(g14
g5
Ntp1328
Rp1329
(dp1330
g18
VAllAboutLeverage
p1331
sbasg24
I00
sg25
Nsg26
Nsg27
(lp1332
sg29
Nsg30
Nsg31
Nsg32
VWed Dec 10 21:40:09 +0000 2014
p1333
sg34
Nsg35
I00
sg36
Nsg37
Nsg38
Nsg39
Nsg40
I00
sg41
Nsg42
(lp1334
sg44
Nsg45
Nsg46
Nsg47
VNetworking on #LinkedIn: 3 Ways to Open Doors http://t.co/eMkaWx2rFi\u000a#AllAboutLeverage
p1335
sg49
I00
sg50
Ven
p1336
sg52
g3
(g53
g5
Ntp1337
Rp1338
(dp1339
g10
VPhilly
p1340
sg58
V333333
p1341
sg60
Ven
p1342
sg62
Nsg63
I660
sg64
I957
sg32
VSat Jul 12 21:07:00 +0000 2014
p1343
sg66
I00
sg67
V#AllAboutLeverage \u2666 #SocialSelling \u2666 #LinkedIn \u2666#Twitter \u2666 #Networking \u2666 Love all things #Philly
p1344
sg69
Vhttps://pbs.twimg.com/profile_images/488070333660790784/_h1MiVxC_normal.jpeg
p1345
sg71
I344
sg72
I48
sg73
Nsg74
Nsg75
I00
sg76
Vhttps://pbs.twimg.com/profile_banners/2630850469/1405200379
p1346
sg78
I00
sg79
I01
sg80
VF7870F
p1347
sg82
I00
sg83
I00
sg84
Vhttp://pbs.twimg.com/profile_background_images/488072119830319104/uGjfsVkh.jpeg
p1348
sg86
VKurtFoedisch
p1349
sg88
I8
sg89
VKurt Foedisch
p1350
sg91
VDDEEF6
p1351
sg93
Vhttp://t.co/bKmKgXu0s7
p1352
sg95
I2630850469
sg96
VC0DEED
p1353
sbsg98
I0
sg99
V<a href="http://www.hootsuite.com" rel="nofollow">Hootsuite</a>
p1354
sg101
(lp1355
g3
(g103
g5
Ntp1356
Rp1357
(dp1358
g107
Vhttp://t.co/eMkaWx2rFi
p1359
sg109
Vhttp://ow.ly/FH9Vx
p1360
sbasg95
I542795929951424513
sbaa.