(lp0
S'blossomnursery'
p1
a(lp2
ccopy_reg
_reconstructor
p3
(ctwitter
Status
p4
c__builtin__
object
p5
Ntp6
Rp7
(dp8
S'_favorite_count'
p9
I0
sS'_location'
p10
NsS'_withheld_scope'
p11
NsS'hashtags'
p12
(lp13
g3
(ctwitter
Hashtag
p14
g5
Ntp15
Rp16
(dp17
S'text'
p18
VUAE
p19
sbasS'_truncated'
p20
I00
sS'_retweeted_status'
p21
NsS'_withheld_copyright'
p22
NsS'media'
p23
(lp24
(dp25
Vexpanded_url
p26
Vhttp://twitter.com/blossomnursery/status/544009832928661504/photo/1
p27
sVdisplay_url
p28
Vpic.twitter.com/duyNykD47p
p29
sVurl
p30
Vhttp://t.co/duyNykD47p
p31
sVmedia_url_https
p32
Vhttps://pbs.twimg.com/media/B4y2D35IUAErVQZ.png
p33
sVid_str
p34
V544009832664420353
p35
sVsizes
p36
(dp37
Vlarge
p38
(dp39
Vh
p40
I609
sVresize
p41
Vfit
p42
sVw
p43
I851
ssVsmall
p44
(dp45
Vh
p46
I243
sVresize
p47
Vfit
p48
sVw
p49
I340
ssVmedium
p50
(dp51
Vh
p52
I429
sVresize
p53
Vfit
p54
sVw
p55
I600
ssVthumb
p56
(dp57
Vh
p58
I150
sVresize
p59
Vcrop
p60
sVw
p61
I150
sssVindices
p62
(lp63
I97
aI119
asVtype
p64
Vphoto
p65
sVid
p66
I544009832664420353
sVmedia_url
p67
Vhttp://pbs.twimg.com/media/B4y2D35IUAErVQZ.png
p68
sasS'_place'
p69
NsS'_contributors'
p70
NsS'_current_user_retweet'
p71
NsS'_created_at'
p72
VSun Dec 14 06:03:46 +0000 2014
p73
sS'_scopes'
p74
NsS'_possibly_sensitive'
p75
I00
sS'_in_reply_to_screen_name'
p76
NsS'_coordinates'
p77
NsS'_in_reply_to_user_id'
p78
NsS'_geo'
p79
NsS'_favorited'
p80
I00
sS'_withheld_in_countries'
p81
NsS'user_mentions'
p82
(lp83
sS'_now'
p84
NsS'_id_str'
p85
V544009832928661504
p86
sS'_in_reply_to_status_id'
p87
NsS'_text'
p88
VDubai, SMEs, and Triple PPP. We're proud of our city, and our planet http://t.co/toVDAFlTdb #UAE http://t.co/duyNykD47p
p89
sS'_retweeted'
p90
I00
sS'lang'
p91
Ven
p92
sS'_user'
p93
g3
(ctwitter
User
p94
g5
Ntp95
Rp96
(dp97
g10
Vdubai
p98
sS'_profile_text_color'
p99
V2B0C13
p100
sS'_lang'
p101
Ven
p102
sS'_time_zone'
p103
VAbu Dhabi
p104
sS'_followers_count'
p105
I1283
sS'_statuses_count'
p106
I3481
sg72
VSat Jun 20 20:19:30 +0000 2009
p107
sS'_verified'
p108
I00
sS'_description'
p109
VBritish EYFS education & play for the best start for your children. We have 4 nurseries in Dubai, UAE, from Nursery School to Early Learning / Kindergarten
p110
sS'_profile_image_url'
p111
Vhttps://pbs.twimg.com/profile_images/471185726776676352/JQf-dIW4_normal.png
p112
sS'_friends_count'
p113
I409
sS'_favourites_count'
p114
I148
sS'_utc_offset'
p115
I14400
sS'_status'
p116
NsS'_protected'
p117
I00
sS'_profile_banner_url'
p118
Vhttps://pbs.twimg.com/profile_banners/49108110/1401338640
p119
sS'_notifications'
p120
I00
sS'_profile_background_tile'
p121
I00
sS'_profile_link_color'
p122
V470F8C
p123
sS'_geo_enabled'
p124
I01
sS'_contributors_enabled'
p125
I00
sS'_profile_background_image_url'
p126
Vhttp://pbs.twimg.com/profile_background_images/690643639/f416d4110cf61099c6d0491248eb6060.jpeg
p127
sS'_screen_name'
p128
Vblossomnursery
p129
sS'_listed_count'
p130
I7
sS'_name'
p131
VThe Blossom Nursery
p132
sS'_profile_sidebar_fill_color'
p133
VC8EDFF
p134
sS'_url'
p135
Vhttp://t.co/CMIthJ5nxv
p136
sS'_id'
p137
I49108110
sS'_profile_background_color'
p138
VFFFFFF
p139
sbsS'_retweet_count'
p140
I1
sS'_source'
p141
V<a href="http://www.socialoomph.com" rel="nofollow">SocialOomph</a>
p142
sS'urls'
p143
(lp144
g3
(ctwitter
Url
p145
g5
Ntp146
Rp147
(dp148
S'url'
p149
Vhttp://t.co/toVDAFlTdb
p150
sS'expanded_url'
p151
Vhttp://bit.ly/BNppp
p152
sbasg137
I544009832928661504
sbag3
(g4
g5
Ntp153
Rp154
(dp155
g9
I0
sg10
Nsg11
Nsg12
(lp156
g3
(g14
g5
Ntp157
Rp158
(dp159
g18
VDubai
p160
sbag3
(g14
g5
Ntp161
Rp162
(dp163
g18
VNursery
p164
sbag3
(g14
g5
Ntp165
Rp166
(dp167
g18
VNurseries
p168
sbag3
(g14
g5
Ntp169
Rp170
(dp171
g18
VUAE
p172
sbasg20
I00
sg21
Nsg22
Nsg23
(lp173
sg69
Nsg70
Nsg71
Nsg72
VSat Dec 13 20:03:33 +0000 2014
p174
sg74
Nsg75
I00
sg76
Nsg77
Nsg78
Nsg79
Nsg80
I00
sg81
Nsg82
(lp175
sg84
Nsg85
V543858784968667138
p176
sg87
Nsg88
VWe follow the British EYFS system. Our Admission information is here http://t.co/XGs518v8V2 #Dubai #Nursery #Nurseries #UAE
p177
sg90
I00
sg91
Ven
p178
sg93
g3
(g94
g5
Ntp179
Rp180
(dp181
g10
Vdubai
p182
sg99
V2B0C13
p183
sg101
Ven
p184
sg103
VAbu Dhabi
p185
sg105
I1283
sg106
I3481
sg72
VSat Jun 20 20:19:30 +0000 2009
p186
sg108
I00
sg109
VBritish EYFS education & play for the best start for your children. We have 4 nurseries in Dubai, UAE, from Nursery School to Early Learning / Kindergarten
p187
sg111
Vhttps://pbs.twimg.com/profile_images/471185726776676352/JQf-dIW4_normal.png
p188
sg113
I409
sg114
I148
sg115
I14400
sg116
Nsg117
I00
sg118
Vhttps://pbs.twimg.com/profile_banners/49108110/1401338640
p189
sg120
I00
sg121
I00
sg122
V470F8C
p190
sg124
I01
sg125
I00
sg126
Vhttp://pbs.twimg.com/profile_background_images/690643639/f416d4110cf61099c6d0491248eb6060.jpeg
p191
sg128
Vblossomnursery
p192
sg130
I7
sg131
VThe Blossom Nursery
p193
sg133
VC8EDFF
p194
sg135
Vhttp://t.co/CMIthJ5nxv
p195
sg137
I49108110
sg138
VFFFFFF
p196
sbsg140
I0
sg141
V<a href="http://www.socialoomph.com" rel="nofollow">SocialOomph</a>
p197
sg143
(lp198
g3
(g145
g5
Ntp199
Rp200
(dp201
g149
Vhttp://t.co/XGs518v8V2
p202
sg151
Vhttp://bit.ly/BNAdmissions
p203
sbasg137
I543858784968667138
sbag3
(g4
g5
Ntp204
Rp205
(dp206
g9
I0
sg10
Nsg11
Nsg12
(lp207
g3
(g14
g5
Ntp208
Rp209
(dp210
g18
Vchr
p211
sbasg20
I00
sg21
Nsg22
Nsg23
(lp212
sg69
Nsg70
Nsg71
Nsg72
VSat Dec 13 12:24:03 +0000 2014
p213
sg74
Nsg75
I00
sg76
Nsg77
Nsg78
Nsg79
Nsg80
I00
sg81
Nsg82
(lp214
sg84
Nsg85
V543743146665189376
p215
sg87
Nsg88
VWe're still at the Dubai Christmas Festival in Dubai Media City Ampitheatre :) we're busy making customized #chr... http://t.co/Nvnt7mMYhq
p216
sg90
I00
sg91
Ven
p217
sg93
g3
(g94
g5
Ntp218
Rp219
(dp220
g10
Vdubai
p221
sg99
V2B0C13
p222
sg101
Ven
p223
sg103
VAbu Dhabi
p224
sg105
I1283
sg106
I3481
sg72
VSat Jun 20 20:19:30 +0000 2009
p225
sg108
I00
sg109
VBritish EYFS education & play for the best start for your children. We have 4 nurseries in Dubai, UAE, from Nursery School to Early Learning / Kindergarten
p226
sg111
Vhttps://pbs.twimg.com/profile_images/471185726776676352/JQf-dIW4_normal.png
p227
sg113
I409
sg114
I148
sg115
I14400
sg116
Nsg117
I00
sg118
Vhttps://pbs.twimg.com/profile_banners/49108110/1401338640
p228
sg120
I00
sg121
I00
sg122
V470F8C
p229
sg124
I01
sg125
I00
sg126
Vhttp://pbs.twimg.com/profile_background_images/690643639/f416d4110cf61099c6d0491248eb6060.jpeg
p230
sg128
Vblossomnursery
p231
sg130
I7
sg131
VThe Blossom Nursery
p232
sg133
VC8EDFF
p233
sg135
Vhttp://t.co/CMIthJ5nxv
p234
sg137
I49108110
sg138
VFFFFFF
p235
sbsg140
I0
sg141
V<a href="http://ifttt.com" rel="nofollow">IFTTT</a>
p236
sg143
(lp237
g3
(g145
g5
Ntp238
Rp239
(dp240
g149
Vhttp://t.co/Nvnt7mMYhq
p241
sg151
Vhttp://ift.tt/1qIqiHw
p242
sbasg137
I543743146665189376
sbag3
(g4
g5
Ntp243
Rp244
(dp245
g9
I0
sg10
Nsg11
Nsg12
(lp246
sg20
I00
sg21
Nsg22
Nsg23
(lp247
sg69
Nsg70
Nsg71
Nsg72
VFri Dec 12 18:56:39 +0000 2014
p248
sg74
Nsg75
I00
sg76
Nsg77
Nsg78
Nsg79
Nsg80
I00
sg81
Nsg82
(lp249
sg84
Nsg85
V543479560806072321
p250
sg87
Nsg88
VWe have seen lots of Blossomites and even got a special visit from our friends Kenny and Daisy! Tomorrow is the ... http://t.co/A7cn1Puuis
p251
sg90
I00
sg91
Ven
p252
sg93
g3
(g94
g5
Ntp253
Rp254
(dp255
g10
Vdubai
p256
sg99
V2B0C13
p257
sg101
Ven
p258
sg103
VAbu Dhabi
p259
sg105
I1283
sg106
I3481
sg72
VSat Jun 20 20:19:30 +0000 2009
p260
sg108
I00
sg109
VBritish EYFS education & play for the best start for your children. We have 4 nurseries in Dubai, UAE, from Nursery School to Early Learning / Kindergarten
p261
sg111
Vhttps://pbs.twimg.com/profile_images/471185726776676352/JQf-dIW4_normal.png
p262
sg113
I409
sg114
I148
sg115
I14400
sg116
Nsg117
I00
sg118
Vhttps://pbs.twimg.com/profile_banners/49108110/1401338640
p263
sg120
I00
sg121
I00
sg122
V470F8C
p264
sg124
I01
sg125
I00
sg126
Vhttp://pbs.twimg.com/profile_background_images/690643639/f416d4110cf61099c6d0491248eb6060.jpeg
p265
sg128
Vblossomnursery
p266
sg130
I7
sg131
VThe Blossom Nursery
p267
sg133
VC8EDFF
p268
sg135
Vhttp://t.co/CMIthJ5nxv
p269
sg137
I49108110
sg138
VFFFFFF
p270
sbsg140
I0
sg141
V<a href="http://ifttt.com" rel="nofollow">IFTTT</a>
p271
sg143
(lp272
g3
(g145
g5
Ntp273
Rp274
(dp275
g149
Vhttp://t.co/A7cn1Puuis
p276
sg151
Vhttp://ift.tt/1wjnAc6
p277
sbasg137
I543479560806072321
sbag3
(g4
g5
Ntp278
Rp279
(dp280
g9
I0
sg10
Nsg11
Nsg12
(lp281
g3
(g14
g5
Ntp282
Rp283
(dp284
g18
Vblossom
p285
sbasg20
I00
sg21
Nsg22
Nsg23
(lp286
sg69
Nsg70
Nsg71
Nsg72
VFri Dec 12 13:03:20 +0000 2014
p287
sg74
Nsg75
I00
sg76
Nsg77
Nsg78
Nsg79
Nsg80
I00
sg81
Nsg82
(lp288
sg84
Nsg85
V543390645621358593
p289
sg87
Nsg88
VChristmasfest with #blossom http://t.co/KfnCeV0KtJ
p290
sg90
I00
sg91
Ven
p291
sg93
g3
(g94
g5
Ntp292
Rp293
(dp294
g10
Vdubai
p295
sg99
V2B0C13
p296
sg101
Ven
p297
sg103
VAbu Dhabi
p298
sg105
I1283
sg106
I3481
sg72
VSat Jun 20 20:19:30 +0000 2009
p299
sg108
I00
sg109
VBritish EYFS education & play for the best start for your children. We have 4 nurseries in Dubai, UAE, from Nursery School to Early Learning / Kindergarten
p300
sg111
Vhttps://pbs.twimg.com/profile_images/471185726776676352/JQf-dIW4_normal.png
p301
sg113
I409
sg114
I148
sg115
I14400
sg116
Nsg117
I00
sg118
Vhttps://pbs.twimg.com/profile_banners/49108110/1401338640
p302
sg120
I00
sg121
I00
sg122
V470F8C
p303
sg124
I01
sg125
I00
sg126
Vhttp://pbs.twimg.com/profile_background_images/690643639/f416d4110cf61099c6d0491248eb6060.jpeg
p304
sg128
Vblossomnursery
p305
sg130
I7
sg131
VThe Blossom Nursery
p306
sg133
VC8EDFF
p307
sg135
Vhttp://t.co/CMIthJ5nxv
p308
sg137
I49108110
sg138
VFFFFFF
p309
sbsg140
I0
sg141
V<a href="http://ifttt.com" rel="nofollow">IFTTT</a>
p310
sg143
(lp311
g3
(g145
g5
Ntp312
Rp313
(dp314
g149
Vhttp://t.co/KfnCeV0KtJ
p315
sg151
Vhttp://ift.tt/1siWMsW
p316
sbasg137
I543390645621358593
sbag3
(g4
g5
Ntp317
Rp318
(dp319
g9
I0
sg10
Nsg11
Nsg12
(lp320
g3
(g14
g5
Ntp321
Rp322
(dp323
g18
Vblossom
p324
sbasg20
I00
sg21
Nsg22
Nsg23
(lp325
sg69
Nsg70
Nsg71
Nsg72
VFri Dec 12 13:03:18 +0000 2014
p326
sg74
Nsg75
I00
sg76
Nsg77
Nsg78
Nsg79
Nsg80
I00
sg81
Nsg82
(lp327
sg84
Nsg85
V543390640235888641
p328
sg87
Nsg88
VChristmasfest with #blossom http://t.co/1HyLWp0O0l
p329
sg90
I00
sg91
Ven
p330
sg93
g3
(g94
g5
Ntp331
Rp332
(dp333
g10
Vdubai
p334
sg99
V2B0C13
p335
sg101
Ven
p336
sg103
VAbu Dhabi
p337
sg105
I1283
sg106
I3481
sg72
VSat Jun 20 20:19:30 +0000 2009
p338
sg108
I00
sg109
VBritish EYFS education & play for the best start for your children. We have 4 nurseries in Dubai, UAE, from Nursery School to Early Learning / Kindergarten
p339
sg111
Vhttps://pbs.twimg.com/profile_images/471185726776676352/JQf-dIW4_normal.png
p340
sg113
I409
sg114
I148
sg115
I14400
sg116
Nsg117
I00
sg118
Vhttps://pbs.twimg.com/profile_banners/49108110/1401338640
p341
sg120
I00
sg121
I00
sg122
V470F8C
p342
sg124
I01
sg125
I00
sg126
Vhttp://pbs.twimg.com/profile_background_images/690643639/f416d4110cf61099c6d0491248eb6060.jpeg
p343
sg128
Vblossomnursery
p344
sg130
I7
sg131
VThe Blossom Nursery
p345
sg133
VC8EDFF
p346
sg135
Vhttp://t.co/CMIthJ5nxv
p347
sg137
I49108110
sg138
VFFFFFF
p348
sbsg140
I0
sg141
V<a href="http://ifttt.com" rel="nofollow">IFTTT</a>
p349
sg143
(lp350
g3
(g145
g5
Ntp351
Rp352
(dp353
g149
Vhttp://t.co/1HyLWp0O0l
p354
sg151
Vhttp://ift.tt/1siWMcA
p355
sbasg137
I543390640235888641
sbag3
(g4
g5
Ntp356
Rp357
(dp358
g9
I0
sg10
Nsg11
Nsg12
(lp359
g3
(g14
g5
Ntp360
Rp361
(dp362
g18
VChristmas
p363
sbasg20
I00
sg21
Nsg22
Nsg23
(lp364
sg69
Nsg70
Nsg71
Nsg72
VThu Dec 11 15:51:39 +0000 2014
p365
sg74
Nsg75
I00
sg76
Nsg77
Nsg78
Nsg79
Nsg80
I00
sg81
Nsg82
(lp366
sg84
Nsg85
V543070618242281473
p367
sg87
Nsg88
VBlossom Winter Wonderland is at the Christmas Festival tonight, tomorrow &amp; Saturday! \u000aCome on over :) #Christmas... http://t.co/C4bFokaqqK
p368
sg90
I00
sg91
Ven
p369
sg93
g3
(g94
g5
Ntp370
Rp371
(dp372
g10
Vdubai
p373
sg99
V2B0C13
p374
sg101
Ven
p375
sg103
VAbu Dhabi
p376
sg105
I1283
sg106
I3481
sg72
VSat Jun 20 20:19:30 +0000 2009
p377
sg108
I00
sg109
VBritish EYFS education & play for the best start for your children. We have 4 nurseries in Dubai, UAE, from Nursery School to Early Learning / Kindergarten
p378
sg111
Vhttps://pbs.twimg.com/profile_images/471185726776676352/JQf-dIW4_normal.png
p379
sg113
I409
sg114
I148
sg115
I14400
sg116
Nsg117
I00
sg118
Vhttps://pbs.twimg.com/profile_banners/49108110/1401338640
p380
sg120
I00
sg121
I00
sg122
V470F8C
p381
sg124
I01
sg125
I00
sg126
Vhttp://pbs.twimg.com/profile_background_images/690643639/f416d4110cf61099c6d0491248eb6060.jpeg
p382
sg128
Vblossomnursery
p383
sg130
I7
sg131
VThe Blossom Nursery
p384
sg133
VC8EDFF
p385
sg135
Vhttp://t.co/CMIthJ5nxv
p386
sg137
I49108110
sg138
VFFFFFF
p387
sbsg140
I0
sg141
V<a href="http://ifttt.com" rel="nofollow">IFTTT</a>
p388
sg143
(lp389
g3
(g145
g5
Ntp390
Rp391
(dp392
g149
Vhttp://t.co/C4bFokaqqK
p393
sg151
Vhttp://ift.tt/1zbfSAw
p394
sbasg137
I543070618242281473
sbag3
(g4
g5
Ntp395
Rp396
(dp397
g9
I0
sg10
Nsg11
Nsg12
(lp398
g3
(g14
g5
Ntp399
Rp400
(dp401
g18
VDubai
p402
sbag3
(g14
g5
Ntp403
Rp404
(dp405
g18
VNursery
p406
sbasg20
I00
sg21
Nsg22
Nsg23
(lp407
(dp408
Vexpanded_url
p409
Vhttp://twitter.com/blossomnursery/status/542922685261811712/photo/1
p410
sVdisplay_url
p411
Vpic.twitter.com/zA2NkBW6lv
p412
sVurl
p413
Vhttp://t.co/zA2NkBW6lv
p414
sVmedia_url_https
p415
Vhttps://pbs.twimg.com/media/B4jZTj6IcAEmKUG.jpg
p416
sVid_str
p417
V542922685177950209
p418
sVsizes
p419
(dp420
Vlarge
p421
(dp422
Vh
p423
I480
sVresize
p424
Vfit
p425
sVw
p426
I360
ssVsmall
p427
(dp428
Vh
p429
I453
sVresize
p430
Vfit
p431
sVw
p432
I340
ssVmedium
p433
(dp434
Vh
p435
I480
sVresize
p436
Vfit
p437
sVw
p438
I360
ssVthumb
p439
(dp440
Vh
p441
I150
sVresize
p442
Vcrop
p443
sVw
p444
I150
sssVindices
p445
(lp446
I96
aI118
asVtype
p447
Vphoto
p448
sVid
p449
I542922685177950209
sVmedia_url
p450
Vhttp://pbs.twimg.com/media/B4jZTj6IcAEmKUG.jpg
p451
sasg69
Nsg70
Nsg71
Nsg72
VThu Dec 11 06:03:49 +0000 2014
p452
sg74
Nsg75
I00
sg76
Nsg77
Nsg78
Nsg79
Nsg80
I00
sg81
Nsg82
(lp453
sg84
Nsg85
V542922685261811712
p454
sg87
Nsg88
VSkyGarden encourages children to play with natural items http://t.co/Qo5SL2YsUi #Dubai #Nursery http://t.co/zA2NkBW6lv
p455
sg90
I00
sg91
Ven
p456
sg93
g3
(g94
g5
Ntp457
Rp458
(dp459
g10
Vdubai
p460
sg99
V2B0C13
p461
sg101
Ven
p462
sg103
VAbu Dhabi
p463
sg105
I1283
sg106
I3481
sg72
VSat Jun 20 20:19:30 +0000 2009
p464
sg108
I00
sg109
VBritish EYFS education & play for the best start for your children. We have 4 nurseries in Dubai, UAE, from Nursery School to Early Learning / Kindergarten
p465
sg111
Vhttps://pbs.twimg.com/profile_images/471185726776676352/JQf-dIW4_normal.png
p466
sg113
I409
sg114
I148
sg115
I14400
sg116
Nsg117
I00
sg118
Vhttps://pbs.twimg.com/profile_banners/49108110/1401338640
p467
sg120
I00
sg121
I00
sg122
V470F8C
p468
sg124
I01
sg125
I00
sg126
Vhttp://pbs.twimg.com/profile_background_images/690643639/f416d4110cf61099c6d0491248eb6060.jpeg
p469
sg128
Vblossomnursery
p470
sg130
I7
sg131
VThe Blossom Nursery
p471
sg133
VC8EDFF
p472
sg135
Vhttp://t.co/CMIthJ5nxv
p473
sg137
I49108110
sg138
VFFFFFF
p474
sbsg140
I1
sg141
V<a href="http://www.socialoomph.com" rel="nofollow">SocialOomph</a>
p475
sg143
(lp476
g3
(g145
g5
Ntp477
Rp478
(dp479
g149
Vhttp://t.co/Qo5SL2YsUi
p480
sg151
Vhttp://bit.ly/BNHeuristic
p481
sbasg137
I542922685261811712
sbag3
(g4
g5
Ntp482
Rp483
(dp484
g9
I0
sg10
Nsg11
Nsg12
(lp485
g3
(g14
g5
Ntp486
Rp487
(dp488
g18
VDubai
p489
sbag3
(g14
g5
Ntp490
Rp491
(dp492
g18
VNursery
p493
sbag3
(g14
g5
Ntp494
Rp495
(dp496
g18
VNurseries
p497
sbag3
(g14
g5
Ntp498
Rp499
(dp500
g18
VUAE
p501
sbasg20
I00
sg21
Nsg22
Nsg23
(lp502
sg69
Nsg70
Nsg71
Nsg72
VWed Dec 10 20:04:13 +0000 2014
p503
sg74
Nsg75
I00
sg76
Nsg77
Nsg78
Nsg79
Nsg80
I00
sg81
Nsg82
(lp504
sg84
Nsg85
V542771789815087104
p505
sg87
Nsg88
VFor admissions information (including fees) click here --&gt;  http://t.co/XGs518v8V2 #Dubai #Nursery #Nurseries #UAE
p506
sg90
I00
sg91
Ven
p507
sg93
g3
(g94
g5
Ntp508
Rp509
(dp510
g10
Vdubai
p511
sg99
V2B0C13
p512
sg101
Ven
p513
sg103
VAbu Dhabi
p514
sg105
I1283
sg106
I3481
sg72
VSat Jun 20 20:19:30 +0000 2009
p515
sg108
I00
sg109
VBritish EYFS education & play for the best start for your children. We have 4 nurseries in Dubai, UAE, from Nursery School to Early Learning / Kindergarten
p516
sg111
Vhttps://pbs.twimg.com/profile_images/471185726776676352/JQf-dIW4_normal.png
p517
sg113
I409
sg114
I148
sg115
I14400
sg116
Nsg117
I00
sg118
Vhttps://pbs.twimg.com/profile_banners/49108110/1401338640
p518
sg120
I00
sg121
I00
sg122
V470F8C
p519
sg124
I01
sg125
I00
sg126
Vhttp://pbs.twimg.com/profile_background_images/690643639/f416d4110cf61099c6d0491248eb6060.jpeg
p520
sg128
Vblossomnursery
p521
sg130
I7
sg131
VThe Blossom Nursery
p522
sg133
VC8EDFF
p523
sg135
Vhttp://t.co/CMIthJ5nxv
p524
sg137
I49108110
sg138
VFFFFFF
p525
sbsg140
I0
sg141
V<a href="http://www.socialoomph.com" rel="nofollow">SocialOomph</a>
p526
sg143
(lp527
g3
(g145
g5
Ntp528
Rp529
(dp530
g149
Vhttp://t.co/XGs518v8V2
p531
sg151
Vhttp://bit.ly/BNAdmissions
p532
sbasg137
I542771789815087104
sbag3
(g4
g5
Ntp533
Rp534
(dp535
g9
I0
sg10
Nsg11
Nsg12
(lp536
g3
(g14
g5
Ntp537
Rp538
(dp539
g18
VDubai
p540
sbasg20
I00
sg21
Nsg22
Nsg23
(lp541
(dp542
Vexpanded_url
p543
Vhttp://twitter.com/blossomnursery/status/542560366824542208/photo/1
p544
sVdisplay_url
p545
Vpic.twitter.com/RAaedOvWKy
p546
sVurl
p547
Vhttp://t.co/RAaedOvWKy
p548
sVmedia_url_https
p549
Vhttps://pbs.twimg.com/media/B4ePx2NIQAA7wSl.png
p550
sVid_str
p551
V542560366648377344
p552
sVsizes
p553
(dp554
Vlarge
p555
(dp556
Vh
p557
I547
sVresize
p558
Vfit
p559
sVw
p560
I420
ssVsmall
p561
(dp562
Vh
p563
I442
sVresize
p564
Vfit
p565
sVw
p566
I340
ssVmedium
p567
(dp568
Vh
p569
I547
sVresize
p570
Vfit
p571
sVw
p572
I420
ssVthumb
p573
(dp574
Vh
p575
I150
sVresize
p576
Vcrop
p577
sVw
p578
I150
sssVindices
p579
(lp580
I80
aI102
asVtype
p581
Vphoto
p582
sVid
p583
I542560366648377344
sVmedia_url
p584
Vhttp://pbs.twimg.com/media/B4ePx2NIQAA7wSl.png
p585
sasg69
Nsg70
Nsg71
Nsg72
VWed Dec 10 06:04:06 +0000 2014
p586
sg74
Nsg75
I00
sg76
Nsg77
Nsg78
Nsg79
Nsg80
I00
sg81
Nsg82
(lp587
sg84
Nsg85
V542560366824542208
p588
sg87
Nsg88
VDon't be uncool, school is brain-fuel! Read -&gt; http://t.co/BchwC04Gn4 #Dubai http://t.co/RAaedOvWKy
p589
sg90
I00
sg91
Ven
p590
sg93
g3
(g94
g5
Ntp591
Rp592
(dp593
g10
Vdubai
p594
sg99
V2B0C13
p595
sg101
Ven
p596
sg103
VAbu Dhabi
p597
sg105
I1283
sg106
I3481
sg72
VSat Jun 20 20:19:30 +0000 2009
p598
sg108
I00
sg109
VBritish EYFS education & play for the best start for your children. We have 4 nurseries in Dubai, UAE, from Nursery School to Early Learning / Kindergarten
p599
sg111
Vhttps://pbs.twimg.com/profile_images/471185726776676352/JQf-dIW4_normal.png
p600
sg113
I409
sg114
I148
sg115
I14400
sg116
Nsg117
I00
sg118
Vhttps://pbs.twimg.com/profile_banners/49108110/1401338640
p601
sg120
I00
sg121
I00
sg122
V470F8C
p602
sg124
I01
sg125
I00
sg126
Vhttp://pbs.twimg.com/profile_background_images/690643639/f416d4110cf61099c6d0491248eb6060.jpeg
p603
sg128
Vblossomnursery
p604
sg130
I7
sg131
VThe Blossom Nursery
p605
sg133
VC8EDFF
p606
sg135
Vhttp://t.co/CMIthJ5nxv
p607
sg137
I49108110
sg138
VFFFFFF
p608
sbsg140
I0
sg141
V<a href="http://www.socialoomph.com" rel="nofollow">SocialOomph</a>
p609
sg143
(lp610
g3
(g145
g5
Ntp611
Rp612
(dp613
g149
Vhttp://t.co/BchwC04Gn4
p614
sg151
Vhttp://bit.ly/BNBack2School
p615
sbasg137
I542560366824542208
sbag3
(g4
g5
Ntp616
Rp617
(dp618
g9
I0
sg10
Nsg11
Nsg12
(lp619
sg20
I00
sg21
Nsg22
Nsg23
(lp620
(dp621
Vexpanded_url
p622
Vhttp://twitter.com/blossomnursery/status/542197989612470272/photo/1
p623
sVdisplay_url
p624
Vpic.twitter.com/CSFUiwt2TT
p625
sVurl
p626
Vhttp://t.co/CSFUiwt2TT
p627
sVmedia_url_https
p628
Vhttps://pbs.twimg.com/media/B4ZGMt4IAAAKjDE.png
p629
sVid_str
p630
V542197989432098816
p631
sVsizes
p632
(dp633
Vsmall
p634
(dp635
Vh
p636
I340
sVresize
p637
Vfit
p638
sVw
p639
I340
ssVlarge
p640
(dp641
Vh
p642
I402
sVresize
p643
Vfit
p644
sVw
p645
I402
ssVmedium
p646
(dp647
Vh
p648
I402
sVresize
p649
Vfit
p650
sVw
p651
I402
ssVthumb
p652
(dp653
Vh
p654
I150
sVresize
p655
Vcrop
p656
sVw
p657
I150
sssVindices
p658
(lp659
I93
aI115
asVtype
p660
Vphoto
p661
sVid
p662
I542197989432098816
sVmedia_url
p663
Vhttp://pbs.twimg.com/media/B4ZGMt4IAAAKjDE.png
p664
sasg69
Nsg70
Nsg71
Nsg72
VTue Dec 09 06:04:08 +0000 2014
p665
sg74
Nsg75
I00
sg76
Nsg77
Nsg78
Nsg79
Nsg80
I00
sg81
Nsg82
(lp666
g3
(g94
g5
Ntp667
Rp668
(dp669
g10
Nsg99
Nsg101
Nsg103
Nsg105
Nsg106
Nsg72
Nsg108
Nsg109
Nsg111
Nsg113
Nsg114
Nsg115
Nsg116
Nsg117
Nsg118
Nsg120
Nsg121
Nsg122
Nsg124
Nsg125
Nsg126
Nsg128
VArabiaCSR
p670
sg130
Nsg131
VArabia CSR Network
p671
sg133
Nsg135
Nsg137
I269266874
sg138
Nsbasg84
Nsg85
V542197989612470272
p672
sg87
Nsg88
VHonoured to be placed 1st Runner-Up in the @ArabiaCSR Medium Catagory http://t.co/szNs37DdBr http://t.co/CSFUiwt2TT
p673
sg90
I00
sg91
Ven
p674
sg93
g3
(g94
g5
Ntp675
Rp676
(dp677
g10
Vdubai
p678
sg99
V2B0C13
p679
sg101
Ven
p680
sg103
VAbu Dhabi
p681
sg105
I1283
sg106
I3481
sg72
VSat Jun 20 20:19:30 +0000 2009
p682
sg108
I00
sg109
VBritish EYFS education & play for the best start for your children. We have 4 nurseries in Dubai, UAE, from Nursery School to Early Learning / Kindergarten
p683
sg111
Vhttps://pbs.twimg.com/profile_images/471185726776676352/JQf-dIW4_normal.png
p684
sg113
I409
sg114
I148
sg115
I14400
sg116
Nsg117
I00
sg118
Vhttps://pbs.twimg.com/profile_banners/49108110/1401338640
p685
sg120
I00
sg121
I00
sg122
V470F8C
p686
sg124
I01
sg125
I00
sg126
Vhttp://pbs.twimg.com/profile_background_images/690643639/f416d4110cf61099c6d0491248eb6060.jpeg
p687
sg128
Vblossomnursery
p688
sg130
I7
sg131
VThe Blossom Nursery
p689
sg133
VC8EDFF
p690
sg135
Vhttp://t.co/CMIthJ5nxv
p691
sg137
I49108110
sg138
VFFFFFF
p692
sbsg140
I1
sg141
V<a href="http://www.socialoomph.com" rel="nofollow">SocialOomph</a>
p693
sg143
(lp694
g3
(g145
g5
Ntp695
Rp696
(dp697
g149
Vhttp://t.co/szNs37DdBr
p698
sg151
Vhttp://bit.ly/BNCSRAward
p699
sbasg137
I542197989612470272
sbag3
(g4
g5
Ntp700
Rp701
(dp702
g9
I0
sg10
Nsg11
Nsg12
(lp703
g3
(g14
g5
Ntp704
Rp705
(dp706
g18
VDubai
p707
sbag3
(g14
g5
Ntp708
Rp709
(dp710
g18
VNursery
p711
sbag3
(g14
g5
Ntp712
Rp713
(dp714
g18
VNurseries
p715
sbag3
(g14
g5
Ntp716
Rp717
(dp718
g18
VUAE
p719
sbasg20
I00
sg21
Nsg22
Nsg23
(lp720
sg69
Nsg70
Nsg71
Nsg72
VMon Dec 08 20:03:28 +0000 2014
p721
sg74
Nsg75
I00
sg76
Nsg77
Nsg78
Nsg79
Nsg80
I00
sg81
Nsg82
(lp722
sg84
Nsg85
V542046825654792192
p723
sg87
Nsg88
VWe manage an Early Learning Centre in Academic City, Dubai Silicon Oasis. http://t.co/XGs518v8V2 #Dubai #Nursery #Nurseries #UAE
p724
sg90
I00
sg91
Ven
p725
sg93
g3
(g94
g5
Ntp726
Rp727
(dp728
g10
Vdubai
p729
sg99
V2B0C13
p730
sg101
Ven
p731
sg103
VAbu Dhabi
p732
sg105
I1283
sg106
I3481
sg72
VSat Jun 20 20:19:30 +0000 2009
p733
sg108
I00
sg109
VBritish EYFS education & play for the best start for your children. We have 4 nurseries in Dubai, UAE, from Nursery School to Early Learning / Kindergarten
p734
sg111
Vhttps://pbs.twimg.com/profile_images/471185726776676352/JQf-dIW4_normal.png
p735
sg113
I409
sg114
I148
sg115
I14400
sg116
Nsg117
I00
sg118
Vhttps://pbs.twimg.com/profile_banners/49108110/1401338640
p736
sg120
I00
sg121
I00
sg122
V470F8C
p737
sg124
I01
sg125
I00
sg126
Vhttp://pbs.twimg.com/profile_background_images/690643639/f416d4110cf61099c6d0491248eb6060.jpeg
p738
sg128
Vblossomnursery
p739
sg130
I7
sg131
VThe Blossom Nursery
p740
sg133
VC8EDFF
p741
sg135
Vhttp://t.co/CMIthJ5nxv
p742
sg137
I49108110
sg138
VFFFFFF
p743
sbsg140
I0
sg141
V<a href="http://www.socialoomph.com" rel="nofollow">SocialOomph</a>
p744
sg143
(lp745
g3
(g145
g5
Ntp746
Rp747
(dp748
g149
Vhttp://t.co/XGs518v8V2
p749
sg151
Vhttp://bit.ly/BNAdmissions
p750
sbasg137
I542046825654792192
sbag3
(g4
g5
Ntp751
Rp752
(dp753
g9
I0
sg10
Nsg11
Nsg12
(lp754
g3
(g14
g5
Ntp755
Rp756
(dp757
g18
VGreen
p758
sbag3
(g14
g5
Ntp759
Rp760
(dp761
g18
VEnvironment
p762
sbasg20
I00
sg21
Nsg22
Nsg23
(lp763
(dp764
Vexpanded_url
p765
Vhttp://twitter.com/blossomnursery/status/541835673763074048/photo/1
p766
sVdisplay_url
p767
Vpic.twitter.com/4iTHR4CZ4b
p768
sVurl
p769
Vhttp://t.co/4iTHR4CZ4b
p770
sVmedia_url_https
p771
Vhttps://pbs.twimg.com/media/B4T8rKaIIAAxyat.jpg
p772
sVid_str
p773
V541835673649815552
p774
sVsizes
p775
(dp776
Vlarge
p777
(dp778
Vh
p779
I519
sVresize
p780
Vfit
p781
sVw
p782
I960
ssVsmall
p783
(dp784
Vh
p785
I183
sVresize
p786
Vfit
p787
sVw
p788
I340
ssVmedium
p789
(dp790
Vh
p791
I324
sVresize
p792
Vfit
p793
sVw
p794
I600
ssVthumb
p795
(dp796
Vh
p797
I150
sVresize
p798
Vcrop
p799
sVw
p800
I150
sssVindices
p801
(lp802
I105
aI127
asVtype
p803
Vphoto
p804
sVid
p805
I541835673649815552
sVmedia_url
p806
Vhttp://pbs.twimg.com/media/B4T8rKaIIAAxyat.jpg
p807
sasg69
Nsg70
Nsg71
Nsg72
VMon Dec 08 06:04:26 +0000 2014
p808
sg74
Nsg75
I00
sg76
Nsg77
Nsg78
Nsg79
Nsg80
I00
sg81
Nsg82
(lp809
sg84
Nsg85
V541835673763074048
p810
sg87
Nsg88
VHow to make compost in Dubai - http://t.co/YD70buzFmP Teach your children to recycle #Green #Environment http://t.co/4iTHR4CZ4b
p811
sg90
I00
sg91
Ven
p812
sg93
g3
(g94
g5
Ntp813
Rp814
(dp815
g10
Vdubai
p816
sg99
V2B0C13
p817
sg101
Ven
p818
sg103
VAbu Dhabi
p819
sg105
I1283
sg106
I3481
sg72
VSat Jun 20 20:19:30 +0000 2009
p820
sg108
I00
sg109
VBritish EYFS education & play for the best start for your children. We have 4 nurseries in Dubai, UAE, from Nursery School to Early Learning / Kindergarten
p821
sg111
Vhttps://pbs.twimg.com/profile_images/471185726776676352/JQf-dIW4_normal.png
p822
sg113
I409
sg114
I148
sg115
I14400
sg116
Nsg117
I00
sg118
Vhttps://pbs.twimg.com/profile_banners/49108110/1401338640
p823
sg120
I00
sg121
I00
sg122
V470F8C
p824
sg124
I01
sg125
I00
sg126
Vhttp://pbs.twimg.com/profile_background_images/690643639/f416d4110cf61099c6d0491248eb6060.jpeg
p825
sg128
Vblossomnursery
p826
sg130
I7
sg131
VThe Blossom Nursery
p827
sg133
VC8EDFF
p828
sg135
Vhttp://t.co/CMIthJ5nxv
p829
sg137
I49108110
sg138
VFFFFFF
p830
sbsg140
I0
sg141
V<a href="http://www.socialoomph.com" rel="nofollow">SocialOomph</a>
p831
sg143
(lp832
g3
(g145
g5
Ntp833
Rp834
(dp835
g149
Vhttp://t.co/YD70buzFmP
p836
sg151
Vhttp://bit.ly/BNCompost
p837
sbasg137
I541835673763074048
sbag3
(g4
g5
Ntp838
Rp839
(dp840
g9
I0
sg10
Nsg11
Nsg12
(lp841
sg20
I00
sg21
Nsg22
Nsg23
(lp842
sg69
(dp843
Vfull_name
p844
VDubai, United Arab Emirates
p845
sVurl
p846
Vhttps://api.twitter.com/1.1/geo/id/001907e868d06e24.json
p847
sVcountry
p848
V\u0627\u0644\u0627\u0645\u0627\u0631\u0627\u062a \u0627\u0644\u0639\u0631\u0628\u064a\u0629 \u0627\u0644\u0645\u062a\u062d\u062f\u0629
p849
sVplace_type
p850
Vadmin
p851
sVbounding_box
p852
(dp853
Vtype
p854
VPolygon
p855
sVcoordinates
p856
(lp857
(lp858
(lp859
F54.8939725
aF24.6182526
aa(lp860
F56.2083722
aF24.6182526
aa(lp861
F56.2083722
aF25.3686719
aa(lp862
F54.8939725
aF25.3686719
aaassVcontained_within
p863
(lp864
sVcountry_code
p865
VAE
p866
sVattributes
p867
(dp868
sVid
p869
V001907e868d06e24
p870
sVname
p871
VDubai
p872
ssg70
Nsg71
Nsg72
VSun Dec 07 09:56:13 +0000 2014
p873
sg74
Nsg75
Nsg76
Nsg77
Nsg78
Nsg79
Nsg80
I00
sg81
Nsg82
(lp874
g3
(g94
g5
Ntp875
Rp876
(dp877
g10
Nsg99
Nsg101
Nsg103
Nsg105
Nsg106
Nsg72
Nsg108
Nsg109
Nsg111
Nsg113
Nsg114
Nsg115
Nsg116
Nsg117
Nsg118
Nsg120
Nsg121
Nsg122
Nsg124
Nsg125
Nsg126
Nsg128
VDubaiChristmas
p878
sg130
Nsg131
VDubai Christmas Fest
p879
sg133
Nsg135
Nsg137
I927855396
sg138
Nsbasg84
Nsg85
V541531616791654401
p880
sg87
Nsg88
VWe are excited to be part of @DubaiChristmas Festival this year! Come visit our stall for customized mugs, phone covers and more!
p881
sg90
I00
sg91
Ven
p882
sg93
g3
(g94
g5
Ntp883
Rp884
(dp885
g10
Vdubai
p886
sg99
V2B0C13
p887
sg101
Ven
p888
sg103
VAbu Dhabi
p889
sg105
I1283
sg106
I3481
sg72
VSat Jun 20 20:19:30 +0000 2009
p890
sg108
I00
sg109
VBritish EYFS education & play for the best start for your children. We have 4 nurseries in Dubai, UAE, from Nursery School to Early Learning / Kindergarten
p891
sg111
Vhttps://pbs.twimg.com/profile_images/471185726776676352/JQf-dIW4_normal.png
p892
sg113
I409
sg114
I148
sg115
I14400
sg116
Nsg117
I00
sg118
Vhttps://pbs.twimg.com/profile_banners/49108110/1401338640
p893
sg120
I00
sg121
I00
sg122
V470F8C
p894
sg124
I01
sg125
I00
sg126
Vhttp://pbs.twimg.com/profile_background_images/690643639/f416d4110cf61099c6d0491248eb6060.jpeg
p895
sg128
Vblossomnursery
p896
sg130
I7
sg131
VThe Blossom Nursery
p897
sg133
VC8EDFF
p898
sg135
Vhttp://t.co/CMIthJ5nxv
p899
sg137
I49108110
sg138
VFFFFFF
p900
sbsg140
I1
sg141
V<a href="http://twitter.com" rel="nofollow">Twitter Web Client</a>
p901
sg143
(lp902
sg137
I541531616791654401
sbag3
(g4
g5
Ntp903
Rp904
(dp905
g9
I0
sg10
Nsg11
Nsg12
(lp906
sg20
I00
sg21
g3
(g4
g5
Ntp907
Rp908
(dp909
g9
I2
sg10
Nsg11
Nsg12
(lp910
sg20
I00
sg21
Nsg22
Nsg23
(lp911
sg69
Nsg70
Nsg71
Nsg72
VSun Dec 07 04:41:05 +0000 2014
p912
sg74
Nsg75
I00
sg76
Nsg77
Nsg78
Nsg79
Nsg80
I00
sg81
Nsg82
(lp913
sg84
Nsg85
V541452310300614656
p914
sg87
Nsg88
VEveryone who comes to the show has a chance to 'WIN THE ULTIMATE CHRISTMAS HAMPER WORTH OVER AED 10,000'... http://t.co/NCla4Wy709
p915
sg90
I00
sg91
Ven
p916
sg93
g3
(g94
g5
Ntp917
Rp918
(dp919
g10
VDubai Media City Ampitheatre
p920
sg99
V333333
p921
sg101
Ven
p922
sg103
Nsg105
I324
sg106
I664
sg72
VMon Nov 05 15:51:53 +0000 2012
p923
sg108
I00
sg109
VNow in its 3rd year, the Dubai Christmas Festival is the UAE's number one festive celebration, with everything you love about Christmas in one place.
p924
sg111
Vhttps://pbs.twimg.com/profile_images/532137620067737601/_VJuJb9o_normal.jpeg
p925
sg113
I128
sg114
I3
sg115
Nsg116
Nsg117
I00
sg118
Vhttps://pbs.twimg.com/profile_banners/927855396/1415706402
p926
sg120
I00
sg121
I00
sg122
VE80C22
p927
sg124
I00
sg125
I00
sg126
Vhttp://pbs.twimg.com/profile_background_images/378800000024161162/0fb44cdb3d823d85e536b50efe69d08e.jpeg
p928
sg128
VDubaiChristmas
p929
sg130
I2
sg131
VDubai Christmas Fest
p930
sg133
VDDEEF6
p931
sg135
Vhttp://t.co/s0oWmEu3b8
p932
sg137
I927855396
sg138
VC0DEED
p933
sbsg140
I3
sg141
V<a href="http://www.facebook.com/twitter" rel="nofollow">Facebook</a>
p934
sg143
(lp935
g3
(g145
g5
Ntp936
Rp937
(dp938
g149
Vhttp://t.co/NCla4Wy709
p939
sg151
Vhttp://fb.me/2Oz9VM9PM
p940
sbasg137
I541452310300614656
sbsg22
Nsg23
(lp941
sg69
Nsg70
Nsg71
Nsg72
VSun Dec 07 09:55:22 +0000 2014
p942
sg74
Nsg75
I00
sg76
Nsg77
Nsg78
Nsg79
Nsg80
I00
sg81
Nsg82
(lp943
g3
(g94
g5
Ntp944
Rp945
(dp946
g10
Nsg99
Nsg101
Nsg103
Nsg105
Nsg106
Nsg72
Nsg108
Nsg109
Nsg111
Nsg113
Nsg114
Nsg115
Nsg116
Nsg117
Nsg118
Nsg120
Nsg121
Nsg122
Nsg124
Nsg125
Nsg126
Nsg128
VDubaiChristmas
p947
sg130
Nsg131
VDubai Christmas Fest
p948
sg133
Nsg135
Nsg137
I927855396
sg138
Nsbasg84
Nsg85
V541531404182384640
p949
sg87
Nsg88
VRT @DubaiChristmas: Everyone who comes to the show has a chance to 'WIN THE ULTIMATE CHRISTMAS HAMPER WORTH OVER AED 10,000'... http://t.co\u2026
p950
sg90
I00
sg91
Ven
p951
sg93
g3
(g94
g5
Ntp952
Rp953
(dp954
g10
Vdubai
p955
sg99
V2B0C13
p956
sg101
Ven
p957
sg103
VAbu Dhabi
p958
sg105
I1283
sg106
I3481
sg72
VSat Jun 20 20:19:30 +0000 2009
p959
sg108
I00
sg109
VBritish EYFS education & play for the best start for your children. We have 4 nurseries in Dubai, UAE, from Nursery School to Early Learning / Kindergarten
p960
sg111
Vhttps://pbs.twimg.com/profile_images/471185726776676352/JQf-dIW4_normal.png
p961
sg113
I409
sg114
I148
sg115
I14400
sg116
Nsg117
I00
sg118
Vhttps://pbs.twimg.com/profile_banners/49108110/1401338640
p962
sg120
I00
sg121
I00
sg122
V470F8C
p963
sg124
I01
sg125
I00
sg126
Vhttp://pbs.twimg.com/profile_background_images/690643639/f416d4110cf61099c6d0491248eb6060.jpeg
p964
sg128
Vblossomnursery
p965
sg130
I7
sg131
VThe Blossom Nursery
p966
sg133
VC8EDFF
p967
sg135
Vhttp://t.co/CMIthJ5nxv
p968
sg137
I49108110
sg138
VFFFFFF
p969
sbsg140
I3
sg141
V<a href="http://twitter.com" rel="nofollow">Twitter Web Client</a>
p970
sg143
(lp971
g3
(g145
g5
Ntp972
Rp973
(dp974
g149
Vhttp://t.co/NCla4Wy709
p975
sg151
Vhttp://fb.me/2Oz9VM9PM
p976
sbasg137
I541531404182384640
sbag3
(g4
g5
Ntp977
Rp978
(dp979
g9
I0
sg10
Nsg11
Nsg12
(lp980
g3
(g14
g5
Ntp981
Rp982
(dp983
g18
VDubai
p984
sbag3
(g14
g5
Ntp985
Rp986
(dp987
g18
VCreche
p988
sbasg20
I00
sg21
Nsg22
Nsg23
(lp989
(dp990
Vexpanded_url
p991
Vhttp://twitter.com/blossomnursery/status/541473048231419904/photo/1
p992
sVdisplay_url
p993
Vpic.twitter.com/a7hCxyMBOb
p994
sVurl
p995
Vhttp://t.co/a7hCxyMBOb
p996
sVmedia_url_https
p997
Vhttps://pbs.twimg.com/media/B4Oy3k5IcAArhHW.png
p998
sVid_str
p999
V541473048080445440
p1000
sVsizes
p1001
(dp1002
Vlarge
p1003
(dp1004
Vh
p1005
I533
sVresize
p1006
Vfit
p1007
sVw
p1008
I400
ssVsmall
p1009
(dp1010
Vh
p1011
I453
sVresize
p1012
Vfit
p1013
sVw
p1014
I340
ssVmedium
p1015
(dp1016
Vh
p1017
I533
sVresize
p1018
Vfit
p1019
sVw
p1020
I400
ssVthumb
p1021
(dp1022
Vh
p1023
I150
sVresize
p1024
Vcrop
p1025
sVw
p1026
I150
sssVindices
p1027
(lp1028
I96
aI118
asVtype
p1029
Vphoto
p1030
sVid
p1031
I541473048080445440
sVmedia_url
p1032
Vhttp://pbs.twimg.com/media/B4Oy3k5IcAArhHW.png
p1033
sasg69
Nsg70
Nsg71
Nsg72
VSun Dec 07 06:03:29 +0000 2014
p1034
sg74
Nsg75
I00
sg76
Nsg77
Nsg78
Nsg79
Nsg80
I00
sg81
Nsg82
(lp1035
sg84
Nsg85
V541473048231419904
p1036
sg87
Nsg88
VAmerican, British, Indian? Curriculum choice. Click -&gt; http://t.co/GwAXevL99F #Dubai #Creche http://t.co/a7hCxyMBOb
p1037
sg90
I00
sg91
Ven
p1038
sg93
g3
(g94
g5
Ntp1039
Rp1040
(dp1041
g10
Vdubai
p1042
sg99
V2B0C13
p1043
sg101
Ven
p1044
sg103
VAbu Dhabi
p1045
sg105
I1283
sg106
I3481
sg72
VSat Jun 20 20:19:30 +0000 2009
p1046
sg108
I00
sg109
VBritish EYFS education & play for the best start for your children. We have 4 nurseries in Dubai, UAE, from Nursery School to Early Learning / Kindergarten
p1047
sg111
Vhttps://pbs.twimg.com/profile_images/471185726776676352/JQf-dIW4_normal.png
p1048
sg113
I409
sg114
I148
sg115
I14400
sg116
Nsg117
I00
sg118
Vhttps://pbs.twimg.com/profile_banners/49108110/1401338640
p1049
sg120
I00
sg121
I00
sg122
V470F8C
p1050
sg124
I01
sg125
I00
sg126
Vhttp://pbs.twimg.com/profile_background_images/690643639/f416d4110cf61099c6d0491248eb6060.jpeg
p1051
sg128
Vblossomnursery
p1052
sg130
I7
sg131
VThe Blossom Nursery
p1053
sg133
VC8EDFF
p1054
sg135
Vhttp://t.co/CMIthJ5nxv
p1055
sg137
I49108110
sg138
VFFFFFF
p1056
sbsg140
I0
sg141
V<a href="http://www.socialoomph.com" rel="nofollow">SocialOomph</a>
p1057
sg143
(lp1058
g3
(g145
g5
Ntp1059
Rp1060
(dp1061
g149
Vhttp://t.co/GwAXevL99F
p1062
sg151
Vhttp://bit.ly/BNCurQs
p1063
sbasg137
I541473048231419904
sbag3
(g4
g5
Ntp1064
Rp1065
(dp1066
g9
I0
sg10
Nsg11
Nsg12
(lp1067
g3
(g14
g5
Ntp1068
Rp1069
(dp1070
g18
VDubai
p1071
sbag3
(g14
g5
Ntp1072
Rp1073
(dp1074
g18
VNursery
p1075
sbag3
(g14
g5
Ntp1076
Rp1077
(dp1078
g18
VNurseries
p1079
sbag3
(g14
g5
Ntp1080
Rp1081
(dp1082
g18
VUAE
p1083
sbasg20
I00
sg21
Nsg22
Nsg23
(lp1084
sg69
Nsg70
Nsg71
Nsg72
VSat Dec 06 20:03:46 +0000 2014
p1085
sg74
Nsg75
I00
sg76
Nsg77
Nsg78
Nsg79
Nsg80
I00
sg81
Nsg82
(lp1086
sg84
Nsg85
V541322125693685762
p1087
sg87
Nsg88
VWe follow the British EYFS system. Our Admission information is here http://t.co/XGs518v8V2 #Dubai #Nursery #Nurseries #UAE
p1088
sg90
I00
sg91
Ven
p1089
sg93
g3
(g94
g5
Ntp1090
Rp1091
(dp1092
g10
Vdubai
p1093
sg99
V2B0C13
p1094
sg101
Ven
p1095
sg103
VAbu Dhabi
p1096
sg105
I1283
sg106
I3481
sg72
VSat Jun 20 20:19:30 +0000 2009
p1097
sg108
I00
sg109
VBritish EYFS education & play for the best start for your children. We have 4 nurseries in Dubai, UAE, from Nursery School to Early Learning / Kindergarten
p1098
sg111
Vhttps://pbs.twimg.com/profile_images/471185726776676352/JQf-dIW4_normal.png
p1099
sg113
I409
sg114
I148
sg115
I14400
sg116
Nsg117
I00
sg118
Vhttps://pbs.twimg.com/profile_banners/49108110/1401338640
p1100
sg120
I00
sg121
I00
sg122
V470F8C
p1101
sg124
I01
sg125
I00
sg126
Vhttp://pbs.twimg.com/profile_background_images/690643639/f416d4110cf61099c6d0491248eb6060.jpeg
p1102
sg128
Vblossomnursery
p1103
sg130
I7
sg131
VThe Blossom Nursery
p1104
sg133
VC8EDFF
p1105
sg135
Vhttp://t.co/CMIthJ5nxv
p1106
sg137
I49108110
sg138
VFFFFFF
p1107
sbsg140
I0
sg141
V<a href="http://www.socialoomph.com" rel="nofollow">SocialOomph</a>
p1108
sg143
(lp1109
g3
(g145
g5
Ntp1110
Rp1111
(dp1112
g149
Vhttp://t.co/XGs518v8V2
p1113
sg151
Vhttp://bit.ly/BNAdmissions
p1114
sbasg137
I541322125693685762
sbag3
(g4
g5
Ntp1115
Rp1116
(dp1117
g9
I0
sg10
Nsg11
Nsg12
(lp1118
g3
(g14
g5
Ntp1119
Rp1120
(dp1121
g18
VDubai
p1122
sbasg20
I00
sg21
Nsg22
Nsg23
(lp1123
(dp1124
Vexpanded_url
p1125
Vhttp://twitter.com/blossomnursery/status/540386007385133056/photo/1
p1126
sVdisplay_url
p1127
Vpic.twitter.com/MRuYaXkkUB
p1128
sVurl
p1129
Vhttp://t.co/MRuYaXkkUB
p1130
sVmedia_url_https
p1131
Vhttps://pbs.twimg.com/media/B3_WNeIIgAAx_Eq.png
p1132
sVid_str
p1133
V540386007221567488
p1134
sVsizes
p1135
(dp1136
Vsmall
p1137
(dp1138
Vh
p1139
I291
sVresize
p1140
Vfit
p1141
sVw
p1142
I340
ssVlarge
p1143
(dp1144
Vh
p1145
I498
sVresize
p1146
Vfit
p1147
sVw
p1148
I581
ssVmedium
p1149
(dp1150
Vh
p1151
I498
sVresize
p1152
Vfit
p1153
sVw
p1154
I581
ssVthumb
p1155
(dp1156
Vh
p1157
I150
sVresize
p1158
Vcrop
p1159
sVw
p1160
I150
sssVindices
p1161
(lp1162
I104
aI126
asVtype
p1163
Vphoto
p1164
sVid
p1165
I540386007221567488
sVmedia_url
p1166
Vhttp://pbs.twimg.com/media/B3_WNeIIgAAx_Eq.png
p1167
sasg69
Nsg70
Nsg71
Nsg72
VThu Dec 04 06:03:58 +0000 2014
p1168
sg74
Nsg75
I00
sg76
Nsg77
Nsg78
Nsg79
Nsg80
I00
sg81
Nsg82
(lp1169
sg84
Nsg85
V540386007385133056
p1170
sg87
Nsg88
VWe are as green as possible. We need to set an example to our students :) http://t.co/lB4zwVWnYz #Dubai http://t.co/MRuYaXkkUB
p1171
sg90
I00
sg91
Ven
p1172
sg93
g3
(g94
g5
Ntp1173
Rp1174
(dp1175
g10
Vdubai
p1176
sg99
V2B0C13
p1177
sg101
Ven
p1178
sg103
VAbu Dhabi
p1179
sg105
I1283
sg106
I3481
sg72
VSat Jun 20 20:19:30 +0000 2009
p1180
sg108
I00
sg109
VBritish EYFS education & play for the best start for your children. We have 4 nurseries in Dubai, UAE, from Nursery School to Early Learning / Kindergarten
p1181
sg111
Vhttps://pbs.twimg.com/profile_images/471185726776676352/JQf-dIW4_normal.png
p1182
sg113
I409
sg114
I148
sg115
I14400
sg116
Nsg117
I00
sg118
Vhttps://pbs.twimg.com/profile_banners/49108110/1401338640
p1183
sg120
I00
sg121
I00
sg122
V470F8C
p1184
sg124
I01
sg125
I00
sg126
Vhttp://pbs.twimg.com/profile_background_images/690643639/f416d4110cf61099c6d0491248eb6060.jpeg
p1185
sg128
Vblossomnursery
p1186
sg130
I7
sg131
VThe Blossom Nursery
p1187
sg133
VC8EDFF
p1188
sg135
Vhttp://t.co/CMIthJ5nxv
p1189
sg137
I49108110
sg138
VFFFFFF
p1190
sbsg140
I0
sg141
V<a href="http://www.socialoomph.com" rel="nofollow">SocialOomph</a>
p1191
sg143
(lp1192
g3
(g145
g5
Ntp1193
Rp1194
(dp1195
g149
Vhttp://t.co/lB4zwVWnYz
p1196
sg151
Vhttp://bit.ly/BNAwards
p1197
sbasg137
I540386007385133056
sbag3
(g4
g5
Ntp1198
Rp1199
(dp1200
g9
I0
sg10
Nsg11
Nsg12
(lp1201
g3
(g14
g5
Ntp1202
Rp1203
(dp1204
g18
VDubai
p1205
sbag3
(g14
g5
Ntp1206
Rp1207
(dp1208
g18
VNursery
p1209
sbag3
(g14
g5
Ntp1210
Rp1211
(dp1212
g18
VNurseries
p1213
sbag3
(g14
g5
Ntp1214
Rp1215
(dp1216
g18
VUAE
p1217
sbasg20
I00
sg21
Nsg22
Nsg23
(lp1218
sg69
Nsg70
Nsg71
Nsg72
VWed Dec 03 20:03:34 +0000 2014
p1219
sg74
Nsg75
I00
sg76
Nsg77
Nsg78
Nsg79
Nsg80
I00
sg81
Nsg82
(lp1220
sg84
Nsg85
V540234910418866176
p1221
sg87
Nsg88
VFor admissions information (including fees) click here --&gt;  http://t.co/XGs518v8V2 #Dubai #Nursery #Nurseries #UAE
p1222
sg90
I00
sg91
Ven
p1223
sg93
g3
(g94
g5
Ntp1224
Rp1225
(dp1226
g10
Vdubai
p1227
sg99
V2B0C13
p1228
sg101
Ven
p1229
sg103
VAbu Dhabi
p1230
sg105
I1283
sg106
I3481
sg72
VSat Jun 20 20:19:30 +0000 2009
p1231
sg108
I00
sg109
VBritish EYFS education & play for the best start for your children. We have 4 nurseries in Dubai, UAE, from Nursery School to Early Learning / Kindergarten
p1232
sg111
Vhttps://pbs.twimg.com/profile_images/471185726776676352/JQf-dIW4_normal.png
p1233
sg113
I409
sg114
I148
sg115
I14400
sg116
Nsg117
I00
sg118
Vhttps://pbs.twimg.com/profile_banners/49108110/1401338640
p1234
sg120
I00
sg121
I00
sg122
V470F8C
p1235
sg124
I01
sg125
I00
sg126
Vhttp://pbs.twimg.com/profile_background_images/690643639/f416d4110cf61099c6d0491248eb6060.jpeg
p1236
sg128
Vblossomnursery
p1237
sg130
I7
sg131
VThe Blossom Nursery
p1238
sg133
VC8EDFF
p1239
sg135
Vhttp://t.co/CMIthJ5nxv
p1240
sg137
I49108110
sg138
VFFFFFF
p1241
sbsg140
I0
sg141
V<a href="http://www.socialoomph.com" rel="nofollow">SocialOomph</a>
p1242
sg143
(lp1243
g3
(g145
g5
Ntp1244
Rp1245
(dp1246
g149
Vhttp://t.co/XGs518v8V2
p1247
sg151
Vhttp://bit.ly/BNAdmissions
p1248
sbasg137
I540234910418866176
sbag3
(g4
g5
Ntp1249
Rp1250
(dp1251
g9
I0
sg10
Nsg11
Nsg12
(lp1252
g3
(g14
g5
Ntp1253
Rp1254
(dp1255
g18
VDubai
p1256
sbag3
(g14
g5
Ntp1257
Rp1258
(dp1259
g18
VNursery
p1260
sbasg20
I00
sg21
Nsg22
Nsg23
(lp1261
(dp1262
Vexpanded_url
p1263
Vhttp://twitter.com/blossomnursery/status/540023523398660096/photo/1
p1264
sVdisplay_url
p1265
Vpic.twitter.com/LWUSOJYALt
p1266
sVurl
p1267
Vhttp://t.co/LWUSOJYALt
p1268
sVmedia_url_https
p1269
Vhttps://pbs.twimg.com/media/B36MiITIYAAZWrd.jpg
p1270
sVid_str
p1271
V540023523302203392
p1272
sVsizes
p1273
(dp1274
Vlarge
p1275
(dp1276
Vh
p1277
I967
sVresize
p1278
Vfit
p1279
sVw
p1280
I780
ssVsmall
p1281
(dp1282
Vh
p1283
I421
sVresize
p1284
Vfit
p1285
sVw
p1286
I340
ssVmedium
p1287
(dp1288
Vh
p1289
I743
sVresize
p1290
Vfit
p1291
sVw
p1292
I600
ssVthumb
p1293
(dp1294
Vh
p1295
I150
sVresize
p1296
Vcrop
p1297
sVw
p1298
I150
sssVindices
p1299
(lp1300
I106
aI128
asVtype
p1301
Vphoto
p1302
sVid
p1303
I540023523302203392
sVmedia_url
p1304
Vhttp://pbs.twimg.com/media/B36MiITIYAAZWrd.jpg
p1305
sasg69
Nsg70
Nsg71
Nsg72
VWed Dec 03 06:03:35 +0000 2014
p1306
sg74
Nsg75
I00
sg76
Nsg77
Nsg78
Nsg79
Nsg80
I00
sg81
Nsg82
(lp1307
sg84
Nsg85
V540023523398660096
p1308
sg87
Nsg88
VWe're building the future - it's a HUGE responsibility! Read -&gt; http://t.co/ybKFkP8Jvm #Dubai #Nursery http://t.co/LWUSOJYALt
p1309
sg90
I00
sg91
Ven
p1310
sg93
g3
(g94
g5
Ntp1311
Rp1312
(dp1313
g10
Vdubai
p1314
sg99
V2B0C13
p1315
sg101
Ven
p1316
sg103
VAbu Dhabi
p1317
sg105
I1283
sg106
I3481
sg72
VSat Jun 20 20:19:30 +0000 2009
p1318
sg108
I00
sg109
VBritish EYFS education & play for the best start for your children. We have 4 nurseries in Dubai, UAE, from Nursery School to Early Learning / Kindergarten
p1319
sg111
Vhttps://pbs.twimg.com/profile_images/471185726776676352/JQf-dIW4_normal.png
p1320
sg113
I409
sg114
I148
sg115
I14400
sg116
Nsg117
I00
sg118
Vhttps://pbs.twimg.com/profile_banners/49108110/1401338640
p1321
sg120
I00
sg121
I00
sg122
V470F8C
p1322
sg124
I01
sg125
I00
sg126
Vhttp://pbs.twimg.com/profile_background_images/690643639/f416d4110cf61099c6d0491248eb6060.jpeg
p1323
sg128
Vblossomnursery
p1324
sg130
I7
sg131
VThe Blossom Nursery
p1325
sg133
VC8EDFF
p1326
sg135
Vhttp://t.co/CMIthJ5nxv
p1327
sg137
I49108110
sg138
VFFFFFF
p1328
sbsg140
I0
sg141
V<a href="http://www.socialoomph.com" rel="nofollow">SocialOomph</a>
p1329
sg143
(lp1330
g3
(g145
g5
Ntp1331
Rp1332
(dp1333
g149
Vhttp://t.co/ybKFkP8Jvm
p1334
sg151
Vhttp://bitly.com/BNRules
p1335
sbasg137
I540023523398660096
sbaa.