(lp0
S'TheR3dLily'
p1
a(lp2
ccopy_reg
_reconstructor
p3
(ctwitter.status
Status
p4
c__builtin__
object
p5
Ntp6
Rp7
(dp8
S'_favorite_count'
p9
I1
sS'_location'
p10
NsS'_withheld_scope'
p11
NsS'hashtags'
p12
(lp13
sS'_truncated'
p14
I00
sS'_retweeted_status'
p15
NsS'_withheld_copyright'
p16
NsS'media'
p17
(lp18
sS'_place'
p19
NsS'_contributors'
p20
NsS'_current_user_retweet'
p21
NsS'_created_at'
p22
VSun Dec 14 19:07:37 +0000 2014
p23
sS'_scopes'
p24
NsS'_possibly_sensitive'
p25
NsS'_in_reply_to_screen_name'
p26
VmybodyGG
p27
sS'_coordinates'
p28
NsS'_in_reply_to_user_id'
p29
I2888140440
sS'_geo'
p30
NsS'_favorited'
p31
I00
sS'_withheld_in_countries'
p32
NsS'user_mentions'
p33
(lp34
g3
(ctwitter.user
User
p35
g5
Ntp36
Rp37
(dp38
g10
NsS'_profile_text_color'
p39
NsS'_lang'
p40
NsS'_time_zone'
p41
NsS'_followers_count'
p42
NsS'_statuses_count'
p43
Nsg22
NsS'_verified'
p44
NsS'_description'
p45
NsS'_profile_image_url'
p46
NsS'_friends_count'
p47
NsS'_favourites_count'
p48
NsS'_utc_offset'
p49
NsS'_status'
p50
NsS'_protected'
p51
NsS'_profile_banner_url'
p52
NsS'_notifications'
p53
NsS'_profile_background_tile'
p54
NsS'_profile_link_color'
p55
NsS'_geo_enabled'
p56
NsS'_contributors_enabled'
p57
NsS'_profile_background_image_url'
p58
NsS'_screen_name'
p59
VmybodyGG
p60
sS'_listed_count'
p61
NsS'_name'
p62
VMyB\u2605dy IsReggie
p63
sS'_profile_sidebar_fill_color'
p64
NsS'_url'
p65
NsS'_id'
p66
I2888140440
sS'_profile_background_color'
p67
NsbasS'_now'
p68
NsS'_id_str'
p69
NsS'_in_reply_to_status_id'
p70
I544206977484591105
sS'_text'
p71
V@mybodyGG SPELLCHECK IS REALLY REALLY HARD
p72
sS'_retweeted'
p73
I00
sS'lang'
p74
Ven
p75
sS'_user'
p76
g3
(g35
g5
Ntp77
Rp78
(dp79
g10
V
p80
sg39
V333333
p81
sg40
Ven
p82
sg41
VPacific Time (US & Canada)
p83
sg42
I1168
sg43
I3720
sg22
VSun Jan 06 00:50:30 +0000 2013
p84
sg44
I00
sg45
VPedantically Patient Computer Scientist. I'm a geek.
p85
sg46
Vhttps://pbs.twimg.com/profile_images/536529132805316608/lus-3j2j_normal.png
p86
sg47
I1275
sg48
I2204
sg49
I-28800
sg50
Nsg51
I00
sg52
Vhttps://pbs.twimg.com/profile_banners/1064413597/1403612130
p87
sg53
I00
sg54
I00
sg55
V68B7D4
p88
sg56
I00
sg57
I00
sg58
Vhttp://pbs.twimg.com/profile_background_images/756942318/835f37d93f94ac5e64a6f80d757b5540.jpeg
p89
sg59
VTheR3dLily
p90
sg61
I11
sg62
VTheRedLily (#4448)
p91
sg64
VDDEEF6
p92
sg65
Vhttp://t.co/GsAGM0nJwL
p93
sg66
I1064413597
sg67
V041924
p94
sbsS'_retweet_count'
p95
I0
sS'_source'
p96
V<a href="http://twitter.com" rel="nofollow">Twitter Web Client</a>
p97
sS'urls'
p98
(lp99
sg66
I544207098230632448
sbag3
(g4
g5
Ntp100
Rp101
(dp102
g9
I0
sg10
Nsg11
Nsg12
(lp103
sg14
I00
sg15
Nsg16
Nsg17
(lp104
(dp105
Vexpanded_url
p106
Vhttp://twitter.com/TheR3dLily/status/544206949441892352/photo/1
p107
sVdisplay_url
p108
Vpic.twitter.com/Rl9eSH9Qx6
p109
sVurl
p110
Vhttp://t.co/Rl9eSH9Qx6
p111
sVmedia_url_https
p112
Vhttps://pbs.twimg.com/media/B41pVi_CMAAOVpP.jpg
p113
sVid_str
p114
V544206948871057408
p115
sVsizes
p116
(dp117
Vsmall
p118
(dp119
Vh
p120
I482
sVresize
p121
Vfit
p122
sVw
p123
I340
ssVlarge
p124
(dp125
Vh
p126
I770
sVresize
p127
Vfit
p128
sVw
p129
I543
ssVmedium
p130
(dp131
Vh
p132
I770
sVresize
p133
Vfit
p134
sVw
p135
I543
ssVthumb
p136
(dp137
Vh
p138
I150
sVresize
p139
Vcrop
p140
sVw
p141
I150
sssVindices
p142
(lp143
I0
aI22
asVtype
p144
Vphoto
p145
sVid
p146
I544206948871057408
sVmedia_url
p147
Vhttp://pbs.twimg.com/media/B41pVi_CMAAOVpP.jpg
p148
sasg19
Nsg20
Nsg21
Nsg22
VSun Dec 14 19:07:02 +0000 2014
p149
sg24
Nsg25
I00
sg26
Nsg28
Nsg29
Nsg30
Nsg31
I00
sg32
Nsg33
(lp150
sg68
Nsg69
Nsg70
Nsg71
Vhttp://t.co/Rl9eSH9Qx6
p151
sg73
I00
sg74
Vund
p152
sg76
g3
(g35
g5
Ntp153
Rp154
(dp155
g10
g80
sg39
V333333
p156
sg40
Ven
p157
sg41
VPacific Time (US & Canada)
p158
sg42
I1168
sg43
I3720
sg22
VSun Jan 06 00:50:30 +0000 2013
p159
sg44
I00
sg45
VPedantically Patient Computer Scientist. I'm a geek.
p160
sg46
Vhttps://pbs.twimg.com/profile_images/536529132805316608/lus-3j2j_normal.png
p161
sg47
I1275
sg48
I2204
sg49
I-28800
sg50
Nsg51
I00
sg52
Vhttps://pbs.twimg.com/profile_banners/1064413597/1403612130
p162
sg53
I00
sg54
I00
sg55
V68B7D4
p163
sg56
I00
sg57
I00
sg58
Vhttp://pbs.twimg.com/profile_background_images/756942318/835f37d93f94ac5e64a6f80d757b5540.jpeg
p164
sg59
VTheR3dLily
p165
sg61
I11
sg62
VTheRedLily (#4448)
p166
sg64
VDDEEF6
p167
sg65
Vhttp://t.co/GsAGM0nJwL
p168
sg66
I1064413597
sg67
V041924
p169
sbsg95
I0
sg96
V<a href="http://twitter.com" rel="nofollow">Twitter Web Client</a>
p170
sg98
(lp171
sg66
I544206949441892352
sbag3
(g4
g5
Ntp172
Rp173
(dp174
g9
I5
sg10
Nsg11
Nsg12
(lp175
g3
(ctwitter.hashtag
Hashtag
p176
g5
Ntp177
Rp178
(dp179
S'text'
p180
VStop1984
p181
sbag3
(g176
g5
Ntp182
Rp183
(dp184
g180
VHR4681
p185
sbag3
(g176
g5
Ntp186
Rp187
(dp188
g180
VSec309
p189
sbasg14
I00
sg15
Nsg16
Nsg17
(lp190
(dp191
Vexpanded_url
p192
Vhttp://twitter.com/TheR3dLily/status/544205814660349952/photo/1
p193
sVdisplay_url
p194
Vpic.twitter.com/31bSfPirCt
p195
sVurl
p196
Vhttp://t.co/31bSfPirCt
p197
sVmedia_url_https
p198
Vhttps://pbs.twimg.com/media/B41oTfeCAAAqW9j.jpg
p199
sVid_str
p200
V544205814055960576
p201
sVsizes
p202
(dp203
Vsmall
p204
(dp205
Vh
p206
I191
sVresize
p207
Vfit
p208
sVw
p209
I340
ssVlarge
p210
(dp211
Vh
p212
I576
sVresize
p213
Vfit
p214
sVw
p215
I1024
ssVmedium
p216
(dp217
Vh
p218
I337
sVresize
p219
Vfit
p220
sVw
p221
I600
ssVthumb
p222
(dp223
Vh
p224
I150
sVresize
p225
Vcrop
p226
sVw
p227
I150
sssVindices
p228
(lp229
I26
aI48
asVtype
p230
Vphoto
p231
sVid
p232
I544205814055960576
sVmedia_url
p233
Vhttp://pbs.twimg.com/media/B41oTfeCAAAqW9j.jpg
p234
sasg19
Nsg20
Nsg21
Nsg22
VSun Dec 14 19:02:31 +0000 2014
p235
sg24
Nsg25
I00
sg26
Nsg28
Nsg29
Nsg30
Nsg31
I00
sg32
Nsg33
(lp236
sg68
Nsg69
Nsg70
Nsg71
V#Stop1984 #HR4681 #Sec309 http://t.co/31bSfPirCt
p237
sg73
I00
sg74
Vund
p238
sg76
g3
(g35
g5
Ntp239
Rp240
(dp241
g10
g80
sg39
V333333
p242
sg40
Ven
p243
sg41
VPacific Time (US & Canada)
p244
sg42
I1168
sg43
I3720
sg22
VSun Jan 06 00:50:30 +0000 2013
p245
sg44
I00
sg45
VPedantically Patient Computer Scientist. I'm a geek.
p246
sg46
Vhttps://pbs.twimg.com/profile_images/536529132805316608/lus-3j2j_normal.png
p247
sg47
I1275
sg48
I2204
sg49
I-28800
sg50
Nsg51
I00
sg52
Vhttps://pbs.twimg.com/profile_banners/1064413597/1403612130
p248
sg53
I00
sg54
I00
sg55
V68B7D4
p249
sg56
I00
sg57
I00
sg58
Vhttp://pbs.twimg.com/profile_background_images/756942318/835f37d93f94ac5e64a6f80d757b5540.jpeg
p250
sg59
VTheR3dLily
p251
sg61
I11
sg62
VTheRedLily (#4448)
p252
sg64
VDDEEF6
p253
sg65
Vhttp://t.co/GsAGM0nJwL
p254
sg66
I1064413597
sg67
V041924
p255
sbsg95
I11
sg96
V<a href="http://twitter.com" rel="nofollow">Twitter Web Client</a>
p256
sg98
(lp257
sg66
I544205814660349952
sbag3
(g4
g5
Ntp258
Rp259
(dp260
g9
I4
sg10
Nsg11
Nsg12
(lp261
g3
(g176
g5
Ntp262
Rp263
(dp264
g180
VStop1984
p265
sbag3
(g176
g5
Ntp266
Rp267
(dp268
g180
VHR4681
p269
sbag3
(g176
g5
Ntp270
Rp271
(dp272
g180
VSec309
p273
sbasg14
I00
sg15
Nsg16
Nsg17
(lp274
(dp275
Vexpanded_url
p276
Vhttp://twitter.com/TheR3dLily/status/544205784436191233/photo/1
p277
sVdisplay_url
p278
Vpic.twitter.com/NYzskn5a3f
p279
sVurl
p280
Vhttp://t.co/NYzskn5a3f
p281
sVmedia_url_https
p282
Vhttps://pbs.twimg.com/media/B41oRu0CEAEl8dP.jpg
p283
sVid_str
p284
V544205783815032833
p285
sVsizes
p286
(dp287
Vsmall
p288
(dp289
Vh
p290
I191
sVresize
p291
Vfit
p292
sVw
p293
I340
ssVlarge
p294
(dp295
Vh
p296
I576
sVresize
p297
Vfit
p298
sVw
p299
I1024
ssVmedium
p300
(dp301
Vh
p302
I337
sVresize
p303
Vfit
p304
sVw
p305
I600
ssVthumb
p306
(dp307
Vh
p308
I150
sVresize
p309
Vcrop
p310
sVw
p311
I150
sssVindices
p312
(lp313
I26
aI48
asVtype
p314
Vphoto
p315
sVid
p316
I544205783815032833
sVmedia_url
p317
Vhttp://pbs.twimg.com/media/B41oRu0CEAEl8dP.jpg
p318
sasg19
Nsg20
Nsg21
Nsg22
VSun Dec 14 19:02:24 +0000 2014
p319
sg24
Nsg25
I00
sg26
Nsg28
Nsg29
Nsg30
Nsg31
I00
sg32
Nsg33
(lp320
sg68
Nsg69
Nsg70
Nsg71
V#Stop1984 #HR4681 #Sec309 http://t.co/NYzskn5a3f
p321
sg73
I00
sg74
Vund
p322
sg76
g3
(g35
g5
Ntp323
Rp324
(dp325
g10
g80
sg39
V333333
p326
sg40
Ven
p327
sg41
VPacific Time (US & Canada)
p328
sg42
I1168
sg43
I3720
sg22
VSun Jan 06 00:50:30 +0000 2013
p329
sg44
I00
sg45
VPedantically Patient Computer Scientist. I'm a geek.
p330
sg46
Vhttps://pbs.twimg.com/profile_images/536529132805316608/lus-3j2j_normal.png
p331
sg47
I1275
sg48
I2204
sg49
I-28800
sg50
Nsg51
I00
sg52
Vhttps://pbs.twimg.com/profile_banners/1064413597/1403612130
p332
sg53
I00
sg54
I00
sg55
V68B7D4
p333
sg56
I00
sg57
I00
sg58
Vhttp://pbs.twimg.com/profile_background_images/756942318/835f37d93f94ac5e64a6f80d757b5540.jpeg
p334
sg59
VTheR3dLily
p335
sg61
I11
sg62
VTheRedLily (#4448)
p336
sg64
VDDEEF6
p337
sg65
Vhttp://t.co/GsAGM0nJwL
p338
sg66
I1064413597
sg67
V041924
p339
sbsg95
I6
sg96
V<a href="http://twitter.com" rel="nofollow">Twitter Web Client</a>
p340
sg98
(lp341
sg66
I544205784436191233
sbag3
(g4
g5
Ntp342
Rp343
(dp344
g9
I3
sg10
Nsg11
Nsg12
(lp345
g3
(g176
g5
Ntp346
Rp347
(dp348
g180
VStop1984
p349
sbag3
(g176
g5
Ntp350
Rp351
(dp352
g180
VHR4681
p353
sbag3
(g176
g5
Ntp354
Rp355
(dp356
g180
VSec309
p357
sbasg14
I00
sg15
Nsg16
Nsg17
(lp358
(dp359
Vexpanded_url
p360
Vhttp://twitter.com/TheR3dLily/status/544205676948750336/photo/1
p361
sVdisplay_url
p362
Vpic.twitter.com/u7egpsdVcQ
p363
sVurl
p364
Vhttp://t.co/u7egpsdVcQ
p365
sVmedia_url_https
p366
Vhttps://pbs.twimg.com/media/B41oLeXCIAAJWkf.jpg
p367
sVid_str
p368
V544205676319219712
p369
sVsizes
p370
(dp371
Vsmall
p372
(dp373
Vh
p374
I191
sVresize
p375
Vfit
p376
sVw
p377
I340
ssVlarge
p378
(dp379
Vh
p380
I576
sVresize
p381
Vfit
p382
sVw
p383
I1024
ssVmedium
p384
(dp385
Vh
p386
I337
sVresize
p387
Vfit
p388
sVw
p389
I600
ssVthumb
p390
(dp391
Vh
p392
I150
sVresize
p393
Vcrop
p394
sVw
p395
I150
sssVindices
p396
(lp397
I26
aI48
asVtype
p398
Vphoto
p399
sVid
p400
I544205676319219712
sVmedia_url
p401
Vhttp://pbs.twimg.com/media/B41oLeXCIAAJWkf.jpg
p402
sasg19
Nsg20
Nsg21
Nsg22
VSun Dec 14 19:01:58 +0000 2014
p403
sg24
Nsg25
I00
sg26
Nsg28
Nsg29
Nsg30
Nsg31
I00
sg32
Nsg33
(lp404
sg68
Nsg69
Nsg70
Nsg71
V#Stop1984 #HR4681 #Sec309 http://t.co/u7egpsdVcQ
p405
sg73
I00
sg74
Vund
p406
sg76
g3
(g35
g5
Ntp407
Rp408
(dp409
g10
g80
sg39
V333333
p410
sg40
Ven
p411
sg41
VPacific Time (US & Canada)
p412
sg42
I1168
sg43
I3720
sg22
VSun Jan 06 00:50:30 +0000 2013
p413
sg44
I00
sg45
VPedantically Patient Computer Scientist. I'm a geek.
p414
sg46
Vhttps://pbs.twimg.com/profile_images/536529132805316608/lus-3j2j_normal.png
p415
sg47
I1275
sg48
I2204
sg49
I-28800
sg50
Nsg51
I00
sg52
Vhttps://pbs.twimg.com/profile_banners/1064413597/1403612130
p416
sg53
I00
sg54
I00
sg55
V68B7D4
p417
sg56
I00
sg57
I00
sg58
Vhttp://pbs.twimg.com/profile_background_images/756942318/835f37d93f94ac5e64a6f80d757b5540.jpeg
p418
sg59
VTheR3dLily
p419
sg61
I11
sg62
VTheRedLily (#4448)
p420
sg64
VDDEEF6
p421
sg65
Vhttp://t.co/GsAGM0nJwL
p422
sg66
I1064413597
sg67
V041924
p423
sbsg95
I5
sg96
V<a href="http://twitter.com" rel="nofollow">Twitter Web Client</a>
p424
sg98
(lp425
sg66
I544205676948750336
sbag3
(g4
g5
Ntp426
Rp427
(dp428
g9
I1
sg10
Nsg11
Nsg12
(lp429
sg14
I00
sg15
Nsg16
Nsg17
(lp430
sg19
Nsg20
Nsg21
Nsg22
VSun Dec 14 18:56:15 +0000 2014
p431
sg24
Nsg25
I00
sg26
Vcainejw
p432
sg28
Nsg29
I308143107
sg30
Nsg31
I00
sg32
Nsg33
(lp433
g3
(g35
g5
Ntp434
Rp435
(dp436
g10
Nsg39
Nsg40
Nsg41
Nsg42
Nsg43
Nsg22
Nsg44
Nsg45
Nsg46
Nsg47
Nsg48
Nsg49
Nsg50
Nsg51
Nsg52
Nsg53
Nsg54
Nsg55
Nsg56
Nsg57
Nsg58
Nsg59
Vcainejw
p437
sg61
Nsg62
VCain
p438
sg64
Nsg65
Nsg66
I308143107
sg67
Nsbasg68
Nsg69
Nsg70
Nsg71
V@cainejw , as usual, doing great work and being thorough \u000ahttps://t.co/8VR9hWGLzz
p439
sg73
I00
sg74
Ven
p440
sg76
g3
(g35
g5
Ntp441
Rp442
(dp443
g10
g80
sg39
V333333
p444
sg40
Ven
p445
sg41
VPacific Time (US & Canada)
p446
sg42
I1168
sg43
I3720
sg22
VSun Jan 06 00:50:30 +0000 2013
p447
sg44
I00
sg45
VPedantically Patient Computer Scientist. I'm a geek.
p448
sg46
Vhttps://pbs.twimg.com/profile_images/536529132805316608/lus-3j2j_normal.png
p449
sg47
I1275
sg48
I2204
sg49
I-28800
sg50
Nsg51
I00
sg52
Vhttps://pbs.twimg.com/profile_banners/1064413597/1403612130
p450
sg53
I00
sg54
I00
sg55
V68B7D4
p451
sg56
I00
sg57
I00
sg58
Vhttp://pbs.twimg.com/profile_background_images/756942318/835f37d93f94ac5e64a6f80d757b5540.jpeg
p452
sg59
VTheR3dLily
p453
sg61
I11
sg62
VTheRedLily (#4448)
p454
sg64
VDDEEF6
p455
sg65
Vhttp://t.co/GsAGM0nJwL
p456
sg66
I1064413597
sg67
V041924
p457
sbsg95
I1
sg96
V<a href="http://twitter.com" rel="nofollow">Twitter Web Client</a>
p458
sg98
(lp459
g3
(ctwitter.url
Url
p460
g5
Ntp461
Rp462
(dp463
S'url'
p464
Vhttps://t.co/8VR9hWGLzz
p465
sS'expanded_url'
p466
Vhttps://medium.com/@cainejw/dishonesty-feminist-frequency-part-5-f2cc3fb91ccf
p467
sbasg66
I544204237954375681
sbag3
(g4
g5
Ntp468
Rp469
(dp470
g9
I1
sg10
Nsg11
Nsg12
(lp471
g3
(g176
g5
Ntp472
Rp473
(dp474
g180
Vdesu
p475
sbasg14
I00
sg15
Nsg16
Nsg17
(lp476
sg19
Nsg20
Nsg21
Nsg22
VSun Dec 14 18:28:48 +0000 2014
p477
sg24
Nsg25
Nsg26
VTheR3dLily
p478
sg28
Nsg29
I1064413597
sg30
Nsg31
I00
sg32
Nsg33
(lp479
g3
(g35
g5
Ntp480
Rp481
(dp482
g10
Nsg39
Nsg40
Nsg41
Nsg42
Nsg43
Nsg22
Nsg44
Nsg45
Nsg46
Nsg47
Nsg48
Nsg49
Nsg50
Nsg51
Nsg52
Nsg53
Nsg54
Nsg55
Nsg56
Nsg57
Nsg58
Nsg59
VDrybones5
p483
sg61
Nsg62
VDrybones-kun\u25b3
p484
sg64
Nsg65
Nsg66
I17223116
sg67
Nsbasg68
Nsg69
Nsg70
I544196050354200579
sg71
V@Drybones5 also that is really really freaking cool #desu
p485
sg73
I00
sg74
Ven
p486
sg76
g3
(g35
g5
Ntp487
Rp488
(dp489
g10
g80
sg39
V333333
p490
sg40
Ven
p491
sg41
VPacific Time (US & Canada)
p492
sg42
I1168
sg43
I3720
sg22
VSun Jan 06 00:50:30 +0000 2013
p493
sg44
I00
sg45
VPedantically Patient Computer Scientist. I'm a geek.
p494
sg46
Vhttps://pbs.twimg.com/profile_images/536529132805316608/lus-3j2j_normal.png
p495
sg47
I1275
sg48
I2204
sg49
I-28800
sg50
Nsg51
I00
sg52
Vhttps://pbs.twimg.com/profile_banners/1064413597/1403612130
p496
sg53
I00
sg54
I00
sg55
V68B7D4
p497
sg56
I00
sg57
I00
sg58
Vhttp://pbs.twimg.com/profile_background_images/756942318/835f37d93f94ac5e64a6f80d757b5540.jpeg
p498
sg59
VTheR3dLily
p499
sg61
I11
sg62
VTheRedLily (#4448)
p500
sg64
VDDEEF6
p501
sg65
Vhttp://t.co/GsAGM0nJwL
p502
sg66
I1064413597
sg67
V041924
p503
sbsg95
I0
sg96
V<a href="http://twitter.com" rel="nofollow">Twitter Web Client</a>
p504
sg98
(lp505
sg66
I544197329671442432
sbag3
(g4
g5
Ntp506
Rp507
(dp508
g9
I0
sg10
Nsg11
Nsg12
(lp509
sg14
I00
sg15
Nsg16
Nsg17
(lp510
sg19
Nsg20
Nsg21
Nsg22
VSun Dec 14 18:23:43 +0000 2014
p511
sg24
Nsg25
Nsg26
VDrybones5
p512
sg28
Nsg29
I17223116
sg30
Nsg31
I00
sg32
Nsg33
(lp513
g3
(g35
g5
Ntp514
Rp515
(dp516
g10
Nsg39
Nsg40
Nsg41
Nsg42
Nsg43
Nsg22
Nsg44
Nsg45
Nsg46
Nsg47
Nsg48
Nsg49
Nsg50
Nsg51
Nsg52
Nsg53
Nsg54
Nsg55
Nsg56
Nsg57
Nsg58
Nsg59
VDrybones5
p517
sg61
Nsg62
VDrybones-kun\u25b3
p518
sg64
Nsg65
Nsg66
I17223116
sg67
Nsbasg68
Nsg69
Nsg70
I544195795080462336
sg71
V@Drybones5 thanks!
p519
sg73
I00
sg74
Ven
p520
sg76
g3
(g35
g5
Ntp521
Rp522
(dp523
g10
g80
sg39
V333333
p524
sg40
Ven
p525
sg41
VPacific Time (US & Canada)
p526
sg42
I1168
sg43
I3720
sg22
VSun Jan 06 00:50:30 +0000 2013
p527
sg44
I00
sg45
VPedantically Patient Computer Scientist. I'm a geek.
p528
sg46
Vhttps://pbs.twimg.com/profile_images/536529132805316608/lus-3j2j_normal.png
p529
sg47
I1275
sg48
I2204
sg49
I-28800
sg50
Nsg51
I00
sg52
Vhttps://pbs.twimg.com/profile_banners/1064413597/1403612130
p530
sg53
I00
sg54
I00
sg55
V68B7D4
p531
sg56
I00
sg57
I00
sg58
Vhttp://pbs.twimg.com/profile_background_images/756942318/835f37d93f94ac5e64a6f80d757b5540.jpeg
p532
sg59
VTheR3dLily
p533
sg61
I11
sg62
VTheRedLily (#4448)
p534
sg64
VDDEEF6
p535
sg65
Vhttp://t.co/GsAGM0nJwL
p536
sg66
I1064413597
sg67
V041924
p537
sbsg95
I0
sg96
V<a href="http://twitter.com" rel="nofollow">Twitter Web Client</a>
p538
sg98
(lp539
sg66
I544196050354200579
sbag3
(g4
g5
Ntp540
Rp541
(dp542
g9
I1
sg10
Nsg11
Nsg12
(lp543
g3
(g176
g5
Ntp544
Rp545
(dp546
g180
VGamerGate
p547
sbasg14
I00
sg15
Nsg16
Nsg17
(lp548
sg19
Nsg20
Nsg21
Nsg22
VSun Dec 14 18:23:31 +0000 2014
p549
sg24
Nsg25
I00
sg26
Nsg28
Nsg29
Nsg30
Nsg31
I00
sg32
Nsg33
(lp550
sg68
Nsg69
Nsg70
Nsg71
VUnder rated #GamerGate post: https://t.co/wISlH9PN0G\u000aSure it's fun to chat, but remember to email
p551
sg73
I00
sg74
Ven
p552
sg76
g3
(g35
g5
Ntp553
Rp554
(dp555
g10
g80
sg39
V333333
p556
sg40
Ven
p557
sg41
VPacific Time (US & Canada)
p558
sg42
I1168
sg43
I3720
sg22
VSun Jan 06 00:50:30 +0000 2013
p559
sg44
I00
sg45
VPedantically Patient Computer Scientist. I'm a geek.
p560
sg46
Vhttps://pbs.twimg.com/profile_images/536529132805316608/lus-3j2j_normal.png
p561
sg47
I1275
sg48
I2204
sg49
I-28800
sg50
Nsg51
I00
sg52
Vhttps://pbs.twimg.com/profile_banners/1064413597/1403612130
p562
sg53
I00
sg54
I00
sg55
V68B7D4
p563
sg56
I00
sg57
I00
sg58
Vhttp://pbs.twimg.com/profile_background_images/756942318/835f37d93f94ac5e64a6f80d757b5540.jpeg
p564
sg59
VTheR3dLily
p565
sg61
I11
sg62
VTheRedLily (#4448)
p566
sg64
VDDEEF6
p567
sg65
Vhttp://t.co/GsAGM0nJwL
p568
sg66
I1064413597
sg67
V041924
p569
sbsg95
I1
sg96
V<a href="http://twitter.com" rel="nofollow">Twitter Web Client</a>
p570
sg98
(lp571
g3
(g460
g5
Ntp572
Rp573
(dp574
g464
Vhttps://t.co/wISlH9PN0G
p575
sg466
Vhttps://twitter.com/GGRobot/status/544195499016740864
p576
sbasg66
I544195998479024128
sbag3
(g4
g5
Ntp577
Rp578
(dp579
g9
I0
sg10
Nsg11
Nsg12
(lp580
g3
(g176
g5
Ntp581
Rp582
(dp583
g180
VGamerGate
p584
sbasg14
I00
sg15
g3
(g4
g5
Ntp585
Rp586
(dp587
g9
I3
sg10
Nsg11
Nsg12
(lp588
g3
(g176
g5
Ntp589
Rp590
(dp591
g180
VGamerGate
p592
sbasg14
I00
sg15
Nsg16
Nsg17
(lp593
(dp594
Vsource_user_id
p595
I83339474
sVsource_status_id_str
p596
V539492633983590400
p597
sVexpanded_url
p598
Vhttp://twitter.com/_icze4r/status/539492633983590400/photo/1
p599
sVdisplay_url
p600
Vpic.twitter.com/zE5nBVXin8
p601
sVurl
p602
Vhttp://t.co/zE5nBVXin8
p603
sVmedia_url_https
p604
Vhttps://pbs.twimg.com/media/B3ypsTRIcAAIcGz.jpg
p605
sVsource_user_id_str
p606
V83339474
p607
sVsource_status_id
p608
I539492633983590400
sVid_str
p609
V539492633929084928
p610
sVsizes
p611
(dp612
Vlarge
p613
(dp614
Vh
p615
I402
sVresize
p616
Vfit
p617
sVw
p618
I622
ssVsmall
p619
(dp620
Vh
p621
I219
sVresize
p622
Vfit
p623
sVw
p624
I340
ssVmedium
p625
(dp626
Vh
p627
I387
sVresize
p628
Vfit
p629
sVw
p630
I600
ssVthumb
p631
(dp632
Vh
p633
I150
sVresize
p634
Vcrop
p635
sVw
p636
I150
sssVindices
p637
(lp638
I86
aI108
asVtype
p639
Vphoto
p640
sVid
p641
I539492633929084928
sVmedia_url
p642
Vhttp://pbs.twimg.com/media/B3ypsTRIcAAIcGz.jpg
p643
sasg19
Nsg20
Nsg21
Nsg22
VSun Dec 14 18:21:32 +0000 2014
p644
sg24
Nsg25
I00
sg26
Nsg28
Nsg29
Nsg30
Nsg31
I00
sg32
Nsg33
(lp645
sg68
Nsg69
Nsg70
Nsg71
V#GamerGate BGotD\u000a12/01.\u000a\u000aSite: Rock Paper Shotgun\u000aAd: Samsung\u000a\u000ahttp://t.co/9u16vtG3Is\u000ahttp://t.co/zE5nBVXin8
p646
sg73
I00
sg74
Vtl
p647
sg76
g3
(g35
g5
Ntp648
Rp649
(dp650
g10
g80
sg39
V333333
p651
sg40
Ven
p652
sg41
Nsg42
I654
sg43
I1886
sg22
VSat Nov 08 22:25:24 +0000 2014
p653
sg44
I00
sg45
VTweeting out advisories and Boycott Goals of the Day.
p654
sg46
Vhttps://pbs.twimg.com/profile_images/531211561969258498/wz8GAbTi_normal.jpeg
p655
sg47
I0
sg48
I0
sg49
Nsg50
Nsg51
I00
sg52
Vhttps://pbs.twimg.com/profile_banners/2868092806/1415485711
p656
sg53
I00
sg54
I00
sg55
V0084B4
p657
sg56
I00
sg57
I00
sg58
Vhttp://abs.twimg.com/images/themes/theme1/bg.png
p658
sg59
VGGRobot
p659
sg61
I4
sg62
V#GamerGate Robot
p660
sg64
VDDEEF6
p661
sg65
Nsg66
I2868092806
sg67
VC0DEED
p662
sbsg95
I6
sg96
V<a href="http://twittbot.net/" rel="nofollow">twittbot.net</a>
p663
sg98
(lp664
g3
(g460
g5
Ntp665
Rp666
(dp667
g464
Vhttp://t.co/9u16vtG3Is
p668
sg466
Vhttp://www.reddit.com/r/KotakuInAction/comments/2nyp2b/bgotd_1212014_samsung_rock_paper_shotgun/
p669
sbasg66
I544195499016740864
sbsg16
Nsg17
(lp670
(dp671
Vsource_user_id
p672
I83339474
sVsource_status_id_str
p673
V539492633983590400
p674
sVexpanded_url
p675
Vhttp://twitter.com/_icze4r/status/539492633983590400/photo/1
p676
sVdisplay_url
p677
Vpic.twitter.com/zE5nBVXin8
p678
sVurl
p679
Vhttp://t.co/zE5nBVXin8
p680
sVmedia_url_https
p681
Vhttps://pbs.twimg.com/media/B3ypsTRIcAAIcGz.jpg
p682
sVsource_user_id_str
p683
V83339474
p684
sVsource_status_id
p685
I539492633983590400
sVid_str
p686
V539492633929084928
p687
sVsizes
p688
(dp689
Vlarge
p690
(dp691
Vh
p692
I402
sVresize
p693
Vfit
p694
sVw
p695
I622
ssVsmall
p696
(dp697
Vh
p698
I219
sVresize
p699
Vfit
p700
sVw
p701
I340
ssVmedium
p702
(dp703
Vh
p704
I387
sVresize
p705
Vfit
p706
sVw
p707
I600
ssVthumb
p708
(dp709
Vh
p710
I150
sVresize
p711
Vcrop
p712
sVw
p713
I150
sssVindices
p714
(lp715
I99
aI121
asVtype
p716
Vphoto
p717
sVid
p718
I539492633929084928
sVmedia_url
p719
Vhttp://pbs.twimg.com/media/B3ypsTRIcAAIcGz.jpg
p720
sasg19
Nsg20
Nsg21
Nsg22
VSun Dec 14 18:22:43 +0000 2014
p721
sg24
Nsg25
I00
sg26
Nsg28
Nsg29
Nsg30
Nsg31
I00
sg32
Nsg33
(lp722
g3
(g35
g5
Ntp723
Rp724
(dp725
g10
Nsg39
Nsg40
Nsg41
Nsg42
Nsg43
Nsg22
Nsg44
Nsg45
Nsg46
Nsg47
Nsg48
Nsg49
Nsg50
Nsg51
Nsg52
Nsg53
Nsg54
Nsg55
Nsg56
Nsg57
Nsg58
Nsg59
VGGRobot
p726
sg61
Nsg62
V#GamerGate Robot
p727
sg64
Nsg65
Nsg66
I2868092806
sg67
Nsbasg68
Nsg69
Nsg70
Nsg71
VRT @GGRobot: #GamerGate BGotD\u000a12/01.\u000a\u000aSite: Rock Paper Shotgun\u000aAd: Samsung\u000a\u000ahttp://t.co/9u16vtG3Is\u000ahttp://t.co/zE5nBVXin8
p728
sg73
I00
sg74
Vtl
p729
sg76
g3
(g35
g5
Ntp730
Rp731
(dp732
g10
g80
sg39
V333333
p733
sg40
Ven
p734
sg41
VPacific Time (US & Canada)
p735
sg42
I1168
sg43
I3720
sg22
VSun Jan 06 00:50:30 +0000 2013
p736
sg44
I00
sg45
VPedantically Patient Computer Scientist. I'm a geek.
p737
sg46
Vhttps://pbs.twimg.com/profile_images/536529132805316608/lus-3j2j_normal.png
p738
sg47
I1275
sg48
I2204
sg49
I-28800
sg50
Nsg51
I00
sg52
Vhttps://pbs.twimg.com/profile_banners/1064413597/1403612130
p739
sg53
I00
sg54
I00
sg55
V68B7D4
p740
sg56
I00
sg57
I00
sg58
Vhttp://pbs.twimg.com/profile_background_images/756942318/835f37d93f94ac5e64a6f80d757b5540.jpeg
p741
sg59
VTheR3dLily
p742
sg61
I11
sg62
VTheRedLily (#4448)
p743
sg64
VDDEEF6
p744
sg65
Vhttp://t.co/GsAGM0nJwL
p745
sg66
I1064413597
sg67
V041924
p746
sbsg95
I6
sg96
V<a href="http://twitter.com" rel="nofollow">Twitter Web Client</a>
p747
sg98
(lp748
g3
(g460
g5
Ntp749
Rp750
(dp751
g464
Vhttp://t.co/9u16vtG3Is
p752
sg466
Vhttp://www.reddit.com/r/KotakuInAction/comments/2nyp2b/bgotd_1212014_samsung_rock_paper_shotgun/
p753
sbasg66
I544195798419144705
sbag3
(g4
g5
Ntp754
Rp755
(dp756
g9
I0
sg10
Nsg11
Nsg12
(lp757
sg14
I00
sg15
Nsg16
Nsg17
(lp758
sg19
Nsg20
Nsg21
Nsg22
VSun Dec 14 18:21:08 +0000 2014
p759
sg24
Nsg25
Nsg26
VDrybones5
p760
sg28
Nsg29
I17223116
sg30
Nsg31
I00
sg32
Nsg33
(lp761
g3
(g35
g5
Ntp762
Rp763
(dp764
g10
Nsg39
Nsg40
Nsg41
Nsg42
Nsg43
Nsg22
Nsg44
Nsg45
Nsg46
Nsg47
Nsg48
Nsg49
Nsg50
Nsg51
Nsg52
Nsg53
Nsg54
Nsg55
Nsg56
Nsg57
Nsg58
Nsg59
VDrybones5
p765
sg61
Nsg62
VDrybones-kun\u25b3
p766
sg64
Nsg65
Nsg66
I17223116
sg67
Nsbasg68
Nsg69
Nsg70
I544195134616010752
sg71
V@Drybones5 \u000asounds promising, link me?
p767
sg73
I00
sg74
Ven
p768
sg76
g3
(g35
g5
Ntp769
Rp770
(dp771
g10
g80
sg39
V333333
p772
sg40
Ven
p773
sg41
VPacific Time (US & Canada)
p774
sg42
I1168
sg43
I3720
sg22
VSun Jan 06 00:50:30 +0000 2013
p775
sg44
I00
sg45
VPedantically Patient Computer Scientist. I'm a geek.
p776
sg46
Vhttps://pbs.twimg.com/profile_images/536529132805316608/lus-3j2j_normal.png
p777
sg47
I1275
sg48
I2204
sg49
I-28800
sg50
Nsg51
I00
sg52
Vhttps://pbs.twimg.com/profile_banners/1064413597/1403612130
p778
sg53
I00
sg54
I00
sg55
V68B7D4
p779
sg56
I00
sg57
I00
sg58
Vhttp://pbs.twimg.com/profile_background_images/756942318/835f37d93f94ac5e64a6f80d757b5540.jpeg
p780
sg59
VTheR3dLily
p781
sg61
I11
sg62
VTheRedLily (#4448)
p782
sg64
VDDEEF6
p783
sg65
Vhttp://t.co/GsAGM0nJwL
p784
sg66
I1064413597
sg67
V041924
p785
sbsg95
I0
sg96
V<a href="http://twitter.com" rel="nofollow">Twitter Web Client</a>
p786
sg98
(lp787
sg66
I544195399335284736
sbag3
(g4
g5
Ntp788
Rp789
(dp790
g9
I0
sg10
Nsg11
Nsg12
(lp791
g3
(g176
g5
Ntp792
Rp793
(dp794
g180
VGamerGate
p795
sbasg14
I00
sg15
g3
(g4
g5
Ntp796
Rp797
(dp798
g9
I150
sg10
Nsg11
Nsg12
(lp799
g3
(g176
g5
Ntp800
Rp801
(dp802
g180
VGamerGate
p803
sbasg14
I00
sg15
Nsg16
Nsg17
(lp804
sg19
Nsg20
Nsg21
Nsg22
VTue Dec 09 14:10:26 +0000 2014
p805
sg24
Nsg25
I00
sg26
Nsg28
Nsg29
Nsg30
Nsg31
I00
sg32
Nsg33
(lp806
sg68
Nsg69
Nsg70
Nsg71
VTo learn about #GamerGate, take the red-pill here: http://t.co/EHcltrFVSl THEN find out how deep the rabbit hole is: http://t.co/6TZ7BzMppw
p807
sg73
I00
sg74
Ven
p808
sg76
g3
(g35
g5
Ntp809
Rp810
(dp811
g10
VAlbuquerque, NM - USA
p812
sg39
V333333
p813
sg40
Ven
p814
sg41
VMountain Time (US & Canada)
p815
sg42
I4360
sg43
I13763
sg22
VMon Jan 25 01:29:22 +0000 2010
p816
sg44
I00
sg45
VPhD,Author,App Developer,Actor, Kinect,Babylon.js,3D Virtual Worlds. Politics:Logic Party,Views are Mine-Not UNM's http://t.co/Xj7z0io5oR #AmericanCapitalist
p817
sg46
Vhttps://pbs.twimg.com/profile_images/378800000468922237/3a3b693709d0fd073795383f446a7353_normal.jpeg
p818
sg47
I3269
sg48
I15243
sg49
I-25200
sg50
Nsg51
I00
sg52
Vhttps://pbs.twimg.com/profile_banners/108155579/1400500622
p819
sg53
I00
sg54
I00
sg55
V93A644
p820
sg56
I00
sg57
I00
sg58
Vhttp://pbs.twimg.com/profile_background_images/439615948337594368/udXMXANk.png
p821
sg59
VProfessorF
p822
sg61
I57
sg62
VProf. Nick Flor
p823
sg64
VFFFFFF
p824
sg65
Vhttp://t.co/rLgtMGihCg
p825
sg66
I108155579
sg67
V215BC9
p826
sbsg95
I175
sg96
V<a href="https://about.twitter.com/products/tweetdeck" rel="nofollow">TweetDeck</a>
p827
sg98
(lp828
g3
(g460
g5
Ntp829
Rp830
(dp831
g464
Vhttp://t.co/EHcltrFVSl
p832
sg466
Vhttp://www.forbes.com/sites/erikkain/2014/10/09/gamergate-is-not-a-hate-group-its-a-consumer-movement/
p833
sbag3
(g460
g5
Ntp834
Rp835
(dp836
g464
Vhttp://t.co/6TZ7BzMppw
p837
sg466
Vhttp://wiki.gamergate.me/index.php/GamerGate
p838
sbasg66
I542320368778616834
sbsg16
Nsg17
(lp839
sg19
Nsg20
Nsg21
Nsg22
VSun Dec 14 18:19:44 +0000 2014
p840
sg24
Nsg25
I00
sg26
Nsg28
Nsg29
Nsg30
Nsg31
I00
sg32
Nsg33
(lp841
g3
(g35
g5
Ntp842
Rp843
(dp844
g10
Nsg39
Nsg40
Nsg41
Nsg42
Nsg43
Nsg22
Nsg44
Nsg45
Nsg46
Nsg47
Nsg48
Nsg49
Nsg50
Nsg51
Nsg52
Nsg53
Nsg54
Nsg55
Nsg56
Nsg57
Nsg58
Nsg59
VProfessorF
p845
sg61
Nsg62
VProf. Nick Flor
p846
sg64
Nsg65
Nsg66
I108155579
sg67
Nsbasg68
Nsg69
Nsg70
Nsg71
VRT @ProfessorF: To learn about #GamerGate, take the red-pill here: http://t.co/EHcltrFVSl THEN find out how deep the rabbit hole is: http:/\u2026
p847
sg73
I00
sg74
Ven
p848
sg76
g3
(g35
g5
Ntp849
Rp850
(dp851
g10
g80
sg39
V333333
p852
sg40
Ven
p853
sg41
VPacific Time (US & Canada)
p854
sg42
I1168
sg43
I3720
sg22
VSun Jan 06 00:50:30 +0000 2013
p855
sg44
I00
sg45
VPedantically Patient Computer Scientist. I'm a geek.
p856
sg46
Vhttps://pbs.twimg.com/profile_images/536529132805316608/lus-3j2j_normal.png
p857
sg47
I1275
sg48
I2204
sg49
I-28800
sg50
Nsg51
I00
sg52
Vhttps://pbs.twimg.com/profile_banners/1064413597/1403612130
p858
sg53
I00
sg54
I00
sg55
V68B7D4
p859
sg56
I00
sg57
I00
sg58
Vhttp://pbs.twimg.com/profile_background_images/756942318/835f37d93f94ac5e64a6f80d757b5540.jpeg
p860
sg59
VTheR3dLily
p861
sg61
I11
sg62
VTheRedLily (#4448)
p862
sg64
VDDEEF6
p863
sg65
Vhttp://t.co/GsAGM0nJwL
p864
sg66
I1064413597
sg67
V041924
p865
sbsg95
I175
sg96
V<a href="http://twitter.com" rel="nofollow">Twitter Web Client</a>
p866
sg98
(lp867
g3
(g460
g5
Ntp868
Rp869
(dp870
g464
Vhttp://t.co/EHcltrFVSl
p871
sg466
Vhttp://www.forbes.com/sites/erikkain/2014/10/09/gamergate-is-not-a-hate-group-its-a-consumer-movement/
p872
sbag3
(g460
g5
Ntp873
Rp874
(dp875
g464
Vhttp://t.co/6TZ7BzMppw
p876
sg466
Vhttp://wiki.gamergate.me/index.php/GamerGate
p877
sbasg66
I544195048632745984
sbag3
(g4
g5
Ntp878
Rp879
(dp880
g9
I0
sg10
Nsg11
Nsg12
(lp881
g3
(g176
g5
Ntp882
Rp883
(dp884
g180
VStop309
p885
sbag3
(g176
g5
Ntp886
Rp887
(dp888
g180
VHR4681
p889
sbag3
(g176
g5
Ntp890
Rp891
(dp892
g180
VStop1984
p893
sbasg14
I00
sg15
g3
(g4
g5
Ntp894
Rp895
(dp896
g9
I5
sg10
Nsg11
Nsg12
(lp897
g3
(g176
g5
Ntp898
Rp899
(dp900
g180
VStop309
p901
sbag3
(g176
g5
Ntp902
Rp903
(dp904
g180
VHR4681
p905
sbag3
(g176
g5
Ntp906
Rp907
(dp908
g180
VStop1984
p909
sbasg14
I00
sg15
Nsg16
Nsg17
(lp910
(dp911
Vexpanded_url
p912
Vhttp://twitter.com/OTK_Obelisk/status/544166252827389953/photo/1
p913
sVdisplay_url
p914
Vpic.twitter.com/70638OgrVT
p915
sVurl
p916
Vhttp://t.co/70638OgrVT
p917
sVmedia_url_https
p918
Vhttps://pbs.twimg.com/media/B41EUqlIgAACvQO.jpg
p919
sVid_str
p920
V544166251799805952
p921
sVsizes
p922
(dp923
Vsmall
p924
(dp925
Vh
p926
I204
sVresize
p927
Vfit
p928
sVw
p929
I340
ssVlarge
p930
(dp931
Vh
p932
I276
sVresize
p933
Vfit
p934
sVw
p935
I460
ssVmedium
p936
(dp937
Vh
p938
I276
sVresize
p939
Vfit
p940
sVw
p941
I460
ssVthumb
p942
(dp943
Vh
p944
I150
sVresize
p945
Vcrop
p946
sVw
p947
I150
sssVindices
p948
(lp949
I111
aI133
asVtype
p950
Vphoto
p951
sVid
p952
I544166251799805952
sVmedia_url
p953
Vhttp://pbs.twimg.com/media/B41EUqlIgAACvQO.jpg
p954
sasg19
Nsg20
Nsg21
Nsg22
VSun Dec 14 16:25:19 +0000 2014
p955
sg24
Nsg25
I00
sg26
Nsg28
Nsg29
Nsg30
Nsg31
I00
sg32
Nsg33
(lp956
sg68
Nsg69
Nsg70
Nsg71
VLast year this man warn us about the NSA activities. What are you going to America.#Stop309  #HR4681 #Stop1984 http://t.co/70638OgrVT
p957
sg73
I00
sg74
Ven
p958
sg76
g3
(g35
g5
Ntp959
Rp960
(dp961
g10
VFacing prison time at school
p962
sg39
V4BB7DF
p963
sg40
Ven
p964
sg41
VEastern Time (US & Canada)
p965
sg42
I101
sg43
I539
sg22
VSat Jan 18 20:04:19 +0000 2014
p966
sg44
I00
sg45
VA wannabe filmmaker
p967
sg46
Vhttps://pbs.twimg.com/profile_images/541957190429724672/Hv-j31J-_normal.jpeg
p968
sg47
I339
sg48
I321
sg49
I-18000
sg50
Nsg51
I00
sg52
Vhttps://pbs.twimg.com/profile_banners/2298455616/1403196372
p969
sg53
I00
sg54
I00
sg55
V8FCAE0
p970
sg56
I00
sg57
I00
sg58
Vhttp://pbs.twimg.com/profile_background_images/378800000176357024/sNENT9wg.jpeg
p971
sg59
VOTK_Obelisk
p972
sg61
I3
sg62
VPotato Stew
p973
sg64
V191F22
p974
sg65
Vhttp://t.co/InC3YzgwMq
p975
sg66
I2298455616
sg67
V59BEE4
p976
sbsg95
I8
sg96
V<a href="http://twitter.com/download/android" rel="nofollow">Twitter for Android</a>
p977
sg98
(lp978
sg66
I544166252827389953
sbsg16
Nsg17
(lp979
(dp980
Vsource_user_id
p981
I2298455616
sVsource_status_id_str
p982
V544166252827389953
p983
sVexpanded_url
p984
Vhttp://twitter.com/OTK_Obelisk/status/544166252827389953/photo/1
p985
sVdisplay_url
p986
Vpic.twitter.com/70638OgrVT
p987
sVurl
p988
Vhttp://t.co/70638OgrVT
p989
sVmedia_url_https
p990
Vhttps://pbs.twimg.com/media/B41EUqlIgAACvQO.jpg
p991
sVsource_user_id_str
p992
V2298455616
p993
sVsource_status_id
p994
I544166252827389953
sVid_str
p995
V544166251799805952
p996
sVsizes
p997
(dp998
Vsmall
p999
(dp1000
Vh
p1001
I204
sVresize
p1002
Vfit
p1003
sVw
p1004
I340
ssVlarge
p1005
(dp1006
Vh
p1007
I276
sVresize
p1008
Vfit
p1009
sVw
p1010
I460
ssVmedium
p1011
(dp1012
Vh
p1013
I276
sVresize
p1014
Vfit
p1015
sVw
p1016
I460
ssVthumb
p1017
(dp1018
Vh
p1019
I150
sVresize
p1020
Vcrop
p1021
sVw
p1022
I150
sssVindices
p1023
(lp1024
I139
aI140
asVtype
p1025
Vphoto
p1026
sVid
p1027
I544166251799805952
sVmedia_url
p1028
Vhttp://pbs.twimg.com/media/B41EUqlIgAACvQO.jpg
p1029
sasg19
Nsg20
Nsg21
Nsg22
VSun Dec 14 18:17:22 +0000 2014
p1030
sg24
Nsg25
I00
sg26
Nsg28
Nsg29
Nsg30
Nsg31
I00
sg32
Nsg33
(lp1031
g3
(g35
g5
Ntp1032
Rp1033
(dp1034
g10
Nsg39
Nsg40
Nsg41
Nsg42
Nsg43
Nsg22
Nsg44
Nsg45
Nsg46
Nsg47
Nsg48
Nsg49
Nsg50
Nsg51
Nsg52
Nsg53
Nsg54
Nsg55
Nsg56
Nsg57
Nsg58
Nsg59
VOTK_Obelisk
p1035
sg61
Nsg62
VPotato Stew
p1036
sg64
Nsg65
Nsg66
I2298455616
sg67
Nsbasg68
Nsg69
Nsg70
Nsg71
VRT @OTK_Obelisk: Last year this man warn us about the NSA activities. What are you going to America.#Stop309  #HR4681 #Stop1984 http://t.co\u2026
p1037
sg73
I00
sg74
Ven
p1038
sg76
g3
(g35
g5
Ntp1039
Rp1040
(dp1041
g10
g80
sg39
V333333
p1042
sg40
Ven
p1043
sg41
VPacific Time (US & Canada)
p1044
sg42
I1168
sg43
I3720
sg22
VSun Jan 06 00:50:30 +0000 2013
p1045
sg44
I00
sg45
VPedantically Patient Computer Scientist. I'm a geek.
p1046
sg46
Vhttps://pbs.twimg.com/profile_images/536529132805316608/lus-3j2j_normal.png
p1047
sg47
I1275
sg48
I2204
sg49
I-28800
sg50
Nsg51
I00
sg52
Vhttps://pbs.twimg.com/profile_banners/1064413597/1403612130
p1048
sg53
I00
sg54
I00
sg55
V68B7D4
p1049
sg56
I00
sg57
I00
sg58
Vhttp://pbs.twimg.com/profile_background_images/756942318/835f37d93f94ac5e64a6f80d757b5540.jpeg
p1050
sg59
VTheR3dLily
p1051
sg61
I11
sg62
VTheRedLily (#4448)
p1052
sg64
VDDEEF6
p1053
sg65
Vhttp://t.co/GsAGM0nJwL
p1054
sg66
I1064413597
sg67
V041924
p1055
sbsg95
I8
sg96
V<a href="http://twitter.com" rel="nofollow">Twitter Web Client</a>
p1056
sg98
(lp1057
sg66
I544194451124785152
sbag3
(g4
g5
Ntp1058
Rp1059
(dp1060
g9
I2
sg10
Nsg11
Nsg12
(lp1061
g3
(g176
g5
Ntp1062
Rp1063
(dp1064
g180
VStop309
p1065
sbasg14
I00
sg15
Nsg16
Nsg17
(lp1066
sg19
Nsg20
Nsg21
Nsg22
VSun Dec 14 18:12:57 +0000 2014
p1067
sg24
Nsg25
I00
sg26
Nsg28
Nsg29
Nsg30
Nsg31
I00
sg32
Nsg33
(lp1068
g3
(g35
g5
Ntp1069
Rp1070
(dp1071
g10
Nsg39
Nsg40
Nsg41
Nsg42
Nsg43
Nsg22
Nsg44
Nsg45
Nsg46
Nsg47
Nsg48
Nsg49
Nsg50
Nsg51
Nsg52
Nsg53
Nsg54
Nsg55
Nsg56
Nsg57
Nsg58
Nsg59
VDrybones5
p1072
sg61
Nsg62
VDrybones-kun\u25b3
p1073
sg64
Nsg65
Nsg66
I17223116
sg67
Nsbasg68
Nsg69
Nsg70
Nsg71
VHey @Drybones5 \u000adoes gtorrent have any mailing lists?\u000aIf you want to help #Stop309, could you pose this: http://t.co/j7EiRp8ZDN ?
p1074
sg73
I00
sg74
Ven
p1075
sg76
g3
(g35
g5
Ntp1076
Rp1077
(dp1078
g10
g80
sg39
V333333
p1079
sg40
Ven
p1080
sg41
VPacific Time (US & Canada)
p1081
sg42
I1168
sg43
I3720
sg22
VSun Jan 06 00:50:30 +0000 2013
p1082
sg44
I00
sg45
VPedantically Patient Computer Scientist. I'm a geek.
p1083
sg46
Vhttps://pbs.twimg.com/profile_images/536529132805316608/lus-3j2j_normal.png
p1084
sg47
I1275
sg48
I2204
sg49
I-28800
sg50
Nsg51
I00
sg52
Vhttps://pbs.twimg.com/profile_banners/1064413597/1403612130
p1085
sg53
I00
sg54
I00
sg55
V68B7D4
p1086
sg56
I00
sg57
I00
sg58
Vhttp://pbs.twimg.com/profile_background_images/756942318/835f37d93f94ac5e64a6f80d757b5540.jpeg
p1087
sg59
VTheR3dLily
p1088
sg61
I11
sg62
VTheRedLily (#4448)
p1089
sg64
VDDEEF6
p1090
sg65
Vhttp://t.co/GsAGM0nJwL
p1091
sg66
I1064413597
sg67
V041924
p1092
sbsg95
I3
sg96
V<a href="http://twitter.com" rel="nofollow">Twitter Web Client</a>
p1093
sg98
(lp1094
g3
(g460
g5
Ntp1095
Rp1096
(dp1097
g464
Vhttp://t.co/j7EiRp8ZDN
p1098
sg466
Vhttp://pastebin.com/BtLcGYvK
p1099
sbasg66
I544193340196274176
sbag3
(g4
g5
Ntp1100
Rp1101
(dp1102
g9
I0
sg10
Nsg11
Nsg12
(lp1103
g3
(g176
g5
Ntp1104
Rp1105
(dp1106
g180
VGamerGate
p1107
sbag3
(g176
g5
Ntp1108
Rp1109
(dp1110
g180
Vstop309
p1111
sbasg14
I00
sg15
g3
(g4
g5
Ntp1112
Rp1113
(dp1114
g9
I19
sg10
Nsg11
Nsg12
(lp1115
g3
(g176
g5
Ntp1116
Rp1117
(dp1118
g180
VGamerGate
p1119
sbag3
(g176
g5
Ntp1120
Rp1121
(dp1122
g180
Vstop309
p1123
sbasg14
I00
sg15
Nsg16
Nsg17
(lp1124
(dp1125
Vexpanded_url
p1126
Vhttp://twitter.com/OTK_Obelisk/status/544152617300267008/photo/1
p1127
sVdisplay_url
p1128
Vpic.twitter.com/cY2IRUV2XI
p1129
sVurl
p1130
Vhttp://t.co/cY2IRUV2XI
p1131
sVmedia_url_https
p1132
Vhttps://pbs.twimg.com/media/B40360VCYAABSgN.jpg
p1133
sVid_str
p1134
V544152613600518144
p1135
sVsizes
p1136
(dp1137
Vlarge
p1138
(dp1139
Vh
p1140
I200
sVresize
p1141
Vfit
p1142
sVw
p1143
I1024
ssVsmall
p1144
(dp1145
Vh
p1146
I66
sVresize
p1147
Vfit
p1148
sVw
p1149
I340
ssVmedium
p1150
(dp1151
Vh
p1152
I117
sVresize
p1153
Vfit
p1154
sVw
p1155
I600
ssVthumb
p1156
(dp1157
Vh
p1158
I150
sVresize
p1159
Vcrop
p1160
sVw
p1161
I150
sssVindices
p1162
(lp1163
I90
aI112
asVtype
p1164
Vphoto
p1165
sVid
p1166
I544152613600518144
sVmedia_url
p1167
Vhttp://pbs.twimg.com/media/B40360VCYAABSgN.jpg
p1168
sasg19
Nsg20
Nsg21
Nsg22
VSun Dec 14 15:31:08 +0000 2014
p1169
sg24
Nsg25
I00
sg26
Nsg28
Nsg29
Nsg30
Nsg31
I00
sg32
Nsg33
(lp1170
sg68
Nsg69
Nsg70
Nsg71
VHey #GamerGate we need to work harder on #stop309. Spread the word and sign the petition. http://t.co/cY2IRUV2XI
p1171
sg73
I00
sg74
Ven
p1172
sg76
g3
(g35
g5
Ntp1173
Rp1174
(dp1175
g10
VFacing prison time at school
p1176
sg39
V4BB7DF
p1177
sg40
Ven
p1178
sg41
VEastern Time (US & Canada)
p1179
sg42
I101
sg43
I539
sg22
VSat Jan 18 20:04:19 +0000 2014
p1180
sg44
I00
sg45
VA wannabe filmmaker
p1181
sg46
Vhttps://pbs.twimg.com/profile_images/541957190429724672/Hv-j31J-_normal.jpeg
p1182
sg47
I339
sg48
I321
sg49
I-18000
sg50
Nsg51
I00
sg52
Vhttps://pbs.twimg.com/profile_banners/2298455616/1403196372
p1183
sg53
I00
sg54
I00
sg55
V8FCAE0
p1184
sg56
I00
sg57
I00
sg58
Vhttp://pbs.twimg.com/profile_background_images/378800000176357024/sNENT9wg.jpeg
p1185
sg59
VOTK_Obelisk
p1186
sg61
I3
sg62
VPotato Stew
p1187
sg64
V191F22
p1188
sg65
Vhttp://t.co/InC3YzgwMq
p1189
sg66
I2298455616
sg67
V59BEE4
p1190
sbsg95
I28
sg96
V<a href="http://twitter.com/download/android" rel="nofollow">Twitter for Android</a>
p1191
sg98
(lp1192
sg66
I544152617300267008
sbsg16
Nsg17
(lp1193
(dp1194
Vsource_user_id
p1195
I2298455616
sVsource_status_id_str
p1196
V544152617300267008
p1197
sVexpanded_url
p1198
Vhttp://twitter.com/OTK_Obelisk/status/544152617300267008/photo/1
p1199
sVdisplay_url
p1200
Vpic.twitter.com/cY2IRUV2XI
p1201
sVurl
p1202
Vhttp://t.co/cY2IRUV2XI
p1203
sVmedia_url_https
p1204
Vhttps://pbs.twimg.com/media/B40360VCYAABSgN.jpg
p1205
sVsource_user_id_str
p1206
V2298455616
p1207
sVsource_status_id
p1208
I544152617300267008
sVid_str
p1209
V544152613600518144
p1210
sVsizes
p1211
(dp1212
Vlarge
p1213
(dp1214
Vh
p1215
I200
sVresize
p1216
Vfit
p1217
sVw
p1218
I1024
ssVsmall
p1219
(dp1220
Vh
p1221
I66
sVresize
p1222
Vfit
p1223
sVw
p1224
I340
ssVmedium
p1225
(dp1226
Vh
p1227
I117
sVresize
p1228
Vfit
p1229
sVw
p1230
I600
ssVthumb
p1231
(dp1232
Vh
p1233
I150
sVresize
p1234
Vcrop
p1235
sVw
p1236
I150
sssVindices
p1237
(lp1238
I107
aI129
asVtype
p1239
Vphoto
p1240
sVid
p1241
I544152613600518144
sVmedia_url
p1242
Vhttp://pbs.twimg.com/media/B40360VCYAABSgN.jpg
p1243
sasg19
Nsg20
Nsg21
Nsg22
VSun Dec 14 18:11:55 +0000 2014
p1244
sg24
Nsg25
I00
sg26
Nsg28
Nsg29
Nsg30
Nsg31
I00
sg32
Nsg33
(lp1245
g3
(g35
g5
Ntp1246
Rp1247
(dp1248
g10
Nsg39
Nsg40
Nsg41
Nsg42
Nsg43
Nsg22
Nsg44
Nsg45
Nsg46
Nsg47
Nsg48
Nsg49
Nsg50
Nsg51
Nsg52
Nsg53
Nsg54
Nsg55
Nsg56
Nsg57
Nsg58
Nsg59
VOTK_Obelisk
p1249
sg61
Nsg62
VPotato Stew
p1250
sg64
Nsg65
Nsg66
I2298455616
sg67
Nsbasg68
Nsg69
Nsg70
Nsg71
VRT @OTK_Obelisk: Hey #GamerGate we need to work harder on #stop309. Spread the word and sign the petition. http://t.co/cY2IRUV2XI
p1251
sg73
I00
sg74
Ven
p1252
sg76
g3
(g35
g5
Ntp1253
Rp1254
(dp1255
g10
g80
sg39
V333333
p1256
sg40
Ven
p1257
sg41
VPacific Time (US & Canada)
p1258
sg42
I1168
sg43
I3720
sg22
VSun Jan 06 00:50:30 +0000 2013
p1259
sg44
I00
sg45
VPedantically Patient Computer Scientist. I'm a geek.
p1260
sg46
Vhttps://pbs.twimg.com/profile_images/536529132805316608/lus-3j2j_normal.png
p1261
sg47
I1275
sg48
I2204
sg49
I-28800
sg50
Nsg51
I00
sg52
Vhttps://pbs.twimg.com/profile_banners/1064413597/1403612130
p1262
sg53
I00
sg54
I00
sg55
V68B7D4
p1263
sg56
I00
sg57
I00
sg58
Vhttp://pbs.twimg.com/profile_background_images/756942318/835f37d93f94ac5e64a6f80d757b5540.jpeg
p1264
sg59
VTheR3dLily
p1265
sg61
I11
sg62
VTheRedLily (#4448)
p1266
sg64
VDDEEF6
p1267
sg65
Vhttp://t.co/GsAGM0nJwL
p1268
sg66
I1064413597
sg67
V041924
p1269
sbsg95
I28
sg96
V<a href="http://twitter.com" rel="nofollow">Twitter Web Client</a>
p1270
sg98
(lp1271
sg66
I544193080489152514
sbag3
(g4
g5
Ntp1272
Rp1273
(dp1274
g9
I0
sg10
Nsg11
Nsg12
(lp1275
g3
(g176
g5
Ntp1276
Rp1277
(dp1278
g180
VBasedCommentSection
p1279
sbag3
(g176
g5
Ntp1280
Rp1281
(dp1282
g180
VGamerGate
p1283
sbasg14
I00
sg15
g3
(g4
g5
Ntp1284
Rp1285
(dp1286
g9
I200
sg10
Nsg11
Nsg12
(lp1287
g3
(g176
g5
Ntp1288
Rp1289
(dp1290
g180
VBasedCommentSection
p1291
sbag3
(g176
g5
Ntp1292
Rp1293
(dp1294
g180
VGamerGate
p1295
sbasg14
I00
sg15
Nsg16
Nsg17
(lp1296
(dp1297
Vexpanded_url
p1298
Vhttp://twitter.com/TheRalphRetort/status/543583976460664832/photo/1
p1299
sVdisplay_url
p1300
Vpic.twitter.com/Qsxl9cGxOv
p1301
sVurl
p1302
Vhttp://t.co/Qsxl9cGxOv
p1303
sVmedia_url_https
p1304
Vhttps://pbs.twimg.com/media/B4syvwcIIAAHdK0.png
p1305
sVid_str
p1306
V543583976066392064
p1307
sVsizes
p1308
(dp1309
Vsmall
p1310
(dp1311
Vh
p1312
I232
sVresize
p1313
Vfit
p1314
sVw
p1315
I340
ssVlarge
p1316
(dp1317
Vh
p1318
I485
sVresize
p1319
Vfit
p1320
sVw
p1321
I710
ssVmedium
p1322
(dp1323
Vh
p1324
I409
sVresize
p1325
Vfit
p1326
sVw
p1327
I600
ssVthumb
p1328
(dp1329
Vh
p1330
I150
sVresize
p1331
Vcrop
p1332
sVw
p1333
I150
sssVindices
p1334
(lp1335
I108
aI130
asVtype
p1336
Vphoto
p1337
sVid
p1338
I543583976066392064
sVmedia_url
p1339
Vhttp://pbs.twimg.com/media/B4syvwcIIAAHdK0.png
p1340
sasg19
Nsg20
Nsg21
Nsg22
VSat Dec 13 01:51:33 +0000 2014
p1341
sg24
Nsg25
I00
sg26
Nsg28
Nsg29
Nsg30
Nsg31
I00
sg32
Nsg33
(lp1342
sg68
Nsg69
Nsg70
Nsg71
VThe #BasedCommentSection weighs in with some thoughts on the Anita/Game informer situation...\u000a\u000a  #GamerGate http://t.co/Qsxl9cGxOv
p1343
sg73
I00
sg74
Ven
p1344
sg76
g3
(g35
g5
Ntp1345
Rp1346
(dp1347
g10
Vhttp://ask.fm/TheRalphRetort
p1348
sg39
V333333
p1349
sg40
Ven
p1350
sg41
VEastern Time (US & Canada)
p1351
sg42
I18318
sg43
I16523
sg22
VWed Feb 10 20:49:05 +0000 2010
p1352
sg44
I00
sg45
Vhttp://t.co/YxypgDsh9h
p1353
sg46
Vhttps://pbs.twimg.com/profile_images/543543088921079810/IC5lVDtK_normal.png
p1354
sg47
I1220
sg48
I17144
sg49
I-18000
sg50
Nsg51
I00
sg52
Vhttps://pbs.twimg.com/profile_banners/113137765/1415706623
p1355
sg53
I00
sg54
I00
sg55
V2FCC08
p1356
sg56
I01
sg57
I00
sg58
Vhttp://pbs.twimg.com/profile_background_images/537683092740112384/Ixao-G0F.png
p1357
sg59
VTheRalphRetort
p1358
sg61
I80
sg62
VTheRalph
p1359
sg64
VDDEEF6
p1360
sg65
Nsg66
I113137765
sg67
V000000
p1361
sbsg95
I190
sg96
V<a href="http://twitter.com" rel="nofollow">Twitter Web Client</a>
p1362
sg98
(lp1363
sg66
I543583976460664832
sbsg16
Nsg17
(lp1364
(dp1365
Vsource_user_id
p1366
I113137765
sVsource_status_id_str
p1367
V543583976460664832
p1368
sVexpanded_url
p1369
Vhttp://twitter.com/TheRalphRetort/status/543583976460664832/photo/1
p1370
sVdisplay_url
p1371
Vpic.twitter.com/Qsxl9cGxOv
p1372
sVurl
p1373
Vhttp://t.co/Qsxl9cGxOv
p1374
sVmedia_url_https
p1375
Vhttps://pbs.twimg.com/media/B4syvwcIIAAHdK0.png
p1376
sVsource_user_id_str
p1377
V113137765
p1378
sVsource_status_id
p1379
I543583976460664832
sVid_str
p1380
V543583976066392064
p1381
sVsizes
p1382
(dp1383
Vsmall
p1384
(dp1385
Vh
p1386
I232
sVresize
p1387
Vfit
p1388
sVw
p1389
I340
ssVlarge
p1390
(dp1391
Vh
p1392
I485
sVresize
p1393
Vfit
p1394
sVw
p1395
I710
ssVmedium
p1396
(dp1397
Vh
p1398
I409
sVresize
p1399
Vfit
p1400
sVw
p1401
I600
ssVthumb
p1402
(dp1403
Vh
p1404
I150
sVresize
p1405
Vcrop
p1406
sVw
p1407
I150
sssVindices
p1408
(lp1409
I139
aI140
asVtype
p1410
Vphoto
p1411
sVid
p1412
I543583976066392064
sVmedia_url
p1413
Vhttp://pbs.twimg.com/media/B4syvwcIIAAHdK0.png
p1414
sasg19
Nsg20
Nsg21
Nsg22
VSun Dec 14 18:11:09 +0000 2014
p1415
sg24
Nsg25
I00
sg26
Nsg28
Nsg29
Nsg30
Nsg31
I00
sg32
Nsg33
(lp1416
g3
(g35
g5
Ntp1417
Rp1418
(dp1419
g10
Nsg39
Nsg40
Nsg41
Nsg42
Nsg43
Nsg22
Nsg44
Nsg45
Nsg46
Nsg47
Nsg48
Nsg49
Nsg50
Nsg51
Nsg52
Nsg53
Nsg54
Nsg55
Nsg56
Nsg57
Nsg58
Nsg59
VTheRalphRetort
p1420
sg61
Nsg62
VTheRalph
p1421
sg64
Nsg65
Nsg66
I113137765
sg67
Nsbasg68
Nsg69
Nsg70
Nsg71
VRT @TheRalphRetort: The #BasedCommentSection weighs in with some thoughts on the Anita/Game informer situation...\u000a\u000a  #GamerGate http://t.co\u2026
p1422
sg73
I00
sg74
Ven
p1423
sg76
g3
(g35
g5
Ntp1424
Rp1425
(dp1426
g10
g80
sg39
V333333
p1427
sg40
Ven
p1428
sg41
VPacific Time (US & Canada)
p1429
sg42
I1168
sg43
I3720
sg22
VSun Jan 06 00:50:30 +0000 2013
p1430
sg44
I00
sg45
VPedantically Patient Computer Scientist. I'm a geek.
p1431
sg46
Vhttps://pbs.twimg.com/profile_images/536529132805316608/lus-3j2j_normal.png
p1432
sg47
I1275
sg48
I2204
sg49
I-28800
sg50
Nsg51
I00
sg52
Vhttps://pbs.twimg.com/profile_banners/1064413597/1403612130
p1433
sg53
I00
sg54
I00
sg55
V68B7D4
p1434
sg56
I00
sg57
I00
sg58
Vhttp://pbs.twimg.com/profile_background_images/756942318/835f37d93f94ac5e64a6f80d757b5540.jpeg
p1435
sg59
VTheR3dLily
p1436
sg61
I11
sg62
VTheRedLily (#4448)
p1437
sg64
VDDEEF6
p1438
sg65
Vhttp://t.co/GsAGM0nJwL
p1439
sg66
I1064413597
sg67
V041924
p1440
sbsg95
I190
sg96
V<a href="http://twitter.com" rel="nofollow">Twitter Web Client</a>
p1441
sg98
(lp1442
sg66
I544192885298827264
sbag3
(g4
g5
Ntp1443
Rp1444
(dp1445
g9
I2
sg10
Nsg11
Nsg12
(lp1446
g3
(g176
g5
Ntp1447
Rp1448
(dp1449
g180
VLetYourHairDown
p1450
sbag3
(g176
g5
Ntp1451
Rp1452
(dp1453
g180
VStop1984
p1454
sbag3
(g176
g5
Ntp1455
Rp1456
(dp1457
g180
VHR4681
p1458
sbasg14
I00
sg15
Nsg16
Nsg17
(lp1459
sg19
Nsg20
Nsg21
Nsg22
VSun Dec 14 18:10:23 +0000 2014
p1460
sg24
Nsg25
Nsg26
Nsg28
Nsg29
Nsg30
Nsg31
I00
sg32
Nsg33
(lp1461
sg68
Nsg69
Nsg70
Nsg71
V#LetYourHairDown and #Stop1984 by vetoing #HR4681
p1462
sg73
I00
sg74
Ven
p1463
sg76
g3
(g35
g5
Ntp1464
Rp1465
(dp1466
g10
g80
sg39
V333333
p1467
sg40
Ven
p1468
sg41
VPacific Time (US & Canada)
p1469
sg42
I1168
sg43
I3720
sg22
VSun Jan 06 00:50:30 +0000 2013
p1470
sg44
I00
sg45
VPedantically Patient Computer Scientist. I'm a geek.
p1471
sg46
Vhttps://pbs.twimg.com/profile_images/536529132805316608/lus-3j2j_normal.png
p1472
sg47
I1275
sg48
I2204
sg49
I-28800
sg50
Nsg51
I00
sg52
Vhttps://pbs.twimg.com/profile_banners/1064413597/1403612130
p1473
sg53
I00
sg54
I00
sg55
V68B7D4
p1474
sg56
I00
sg57
I00
sg58
Vhttp://pbs.twimg.com/profile_background_images/756942318/835f37d93f94ac5e64a6f80d757b5540.jpeg
p1475
sg59
VTheR3dLily
p1476
sg61
I11
sg62
VTheRedLily (#4448)
p1477
sg64
VDDEEF6
p1478
sg65
Vhttp://t.co/GsAGM0nJwL
p1479
sg66
I1064413597
sg67
V041924
p1480
sbsg95
I2
sg96
V<a href="http://twitter.com" rel="nofollow">Twitter Web Client</a>
p1481
sg98
(lp1482
sg66
I544192692906110976
sbag3
(g4
g5
Ntp1483
Rp1484
(dp1485
g9
I5
sg10
Nsg11
Nsg12
(lp1486
g3
(g176
g5
Ntp1487
Rp1488
(dp1489
g180
VHR4681
p1490
sbasg14
I00
sg15
Nsg16
Nsg17
(lp1491
sg19
Nsg20
Nsg21
Nsg22
VSun Dec 14 18:08:25 +0000 2014
p1492
sg24
Nsg25
I00
sg26
Nsg28
Nsg29
Nsg30
Nsg31
I00
sg32
Nsg33
(lp1493
sg68
Nsg69
Nsg70
Nsg71
VIf you know of any mailing lists, please send this out to them: http://t.co/j7EiRp8ZDN\u000aTry to spread the awareness of #HR4681
p1494
sg73
I00
sg74
Ven
p1495
sg76
g3
(g35
g5
Ntp1496
Rp1497
(dp1498
g10
g80
sg39
V333333
p1499
sg40
Ven
p1500
sg41
VPacific Time (US & Canada)
p1501
sg42
I1168
sg43
I3720
sg22
VSun Jan 06 00:50:30 +0000 2013
p1502
sg44
I00
sg45
VPedantically Patient Computer Scientist. I'm a geek.
p1503
sg46
Vhttps://pbs.twimg.com/profile_images/536529132805316608/lus-3j2j_normal.png
p1504
sg47
I1275
sg48
I2204
sg49
I-28800
sg50
Nsg51
I00
sg52
Vhttps://pbs.twimg.com/profile_banners/1064413597/1403612130
p1505
sg53
I00
sg54
I00
sg55
V68B7D4
p1506
sg56
I00
sg57
I00
sg58
Vhttp://pbs.twimg.com/profile_background_images/756942318/835f37d93f94ac5e64a6f80d757b5540.jpeg
p1507
sg59
VTheR3dLily
p1508
sg61
I11
sg62
VTheRedLily (#4448)
p1509
sg64
VDDEEF6
p1510
sg65
Vhttp://t.co/GsAGM0nJwL
p1511
sg66
I1064413597
sg67
V041924
p1512
sbsg95
I5
sg96
V<a href="http://twitter.com" rel="nofollow">Twitter Web Client</a>
p1513
sg98
(lp1514
g3
(g460
g5
Ntp1515
Rp1516
(dp1517
g464
Vhttp://t.co/j7EiRp8ZDN
p1518
sg466
Vhttp://pastebin.com/BtLcGYvK
p1519
sbasg66
I544192199366549504
sbag3
(g4
g5
Ntp1520
Rp1521
(dp1522
g9
I0
sg10
Nsg11
Nsg12
(lp1523
sg14
I00
sg15
Nsg16
Nsg17
(lp1524
sg19
Nsg20
Nsg21
Nsg22
VSun Dec 14 17:51:17 +0000 2014
p1525
sg24
Nsg25
I00
sg26
Nsg28
Nsg29
Nsg30
Nsg31
I00
sg32
Nsg33
(lp1526
sg68
Nsg69
Nsg70
Nsg71
VWhat the fuck?\u000aAt the top of imgur today: http://t.co/4oOZtUsiFs\u000aWho in their right mind asks a 5 year old what their sexual orientation is?
p1527
sg73
I00
sg74
Ven
p1528
sg76
g3
(g35
g5
Ntp1529
Rp1530
(dp1531
g10
g80
sg39
V333333
p1532
sg40
Ven
p1533
sg41
VPacific Time (US & Canada)
p1534
sg42
I1168
sg43
I3720
sg22
VSun Jan 06 00:50:30 +0000 2013
p1535
sg44
I00
sg45
VPedantically Patient Computer Scientist. I'm a geek.
p1536
sg46
Vhttps://pbs.twimg.com/profile_images/536529132805316608/lus-3j2j_normal.png
p1537
sg47
I1275
sg48
I2204
sg49
I-28800
sg50
Nsg51
I00
sg52
Vhttps://pbs.twimg.com/profile_banners/1064413597/1403612130
p1538
sg53
I00
sg54
I00
sg55
V68B7D4
p1539
sg56
I00
sg57
I00
sg58
Vhttp://pbs.twimg.com/profile_background_images/756942318/835f37d93f94ac5e64a6f80d757b5540.jpeg
p1540
sg59
VTheR3dLily
p1541
sg61
I11
sg62
VTheRedLily (#4448)
p1542
sg64
VDDEEF6
p1543
sg65
Vhttp://t.co/GsAGM0nJwL
p1544
sg66
I1064413597
sg67
V041924
p1545
sbsg95
I0
sg96
V<a href="http://twitter.com" rel="nofollow">Twitter Web Client</a>
p1546
sg98
(lp1547
g3
(g460
g5
Ntp1548
Rp1549
(dp1550
g464
Vhttp://t.co/4oOZtUsiFs
p1551
sg466
Vhttp://imgur.com/gallery/8n6fBuK
p1552
sbasg66
I544187885415845889
sbag3
(g4
g5
Ntp1553
Rp1554
(dp1555
g9
I0
sg10
Nsg11
Nsg12
(lp1556
sg14
I00
sg15
Nsg16
Nsg17
(lp1557
sg19
Nsg20
Nsg21
Nsg22
VSun Dec 14 17:07:22 +0000 2014
p1558
sg24
Nsg25
Nsg26
VNiko_of_Death
p1559
sg28
Nsg29
I245819356
sg30
Nsg31
I00
sg32
Nsg33
(lp1560
g3
(g35
g5
Ntp1561
Rp1562
(dp1563
g10
Nsg39
Nsg40
Nsg41
Nsg42
Nsg43
Nsg22
Nsg44
Nsg45
Nsg46
Nsg47
Nsg48
Nsg49
Nsg50
Nsg51
Nsg52
Nsg53
Nsg54
Nsg55
Nsg56
Nsg57
Nsg58
Nsg59
VNiko_of_Death
p1564
sg61
Nsg62
VTEBG|Marie's Gal Pal
p1565
sg64
Nsg65
Nsg66
I245819356
sg67
Nsbag3
(g35
g5
Ntp1566
Rp1567
(dp1568
g10
Nsg39
Nsg40
Nsg41
Nsg42
Nsg43
Nsg22
Nsg44
Nsg45
Nsg46
Nsg47
Nsg48
Nsg49
Nsg50
Nsg51
Nsg52
Nsg53
Nsg54
Nsg55
Nsg56
Nsg57
Nsg58
Nsg59
VDrybones5
p1569
sg61
Nsg62
VDrybones-kun\u25b3
p1570
sg64
Nsg65
Nsg66
I17223116
sg67
Nsbasg68
Nsg69
Nsg70
I544176126059614208
sg71
V@Niko_of_Death @Drybones5 sniper elite v2 is pretty fun if you like slow-mo headshot killcams
p1571
sg73
I00
sg74
Ven
p1572
sg76
g3
(g35
g5
Ntp1573
Rp1574
(dp1575
g10
g80
sg39
V333333
p1576
sg40
Ven
p1577
sg41
VPacific Time (US & Canada)
p1578
sg42
I1168
sg43
I3720
sg22
VSun Jan 06 00:50:30 +0000 2013
p1579
sg44
I00
sg45
VPedantically Patient Computer Scientist. I'm a geek.
p1580
sg46
Vhttps://pbs.twimg.com/profile_images/536529132805316608/lus-3j2j_normal.png
p1581
sg47
I1275
sg48
I2204
sg49
I-28800
sg50
Nsg51
I00
sg52
Vhttps://pbs.twimg.com/profile_banners/1064413597/1403612130
p1582
sg53
I00
sg54
I00
sg55
V68B7D4
p1583
sg56
I00
sg57
I00
sg58
Vhttp://pbs.twimg.com/profile_background_images/756942318/835f37d93f94ac5e64a6f80d757b5540.jpeg
p1584
sg59
VTheR3dLily
p1585
sg61
I11
sg62
VTheRedLily (#4448)
p1586
sg64
VDDEEF6
p1587
sg65
Vhttp://t.co/GsAGM0nJwL
p1588
sg66
I1064413597
sg67
V041924
p1589
sbsg95
I0
sg96
V<a href="http://twitter.com" rel="nofollow">Twitter Web Client</a>
p1590
sg98
(lp1591
sg66
I544176834272059392
sbaa.