(lp0
S'LincolnFairOaks'
p1
a(lp2
ccopy_reg
_reconstructor
p3
(ctwitter
Status
p4
c__builtin__
object
p5
Ntp6
Rp7
(dp8
S'_favorite_count'
p9
I0
sS'_location'
p10
NsS'_withheld_scope'
p11
NsS'hashtags'
p12
(lp13
sS'_truncated'
p14
I00
sS'_retweeted_status'
p15
NsS'_withheld_copyright'
p16
NsS'media'
p17
(lp18
sS'_place'
p19
NsS'_contributors'
p20
NsS'_current_user_retweet'
p21
NsS'_created_at'
p22
VSun Dec 14 17:01:12 +0000 2014
p23
sS'_scopes'
p24
NsS'_possibly_sensitive'
p25
I00
sS'_in_reply_to_screen_name'
p26
NsS'_coordinates'
p27
NsS'_in_reply_to_user_id'
p28
NsS'_geo'
p29
NsS'_favorited'
p30
I00
sS'_withheld_in_countries'
p31
NsS'user_mentions'
p32
(lp33
sS'_now'
p34
NsS'_id_str'
p35
V544175285352931328
p36
sS'_in_reply_to_status_id'
p37
NsS'_text'
p38
VThe City of Fairfax Band Association &amp; Fairfax Choral Society are putting on Christmas in Fairfax. Dec. 20th.... http://t.co/tEctWv7MHD
p39
sS'_retweeted'
p40
I00
sS'lang'
p41
Ven
p42
sS'_user'
p43
g3
(ctwitter
User
p44
g5
Ntp45
Rp46
(dp47
g10
VFairfax, VA
p48
sS'_profile_text_color'
p49
V333333
p50
sS'_lang'
p51
Ven
p52
sS'_time_zone'
p53
VEastern Time (US & Canada)
p54
sS'_followers_count'
p55
I57
sS'_statuses_count'
p56
I1523
sg22
VWed Sep 30 19:16:14 +0000 2009
p57
sS'_verified'
p58
I00
sS'_description'
p59
VSearching for an apartment? Come to Lincoln at Fair Oaks and enjoy the best apartments in Fairfax, VA. Call to schedule a tour today: 877-794-7557
p60
sS'_profile_image_url'
p61
Vhttps://pbs.twimg.com/profile_images/378800000797553869/35787be4f391807063b0bda0fe7bd83f_normal.png
p62
sS'_friends_count'
p63
I18
sS'_favourites_count'
p64
I0
sS'_utc_offset'
p65
I-18000
sS'_status'
p66
NsS'_protected'
p67
I00
sS'_profile_banner_url'
p68
NsS'_notifications'
p69
I00
sS'_profile_background_tile'
p70
I00
sS'_profile_link_color'
p71
V9D582E
p72
sS'_geo_enabled'
p73
I00
sS'_contributors_enabled'
p74
I00
sS'_profile_background_image_url'
p75
Vhttp://abs.twimg.com/images/themes/theme8/bg.gif
p76
sS'_screen_name'
p77
VLincolnFairOaks
p78
sS'_listed_count'
p79
I0
sS'_name'
p80
VLincoln at Fair Oaks
p81
sS'_profile_sidebar_fill_color'
p82
VEADEAA
p83
sS'_url'
p84
Vhttp://t.co/4CKDqL5l
p85
sS'_id'
p86
I78684765
sS'_profile_background_color'
p87
V8B542B
p88
sbsS'_retweet_count'
p89
I0
sS'_source'
p90
V<a href="http://www.facebook.com/twitter" rel="nofollow">Facebook</a>
p91
sS'urls'
p92
(lp93
g3
(ctwitter
Url
p94
g5
Ntp95
Rp96
(dp97
S'url'
p98
Vhttp://t.co/tEctWv7MHD
p99
sS'expanded_url'
p100
Vhttp://fb.me/6YtMxQMKJ
p101
sbasg86
I544175285352931328
sbag3
(g4
g5
Ntp102
Rp103
(dp104
g9
I0
sg10
Nsg11
Nsg12
(lp105
sg14
I00
sg15
Nsg16
Nsg17
(lp106
sg19
Nsg20
Nsg21
Nsg22
VFri Dec 12 15:09:18 +0000 2014
p107
sg24
Nsg25
I00
sg26
Nsg27
Nsg28
Nsg29
Nsg30
I00
sg31
Nsg32
(lp108
sg34
Nsg35
V543422348167102466
p109
sg37
Nsg38
VSnowflake is warm and cozy by the fire...follow us at @lincolnatfairoaks to see where she pops up tomorrow.... http://t.co/JgVd5n5hJT
p110
sg40
I00
sg41
Ven
p111
sg43
g3
(g44
g5
Ntp112
Rp113
(dp114
g10
VFairfax, VA
p115
sg49
V333333
p116
sg51
Ven
p117
sg53
VEastern Time (US & Canada)
p118
sg55
I57
sg56
I1523
sg22
VWed Sep 30 19:16:14 +0000 2009
p119
sg58
I00
sg59
VSearching for an apartment? Come to Lincoln at Fair Oaks and enjoy the best apartments in Fairfax, VA. Call to schedule a tour today: 877-794-7557
p120
sg61
Vhttps://pbs.twimg.com/profile_images/378800000797553869/35787be4f391807063b0bda0fe7bd83f_normal.png
p121
sg63
I18
sg64
I0
sg65
I-18000
sg66
Nsg67
I00
sg68
Nsg69
I00
sg70
I00
sg71
V9D582E
p122
sg73
I00
sg74
I00
sg75
Vhttp://abs.twimg.com/images/themes/theme8/bg.gif
p123
sg77
VLincolnFairOaks
p124
sg79
I0
sg80
VLincoln at Fair Oaks
p125
sg82
VEADEAA
p126
sg84
Vhttp://t.co/4CKDqL5l
p127
sg86
I78684765
sg87
V8B542B
p128
sbsg89
I0
sg90
V<a href="http://www.facebook.com/twitter" rel="nofollow">Facebook</a>
p129
sg92
(lp130
g3
(g94
g5
Ntp131
Rp132
(dp133
g98
Vhttp://t.co/JgVd5n5hJT
p134
sg100
Vhttp://fb.me/46tJadt5V
p135
sbasg86
I543422348167102466
sbag3
(g4
g5
Ntp136
Rp137
(dp138
g9
I0
sg10
Nsg11
Nsg12
(lp139
sg14
I00
sg15
Nsg16
Nsg17
(lp140
sg19
Nsg20
Nsg21
Nsg22
VFri Dec 12 15:03:48 +0000 2014
p141
sg24
Nsg25
I00
sg26
Nsg27
Nsg28
Nsg29
Nsg30
I00
sg31
Nsg32
(lp142
g3
(g44
g5
Ntp143
Rp144
(dp145
g10
Nsg49
Nsg51
Nsg53
Nsg55
Nsg56
Nsg22
Nsg58
Nsg59
Nsg61
Nsg63
Nsg64
Nsg65
Nsg66
Nsg67
Nsg68
Nsg69
Nsg70
Nsg71
Nsg73
Nsg74
Nsg75
Nsg77
VLincolnFairOaks
p146
sg79
Nsg80
VLincoln at Fair Oaks
p147
sg82
Nsg84
Nsg86
I78684765
sg87
Nsbasg34
Nsg35
V543420964667920385
p148
sg37
Nsg38
VSnowflake is cozy and warm by the fire...follow us @lincolnfairoaks to see where she is tomorrow.\u2026 http://t.co/p3lt1ztEaU
p149
sg40
I00
sg41
Ven
p150
sg43
g3
(g44
g5
Ntp151
Rp152
(dp153
g10
VFairfax, VA
p154
sg49
V333333
p155
sg51
Ven
p156
sg53
VEastern Time (US & Canada)
p157
sg55
I57
sg56
I1523
sg22
VWed Sep 30 19:16:14 +0000 2009
p158
sg58
I00
sg59
VSearching for an apartment? Come to Lincoln at Fair Oaks and enjoy the best apartments in Fairfax, VA. Call to schedule a tour today: 877-794-7557
p159
sg61
Vhttps://pbs.twimg.com/profile_images/378800000797553869/35787be4f391807063b0bda0fe7bd83f_normal.png
p160
sg63
I18
sg64
I0
sg65
I-18000
sg66
Nsg67
I00
sg68
Nsg69
I00
sg70
I00
sg71
V9D582E
p161
sg73
I00
sg74
I00
sg75
Vhttp://abs.twimg.com/images/themes/theme8/bg.gif
p162
sg77
VLincolnFairOaks
p163
sg79
I0
sg80
VLincoln at Fair Oaks
p164
sg82
VEADEAA
p165
sg84
Vhttp://t.co/4CKDqL5l
p166
sg86
I78684765
sg87
V8B542B
p167
sbsg89
I0
sg90
V<a href="http://instagram.com" rel="nofollow">Instagram</a>
p168
sg92
(lp169
g3
(g94
g5
Ntp170
Rp171
(dp172
g98
Vhttp://t.co/p3lt1ztEaU
p173
sg100
Vhttp://instagram.com/p/wgtG9Xhn_j/
p174
sbasg86
I543420964667920385
sbag3
(g4
g5
Ntp175
Rp176
(dp177
g9
I0
sg10
Nsg11
Nsg12
(lp178
sg14
I00
sg15
Nsg16
Nsg17
(lp179
sg19
Nsg20
Nsg21
Nsg22
VThu Dec 11 15:40:19 +0000 2014
p180
sg24
Nsg25
I00
sg26
Nsg27
Nsg28
Nsg29
Nsg30
I00
sg31
Nsg32
(lp181
sg34
Nsg35
V543067763271827456
p182
sg37
Nsg38
VAre you looking for some festive &amp; creative cookies to make for our Great Cookie Exchange next Wednesday?  Here... http://t.co/qF1yxcO4Vo
p183
sg40
I00
sg41
Ven
p184
sg43
g3
(g44
g5
Ntp185
Rp186
(dp187
g10
VFairfax, VA
p188
sg49
V333333
p189
sg51
Ven
p190
sg53
VEastern Time (US & Canada)
p191
sg55
I57
sg56
I1523
sg22
VWed Sep 30 19:16:14 +0000 2009
p192
sg58
I00
sg59
VSearching for an apartment? Come to Lincoln at Fair Oaks and enjoy the best apartments in Fairfax, VA. Call to schedule a tour today: 877-794-7557
p193
sg61
Vhttps://pbs.twimg.com/profile_images/378800000797553869/35787be4f391807063b0bda0fe7bd83f_normal.png
p194
sg63
I18
sg64
I0
sg65
I-18000
sg66
Nsg67
I00
sg68
Nsg69
I00
sg70
I00
sg71
V9D582E
p195
sg73
I00
sg74
I00
sg75
Vhttp://abs.twimg.com/images/themes/theme8/bg.gif
p196
sg77
VLincolnFairOaks
p197
sg79
I0
sg80
VLincoln at Fair Oaks
p198
sg82
VEADEAA
p199
sg84
Vhttp://t.co/4CKDqL5l
p200
sg86
I78684765
sg87
V8B542B
p201
sbsg89
I0
sg90
V<a href="http://www.facebook.com/twitter" rel="nofollow">Facebook</a>
p202
sg92
(lp203
g3
(g94
g5
Ntp204
Rp205
(dp206
g98
Vhttp://t.co/qF1yxcO4Vo
p207
sg100
Vhttp://fb.me/34wML62xL
p208
sbasg86
I543067763271827456
sbag3
(g4
g5
Ntp209
Rp210
(dp211
g9
I0
sg10
Nsg11
Nsg12
(lp212
sg14
I00
sg15
Nsg16
Nsg17
(lp213
sg19
Nsg20
Nsg21
Nsg22
VWed Dec 10 17:01:03 +0000 2014
p214
sg24
Nsg25
I00
sg26
Nsg27
Nsg28
Nsg29
Nsg30
I00
sg31
Nsg32
(lp215
sg34
Nsg35
V542725693692727296
p216
sg37
Nsg38
VSupport your Fairfax volunteer firefighters by playing Bingo Friday nights at Fire Station 3! Click here for more... http://t.co/EtJVEIUAyj
p217
sg40
I00
sg41
Ven
p218
sg43
g3
(g44
g5
Ntp219
Rp220
(dp221
g10
VFairfax, VA
p222
sg49
V333333
p223
sg51
Ven
p224
sg53
VEastern Time (US & Canada)
p225
sg55
I57
sg56
I1523
sg22
VWed Sep 30 19:16:14 +0000 2009
p226
sg58
I00
sg59
VSearching for an apartment? Come to Lincoln at Fair Oaks and enjoy the best apartments in Fairfax, VA. Call to schedule a tour today: 877-794-7557
p227
sg61
Vhttps://pbs.twimg.com/profile_images/378800000797553869/35787be4f391807063b0bda0fe7bd83f_normal.png
p228
sg63
I18
sg64
I0
sg65
I-18000
sg66
Nsg67
I00
sg68
Nsg69
I00
sg70
I00
sg71
V9D582E
p229
sg73
I00
sg74
I00
sg75
Vhttp://abs.twimg.com/images/themes/theme8/bg.gif
p230
sg77
VLincolnFairOaks
p231
sg79
I0
sg80
VLincoln at Fair Oaks
p232
sg82
VEADEAA
p233
sg84
Vhttp://t.co/4CKDqL5l
p234
sg86
I78684765
sg87
V8B542B
p235
sbsg89
I0
sg90
V<a href="http://www.facebook.com/twitter" rel="nofollow">Facebook</a>
p236
sg92
(lp237
g3
(g94
g5
Ntp238
Rp239
(dp240
g98
Vhttp://t.co/EtJVEIUAyj
p241
sg100
Vhttp://fb.me/3jEFOfA1I
p242
sbasg86
I542725693692727296
sbag3
(g4
g5
Ntp243
Rp244
(dp245
g9
I0
sg10
Nsg11
Nsg12
(lp246
sg14
I00
sg15
Nsg16
Nsg17
(lp247
sg19
Nsg20
Nsg21
Nsg22
VWed Dec 10 14:45:27 +0000 2014
p248
sg24
Nsg25
I00
sg26
Nsg27
Nsg28
Nsg29
Nsg30
I00
sg31
Nsg32
(lp249
sg34
Nsg35
V542691570945118208
p250
sg37
Nsg38
V3 Fun Games to Play With Your Dog http://t.co/Qe6yCSCp8U
p251
sg40
I00
sg41
Ven
p252
sg43
g3
(g44
g5
Ntp253
Rp254
(dp255
g10
VFairfax, VA
p256
sg49
V333333
p257
sg51
Ven
p258
sg53
VEastern Time (US & Canada)
p259
sg55
I57
sg56
I1523
sg22
VWed Sep 30 19:16:14 +0000 2009
p260
sg58
I00
sg59
VSearching for an apartment? Come to Lincoln at Fair Oaks and enjoy the best apartments in Fairfax, VA. Call to schedule a tour today: 877-794-7557
p261
sg61
Vhttps://pbs.twimg.com/profile_images/378800000797553869/35787be4f391807063b0bda0fe7bd83f_normal.png
p262
sg63
I18
sg64
I0
sg65
I-18000
sg66
Nsg67
I00
sg68
Nsg69
I00
sg70
I00
sg71
V9D582E
p263
sg73
I00
sg74
I00
sg75
Vhttp://abs.twimg.com/images/themes/theme8/bg.gif
p264
sg77
VLincolnFairOaks
p265
sg79
I0
sg80
VLincoln at Fair Oaks
p266
sg82
VEADEAA
p267
sg84
Vhttp://t.co/4CKDqL5l
p268
sg86
I78684765
sg87
V8B542B
p269
sbsg89
I0
sg90
V<a href="http://www.facebook.com/twitter" rel="nofollow">Facebook</a>
p270
sg92
(lp271
g3
(g94
g5
Ntp272
Rp273
(dp274
g98
Vhttp://t.co/Qe6yCSCp8U
p275
sg100
Vhttp://fb.me/1znqkmu1r
p276
sbasg86
I542691570945118208
sbag3
(g4
g5
Ntp277
Rp278
(dp279
g9
I0
sg10
Nsg11
Nsg12
(lp280
sg14
I00
sg15
Nsg16
Nsg17
(lp281
sg19
Nsg20
Nsg21
Nsg22
VWed Dec 10 14:10:17 +0000 2014
p282
sg24
Nsg25
I00
sg26
Nsg27
Nsg28
Nsg29
Nsg30
I00
sg31
Nsg32
(lp283
sg34
Nsg35
V542682721282433024
p284
sg37
Nsg38
Vhttp://t.co/J9T5lrflkj http://t.co/6ntGKJDTK0
p285
sg40
I00
sg41
Vund
p286
sg43
g3
(g44
g5
Ntp287
Rp288
(dp289
g10
VFairfax, VA
p290
sg49
V333333
p291
sg51
Ven
p292
sg53
VEastern Time (US & Canada)
p293
sg55
I57
sg56
I1523
sg22
VWed Sep 30 19:16:14 +0000 2009
p294
sg58
I00
sg59
VSearching for an apartment? Come to Lincoln at Fair Oaks and enjoy the best apartments in Fairfax, VA. Call to schedule a tour today: 877-794-7557
p295
sg61
Vhttps://pbs.twimg.com/profile_images/378800000797553869/35787be4f391807063b0bda0fe7bd83f_normal.png
p296
sg63
I18
sg64
I0
sg65
I-18000
sg66
Nsg67
I00
sg68
Nsg69
I00
sg70
I00
sg71
V9D582E
p297
sg73
I00
sg74
I00
sg75
Vhttp://abs.twimg.com/images/themes/theme8/bg.gif
p298
sg77
VLincolnFairOaks
p299
sg79
I0
sg80
VLincoln at Fair Oaks
p300
sg82
VEADEAA
p301
sg84
Vhttp://t.co/4CKDqL5l
p302
sg86
I78684765
sg87
V8B542B
p303
sbsg89
I0
sg90
V<a href="http://www.facebook.com/twitter" rel="nofollow">Facebook</a>
p304
sg92
(lp305
g3
(g94
g5
Ntp306
Rp307
(dp308
g98
Vhttp://t.co/J9T5lrflkj
p309
sg100
Vhttp://www.today.com/food/christmas-cocktails-more-hot-holiday-drink-ideas-1D80349122?cid=sm_fbn
p310
sbag3
(g94
g5
Ntp311
Rp312
(dp313
g98
Vhttp://t.co/6ntGKJDTK0
p314
sg100
Vhttp://fb.me/2Gs3AdJN5
p315
sbasg86
I542682721282433024
sbag3
(g4
g5
Ntp316
Rp317
(dp318
g9
I0
sg10
Nsg11
Nsg12
(lp319
sg14
I00
sg15
Nsg16
Nsg17
(lp320
sg19
Nsg20
Nsg21
Nsg22
VTue Dec 09 19:03:25 +0000 2014
p321
sg24
Nsg25
I00
sg26
Nsg27
Nsg28
Nsg29
Nsg30
I00
sg31
Nsg32
(lp322
sg34
Nsg35
V542394099824099328
p323
sg37
Nsg38
VI posted a new photo to Facebook http://t.co/jQFz4pxzID
p324
sg40
I00
sg41
Ven
p325
sg43
g3
(g44
g5
Ntp326
Rp327
(dp328
g10
VFairfax, VA
p329
sg49
V333333
p330
sg51
Ven
p331
sg53
VEastern Time (US & Canada)
p332
sg55
I57
sg56
I1523
sg22
VWed Sep 30 19:16:14 +0000 2009
p333
sg58
I00
sg59
VSearching for an apartment? Come to Lincoln at Fair Oaks and enjoy the best apartments in Fairfax, VA. Call to schedule a tour today: 877-794-7557
p334
sg61
Vhttps://pbs.twimg.com/profile_images/378800000797553869/35787be4f391807063b0bda0fe7bd83f_normal.png
p335
sg63
I18
sg64
I0
sg65
I-18000
sg66
Nsg67
I00
sg68
Nsg69
I00
sg70
I00
sg71
V9D582E
p336
sg73
I00
sg74
I00
sg75
Vhttp://abs.twimg.com/images/themes/theme8/bg.gif
p337
sg77
VLincolnFairOaks
p338
sg79
I0
sg80
VLincoln at Fair Oaks
p339
sg82
VEADEAA
p340
sg84
Vhttp://t.co/4CKDqL5l
p341
sg86
I78684765
sg87
V8B542B
p342
sbsg89
I0
sg90
V<a href="http://www.facebook.com/twitter" rel="nofollow">Facebook</a>
p343
sg92
(lp344
g3
(g94
g5
Ntp345
Rp346
(dp347
g98
Vhttp://t.co/jQFz4pxzID
p348
sg100
Vhttp://fb.me/36Ct3UkbB
p349
sbasg86
I542394099824099328
sbag3
(g4
g5
Ntp350
Rp351
(dp352
g9
I0
sg10
Nsg11
Nsg12
(lp353
sg14
I00
sg15
Nsg16
Nsg17
(lp354
sg19
Nsg20
Nsg21
Nsg22
VMon Dec 08 22:03:01 +0000 2014
p355
sg24
Nsg25
I00
sg26
Nsg27
Nsg28
Nsg29
Nsg30
I00
sg31
Nsg32
(lp356
sg34
Nsg35
V542076911317692416
p357
sg37
Nsg38
VWill you be attending our Great Cookie Exchange?  If not...You Should!  \u000aDecember 17th 6-8pm, bring your best... http://t.co/yp2wwV16ic
p358
sg40
I00
sg41
Ven
p359
sg43
g3
(g44
g5
Ntp360
Rp361
(dp362
g10
VFairfax, VA
p363
sg49
V333333
p364
sg51
Ven
p365
sg53
VEastern Time (US & Canada)
p366
sg55
I57
sg56
I1523
sg22
VWed Sep 30 19:16:14 +0000 2009
p367
sg58
I00
sg59
VSearching for an apartment? Come to Lincoln at Fair Oaks and enjoy the best apartments in Fairfax, VA. Call to schedule a tour today: 877-794-7557
p368
sg61
Vhttps://pbs.twimg.com/profile_images/378800000797553869/35787be4f391807063b0bda0fe7bd83f_normal.png
p369
sg63
I18
sg64
I0
sg65
I-18000
sg66
Nsg67
I00
sg68
Nsg69
I00
sg70
I00
sg71
V9D582E
p370
sg73
I00
sg74
I00
sg75
Vhttp://abs.twimg.com/images/themes/theme8/bg.gif
p371
sg77
VLincolnFairOaks
p372
sg79
I0
sg80
VLincoln at Fair Oaks
p373
sg82
VEADEAA
p374
sg84
Vhttp://t.co/4CKDqL5l
p375
sg86
I78684765
sg87
V8B542B
p376
sbsg89
I0
sg90
V<a href="http://www.facebook.com/twitter" rel="nofollow">Facebook</a>
p377
sg92
(lp378
g3
(g94
g5
Ntp379
Rp380
(dp381
g98
Vhttp://t.co/yp2wwV16ic
p382
sg100
Vhttp://fb.me/6WXfsMord
p383
sbasg86
I542076911317692416
sbag3
(g4
g5
Ntp384
Rp385
(dp386
g9
I0
sg10
Nsg11
Nsg12
(lp387
sg14
I00
sg15
Nsg16
Nsg17
(lp388
sg19
Nsg20
Nsg21
Nsg22
VSat Dec 06 19:57:22 +0000 2014
p389
sg24
Nsg25
I00
sg26
Nsg27
Nsg28
Nsg29
Nsg30
I00
sg31
Nsg32
(lp390
sg34
Nsg35
V541320515269705728
p391
sg37
Nsg38
VI posted 11 photos on Facebook in the album "Holiday Brunch 2014" http://t.co/d0BQ6aVAX0
p392
sg40
I00
sg41
Ven
p393
sg43
g3
(g44
g5
Ntp394
Rp395
(dp396
g10
VFairfax, VA
p397
sg49
V333333
p398
sg51
Ven
p399
sg53
VEastern Time (US & Canada)
p400
sg55
I57
sg56
I1523
sg22
VWed Sep 30 19:16:14 +0000 2009
p401
sg58
I00
sg59
VSearching for an apartment? Come to Lincoln at Fair Oaks and enjoy the best apartments in Fairfax, VA. Call to schedule a tour today: 877-794-7557
p402
sg61
Vhttps://pbs.twimg.com/profile_images/378800000797553869/35787be4f391807063b0bda0fe7bd83f_normal.png
p403
sg63
I18
sg64
I0
sg65
I-18000
sg66
Nsg67
I00
sg68
Nsg69
I00
sg70
I00
sg71
V9D582E
p404
sg73
I00
sg74
I00
sg75
Vhttp://abs.twimg.com/images/themes/theme8/bg.gif
p405
sg77
VLincolnFairOaks
p406
sg79
I0
sg80
VLincoln at Fair Oaks
p407
sg82
VEADEAA
p408
sg84
Vhttp://t.co/4CKDqL5l
p409
sg86
I78684765
sg87
V8B542B
p410
sbsg89
I0
sg90
V<a href="http://www.facebook.com/twitter" rel="nofollow">Facebook</a>
p411
sg92
(lp412
g3
(g94
g5
Ntp413
Rp414
(dp415
g98
Vhttp://t.co/d0BQ6aVAX0
p416
sg100
Vhttp://fb.me/1smHjvsJq
p417
sbasg86
I541320515269705728
sbag3
(g4
g5
Ntp418
Rp419
(dp420
g9
I0
sg10
Nsg11
Nsg12
(lp421
sg14
I00
sg15
Nsg16
Nsg17
(lp422
sg19
Nsg20
Nsg21
Nsg22
VSat Dec 06 19:06:01 +0000 2014
p423
sg24
Nsg25
I00
sg26
Nsg27
Nsg28
Nsg29
Nsg30
I00
sg31
Nsg32
(lp424
sg34
Nsg35
V541307591943786496
p425
sg37
Nsg38
VDecember is full of festivities here at LFO!  Next up...Cookie Exchange w/gift wrapping station!\u000a\u000aJoin us... http://t.co/DGgG5AAJI6
p426
sg40
I00
sg41
Ven
p427
sg43
g3
(g44
g5
Ntp428
Rp429
(dp430
g10
VFairfax, VA
p431
sg49
V333333
p432
sg51
Ven
p433
sg53
VEastern Time (US & Canada)
p434
sg55
I57
sg56
I1523
sg22
VWed Sep 30 19:16:14 +0000 2009
p435
sg58
I00
sg59
VSearching for an apartment? Come to Lincoln at Fair Oaks and enjoy the best apartments in Fairfax, VA. Call to schedule a tour today: 877-794-7557
p436
sg61
Vhttps://pbs.twimg.com/profile_images/378800000797553869/35787be4f391807063b0bda0fe7bd83f_normal.png
p437
sg63
I18
sg64
I0
sg65
I-18000
sg66
Nsg67
I00
sg68
Nsg69
I00
sg70
I00
sg71
V9D582E
p438
sg73
I00
sg74
I00
sg75
Vhttp://abs.twimg.com/images/themes/theme8/bg.gif
p439
sg77
VLincolnFairOaks
p440
sg79
I0
sg80
VLincoln at Fair Oaks
p441
sg82
VEADEAA
p442
sg84
Vhttp://t.co/4CKDqL5l
p443
sg86
I78684765
sg87
V8B542B
p444
sbsg89
I0
sg90
V<a href="http://www.facebook.com/twitter" rel="nofollow">Facebook</a>
p445
sg92
(lp446
g3
(g94
g5
Ntp447
Rp448
(dp449
g98
Vhttp://t.co/DGgG5AAJI6
p450
sg100
Vhttp://fb.me/6VtfgijCO
p451
sbasg86
I541307591943786496
sbag3
(g4
g5
Ntp452
Rp453
(dp454
g9
I0
sg10
Nsg11
Nsg12
(lp455
sg14
I00
sg15
Nsg16
Nsg17
(lp456
sg19
Nsg20
Nsg21
Nsg22
VSat Dec 06 17:15:02 +0000 2014
p457
sg24
Nsg25
I00
sg26
Nsg27
Nsg28
Nsg29
Nsg30
I00
sg31
Nsg32
(lp458
g3
(g44
g5
Ntp459
Rp460
(dp461
g10
Nsg49
Nsg51
Nsg53
Nsg55
Nsg56
Nsg22
Nsg58
Nsg59
Nsg61
Nsg63
Nsg64
Nsg65
Nsg66
Nsg67
Nsg68
Nsg69
Nsg70
Nsg71
Nsg73
Nsg74
Nsg75
Nsg77
V7
p462
sg79
Nsg80
V\u30b8\u30a7\u30a4\u30af
p463
sg82
Nsg84
Nsg86
I255226431
sg87
Nsbasg34
Nsg35
V541279662115405826
p464
sg37
Nsg38
VA Celtic Christmas with Sior-Og and Friends is tonight @7:30 pm at the Sherwood Community Center.  http://t.co/uQ2Rt58g0G
p465
sg40
I00
sg41
Ven
p466
sg43
g3
(g44
g5
Ntp467
Rp468
(dp469
g10
VFairfax, VA
p470
sg49
V333333
p471
sg51
Ven
p472
sg53
VEastern Time (US & Canada)
p473
sg55
I57
sg56
I1523
sg22
VWed Sep 30 19:16:14 +0000 2009
p474
sg58
I00
sg59
VSearching for an apartment? Come to Lincoln at Fair Oaks and enjoy the best apartments in Fairfax, VA. Call to schedule a tour today: 877-794-7557
p475
sg61
Vhttps://pbs.twimg.com/profile_images/378800000797553869/35787be4f391807063b0bda0fe7bd83f_normal.png
p476
sg63
I18
sg64
I0
sg65
I-18000
sg66
Nsg67
I00
sg68
Nsg69
I00
sg70
I00
sg71
V9D582E
p477
sg73
I00
sg74
I00
sg75
Vhttp://abs.twimg.com/images/themes/theme8/bg.gif
p478
sg77
VLincolnFairOaks
p479
sg79
I0
sg80
VLincoln at Fair Oaks
p480
sg82
VEADEAA
p481
sg84
Vhttp://t.co/4CKDqL5l
p482
sg86
I78684765
sg87
V8B542B
p483
sbsg89
I0
sg90
V<a href="http://www.facebook.com/twitter" rel="nofollow">Facebook</a>
p484
sg92
(lp485
g3
(g94
g5
Ntp486
Rp487
(dp488
g98
Vhttp://t.co/uQ2Rt58g0G
p489
sg100
Vhttp://bit.ly/1w5U23A
p490
sbasg86
I541279662115405826
sbag3
(g4
g5
Ntp491
Rp492
(dp493
g9
I0
sg10
Nsg11
Nsg12
(lp494
sg14
I00
sg15
Nsg16
Nsg17
(lp495
sg19
Nsg20
Nsg21
Nsg22
VSat Dec 06 14:00:02 +0000 2014
p496
sg24
Nsg25
I00
sg26
Nsg27
Nsg28
Nsg29
Nsg30
I00
sg31
Nsg32
(lp497
sg34
Nsg35
V541230590368817152
p498
sg37
Nsg38
VBrunch is ready! Come by the office for breakfast! We will be serving until 11! http://t.co/c4obRSMTwj
p499
sg40
I00
sg41
Ven
p500
sg43
g3
(g44
g5
Ntp501
Rp502
(dp503
g10
VFairfax, VA
p504
sg49
V333333
p505
sg51
Ven
p506
sg53
VEastern Time (US & Canada)
p507
sg55
I57
sg56
I1523
sg22
VWed Sep 30 19:16:14 +0000 2009
p508
sg58
I00
sg59
VSearching for an apartment? Come to Lincoln at Fair Oaks and enjoy the best apartments in Fairfax, VA. Call to schedule a tour today: 877-794-7557
p509
sg61
Vhttps://pbs.twimg.com/profile_images/378800000797553869/35787be4f391807063b0bda0fe7bd83f_normal.png
p510
sg63
I18
sg64
I0
sg65
I-18000
sg66
Nsg67
I00
sg68
Nsg69
I00
sg70
I00
sg71
V9D582E
p511
sg73
I00
sg74
I00
sg75
Vhttp://abs.twimg.com/images/themes/theme8/bg.gif
p512
sg77
VLincolnFairOaks
p513
sg79
I0
sg80
VLincoln at Fair Oaks
p514
sg82
VEADEAA
p515
sg84
Vhttp://t.co/4CKDqL5l
p516
sg86
I78684765
sg87
V8B542B
p517
sbsg89
I0
sg90
V<a href="http://www.facebook.com/twitter" rel="nofollow">Facebook</a>
p518
sg92
(lp519
g3
(g94
g5
Ntp520
Rp521
(dp522
g98
Vhttp://t.co/c4obRSMTwj
p523
sg100
Vhttp://fb.me/70863m9NZ
p524
sbasg86
I541230590368817152
sbag3
(g4
g5
Ntp525
Rp526
(dp527
g9
I0
sg10
Nsg11
Nsg12
(lp528
sg14
I00
sg15
Nsg16
Nsg17
(lp529
sg19
Nsg20
Nsg21
Nsg22
VFri Dec 05 20:33:45 +0000 2014
p530
sg24
Nsg25
I00
sg26
Nsg27
Nsg28
Nsg29
Nsg30
I00
sg31
Nsg32
(lp531
g3
(g44
g5
Ntp532
Rp533
(dp534
g10
Nsg49
Nsg51
Nsg53
Nsg55
Nsg56
Nsg22
Nsg58
Nsg59
Nsg61
Nsg63
Nsg64
Nsg65
Nsg66
Nsg67
Nsg68
Nsg69
Nsg70
Nsg71
Nsg73
Nsg74
Nsg75
Nsg77
V11
p535
sg79
Nsg80
VStephen
p536
sg82
Nsg84
Nsg86
I663993
sg87
Nsbasg34
Nsg35
V540967283183476736
p537
sg37
Nsg38
VThe Fairfax Festival of Lights and Carols starts tomorrow @11 am with a Lunch with Santa. Click here for a... http://t.co/fJrkDZLeLJ
p538
sg40
I00
sg41
Ven
p539
sg43
g3
(g44
g5
Ntp540
Rp541
(dp542
g10
VFairfax, VA
p543
sg49
V333333
p544
sg51
Ven
p545
sg53
VEastern Time (US & Canada)
p546
sg55
I57
sg56
I1523
sg22
VWed Sep 30 19:16:14 +0000 2009
p547
sg58
I00
sg59
VSearching for an apartment? Come to Lincoln at Fair Oaks and enjoy the best apartments in Fairfax, VA. Call to schedule a tour today: 877-794-7557
p548
sg61
Vhttps://pbs.twimg.com/profile_images/378800000797553869/35787be4f391807063b0bda0fe7bd83f_normal.png
p549
sg63
I18
sg64
I0
sg65
I-18000
sg66
Nsg67
I00
sg68
Nsg69
I00
sg70
I00
sg71
V9D582E
p550
sg73
I00
sg74
I00
sg75
Vhttp://abs.twimg.com/images/themes/theme8/bg.gif
p551
sg77
VLincolnFairOaks
p552
sg79
I0
sg80
VLincoln at Fair Oaks
p553
sg82
VEADEAA
p554
sg84
Vhttp://t.co/4CKDqL5l
p555
sg86
I78684765
sg87
V8B542B
p556
sbsg89
I0
sg90
V<a href="http://www.facebook.com/twitter" rel="nofollow">Facebook</a>
p557
sg92
(lp558
g3
(g94
g5
Ntp559
Rp560
(dp561
g98
Vhttp://t.co/fJrkDZLeLJ
p562
sg100
Vhttp://fb.me/3i9mJrtaH
p563
sbasg86
I540967283183476736
sbag3
(g4
g5
Ntp564
Rp565
(dp566
g9
I0
sg10
Nsg11
Nsg12
(lp567
sg14
I00
sg15
Nsg16
Nsg17
(lp568
sg19
Nsg20
Nsg21
Nsg22
VFri Dec 05 20:29:45 +0000 2014
p569
sg24
Nsg25
I00
sg26
Nsg27
Nsg28
Nsg29
Nsg30
I00
sg31
Nsg32
(lp570
g3
(g44
g5
Ntp571
Rp572
(dp573
g10
Nsg49
Nsg51
Nsg53
Nsg55
Nsg56
Nsg22
Nsg58
Nsg59
Nsg61
Nsg63
Nsg64
Nsg65
Nsg66
Nsg67
Nsg68
Nsg69
Nsg70
Nsg71
Nsg73
Nsg74
Nsg75
Nsg77
V2014
p574
sg79
Nsg80
V2014
p575
sg82
Nsg84
Nsg86
I371740603
sg87
Nsbasg34
Nsg35
V540966277984972801
p576
sg37
Nsg38
VThe City of Fairfax Police Department will be collecting unused toys for the @2014 Santa's Ride until Dec. 15th!... http://t.co/4haGnHQVtL
p577
sg40
I00
sg41
Ven
p578
sg43
g3
(g44
g5
Ntp579
Rp580
(dp581
g10
VFairfax, VA
p582
sg49
V333333
p583
sg51
Ven
p584
sg53
VEastern Time (US & Canada)
p585
sg55
I57
sg56
I1523
sg22
VWed Sep 30 19:16:14 +0000 2009
p586
sg58
I00
sg59
VSearching for an apartment? Come to Lincoln at Fair Oaks and enjoy the best apartments in Fairfax, VA. Call to schedule a tour today: 877-794-7557
p587
sg61
Vhttps://pbs.twimg.com/profile_images/378800000797553869/35787be4f391807063b0bda0fe7bd83f_normal.png
p588
sg63
I18
sg64
I0
sg65
I-18000
sg66
Nsg67
I00
sg68
Nsg69
I00
sg70
I00
sg71
V9D582E
p589
sg73
I00
sg74
I00
sg75
Vhttp://abs.twimg.com/images/themes/theme8/bg.gif
p590
sg77
VLincolnFairOaks
p591
sg79
I0
sg80
VLincoln at Fair Oaks
p592
sg82
VEADEAA
p593
sg84
Vhttp://t.co/4CKDqL5l
p594
sg86
I78684765
sg87
V8B542B
p595
sbsg89
I0
sg90
V<a href="http://www.facebook.com/twitter" rel="nofollow">Facebook</a>
p596
sg92
(lp597
g3
(g94
g5
Ntp598
Rp599
(dp600
g98
Vhttp://t.co/4haGnHQVtL
p601
sg100
Vhttp://fb.me/7ZCvpfWUf
p602
sbasg86
I540966277984972801
sbag3
(g4
g5
Ntp603
Rp604
(dp605
g9
I0
sg10
Nsg11
Nsg12
(lp606
sg14
I00
sg15
Nsg16
Nsg17
(lp607
sg19
Nsg20
Nsg21
Nsg22
VFri Dec 05 19:36:16 +0000 2014
p608
sg24
Nsg25
I00
sg26
Nsg27
Nsg28
Nsg29
Nsg30
I00
sg31
Nsg32
(lp609
sg34
Nsg35
V540952815485845504
p610
sg37
Nsg38
VStop by the office on tomorrow December 6th from 9am-11am to enjoy brunch with your neighbors!  We will have a... http://t.co/NciQ3BqC1M
p611
sg40
I00
sg41
Ven
p612
sg43
g3
(g44
g5
Ntp613
Rp614
(dp615
g10
VFairfax, VA
p616
sg49
V333333
p617
sg51
Ven
p618
sg53
VEastern Time (US & Canada)
p619
sg55
I57
sg56
I1523
sg22
VWed Sep 30 19:16:14 +0000 2009
p620
sg58
I00
sg59
VSearching for an apartment? Come to Lincoln at Fair Oaks and enjoy the best apartments in Fairfax, VA. Call to schedule a tour today: 877-794-7557
p621
sg61
Vhttps://pbs.twimg.com/profile_images/378800000797553869/35787be4f391807063b0bda0fe7bd83f_normal.png
p622
sg63
I18
sg64
I0
sg65
I-18000
sg66
Nsg67
I00
sg68
Nsg69
I00
sg70
I00
sg71
V9D582E
p623
sg73
I00
sg74
I00
sg75
Vhttp://abs.twimg.com/images/themes/theme8/bg.gif
p624
sg77
VLincolnFairOaks
p625
sg79
I0
sg80
VLincoln at Fair Oaks
p626
sg82
VEADEAA
p627
sg84
Vhttp://t.co/4CKDqL5l
p628
sg86
I78684765
sg87
V8B542B
p629
sbsg89
I0
sg90
V<a href="http://www.facebook.com/twitter" rel="nofollow">Facebook</a>
p630
sg92
(lp631
g3
(g94
g5
Ntp632
Rp633
(dp634
g98
Vhttp://t.co/NciQ3BqC1M
p635
sg100
Vhttp://fb.me/3xBUZHU1c
p636
sbasg86
I540952815485845504
sbag3
(g4
g5
Ntp637
Rp638
(dp639
g9
I0
sg10
Nsg11
Nsg12
(lp640
sg14
I00
sg15
Nsg16
Nsg17
(lp641
sg19
Nsg20
Nsg21
Nsg22
VFri Dec 05 14:43:39 +0000 2014
p642
sg24
Nsg25
I00
sg26
Nsg27
Nsg28
Nsg29
Nsg30
I00
sg31
Nsg32
(lp643
sg34
Nsg35
V540879175947915264
p644
sg37
Nsg38
VThe Beauty of Autumn in Northern Virginia http://t.co/Oxygzkx9eM
p645
sg40
I00
sg41
Ven
p646
sg43
g3
(g44
g5
Ntp647
Rp648
(dp649
g10
VFairfax, VA
p650
sg49
V333333
p651
sg51
Ven
p652
sg53
VEastern Time (US & Canada)
p653
sg55
I57
sg56
I1523
sg22
VWed Sep 30 19:16:14 +0000 2009
p654
sg58
I00
sg59
VSearching for an apartment? Come to Lincoln at Fair Oaks and enjoy the best apartments in Fairfax, VA. Call to schedule a tour today: 877-794-7557
p655
sg61
Vhttps://pbs.twimg.com/profile_images/378800000797553869/35787be4f391807063b0bda0fe7bd83f_normal.png
p656
sg63
I18
sg64
I0
sg65
I-18000
sg66
Nsg67
I00
sg68
Nsg69
I00
sg70
I00
sg71
V9D582E
p657
sg73
I00
sg74
I00
sg75
Vhttp://abs.twimg.com/images/themes/theme8/bg.gif
p658
sg77
VLincolnFairOaks
p659
sg79
I0
sg80
VLincoln at Fair Oaks
p660
sg82
VEADEAA
p661
sg84
Vhttp://t.co/4CKDqL5l
p662
sg86
I78684765
sg87
V8B542B
p663
sbsg89
I0
sg90
V<a href="http://www.facebook.com/twitter" rel="nofollow">Facebook</a>
p664
sg92
(lp665
g3
(g94
g5
Ntp666
Rp667
(dp668
g98
Vhttp://t.co/Oxygzkx9eM
p669
sg100
Vhttp://fb.me/1KsF1MQ1B
p670
sbasg86
I540879175947915264
sbag3
(g4
g5
Ntp671
Rp672
(dp673
g9
I0
sg10
Nsg11
Nsg12
(lp674
sg14
I00
sg15
Nsg16
Nsg17
(lp675
sg19
Nsg20
Nsg21
Nsg22
VThu Dec 04 20:55:01 +0000 2014
p676
sg24
Nsg25
I00
sg26
Nsg27
Nsg28
Nsg29
Nsg30
I00
sg31
Nsg32
(lp677
sg34
Nsg35
V540610246473814017
p678
sg37
Nsg38
VToys For Tots Needs Your Help!  Help us give back to our community!  \u000a\u000aWe are even going to enter your name in a... http://t.co/9V4DropcKe
p679
sg40
I00
sg41
Ven
p680
sg43
g3
(g44
g5
Ntp681
Rp682
(dp683
g10
VFairfax, VA
p684
sg49
V333333
p685
sg51
Ven
p686
sg53
VEastern Time (US & Canada)
p687
sg55
I57
sg56
I1523
sg22
VWed Sep 30 19:16:14 +0000 2009
p688
sg58
I00
sg59
VSearching for an apartment? Come to Lincoln at Fair Oaks and enjoy the best apartments in Fairfax, VA. Call to schedule a tour today: 877-794-7557
p689
sg61
Vhttps://pbs.twimg.com/profile_images/378800000797553869/35787be4f391807063b0bda0fe7bd83f_normal.png
p690
sg63
I18
sg64
I0
sg65
I-18000
sg66
Nsg67
I00
sg68
Nsg69
I00
sg70
I00
sg71
V9D582E
p691
sg73
I00
sg74
I00
sg75
Vhttp://abs.twimg.com/images/themes/theme8/bg.gif
p692
sg77
VLincolnFairOaks
p693
sg79
I0
sg80
VLincoln at Fair Oaks
p694
sg82
VEADEAA
p695
sg84
Vhttp://t.co/4CKDqL5l
p696
sg86
I78684765
sg87
V8B542B
p697
sbsg89
I0
sg90
V<a href="http://www.facebook.com/twitter" rel="nofollow">Facebook</a>
p698
sg92
(lp699
g3
(g94
g5
Ntp700
Rp701
(dp702
g98
Vhttp://t.co/9V4DropcKe
p703
sg100
Vhttp://fb.me/3pAkZ4PIy
p704
sbasg86
I540610246473814017
sbag3
(g4
g5
Ntp705
Rp706
(dp707
g9
I0
sg10
Nsg11
Nsg12
(lp708
g3
(ctwitter
Hashtag
p709
g5
Ntp710
Rp711
(dp712
S'text'
p713
VLFO
p714
sbag3
(g709
g5
Ntp715
Rp716
(dp717
g713
Vtree
p718
sbasg14
I00
sg15
Nsg16
Nsg17
(lp719
sg19
Nsg20
Nsg21
Nsg22
VWed Dec 03 22:35:53 +0000 2014
p720
sg24
Nsg25
I00
sg26
Nsg27
Nsg28
Nsg29
Nsg30
I00
sg31
Nsg32
(lp721
sg34
Nsg35
V540273242779684864
p722
sg37
Nsg38
VThe holiday season is here at the Lincoln at Fair Oaks.  #LFO  #tree http://t.co/kldNgXkFnZ
p723
sg40
I00
sg41
Ven
p724
sg43
g3
(g44
g5
Ntp725
Rp726
(dp727
g10
VFairfax, VA
p728
sg49
V333333
p729
sg51
Ven
p730
sg53
VEastern Time (US & Canada)
p731
sg55
I57
sg56
I1523
sg22
VWed Sep 30 19:16:14 +0000 2009
p732
sg58
I00
sg59
VSearching for an apartment? Come to Lincoln at Fair Oaks and enjoy the best apartments in Fairfax, VA. Call to schedule a tour today: 877-794-7557
p733
sg61
Vhttps://pbs.twimg.com/profile_images/378800000797553869/35787be4f391807063b0bda0fe7bd83f_normal.png
p734
sg63
I18
sg64
I0
sg65
I-18000
sg66
Nsg67
I00
sg68
Nsg69
I00
sg70
I00
sg71
V9D582E
p735
sg73
I00
sg74
I00
sg75
Vhttp://abs.twimg.com/images/themes/theme8/bg.gif
p736
sg77
VLincolnFairOaks
p737
sg79
I0
sg80
VLincoln at Fair Oaks
p738
sg82
VEADEAA
p739
sg84
Vhttp://t.co/4CKDqL5l
p740
sg86
I78684765
sg87
V8B542B
p741
sbsg89
I0
sg90
V<a href="http://www.facebook.com/twitter" rel="nofollow">Facebook</a>
p742
sg92
(lp743
g3
(g94
g5
Ntp744
Rp745
(dp746
g98
Vhttp://t.co/kldNgXkFnZ
p747
sg100
Vhttp://fb.me/1GHkWYDn7
p748
sbasg86
I540273242779684864
sbag3
(g4
g5
Ntp749
Rp750
(dp751
g9
I0
sg10
Nsg11
Nsg12
(lp752
sg14
I00
sg15
Nsg16
Nsg17
(lp753
sg19
Nsg20
Nsg21
Nsg22
VWed Dec 03 13:51:41 +0000 2014
p754
sg24
Nsg25
I00
sg26
Nsg27
Nsg28
Nsg29
Nsg30
I00
sg31
Nsg32
(lp755
sg34
Nsg35
V540141325371584512
p756
sg37
Nsg38
VWe are down to one left!  \u000a\u000aPick up little Ronny from our Angel Tree Program, if you cannot, you can also help by... http://t.co/l9zsSodqxM
p757
sg40
I00
sg41
Ven
p758
sg43
g3
(g44
g5
Ntp759
Rp760
(dp761
g10
VFairfax, VA
p762
sg49
V333333
p763
sg51
Ven
p764
sg53
VEastern Time (US & Canada)
p765
sg55
I57
sg56
I1523
sg22
VWed Sep 30 19:16:14 +0000 2009
p766
sg58
I00
sg59
VSearching for an apartment? Come to Lincoln at Fair Oaks and enjoy the best apartments in Fairfax, VA. Call to schedule a tour today: 877-794-7557
p767
sg61
Vhttps://pbs.twimg.com/profile_images/378800000797553869/35787be4f391807063b0bda0fe7bd83f_normal.png
p768
sg63
I18
sg64
I0
sg65
I-18000
sg66
Nsg67
I00
sg68
Nsg69
I00
sg70
I00
sg71
V9D582E
p769
sg73
I00
sg74
I00
sg75
Vhttp://abs.twimg.com/images/themes/theme8/bg.gif
p770
sg77
VLincolnFairOaks
p771
sg79
I0
sg80
VLincoln at Fair Oaks
p772
sg82
VEADEAA
p773
sg84
Vhttp://t.co/4CKDqL5l
p774
sg86
I78684765
sg87
V8B542B
p775
sbsg89
I0
sg90
V<a href="http://www.facebook.com/twitter" rel="nofollow">Facebook</a>
p776
sg92
(lp777
g3
(g94
g5
Ntp778
Rp779
(dp780
g98
Vhttp://t.co/l9zsSodqxM
p781
sg100
Vhttp://fb.me/47mopfH9K
p782
sbasg86
I540141325371584512
sbaa.