(lp0
S'FrankDixonArmy'
p1
a(lp2
ccopy_reg
_reconstructor
p3
(ctwitter
Status
p4
c__builtin__
object
p5
Ntp6
Rp7
(dp8
S'_favorite_count'
p9
I1
sS'_location'
p10
NsS'_withheld_scope'
p11
NsS'hashtags'
p12
(lp13
sS'_truncated'
p14
I00
sS'_retweeted_status'
p15
NsS'_withheld_copyright'
p16
NsS'media'
p17
(lp18
sS'_place'
p19
NsS'_contributors'
p20
NsS'_current_user_retweet'
p21
NsS'_created_at'
p22
VSun Dec 14 07:36:27 +0000 2014
p23
sS'_scopes'
p24
NsS'_possibly_sensitive'
p25
NsS'_in_reply_to_screen_name'
p26
NsS'_coordinates'
p27
NsS'_in_reply_to_user_id'
p28
NsS'_geo'
p29
NsS'_favorited'
p30
I00
sS'_withheld_in_countries'
p31
NsS'user_mentions'
p32
(lp33
g3
(ctwitter
User
p34
g5
Ntp35
Rp36
(dp37
g10
NsS'_profile_text_color'
p38
NsS'_lang'
p39
NsS'_time_zone'
p40
NsS'_followers_count'
p41
NsS'_statuses_count'
p42
Nsg22
NsS'_verified'
p43
NsS'_description'
p44
NsS'_profile_image_url'
p45
NsS'_friends_count'
p46
NsS'_favourites_count'
p47
NsS'_utc_offset'
p48
NsS'_status'
p49
NsS'_protected'
p50
NsS'_profile_banner_url'
p51
NsS'_notifications'
p52
NsS'_profile_background_tile'
p53
NsS'_profile_link_color'
p54
NsS'_geo_enabled'
p55
NsS'_contributors_enabled'
p56
NsS'_profile_background_image_url'
p57
NsS'_screen_name'
p58
VFrankDixon12
p59
sS'_listed_count'
p60
NsS'_name'
p61
VFrank Dixon Official
p62
sS'_profile_sidebar_fill_color'
p63
NsS'_url'
p64
NsS'_id'
p65
I314882004
sS'_profile_background_color'
p66
NsbasS'_now'
p67
NsS'_id_str'
p68
V544033160460124160
p69
sS'_in_reply_to_status_id'
p70
NsS'_text'
p71
VHope you had a great time at your Bottle release party! @FrankDixon12
p72
sS'_retweeted'
p73
I00
sS'lang'
p74
Ven
p75
sS'_user'
p76
g3
(g34
g5
Ntp77
Rp78
(dp79
g10
V
p80
sg38
V333333
p81
sg39
Ven
p82
sg40
VSingapore
p83
sg41
I2647
sg42
I1589
sg22
VFri Jan 20 10:57:30 +0000 2012
p84
sg43
I00
sg44
VFirst & official Frank Dixon Army! Get Frank's latest single #Bottle & others here: https://t.co/kZvZWKDjEy
p85
sg45
Vhttps://pbs.twimg.com/profile_images/477795178325872642/cODvsz7J_normal.jpeg
p86
sg46
I26
sg47
I120
sg48
I28800
sg49
Nsg50
I00
sg51
Vhttps://pbs.twimg.com/profile_banners/469218677/1418124243
p87
sg52
I00
sg53
I01
sg54
V00AEFF
p88
sg55
I01
sg56
I00
sg57
Vhttp://pbs.twimg.com/profile_background_images/438631509470093314/RwMK2-w8.png
p89
sg58
VFrankDixonArmy
p90
sg60
I4
sg61
VFrank Dixon Army
p91
sg63
VDDEEF6
p92
sg64
Vhttp://t.co/OzyWVW94tY
p93
sg65
I469218677
sg66
VFFFFFF
p94
sbsS'_retweet_count'
p95
I0
sS'_source'
p96
V<a href="http://twitter.com/download/iphone" rel="nofollow">Twitter for iPhone</a>
p97
sS'urls'
p98
(lp99
sg65
I544033160460124160
sbag3
(g4
g5
Ntp100
Rp101
(dp102
g9
I0
sg10
Nsg11
Nsg12
(lp103
sg14
I00
sg15
Nsg16
Nsg17
(lp104
sg19
Nsg20
Nsg21
Nsg22
VFri Dec 12 15:13:42 +0000 2014
p105
sg24
Nsg25
Nsg26
VFrankDixon12
p106
sg27
Nsg28
I314882004
sg29
Nsg30
I00
sg31
Nsg32
(lp107
g3
(g34
g5
Ntp108
Rp109
(dp110
g10
Nsg38
Nsg39
Nsg40
Nsg41
Nsg42
Nsg22
Nsg43
Nsg44
Nsg45
Nsg46
Nsg47
Nsg48
Nsg49
Nsg50
Nsg51
Nsg52
Nsg53
Nsg54
Nsg55
Nsg56
Nsg57
Nsg58
VFrankDixon12
p111
sg60
Nsg61
VFrank Dixon Official
p112
sg63
Nsg64
Nsg65
I314882004
sg66
Nsbasg67
Nsg68
V543423454758719488
p113
sg70
I543312397776060416
sg71
V@FrankDixon12 Haha, I'm the typical type of boring. I either sleep or use my phone. \U0001f602
p114
sg73
I00
sg74
Ven
p115
sg76
g3
(g34
g5
Ntp116
Rp117
(dp118
g10
g80
sg38
V333333
p119
sg39
Ven
p120
sg40
VSingapore
p121
sg41
I2647
sg42
I1589
sg22
VFri Jan 20 10:57:30 +0000 2012
p122
sg43
I00
sg44
VFirst & official Frank Dixon Army! Get Frank's latest single #Bottle & others here: https://t.co/kZvZWKDjEy
p123
sg45
Vhttps://pbs.twimg.com/profile_images/477795178325872642/cODvsz7J_normal.jpeg
p124
sg46
I26
sg47
I120
sg48
I28800
sg49
Nsg50
I00
sg51
Vhttps://pbs.twimg.com/profile_banners/469218677/1418124243
p125
sg52
I00
sg53
I01
sg54
V00AEFF
p126
sg55
I01
sg56
I00
sg57
Vhttp://pbs.twimg.com/profile_background_images/438631509470093314/RwMK2-w8.png
p127
sg58
VFrankDixonArmy
p128
sg60
I4
sg61
VFrank Dixon Army
p129
sg63
VDDEEF6
p130
sg64
Vhttp://t.co/OzyWVW94tY
p131
sg65
I469218677
sg66
VFFFFFF
p132
sbsg95
I0
sg96
V<a href="http://twitter.com/download/iphone" rel="nofollow">Twitter for iPhone</a>
p133
sg98
(lp134
sg65
I543423454758719488
sbag3
(g4
g5
Ntp135
Rp136
(dp137
g9
I0
sg10
Nsg11
Nsg12
(lp138
g3
(ctwitter
Hashtag
p139
g5
Ntp140
Rp141
(dp142
S'text'
p143
Vnormalsboring
p144
sbasg14
I00
sg15
g3
(g4
g5
Ntp145
Rp146
(dp147
g9
I3
sg10
Nsg11
Nsg12
(lp148
g3
(g139
g5
Ntp149
Rp150
(dp151
g143
Vnormalsboring
p152
sbasg14
I00
sg15
Nsg16
Nsg17
(lp153
sg19
Nsg20
Nsg21
Nsg22
VFri Dec 12 07:52:24 +0000 2014
p154
sg24
Nsg25
Nsg26
Nsg27
Nsg28
Nsg29
Nsg30
I00
sg31
Nsg32
(lp155
sg67
Nsg68
V543312397776060416
p156
sg70
Nsg71
VWhen I'm travelling home by self, I tend to put my earphones in and time the music exactly to what's happening around me.. #normalsboring :3
p157
sg73
I00
sg74
Ven
p158
sg76
g3
(g34
g5
Ntp159
Rp160
(dp161
g10
VMelbourne, Australia
p162
sg38
V157567
p163
sg39
Ven
p164
sg40
VMelbourne
p165
sg41
I39544
sg42
I12005
sg22
VFri Jun 10 23:43:30 +0000 2011
p166
sg43
I00
sg44
VSinger & Songwriter & Actor -                        \u000aIt's just about the music! \u000ahttp://t.co/s6PAoQBY7u
p167
sg45
Vhttps://pbs.twimg.com/profile_images/542098912819937280/9a0PdW5B_normal.jpeg
p168
sg46
I41715
sg47
I2784
sg48
I39600
sg49
Nsg50
I00
sg51
Vhttps://pbs.twimg.com/profile_banners/314882004/1414544817
p169
sg52
I00
sg53
I01
sg54
V263376
p170
sg55
I01
sg56
I00
sg57
Vhttp://pbs.twimg.com/profile_background_images/378800000010840154/c0cc053a05312548c21aee6b4c99fb03.jpeg
p171
sg58
VFrankDixon12
p172
sg60
I77
sg61
VFrank Dixon Official
p173
sg63
VC6EE7E
p174
sg64
Vhttps://t.co/t17c9UIsY6
p175
sg65
I314882004
sg66
V1F9452
p176
sbsg95
I3
sg96
V<a href="http://twitter.com/download/iphone" rel="nofollow">Twitter for iPhone</a>
p177
sg98
(lp178
sg65
I543312397776060416
sbsg16
Nsg17
(lp179
sg19
Nsg20
Nsg21
Nsg22
VFri Dec 12 15:12:17 +0000 2014
p180
sg24
Nsg25
Nsg26
Nsg27
Nsg28
Nsg29
Nsg30
I00
sg31
Nsg32
(lp181
g3
(g34
g5
Ntp182
Rp183
(dp184
g10
Nsg38
Nsg39
Nsg40
Nsg41
Nsg42
Nsg22
Nsg43
Nsg44
Nsg45
Nsg46
Nsg47
Nsg48
Nsg49
Nsg50
Nsg51
Nsg52
Nsg53
Nsg54
Nsg55
Nsg56
Nsg57
Nsg58
VFrankDixon12
p185
sg60
Nsg61
VFrank Dixon Official
p186
sg63
Nsg64
Nsg65
I314882004
sg66
Nsbasg67
Nsg68
V543423099308236800
p187
sg70
Nsg71
VRT @FrankDixon12: When I'm travelling home by self, I tend to put my earphones in and time the music exactly to what's happening around me.\u2026
p188
sg73
I00
sg74
Ven
p189
sg76
g3
(g34
g5
Ntp190
Rp191
(dp192
g10
g80
sg38
V333333
p193
sg39
Ven
p194
sg40
VSingapore
p195
sg41
I2647
sg42
I1589
sg22
VFri Jan 20 10:57:30 +0000 2012
p196
sg43
I00
sg44
VFirst & official Frank Dixon Army! Get Frank's latest single #Bottle & others here: https://t.co/kZvZWKDjEy
p197
sg45
Vhttps://pbs.twimg.com/profile_images/477795178325872642/cODvsz7J_normal.jpeg
p198
sg46
I26
sg47
I120
sg48
I28800
sg49
Nsg50
I00
sg51
Vhttps://pbs.twimg.com/profile_banners/469218677/1418124243
p199
sg52
I00
sg53
I01
sg54
V00AEFF
p200
sg55
I01
sg56
I00
sg57
Vhttp://pbs.twimg.com/profile_background_images/438631509470093314/RwMK2-w8.png
p201
sg58
VFrankDixonArmy
p202
sg60
I4
sg61
VFrank Dixon Army
p203
sg63
VDDEEF6
p204
sg64
Vhttp://t.co/OzyWVW94tY
p205
sg65
I469218677
sg66
VFFFFFF
p206
sbsg95
I3
sg96
V<a href="http://twitter.com/download/iphone" rel="nofollow">Twitter for iPhone</a>
p207
sg98
(lp208
sg65
I543423099308236800
sbag3
(g4
g5
Ntp209
Rp210
(dp211
g9
I0
sg10
Nsg11
Nsg12
(lp212
sg14
I00
sg15
Nsg16
Nsg17
(lp213
sg19
Nsg20
Nsg21
Nsg22
VThu Dec 11 12:03:28 +0000 2014
p214
sg24
Nsg25
Nsg26
VFrankDixon12
p215
sg27
Nsg28
I314882004
sg29
Nsg30
I00
sg31
Nsg32
(lp216
g3
(g34
g5
Ntp217
Rp218
(dp219
g10
Nsg38
Nsg39
Nsg40
Nsg41
Nsg42
Nsg22
Nsg43
Nsg44
Nsg45
Nsg46
Nsg47
Nsg48
Nsg49
Nsg50
Nsg51
Nsg52
Nsg53
Nsg54
Nsg55
Nsg56
Nsg57
Nsg58
VFrankDixon12
p220
sg60
Nsg61
VFrank Dixon Official
p221
sg63
Nsg64
Nsg65
I314882004
sg66
Nsbasg67
Nsg68
V543013192301957120
p222
sg70
I543003054061010944
sg71
V@FrankDixon12 Haha yay congrats I guess the next trip to the dentist's wouldn't be too soon then! Good to save some $$, its costly. xD
p223
sg73
I00
sg74
Ven
p224
sg76
g3
(g34
g5
Ntp225
Rp226
(dp227
g10
g80
sg38
V333333
p228
sg39
Ven
p229
sg40
VSingapore
p230
sg41
I2647
sg42
I1589
sg22
VFri Jan 20 10:57:30 +0000 2012
p231
sg43
I00
sg44
VFirst & official Frank Dixon Army! Get Frank's latest single #Bottle & others here: https://t.co/kZvZWKDjEy
p232
sg45
Vhttps://pbs.twimg.com/profile_images/477795178325872642/cODvsz7J_normal.jpeg
p233
sg46
I26
sg47
I120
sg48
I28800
sg49
Nsg50
I00
sg51
Vhttps://pbs.twimg.com/profile_banners/469218677/1418124243
p234
sg52
I00
sg53
I01
sg54
V00AEFF
p235
sg55
I01
sg56
I00
sg57
Vhttp://pbs.twimg.com/profile_background_images/438631509470093314/RwMK2-w8.png
p236
sg58
VFrankDixonArmy
p237
sg60
I4
sg61
VFrank Dixon Army
p238
sg63
VDDEEF6
p239
sg64
Vhttp://t.co/OzyWVW94tY
p240
sg65
I469218677
sg66
VFFFFFF
p241
sbsg95
I0
sg96
V<a href="http://twitter.com/download/iphone" rel="nofollow">Twitter for iPhone</a>
p242
sg98
(lp243
sg65
I543013192301957120
sbag3
(g4
g5
Ntp244
Rp245
(dp246
g9
I0
sg10
Nsg11
Nsg12
(lp247
sg14
I00
sg15
Nsg16
Nsg17
(lp248
sg19
Nsg20
Nsg21
Nsg22
VThu Dec 11 03:01:48 +0000 2014
p249
sg24
Nsg25
Nsg26
VFrankDixon12
p250
sg27
Nsg28
I314882004
sg29
Nsg30
I00
sg31
Nsg32
(lp251
g3
(g34
g5
Ntp252
Rp253
(dp254
g10
Nsg38
Nsg39
Nsg40
Nsg41
Nsg42
Nsg22
Nsg43
Nsg44
Nsg45
Nsg46
Nsg47
Nsg48
Nsg49
Nsg50
Nsg51
Nsg52
Nsg53
Nsg54
Nsg55
Nsg56
Nsg57
Nsg58
VFrankDixon12
p255
sg60
Nsg61
VFrank Dixon Official
p256
sg63
Nsg64
Nsg65
I314882004
sg66
Nsbasg67
Nsg68
V542876878868975617
p257
sg70
I542784325574340609
sg71
V@FrankDixon12 Hahaha how was it? Although dentists who use more strength are generally better, i prefer the ones who are gentler:P
p258
sg73
I00
sg74
Ven
p259
sg76
g3
(g34
g5
Ntp260
Rp261
(dp262
g10
g80
sg38
V333333
p263
sg39
Ven
p264
sg40
VSingapore
p265
sg41
I2647
sg42
I1589
sg22
VFri Jan 20 10:57:30 +0000 2012
p266
sg43
I00
sg44
VFirst & official Frank Dixon Army! Get Frank's latest single #Bottle & others here: https://t.co/kZvZWKDjEy
p267
sg45
Vhttps://pbs.twimg.com/profile_images/477795178325872642/cODvsz7J_normal.jpeg
p268
sg46
I26
sg47
I120
sg48
I28800
sg49
Nsg50
I00
sg51
Vhttps://pbs.twimg.com/profile_banners/469218677/1418124243
p269
sg52
I00
sg53
I01
sg54
V00AEFF
p270
sg55
I01
sg56
I00
sg57
Vhttp://pbs.twimg.com/profile_background_images/438631509470093314/RwMK2-w8.png
p271
sg58
VFrankDixonArmy
p272
sg60
I4
sg61
VFrank Dixon Army
p273
sg63
VDDEEF6
p274
sg64
Vhttp://t.co/OzyWVW94tY
p275
sg65
I469218677
sg66
VFFFFFF
p276
sbsg95
I0
sg96
V<a href="http://twitter.com/download/iphone" rel="nofollow">Twitter for iPhone</a>
p277
sg98
(lp278
sg65
I542876878868975617
sbag3
(g4
g5
Ntp279
Rp280
(dp281
g9
I0
sg10
Nsg11
Nsg12
(lp282
sg14
I00
sg15
Nsg16
Nsg17
(lp283
sg19
Nsg20
Nsg21
Nsg22
VThu Dec 11 02:43:18 +0000 2014
p284
sg24
Nsg25
Nsg26
VFrankDixon12
p285
sg27
Nsg28
I314882004
sg29
Nsg30
I00
sg31
Nsg32
(lp286
g3
(g34
g5
Ntp287
Rp288
(dp289
g10
Nsg38
Nsg39
Nsg40
Nsg41
Nsg42
Nsg22
Nsg43
Nsg44
Nsg45
Nsg46
Nsg47
Nsg48
Nsg49
Nsg50
Nsg51
Nsg52
Nsg53
Nsg54
Nsg55
Nsg56
Nsg57
Nsg58
VFrankDixon12
p290
sg60
Nsg61
VFrank Dixon Official
p291
sg63
Nsg64
Nsg65
I314882004
sg66
Nsbasg67
Nsg68
V542872223527088129
p292
sg70
I542784061089918976
sg71
V@FrankDixon12 I know,starts on 22dec,only 2 weeks of holis :( But i've 5months of holidays all together:P What will you be doing for Xmas?:)
p293
sg73
I00
sg74
Ven
p294
sg76
g3
(g34
g5
Ntp295
Rp296
(dp297
g10
g80
sg38
V333333
p298
sg39
Ven
p299
sg40
VSingapore
p300
sg41
I2647
sg42
I1589
sg22
VFri Jan 20 10:57:30 +0000 2012
p301
sg43
I00
sg44
VFirst & official Frank Dixon Army! Get Frank's latest single #Bottle & others here: https://t.co/kZvZWKDjEy
p302
sg45
Vhttps://pbs.twimg.com/profile_images/477795178325872642/cODvsz7J_normal.jpeg
p303
sg46
I26
sg47
I120
sg48
I28800
sg49
Nsg50
I00
sg51
Vhttps://pbs.twimg.com/profile_banners/469218677/1418124243
p304
sg52
I00
sg53
I01
sg54
V00AEFF
p305
sg55
I01
sg56
I00
sg57
Vhttp://pbs.twimg.com/profile_background_images/438631509470093314/RwMK2-w8.png
p306
sg58
VFrankDixonArmy
p307
sg60
I4
sg61
VFrank Dixon Army
p308
sg63
VDDEEF6
p309
sg64
Vhttp://t.co/OzyWVW94tY
p310
sg65
I469218677
sg66
VFFFFFF
p311
sbsg95
I0
sg96
V<a href="http://twitter.com/download/iphone" rel="nofollow">Twitter for iPhone</a>
p312
sg98
(lp313
sg65
I542872223527088129
sbag3
(g4
g5
Ntp314
Rp315
(dp316
g9
I0
sg10
Nsg11
Nsg12
(lp317
g3
(g139
g5
Ntp318
Rp319
(dp320
g143
VHelloWorld
p321
sbasg14
I00
sg15
g3
(g4
g5
Ntp322
Rp323
(dp324
g9
I2
sg10
Nsg11
Nsg12
(lp325
g3
(g139
g5
Ntp326
Rp327
(dp328
g143
VHelloWorld
p329
sbasg14
I00
sg15
Nsg16
Nsg17
(lp330
sg19
Nsg20
Nsg21
Nsg22
VWed Dec 10 04:13:56 +0000 2014
p331
sg24
Nsg25
I00
sg26
Nsg27
Nsg28
Nsg29
Nsg30
I00
sg31
Nsg32
(lp332
sg67
Nsg68
V542532642680233984
p333
sg70
Nsg71
VOh why thank Ms charlottestuart99 for this!!!!! #HelloWorld is coming!!!!! XD http://t.co/BbPnKZ2n0l
p334
sg73
I00
sg74
Ven
p335
sg76
g3
(g34
g5
Ntp336
Rp337
(dp338
g10
VMelbourne, Australia
p339
sg38
V157567
p340
sg39
Ven
p341
sg40
VMelbourne
p342
sg41
I39544
sg42
I12005
sg22
VFri Jun 10 23:43:30 +0000 2011
p343
sg43
I00
sg44
VSinger & Songwriter & Actor -                        \u000aIt's just about the music! \u000ahttp://t.co/s6PAoQBY7u
p344
sg45
Vhttps://pbs.twimg.com/profile_images/542098912819937280/9a0PdW5B_normal.jpeg
p345
sg46
I41715
sg47
I2784
sg48
I39600
sg49
Nsg50
I00
sg51
Vhttps://pbs.twimg.com/profile_banners/314882004/1414544817
p346
sg52
I00
sg53
I01
sg54
V263376
p347
sg55
I01
sg56
I00
sg57
Vhttp://pbs.twimg.com/profile_background_images/378800000010840154/c0cc053a05312548c21aee6b4c99fb03.jpeg
p348
sg58
VFrankDixon12
p349
sg60
I77
sg61
VFrank Dixon Official
p350
sg63
VC6EE7E
p351
sg64
Vhttps://t.co/t17c9UIsY6
p352
sg65
I314882004
sg66
V1F9452
p353
sbsg95
I2
sg96
V<a href="http://instagram.com" rel="nofollow">Instagram</a>
p354
sg98
(lp355
g3
(ctwitter
Url
p356
g5
Ntp357
Rp358
(dp359
S'url'
p360
Vhttp://t.co/BbPnKZ2n0l
p361
sS'expanded_url'
p362
Vhttp://instagram.com/p/waZJXchZls/
p363
sbasg65
I542532642680233984
sbsg16
Nsg17
(lp364
sg19
Nsg20
Nsg21
Nsg22
VWed Dec 10 09:13:18 +0000 2014
p365
sg24
Nsg25
I00
sg26
Nsg27
Nsg28
Nsg29
Nsg30
I00
sg31
Nsg32
(lp366
g3
(g34
g5
Ntp367
Rp368
(dp369
g10
Nsg38
Nsg39
Nsg40
Nsg41
Nsg42
Nsg22
Nsg43
Nsg44
Nsg45
Nsg46
Nsg47
Nsg48
Nsg49
Nsg50
Nsg51
Nsg52
Nsg53
Nsg54
Nsg55
Nsg56
Nsg57
Nsg58
VFrankDixon12
p370
sg60
Nsg61
VFrank Dixon Official
p371
sg63
Nsg64
Nsg65
I314882004
sg66
Nsbasg67
Nsg68
V542607981263589377
p372
sg70
Nsg71
VRT @FrankDixon12: Oh why thank Ms charlottestuart99 for this!!!!! #HelloWorld is coming!!!!! XD http://t.co/BbPnKZ2n0l
p373
sg73
I00
sg74
Ven
p374
sg76
g3
(g34
g5
Ntp375
Rp376
(dp377
g10
g80
sg38
V333333
p378
sg39
Ven
p379
sg40
VSingapore
p380
sg41
I2647
sg42
I1589
sg22
VFri Jan 20 10:57:30 +0000 2012
p381
sg43
I00
sg44
VFirst & official Frank Dixon Army! Get Frank's latest single #Bottle & others here: https://t.co/kZvZWKDjEy
p382
sg45
Vhttps://pbs.twimg.com/profile_images/477795178325872642/cODvsz7J_normal.jpeg
p383
sg46
I26
sg47
I120
sg48
I28800
sg49
Nsg50
I00
sg51
Vhttps://pbs.twimg.com/profile_banners/469218677/1418124243
p384
sg52
I00
sg53
I01
sg54
V00AEFF
p385
sg55
I01
sg56
I00
sg57
Vhttp://pbs.twimg.com/profile_background_images/438631509470093314/RwMK2-w8.png
p386
sg58
VFrankDixonArmy
p387
sg60
I4
sg61
VFrank Dixon Army
p388
sg63
VDDEEF6
p389
sg64
Vhttp://t.co/OzyWVW94tY
p390
sg65
I469218677
sg66
VFFFFFF
p391
sbsg95
I2
sg96
V<a href="http://twitter.com/download/iphone" rel="nofollow">Twitter for iPhone</a>
p392
sg98
(lp393
g3
(g356
g5
Ntp394
Rp395
(dp396
g360
Vhttp://t.co/BbPnKZ2n0l
p397
sg362
Vhttp://instagram.com/p/waZJXchZls/
p398
sbasg65
I542607981263589377
sbag3
(g4
g5
Ntp399
Rp400
(dp401
g9
I0
sg10
Nsg11
Nsg12
(lp402
sg14
I00
sg15
Nsg16
Nsg17
(lp403
sg19
Nsg20
Nsg21
Nsg22
VWed Dec 10 09:13:03 +0000 2014
p404
sg24
Nsg25
Nsg26
VFrankDixon12
p405
sg27
Nsg28
I314882004
sg29
Nsg30
I00
sg31
Nsg32
(lp406
g3
(g34
g5
Ntp407
Rp408
(dp409
g10
Nsg38
Nsg39
Nsg40
Nsg41
Nsg42
Nsg22
Nsg43
Nsg44
Nsg45
Nsg46
Nsg47
Nsg48
Nsg49
Nsg50
Nsg51
Nsg52
Nsg53
Nsg54
Nsg55
Nsg56
Nsg57
Nsg58
VFrankDixon12
p410
sg60
Nsg61
VFrank Dixon Official
p411
sg63
Nsg64
Nsg65
I314882004
sg66
Nsbasg67
Nsg68
V542607916490956800
p412
sg70
I542428944415195136
sg71
V@FrankDixon12 Meanwhile the excitement in me has drained thanks to school.told ya that school would keep me distracted\U0001f606yes you go Frank!\U0001f44d\U0001f4aa
p413
sg73
I00
sg74
Ven
p414
sg76
g3
(g34
g5
Ntp415
Rp416
(dp417
g10
g80
sg38
V333333
p418
sg39
Ven
p419
sg40
VSingapore
p420
sg41
I2647
sg42
I1589
sg22
VFri Jan 20 10:57:30 +0000 2012
p421
sg43
I00
sg44
VFirst & official Frank Dixon Army! Get Frank's latest single #Bottle & others here: https://t.co/kZvZWKDjEy
p422
sg45
Vhttps://pbs.twimg.com/profile_images/477795178325872642/cODvsz7J_normal.jpeg
p423
sg46
I26
sg47
I120
sg48
I28800
sg49
Nsg50
I00
sg51
Vhttps://pbs.twimg.com/profile_banners/469218677/1418124243
p424
sg52
I00
sg53
I01
sg54
V00AEFF
p425
sg55
I01
sg56
I00
sg57
Vhttp://pbs.twimg.com/profile_background_images/438631509470093314/RwMK2-w8.png
p426
sg58
VFrankDixonArmy
p427
sg60
I4
sg61
VFrank Dixon Army
p428
sg63
VDDEEF6
p429
sg64
Vhttp://t.co/OzyWVW94tY
p430
sg65
I469218677
sg66
VFFFFFF
p431
sbsg95
I0
sg96
V<a href="http://twitter.com/download/iphone" rel="nofollow">Twitter for iPhone</a>
p432
sg98
(lp433
sg65
I542607916490956800
sbag3
(g4
g5
Ntp434
Rp435
(dp436
g9
I0
sg10
Nsg11
Nsg12
(lp437
sg14
I00
sg15
Nsg16
Nsg17
(lp438
(dp439
Vexpanded_url
p440
Vhttp://twitter.com/FrankDixonArmy/status/542290618253193216/photo/1
p441
sVdisplay_url
p442
Vpic.twitter.com/kDdNOgEIA7
p443
sVurl
p444
Vhttp://t.co/kDdNOgEIA7
p445
sVmedia_url_https
p446
Vhttps://pbs.twimg.com/media/B4aabgCCAAARwI3.jpg
p447
sVid_str
p448
V542290602390323200
p449
sVsizes
p450
(dp451
Vlarge
p452
(dp453
Vh
p454
I355
sVresize
p455
Vfit
p456
sVw
p457
I960
ssVsmall
p458
(dp459
Vh
p460
I125
sVresize
p461
Vfit
p462
sVw
p463
I340
ssVmedium
p464
(dp465
Vh
p466
I221
sVresize
p467
Vfit
p468
sVw
p469
I600
ssVthumb
p470
(dp471
Vh
p472
I150
sVresize
p473
Vcrop
p474
sVw
p475
I150
sssVindices
p476
(lp477
I101
aI123
asVtype
p478
Vphoto
p479
sVid
p480
I542290602390323200
sVmedia_url
p481
Vhttp://pbs.twimg.com/media/B4aabgCCAAARwI3.jpg
p482
sasg19
Nsg20
Nsg21
Nsg22
VTue Dec 09 12:12:13 +0000 2014
p483
sg24
Nsg25
I00
sg26
Nsg27
Nsg28
Nsg29
Nsg30
I00
sg31
Nsg32
(lp484
sg67
Nsg68
V542290618253193216
p485
sg70
Nsg71
VFrank will be performing his new single "Bottle" this Sunday at the Central Club Hotel in Melbourne! http://t.co/kDdNOgEIA7
p486
sg73
I00
sg74
Ven
p487
sg76
g3
(g34
g5
Ntp488
Rp489
(dp490
g10
g80
sg38
V333333
p491
sg39
Ven
p492
sg40
VSingapore
p493
sg41
I2647
sg42
I1589
sg22
VFri Jan 20 10:57:30 +0000 2012
p494
sg43
I00
sg44
VFirst & official Frank Dixon Army! Get Frank's latest single #Bottle & others here: https://t.co/kZvZWKDjEy
p495
sg45
Vhttps://pbs.twimg.com/profile_images/477795178325872642/cODvsz7J_normal.jpeg
p496
sg46
I26
sg47
I120
sg48
I28800
sg49
Nsg50
I00
sg51
Vhttps://pbs.twimg.com/profile_banners/469218677/1418124243
p497
sg52
I00
sg53
I01
sg54
V00AEFF
p498
sg55
I01
sg56
I00
sg57
Vhttp://pbs.twimg.com/profile_background_images/438631509470093314/RwMK2-w8.png
p499
sg58
VFrankDixonArmy
p500
sg60
I4
sg61
VFrank Dixon Army
p501
sg63
VDDEEF6
p502
sg64
Vhttp://t.co/OzyWVW94tY
p503
sg65
I469218677
sg66
VFFFFFF
p504
sbsg95
I0
sg96
V<a href="http://twitter.com/download/iphone" rel="nofollow">Twitter for iPhone</a>
p505
sg98
(lp506
sg65
I542290618253193216
sbag3
(g4
g5
Ntp507
Rp508
(dp509
g9
I0
sg10
Nsg11
Nsg12
(lp510
sg14
I00
sg15
Nsg16
Nsg17
(lp511
sg19
Nsg20
Nsg21
Nsg22
VTue Dec 09 11:31:37 +0000 2014
p512
sg24
Nsg25
Nsg26
VFrankDixon12
p513
sg27
Nsg28
I314882004
sg29
Nsg30
I00
sg31
Nsg32
(lp514
g3
(g34
g5
Ntp515
Rp516
(dp517
g10
Nsg38
Nsg39
Nsg40
Nsg41
Nsg42
Nsg22
Nsg43
Nsg44
Nsg45
Nsg46
Nsg47
Nsg48
Nsg49
Nsg50
Nsg51
Nsg52
Nsg53
Nsg54
Nsg55
Nsg56
Nsg57
Nsg58
VFrankDixon12
p518
sg60
Nsg61
VFrank Dixon Official
p519
sg63
Nsg64
Nsg65
I314882004
sg66
Nsbasg67
Nsg68
V542280402572816384
p520
sg70
I542278881739165696
sg71
V@FrankDixon12 Haha it's a joy with along with excitement isnt it? I can feel the vibe from you! \U0001f602 Haha but writer's block is gives headaches
p521
sg73
I00
sg74
Ven
p522
sg76
g3
(g34
g5
Ntp523
Rp524
(dp525
g10
g80
sg38
V333333
p526
sg39
Ven
p527
sg40
VSingapore
p528
sg41
I2647
sg42
I1589
sg22
VFri Jan 20 10:57:30 +0000 2012
p529
sg43
I00
sg44
VFirst & official Frank Dixon Army! Get Frank's latest single #Bottle & others here: https://t.co/kZvZWKDjEy
p530
sg45
Vhttps://pbs.twimg.com/profile_images/477795178325872642/cODvsz7J_normal.jpeg
p531
sg46
I26
sg47
I120
sg48
I28800
sg49
Nsg50
I00
sg51
Vhttps://pbs.twimg.com/profile_banners/469218677/1418124243
p532
sg52
I00
sg53
I01
sg54
V00AEFF
p533
sg55
I01
sg56
I00
sg57
Vhttp://pbs.twimg.com/profile_background_images/438631509470093314/RwMK2-w8.png
p534
sg58
VFrankDixonArmy
p535
sg60
I4
sg61
VFrank Dixon Army
p536
sg63
VDDEEF6
p537
sg64
Vhttp://t.co/OzyWVW94tY
p538
sg65
I469218677
sg66
VFFFFFF
p539
sbsg95
I0
sg96
V<a href="http://twitter.com/download/iphone" rel="nofollow">Twitter for iPhone</a>
p540
sg98
(lp541
sg65
I542280402572816384
sbag3
(g4
g5
Ntp542
Rp543
(dp544
g9
I1
sg10
Nsg11
Nsg12
(lp545
sg14
I00
sg15
Nsg16
Nsg17
(lp546
sg19
Nsg20
Nsg21
Nsg22
VTue Dec 09 11:10:15 +0000 2014
p547
sg24
Nsg25
Nsg26
VFrankDixon12
p548
sg27
Nsg28
I314882004
sg29
Nsg30
I00
sg31
Nsg32
(lp549
g3
(g34
g5
Ntp550
Rp551
(dp552
g10
Nsg38
Nsg39
Nsg40
Nsg41
Nsg42
Nsg22
Nsg43
Nsg44
Nsg45
Nsg46
Nsg47
Nsg48
Nsg49
Nsg50
Nsg51
Nsg52
Nsg53
Nsg54
Nsg55
Nsg56
Nsg57
Nsg58
VFrankDixon12
p553
sg60
Nsg61
VFrank Dixon Official
p554
sg63
Nsg64
Nsg65
I314882004
sg66
Nsbasg67
Nsg68
V542275025156313088
p555
sg70
I542274562394566656
sg71
V@FrankDixon12 Oh i see, yes it takes alot of planning &amp; stuff (learning marketing\U0001f602) Great to hear, snippets\U0001f44d? So what r u up to nowadays?
p556
sg73
I00
sg74
Ven
p557
sg76
g3
(g34
g5
Ntp558
Rp559
(dp560
g10
g80
sg38
V333333
p561
sg39
Ven
p562
sg40
VSingapore
p563
sg41
I2647
sg42
I1589
sg22
VFri Jan 20 10:57:30 +0000 2012
p564
sg43
I00
sg44
VFirst & official Frank Dixon Army! Get Frank's latest single #Bottle & others here: https://t.co/kZvZWKDjEy
p565
sg45
Vhttps://pbs.twimg.com/profile_images/477795178325872642/cODvsz7J_normal.jpeg
p566
sg46
I26
sg47
I120
sg48
I28800
sg49
Nsg50
I00
sg51
Vhttps://pbs.twimg.com/profile_banners/469218677/1418124243
p567
sg52
I00
sg53
I01
sg54
V00AEFF
p568
sg55
I01
sg56
I00
sg57
Vhttp://pbs.twimg.com/profile_background_images/438631509470093314/RwMK2-w8.png
p569
sg58
VFrankDixonArmy
p570
sg60
I4
sg61
VFrank Dixon Army
p571
sg63
VDDEEF6
p572
sg64
Vhttp://t.co/OzyWVW94tY
p573
sg65
I469218677
sg66
VFFFFFF
p574
sbsg95
I0
sg96
V<a href="http://twitter.com/download/iphone" rel="nofollow">Twitter for iPhone</a>
p575
sg98
(lp576
sg65
I542275025156313088
sbag3
(g4
g5
Ntp577
Rp578
(dp579
g9
I0
sg10
Nsg11
Nsg12
(lp580
sg14
I00
sg15
Nsg16
Nsg17
(lp581
sg19
Nsg20
Nsg21
Nsg22
VTue Dec 09 11:07:20 +0000 2014
p582
sg24
Nsg25
Nsg26
VFrankDixon12
p583
sg27
Nsg28
I314882004
sg29
Nsg30
I00
sg31
Nsg32
(lp584
g3
(g34
g5
Ntp585
Rp586
(dp587
g10
Nsg38
Nsg39
Nsg40
Nsg41
Nsg42
Nsg22
Nsg43
Nsg44
Nsg45
Nsg46
Nsg47
Nsg48
Nsg49
Nsg50
Nsg51
Nsg52
Nsg53
Nsg54
Nsg55
Nsg56
Nsg57
Nsg58
VFrankDixon12
p588
sg60
Nsg61
VFrank Dixon Official
p589
sg63
Nsg64
Nsg65
I314882004
sg66
Nsbasg67
Nsg68
V542274288762359809
p590
sg70
I542273939620126721
sg71
V@FrankDixon12 You should've chosen an earlier date pssstt haha jkjk \U0001f602 Are you done with the EP yet? Of course i am xD
p591
sg73
I00
sg74
Ven
p592
sg76
g3
(g34
g5
Ntp593
Rp594
(dp595
g10
g80
sg38
V333333
p596
sg39
Ven
p597
sg40
VSingapore
p598
sg41
I2647
sg42
I1589
sg22
VFri Jan 20 10:57:30 +0000 2012
p599
sg43
I00
sg44
VFirst & official Frank Dixon Army! Get Frank's latest single #Bottle & others here: https://t.co/kZvZWKDjEy
p600
sg45
Vhttps://pbs.twimg.com/profile_images/477795178325872642/cODvsz7J_normal.jpeg
p601
sg46
I26
sg47
I120
sg48
I28800
sg49
Nsg50
I00
sg51
Vhttps://pbs.twimg.com/profile_banners/469218677/1418124243
p602
sg52
I00
sg53
I01
sg54
V00AEFF
p603
sg55
I01
sg56
I00
sg57
Vhttp://pbs.twimg.com/profile_background_images/438631509470093314/RwMK2-w8.png
p604
sg58
VFrankDixonArmy
p605
sg60
I4
sg61
VFrank Dixon Army
p606
sg63
VDDEEF6
p607
sg64
Vhttp://t.co/OzyWVW94tY
p608
sg65
I469218677
sg66
VFFFFFF
p609
sbsg95
I0
sg96
V<a href="http://twitter.com/download/iphone" rel="nofollow">Twitter for iPhone</a>
p610
sg98
(lp611
sg65
I542274288762359809
sbag3
(g4
g5
Ntp612
Rp613
(dp614
g9
I1
sg10
Nsg11
Nsg12
(lp615
sg14
I00
sg15
Nsg16
Nsg17
(lp616
sg19
Nsg20
Nsg21
Nsg22
VTue Dec 09 11:05:05 +0000 2014
p617
sg24
Nsg25
Nsg26
VFrankDixon12
p618
sg27
Nsg28
I314882004
sg29
Nsg30
I00
sg31
Nsg32
(lp619
g3
(g34
g5
Ntp620
Rp621
(dp622
g10
Nsg38
Nsg39
Nsg40
Nsg41
Nsg42
Nsg22
Nsg43
Nsg44
Nsg45
Nsg46
Nsg47
Nsg48
Nsg49
Nsg50
Nsg51
Nsg52
Nsg53
Nsg54
Nsg55
Nsg56
Nsg57
Nsg58
VFrankDixon12
p623
sg60
Nsg61
VFrank Dixon Official
p624
sg63
Nsg64
Nsg65
I314882004
sg66
Nsbasg67
Nsg68
V542273725018537984
p625
sg70
I542273192685871106
sg71
V@FrankDixon12 Same here, the wait for the EP is so frustrating (seems like a long time) but school will keep me busy xD Expecting a tour..\U0001f60f
p626
sg73
I00
sg74
Ven
p627
sg76
g3
(g34
g5
Ntp628
Rp629
(dp630
g10
g80
sg38
V333333
p631
sg39
Ven
p632
sg40
VSingapore
p633
sg41
I2647
sg42
I1589
sg22
VFri Jan 20 10:57:30 +0000 2012
p634
sg43
I00
sg44
VFirst & official Frank Dixon Army! Get Frank's latest single #Bottle & others here: https://t.co/kZvZWKDjEy
p635
sg45
Vhttps://pbs.twimg.com/profile_images/477795178325872642/cODvsz7J_normal.jpeg
p636
sg46
I26
sg47
I120
sg48
I28800
sg49
Nsg50
I00
sg51
Vhttps://pbs.twimg.com/profile_banners/469218677/1418124243
p637
sg52
I00
sg53
I01
sg54
V00AEFF
p638
sg55
I01
sg56
I00
sg57
Vhttp://pbs.twimg.com/profile_background_images/438631509470093314/RwMK2-w8.png
p639
sg58
VFrankDixonArmy
p640
sg60
I4
sg61
VFrank Dixon Army
p641
sg63
VDDEEF6
p642
sg64
Vhttp://t.co/OzyWVW94tY
p643
sg65
I469218677
sg66
VFFFFFF
p644
sbsg95
I0
sg96
V<a href="http://twitter.com/download/iphone" rel="nofollow">Twitter for iPhone</a>
p645
sg98
(lp646
sg65
I542273725018537984
sbag3
(g4
g5
Ntp647
Rp648
(dp649
g9
I1
sg10
Nsg11
Nsg12
(lp650
sg14
I00
sg15
Nsg16
Nsg17
(lp651
sg19
Nsg20
Nsg21
Nsg22
VTue Dec 09 11:01:57 +0000 2014
p652
sg24
Nsg25
Nsg26
VFrankDixon12
p653
sg27
Nsg28
I314882004
sg29
Nsg30
I00
sg31
Nsg32
(lp654
g3
(g34
g5
Ntp655
Rp656
(dp657
g10
Nsg38
Nsg39
Nsg40
Nsg41
Nsg42
Nsg22
Nsg43
Nsg44
Nsg45
Nsg46
Nsg47
Nsg48
Nsg49
Nsg50
Nsg51
Nsg52
Nsg53
Nsg54
Nsg55
Nsg56
Nsg57
Nsg58
VFrankDixon12
p658
sg60
Nsg61
VFrank Dixon Official
p659
sg63
Nsg64
Nsg65
I314882004
sg66
Nsbasg67
Nsg68
V542272935797350400
p660
sg70
I542270612471685120
sg71
V@FrankDixon12 Great thinking\U0001f60f, i only found out after i went to your fb. 2015 is gonna be an awesome year for you, can't wait for that :)
p661
sg73
I00
sg74
Ven
p662
sg76
g3
(g34
g5
Ntp663
Rp664
(dp665
g10
g80
sg38
V333333
p666
sg39
Ven
p667
sg40
VSingapore
p668
sg41
I2647
sg42
I1589
sg22
VFri Jan 20 10:57:30 +0000 2012
p669
sg43
I00
sg44
VFirst & official Frank Dixon Army! Get Frank's latest single #Bottle & others here: https://t.co/kZvZWKDjEy
p670
sg45
Vhttps://pbs.twimg.com/profile_images/477795178325872642/cODvsz7J_normal.jpeg
p671
sg46
I26
sg47
I120
sg48
I28800
sg49
Nsg50
I00
sg51
Vhttps://pbs.twimg.com/profile_banners/469218677/1418124243
p672
sg52
I00
sg53
I01
sg54
V00AEFF
p673
sg55
I01
sg56
I00
sg57
Vhttp://pbs.twimg.com/profile_background_images/438631509470093314/RwMK2-w8.png
p674
sg58
VFrankDixonArmy
p675
sg60
I4
sg61
VFrank Dixon Army
p676
sg63
VDDEEF6
p677
sg64
Vhttp://t.co/OzyWVW94tY
p678
sg65
I469218677
sg66
VFFFFFF
p679
sbsg95
I0
sg96
V<a href="http://twitter.com/download/iphone" rel="nofollow">Twitter for iPhone</a>
p680
sg98
(lp681
sg65
I542272935797350400
sbag3
(g4
g5
Ntp682
Rp683
(dp684
g9
I1
sg10
Nsg11
Nsg12
(lp685
sg14
I00
sg15
Nsg16
Nsg17
(lp686
sg19
Nsg20
Nsg21
Nsg22
VTue Dec 09 10:50:04 +0000 2014
p687
sg24
Nsg25
Nsg26
VFrankDixon12
p688
sg27
Nsg28
I314882004
sg29
Nsg30
I00
sg31
Nsg32
(lp689
g3
(g34
g5
Ntp690
Rp691
(dp692
g10
Nsg38
Nsg39
Nsg40
Nsg41
Nsg42
Nsg22
Nsg43
Nsg44
Nsg45
Nsg46
Nsg47
Nsg48
Nsg49
Nsg50
Nsg51
Nsg52
Nsg53
Nsg54
Nsg55
Nsg56
Nsg57
Nsg58
VFrankDixon12
p693
sg60
Nsg61
VFrank Dixon Official
p694
sg63
Nsg64
Nsg65
I314882004
sg66
Nsbasg67
Nsg68
V542269944247762944
p695
sg70
I542269570443005953
sg71
V@FrankDixon12 Haha hopefully :) are you in your holidays now? that's why you have more time to tweet? hahaha
p696
sg73
I00
sg74
Ven
p697
sg76
g3
(g34
g5
Ntp698
Rp699
(dp700
g10
g80
sg38
V333333
p701
sg39
Ven
p702
sg40
VSingapore
p703
sg41
I2647
sg42
I1589
sg22
VFri Jan 20 10:57:30 +0000 2012
p704
sg43
I00
sg44
VFirst & official Frank Dixon Army! Get Frank's latest single #Bottle & others here: https://t.co/kZvZWKDjEy
p705
sg45
Vhttps://pbs.twimg.com/profile_images/477795178325872642/cODvsz7J_normal.jpeg
p706
sg46
I26
sg47
I120
sg48
I28800
sg49
Nsg50
I00
sg51
Vhttps://pbs.twimg.com/profile_banners/469218677/1418124243
p707
sg52
I00
sg53
I01
sg54
V00AEFF
p708
sg55
I01
sg56
I00
sg57
Vhttp://pbs.twimg.com/profile_background_images/438631509470093314/RwMK2-w8.png
p709
sg58
VFrankDixonArmy
p710
sg60
I4
sg61
VFrank Dixon Army
p711
sg63
VDDEEF6
p712
sg64
Vhttp://t.co/OzyWVW94tY
p713
sg65
I469218677
sg66
VFFFFFF
p714
sbsg95
I1
sg96
V<a href="http://twitter.com/download/iphone" rel="nofollow">Twitter for iPhone</a>
p715
sg98
(lp716
sg65
I542269944247762944
sbag3
(g4
g5
Ntp717
Rp718
(dp719
g9
I0
sg10
Nsg11
Nsg12
(lp720
g3
(g139
g5
Ntp721
Rp722
(dp723
g143
Vplaythroughthepain
p724
sbasg14
I00
sg15
g3
(g4
g5
Ntp725
Rp726
(dp727
g9
I7
sg10
Nsg11
Nsg12
(lp728
g3
(g139
g5
Ntp729
Rp730
(dp731
g143
Vplaythroughthepain
p732
sbasg14
I00
sg15
Nsg16
Nsg17
(lp733
sg19
Nsg20
Nsg21
Nsg22
VTue Dec 09 10:47:09 +0000 2014
p734
sg24
Nsg25
Nsg26
Nsg27
Nsg28
Nsg29
Nsg30
I00
sg31
Nsg32
(lp735
sg67
Nsg68
V542269212673056768
p736
sg70
Nsg71
VFingers. Hurting. Much Pain. Much Guitar.... #playthroughthepain :3
p737
sg73
I00
sg74
Ven
p738
sg76
g3
(g34
g5
Ntp739
Rp740
(dp741
g10
VMelbourne, Australia
p742
sg38
V157567
p743
sg39
Ven
p744
sg40
VMelbourne
p745
sg41
I39544
sg42
I12005
sg22
VFri Jun 10 23:43:30 +0000 2011
p746
sg43
I00
sg44
VSinger & Songwriter & Actor -                        \u000aIt's just about the music! \u000ahttp://t.co/s6PAoQBY7u
p747
sg45
Vhttps://pbs.twimg.com/profile_images/542098912819937280/9a0PdW5B_normal.jpeg
p748
sg46
I41715
sg47
I2784
sg48
I39600
sg49
Nsg50
I00
sg51
Vhttps://pbs.twimg.com/profile_banners/314882004/1414544817
p749
sg52
I00
sg53
I01
sg54
V263376
p750
sg55
I01
sg56
I00
sg57
Vhttp://pbs.twimg.com/profile_background_images/378800000010840154/c0cc053a05312548c21aee6b4c99fb03.jpeg
p751
sg58
VFrankDixon12
p752
sg60
I77
sg61
VFrank Dixon Official
p753
sg63
VC6EE7E
p754
sg64
Vhttps://t.co/t17c9UIsY6
p755
sg65
I314882004
sg66
V1F9452
p756
sbsg95
I6
sg96
V<a href="http://twitter.com/download/iphone" rel="nofollow">Twitter for iPhone</a>
p757
sg98
(lp758
sg65
I542269212673056768
sbsg16
Nsg17
(lp759
sg19
Nsg20
Nsg21
Nsg22
VTue Dec 09 10:48:25 +0000 2014
p760
sg24
Nsg25
Nsg26
Nsg27
Nsg28
Nsg29
Nsg30
I00
sg31
Nsg32
(lp761
g3
(g34
g5
Ntp762
Rp763
(dp764
g10
Nsg38
Nsg39
Nsg40
Nsg41
Nsg42
Nsg22
Nsg43
Nsg44
Nsg45
Nsg46
Nsg47
Nsg48
Nsg49
Nsg50
Nsg51
Nsg52
Nsg53
Nsg54
Nsg55
Nsg56
Nsg57
Nsg58
VFrankDixon12
p765
sg60
Nsg61
VFrank Dixon Official
p766
sg63
Nsg64
Nsg65
I314882004
sg66
Nsbasg67
Nsg68
V542269530970419200
p767
sg70
Nsg71
VRT @FrankDixon12: Fingers. Hurting. Much Pain. Much Guitar.... #playthroughthepain :3
p768
sg73
I00
sg74
Ven
p769
sg76
g3
(g34
g5
Ntp770
Rp771
(dp772
g10
g80
sg38
V333333
p773
sg39
Ven
p774
sg40
VSingapore
p775
sg41
I2647
sg42
I1589
sg22
VFri Jan 20 10:57:30 +0000 2012
p776
sg43
I00
sg44
VFirst & official Frank Dixon Army! Get Frank's latest single #Bottle & others here: https://t.co/kZvZWKDjEy
p777
sg45
Vhttps://pbs.twimg.com/profile_images/477795178325872642/cODvsz7J_normal.jpeg
p778
sg46
I26
sg47
I120
sg48
I28800
sg49
Nsg50
I00
sg51
Vhttps://pbs.twimg.com/profile_banners/469218677/1418124243
p779
sg52
I00
sg53
I01
sg54
V00AEFF
p780
sg55
I01
sg56
I00
sg57
Vhttp://pbs.twimg.com/profile_background_images/438631509470093314/RwMK2-w8.png
p781
sg58
VFrankDixonArmy
p782
sg60
I4
sg61
VFrank Dixon Army
p783
sg63
VDDEEF6
p784
sg64
Vhttp://t.co/OzyWVW94tY
p785
sg65
I469218677
sg66
VFFFFFF
p786
sbsg95
I6
sg96
V<a href="http://twitter.com/download/iphone" rel="nofollow">Twitter for iPhone</a>
p787
sg98
(lp788
sg65
I542269530970419200
sbag3
(g4
g5
Ntp789
Rp790
(dp791
g9
I0
sg10
Nsg11
Nsg12
(lp792
sg14
I00
sg15
Nsg16
Nsg17
(lp793
sg19
Nsg20
Nsg21
Nsg22
VTue Dec 09 10:48:08 +0000 2014
p794
sg24
Nsg25
Nsg26
VFrankDixon12
p795
sg27
Nsg28
I314882004
sg29
Nsg30
I00
sg31
Nsg32
(lp796
g3
(g34
g5
Ntp797
Rp798
(dp799
g10
Nsg38
Nsg39
Nsg40
Nsg41
Nsg42
Nsg22
Nsg43
Nsg44
Nsg45
Nsg46
Nsg47
Nsg48
Nsg49
Nsg50
Nsg51
Nsg52
Nsg53
Nsg54
Nsg55
Nsg56
Nsg57
Nsg58
VFrankDixon12
p800
sg60
Nsg61
VFrank Dixon Official
p801
sg63
Nsg64
Nsg65
I314882004
sg66
Nsbasg67
Nsg68
V542269458018865152
p802
sg70
I542268411661672448
sg71
V@FrankDixon12 Haha aww can't wait already!!
p803
sg73
I00
sg74
Ven
p804
sg76
g3
(g34
g5
Ntp805
Rp806
(dp807
g10
g80
sg38
V333333
p808
sg39
Ven
p809
sg40
VSingapore
p810
sg41
I2647
sg42
I1589
sg22
VFri Jan 20 10:57:30 +0000 2012
p811
sg43
I00
sg44
VFirst & official Frank Dixon Army! Get Frank's latest single #Bottle & others here: https://t.co/kZvZWKDjEy
p812
sg45
Vhttps://pbs.twimg.com/profile_images/477795178325872642/cODvsz7J_normal.jpeg
p813
sg46
I26
sg47
I120
sg48
I28800
sg49
Nsg50
I00
sg51
Vhttps://pbs.twimg.com/profile_banners/469218677/1418124243
p814
sg52
I00
sg53
I01
sg54
V00AEFF
p815
sg55
I01
sg56
I00
sg57
Vhttp://pbs.twimg.com/profile_background_images/438631509470093314/RwMK2-w8.png
p816
sg58
VFrankDixonArmy
p817
sg60
I4
sg61
VFrank Dixon Army
p818
sg63
VDDEEF6
p819
sg64
Vhttp://t.co/OzyWVW94tY
p820
sg65
I469218677
sg66
VFFFFFF
p821
sbsg95
I0
sg96
V<a href="http://twitter.com/download/iphone" rel="nofollow">Twitter for iPhone</a>
p822
sg98
(lp823
sg65
I542269458018865152
sbag3
(g4
g5
Ntp824
Rp825
(dp826
g9
I0
sg10
Nsg11
Nsg12
(lp827
sg14
I00
sg15
Nsg16
Nsg17
(lp828
sg19
Nsg20
Nsg21
Nsg22
VTue Dec 09 10:46:56 +0000 2014
p829
sg24
Nsg25
Nsg26
VFrankDixon12
p830
sg27
Nsg28
I314882004
sg29
Nsg30
I00
sg31
Nsg32
(lp831
g3
(g34
g5
Ntp832
Rp833
(dp834
g10
Nsg38
Nsg39
Nsg40
Nsg41
Nsg42
Nsg22
Nsg43
Nsg44
Nsg45
Nsg46
Nsg47
Nsg48
Nsg49
Nsg50
Nsg51
Nsg52
Nsg53
Nsg54
Nsg55
Nsg56
Nsg57
Nsg58
VFrankDixon12
p835
sg60
Nsg61
VFrank Dixon Official
p836
sg63
Nsg64
Nsg65
I314882004
sg66
Nsbasg67
Nsg68
V542269155479519233
p837
sg70
I542268223530336256
sg71
V@FrankDixon12 You've no idea.. Twitter was so dead when you weren't tweeting xD
p838
sg73
I00
sg74
Ven
p839
sg76
g3
(g34
g5
Ntp840
Rp841
(dp842
g10
g80
sg38
V333333
p843
sg39
Ven
p844
sg40
VSingapore
p845
sg41
I2647
sg42
I1589
sg22
VFri Jan 20 10:57:30 +0000 2012
p846
sg43
I00
sg44
VFirst & official Frank Dixon Army! Get Frank's latest single #Bottle & others here: https://t.co/kZvZWKDjEy
p847
sg45
Vhttps://pbs.twimg.com/profile_images/477795178325872642/cODvsz7J_normal.jpeg
p848
sg46
I26
sg47
I120
sg48
I28800
sg49
Nsg50
I00
sg51
Vhttps://pbs.twimg.com/profile_banners/469218677/1418124243
p849
sg52
I00
sg53
I01
sg54
V00AEFF
p850
sg55
I01
sg56
I00
sg57
Vhttp://pbs.twimg.com/profile_background_images/438631509470093314/RwMK2-w8.png
p851
sg58
VFrankDixonArmy
p852
sg60
I4
sg61
VFrank Dixon Army
p853
sg63
VDDEEF6
p854
sg64
Vhttp://t.co/OzyWVW94tY
p855
sg65
I469218677
sg66
VFFFFFF
p856
sbsg95
I0
sg96
V<a href="http://twitter.com/download/iphone" rel="nofollow">Twitter for iPhone</a>
p857
sg98
(lp858
sg65
I542269155479519233
sbag3
(g4
g5
Ntp859
Rp860
(dp861
g9
I0
sg10
Nsg11
Nsg12
(lp862
sg14
I00
sg15
Nsg16
Nsg17
(lp863
(dp864
Vexpanded_url
p865
Vhttp://twitter.com/FrankDixonArmy/status/542266458525278208/photo/1
p866
sVdisplay_url
p867
Vpic.twitter.com/wAuA1ZRlhQ
p868
sVurl
p869
Vhttp://t.co/wAuA1ZRlhQ
p870
sVmedia_url_https
p871
Vhttps://pbs.twimg.com/media/B4aEdzICMAESW5k.jpg
p872
sVid_str
p873
V542266452619702273
p874
sVsizes
p875
(dp876
Vsmall
p877
(dp878
Vh
p879
I127
sVresize
p880
Vfit
p881
sVw
p882
I340
ssVlarge
p883
(dp884
Vh
p885
I315
sVresize
p886
Vfit
p887
sVw
p888
I841
ssVmedium
p889
(dp890
Vh
p891
I224
sVresize
p892
Vfit
p893
sVw
p894
I600
ssVthumb
p895
(dp896
Vh
p897
I150
sVresize
p898
Vcrop
p899
sVw
p900
I150
sssVindices
p901
(lp902
I85
aI107
asVtype
p903
Vphoto
p904
sVid
p905
I542266452619702273
sVmedia_url
p906
Vhttp://pbs.twimg.com/media/B4aEdzICMAESW5k.jpg
p907
sasg19
Nsg20
Nsg21
Nsg22
VTue Dec 09 10:36:13 +0000 2014
p908
sg24
Nsg25
I00
sg26
Nsg27
Nsg28
Nsg29
Nsg30
I00
sg31
Nsg32
(lp909
g3
(g34
g5
Ntp910
Rp911
(dp912
g10
Nsg38
Nsg39
Nsg40
Nsg41
Nsg42
Nsg22
Nsg43
Nsg44
Nsg45
Nsg46
Nsg47
Nsg48
Nsg49
Nsg50
Nsg51
Nsg52
Nsg53
Nsg54
Nsg55
Nsg56
Nsg57
Nsg58
VFrankDixon12
p913
sg60
Nsg61
VFrank Dixon Official
p914
sg63
Nsg64
Nsg65
I314882004
sg66
Nsbasg67
Nsg68
V542266458525278208
p915
sg70
Nsg71
VCan't wait for this! By chance will it be released on your birthday? \U0001f62e @FrankDixon12 http://t.co/wAuA1ZRlhQ
p916
sg73
I00
sg74
Ven
p917
sg76
g3
(g34
g5
Ntp918
Rp919
(dp920
g10
g80
sg38
V333333
p921
sg39
Ven
p922
sg40
VSingapore
p923
sg41
I2647
sg42
I1589
sg22
VFri Jan 20 10:57:30 +0000 2012
p924
sg43
I00
sg44
VFirst & official Frank Dixon Army! Get Frank's latest single #Bottle & others here: https://t.co/kZvZWKDjEy
p925
sg45
Vhttps://pbs.twimg.com/profile_images/477795178325872642/cODvsz7J_normal.jpeg
p926
sg46
I26
sg47
I120
sg48
I28800
sg49
Nsg50
I00
sg51
Vhttps://pbs.twimg.com/profile_banners/469218677/1418124243
p927
sg52
I00
sg53
I01
sg54
V00AEFF
p928
sg55
I01
sg56
I00
sg57
Vhttp://pbs.twimg.com/profile_background_images/438631509470093314/RwMK2-w8.png
p929
sg58
VFrankDixonArmy
p930
sg60
I4
sg61
VFrank Dixon Army
p931
sg63
VDDEEF6
p932
sg64
Vhttp://t.co/OzyWVW94tY
p933
sg65
I469218677
sg66
VFFFFFF
p934
sbsg95
I0
sg96
V<a href="http://twitter.com/download/iphone" rel="nofollow">Twitter for iPhone</a>
p935
sg98
(lp936
sg65
I542266458525278208
sbag3
(g4
g5
Ntp937
Rp938
(dp939
g9
I0
sg10
Nsg11
Nsg12
(lp940
sg14
I00
sg15
Nsg16
Nsg17
(lp941
sg19
Nsg20
Nsg21
Nsg22
VTue Dec 09 10:29:50 +0000 2014
p942
sg24
Nsg25
Nsg26
VFrankDixon12
p943
sg27
Nsg28
I314882004
sg29
Nsg30
I00
sg31
Nsg32
(lp944
g3
(g34
g5
Ntp945
Rp946
(dp947
g10
Nsg38
Nsg39
Nsg40
Nsg41
Nsg42
Nsg22
Nsg43
Nsg44
Nsg45
Nsg46
Nsg47
Nsg48
Nsg49
Nsg50
Nsg51
Nsg52
Nsg53
Nsg54
Nsg55
Nsg56
Nsg57
Nsg58
VFrankDixon12
p948
sg60
Nsg61
VFrank Dixon Official
p949
sg63
Nsg64
Nsg65
I314882004
sg66
Nsbasg67
Nsg68
V542264853042180097
p950
sg70
I542100114899083264
sg71
V@FrankDixon12 Welcome back Frank, great to hear from you again!
p951
sg73
I00
sg74
Ven
p952
sg76
g3
(g34
g5
Ntp953
Rp954
(dp955
g10
g80
sg38
V333333
p956
sg39
Ven
p957
sg40
VSingapore
p958
sg41
I2647
sg42
I1589
sg22
VFri Jan 20 10:57:30 +0000 2012
p959
sg43
I00
sg44
VFirst & official Frank Dixon Army! Get Frank's latest single #Bottle & others here: https://t.co/kZvZWKDjEy
p960
sg45
Vhttps://pbs.twimg.com/profile_images/477795178325872642/cODvsz7J_normal.jpeg
p961
sg46
I26
sg47
I120
sg48
I28800
sg49
Nsg50
I00
sg51
Vhttps://pbs.twimg.com/profile_banners/469218677/1418124243
p962
sg52
I00
sg53
I01
sg54
V00AEFF
p963
sg55
I01
sg56
I00
sg57
Vhttp://pbs.twimg.com/profile_background_images/438631509470093314/RwMK2-w8.png
p964
sg58
VFrankDixonArmy
p965
sg60
I4
sg61
VFrank Dixon Army
p966
sg63
VDDEEF6
p967
sg64
Vhttp://t.co/OzyWVW94tY
p968
sg65
I469218677
sg66
VFFFFFF
p969
sbsg95
I0
sg96
V<a href="http://twitter.com/download/iphone" rel="nofollow">Twitter for iPhone</a>
p970
sg98
(lp971
sg65
I542264853042180097
sbaa.