(lp0
S'FaceyFitzroy'
p1
a(lp2
ccopy_reg
_reconstructor
p3
(ctwitter.status
Status
p4
c__builtin__
object
p5
Ntp6
Rp7
(dp8
S'_favorite_count'
p9
I0
sS'_location'
p10
NsS'_withheld_scope'
p11
NsS'hashtags'
p12
(lp13
sS'_truncated'
p14
I00
sS'_retweeted_status'
p15
NsS'_withheld_copyright'
p16
NsS'media'
p17
(lp18
sS'_place'
p19
NsS'_contributors'
p20
NsS'_current_user_retweet'
p21
NsS'_created_at'
p22
VSun Dec 14 19:25:17 +0000 2014
p23
sS'_scopes'
p24
NsS'_possibly_sensitive'
p25
I00
sS'_in_reply_to_screen_name'
p26
NsS'_coordinates'
p27
NsS'_in_reply_to_user_id'
p28
NsS'_geo'
p29
NsS'_favorited'
p30
I00
sS'_withheld_in_countries'
p31
NsS'user_mentions'
p32
(lp33
sS'_now'
p34
NsS'_id_str'
p35
NsS'_in_reply_to_status_id'
p36
NsS'_text'
p37
VKeep Up2 D8 with me "The Original Soul Survivor" by liking my FB Artist Page Click here: http://t.co/CcNCphV2ey
p38
sS'_retweeted'
p39
I00
sS'lang'
p40
Ven
p41
sS'_user'
p42
g3
(ctwitter.user
User
p43
g5
Ntp44
Rp45
(dp46
g10
V
p47
sS'_profile_text_color'
p48
V333333
p49
sS'_lang'
p50
Ven
p51
sS'_time_zone'
p52
NsS'_followers_count'
p53
I234
sS'_statuses_count'
p54
I14710
sg22
VMon Sep 24 09:26:03 +0000 2012
p55
sS'_verified'
p56
I00
sS'_description'
p57
VBeen swimming deep in music from before I came out the womb and am blessed to have worked with various dj artists and music enthusiasts worldwide!!
p58
sS'_profile_image_url'
p59
Vhttps://pbs.twimg.com/profile_images/517952242062991360/4_nOJdmT_normal.jpeg
p60
sS'_friends_count'
p61
I341
sS'_favourites_count'
p62
I58
sS'_utc_offset'
p63
NsS'_status'
p64
NsS'_protected'
p65
I00
sS'_profile_banner_url'
p66
NsS'_notifications'
p67
I00
sS'_profile_background_tile'
p68
I00
sS'_profile_link_color'
p69
V0084B4
p70
sS'_geo_enabled'
p71
I00
sS'_contributors_enabled'
p72
I00
sS'_profile_background_image_url'
p73
Vhttp://abs.twimg.com/images/themes/theme1/bg.png
p74
sS'_screen_name'
p75
VFaceyFitzroy
p76
sS'_listed_count'
p77
I4
sS'_name'
p78
VFitzroy Facey
p79
sS'_profile_sidebar_fill_color'
p80
VDDEEF6
p81
sS'_url'
p82
Vhttp://t.co/dpdXk72SOD
p83
sS'_id'
p84
I843257142
sS'_profile_background_color'
p85
VC0DEED
p86
sbsS'_retweet_count'
p87
I0
sS'_source'
p88
V<a href="http://www.socialoomph.com" rel="nofollow">SocialOomph</a>
p89
sS'urls'
p90
(lp91
g3
(ctwitter.url
Url
p92
g5
Ntp93
Rp94
(dp95
S'url'
p96
Vhttp://t.co/CcNCphV2ey
p97
sS'expanded_url'
p98
Vhttp://dld.bz/duNu9
p99
sbasg84
I544211542456422400
sbag3
(g4
g5
Ntp100
Rp101
(dp102
g9
I0
sg10
Nsg11
Nsg12
(lp103
sg14
I00
sg15
Nsg16
Nsg17
(lp104
(dp105
Vexpanded_url
p106
Vhttp://twitter.com/FaceyFitzroy/status/544208031341633537/photo/1
p107
sVdisplay_url
p108
Vpic.twitter.com/YzGr8Lzvo2
p109
sVurl
p110
Vhttp://t.co/YzGr8Lzvo2
p111
sVmedia_url_https
p112
Vhttps://pbs.twimg.com/media/B41qUjNIMAAnw0e.png
p113
sVid_str
p114
V544208031261929472
p115
sVsizes
p116
(dp117
Vlarge
p118
(dp119
Vh
p120
I421
sVresize
p121
Vfit
p122
sVw
p123
I298
ssVsmall
p124
(dp125
Vh
p126
I421
sVresize
p127
Vfit
p128
sVw
p129
I298
ssVmedium
p130
(dp131
Vh
p132
I421
sVresize
p133
Vfit
p134
sVw
p135
I298
ssVthumb
p136
(dp137
Vh
p138
I150
sVresize
p139
Vcrop
p140
sVw
p141
I150
sssVindices
p142
(lp143
I97
aI119
asVtype
p144
Vphoto
p145
sVid
p146
I544208031261929472
sVmedia_url
p147
Vhttp://pbs.twimg.com/media/B41qUjNIMAAnw0e.png
p148
sasg19
Nsg20
Nsg21
Nsg22
VSun Dec 14 19:11:20 +0000 2014
p149
sg24
Nsg25
I00
sg26
Nsg27
Nsg28
Nsg29
Nsg30
I00
sg31
Nsg32
(lp150
sg34
Nsg35
Nsg36
Nsg37
VWant a sneeky peek at Issue 56 of the Soul Survivors Magazine? Look here! http://t.co/09kEAwZ7wQ http://t.co/YzGr8Lzvo2
p151
sg39
I00
sg40
Ven
p152
sg42
g3
(g43
g5
Ntp153
Rp154
(dp155
g10
g47
sg48
V333333
p156
sg50
Ven
p157
sg52
Nsg53
I234
sg54
I14710
sg22
VMon Sep 24 09:26:03 +0000 2012
p158
sg56
I00
sg57
VBeen swimming deep in music from before I came out the womb and am blessed to have worked with various dj artists and music enthusiasts worldwide!!
p159
sg59
Vhttps://pbs.twimg.com/profile_images/517952242062991360/4_nOJdmT_normal.jpeg
p160
sg61
I341
sg62
I58
sg63
Nsg64
Nsg65
I00
sg66
Nsg67
I00
sg68
I00
sg69
V0084B4
p161
sg71
I00
sg72
I00
sg73
Vhttp://abs.twimg.com/images/themes/theme1/bg.png
p162
sg75
VFaceyFitzroy
p163
sg77
I4
sg78
VFitzroy Facey
p164
sg80
VDDEEF6
p165
sg82
Vhttp://t.co/dpdXk72SOD
p166
sg84
I843257142
sg85
VC0DEED
p167
sbsg87
I0
sg88
V<a href="http://www.socialoomph.com" rel="nofollow">SocialOomph</a>
p168
sg90
(lp169
g3
(g92
g5
Ntp170
Rp171
(dp172
g96
Vhttp://t.co/09kEAwZ7wQ
p173
sg98
Vhttp://dld.bz/dzPHf
p174
sbasg84
I544208031341633537
sbag3
(g4
g5
Ntp175
Rp176
(dp177
g9
I0
sg10
Nsg11
Nsg12
(lp178
sg14
I00
sg15
Nsg16
Nsg17
(lp179
sg19
Nsg20
Nsg21
Nsg22
VSun Dec 14 19:10:38 +0000 2014
p180
sg24
Nsg25
I00
sg26
Nsg27
Nsg28
Nsg29
Nsg30
I00
sg31
Nsg32
(lp181
sg34
Nsg35
Nsg36
Nsg37
VThrowback to my Robbie Vincent Soul Surviving Special from 2011 - 1st hour on Stomp Radio - Enjoy! Fitzroy http://t.co/z5lM7GlmsL
p182
sg39
I00
sg40
Ven
p183
sg42
g3
(g43
g5
Ntp184
Rp185
(dp186
g10
g47
sg48
V333333
p187
sg50
Ven
p188
sg52
Nsg53
I234
sg54
I14710
sg22
VMon Sep 24 09:26:03 +0000 2012
p189
sg56
I00
sg57
VBeen swimming deep in music from before I came out the womb and am blessed to have worked with various dj artists and music enthusiasts worldwide!!
p190
sg59
Vhttps://pbs.twimg.com/profile_images/517952242062991360/4_nOJdmT_normal.jpeg
p191
sg61
I341
sg62
I58
sg63
Nsg64
Nsg65
I00
sg66
Nsg67
I00
sg68
I00
sg69
V0084B4
p192
sg71
I00
sg72
I00
sg73
Vhttp://abs.twimg.com/images/themes/theme1/bg.png
p193
sg75
VFaceyFitzroy
p194
sg77
I4
sg78
VFitzroy Facey
p195
sg80
VDDEEF6
p196
sg82
Vhttp://t.co/dpdXk72SOD
p197
sg84
I843257142
sg85
VC0DEED
p198
sbsg87
I0
sg88
V<a href="http://www.socialoomph.com" rel="nofollow">SocialOomph</a>
p199
sg90
(lp200
g3
(g92
g5
Ntp201
Rp202
(dp203
g96
Vhttp://t.co/z5lM7GlmsL
p204
sg98
Vhttp://dld.bz/d3MTc
p205
sbasg84
I544207855075987457
sbag3
(g4
g5
Ntp206
Rp207
(dp208
g9
I0
sg10
Nsg11
Nsg12
(lp209
sg14
I00
sg15
Nsg16
Nsg17
(lp210
sg19
Nsg20
Nsg21
Nsg22
VSun Dec 14 19:05:08 +0000 2014
p211
sg24
Nsg25
I00
sg26
Nsg27
Nsg28
Nsg29
Nsg30
I00
sg31
Nsg32
(lp212
sg34
Nsg35
Nsg36
Nsg37
VWe are the info provider for the Soul Survivor! http://t.co/LnoIkgeWSY
p213
sg39
I00
sg40
Ven
p214
sg42
g3
(g43
g5
Ntp215
Rp216
(dp217
g10
g47
sg48
V333333
p218
sg50
Ven
p219
sg52
Nsg53
I234
sg54
I14710
sg22
VMon Sep 24 09:26:03 +0000 2012
p220
sg56
I00
sg57
VBeen swimming deep in music from before I came out the womb and am blessed to have worked with various dj artists and music enthusiasts worldwide!!
p221
sg59
Vhttps://pbs.twimg.com/profile_images/517952242062991360/4_nOJdmT_normal.jpeg
p222
sg61
I341
sg62
I58
sg63
Nsg64
Nsg65
I00
sg66
Nsg67
I00
sg68
I00
sg69
V0084B4
p223
sg71
I00
sg72
I00
sg73
Vhttp://abs.twimg.com/images/themes/theme1/bg.png
p224
sg75
VFaceyFitzroy
p225
sg77
I4
sg78
VFitzroy Facey
p226
sg80
VDDEEF6
p227
sg82
Vhttp://t.co/dpdXk72SOD
p228
sg84
I843257142
sg85
VC0DEED
p229
sbsg87
I0
sg88
V<a href="http://www.socialoomph.com" rel="nofollow">SocialOomph</a>
p230
sg90
(lp231
g3
(g92
g5
Ntp232
Rp233
(dp234
g96
Vhttp://t.co/LnoIkgeWSY
p235
sg98
Vhttp://dld.bz/d2kuw
p236
sbasg84
I544206473900097537
sbag3
(g4
g5
Ntp237
Rp238
(dp239
g9
I0
sg10
Nsg11
Nsg12
(lp240
sg14
I00
sg15
Nsg16
Nsg17
(lp241
sg19
Nsg20
Nsg21
Nsg22
VSun Dec 14 19:00:10 +0000 2014
p242
sg24
Nsg25
I00
sg26
Nsg27
Nsg28
Nsg29
Nsg30
I00
sg31
Nsg32
(lp243
sg34
Nsg35
Nsg36
Nsg37
VWe are the info provider for the SOUL SURVIVOR download the APP on your smartphone here: http://t.co/dqOstfaj9Z
p244
sg39
I00
sg40
Ven
p245
sg42
g3
(g43
g5
Ntp246
Rp247
(dp248
g10
g47
sg48
V333333
p249
sg50
Ven
p250
sg52
Nsg53
I234
sg54
I14710
sg22
VMon Sep 24 09:26:03 +0000 2012
p251
sg56
I00
sg57
VBeen swimming deep in music from before I came out the womb and am blessed to have worked with various dj artists and music enthusiasts worldwide!!
p252
sg59
Vhttps://pbs.twimg.com/profile_images/517952242062991360/4_nOJdmT_normal.jpeg
p253
sg61
I341
sg62
I58
sg63
Nsg64
Nsg65
I00
sg66
Nsg67
I00
sg68
I00
sg69
V0084B4
p254
sg71
I00
sg72
I00
sg73
Vhttp://abs.twimg.com/images/themes/theme1/bg.png
p255
sg75
VFaceyFitzroy
p256
sg77
I4
sg78
VFitzroy Facey
p257
sg80
VDDEEF6
p258
sg82
Vhttp://t.co/dpdXk72SOD
p259
sg84
I843257142
sg85
VC0DEED
p260
sbsg87
I0
sg88
V<a href="http://www.socialoomph.com" rel="nofollow">SocialOomph</a>
p261
sg90
(lp262
g3
(g92
g5
Ntp263
Rp264
(dp265
g96
Vhttp://t.co/dqOstfaj9Z
p266
sg98
Vhttp://dld.bz/dr2dX
p267
sbasg84
I544205222919557120
sbag3
(g4
g5
Ntp268
Rp269
(dp270
g9
I0
sg10
Nsg11
Nsg12
(lp271
sg14
I00
sg15
Nsg16
Nsg17
(lp272
sg19
Nsg20
Nsg21
Nsg22
VSun Dec 14 18:55:14 +0000 2014
p273
sg24
Nsg25
I00
sg26
Nsg27
Nsg28
Nsg29
Nsg30
I00
sg31
Nsg32
(lp274
sg34
Nsg35
Nsg36
Nsg37
VSharing with U my set with an aim 2 tease &amp; please the audience at  the Jazz Cafe b4 OMAR hit the stage! Enjoy http://t.co/5unOOVpEsS
p275
sg39
I00
sg40
Ven
p276
sg42
g3
(g43
g5
Ntp277
Rp278
(dp279
g10
g47
sg48
V333333
p280
sg50
Ven
p281
sg52
Nsg53
I234
sg54
I14710
sg22
VMon Sep 24 09:26:03 +0000 2012
p282
sg56
I00
sg57
VBeen swimming deep in music from before I came out the womb and am blessed to have worked with various dj artists and music enthusiasts worldwide!!
p283
sg59
Vhttps://pbs.twimg.com/profile_images/517952242062991360/4_nOJdmT_normal.jpeg
p284
sg61
I341
sg62
I58
sg63
Nsg64
Nsg65
I00
sg66
Nsg67
I00
sg68
I00
sg69
V0084B4
p285
sg71
I00
sg72
I00
sg73
Vhttp://abs.twimg.com/images/themes/theme1/bg.png
p286
sg75
VFaceyFitzroy
p287
sg77
I4
sg78
VFitzroy Facey
p288
sg80
VDDEEF6
p289
sg82
Vhttp://t.co/dpdXk72SOD
p290
sg84
I843257142
sg85
VC0DEED
p291
sbsg87
I0
sg88
V<a href="http://www.socialoomph.com" rel="nofollow">SocialOomph</a>
p292
sg90
(lp293
g3
(g92
g5
Ntp294
Rp295
(dp296
g96
Vhttp://t.co/5unOOVpEsS
p297
sg98
Vhttp://dld.bz/dwUxc
p298
sbasg84
I544203981078429696
sbag3
(g4
g5
Ntp299
Rp300
(dp301
g9
I0
sg10
Nsg11
Nsg12
(lp302
sg14
I00
sg15
Nsg16
Nsg17
(lp303
sg19
Nsg20
Nsg21
Nsg22
VSun Dec 14 18:52:22 +0000 2014
p304
sg24
Nsg25
I00
sg26
Nsg27
Nsg28
Nsg29
Nsg30
I00
sg31
Nsg32
(lp305
sg34
Nsg35
Nsg36
Nsg37
VCarolyn Griffrey of Shalamar talks with Fitzroy LIVE on Musicology http://t.co/OjCy7wHxjW 2-12-2014 REPLAY! http://t.co/eEuX4RBcT1
p306
sg39
I00
sg40
Ven
p307
sg42
g3
(g43
g5
Ntp308
Rp309
(dp310
g10
g47
sg48
V333333
p311
sg50
Ven
p312
sg52
Nsg53
I234
sg54
I14710
sg22
VMon Sep 24 09:26:03 +0000 2012
p313
sg56
I00
sg57
VBeen swimming deep in music from before I came out the womb and am blessed to have worked with various dj artists and music enthusiasts worldwide!!
p314
sg59
Vhttps://pbs.twimg.com/profile_images/517952242062991360/4_nOJdmT_normal.jpeg
p315
sg61
I341
sg62
I58
sg63
Nsg64
Nsg65
I00
sg66
Nsg67
I00
sg68
I00
sg69
V0084B4
p316
sg71
I00
sg72
I00
sg73
Vhttp://abs.twimg.com/images/themes/theme1/bg.png
p317
sg75
VFaceyFitzroy
p318
sg77
I4
sg78
VFitzroy Facey
p319
sg80
VDDEEF6
p320
sg82
Vhttp://t.co/dpdXk72SOD
p321
sg84
I843257142
sg85
VC0DEED
p322
sbsg87
I0
sg88
V<a href="http://www.socialoomph.com" rel="nofollow">SocialOomph</a>
p323
sg90
(lp324
g3
(g92
g5
Ntp325
Rp326
(dp327
g96
Vhttp://t.co/OjCy7wHxjW
p328
sg98
Vhttp://SOUNDFUSIONRADIO.NET
p329
sbag3
(g92
g5
Ntp330
Rp331
(dp332
g96
Vhttp://t.co/eEuX4RBcT1
p333
sg98
Vhttp://dld.bz/d3bNs-/
p334
sbasg84
I544203260526362625
sbag3
(g4
g5
Ntp335
Rp336
(dp337
g9
I0
sg10
Nsg11
Nsg12
(lp338
sg14
I00
sg15
Nsg16
Nsg17
(lp339
(dp340
Vexpanded_url
p341
Vhttp://twitter.com/FaceyFitzroy/status/544201214909771776/photo/1
p342
sVdisplay_url
p343
Vpic.twitter.com/UfRphzC58s
p344
sVurl
p345
Vhttp://t.co/UfRphzC58s
p346
sVmedia_url_https
p347
Vhttps://pbs.twimg.com/media/B41kHxtIYAAtwQa.png
p348
sVid_str
p349
V544201214746189824
p350
sVsizes
p351
(dp352
Vlarge
p353
(dp354
Vh
p355
I479
sVresize
p356
Vfit
p357
sVw
p358
I324
ssVsmall
p359
(dp360
Vh
p361
I479
sVresize
p362
Vfit
p363
sVw
p364
I324
ssVmedium
p365
(dp366
Vh
p367
I479
sVresize
p368
Vfit
p369
sVw
p370
I324
ssVthumb
p371
(dp372
Vh
p373
I150
sVresize
p374
Vcrop
p375
sVw
p376
I150
sssVindices
p377
(lp378
I118
aI140
asVtype
p379
Vphoto
p380
sVid
p381
I544201214746189824
sVmedia_url
p382
Vhttp://pbs.twimg.com/media/B41kHxtIYAAtwQa.png
p383
sasg19
Nsg20
Nsg21
Nsg22
VSun Dec 14 18:44:15 +0000 2014
p384
sg24
Nsg25
I00
sg26
Nsg27
Nsg28
Nsg29
Nsg30
I00
sg31
Nsg32
(lp385
sg34
Nsg35
Nsg36
Nsg37
VCelebrate Xmas at Soul Expressions Stevenage with Me, Fitzroy The Original Soul Survivor 20th DEC see FLYER 4 DETAILS http://t.co/UfRphzC58s
p386
sg39
I00
sg40
Ven
p387
sg42
g3
(g43
g5
Ntp388
Rp389
(dp390
g10
g47
sg48
V333333
p391
sg50
Ven
p392
sg52
Nsg53
I234
sg54
I14710
sg22
VMon Sep 24 09:26:03 +0000 2012
p393
sg56
I00
sg57
VBeen swimming deep in music from before I came out the womb and am blessed to have worked with various dj artists and music enthusiasts worldwide!!
p394
sg59
Vhttps://pbs.twimg.com/profile_images/517952242062991360/4_nOJdmT_normal.jpeg
p395
sg61
I341
sg62
I58
sg63
Nsg64
Nsg65
I00
sg66
Nsg67
I00
sg68
I00
sg69
V0084B4
p396
sg71
I00
sg72
I00
sg73
Vhttp://abs.twimg.com/images/themes/theme1/bg.png
p397
sg75
VFaceyFitzroy
p398
sg77
I4
sg78
VFitzroy Facey
p399
sg80
VDDEEF6
p400
sg82
Vhttp://t.co/dpdXk72SOD
p401
sg84
I843257142
sg85
VC0DEED
p402
sbsg87
I0
sg88
V<a href="http://www.socialoomph.com" rel="nofollow">SocialOomph</a>
p403
sg90
(lp404
sg84
I544201214909771776
sbag3
(g4
g5
Ntp405
Rp406
(dp407
g9
I0
sg10
Nsg11
Nsg12
(lp408
sg14
I00
sg15
Nsg16
Nsg17
(lp409
(dp410
Vexpanded_url
p411
Vhttp://twitter.com/FaceyFitzroy/status/544200444856528896/photo/1
p412
sVdisplay_url
p413
Vpic.twitter.com/KXwJOEgeSI
p414
sVurl
p415
Vhttp://t.co/KXwJOEgeSI
p416
sVmedia_url_https
p417
Vhttps://pbs.twimg.com/media/B41ja9AIcAAxfqh.png
p418
sVid_str
p419
V544200444684562432
p420
sVsizes
p421
(dp422
Vsmall
p423
(dp424
Vh
p425
I132
sVresize
p426
Vfit
p427
sVw
p428
I340
ssVlarge
p429
(dp430
Vh
p431
I273
sVresize
p432
Vfit
p433
sVw
p434
I701
ssVmedium
p435
(dp436
Vh
p437
I233
sVresize
p438
Vfit
p439
sVw
p440
I600
ssVthumb
p441
(dp442
Vh
p443
I150
sVresize
p444
Vcrop
p445
sVw
p446
I150
sssVindices
p447
(lp448
I117
aI139
asVtype
p449
Vphoto
p450
sVid
p451
I544200444684562432
sVmedia_url
p452
Vhttp://pbs.twimg.com/media/B41ja9AIcAAxfqh.png
p453
sasg19
Nsg20
Nsg21
Nsg22
VSun Dec 14 18:41:11 +0000 2014
p454
sg24
Nsg25
I00
sg26
Nsg27
Nsg28
Nsg29
Nsg30
I00
sg31
Nsg32
(lp455
sg34
Nsg35
Nsg36
Nsg37
VWant the beats to reach your feet? Seasonal Music treats from me at CHRISTMAS MADNESS 1PM-1AM SAT 27th DEC BRENTWOOD http://t.co/KXwJOEgeSI
p456
sg39
I00
sg40
Ven
p457
sg42
g3
(g43
g5
Ntp458
Rp459
(dp460
g10
g47
sg48
V333333
p461
sg50
Ven
p462
sg52
Nsg53
I234
sg54
I14710
sg22
VMon Sep 24 09:26:03 +0000 2012
p463
sg56
I00
sg57
VBeen swimming deep in music from before I came out the womb and am blessed to have worked with various dj artists and music enthusiasts worldwide!!
p464
sg59
Vhttps://pbs.twimg.com/profile_images/517952242062991360/4_nOJdmT_normal.jpeg
p465
sg61
I341
sg62
I58
sg63
Nsg64
Nsg65
I00
sg66
Nsg67
I00
sg68
I00
sg69
V0084B4
p466
sg71
I00
sg72
I00
sg73
Vhttp://abs.twimg.com/images/themes/theme1/bg.png
p467
sg75
VFaceyFitzroy
p468
sg77
I4
sg78
VFitzroy Facey
p469
sg80
VDDEEF6
p470
sg82
Vhttp://t.co/dpdXk72SOD
p471
sg84
I843257142
sg85
VC0DEED
p472
sbsg87
I0
sg88
V<a href="http://www.socialoomph.com" rel="nofollow">SocialOomph</a>
p473
sg90
(lp474
sg84
I544200444856528896
sbag3
(g4
g5
Ntp475
Rp476
(dp477
g9
I0
sg10
Nsg11
Nsg12
(lp478
sg14
I00
sg15
Nsg16
Nsg17
(lp479
(dp480
Vexpanded_url
p481
Vhttp://twitter.com/FaceyFitzroy/status/544199039924051968/photo/1
p482
sVdisplay_url
p483
Vpic.twitter.com/zEqgn3vxWT
p484
sVurl
p485
Vhttp://t.co/zEqgn3vxWT
p486
sVmedia_url_https
p487
Vhttps://pbs.twimg.com/media/B41iJLRIcAA_yP4.png
p488
sVid_str
p489
V544199039764688896
p490
sVsizes
p491
(dp492
Vsmall
p493
(dp494
Vh
p495
I295
sVresize
p496
Vfit
p497
sVw
p498
I306
ssVlarge
p499
(dp500
Vh
p501
I295
sVresize
p502
Vfit
p503
sVw
p504
I306
ssVmedium
p505
(dp506
Vh
p507
I295
sVresize
p508
Vfit
p509
sVw
p510
I306
ssVthumb
p511
(dp512
Vh
p513
I150
sVresize
p514
Vcrop
p515
sVw
p516
I150
sssVindices
p517
(lp518
I97
aI119
asVtype
p519
Vphoto
p520
sVid
p521
I544199039764688896
sVmedia_url
p522
Vhttp://pbs.twimg.com/media/B41iJLRIcAA_yP4.png
p523
sasg19
Nsg20
Nsg21
Nsg22
VSun Dec 14 18:35:36 +0000 2014
p524
sg24
Nsg25
I00
sg26
Nsg27
Nsg28
Nsg29
Nsg30
I00
sg31
Nsg32
(lp525
sg34
Nsg35
Nsg36
Nsg37
VCheck out SOUTHPORT'S Funkbase from me the Original Soul Survivor Fitzroy http://t.co/7gmAZWw8RA http://t.co/zEqgn3vxWT
p526
sg39
I00
sg40
Ven
p527
sg42
g3
(g43
g5
Ntp528
Rp529
(dp530
g10
g47
sg48
V333333
p531
sg50
Ven
p532
sg52
Nsg53
I234
sg54
I14710
sg22
VMon Sep 24 09:26:03 +0000 2012
p533
sg56
I00
sg57
VBeen swimming deep in music from before I came out the womb and am blessed to have worked with various dj artists and music enthusiasts worldwide!!
p534
sg59
Vhttps://pbs.twimg.com/profile_images/517952242062991360/4_nOJdmT_normal.jpeg
p535
sg61
I341
sg62
I58
sg63
Nsg64
Nsg65
I00
sg66
Nsg67
I00
sg68
I00
sg69
V0084B4
p536
sg71
I00
sg72
I00
sg73
Vhttp://abs.twimg.com/images/themes/theme1/bg.png
p537
sg75
VFaceyFitzroy
p538
sg77
I4
sg78
VFitzroy Facey
p539
sg80
VDDEEF6
p540
sg82
Vhttp://t.co/dpdXk72SOD
p541
sg84
I843257142
sg85
VC0DEED
p542
sbsg87
I0
sg88
V<a href="http://www.socialoomph.com" rel="nofollow">SocialOomph</a>
p543
sg90
(lp544
g3
(g92
g5
Ntp545
Rp546
(dp547
g96
Vhttp://t.co/7gmAZWw8RA
p548
sg98
Vhttp://dld.bz/dznfh
p549
sbasg84
I544199039924051968
sbag3
(g4
g5
Ntp550
Rp551
(dp552
g9
I0
sg10
Nsg11
Nsg12
(lp553
sg14
I00
sg15
Nsg16
Nsg17
(lp554
sg19
Nsg20
Nsg21
Nsg22
VSun Dec 14 18:20:10 +0000 2014
p555
sg24
Nsg25
I00
sg26
Nsg27
Nsg28
Nsg29
Nsg30
I00
sg31
Nsg32
(lp556
sg34
Nsg35
Nsg36
Nsg37
VEclectic &amp; timeless Al Hudson Omar Rebirth James Brown Aretha Franklin 4 Musicology lovers - Enjoy! Fitzroy http://t.co/f1t6NDRXKy
p557
sg39
I00
sg40
Ven
p558
sg42
g3
(g43
g5
Ntp559
Rp560
(dp561
g10
g47
sg48
V333333
p562
sg50
Ven
p563
sg52
Nsg53
I234
sg54
I14710
sg22
VMon Sep 24 09:26:03 +0000 2012
p564
sg56
I00
sg57
VBeen swimming deep in music from before I came out the womb and am blessed to have worked with various dj artists and music enthusiasts worldwide!!
p565
sg59
Vhttps://pbs.twimg.com/profile_images/517952242062991360/4_nOJdmT_normal.jpeg
p566
sg61
I341
sg62
I58
sg63
Nsg64
Nsg65
I00
sg66
Nsg67
I00
sg68
I00
sg69
V0084B4
p567
sg71
I00
sg72
I00
sg73
Vhttp://abs.twimg.com/images/themes/theme1/bg.png
p568
sg75
VFaceyFitzroy
p569
sg77
I4
sg78
VFitzroy Facey
p570
sg80
VDDEEF6
p571
sg82
Vhttp://t.co/dpdXk72SOD
p572
sg84
I843257142
sg85
VC0DEED
p573
sbsg87
I0
sg88
V<a href="http://www.socialoomph.com" rel="nofollow">SocialOomph</a>
p574
sg90
(lp575
g3
(g92
g5
Ntp576
Rp577
(dp578
g96
Vhttp://t.co/f1t6NDRXKy
p579
sg98
Vhttp://dld.bz/d2G5R
p580
sbasg84
I544195156355059713
sbag3
(g4
g5
Ntp581
Rp582
(dp583
g9
I0
sg10
Nsg11
Nsg12
(lp584
sg14
I00
sg15
Nsg16
Nsg17
(lp585
sg19
Nsg20
Nsg21
Nsg22
VSun Dec 14 18:15:24 +0000 2014
p586
sg24
Nsg25
I00
sg26
Nsg27
Nsg28
Nsg29
Nsg30
I00
sg31
Nsg32
(lp587
sg34
Nsg35
Nsg36
Nsg37
VEclectic Soul Surviving musical mix with inspiring musical messages thrown in 4 good measure MUSICOLOGY 11/11 http://t.co/PZ8qWevJGo
p588
sg39
I00
sg40
Ven
p589
sg42
g3
(g43
g5
Ntp590
Rp591
(dp592
g10
g47
sg48
V333333
p593
sg50
Ven
p594
sg52
Nsg53
I234
sg54
I14710
sg22
VMon Sep 24 09:26:03 +0000 2012
p595
sg56
I00
sg57
VBeen swimming deep in music from before I came out the womb and am blessed to have worked with various dj artists and music enthusiasts worldwide!!
p596
sg59
Vhttps://pbs.twimg.com/profile_images/517952242062991360/4_nOJdmT_normal.jpeg
p597
sg61
I341
sg62
I58
sg63
Nsg64
Nsg65
I00
sg66
Nsg67
I00
sg68
I00
sg69
V0084B4
p598
sg71
I00
sg72
I00
sg73
Vhttp://abs.twimg.com/images/themes/theme1/bg.png
p599
sg75
VFaceyFitzroy
p600
sg77
I4
sg78
VFitzroy Facey
p601
sg80
VDDEEF6
p602
sg82
Vhttp://t.co/dpdXk72SOD
p603
sg84
I843257142
sg85
VC0DEED
p604
sbsg87
I0
sg88
V<a href="http://www.socialoomph.com" rel="nofollow">SocialOomph</a>
p605
sg90
(lp606
g3
(g92
g5
Ntp607
Rp608
(dp609
g96
Vhttp://t.co/PZ8qWevJGo
p610
sg98
Vhttp://dld.bz/dzKfa
p611
sbasg84
I544193957098692608
sbag3
(g4
g5
Ntp612
Rp613
(dp614
g9
I0
sg10
Nsg11
Nsg12
(lp615
sg14
I00
sg15
Nsg16
Nsg17
(lp616
sg19
Nsg20
Nsg21
Nsg22
VSun Dec 14 17:57:21 +0000 2014
p617
sg24
Nsg25
I00
sg26
Nsg27
Nsg28
Nsg29
Nsg30
I00
sg31
Nsg32
(lp618
sg34
Nsg35
Nsg36
Nsg37
VMUSICOLOGY 9/12 uptempo disco some retro 80's splendor &amp; a jazz mix with old and new beats! Enjoy! Fitzroy http://t.co/vcNE5CqfEv
p619
sg39
I00
sg40
Ven
p620
sg42
g3
(g43
g5
Ntp621
Rp622
(dp623
g10
g47
sg48
V333333
p624
sg50
Ven
p625
sg52
Nsg53
I234
sg54
I14710
sg22
VMon Sep 24 09:26:03 +0000 2012
p626
sg56
I00
sg57
VBeen swimming deep in music from before I came out the womb and am blessed to have worked with various dj artists and music enthusiasts worldwide!!
p627
sg59
Vhttps://pbs.twimg.com/profile_images/517952242062991360/4_nOJdmT_normal.jpeg
p628
sg61
I341
sg62
I58
sg63
Nsg64
Nsg65
I00
sg66
Nsg67
I00
sg68
I00
sg69
V0084B4
p629
sg71
I00
sg72
I00
sg73
Vhttp://abs.twimg.com/images/themes/theme1/bg.png
p630
sg75
VFaceyFitzroy
p631
sg77
I4
sg78
VFitzroy Facey
p632
sg80
VDDEEF6
p633
sg82
Vhttp://t.co/dpdXk72SOD
p634
sg84
I843257142
sg85
VC0DEED
p635
sbsg87
I0
sg88
V<a href="http://www.socialoomph.com" rel="nofollow">SocialOomph</a>
p636
sg90
(lp637
g3
(g92
g5
Ntp638
Rp639
(dp640
g96
Vhttp://t.co/vcNE5CqfEv
p641
sg98
Vhttp://dld.bz/d33Xr
p642
sbasg84
I544189413295939584
sbag3
(g4
g5
Ntp643
Rp644
(dp645
g9
I0
sg10
Nsg11
Nsg12
(lp646
sg14
I00
sg15
Nsg16
Nsg17
(lp647
sg19
Nsg20
Nsg21
Nsg22
VSun Dec 14 17:40:18 +0000 2014
p648
sg24
Nsg25
I00
sg26
Nsg27
Nsg28
Nsg29
Nsg30
I00
sg31
Nsg32
(lp649
sg34
Nsg35
Nsg36
Nsg37
VFollow me and check out my past shows and mixes on Mixcloud http://t.co/ayscveUIli
p650
sg39
I00
sg40
Ven
p651
sg42
g3
(g43
g5
Ntp652
Rp653
(dp654
g10
g47
sg48
V333333
p655
sg50
Ven
p656
sg52
Nsg53
I234
sg54
I14710
sg22
VMon Sep 24 09:26:03 +0000 2012
p657
sg56
I00
sg57
VBeen swimming deep in music from before I came out the womb and am blessed to have worked with various dj artists and music enthusiasts worldwide!!
p658
sg59
Vhttps://pbs.twimg.com/profile_images/517952242062991360/4_nOJdmT_normal.jpeg
p659
sg61
I341
sg62
I58
sg63
Nsg64
Nsg65
I00
sg66
Nsg67
I00
sg68
I00
sg69
V0084B4
p660
sg71
I00
sg72
I00
sg73
Vhttp://abs.twimg.com/images/themes/theme1/bg.png
p661
sg75
VFaceyFitzroy
p662
sg77
I4
sg78
VFitzroy Facey
p663
sg80
VDDEEF6
p664
sg82
Vhttp://t.co/dpdXk72SOD
p665
sg84
I843257142
sg85
VC0DEED
p666
sbsg87
I0
sg88
V<a href="http://www.socialoomph.com" rel="nofollow">SocialOomph</a>
p667
sg90
(lp668
g3
(g92
g5
Ntp669
Rp670
(dp671
g96
Vhttp://t.co/ayscveUIli
p672
sg98
Vhttp://dld.bz/duTvG
p673
sbasg84
I544185122355179520
sbag3
(g4
g5
Ntp674
Rp675
(dp676
g9
I0
sg10
Nsg11
Nsg12
(lp677
sg14
I00
sg15
Nsg16
Nsg17
(lp678
(dp679
Vexpanded_url
p680
Vhttp://twitter.com/FaceyFitzroy/status/544184340264288256/photo/1
p681
sVdisplay_url
p682
Vpic.twitter.com/sYV272nnOE
p683
sVurl
p684
Vhttp://t.co/sYV272nnOE
p685
sVmedia_url_https
p686
Vhttps://pbs.twimg.com/media/B41Uxi9IMAE4vDo.png
p687
sVid_str
p688
V544184340155215873
p689
sVsizes
p690
(dp691
Vlarge
p692
(dp693
Vh
p694
I421
sVresize
p695
Vfit
p696
sVw
p697
I298
ssVsmall
p698
(dp699
Vh
p700
I421
sVresize
p701
Vfit
p702
sVw
p703
I298
ssVmedium
p704
(dp705
Vh
p706
I421
sVresize
p707
Vfit
p708
sVw
p709
I298
ssVthumb
p710
(dp711
Vh
p712
I150
sVresize
p713
Vcrop
p714
sVw
p715
I150
sssVindices
p716
(lp717
I88
aI110
asVtype
p718
Vphoto
p719
sVid
p720
I544184340155215873
sVmedia_url
p721
Vhttp://pbs.twimg.com/media/B41Uxi9IMAE4vDo.png
p722
sasg19
Nsg20
Nsg21
Nsg22
VSun Dec 14 17:37:11 +0000 2014
p723
sg24
Nsg25
I00
sg26
Nsg27
Nsg28
Nsg29
Nsg30
I00
sg31
Nsg32
(lp724
sg34
Nsg35
Nsg36
Nsg37
VIssue 56 of the Soul Survivors Magazine NOV/DEC 2014 is out now! http://t.co/QLJMvFcPhw http://t.co/sYV272nnOE
p725
sg39
I00
sg40
Ven
p726
sg42
g3
(g43
g5
Ntp727
Rp728
(dp729
g10
g47
sg48
V333333
p730
sg50
Ven
p731
sg52
Nsg53
I234
sg54
I14710
sg22
VMon Sep 24 09:26:03 +0000 2012
p732
sg56
I00
sg57
VBeen swimming deep in music from before I came out the womb and am blessed to have worked with various dj artists and music enthusiasts worldwide!!
p733
sg59
Vhttps://pbs.twimg.com/profile_images/517952242062991360/4_nOJdmT_normal.jpeg
p734
sg61
I341
sg62
I58
sg63
Nsg64
Nsg65
I00
sg66
Nsg67
I00
sg68
I00
sg69
V0084B4
p735
sg71
I00
sg72
I00
sg73
Vhttp://abs.twimg.com/images/themes/theme1/bg.png
p736
sg75
VFaceyFitzroy
p737
sg77
I4
sg78
VFitzroy Facey
p738
sg80
VDDEEF6
p739
sg82
Vhttp://t.co/dpdXk72SOD
p740
sg84
I843257142
sg85
VC0DEED
p741
sbsg87
I0
sg88
V<a href="http://www.socialoomph.com" rel="nofollow">SocialOomph</a>
p742
sg90
(lp743
g3
(g92
g5
Ntp744
Rp745
(dp746
g96
Vhttp://t.co/QLJMvFcPhw
p747
sg98
Vhttp://dld.bz/duNvf
p748
sbasg84
I544184340264288256
sbag3
(g4
g5
Ntp749
Rp750
(dp751
g9
I0
sg10
Nsg11
Nsg12
(lp752
sg14
I00
sg15
Nsg16
Nsg17
(lp753
(dp754
Vexpanded_url
p755
Vhttp://twitter.com/FaceyFitzroy/status/544183151833399296/photo/1
p756
sVdisplay_url
p757
Vpic.twitter.com/eEkTcilAF3
p758
sVurl
p759
Vhttp://t.co/eEkTcilAF3
p760
sVmedia_url_https
p761
Vhttps://pbs.twimg.com/media/B41TsX4IYAAa42P.png
p762
sVid_str
p763
V544183151770492928
p764
sVsizes
p765
(dp766
Vlarge
p767
(dp768
Vh
p769
I301
sVresize
p770
Vfit
p771
sVw
p772
I302
ssVsmall
p773
(dp774
Vh
p775
I301
sVresize
p776
Vfit
p777
sVw
p778
I302
ssVmedium
p779
(dp780
Vh
p781
I301
sVresize
p782
Vfit
p783
sVw
p784
I302
ssVthumb
p785
(dp786
Vh
p787
I150
sVresize
p788
Vcrop
p789
sVw
p790
I150
sssVindices
p791
(lp792
I103
aI125
asVtype
p793
Vphoto
p794
sVid
p795
I544183151770492928
sVmedia_url
p796
Vhttp://pbs.twimg.com/media/B41TsX4IYAAa42P.png
p797
sasg19
Nsg20
Nsg21
Nsg22
VSun Dec 14 17:32:28 +0000 2014
p798
sg24
Nsg25
I00
sg26
Nsg27
Nsg28
Nsg29
Nsg30
I00
sg31
Nsg32
(lp799
sg34
Nsg35
Nsg36
Nsg37
VSoul Brothers &amp; Soul Sisters hear my Soul Survivin' set @ Novotel Stevenage http://t.co/HoWRW9EeyT http://t.co/eEkTcilAF3
p800
sg39
I00
sg40
Ven
p801
sg42
g3
(g43
g5
Ntp802
Rp803
(dp804
g10
g47
sg48
V333333
p805
sg50
Ven
p806
sg52
Nsg53
I234
sg54
I14710
sg22
VMon Sep 24 09:26:03 +0000 2012
p807
sg56
I00
sg57
VBeen swimming deep in music from before I came out the womb and am blessed to have worked with various dj artists and music enthusiasts worldwide!!
p808
sg59
Vhttps://pbs.twimg.com/profile_images/517952242062991360/4_nOJdmT_normal.jpeg
p809
sg61
I341
sg62
I58
sg63
Nsg64
Nsg65
I00
sg66
Nsg67
I00
sg68
I00
sg69
V0084B4
p810
sg71
I00
sg72
I00
sg73
Vhttp://abs.twimg.com/images/themes/theme1/bg.png
p811
sg75
VFaceyFitzroy
p812
sg77
I4
sg78
VFitzroy Facey
p813
sg80
VDDEEF6
p814
sg82
Vhttp://t.co/dpdXk72SOD
p815
sg84
I843257142
sg85
VC0DEED
p816
sbsg87
I0
sg88
V<a href="http://www.socialoomph.com" rel="nofollow">SocialOomph</a>
p817
sg90
(lp818
g3
(g92
g5
Ntp819
Rp820
(dp821
g96
Vhttp://t.co/HoWRW9EeyT
p822
sg98
Vhttp://dld.bz/dyHmm
p823
sbasg84
I544183151833399296
sbag3
(g4
g5
Ntp824
Rp825
(dp826
g9
I0
sg10
Nsg11
Nsg12
(lp827
sg14
I00
sg15
Nsg16
Nsg17
(lp828
sg19
Nsg20
Nsg21
Nsg22
VSun Dec 14 17:30:49 +0000 2014
p829
sg24
Nsg25
I00
sg26
Nsg27
Nsg28
Nsg29
Nsg30
I00
sg31
Nsg32
(lp830
sg34
Nsg35
Nsg36
Nsg37
VU can book Fitzroy The Original Soul Survivor for your Soul Funk Jazz Boogie event contact me on my FB page http://t.co/CcNCphV2ey
p831
sg39
I00
sg40
Ven
p832
sg42
g3
(g43
g5
Ntp833
Rp834
(dp835
g10
g47
sg48
V333333
p836
sg50
Ven
p837
sg52
Nsg53
I234
sg54
I14710
sg22
VMon Sep 24 09:26:03 +0000 2012
p838
sg56
I00
sg57
VBeen swimming deep in music from before I came out the womb and am blessed to have worked with various dj artists and music enthusiasts worldwide!!
p839
sg59
Vhttps://pbs.twimg.com/profile_images/517952242062991360/4_nOJdmT_normal.jpeg
p840
sg61
I341
sg62
I58
sg63
Nsg64
Nsg65
I00
sg66
Nsg67
I00
sg68
I00
sg69
V0084B4
p841
sg71
I00
sg72
I00
sg73
Vhttp://abs.twimg.com/images/themes/theme1/bg.png
p842
sg75
VFaceyFitzroy
p843
sg77
I4
sg78
VFitzroy Facey
p844
sg80
VDDEEF6
p845
sg82
Vhttp://t.co/dpdXk72SOD
p846
sg84
I843257142
sg85
VC0DEED
p847
sbsg87
I0
sg88
V<a href="http://www.socialoomph.com" rel="nofollow">SocialOomph</a>
p848
sg90
(lp849
g3
(g92
g5
Ntp850
Rp851
(dp852
g96
Vhttp://t.co/CcNCphV2ey
p853
sg98
Vhttp://dld.bz/duNu9
p854
sbasg84
I544182737071247360
sbag3
(g4
g5
Ntp855
Rp856
(dp857
g9
I0
sg10
Nsg11
Nsg12
(lp858
sg14
I00
sg15
Nsg16
Nsg17
(lp859
sg19
Nsg20
Nsg21
Nsg22
VSun Dec 14 17:18:13 +0000 2014
p860
sg24
Nsg25
I00
sg26
Nsg27
Nsg28
Nsg29
Nsg30
I00
sg31
Nsg32
(lp861
sg34
Nsg35
Nsg36
Nsg37
VEclectic selection of yesteryear dance floor classics in preparation for Twice As Nice's January 1st gig 2015 http://t.co/Lt7zI61afQ
p862
sg39
I00
sg40
Ven
p863
sg42
g3
(g43
g5
Ntp864
Rp865
(dp866
g10
g47
sg48
V333333
p867
sg50
Ven
p868
sg52
Nsg53
I234
sg54
I14710
sg22
VMon Sep 24 09:26:03 +0000 2012
p869
sg56
I00
sg57
VBeen swimming deep in music from before I came out the womb and am blessed to have worked with various dj artists and music enthusiasts worldwide!!
p870
sg59
Vhttps://pbs.twimg.com/profile_images/517952242062991360/4_nOJdmT_normal.jpeg
p871
sg61
I341
sg62
I58
sg63
Nsg64
Nsg65
I00
sg66
Nsg67
I00
sg68
I00
sg69
V0084B4
p872
sg71
I00
sg72
I00
sg73
Vhttp://abs.twimg.com/images/themes/theme1/bg.png
p873
sg75
VFaceyFitzroy
p874
sg77
I4
sg78
VFitzroy Facey
p875
sg80
VDDEEF6
p876
sg82
Vhttp://t.co/dpdXk72SOD
p877
sg84
I843257142
sg85
VC0DEED
p878
sbsg87
I0
sg88
V<a href="http://www.socialoomph.com" rel="nofollow">SocialOomph</a>
p879
sg90
(lp880
g3
(g92
g5
Ntp881
Rp882
(dp883
g96
Vhttp://t.co/Lt7zI61afQ
p884
sg98
Vhttp://dld.bz/d3MTp
p885
sbasg84
I544179564726222849
sbag3
(g4
g5
Ntp886
Rp887
(dp888
g9
I0
sg10
Nsg11
Nsg12
(lp889
sg14
I00
sg15
Nsg16
Nsg17
(lp890
sg19
Nsg20
Nsg21
Nsg22
VSun Dec 14 17:10:41 +0000 2014
p891
sg24
Nsg25
I00
sg26
Nsg27
Nsg28
Nsg29
Nsg30
I00
sg31
Nsg32
(lp892
sg34
Nsg35
Nsg36
Nsg37
VThrowback to my Robbie Vincent Soul Surviving Special from 2011 - 1st hour on Stomp Radio - Enjoy! Fitzroy http://t.co/z5lM7GlmsL
p893
sg39
I00
sg40
Ven
p894
sg42
g3
(g43
g5
Ntp895
Rp896
(dp897
g10
g47
sg48
V333333
p898
sg50
Ven
p899
sg52
Nsg53
I234
sg54
I14710
sg22
VMon Sep 24 09:26:03 +0000 2012
p900
sg56
I00
sg57
VBeen swimming deep in music from before I came out the womb and am blessed to have worked with various dj artists and music enthusiasts worldwide!!
p901
sg59
Vhttps://pbs.twimg.com/profile_images/517952242062991360/4_nOJdmT_normal.jpeg
p902
sg61
I341
sg62
I58
sg63
Nsg64
Nsg65
I00
sg66
Nsg67
I00
sg68
I00
sg69
V0084B4
p903
sg71
I00
sg72
I00
sg73
Vhttp://abs.twimg.com/images/themes/theme1/bg.png
p904
sg75
VFaceyFitzroy
p905
sg77
I4
sg78
VFitzroy Facey
p906
sg80
VDDEEF6
p907
sg82
Vhttp://t.co/dpdXk72SOD
p908
sg84
I843257142
sg85
VC0DEED
p909
sbsg87
I0
sg88
V<a href="http://www.socialoomph.com" rel="nofollow">SocialOomph</a>
p910
sg90
(lp911
g3
(g92
g5
Ntp912
Rp913
(dp914
g96
Vhttp://t.co/z5lM7GlmsL
p915
sg98
Vhttp://dld.bz/d3MTc
p916
sbasg84
I544177670368821248
sbag3
(g4
g5
Ntp917
Rp918
(dp919
g9
I0
sg10
Nsg11
Nsg12
(lp920
sg14
I00
sg15
Nsg16
Nsg17
(lp921
sg19
Nsg20
Nsg21
Nsg22
VSun Dec 14 17:05:35 +0000 2014
p922
sg24
Nsg25
I00
sg26
Nsg27
Nsg28
Nsg29
Nsg30
I00
sg31
Nsg32
(lp923
sg34
Nsg35
Nsg36
Nsg37
VWe are the info provider for the Soul Survivor! http://t.co/LnoIkgeWSY
p924
sg39
I00
sg40
Ven
p925
sg42
g3
(g43
g5
Ntp926
Rp927
(dp928
g10
g47
sg48
V333333
p929
sg50
Ven
p930
sg52
Nsg53
I234
sg54
I14710
sg22
VMon Sep 24 09:26:03 +0000 2012
p931
sg56
I00
sg57
VBeen swimming deep in music from before I came out the womb and am blessed to have worked with various dj artists and music enthusiasts worldwide!!
p932
sg59
Vhttps://pbs.twimg.com/profile_images/517952242062991360/4_nOJdmT_normal.jpeg
p933
sg61
I341
sg62
I58
sg63
Nsg64
Nsg65
I00
sg66
Nsg67
I00
sg68
I00
sg69
V0084B4
p934
sg71
I00
sg72
I00
sg73
Vhttp://abs.twimg.com/images/themes/theme1/bg.png
p935
sg75
VFaceyFitzroy
p936
sg77
I4
sg78
VFitzroy Facey
p937
sg80
VDDEEF6
p938
sg82
Vhttp://t.co/dpdXk72SOD
p939
sg84
I843257142
sg85
VC0DEED
p940
sbsg87
I0
sg88
V<a href="http://www.socialoomph.com" rel="nofollow">SocialOomph</a>
p941
sg90
(lp942
g3
(g92
g5
Ntp943
Rp944
(dp945
g96
Vhttp://t.co/LnoIkgeWSY
p946
sg98
Vhttp://dld.bz/d2kuw
p947
sbasg84
I544176385213100032
sbaa.