(lp0
S'8inch8'
p1
a(lp2
ccopy_reg
_reconstructor
p3
(ctwitter
Status
p4
c__builtin__
object
p5
Ntp6
Rp7
(dp8
S'_favorite_count'
p9
I4
sS'_location'
p10
NsS'_withheld_scope'
p11
NsS'hashtags'
p12
(lp13
sS'_truncated'
p14
I00
sS'_retweeted_status'
p15
NsS'_withheld_copyright'
p16
NsS'media'
p17
(lp18
sS'_place'
p19
NsS'_contributors'
p20
NsS'_current_user_retweet'
p21
NsS'_created_at'
p22
VSun Dec 14 20:24:42 +0000 2014
p23
sS'_scopes'
p24
NsS'_possibly_sensitive'
p25
NsS'_in_reply_to_screen_name'
p26
NsS'_coordinates'
p27
NsS'_in_reply_to_user_id'
p28
NsS'_geo'
p29
NsS'_favorited'
p30
I00
sS'_withheld_in_countries'
p31
NsS'user_mentions'
p32
(lp33
sS'_now'
p34
NsS'_id_str'
p35
V544226494747529216
p36
sS'_in_reply_to_status_id'
p37
NsS'_text'
p38
VTurned on SPOTY at the right time. Gareth Bale followed by Max Whitlock
p39
sS'_retweeted'
p40
I00
sS'lang'
p41
Ven
p42
sS'_user'
p43
g3
(ctwitter
User
p44
g5
Ntp45
Rp46
(dp47
g10
VNottingham UK
p48
sS'_profile_text_color'
p49
V333333
p50
sS'_lang'
p51
Ven
p52
sS'_time_zone'
p53
VLondon
p54
sS'_followers_count'
p55
I58679
sS'_statuses_count'
p56
I14758
sg22
VThu Nov 24 16:25:05 +0000 2011
p57
sS'_verified'
p58
I00
sS'_description'
p59
VEnglish bi guy who likes to get naked. Join me?\u000ahttp://t.co/4mt4eT4rBe\u000aXTube http://t.co/1PN6LtfP4o\u000aFollow @TwinksAndStuds
p60
sS'_profile_image_url'
p61
Vhttps://pbs.twimg.com/profile_images/523249807633035265/SVH7dgR4_normal.jpeg
p62
sS'_friends_count'
p63
I18723
sS'_favourites_count'
p64
I7931
sS'_utc_offset'
p65
I0
sS'_status'
p66
NsS'_protected'
p67
I00
sS'_profile_banner_url'
p68
Vhttps://pbs.twimg.com/profile_banners/420429774/1413587464
p69
sS'_notifications'
p70
I00
sS'_profile_background_tile'
p71
I01
sS'_profile_link_color'
p72
V0084B4
p73
sS'_geo_enabled'
p74
I00
sS'_contributors_enabled'
p75
I00
sS'_profile_background_image_url'
p76
Vhttp://pbs.twimg.com/profile_background_images/523370556603641856/rQUzLfcR.jpeg
p77
sS'_screen_name'
p78
V8inch8
p79
sS'_listed_count'
p80
I241
sS'_name'
p81
V8inch8
p82
sS'_profile_sidebar_fill_color'
p83
VDDEEF6
p84
sS'_url'
p85
Vhttp://t.co/EVR3pyjAej
p86
sS'_id'
p87
I420429774
sS'_profile_background_color'
p88
VC0DEED
p89
sbsS'_retweet_count'
p90
I0
sS'_source'
p91
V<a href="http://www.tweetcaster.com" rel="nofollow">TweetCaster for Android</a>
p92
sS'urls'
p93
(lp94
sg87
I544226494747529216
sbag3
(g4
g5
Ntp95
Rp96
(dp97
g9
I1
sg10
Nsg11
Nsg12
(lp98
sg14
I00
sg15
Nsg16
Nsg17
(lp99
sg19
Nsg20
Nsg21
Nsg22
VSun Dec 14 17:17:05 +0000 2014
p100
sg24
Nsg25
Nsg26
Vcjm9891
p101
sg27
Nsg28
I22034751
sg29
Nsg30
I00
sg31
Nsg32
(lp102
g3
(g44
g5
Ntp103
Rp104
(dp105
g10
Nsg49
Nsg51
Nsg53
Nsg55
Nsg56
Nsg22
Nsg58
Nsg59
Nsg61
Nsg63
Nsg64
Nsg65
Nsg66
Nsg67
Nsg68
Nsg70
Nsg71
Nsg72
Nsg74
Nsg75
Nsg76
Nsg78
Vcjm9891
p106
sg80
Nsg81
Visaac
p107
sg83
Nsg85
Nsg87
I22034751
sg88
Nsbasg34
Nsg35
V544179280629219328
p108
sg37
I544140606004809729
sg38
V@cjm9891 maybe for some but 10/1 is a big enough return for me *opens champers* =]
p109
sg40
I00
sg41
Ven
p110
sg43
g3
(g44
g5
Ntp111
Rp112
(dp113
g10
VNottingham UK
p114
sg49
V333333
p115
sg51
Ven
p116
sg53
VLondon
p117
sg55
I58679
sg56
I14758
sg22
VThu Nov 24 16:25:05 +0000 2011
p118
sg58
I00
sg59
VEnglish bi guy who likes to get naked. Join me?\u000ahttp://t.co/4mt4eT4rBe\u000aXTube http://t.co/1PN6LtfP4o\u000aFollow @TwinksAndStuds
p119
sg61
Vhttps://pbs.twimg.com/profile_images/523249807633035265/SVH7dgR4_normal.jpeg
p120
sg63
I18723
sg64
I7931
sg65
I0
sg66
Nsg67
I00
sg68
Vhttps://pbs.twimg.com/profile_banners/420429774/1413587464
p121
sg70
I00
sg71
I01
sg72
V0084B4
p122
sg74
I00
sg75
I00
sg76
Vhttp://pbs.twimg.com/profile_background_images/523370556603641856/rQUzLfcR.jpeg
p123
sg78
V8inch8
p124
sg80
I241
sg81
V8inch8
p125
sg83
VDDEEF6
p126
sg85
Vhttp://t.co/EVR3pyjAej
p127
sg87
I420429774
sg88
VC0DEED
p128
sbsg90
I0
sg91
V<a href="https://about.twitter.com/products/tweetdeck" rel="nofollow">TweetDeck</a>
p129
sg93
(lp130
sg87
I544179280629219328
sbag3
(g4
g5
Ntp131
Rp132
(dp133
g9
I0
sg10
Nsg11
Nsg12
(lp134
sg14
I00
sg15
Nsg16
Nsg17
(lp135
sg19
Nsg20
Nsg21
Nsg22
VSun Dec 14 14:03:35 +0000 2014
p136
sg24
Nsg25
Nsg26
Vrjakesuk
p137
sg27
Nsg28
I28967856
sg29
Nsg30
I00
sg31
Nsg32
(lp138
g3
(g44
g5
Ntp139
Rp140
(dp141
g10
Nsg49
Nsg51
Nsg53
Nsg55
Nsg56
Nsg22
Nsg58
Nsg59
Nsg61
Nsg63
Nsg64
Nsg65
Nsg66
Nsg67
Nsg68
Nsg70
Nsg71
Nsg72
Nsg74
Nsg75
Nsg76
Nsg78
Vrjakesuk
p142
sg80
Nsg81
VRob 
p143
sg83
Nsg85
Nsg87
I28967856
sg88
Nsbasg34
Nsg35
V544130583476305922
p144
sg37
I543846565161754624
sg38
V@rjakesuk yeh very hot!
p145
sg40
I00
sg41
Ven
p146
sg43
g3
(g44
g5
Ntp147
Rp148
(dp149
g10
VNottingham UK
p150
sg49
V333333
p151
sg51
Ven
p152
sg53
VLondon
p153
sg55
I58679
sg56
I14758
sg22
VThu Nov 24 16:25:05 +0000 2011
p154
sg58
I00
sg59
VEnglish bi guy who likes to get naked. Join me?\u000ahttp://t.co/4mt4eT4rBe\u000aXTube http://t.co/1PN6LtfP4o\u000aFollow @TwinksAndStuds
p155
sg61
Vhttps://pbs.twimg.com/profile_images/523249807633035265/SVH7dgR4_normal.jpeg
p156
sg63
I18723
sg64
I7931
sg65
I0
sg66
Nsg67
I00
sg68
Vhttps://pbs.twimg.com/profile_banners/420429774/1413587464
p157
sg70
I00
sg71
I01
sg72
V0084B4
p158
sg74
I00
sg75
I00
sg76
Vhttp://pbs.twimg.com/profile_background_images/523370556603641856/rQUzLfcR.jpeg
p159
sg78
V8inch8
p160
sg80
I241
sg81
V8inch8
p161
sg83
VDDEEF6
p162
sg85
Vhttp://t.co/EVR3pyjAej
p163
sg87
I420429774
sg88
VC0DEED
p164
sbsg90
I0
sg91
V<a href="https://about.twitter.com/products/tweetdeck" rel="nofollow">TweetDeck</a>
p165
sg93
(lp166
sg87
I544130583476305922
sbag3
(g4
g5
Ntp167
Rp168
(dp169
g9
I0
sg10
Nsg11
Nsg12
(lp170
sg14
I00
sg15
Nsg16
Nsg17
(lp171
sg19
Nsg20
Nsg21
Nsg22
VSun Dec 14 14:02:05 +0000 2014
p172
sg24
Nsg25
Nsg26
Vcjm9891
p173
sg27
Nsg28
I22034751
sg29
Nsg30
I00
sg31
Nsg32
(lp174
g3
(g44
g5
Ntp175
Rp176
(dp177
g10
Nsg49
Nsg51
Nsg53
Nsg55
Nsg56
Nsg22
Nsg58
Nsg59
Nsg61
Nsg63
Nsg64
Nsg65
Nsg66
Nsg67
Nsg68
Nsg70
Nsg71
Nsg72
Nsg74
Nsg75
Nsg76
Nsg78
Vcjm9891
p178
sg80
Nsg81
Visaac
p179
sg83
Nsg85
Nsg87
I22034751
sg88
Nsbasg34
Nsg35
V544130205724717057
p180
sg37
I543834980708007937
sg38
V@cjm9891 huh it's not about backing the longest odds it's about backing winners! Which they all are so far ;]
p181
sg40
I00
sg41
Ven
p182
sg43
g3
(g44
g5
Ntp183
Rp184
(dp185
g10
VNottingham UK
p186
sg49
V333333
p187
sg51
Ven
p188
sg53
VLondon
p189
sg55
I58679
sg56
I14758
sg22
VThu Nov 24 16:25:05 +0000 2011
p190
sg58
I00
sg59
VEnglish bi guy who likes to get naked. Join me?\u000ahttp://t.co/4mt4eT4rBe\u000aXTube http://t.co/1PN6LtfP4o\u000aFollow @TwinksAndStuds
p191
sg61
Vhttps://pbs.twimg.com/profile_images/523249807633035265/SVH7dgR4_normal.jpeg
p192
sg63
I18723
sg64
I7931
sg65
I0
sg66
Nsg67
I00
sg68
Vhttps://pbs.twimg.com/profile_banners/420429774/1413587464
p193
sg70
I00
sg71
I01
sg72
V0084B4
p194
sg74
I00
sg75
I00
sg76
Vhttp://pbs.twimg.com/profile_background_images/523370556603641856/rQUzLfcR.jpeg
p195
sg78
V8inch8
p196
sg80
I241
sg81
V8inch8
p197
sg83
VDDEEF6
p198
sg85
Vhttp://t.co/EVR3pyjAej
p199
sg87
I420429774
sg88
VC0DEED
p200
sbsg90
I0
sg91
V<a href="https://about.twitter.com/products/tweetdeck" rel="nofollow">TweetDeck</a>
p201
sg93
(lp202
sg87
I544130205724717057
sbag3
(g4
g5
Ntp203
Rp204
(dp205
g9
I6
sg10
Nsg11
Nsg12
(lp206
sg14
I00
sg15
Nsg16
Nsg17
(lp207
sg19
Nsg20
Nsg21
Nsg22
VSun Dec 14 13:50:33 +0000 2014
p208
sg24
Nsg25
I00
sg26
Nsg27
Nsg28
Nsg29
Nsg30
I00
sg31
Nsg32
(lp209
sg34
Nsg35
V544127304226836480
p210
sg37
Nsg38
VTips to stay in shape over xmas - Men's Fitness UK http://t.co/acy17rgpIh
p211
sg40
I00
sg41
Ven
p212
sg43
g3
(g44
g5
Ntp213
Rp214
(dp215
g10
VNottingham UK
p216
sg49
V333333
p217
sg51
Ven
p218
sg53
VLondon
p219
sg55
I58679
sg56
I14758
sg22
VThu Nov 24 16:25:05 +0000 2011
p220
sg58
I00
sg59
VEnglish bi guy who likes to get naked. Join me?\u000ahttp://t.co/4mt4eT4rBe\u000aXTube http://t.co/1PN6LtfP4o\u000aFollow @TwinksAndStuds
p221
sg61
Vhttps://pbs.twimg.com/profile_images/523249807633035265/SVH7dgR4_normal.jpeg
p222
sg63
I18723
sg64
I7931
sg65
I0
sg66
Nsg67
I00
sg68
Vhttps://pbs.twimg.com/profile_banners/420429774/1413587464
p223
sg70
I00
sg71
I01
sg72
V0084B4
p224
sg74
I00
sg75
I00
sg76
Vhttp://pbs.twimg.com/profile_background_images/523370556603641856/rQUzLfcR.jpeg
p225
sg78
V8inch8
p226
sg80
I241
sg81
V8inch8
p227
sg83
VDDEEF6
p228
sg85
Vhttp://t.co/EVR3pyjAej
p229
sg87
I420429774
sg88
VC0DEED
p230
sbsg90
I2
sg91
V<a href="https://about.twitter.com/products/tweetdeck" rel="nofollow">TweetDeck</a>
p231
sg93
(lp232
g3
(ctwitter
Url
p233
g5
Ntp234
Rp235
(dp236
S'url'
p237
Vhttp://t.co/acy17rgpIh
p238
sS'expanded_url'
p239
Vhttp://www.mensfitness.co.uk/lifestyle/4156/how-to-survive-christmas-the-ultimate-guide?_mout=1&utm_campaign=newsletter&utm_medium=email&utm_source=newsletter#.VI2VUYiFLSs.twitter
p240
sbasg87
I544127304226836480
sbag3
(g4
g5
Ntp241
Rp242
(dp243
g9
I0
sg10
Nsg11
Nsg12
(lp244
sg14
I00
sg15
Nsg16
Nsg17
(lp245
sg19
Nsg20
Nsg21
Nsg22
VSun Dec 14 13:47:30 +0000 2014
p246
sg24
Nsg25
Nsg26
Vkyliebum89
p247
sg27
Nsg28
I1689667592
sg29
Nsg30
I00
sg31
Nsg32
(lp248
g3
(g44
g5
Ntp249
Rp250
(dp251
g10
Nsg49
Nsg51
Nsg53
Nsg55
Nsg56
Nsg22
Nsg58
Nsg59
Nsg61
Nsg63
Nsg64
Nsg65
Nsg66
Nsg67
Nsg68
Nsg70
Nsg71
Nsg72
Nsg74
Nsg75
Nsg76
Nsg78
Vkyliebum89
p252
sg80
Nsg81
Vkylie
p253
sg83
Nsg85
Nsg87
I1689667592
sg88
Nsbasg34
Nsg35
V544126535616458754
p254
sg37
I544110706795487232
sg38
V@kyliebum89 nice =P
p255
sg40
I00
sg41
Ven
p256
sg43
g3
(g44
g5
Ntp257
Rp258
(dp259
g10
VNottingham UK
p260
sg49
V333333
p261
sg51
Ven
p262
sg53
VLondon
p263
sg55
I58679
sg56
I14758
sg22
VThu Nov 24 16:25:05 +0000 2011
p264
sg58
I00
sg59
VEnglish bi guy who likes to get naked. Join me?\u000ahttp://t.co/4mt4eT4rBe\u000aXTube http://t.co/1PN6LtfP4o\u000aFollow @TwinksAndStuds
p265
sg61
Vhttps://pbs.twimg.com/profile_images/523249807633035265/SVH7dgR4_normal.jpeg
p266
sg63
I18723
sg64
I7931
sg65
I0
sg66
Nsg67
I00
sg68
Vhttps://pbs.twimg.com/profile_banners/420429774/1413587464
p267
sg70
I00
sg71
I01
sg72
V0084B4
p268
sg74
I00
sg75
I00
sg76
Vhttp://pbs.twimg.com/profile_background_images/523370556603641856/rQUzLfcR.jpeg
p269
sg78
V8inch8
p270
sg80
I241
sg81
V8inch8
p271
sg83
VDDEEF6
p272
sg85
Vhttp://t.co/EVR3pyjAej
p273
sg87
I420429774
sg88
VC0DEED
p274
sbsg90
I0
sg91
V<a href="https://about.twitter.com/products/tweetdeck" rel="nofollow">TweetDeck</a>
p275
sg93
(lp276
sg87
I544126535616458754
sbag3
(g4
g5
Ntp277
Rp278
(dp279
g9
I24
sg10
Nsg11
Nsg12
(lp280
sg14
I00
sg15
Nsg16
Nsg17
(lp281
sg19
Nsg20
Nsg21
Nsg22
VSun Dec 14 12:15:19 +0000 2014
p282
sg24
Nsg25
Nsg26
Nsg27
Nsg28
Nsg29
Nsg30
I00
sg31
Nsg32
(lp283
sg34
Nsg35
V544103338502262784
p284
sg37
Nsg38
VHappy to be sent nudes today. Just saying
p285
sg40
I00
sg41
Ven
p286
sg43
g3
(g44
g5
Ntp287
Rp288
(dp289
g10
VNottingham UK
p290
sg49
V333333
p291
sg51
Ven
p292
sg53
VLondon
p293
sg55
I58679
sg56
I14758
sg22
VThu Nov 24 16:25:05 +0000 2011
p294
sg58
I00
sg59
VEnglish bi guy who likes to get naked. Join me?\u000ahttp://t.co/4mt4eT4rBe\u000aXTube http://t.co/1PN6LtfP4o\u000aFollow @TwinksAndStuds
p295
sg61
Vhttps://pbs.twimg.com/profile_images/523249807633035265/SVH7dgR4_normal.jpeg
p296
sg63
I18723
sg64
I7931
sg65
I0
sg66
Nsg67
I00
sg68
Vhttps://pbs.twimg.com/profile_banners/420429774/1413587464
p297
sg70
I00
sg71
I01
sg72
V0084B4
p298
sg74
I00
sg75
I00
sg76
Vhttp://pbs.twimg.com/profile_background_images/523370556603641856/rQUzLfcR.jpeg
p299
sg78
V8inch8
p300
sg80
I241
sg81
V8inch8
p301
sg83
VDDEEF6
p302
sg85
Vhttp://t.co/EVR3pyjAej
p303
sg87
I420429774
sg88
VC0DEED
p304
sbsg90
I6
sg91
V<a href="https://about.twitter.com/products/tweetdeck" rel="nofollow">TweetDeck</a>
p305
sg93
(lp306
sg87
I544103338502262784
sbag3
(g4
g5
Ntp307
Rp308
(dp309
g9
I36
sg10
Nsg11
Nsg12
(lp310
sg14
I00
sg15
Nsg16
Nsg17
(lp311
sg19
Nsg20
Nsg21
Nsg22
VSat Dec 13 22:35:37 +0000 2014
p312
sg24
Nsg25
I00
sg26
Nsg27
Nsg28
Nsg29
Nsg30
I00
sg31
Nsg32
(lp313
sg34
Nsg35
V543897053831901185
p314
sg37
Nsg38
VPhoto: It\u2019s always fun finding out how many inches they can take ;] http://t.co/n5NZZ45Xly
p315
sg40
I00
sg41
Ven
p316
sg43
g3
(g44
g5
Ntp317
Rp318
(dp319
g10
VNottingham UK
p320
sg49
V333333
p321
sg51
Ven
p322
sg53
VLondon
p323
sg55
I58679
sg56
I14758
sg22
VThu Nov 24 16:25:05 +0000 2011
p324
sg58
I00
sg59
VEnglish bi guy who likes to get naked. Join me?\u000ahttp://t.co/4mt4eT4rBe\u000aXTube http://t.co/1PN6LtfP4o\u000aFollow @TwinksAndStuds
p325
sg61
Vhttps://pbs.twimg.com/profile_images/523249807633035265/SVH7dgR4_normal.jpeg
p326
sg63
I18723
sg64
I7931
sg65
I0
sg66
Nsg67
I00
sg68
Vhttps://pbs.twimg.com/profile_banners/420429774/1413587464
p327
sg70
I00
sg71
I01
sg72
V0084B4
p328
sg74
I00
sg75
I00
sg76
Vhttp://pbs.twimg.com/profile_background_images/523370556603641856/rQUzLfcR.jpeg
p329
sg78
V8inch8
p330
sg80
I241
sg81
V8inch8
p331
sg83
VDDEEF6
p332
sg85
Vhttp://t.co/EVR3pyjAej
p333
sg87
I420429774
sg88
VC0DEED
p334
sbsg90
I5
sg91
V<a href="http://www.tumblr.com/" rel="nofollow">Tumblr</a>
p335
sg93
(lp336
g3
(g233
g5
Ntp337
Rp338
(dp339
g237
Vhttp://t.co/n5NZZ45Xly
p340
sg239
Vhttp://tmblr.co/ZrHy1n1XvlWX1
p341
sbasg87
I543897053831901185
sbag3
(g4
g5
Ntp342
Rp343
(dp344
g9
I4
sg10
Nsg11
Nsg12
(lp345
sg14
I00
sg15
Nsg16
Nsg17
(lp346
sg19
Nsg20
Nsg21
Nsg22
VSat Dec 13 18:23:05 +0000 2014
p347
sg24
Nsg25
I00
sg26
Nsg27
Nsg28
Nsg29
Nsg30
I00
sg31
Nsg32
(lp348
g3
(g44
g5
Ntp349
Rp350
(dp351
g10
Nsg49
Nsg51
Nsg53
Nsg55
Nsg56
Nsg22
Nsg58
Nsg59
Nsg61
Nsg63
Nsg64
Nsg65
Nsg66
Nsg67
Nsg68
Nsg70
Nsg71
Nsg72
Nsg74
Nsg75
Nsg76
Nsg78
VJAMESINREHAB
p352
sg80
Nsg81
VJAMES INGHAM
p353
sg83
Nsg85
Nsg87
I19587564
sg88
Nsbasg34
Nsg35
V543833502719176704
p354
sg37
Nsg38
VDaily Star say Ben massively won the last vote. Why did @JAMESINREHAB not tip me off! My Fleur accumulator must win! http://t.co/JPot1vYRit
p355
sg40
I00
sg41
Ven
p356
sg43
g3
(g44
g5
Ntp357
Rp358
(dp359
g10
VNottingham UK
p360
sg49
V333333
p361
sg51
Ven
p362
sg53
VLondon
p363
sg55
I58679
sg56
I14758
sg22
VThu Nov 24 16:25:05 +0000 2011
p364
sg58
I00
sg59
VEnglish bi guy who likes to get naked. Join me?\u000ahttp://t.co/4mt4eT4rBe\u000aXTube http://t.co/1PN6LtfP4o\u000aFollow @TwinksAndStuds
p365
sg61
Vhttps://pbs.twimg.com/profile_images/523249807633035265/SVH7dgR4_normal.jpeg
p366
sg63
I18723
sg64
I7931
sg65
I0
sg66
Nsg67
I00
sg68
Vhttps://pbs.twimg.com/profile_banners/420429774/1413587464
p367
sg70
I00
sg71
I01
sg72
V0084B4
p368
sg74
I00
sg75
I00
sg76
Vhttp://pbs.twimg.com/profile_background_images/523370556603641856/rQUzLfcR.jpeg
p369
sg78
V8inch8
p370
sg80
I241
sg81
V8inch8
p371
sg83
VDDEEF6
p372
sg85
Vhttp://t.co/EVR3pyjAej
p373
sg87
I420429774
sg88
VC0DEED
p374
sbsg90
I0
sg91
V<a href="http://www.tweetcaster.com" rel="nofollow">TweetCaster for Android</a>
p375
sg93
(lp376
g3
(g233
g5
Ntp377
Rp378
(dp379
g237
Vhttp://t.co/JPot1vYRit
p380
sg239
Vhttp://twitrpix.com/c6ukb
p381
sbasg87
I543833502719176704
sbag3
(g4
g5
Ntp382
Rp383
(dp384
g9
I8
sg10
Nsg11
Nsg12
(lp385
sg14
I00
sg15
Nsg16
Nsg17
(lp386
sg19
Nsg20
Nsg21
Nsg22
VSat Dec 13 12:55:11 +0000 2014
p387
sg24
Nsg25
Nsg26
Nsg27
Nsg28
Nsg29
Nsg30
I00
sg31
Nsg32
(lp388
sg34
Nsg35
V543750985269518336
p389
sg37
Nsg38
VGymnastics on BBC1
p390
sg40
I00
sg41
Ven
p391
sg43
g3
(g44
g5
Ntp392
Rp393
(dp394
g10
VNottingham UK
p395
sg49
V333333
p396
sg51
Ven
p397
sg53
VLondon
p398
sg55
I58679
sg56
I14758
sg22
VThu Nov 24 16:25:05 +0000 2011
p399
sg58
I00
sg59
VEnglish bi guy who likes to get naked. Join me?\u000ahttp://t.co/4mt4eT4rBe\u000aXTube http://t.co/1PN6LtfP4o\u000aFollow @TwinksAndStuds
p400
sg61
Vhttps://pbs.twimg.com/profile_images/523249807633035265/SVH7dgR4_normal.jpeg
p401
sg63
I18723
sg64
I7931
sg65
I0
sg66
Nsg67
I00
sg68
Vhttps://pbs.twimg.com/profile_banners/420429774/1413587464
p402
sg70
I00
sg71
I01
sg72
V0084B4
p403
sg74
I00
sg75
I00
sg76
Vhttp://pbs.twimg.com/profile_background_images/523370556603641856/rQUzLfcR.jpeg
p404
sg78
V8inch8
p405
sg80
I241
sg81
V8inch8
p406
sg83
VDDEEF6
p407
sg85
Vhttp://t.co/EVR3pyjAej
p408
sg87
I420429774
sg88
VC0DEED
p409
sbsg90
I1
sg91
V<a href="https://about.twitter.com/products/tweetdeck" rel="nofollow">TweetDeck</a>
p410
sg93
(lp411
sg87
I543750985269518336
sbag3
(g4
g5
Ntp412
Rp413
(dp414
g9
I0
sg10
Nsg11
Nsg12
(lp415
sg14
I00
sg15
Nsg16
Nsg17
(lp416
sg19
Nsg20
Nsg21
Nsg22
VSat Dec 13 00:54:57 +0000 2014
p417
sg24
Nsg25
Nsg26
Vhornybob221
p418
sg27
Nsg28
I2639929040
sg29
Nsg30
I00
sg31
Nsg32
(lp419
g3
(g44
g5
Ntp420
Rp421
(dp422
g10
Nsg49
Nsg51
Nsg53
Nsg55
Nsg56
Nsg22
Nsg58
Nsg59
Nsg61
Nsg63
Nsg64
Nsg65
Nsg66
Nsg67
Nsg68
Nsg70
Nsg71
Nsg72
Nsg74
Nsg75
Nsg76
Nsg78
Vhornybob221
p423
sg80
Nsg81
Vjoe
p424
sg83
Nsg85
Nsg87
I2639929040
sg88
Nsbasg34
Nsg35
V543569732272947202
p425
sg37
I543556167734427648
sg38
V@hornybob221 no you just need an umbrella and a translator =P
p426
sg40
I00
sg41
Ven
p427
sg43
g3
(g44
g5
Ntp428
Rp429
(dp430
g10
VNottingham UK
p431
sg49
V333333
p432
sg51
Ven
p433
sg53
VLondon
p434
sg55
I58679
sg56
I14758
sg22
VThu Nov 24 16:25:05 +0000 2011
p435
sg58
I00
sg59
VEnglish bi guy who likes to get naked. Join me?\u000ahttp://t.co/4mt4eT4rBe\u000aXTube http://t.co/1PN6LtfP4o\u000aFollow @TwinksAndStuds
p436
sg61
Vhttps://pbs.twimg.com/profile_images/523249807633035265/SVH7dgR4_normal.jpeg
p437
sg63
I18723
sg64
I7931
sg65
I0
sg66
Nsg67
I00
sg68
Vhttps://pbs.twimg.com/profile_banners/420429774/1413587464
p438
sg70
I00
sg71
I01
sg72
V0084B4
p439
sg74
I00
sg75
I00
sg76
Vhttp://pbs.twimg.com/profile_background_images/523370556603641856/rQUzLfcR.jpeg
p440
sg78
V8inch8
p441
sg80
I241
sg81
V8inch8
p442
sg83
VDDEEF6
p443
sg85
Vhttp://t.co/EVR3pyjAej
p444
sg87
I420429774
sg88
VC0DEED
p445
sbsg90
I0
sg91
V<a href="https://about.twitter.com/products/tweetdeck" rel="nofollow">TweetDeck</a>
p446
sg93
(lp447
sg87
I543569732272947202
sbag3
(g4
g5
Ntp448
Rp449
(dp450
g9
I0
sg10
Nsg11
Nsg12
(lp451
sg14
I00
sg15
Nsg16
Nsg17
(lp452
sg19
Nsg20
Nsg21
Nsg22
VSat Dec 13 00:48:34 +0000 2014
p453
sg24
Nsg25
Nsg26
VMrNickspeaks
p454
sg27
Nsg28
I589077521
sg29
Nsg30
I00
sg31
Nsg32
(lp455
g3
(g44
g5
Ntp456
Rp457
(dp458
g10
Nsg49
Nsg51
Nsg53
Nsg55
Nsg56
Nsg22
Nsg58
Nsg59
Nsg61
Nsg63
Nsg64
Nsg65
Nsg66
Nsg67
Nsg68
Nsg70
Nsg71
Nsg72
Nsg74
Nsg75
Nsg76
Nsg78
VMrNickspeaks
p459
sg80
Nsg81
Vold scratch
p460
sg83
Nsg85
Nsg87
I589077521
sg88
Nsbasg34
Nsg35
V543568124508114944
p461
sg37
I543566804271239168
sg38
V@MrNickspeaks ah maybe I could survive in Manchester centre then =]
p462
sg40
I00
sg41
Ven
p463
sg43
g3
(g44
g5
Ntp464
Rp465
(dp466
g10
VNottingham UK
p467
sg49
V333333
p468
sg51
Ven
p469
sg53
VLondon
p470
sg55
I58679
sg56
I14758
sg22
VThu Nov 24 16:25:05 +0000 2011
p471
sg58
I00
sg59
VEnglish bi guy who likes to get naked. Join me?\u000ahttp://t.co/4mt4eT4rBe\u000aXTube http://t.co/1PN6LtfP4o\u000aFollow @TwinksAndStuds
p472
sg61
Vhttps://pbs.twimg.com/profile_images/523249807633035265/SVH7dgR4_normal.jpeg
p473
sg63
I18723
sg64
I7931
sg65
I0
sg66
Nsg67
I00
sg68
Vhttps://pbs.twimg.com/profile_banners/420429774/1413587464
p474
sg70
I00
sg71
I01
sg72
V0084B4
p475
sg74
I00
sg75
I00
sg76
Vhttp://pbs.twimg.com/profile_background_images/523370556603641856/rQUzLfcR.jpeg
p476
sg78
V8inch8
p477
sg80
I241
sg81
V8inch8
p478
sg83
VDDEEF6
p479
sg85
Vhttp://t.co/EVR3pyjAej
p480
sg87
I420429774
sg88
VC0DEED
p481
sbsg90
I0
sg91
V<a href="https://about.twitter.com/products/tweetdeck" rel="nofollow">TweetDeck</a>
p482
sg93
(lp483
sg87
I543568124508114944
sbag3
(g4
g5
Ntp484
Rp485
(dp486
g9
I5
sg10
Nsg11
Nsg12
(lp487
sg14
I00
sg15
Nsg16
Nsg17
(lp488
sg19
Nsg20
Nsg21
Nsg22
VSat Dec 13 00:15:29 +0000 2014
p489
sg24
Nsg25
Nsg26
VJaxonRadocXXX
p490
sg27
Nsg28
I1547556312
sg29
Nsg30
I00
sg31
Nsg32
(lp491
g3
(g44
g5
Ntp492
Rp493
(dp494
g10
Nsg49
Nsg51
Nsg53
Nsg55
Nsg56
Nsg22
Nsg58
Nsg59
Nsg61
Nsg63
Nsg64
Nsg65
Nsg66
Nsg67
Nsg68
Nsg70
Nsg71
Nsg72
Nsg74
Nsg75
Nsg76
Nsg78
VJaxonRadocXXX
p495
sg80
Nsg81
VIt's Jaxon
p496
sg83
Nsg85
Nsg87
I1547556312
sg88
Nsbasg34
Nsg35
V543559798785314816
p497
sg37
I543559035241259008
sg38
V@JaxonRadocXXX a self facial
p498
sg40
I00
sg41
Ven
p499
sg43
g3
(g44
g5
Ntp500
Rp501
(dp502
g10
VNottingham UK
p503
sg49
V333333
p504
sg51
Ven
p505
sg53
VLondon
p506
sg55
I58679
sg56
I14758
sg22
VThu Nov 24 16:25:05 +0000 2011
p507
sg58
I00
sg59
VEnglish bi guy who likes to get naked. Join me?\u000ahttp://t.co/4mt4eT4rBe\u000aXTube http://t.co/1PN6LtfP4o\u000aFollow @TwinksAndStuds
p508
sg61
Vhttps://pbs.twimg.com/profile_images/523249807633035265/SVH7dgR4_normal.jpeg
p509
sg63
I18723
sg64
I7931
sg65
I0
sg66
Nsg67
I00
sg68
Vhttps://pbs.twimg.com/profile_banners/420429774/1413587464
p510
sg70
I00
sg71
I01
sg72
V0084B4
p511
sg74
I00
sg75
I00
sg76
Vhttp://pbs.twimg.com/profile_background_images/523370556603641856/rQUzLfcR.jpeg
p512
sg78
V8inch8
p513
sg80
I241
sg81
V8inch8
p514
sg83
VDDEEF6
p515
sg85
Vhttp://t.co/EVR3pyjAej
p516
sg87
I420429774
sg88
VC0DEED
p517
sbsg90
I0
sg91
V<a href="https://about.twitter.com/products/tweetdeck" rel="nofollow">TweetDeck</a>
p518
sg93
(lp519
sg87
I543559798785314816
sbag3
(g4
g5
Ntp520
Rp521
(dp522
g9
I0
sg10
Nsg11
Nsg12
(lp523
sg14
I00
sg15
Nsg16
Nsg17
(lp524
sg19
Nsg20
Nsg21
Nsg22
VFri Dec 12 23:58:17 +0000 2014
p525
sg24
Nsg25
Nsg26
VSilmaril123
p526
sg27
Nsg28
I242406004
sg29
Nsg30
I00
sg31
Nsg32
(lp527
g3
(g44
g5
Ntp528
Rp529
(dp530
g10
Nsg49
Nsg51
Nsg53
Nsg55
Nsg56
Nsg22
Nsg58
Nsg59
Nsg61
Nsg63
Nsg64
Nsg65
Nsg66
Nsg67
Nsg68
Nsg70
Nsg71
Nsg72
Nsg74
Nsg75
Nsg76
Nsg78
VSilmaril123
p531
sg80
Nsg81
VNushka
p532
sg83
Nsg85
Nsg87
I242406004
sg88
Nsbasg34
Nsg35
V543555468598456321
p533
sg37
I543554924614008832
sg38
V@Silmaril123 have visited both!
p534
sg40
I00
sg41
Ven
p535
sg43
g3
(g44
g5
Ntp536
Rp537
(dp538
g10
VNottingham UK
p539
sg49
V333333
p540
sg51
Ven
p541
sg53
VLondon
p542
sg55
I58679
sg56
I14758
sg22
VThu Nov 24 16:25:05 +0000 2011
p543
sg58
I00
sg59
VEnglish bi guy who likes to get naked. Join me?\u000ahttp://t.co/4mt4eT4rBe\u000aXTube http://t.co/1PN6LtfP4o\u000aFollow @TwinksAndStuds
p544
sg61
Vhttps://pbs.twimg.com/profile_images/523249807633035265/SVH7dgR4_normal.jpeg
p545
sg63
I18723
sg64
I7931
sg65
I0
sg66
Nsg67
I00
sg68
Vhttps://pbs.twimg.com/profile_banners/420429774/1413587464
p546
sg70
I00
sg71
I01
sg72
V0084B4
p547
sg74
I00
sg75
I00
sg76
Vhttp://pbs.twimg.com/profile_background_images/523370556603641856/rQUzLfcR.jpeg
p548
sg78
V8inch8
p549
sg80
I241
sg81
V8inch8
p550
sg83
VDDEEF6
p551
sg85
Vhttp://t.co/EVR3pyjAej
p552
sg87
I420429774
sg88
VC0DEED
p553
sbsg90
I0
sg91
V<a href="https://about.twitter.com/products/tweetdeck" rel="nofollow">TweetDeck</a>
p554
sg93
(lp555
sg87
I543555468598456321
sbag3
(g4
g5
Ntp556
Rp557
(dp558
g9
I0
sg10
Nsg11
Nsg12
(lp559
sg14
I00
sg15
Nsg16
Nsg17
(lp560
sg19
Nsg20
Nsg21
Nsg22
VFri Dec 12 23:57:43 +0000 2014
p561
sg24
Nsg25
Nsg26
Vitzsaiffyy
p562
sg27
Nsg28
I1869526843
sg29
Nsg30
I00
sg31
Nsg32
(lp563
g3
(g44
g5
Ntp564
Rp565
(dp566
g10
Nsg49
Nsg51
Nsg53
Nsg55
Nsg56
Nsg22
Nsg58
Nsg59
Nsg61
Nsg63
Nsg64
Nsg65
Nsg66
Nsg67
Nsg68
Nsg70
Nsg71
Nsg72
Nsg74
Nsg75
Nsg76
Nsg78
Vitzsaiffyy
p567
sg80
Nsg81
VJay Dee
p568
sg83
Nsg85
Nsg87
I1869526843
sg88
Nsbasg34
Nsg35
V543555326839373824
p569
sg37
I543554425647030272
sg38
V@itzsaiffyy I have lived there haha
p570
sg40
I00
sg41
Ven
p571
sg43
g3
(g44
g5
Ntp572
Rp573
(dp574
g10
VNottingham UK
p575
sg49
V333333
p576
sg51
Ven
p577
sg53
VLondon
p578
sg55
I58679
sg56
I14758
sg22
VThu Nov 24 16:25:05 +0000 2011
p579
sg58
I00
sg59
VEnglish bi guy who likes to get naked. Join me?\u000ahttp://t.co/4mt4eT4rBe\u000aXTube http://t.co/1PN6LtfP4o\u000aFollow @TwinksAndStuds
p580
sg61
Vhttps://pbs.twimg.com/profile_images/523249807633035265/SVH7dgR4_normal.jpeg
p581
sg63
I18723
sg64
I7931
sg65
I0
sg66
Nsg67
I00
sg68
Vhttps://pbs.twimg.com/profile_banners/420429774/1413587464
p582
sg70
I00
sg71
I01
sg72
V0084B4
p583
sg74
I00
sg75
I00
sg76
Vhttp://pbs.twimg.com/profile_background_images/523370556603641856/rQUzLfcR.jpeg
p584
sg78
V8inch8
p585
sg80
I241
sg81
V8inch8
p586
sg83
VDDEEF6
p587
sg85
Vhttp://t.co/EVR3pyjAej
p588
sg87
I420429774
sg88
VC0DEED
p589
sbsg90
I0
sg91
V<a href="https://about.twitter.com/products/tweetdeck" rel="nofollow">TweetDeck</a>
p590
sg93
(lp591
sg87
I543555326839373824
sbag3
(g4
g5
Ntp592
Rp593
(dp594
g9
I0
sg10
Nsg11
Nsg12
(lp595
sg14
I00
sg15
Nsg16
Nsg17
(lp596
sg19
Nsg20
Nsg21
Nsg22
VFri Dec 12 23:57:27 +0000 2014
p597
sg24
Nsg25
Nsg26
Vhornybob221
p598
sg27
Nsg28
I2639929040
sg29
Nsg30
I00
sg31
Nsg32
(lp599
g3
(g44
g5
Ntp600
Rp601
(dp602
g10
Nsg49
Nsg51
Nsg53
Nsg55
Nsg56
Nsg22
Nsg58
Nsg59
Nsg61
Nsg63
Nsg64
Nsg65
Nsg66
Nsg67
Nsg68
Nsg70
Nsg71
Nsg72
Nsg74
Nsg75
Nsg76
Nsg78
Vhornybob221
p603
sg80
Nsg81
Vjoe
p604
sg83
Nsg85
Nsg87
I2639929040
sg88
Nsbasg34
Nsg35
V543555258736463873
p605
sg37
I543554363084795904
sg38
V@hornybob221 you're used to insults ;]
p606
sg40
I00
sg41
Ven
p607
sg43
g3
(g44
g5
Ntp608
Rp609
(dp610
g10
VNottingham UK
p611
sg49
V333333
p612
sg51
Ven
p613
sg53
VLondon
p614
sg55
I58679
sg56
I14758
sg22
VThu Nov 24 16:25:05 +0000 2011
p615
sg58
I00
sg59
VEnglish bi guy who likes to get naked. Join me?\u000ahttp://t.co/4mt4eT4rBe\u000aXTube http://t.co/1PN6LtfP4o\u000aFollow @TwinksAndStuds
p616
sg61
Vhttps://pbs.twimg.com/profile_images/523249807633035265/SVH7dgR4_normal.jpeg
p617
sg63
I18723
sg64
I7931
sg65
I0
sg66
Nsg67
I00
sg68
Vhttps://pbs.twimg.com/profile_banners/420429774/1413587464
p618
sg70
I00
sg71
I01
sg72
V0084B4
p619
sg74
I00
sg75
I00
sg76
Vhttp://pbs.twimg.com/profile_background_images/523370556603641856/rQUzLfcR.jpeg
p620
sg78
V8inch8
p621
sg80
I241
sg81
V8inch8
p622
sg83
VDDEEF6
p623
sg85
Vhttp://t.co/EVR3pyjAej
p624
sg87
I420429774
sg88
VC0DEED
p625
sbsg90
I0
sg91
V<a href="https://about.twitter.com/products/tweetdeck" rel="nofollow">TweetDeck</a>
p626
sg93
(lp627
sg87
I543555258736463873
sbag3
(g4
g5
Ntp628
Rp629
(dp630
g9
I1
sg10
Nsg11
Nsg12
(lp631
sg14
I00
sg15
Nsg16
Nsg17
(lp632
sg19
Nsg20
Nsg21
Nsg22
VFri Dec 12 23:55:18 +0000 2014
p633
sg24
Nsg25
Nsg26
VSilmaril123
p634
sg27
Nsg28
I242406004
sg29
Nsg30
I00
sg31
Nsg32
(lp635
g3
(g44
g5
Ntp636
Rp637
(dp638
g10
Nsg49
Nsg51
Nsg53
Nsg55
Nsg56
Nsg22
Nsg58
Nsg59
Nsg61
Nsg63
Nsg64
Nsg65
Nsg66
Nsg67
Nsg68
Nsg70
Nsg71
Nsg72
Nsg74
Nsg75
Nsg76
Nsg78
VSilmaril123
p639
sg80
Nsg81
VNushka
p640
sg83
Nsg85
Nsg87
I242406004
sg88
Nsbasg34
Nsg35
V543554721366417408
p641
sg37
I543554295107715073
sg38
V@Silmaril123 it is the epitome of northerness
p642
sg40
I00
sg41
Ven
p643
sg43
g3
(g44
g5
Ntp644
Rp645
(dp646
g10
VNottingham UK
p647
sg49
V333333
p648
sg51
Ven
p649
sg53
VLondon
p650
sg55
I58679
sg56
I14758
sg22
VThu Nov 24 16:25:05 +0000 2011
p651
sg58
I00
sg59
VEnglish bi guy who likes to get naked. Join me?\u000ahttp://t.co/4mt4eT4rBe\u000aXTube http://t.co/1PN6LtfP4o\u000aFollow @TwinksAndStuds
p652
sg61
Vhttps://pbs.twimg.com/profile_images/523249807633035265/SVH7dgR4_normal.jpeg
p653
sg63
I18723
sg64
I7931
sg65
I0
sg66
Nsg67
I00
sg68
Vhttps://pbs.twimg.com/profile_banners/420429774/1413587464
p654
sg70
I00
sg71
I01
sg72
V0084B4
p655
sg74
I00
sg75
I00
sg76
Vhttp://pbs.twimg.com/profile_background_images/523370556603641856/rQUzLfcR.jpeg
p656
sg78
V8inch8
p657
sg80
I241
sg81
V8inch8
p658
sg83
VDDEEF6
p659
sg85
Vhttp://t.co/EVR3pyjAej
p660
sg87
I420429774
sg88
VC0DEED
p661
sbsg90
I0
sg91
V<a href="https://about.twitter.com/products/tweetdeck" rel="nofollow">TweetDeck</a>
p662
sg93
(lp663
sg87
I543554721366417408
sbag3
(g4
g5
Ntp664
Rp665
(dp666
g9
I10
sg10
Nsg11
Nsg12
(lp667
sg14
I00
sg15
Nsg16
Nsg17
(lp668
sg19
Nsg20
Nsg21
Nsg22
VFri Dec 12 23:53:04 +0000 2014
p669
sg24
Nsg25
Nsg26
Nsg27
Nsg28
Nsg29
Nsg30
I00
sg31
Nsg32
(lp670
sg34
Nsg35
V543554155743559680
p671
sg37
Nsg38
VI wonder how long I'd last living somewhere properly northern like Manchester
p672
sg40
I00
sg41
Ven
p673
sg43
g3
(g44
g5
Ntp674
Rp675
(dp676
g10
VNottingham UK
p677
sg49
V333333
p678
sg51
Ven
p679
sg53
VLondon
p680
sg55
I58679
sg56
I14758
sg22
VThu Nov 24 16:25:05 +0000 2011
p681
sg58
I00
sg59
VEnglish bi guy who likes to get naked. Join me?\u000ahttp://t.co/4mt4eT4rBe\u000aXTube http://t.co/1PN6LtfP4o\u000aFollow @TwinksAndStuds
p682
sg61
Vhttps://pbs.twimg.com/profile_images/523249807633035265/SVH7dgR4_normal.jpeg
p683
sg63
I18723
sg64
I7931
sg65
I0
sg66
Nsg67
I00
sg68
Vhttps://pbs.twimg.com/profile_banners/420429774/1413587464
p684
sg70
I00
sg71
I01
sg72
V0084B4
p685
sg74
I00
sg75
I00
sg76
Vhttp://pbs.twimg.com/profile_background_images/523370556603641856/rQUzLfcR.jpeg
p686
sg78
V8inch8
p687
sg80
I241
sg81
V8inch8
p688
sg83
VDDEEF6
p689
sg85
Vhttp://t.co/EVR3pyjAej
p690
sg87
I420429774
sg88
VC0DEED
p691
sbsg90
I0
sg91
V<a href="https://about.twitter.com/products/tweetdeck" rel="nofollow">TweetDeck</a>
p692
sg93
(lp693
sg87
I543554155743559680
sbag3
(g4
g5
Ntp694
Rp695
(dp696
g9
I2
sg10
Nsg11
Nsg12
(lp697
sg14
I00
sg15
Nsg16
Nsg17
(lp698
sg19
Nsg20
Nsg21
Nsg22
VFri Dec 12 23:50:39 +0000 2014
p699
sg24
Nsg25
Nsg26
V8inch8
p700
sg27
Nsg28
I420429774
sg29
Nsg30
I00
sg31
Nsg32
(lp701
g3
(g44
g5
Ntp702
Rp703
(dp704
g10
Nsg49
Nsg51
Nsg53
Nsg55
Nsg56
Nsg22
Nsg58
Nsg59
Nsg61
Nsg63
Nsg64
Nsg65
Nsg66
Nsg67
Nsg68
Nsg70
Nsg71
Nsg72
Nsg74
Nsg75
Nsg76
Nsg78
V8inch8
p705
sg80
Nsg81
V8inch8
p706
sg83
Nsg85
Nsg87
I420429774
sg88
Nsbasg34
Nsg35
V543553547326193665
p707
sg37
I543537436244992000
sg38
V@8inch8 the jock has now been sold. Shame I never got to fuck anyone in it!
p708
sg40
I00
sg41
Ven
p709
sg43
g3
(g44
g5
Ntp710
Rp711
(dp712
g10
VNottingham UK
p713
sg49
V333333
p714
sg51
Ven
p715
sg53
VLondon
p716
sg55
I58679
sg56
I14758
sg22
VThu Nov 24 16:25:05 +0000 2011
p717
sg58
I00
sg59
VEnglish bi guy who likes to get naked. Join me?\u000ahttp://t.co/4mt4eT4rBe\u000aXTube http://t.co/1PN6LtfP4o\u000aFollow @TwinksAndStuds
p718
sg61
Vhttps://pbs.twimg.com/profile_images/523249807633035265/SVH7dgR4_normal.jpeg
p719
sg63
I18723
sg64
I7931
sg65
I0
sg66
Nsg67
I00
sg68
Vhttps://pbs.twimg.com/profile_banners/420429774/1413587464
p720
sg70
I00
sg71
I01
sg72
V0084B4
p721
sg74
I00
sg75
I00
sg76
Vhttp://pbs.twimg.com/profile_background_images/523370556603641856/rQUzLfcR.jpeg
p722
sg78
V8inch8
p723
sg80
I241
sg81
V8inch8
p724
sg83
VDDEEF6
p725
sg85
Vhttp://t.co/EVR3pyjAej
p726
sg87
I420429774
sg88
VC0DEED
p727
sbsg90
I1
sg91
V<a href="https://about.twitter.com/products/tweetdeck" rel="nofollow">TweetDeck</a>
p728
sg93
(lp729
sg87
I543553547326193665
sbag3
(g4
g5
Ntp730
Rp731
(dp732
g9
I16
sg10
Nsg11
Nsg12
(lp733
sg14
I00
sg15
Nsg16
Nsg17
(lp734
sg19
Nsg20
Nsg21
Nsg22
VFri Dec 12 23:19:03 +0000 2014
p735
sg24
Nsg25
I00
sg26
Nsg27
Nsg28
Nsg29
Nsg30
I00
sg31
Nsg32
(lp736
sg34
Nsg35
V543545595420741632
p737
sg37
Nsg38
VPhoto: Constantly semi http://t.co/wRYJmB67Au
p738
sg40
I00
sg41
Ven
p739
sg43
g3
(g44
g5
Ntp740
Rp741
(dp742
g10
VNottingham UK
p743
sg49
V333333
p744
sg51
Ven
p745
sg53
VLondon
p746
sg55
I58679
sg56
I14758
sg22
VThu Nov 24 16:25:05 +0000 2011
p747
sg58
I00
sg59
VEnglish bi guy who likes to get naked. Join me?\u000ahttp://t.co/4mt4eT4rBe\u000aXTube http://t.co/1PN6LtfP4o\u000aFollow @TwinksAndStuds
p748
sg61
Vhttps://pbs.twimg.com/profile_images/523249807633035265/SVH7dgR4_normal.jpeg
p749
sg63
I18723
sg64
I7931
sg65
I0
sg66
Nsg67
I00
sg68
Vhttps://pbs.twimg.com/profile_banners/420429774/1413587464
p750
sg70
I00
sg71
I01
sg72
V0084B4
p751
sg74
I00
sg75
I00
sg76
Vhttp://pbs.twimg.com/profile_background_images/523370556603641856/rQUzLfcR.jpeg
p752
sg78
V8inch8
p753
sg80
I241
sg81
V8inch8
p754
sg83
VDDEEF6
p755
sg85
Vhttp://t.co/EVR3pyjAej
p756
sg87
I420429774
sg88
VC0DEED
p757
sbsg90
I2
sg91
V<a href="http://www.tumblr.com/" rel="nofollow">Tumblr</a>
p758
sg93
(lp759
g3
(g233
g5
Ntp760
Rp761
(dp762
g237
Vhttp://t.co/wRYJmB67Au
p763
sg239
Vhttp://tmblr.co/ZrHy1n1XqwmKw
p764
sbasg87
I543545595420741632
sbaa.