(lp0
S'simplyyee'
p1
a(lp2
ccopy_reg
_reconstructor
p3
(ctwitter.status
Status
p4
c__builtin__
object
p5
Ntp6
Rp7
(dp8
S'_favorite_count'
p9
I0
sS'_location'
p10
NsS'_withheld_scope'
p11
NsS'hashtags'
p12
(lp13
sS'_truncated'
p14
I00
sS'_retweeted_status'
p15
NsS'_withheld_copyright'
p16
NsS'media'
p17
(lp18
sS'_place'
p19
NsS'_contributors'
p20
NsS'_current_user_retweet'
p21
NsS'_created_at'
p22
VSun Dec 14 18:23:23 +0000 2014
p23
sS'_scopes'
p24
NsS'_possibly_sensitive'
p25
NsS'_in_reply_to_screen_name'
p26
VSyleena_Johnson
p27
sS'_coordinates'
p28
NsS'_in_reply_to_user_id'
p29
I181630001
sS'_geo'
p30
NsS'_favorited'
p31
I00
sS'_withheld_in_countries'
p32
NsS'user_mentions'
p33
(lp34
g3
(ctwitter.user
User
p35
g5
Ntp36
Rp37
(dp38
g10
NsS'_profile_text_color'
p39
NsS'_lang'
p40
NsS'_time_zone'
p41
NsS'_followers_count'
p42
NsS'_statuses_count'
p43
Nsg22
NsS'_verified'
p44
NsS'_description'
p45
NsS'_profile_image_url'
p46
NsS'_friends_count'
p47
NsS'_favourites_count'
p48
NsS'_utc_offset'
p49
NsS'_status'
p50
NsS'_protected'
p51
NsS'_profile_banner_url'
p52
NsS'_notifications'
p53
NsS'_profile_background_tile'
p54
NsS'_profile_link_color'
p55
NsS'_geo_enabled'
p56
NsS'_contributors_enabled'
p57
NsS'_profile_background_image_url'
p58
NsS'_screen_name'
p59
VSyleena_Johnson
p60
sS'_listed_count'
p61
NsS'_name'
p62
VSyleena Johnson
p63
sS'_profile_sidebar_fill_color'
p64
NsS'_url'
p65
NsS'_id'
p66
I181630001
sS'_profile_background_color'
p67
NsbasS'_now'
p68
NsS'_id_str'
p69
NsS'_in_reply_to_status_id'
p70
I544193049765892096
sS'_text'
p71
V@Syleena_Johnson Awe poor baby, hope he gets better real soon.
p72
sS'_retweeted'
p73
I00
sS'lang'
p74
Ven
p75
sS'_user'
p76
g3
(g35
g5
Ntp77
Rp78
(dp79
g10
VLondon
p80
sg39
V3D1957
p81
sg40
Ven
p82
sg41
VLondon
p83
sg42
I575
sg43
I5340
sg22
VThu Mar 15 19:10:58 +0000 2012
p84
sg44
I00
sg45
VI love music which makes me stop and think, music is the food to my soul, play on!! Play on!!
p85
sg46
Vhttps://pbs.twimg.com/profile_images/538757576553275393/l_n-l61__normal.jpeg
p86
sg47
I537
sg48
I782
sg49
I0
sg50
Nsg51
I00
sg52
Vhttps://pbs.twimg.com/profile_banners/525660720/1414965259
p87
sg53
I00
sg54
I01
sg55
V0400FF
p88
sg56
I01
sg57
I00
sg58
Vhttp://pbs.twimg.com/profile_background_images/524668947174408192/Ca1Yct2c.jpeg
p89
sg59
Vsimplyyee
p90
sg61
I1
sg62
VOfficially me
p91
sg64
V7AC3EE
p92
sg65
Nsg66
I525660720
sg67
V16091F
p93
sbsS'_retweet_count'
p94
I0
sS'_source'
p95
V<a href="http://twitter.com/download/android" rel="nofollow">Twitter for Android</a>
p96
sS'urls'
p97
(lp98
sg66
I544195966212259840
sbag3
(g4
g5
Ntp99
Rp100
(dp101
g9
I0
sg10
Nsg11
Nsg12
(lp102
g3
(ctwitter.hashtag
Hashtag
p103
g5
Ntp104
Rp105
(dp106
S'text'
p107
VMarriageBootCamp
p108
sbasg14
I00
sg15
g3
(g4
g5
Ntp109
Rp110
(dp111
g9
I40
sg10
Nsg11
Nsg12
(lp112
g3
(g103
g5
Ntp113
Rp114
(dp115
g107
VMarriageBootCamp
p116
sbasg14
I00
sg15
Nsg16
Nsg17
(lp117
sg19
Nsg20
Nsg21
Nsg22
VWed Dec 10 21:58:51 +0000 2014
p118
sg24
Nsg25
I00
sg26
Nsg28
Nsg29
Nsg30
Nsg31
I00
sg32
Nsg33
(lp119
sg68
Nsg69
Nsg70
Nsg71
VWant to see more #MarriageBootCamp: Reality Stars? Click  &amp; watch the extended first look: http://t.co/BONFrjpDct\u000ahttps://t.co/SKCzgnstSE
p120
sg73
I00
sg74
Ven
p121
sg76
g3
(g35
g5
Ntp122
Rp123
(dp124
g10
V
p125
sg39
V42212C
p126
sg40
Ven
p127
sg41
VEastern Time (US & Canada)
p128
sg42
I116405
sg43
I15674
sg22
VWed Sep 03 14:38:19 +0000 2008
p129
sg44
I01
sg45
g125
sg46
Vhttps://pbs.twimg.com/profile_images/509335109858648064/vtG3kg76_normal.png
p130
sg47
I293
sg48
I1479
sg49
I-18000
sg50
Nsg51
I00
sg52
Vhttps://pbs.twimg.com/profile_banners/16113773/1410269905
p131
sg53
I00
sg54
I00
sg55
V23B9FF
p132
sg56
I01
sg57
I00
sg58
Vhttp://pbs.twimg.com/profile_background_images/443760200789397506/CpoK6GyZ.jpeg
p133
sg59
VWEtv
p134
sg61
I709
sg62
VWE tv
p135
sg64
VFFCFCD
p136
sg65
Vhttp://t.co/y8pzvOFH2i
p137
sg66
I16113773
sg67
V23B9FF
p138
sbsg94
I40
sg95
V<a href="http://twitter.com" rel="nofollow">Twitter Web Client</a>
p139
sg97
(lp140
g3
(ctwitter.url
Url
p141
g5
Ntp142
Rp143
(dp144
S'url'
p145
Vhttp://t.co/BONFrjpDct
p146
sS'expanded_url'
p147
Vhttp://we.tv/166KlWV
p148
sbag3
(g141
g5
Ntp149
Rp150
(dp151
g145
Vhttps://t.co/SKCzgnstSE
p152
sg147
Vhttps://amp.twimg.com/v/c8295b52-6d0f-4733-8605-ac595a3e2287
p153
sbasg66
I542800637130317826
sbsg16
Nsg17
(lp154
sg19
Nsg20
Nsg21
Nsg22
VSun Dec 14 17:46:37 +0000 2014
p155
sg24
Nsg25
I00
sg26
Nsg28
Nsg29
Nsg30
Nsg31
I00
sg32
Nsg33
(lp156
g3
(g35
g5
Ntp157
Rp158
(dp159
g10
Nsg39
Nsg40
Nsg41
Nsg42
Nsg43
Nsg22
Nsg44
Nsg45
Nsg46
Nsg47
Nsg48
Nsg49
Nsg50
Nsg51
Nsg52
Nsg53
Nsg54
Nsg55
Nsg56
Nsg57
Nsg58
Nsg59
VWEtv
p160
sg61
Nsg62
VWE tv
p161
sg64
Nsg65
Nsg66
I16113773
sg67
Nsbasg68
Nsg69
Nsg70
Nsg71
VRT @WEtv: Want to see more #MarriageBootCamp: Reality Stars? Click  &amp; watch the extended first look: http://t.co/BONFrjpDct\u000ahttps://t.co/SK\u2026
p162
sg73
I00
sg74
Ven
p163
sg76
g3
(g35
g5
Ntp164
Rp165
(dp166
g10
VLondon
p167
sg39
V3D1957
p168
sg40
Ven
p169
sg41
VLondon
p170
sg42
I575
sg43
I5340
sg22
VThu Mar 15 19:10:58 +0000 2012
p171
sg44
I00
sg45
VI love music which makes me stop and think, music is the food to my soul, play on!! Play on!!
p172
sg46
Vhttps://pbs.twimg.com/profile_images/538757576553275393/l_n-l61__normal.jpeg
p173
sg47
I537
sg48
I782
sg49
I0
sg50
Nsg51
I00
sg52
Vhttps://pbs.twimg.com/profile_banners/525660720/1414965259
p174
sg53
I00
sg54
I01
sg55
V0400FF
p175
sg56
I01
sg57
I00
sg58
Vhttp://pbs.twimg.com/profile_background_images/524668947174408192/Ca1Yct2c.jpeg
p176
sg59
Vsimplyyee
p177
sg61
I1
sg62
VOfficially me
p178
sg64
V7AC3EE
p179
sg65
Nsg66
I525660720
sg67
V16091F
p180
sbsg94
I40
sg95
V<a href="http://twitter.com/download/android" rel="nofollow">Twitter for Android</a>
p181
sg97
(lp182
g3
(g141
g5
Ntp183
Rp184
(dp185
g145
Vhttp://t.co/BONFrjpDct
p186
sg147
Vhttp://we.tv/166KlWV
p187
sbag3
(g141
g5
Ntp188
Rp189
(dp190
g145
Vhttps://t.co/SKCzgnstSE
p191
sg147
Vhttps://amp.twimg.com/v/c8295b52-6d0f-4733-8605-ac595a3e2287
p192
sbasg66
I544186711270756353
sbag3
(g4
g5
Ntp193
Rp194
(dp195
g9
I0
sg10
Nsg11
Nsg12
(lp196
sg14
I00
sg15
Nsg16
Nsg17
(lp197
sg19
Nsg20
Nsg21
Nsg22
VSun Dec 14 17:38:24 +0000 2014
p198
sg24
Nsg25
Nsg26
VSyleena_Johnson
p199
sg28
Nsg29
I181630001
sg30
Nsg31
I00
sg32
Nsg33
(lp200
g3
(g35
g5
Ntp201
Rp202
(dp203
g10
Nsg39
Nsg40
Nsg41
Nsg42
Nsg43
Nsg22
Nsg44
Nsg45
Nsg46
Nsg47
Nsg48
Nsg49
Nsg50
Nsg51
Nsg52
Nsg53
Nsg54
Nsg55
Nsg56
Nsg57
Nsg58
Nsg59
VSyleena_Johnson
p204
sg61
Nsg62
VSyleena Johnson
p205
sg64
Nsg65
Nsg66
I181630001
sg67
Nsbasg68
Nsg69
Nsg70
I544184032733319168
sg71
V@Syleena_Johnson This was fun and exciting! Thanks Syleena for giving back. I'm gonna miss this, Happy Sunday :-)
p206
sg73
I00
sg74
Ven
p207
sg76
g3
(g35
g5
Ntp208
Rp209
(dp210
g10
VLondon
p211
sg39
V3D1957
p212
sg40
Ven
p213
sg41
VLondon
p214
sg42
I575
sg43
I5340
sg22
VThu Mar 15 19:10:58 +0000 2012
p215
sg44
I00
sg45
VI love music which makes me stop and think, music is the food to my soul, play on!! Play on!!
p216
sg46
Vhttps://pbs.twimg.com/profile_images/538757576553275393/l_n-l61__normal.jpeg
p217
sg47
I537
sg48
I782
sg49
I0
sg50
Nsg51
I00
sg52
Vhttps://pbs.twimg.com/profile_banners/525660720/1414965259
p218
sg53
I00
sg54
I01
sg55
V0400FF
p219
sg56
I01
sg57
I00
sg58
Vhttp://pbs.twimg.com/profile_background_images/524668947174408192/Ca1Yct2c.jpeg
p220
sg59
Vsimplyyee
p221
sg61
I1
sg62
VOfficially me
p222
sg64
V7AC3EE
p223
sg65
Nsg66
I525660720
sg67
V16091F
p224
sbsg94
I0
sg95
V<a href="http://twitter.com/download/android" rel="nofollow">Twitter for Android</a>
p225
sg97
(lp226
sg66
I544184642988175360
sbag3
(g4
g5
Ntp227
Rp228
(dp229
g9
I0
sg10
Nsg11
Nsg12
(lp230
sg14
I00
sg15
g3
(g4
g5
Ntp231
Rp232
(dp233
g9
I0
sg10
Nsg11
Nsg12
(lp234
sg14
I00
sg15
Nsg16
Nsg17
(lp235
sg19
Nsg20
Nsg21
Nsg22
VSun Dec 14 17:35:58 +0000 2014
p236
sg24
Nsg25
I00
sg26
Nsg28
Nsg29
Nsg30
Nsg31
I00
sg32
Nsg33
(lp237
sg68
Nsg69
Nsg70
Nsg71
VLast DAY! Syleena's 7 Days of Giving Holiday Contest: Day Seven \u2014 Exclusive "Acoustic Soul Sessions" CD http://t.co/FHqtGWXoGa
p238
sg73
I00
sg74
Ven
p239
sg76
g3
(g35
g5
Ntp240
Rp241
(dp242
g10
VWORLDWIDE
p243
sg39
V3C3940
p244
sg40
Ven
p245
sg41
VCentral Time (US & Canada)
p246
sg42
I170921
sg43
I51304
sg22
VSun Aug 22 17:47:53 +0000 2010
p247
sg44
I01
sg45
VR&B Diva & CEO of She-Lean Health & Fitness, LLC MGMT: DYG Management Group, LLC, Dygmanagement@gmail.com
p248
sg46
Vhttps://pbs.twimg.com/profile_images/511535118993735682/cXaMiT6R_normal.jpeg
p249
sg47
I1378
sg48
I2029
sg49
I-21600
sg50
Nsg51
I00
sg52
Vhttps://pbs.twimg.com/profile_banners/181630001/1411333031
p250
sg53
I00
sg54
I01
sg55
V009999
p251
sg56
I01
sg57
I00
sg58
Vhttp://pbs.twimg.com/profile_background_images/513794933036032001/fG4TTI7T.jpeg
p252
sg59
VSyleena_Johnson
p253
sg61
I715
sg62
VSyleena Johnson
p254
sg64
V95E8EC
p255
sg65
Vhttp://t.co/fVCtnFLiW8
p256
sg66
I181630001
sg67
V131516
p257
sbsg94
I9
sg95
V<a href="https://dev.twitter.com/docs/tfw" rel="nofollow">Twitter for Websites</a>
p258
sg97
(lp259
g3
(g141
g5
Ntp260
Rp261
(dp262
g145
Vhttp://t.co/FHqtGWXoGa
p263
sg147
Vhttp://lockerdo.me/j8Q/AwH
p264
sbasg66
I544184032733319168
sbsg16
Nsg17
(lp265
sg19
Nsg20
Nsg21
Nsg22
VSun Dec 14 17:37:04 +0000 2014
p266
sg24
Nsg25
I00
sg26
Nsg28
Nsg29
Nsg30
Nsg31
I00
sg32
Nsg33
(lp267
g3
(g35
g5
Ntp268
Rp269
(dp270
g10
Nsg39
Nsg40
Nsg41
Nsg42
Nsg43
Nsg22
Nsg44
Nsg45
Nsg46
Nsg47
Nsg48
Nsg49
Nsg50
Nsg51
Nsg52
Nsg53
Nsg54
Nsg55
Nsg56
Nsg57
Nsg58
Nsg59
VSyleena_Johnson
p271
sg61
Nsg62
VSyleena Johnson
p272
sg64
Nsg65
Nsg66
I181630001
sg67
Nsbasg68
Nsg69
Nsg70
Nsg71
VRT @Syleena_Johnson: Last DAY! Syleena's 7 Days of Giving Holiday Contest: Day Seven \u2014 Exclusive "Acoustic Soul Sessions" CD http://t.co/FH\u2026
p273
sg73
I00
sg74
Ven
p274
sg76
g3
(g35
g5
Ntp275
Rp276
(dp277
g10
VLondon
p278
sg39
V3D1957
p279
sg40
Ven
p280
sg41
VLondon
p281
sg42
I575
sg43
I5340
sg22
VThu Mar 15 19:10:58 +0000 2012
p282
sg44
I00
sg45
VI love music which makes me stop and think, music is the food to my soul, play on!! Play on!!
p283
sg46
Vhttps://pbs.twimg.com/profile_images/538757576553275393/l_n-l61__normal.jpeg
p284
sg47
I537
sg48
I782
sg49
I0
sg50
Nsg51
I00
sg52
Vhttps://pbs.twimg.com/profile_banners/525660720/1414965259
p285
sg53
I00
sg54
I01
sg55
V0400FF
p286
sg56
I01
sg57
I00
sg58
Vhttp://pbs.twimg.com/profile_background_images/524668947174408192/Ca1Yct2c.jpeg
p287
sg59
Vsimplyyee
p288
sg61
I1
sg62
VOfficially me
p289
sg64
V7AC3EE
p290
sg65
Nsg66
I525660720
sg67
V16091F
p291
sbsg94
I9
sg95
V<a href="http://twitter.com/download/android" rel="nofollow">Twitter for Android</a>
p292
sg97
(lp293
g3
(g141
g5
Ntp294
Rp295
(dp296
g145
Vhttp://t.co/FHqtGWXoGa
p297
sg147
Vhttp://lockerdo.me/j8Q/AwH
p298
sbasg66
I544184310543425536
sbag3
(g4
g5
Ntp299
Rp300
(dp301
g9
I0
sg10
Nsg11
Nsg12
(lp302
g3
(g103
g5
Ntp303
Rp304
(dp305
g107
VSocial70
p306
sbasg14
I00
sg15
Nsg16
Nsg17
(lp307
sg19
Nsg20
Nsg21
Nsg22
VSun Dec 14 09:30:33 +0000 2014
p308
sg24
Nsg25
I00
sg26
VSyleena_Johnson
p309
sg28
Nsg29
I181630001
sg30
Nsg31
I00
sg32
Nsg33
(lp310
g3
(g35
g5
Ntp311
Rp312
(dp313
g10
Nsg39
Nsg40
Nsg41
Nsg42
Nsg43
Nsg22
Nsg44
Nsg45
Nsg46
Nsg47
Nsg48
Nsg49
Nsg50
Nsg51
Nsg52
Nsg53
Nsg54
Nsg55
Nsg56
Nsg57
Nsg58
Nsg59
VSyleena_Johnson
p314
sg61
Nsg62
VSyleena Johnson
p315
sg64
Nsg65
Nsg66
I181630001
sg67
Nsbasg68
Nsg69
Nsg70
Nsg71
V@Syleena_Johnson's 7 days of giving contest Day 7 Last day guys! :-( It's been Fun! Enter here &amp; good luck http://t.co/PGXZkOCVjG #Social70
p316
sg73
I00
sg74
Ven
p317
sg76
g3
(g35
g5
Ntp318
Rp319
(dp320
g10
VLondon
p321
sg39
V3D1957
p322
sg40
Ven
p323
sg41
VLondon
p324
sg42
I575
sg43
I5340
sg22
VThu Mar 15 19:10:58 +0000 2012
p325
sg44
I00
sg45
VI love music which makes me stop and think, music is the food to my soul, play on!! Play on!!
p326
sg46
Vhttps://pbs.twimg.com/profile_images/538757576553275393/l_n-l61__normal.jpeg
p327
sg47
I537
sg48
I782
sg49
I0
sg50
Nsg51
I00
sg52
Vhttps://pbs.twimg.com/profile_banners/525660720/1414965259
p328
sg53
I00
sg54
I01
sg55
V0400FF
p329
sg56
I01
sg57
I00
sg58
Vhttp://pbs.twimg.com/profile_background_images/524668947174408192/Ca1Yct2c.jpeg
p330
sg59
Vsimplyyee
p331
sg61
I1
sg62
VOfficially me
p332
sg64
V7AC3EE
p333
sg65
Nsg66
I525660720
sg67
V16091F
p334
sbsg94
I0
sg95
V<a href="http://twitter.com" rel="nofollow">Twitter Web Client</a>
p335
sg97
(lp336
g3
(g141
g5
Ntp337
Rp338
(dp339
g145
Vhttp://t.co/PGXZkOCVjG
p340
sg147
Vhttp://lockerdo.me/78$VY
p341
sbasg66
I544061872325292032
sbag3
(g4
g5
Ntp342
Rp343
(dp344
g9
I0
sg10
Nsg11
Nsg12
(lp345
g3
(g103
g5
Ntp346
Rp347
(dp348
g107
VSocial70
p349
sbasg14
I00
sg15
Nsg16
Nsg17
(lp350
(dp351
Vexpanded_url
p352
Vhttp://twitter.com/simplyyee/status/544060946462035968/photo/1
p353
sVdisplay_url
p354
Vpic.twitter.com/j8gKjh0Fpg
p355
sVurl
p356
Vhttp://t.co/j8gKjh0Fpg
p357
sVmedia_url_https
p358
Vhttps://pbs.twimg.com/media/B4zkjB5IAAAKIkp.jpg
p359
sVid_str
p360
V544060945459576832
p361
sVsizes
p362
(dp363
Vsmall
p364
(dp365
Vh
p366
I453
sVresize
p367
Vfit
p368
sVw
p369
I340
ssVlarge
p370
(dp371
Vh
p372
I960
sVresize
p373
Vfit
p374
sVw
p375
I720
ssVmedium
p376
(dp377
Vh
p378
I800
sVresize
p379
Vfit
p380
sVw
p381
I600
ssVthumb
p382
(dp383
Vh
p384
I150
sVresize
p385
Vcrop
p386
sVw
p387
I150
sssVindices
p388
(lp389
I62
aI84
asVtype
p390
Vphoto
p391
sVid
p392
I544060945459576832
sVmedia_url
p393
Vhttp://pbs.twimg.com/media/B4zkjB5IAAAKIkp.jpg
p394
sasg19
Nsg20
Nsg21
Nsg22
VSun Dec 14 09:26:52 +0000 2014
p395
sg24
Nsg25
I00
sg26
VSyleena_Johnson
p396
sg28
Nsg29
I181630001
sg30
Nsg31
I00
sg32
Nsg33
(lp397
g3
(g35
g5
Ntp398
Rp399
(dp400
g10
Nsg39
Nsg40
Nsg41
Nsg42
Nsg43
Nsg22
Nsg44
Nsg45
Nsg46
Nsg47
Nsg48
Nsg49
Nsg50
Nsg51
Nsg52
Nsg53
Nsg54
Nsg55
Nsg56
Nsg57
Nsg58
Nsg59
VSyleena_Johnson
p401
sg61
Nsg62
VSyleena Johnson
p402
sg64
Nsg65
Nsg66
I181630001
sg67
Nsbag3
(g35
g5
Ntp403
Rp404
(dp405
g10
Nsg39
Nsg40
Nsg41
Nsg42
Nsg43
Nsg22
Nsg44
Nsg45
Nsg46
Nsg47
Nsg48
Nsg49
Nsg50
Nsg51
Nsg52
Nsg53
Nsg54
Nsg55
Nsg56
Nsg57
Nsg58
Nsg59
VGARRIS22
p406
sg61
Nsg62
VKiwane Garris
p407
sg64
Nsg65
Nsg66
I189565878
sg67
Nsbasg68
Nsg69
Nsg70
Nsg71
V@Syleena_Johnson &amp; @GARRIS22  Marriage Bootcamp #Social70 http://t.co/j8gKjh0Fpg
p408
sg73
I00
sg74
Vfr
p409
sg76
g3
(g35
g5
Ntp410
Rp411
(dp412
g10
VLondon
p413
sg39
V3D1957
p414
sg40
Ven
p415
sg41
VLondon
p416
sg42
I575
sg43
I5340
sg22
VThu Mar 15 19:10:58 +0000 2012
p417
sg44
I00
sg45
VI love music which makes me stop and think, music is the food to my soul, play on!! Play on!!
p418
sg46
Vhttps://pbs.twimg.com/profile_images/538757576553275393/l_n-l61__normal.jpeg
p419
sg47
I537
sg48
I782
sg49
I0
sg50
Nsg51
I00
sg52
Vhttps://pbs.twimg.com/profile_banners/525660720/1414965259
p420
sg53
I00
sg54
I01
sg55
V0400FF
p421
sg56
I01
sg57
I00
sg58
Vhttp://pbs.twimg.com/profile_background_images/524668947174408192/Ca1Yct2c.jpeg
p422
sg59
Vsimplyyee
p423
sg61
I1
sg62
VOfficially me
p424
sg64
V7AC3EE
p425
sg65
Nsg66
I525660720
sg67
V16091F
p426
sbsg94
I1
sg95
V<a href="http://twitter.com" rel="nofollow">Twitter Web Client</a>
p427
sg97
(lp428
sg66
I544060946462035968
sbag3
(g4
g5
Ntp429
Rp430
(dp431
g9
I0
sg10
Nsg11
Nsg12
(lp432
g3
(g103
g5
Ntp433
Rp434
(dp435
g107
VSocial70
p436
sbasg14
I00
sg15
Nsg16
Nsg17
(lp437
sg19
Nsg20
Nsg21
Nsg22
VSun Dec 14 09:13:43 +0000 2014
p438
sg24
Nsg25
I00
sg26
Nsg28
Nsg29
Nsg30
Nsg31
I00
sg32
Nsg33
(lp439
sg68
Nsg69
Nsg70
Nsg71
VSyleena's 7 Days of Giving Holiday Contest: Day Seven \u2014  Acoustic Soul Sessions CD Last day! :-( I had fun #Social70 http://t.co/GqpsNx4Di5
p440
sg73
I00
sg74
Ven
p441
sg76
g3
(g35
g5
Ntp442
Rp443
(dp444
g10
VLondon
p445
sg39
V3D1957
p446
sg40
Ven
p447
sg41
VLondon
p448
sg42
I575
sg43
I5340
sg22
VThu Mar 15 19:10:58 +0000 2012
p449
sg44
I00
sg45
VI love music which makes me stop and think, music is the food to my soul, play on!! Play on!!
p450
sg46
Vhttps://pbs.twimg.com/profile_images/538757576553275393/l_n-l61__normal.jpeg
p451
sg47
I537
sg48
I782
sg49
I0
sg50
Nsg51
I00
sg52
Vhttps://pbs.twimg.com/profile_banners/525660720/1414965259
p452
sg53
I00
sg54
I01
sg55
V0400FF
p453
sg56
I01
sg57
I00
sg58
Vhttp://pbs.twimg.com/profile_background_images/524668947174408192/Ca1Yct2c.jpeg
p454
sg59
Vsimplyyee
p455
sg61
I1
sg62
VOfficially me
p456
sg64
V7AC3EE
p457
sg65
Nsg66
I525660720
sg67
V16091F
p458
sbsg94
I0
sg95
V<a href="http://lockerdome.com" rel="nofollow">LockerDome</a>
p459
sg97
(lp460
g3
(g141
g5
Ntp461
Rp462
(dp463
g145
Vhttp://t.co/GqpsNx4Di5
p464
sg147
Vhttp://lockerdo.me/6r*Pm
p465
sbasg66
I544057639089340416
sbag3
(g4
g5
Ntp466
Rp467
(dp468
g9
I2
sg10
Nsg11
Nsg12
(lp469
sg14
I00
sg15
Nsg16
Nsg17
(lp470
sg19
Nsg20
Nsg21
Nsg22
VSun Dec 14 08:59:09 +0000 2014
p471
sg24
Nsg25
I00
sg26
Nsg28
Nsg29
Nsg30
Nsg31
I00
sg32
Nsg33
(lp472
g3
(g35
g5
Ntp473
Rp474
(dp475
g10
Nsg39
Nsg40
Nsg41
Nsg42
Nsg43
Nsg22
Nsg44
Nsg45
Nsg46
Nsg47
Nsg48
Nsg49
Nsg50
Nsg51
Nsg52
Nsg53
Nsg54
Nsg55
Nsg56
Nsg57
Nsg58
Nsg59
VSyleena_Johnson
p476
sg61
Nsg62
VSyleena Johnson
p477
sg64
Nsg65
Nsg66
I181630001
sg67
Nsbasg68
Nsg69
Nsg70
Nsg71
V.@Syleena_Johnson's 7 Days of Giving Holiday Contest: Day Seven \u2014 Exclusive "Acoustic Soul Sessions" CD. Enter here: http://t.co/PGXZkOCVjG
p478
sg73
I00
sg74
Ven
p479
sg76
g3
(g35
g5
Ntp480
Rp481
(dp482
g10
VLondon
p483
sg39
V3D1957
p484
sg40
Ven
p485
sg41
VLondon
p486
sg42
I575
sg43
I5340
sg22
VThu Mar 15 19:10:58 +0000 2012
p487
sg44
I00
sg45
VI love music which makes me stop and think, music is the food to my soul, play on!! Play on!!
p488
sg46
Vhttps://pbs.twimg.com/profile_images/538757576553275393/l_n-l61__normal.jpeg
p489
sg47
I537
sg48
I782
sg49
I0
sg50
Nsg51
I00
sg52
Vhttps://pbs.twimg.com/profile_banners/525660720/1414965259
p490
sg53
I00
sg54
I01
sg55
V0400FF
p491
sg56
I01
sg57
I00
sg58
Vhttp://pbs.twimg.com/profile_background_images/524668947174408192/Ca1Yct2c.jpeg
p492
sg59
Vsimplyyee
p493
sg61
I1
sg62
VOfficially me
p494
sg64
V7AC3EE
p495
sg65
Nsg66
I525660720
sg67
V16091F
p496
sbsg94
I4
sg95
V<a href="http://lockerdome.com" rel="nofollow">LockerDome</a>
p497
sg97
(lp498
g3
(g141
g5
Ntp499
Rp500
(dp501
g145
Vhttp://t.co/PGXZkOCVjG
p502
sg147
Vhttp://lockerdo.me/78$VY
p503
sbasg66
I544053973066342400
sbag3
(g4
g5
Ntp504
Rp505
(dp506
g9
I0
sg10
Nsg11
Nsg12
(lp507
g3
(g103
g5
Ntp508
Rp509
(dp510
g107
VAmazonWishList
p511
sbasg14
I00
sg15
g3
(g4
g5
Ntp512
Rp513
(dp514
g9
I6
sg10
Nsg11
Nsg12
(lp515
g3
(g103
g5
Ntp516
Rp517
(dp518
g107
VAmazonWishList
p519
sbasg14
I00
sg15
Nsg16
Nsg17
(lp520
sg19
Nsg20
Nsg21
Nsg22
VSun Dec 14 04:37:29 +0000 2014
p521
sg24
Nsg25
I00
sg26
Nsg28
Nsg29
Nsg30
Nsg31
I00
sg32
Nsg33
(lp522
g3
(g35
g5
Ntp523
Rp524
(dp525
g10
Nsg39
Nsg40
Nsg41
Nsg42
Nsg43
Nsg22
Nsg44
Nsg45
Nsg46
Nsg47
Nsg48
Nsg49
Nsg50
Nsg51
Nsg52
Nsg53
Nsg54
Nsg55
Nsg56
Nsg57
Nsg58
Nsg59
Vamazon
p526
sg61
Nsg62
VAmazon
p527
sg64
Nsg65
Nsg66
I20793816
sg67
Nsbasg68
Nsg69
Nsg70
Nsg71
VChapter 6: Couples Therapy Greg Baker Pr... Reply w/ #AmazonWishList to add this http://t.co/HoBrtpRUkp via @amazon
p528
sg73
I00
sg74
Ven
p529
sg76
g3
(g35
g5
Ntp530
Rp531
(dp532
g10
VWORLDWIDE
p533
sg39
V3C3940
p534
sg40
Ven
p535
sg41
VCentral Time (US & Canada)
p536
sg42
I170921
sg43
I51304
sg22
VSun Aug 22 17:47:53 +0000 2010
p537
sg44
I01
sg45
VR&B Diva & CEO of She-Lean Health & Fitness, LLC MGMT: DYG Management Group, LLC, Dygmanagement@gmail.com
p538
sg46
Vhttps://pbs.twimg.com/profile_images/511535118993735682/cXaMiT6R_normal.jpeg
p539
sg47
I1378
sg48
I2029
sg49
I-21600
sg50
Nsg51
I00
sg52
Vhttps://pbs.twimg.com/profile_banners/181630001/1411333031
p540
sg53
I00
sg54
I01
sg55
V009999
p541
sg56
I01
sg57
I00
sg58
Vhttp://pbs.twimg.com/profile_background_images/513794933036032001/fG4TTI7T.jpeg
p542
sg59
VSyleena_Johnson
p543
sg61
I715
sg62
VSyleena Johnson
p544
sg64
V95E8EC
p545
sg65
Vhttp://t.co/fVCtnFLiW8
p546
sg66
I181630001
sg67
V131516
p547
sbsg94
I10
sg95
V<a href="https://dev.twitter.com/docs/tfw" rel="nofollow">Twitter for Websites</a>
p548
sg97
(lp549
g3
(g141
g5
Ntp550
Rp551
(dp552
g145
Vhttp://t.co/HoBrtpRUkp
p553
sg147
Vhttp://www.amazon.com/dp/B00NF4PN32/ref=cm_sw_r_tw_dp_cqrJub0KTTQP9
p554
sbasg66
I543988120195067904
sbsg16
Nsg17
(lp555
sg19
Nsg20
Nsg21
Nsg22
VSun Dec 14 08:39:15 +0000 2014
p556
sg24
Nsg25
I00
sg26
Nsg28
Nsg29
Nsg30
Nsg31
I00
sg32
Nsg33
(lp557
g3
(g35
g5
Ntp558
Rp559
(dp560
g10
Nsg39
Nsg40
Nsg41
Nsg42
Nsg43
Nsg22
Nsg44
Nsg45
Nsg46
Nsg47
Nsg48
Nsg49
Nsg50
Nsg51
Nsg52
Nsg53
Nsg54
Nsg55
Nsg56
Nsg57
Nsg58
Nsg59
VSyleena_Johnson
p561
sg61
Nsg62
VSyleena Johnson
p562
sg64
Nsg65
Nsg66
I181630001
sg67
Nsbag3
(g35
g5
Ntp563
Rp564
(dp565
g10
Nsg39
Nsg40
Nsg41
Nsg42
Nsg43
Nsg22
Nsg44
Nsg45
Nsg46
Nsg47
Nsg48
Nsg49
Nsg50
Nsg51
Nsg52
Nsg53
Nsg54
Nsg55
Nsg56
Nsg57
Nsg58
Nsg59
Vamazon
p566
sg61
Nsg62
VAmazon
p567
sg64
Nsg65
Nsg66
I20793816
sg67
Nsbasg68
Nsg69
Nsg70
Nsg71
VRT @Syleena_Johnson: Chapter 6: Couples Therapy Greg Baker Pr... Reply w/ #AmazonWishList to add this http://t.co/HoBrtpRUkp via @amazon
p568
sg73
I00
sg74
Ven
p569
sg76
g3
(g35
g5
Ntp570
Rp571
(dp572
g10
VLondon
p573
sg39
V3D1957
p574
sg40
Ven
p575
sg41
VLondon
p576
sg42
I575
sg43
I5340
sg22
VThu Mar 15 19:10:58 +0000 2012
p577
sg44
I00
sg45
VI love music which makes me stop and think, music is the food to my soul, play on!! Play on!!
p578
sg46
Vhttps://pbs.twimg.com/profile_images/538757576553275393/l_n-l61__normal.jpeg
p579
sg47
I537
sg48
I782
sg49
I0
sg50
Nsg51
I00
sg52
Vhttps://pbs.twimg.com/profile_banners/525660720/1414965259
p580
sg53
I00
sg54
I01
sg55
V0400FF
p581
sg56
I01
sg57
I00
sg58
Vhttp://pbs.twimg.com/profile_background_images/524668947174408192/Ca1Yct2c.jpeg
p582
sg59
Vsimplyyee
p583
sg61
I1
sg62
VOfficially me
p584
sg64
V7AC3EE
p585
sg65
Nsg66
I525660720
sg67
V16091F
p586
sbsg94
I10
sg95
V<a href="http://twitter.com" rel="nofollow">Twitter Web Client</a>
p587
sg97
(lp588
g3
(g141
g5
Ntp589
Rp590
(dp591
g145
Vhttp://t.co/HoBrtpRUkp
p592
sg147
Vhttp://www.amazon.com/dp/B00NF4PN32/ref=cm_sw_r_tw_dp_cqrJub0KTTQP9
p593
sbasg66
I544048961989136384
sbag3
(g4
g5
Ntp594
Rp595
(dp596
g9
I0
sg10
Nsg11
Nsg12
(lp597
g3
(g103
g5
Ntp598
Rp599
(dp600
g107
VSocial70
p601
sbasg14
I00
sg15
Nsg16
Nsg17
(lp602
sg19
Nsg20
Nsg21
Nsg22
VSat Dec 13 22:57:09 +0000 2014
p603
sg24
Nsg25
I00
sg26
Nsg28
Nsg29
Nsg30
Nsg31
I00
sg32
Nsg33
(lp604
g3
(g35
g5
Ntp605
Rp606
(dp607
g10
Nsg39
Nsg40
Nsg41
Nsg42
Nsg43
Nsg22
Nsg44
Nsg45
Nsg46
Nsg47
Nsg48
Nsg49
Nsg50
Nsg51
Nsg52
Nsg53
Nsg54
Nsg55
Nsg56
Nsg57
Nsg58
Nsg59
VSyleena_Johnson
p608
sg61
Nsg62
VSyleena Johnson
p609
sg64
Nsg65
Nsg66
I181630001
sg67
Nsbasg68
Nsg69
Nsg70
Nsg71
VVote for Couples therapy by @Syleena_Johnson  to win best Indie album 2014 This album is simply AMAZING!! http://t.co/SSD84pGEWE #Social70
p610
sg73
I00
sg74
Ven
p611
sg76
g3
(g35
g5
Ntp612
Rp613
(dp614
g10
VLondon
p615
sg39
V3D1957
p616
sg40
Ven
p617
sg41
VLondon
p618
sg42
I575
sg43
I5340
sg22
VThu Mar 15 19:10:58 +0000 2012
p619
sg44
I00
sg45
VI love music which makes me stop and think, music is the food to my soul, play on!! Play on!!
p620
sg46
Vhttps://pbs.twimg.com/profile_images/538757576553275393/l_n-l61__normal.jpeg
p621
sg47
I537
sg48
I782
sg49
I0
sg50
Nsg51
I00
sg52
Vhttps://pbs.twimg.com/profile_banners/525660720/1414965259
p622
sg53
I00
sg54
I01
sg55
V0400FF
p623
sg56
I01
sg57
I00
sg58
Vhttp://pbs.twimg.com/profile_background_images/524668947174408192/Ca1Yct2c.jpeg
p624
sg59
Vsimplyyee
p625
sg61
I1
sg62
VOfficially me
p626
sg64
V7AC3EE
p627
sg65
Nsg66
I525660720
sg67
V16091F
p628
sbsg94
I0
sg95
V<a href="http://twitter.com" rel="nofollow">Twitter Web Client</a>
p629
sg97
(lp630
g3
(g141
g5
Ntp631
Rp632
(dp633
g145
Vhttp://t.co/SSD84pGEWE
p634
sg147
Vhttp://bit.ly/11kl8pd
p635
sbasg66
I543902474160320513
sbag3
(g4
g5
Ntp636
Rp637
(dp638
g9
I0
sg10
Nsg11
Nsg12
(lp639
sg14
I00
sg15
g3
(g4
g5
Ntp640
Rp641
(dp642
g9
I1
sg10
Nsg11
Nsg12
(lp643
sg14
I00
sg15
Nsg16
Nsg17
(lp644
(dp645
Vexpanded_url
p646
Vhttp://twitter.com/FriskyDJ/status/543887065524760576/photo/1
p647
sVdisplay_url
p648
Vpic.twitter.com/jITfokh7UC
p649
sVurl
p650
Vhttp://t.co/jITfokh7UC
p651
sVmedia_url_https
p652
Vhttps://pbs.twimg.com/media/B4xGZZ6CEAED1uM.jpg
p653
sVid_str
p654
V543887057269952513
p655
sVsizes
p656
(dp657
Vlarge
p658
(dp659
Vh
p660
I1024
sVresize
p661
Vfit
p662
sVw
p663
I577
ssVsmall
p664
(dp665
Vh
p666
I603
sVresize
p667
Vfit
p668
sVw
p669
I340
ssVmedium
p670
(dp671
Vh
p672
I1024
sVresize
p673
Vfit
p674
sVw
p675
I577
ssVthumb
p676
(dp677
Vh
p678
I150
sVresize
p679
Vcrop
p680
sVw
p681
I150
sssVindices
p682
(lp683
I33
aI55
asVtype
p684
Vphoto
p685
sVid
p686
I543887057269952513
sVmedia_url
p687
Vhttp://pbs.twimg.com/media/B4xGZZ6CEAED1uM.jpg
p688
sasg19
Nsg20
Nsg21
Nsg22
VSat Dec 13 21:55:56 +0000 2014
p689
sg24
Nsg25
I00
sg26
VSyleena_Johnson
p690
sg28
Nsg29
I181630001
sg30
Nsg31
I00
sg32
Nsg33
(lp691
g3
(g35
g5
Ntp692
Rp693
(dp694
g10
Nsg39
Nsg40
Nsg41
Nsg42
Nsg43
Nsg22
Nsg44
Nsg45
Nsg46
Nsg47
Nsg48
Nsg49
Nsg50
Nsg51
Nsg52
Nsg53
Nsg54
Nsg55
Nsg56
Nsg57
Nsg58
Nsg59
VSyleena_Johnson
p695
sg61
Nsg62
VSyleena Johnson
p696
sg64
Nsg65
Nsg66
I181630001
sg67
Nsbasg68
Nsg69
Nsg70
Nsg71
V@Syleena_Johnson this tune 10/10 http://t.co/jITfokh7UC
p697
sg73
I00
sg74
Ven
p698
sg76
g3
(g35
g5
Ntp699
Rp700
(dp701
g10
VEast London, UK
p702
sg39
V333333
p703
sg40
Ven
p704
sg41
VLondon
p705
sg42
I10443
sg43
I41507
sg22
VMon Feb 23 02:09:56 +0000 2009
p706
sg44
I00
sg45
VPromoter For @TheShowTour @FDJConcerts / Radio DJ / Club DJ / - Instagram: @FriskyDJ @OntopFM Thursdays 10pm-12am (GMT)
p707
sg46
Vhttps://pbs.twimg.com/profile_images/440611879883649024/qNKAkaky_normal.jpeg
p708
sg47
I2650
sg48
I767
sg49
I0
sg50
Nsg51
I00
sg52
Vhttps://pbs.twimg.com/profile_banners/21622418/1392735215
p709
sg53
I00
sg54
I01
sg55
V0084B4
p710
sg56
I00
sg57
I00
sg58
Vhttp://pbs.twimg.com/profile_background_images/244692429/logo1_web_small.png
p711
sg59
VFriskyDJ
p712
sg61
I62
sg62
VFrisky DJ
p713
sg64
VDDEEF6
p714
sg65
Nsg66
I21622418
sg67
VC0DEED
p715
sbsg94
I1
sg95
V<a href="http://twitter.com/download/iphone" rel="nofollow">Twitter for iPhone</a>
p716
sg97
(lp717
sg66
I543887065524760576
sbsg16
Nsg17
(lp718
(dp719
Vsource_user_id
p720
I21622418
sVsource_status_id_str
p721
V543887065524760576
p722
sVexpanded_url
p723
Vhttp://twitter.com/FriskyDJ/status/543887065524760576/photo/1
p724
sVdisplay_url
p725
Vpic.twitter.com/jITfokh7UC
p726
sVurl
p727
Vhttp://t.co/jITfokh7UC
p728
sVmedia_url_https
p729
Vhttps://pbs.twimg.com/media/B4xGZZ6CEAED1uM.jpg
p730
sVsource_user_id_str
p731
V21622418
p732
sVsource_status_id
p733
I543887065524760576
sVid_str
p734
V543887057269952513
p735
sVsizes
p736
(dp737
Vlarge
p738
(dp739
Vh
p740
I1024
sVresize
p741
Vfit
p742
sVw
p743
I577
ssVsmall
p744
(dp745
Vh
p746
I603
sVresize
p747
Vfit
p748
sVw
p749
I340
ssVmedium
p750
(dp751
Vh
p752
I1024
sVresize
p753
Vfit
p754
sVw
p755
I577
ssVthumb
p756
(dp757
Vh
p758
I150
sVresize
p759
Vcrop
p760
sVw
p761
I150
sssVindices
p762
(lp763
I47
aI69
asVtype
p764
Vphoto
p765
sVid
p766
I543887057269952513
sVmedia_url
p767
Vhttp://pbs.twimg.com/media/B4xGZZ6CEAED1uM.jpg
p768
sasg19
Nsg20
Nsg21
Nsg22
VSat Dec 13 22:17:41 +0000 2014
p769
sg24
Nsg25
I00
sg26
Nsg28
Nsg29
Nsg30
Nsg31
I00
sg32
Nsg33
(lp770
g3
(g35
g5
Ntp771
Rp772
(dp773
g10
Nsg39
Nsg40
Nsg41
Nsg42
Nsg43
Nsg22
Nsg44
Nsg45
Nsg46
Nsg47
Nsg48
Nsg49
Nsg50
Nsg51
Nsg52
Nsg53
Nsg54
Nsg55
Nsg56
Nsg57
Nsg58
Nsg59
VFriskyDJ
p774
sg61
Nsg62
VFrisky DJ
p775
sg64
Nsg65
Nsg66
I21622418
sg67
Nsbag3
(g35
g5
Ntp776
Rp777
(dp778
g10
Nsg39
Nsg40
Nsg41
Nsg42
Nsg43
Nsg22
Nsg44
Nsg45
Nsg46
Nsg47
Nsg48
Nsg49
Nsg50
Nsg51
Nsg52
Nsg53
Nsg54
Nsg55
Nsg56
Nsg57
Nsg58
Nsg59
VSyleena_Johnson
p779
sg61
Nsg62
VSyleena Johnson
p780
sg64
Nsg65
Nsg66
I181630001
sg67
Nsbasg68
Nsg69
Nsg70
Nsg71
VRT @FriskyDJ: @Syleena_Johnson this tune 10/10 http://t.co/jITfokh7UC
p781
sg73
I00
sg74
Ven
p782
sg76
g3
(g35
g5
Ntp783
Rp784
(dp785
g10
VLondon
p786
sg39
V3D1957
p787
sg40
Ven
p788
sg41
VLondon
p789
sg42
I575
sg43
I5340
sg22
VThu Mar 15 19:10:58 +0000 2012
p790
sg44
I00
sg45
VI love music which makes me stop and think, music is the food to my soul, play on!! Play on!!
p791
sg46
Vhttps://pbs.twimg.com/profile_images/538757576553275393/l_n-l61__normal.jpeg
p792
sg47
I537
sg48
I782
sg49
I0
sg50
Nsg51
I00
sg52
Vhttps://pbs.twimg.com/profile_banners/525660720/1414965259
p793
sg53
I00
sg54
I01
sg55
V0400FF
p794
sg56
I01
sg57
I00
sg58
Vhttp://pbs.twimg.com/profile_background_images/524668947174408192/Ca1Yct2c.jpeg
p795
sg59
Vsimplyyee
p796
sg61
I1
sg62
VOfficially me
p797
sg64
V7AC3EE
p798
sg65
Nsg66
I525660720
sg67
V16091F
p799
sbsg94
I1
sg95
V<a href="http://twitter.com" rel="nofollow">Twitter Web Client</a>
p800
sg97
(lp801
sg66
I543892540853084161
sbag3
(g4
g5
Ntp802
Rp803
(dp804
g9
I0
sg10
Nsg11
Nsg12
(lp805
sg14
I00
sg15
Nsg16
Nsg17
(lp806
sg19
Nsg20
Nsg21
Nsg22
VSat Dec 13 22:17:29 +0000 2014
p807
sg24
Nsg25
Nsg26
VFriskyDJ
p808
sg28
Nsg29
I21622418
sg30
Nsg31
I00
sg32
Nsg33
(lp809
g3
(g35
g5
Ntp810
Rp811
(dp812
g10
Nsg39
Nsg40
Nsg41
Nsg42
Nsg43
Nsg22
Nsg44
Nsg45
Nsg46
Nsg47
Nsg48
Nsg49
Nsg50
Nsg51
Nsg52
Nsg53
Nsg54
Nsg55
Nsg56
Nsg57
Nsg58
Nsg59
VFriskyDJ
p813
sg61
Nsg62
VFrisky DJ
p814
sg64
Nsg65
Nsg66
I21622418
sg67
Nsbag3
(g35
g5
Ntp815
Rp816
(dp817
g10
Nsg39
Nsg40
Nsg41
Nsg42
Nsg43
Nsg22
Nsg44
Nsg45
Nsg46
Nsg47
Nsg48
Nsg49
Nsg50
Nsg51
Nsg52
Nsg53
Nsg54
Nsg55
Nsg56
Nsg57
Nsg58
Nsg59
VSyleena_Johnson
p818
sg61
Nsg62
VSyleena Johnson
p819
sg64
Nsg65
Nsg66
I181630001
sg67
Nsbasg68
Nsg69
Nsg70
I543887065524760576
sg71
V@FriskyDJ @Syleena_Johnson This tune is the shish!! I hope Syleena sings this at the O2 Arena in February I Got My ticket! Can't wait!!!
p820
sg73
I00
sg74
Ven
p821
sg76
g3
(g35
g5
Ntp822
Rp823
(dp824
g10
VLondon
p825
sg39
V3D1957
p826
sg40
Ven
p827
sg41
VLondon
p828
sg42
I575
sg43
I5340
sg22
VThu Mar 15 19:10:58 +0000 2012
p829
sg44
I00
sg45
VI love music which makes me stop and think, music is the food to my soul, play on!! Play on!!
p830
sg46
Vhttps://pbs.twimg.com/profile_images/538757576553275393/l_n-l61__normal.jpeg
p831
sg47
I537
sg48
I782
sg49
I0
sg50
Nsg51
I00
sg52
Vhttps://pbs.twimg.com/profile_banners/525660720/1414965259
p832
sg53
I00
sg54
I01
sg55
V0400FF
p833
sg56
I01
sg57
I00
sg58
Vhttp://pbs.twimg.com/profile_background_images/524668947174408192/Ca1Yct2c.jpeg
p834
sg59
Vsimplyyee
p835
sg61
I1
sg62
VOfficially me
p836
sg64
V7AC3EE
p837
sg65
Nsg66
I525660720
sg67
V16091F
p838
sbsg94
I0
sg95
V<a href="http://twitter.com" rel="nofollow">Twitter Web Client</a>
p839
sg97
(lp840
sg66
I543892491981041664
sbag3
(g4
g5
Ntp841
Rp842
(dp843
g9
I1
sg10
Nsg11
Nsg12
(lp844
g3
(g103
g5
Ntp845
Rp846
(dp847
g107
VSocial70
p848
sbasg14
I00
sg15
Nsg16
Nsg17
(lp849
sg19
Nsg20
Nsg21
Nsg22
VSat Dec 13 20:19:32 +0000 2014
p850
sg24
Nsg25
I00
sg26
Nsg28
Nsg29
Nsg30
Nsg31
I00
sg32
Nsg33
(lp851
g3
(g35
g5
Ntp852
Rp853
(dp854
g10
Nsg39
Nsg40
Nsg41
Nsg42
Nsg43
Nsg22
Nsg44
Nsg45
Nsg46
Nsg47
Nsg48
Nsg49
Nsg50
Nsg51
Nsg52
Nsg53
Nsg54
Nsg55
Nsg56
Nsg57
Nsg58
Nsg59
VSyleena_Johnson
p855
sg61
Nsg62
VSyleena Johnson
p856
sg64
Nsg65
Nsg66
I181630001
sg67
Nsbasg68
Nsg69
Nsg70
Nsg71
VI'm watching @Syleena_Johnson coach the Celebrity Basket Ball Game for Charity Give Back Tune in here&gt;&gt; http://t.co/jKM2BKEzVo #Social70
p857
sg73
I00
sg74
Ven
p858
sg76
g3
(g35
g5
Ntp859
Rp860
(dp861
g10
VLondon
p862
sg39
V3D1957
p863
sg40
Ven
p864
sg41
VLondon
p865
sg42
I575
sg43
I5340
sg22
VThu Mar 15 19:10:58 +0000 2012
p866
sg44
I00
sg45
VI love music which makes me stop and think, music is the food to my soul, play on!! Play on!!
p867
sg46
Vhttps://pbs.twimg.com/profile_images/538757576553275393/l_n-l61__normal.jpeg
p868
sg47
I537
sg48
I782
sg49
I0
sg50
Nsg51
I00
sg52
Vhttps://pbs.twimg.com/profile_banners/525660720/1414965259
p869
sg53
I00
sg54
I01
sg55
V0400FF
p870
sg56
I01
sg57
I00
sg58
Vhttp://pbs.twimg.com/profile_background_images/524668947174408192/Ca1Yct2c.jpeg
p871
sg59
Vsimplyyee
p872
sg61
I1
sg62
VOfficially me
p873
sg64
V7AC3EE
p874
sg65
Nsg66
I525660720
sg67
V16091F
p875
sbsg94
I3
sg95
V<a href="http://twitter.com" rel="nofollow">Twitter Web Client</a>
p876
sg97
(lp877
g3
(g141
g5
Ntp878
Rp879
(dp880
g145
Vhttp://t.co/jKM2BKEzVo
p881
sg147
Vhttp://www.givebacklove.org/
p882
sbasg66
I543862805662015489
sbag3
(g4
g5
Ntp883
Rp884
(dp885
g9
I0
sg10
Nsg11
Nsg12
(lp886
sg14
I00
sg15
g3
(g4
g5
Ntp887
Rp888
(dp889
g9
I1
sg10
Nsg11
Nsg12
(lp890
sg14
I00
sg15
Nsg16
Nsg17
(lp891
sg19
Nsg20
Nsg21
Nsg22
VSat Dec 13 18:36:11 +0000 2014
p892
sg24
Nsg25
I00
sg26
Nsg28
Nsg29
Nsg30
Nsg31
I00
sg32
Nsg33
(lp893
g3
(g35
g5
Ntp894
Rp895
(dp896
g10
Nsg39
Nsg40
Nsg41
Nsg42
Nsg43
Nsg22
Nsg44
Nsg45
Nsg46
Nsg47
Nsg48
Nsg49
Nsg50
Nsg51
Nsg52
Nsg53
Nsg54
Nsg55
Nsg56
Nsg57
Nsg58
Nsg59
VYouTube
p897
sg61
Nsg62
VYouTube
p898
sg64
Nsg65
Nsg66
I10228272
sg67
Nsbasg68
Nsg69
Nsg70
Nsg71
VLaRon Jones - Syleena Johnson Boom Cover: http://t.co/497Y8DsHec via @YouTube
p899
sg73
I00
sg74
Ven
p900
sg76
g3
(g35
g5
Ntp901
Rp902
(dp903
g10
VIndiana/Some Runway
p904
sg39
V10665F
p905
sg40
Ven
p906
sg41
VAmerica/Chicago
p907
sg42
I445
sg43
I17971
sg22
VSun Oct 31 20:24:47 +0000 2010
p908
sg44
I00
sg45
VModel, Singer- Love music, fashion, animation, very outgoing cool dude . #TeamBlessed! #TeamChristian #TeamDarkSkin #TeamPUC
p909
sg46
Vhttps://pbs.twimg.com/profile_images/438669614411571200/o7SStVYY_normal.jpeg
p910
sg47
I425
sg48
I366
sg49
I-21600
sg50
Nsg51
I00
sg52
Vhttps://pbs.twimg.com/profile_banners/210592340/1397347246
p911
sg53
I00
sg54
I01
sg55
VDB2C11
p912
sg56
I00
sg57
I00
sg58
Vhttp://pbs.twimg.com/profile_background_images/651291629/oy5r0y6z1bekuk42s41c.jpeg
p913
sg59
VLaRons_Way
p914
sg61
I4
sg62
V\u2605King Ron\u2605
p915
sg64
VA1A7A8
p916
sg65
Vhttp://t.co/wZRunaTzzZ
p917
sg66
I210592340
sg67
V06070A
p918
sbsg94
I1
sg95
V<a href="http://www.google.com/" rel="nofollow">Google</a>
p919
sg97
(lp920
g3
(g141
g5
Ntp921
Rp922
(dp923
g145
Vhttp://t.co/497Y8DsHec
p924
sg147
Vhttp://youtu.be/Fs0A--WPn3o?a
p925
sbasg66
I543836800616132608
sbsg16
Nsg17
(lp926
sg19
Nsg20
Nsg21
Nsg22
VSat Dec 13 19:48:00 +0000 2014
p927
sg24
Nsg25
I00
sg26
Nsg28
Nsg29
Nsg30
Nsg31
I00
sg32
Nsg33
(lp928
g3
(g35
g5
Ntp929
Rp930
(dp931
g10
Nsg39
Nsg40
Nsg41
Nsg42
Nsg43
Nsg22
Nsg44
Nsg45
Nsg46
Nsg47
Nsg48
Nsg49
Nsg50
Nsg51
Nsg52
Nsg53
Nsg54
Nsg55
Nsg56
Nsg57
Nsg58
Nsg59
VLaRons_Way
p932
sg61
Nsg62
V\u2605King Ron\u2605
p933
sg64
Nsg65
Nsg66
I210592340
sg67
Nsbag3
(g35
g5
Ntp934
Rp935
(dp936
g10
Nsg39
Nsg40
Nsg41
Nsg42
Nsg43
Nsg22
Nsg44
Nsg45
Nsg46
Nsg47
Nsg48
Nsg49
Nsg50
Nsg51
Nsg52
Nsg53
Nsg54
Nsg55
Nsg56
Nsg57
Nsg58
Nsg59
VYouTube
p937
sg61
Nsg62
VYouTube
p938
sg64
Nsg65
Nsg66
I10228272
sg67
Nsbasg68
Nsg69
Nsg70
Nsg71
VRT @LaRons_Way: LaRon Jones - Syleena Johnson Boom Cover: http://t.co/497Y8DsHec via @YouTube
p939
sg73
I00
sg74
Ven
p940
sg76
g3
(g35
g5
Ntp941
Rp942
(dp943
g10
VLondon
p944
sg39
V3D1957
p945
sg40
Ven
p946
sg41
VLondon
p947
sg42
I575
sg43
I5340
sg22
VThu Mar 15 19:10:58 +0000 2012
p948
sg44
I00
sg45
VI love music which makes me stop and think, music is the food to my soul, play on!! Play on!!
p949
sg46
Vhttps://pbs.twimg.com/profile_images/538757576553275393/l_n-l61__normal.jpeg
p950
sg47
I537
sg48
I782
sg49
I0
sg50
Nsg51
I00
sg52
Vhttps://pbs.twimg.com/profile_banners/525660720/1414965259
p951
sg53
I00
sg54
I01
sg55
V0400FF
p952
sg56
I01
sg57
I00
sg58
Vhttp://pbs.twimg.com/profile_background_images/524668947174408192/Ca1Yct2c.jpeg
p953
sg59
Vsimplyyee
p954
sg61
I1
sg62
VOfficially me
p955
sg64
V7AC3EE
p956
sg65
Nsg66
I525660720
sg67
V16091F
p957
sbsg94
I1
sg95
V<a href="http://twitter.com" rel="nofollow">Twitter Web Client</a>
p958
sg97
(lp959
g3
(g141
g5
Ntp960
Rp961
(dp962
g145
Vhttp://t.co/497Y8DsHec
p963
sg147
Vhttp://youtu.be/Fs0A--WPn3o?a
p964
sbasg66
I543854871947264000
sbag3
(g4
g5
Ntp965
Rp966
(dp967
g9
I0
sg10
Nsg11
Nsg12
(lp968
sg14
I00
sg15
g3
(g4
g5
Ntp969
Rp970
(dp971
g9
I5
sg10
Nsg11
Nsg12
(lp972
sg14
I00
sg15
Nsg16
Nsg17
(lp973
sg19
Nsg20
Nsg21
Nsg22
VSat Dec 13 19:32:17 +0000 2014
p974
sg24
Nsg25
Nsg26
Nsg28
Nsg29
Nsg30
Nsg31
I00
sg32
Nsg33
(lp975
g3
(g35
g5
Ntp976
Rp977
(dp978
g10
Nsg39
Nsg40
Nsg41
Nsg42
Nsg43
Nsg22
Nsg44
Nsg45
Nsg46
Nsg47
Nsg48
Nsg49
Nsg50
Nsg51
Nsg52
Nsg53
Nsg54
Nsg55
Nsg56
Nsg57
Nsg58
Nsg59
VPIERREMEDOR
p979
sg61
Nsg62
V#TheMaven
p980
sg64
Nsg65
Nsg66
I60713087
sg67
Nsbag3
(g35
g5
Ntp981
Rp982
(dp983
g10
Nsg39
Nsg40
Nsg41
Nsg42
Nsg43
Nsg22
Nsg44
Nsg45
Nsg46
Nsg47
Nsg48
Nsg49
Nsg50
Nsg51
Nsg52
Nsg53
Nsg54
Nsg55
Nsg56
Nsg57
Nsg58
Nsg59
VyaboyKAJUN
p984
sg61
Nsg62
VKAJUN
p985
sg64
Nsg65
Nsg66
I25361901
sg67
Nsbag3
(g35
g5
Ntp986
Rp987
(dp988
g10
Nsg39
Nsg40
Nsg41
Nsg42
Nsg43
Nsg22
Nsg44
Nsg45
Nsg46
Nsg47
Nsg48
Nsg49
Nsg50
Nsg51
Nsg52
Nsg53
Nsg54
Nsg55
Nsg56
Nsg57
Nsg58
Nsg59
VRicAtari
p989
sg61
Nsg62
VRic Atari
p990
sg64
Nsg65
Nsg66
I42233478
sg67
Nsbag3
(g35
g5
Ntp991
Rp992
(dp993
g10
Nsg39
Nsg40
Nsg41
Nsg42
Nsg43
Nsg22
Nsg44
Nsg45
Nsg46
Nsg47
Nsg48
Nsg49
Nsg50
Nsg51
Nsg52
Nsg53
Nsg54
Nsg55
Nsg56
Nsg57
Nsg58
Nsg59
VUCanCallMeMave
p994
sg61
Nsg62
VMave (N8 Tha Maven)
p995
sg64
Nsg65
Nsg66
I36431220
sg67
Nsbag3
(g35
g5
Ntp996
Rp997
(dp998
g10
Nsg39
Nsg40
Nsg41
Nsg42
Nsg43
Nsg22
Nsg44
Nsg45
Nsg46
Nsg47
Nsg48
Nsg49
Nsg50
Nsg51
Nsg52
Nsg53
Nsg54
Nsg55
Nsg56
Nsg57
Nsg58
Nsg59
VSyleena_Johnson
p999
sg61
Nsg62
VSyleena Johnson
p1000
sg64
Nsg65
Nsg66
I181630001
sg67
Nsbasg68
Nsg69
Nsg70
Nsg71
VMannnn Chapter 6: Couples Therapy is so dope! 2015 is gonna be crazy! @PIERREMEDOR @yaboyKAJUN @RicAtari @UCanCallMeMave @Syleena_Johnson
p1001
sg73
I00
sg74
Ven
p1002
sg76
g3
(g35
g5
Ntp1003
Rp1004
(dp1005
g10
VHonoring Baby Keeya
p1006
sg39
V333333
p1007
sg40
Ven
p1008
sg41
VEastern Time (US & Canada)
p1009
sg42
I7535
sg43
I58580
sg22
VWed Mar 04 03:26:42 +0000 2009
p1010
sg44
I00
sg45
VEntertainment Manager. Visionary. Independent Thinker. Servant. Author. Music Enthusiast. Educator. Lover. Sister. Friend. Daughter. Mother. Gods Child.
p1011
sg46
Vhttps://pbs.twimg.com/profile_images/514952378312036353/Bn3c5EwI_normal.jpeg
p1012
sg47
I1214
sg48
I1855
sg49
I-18000
sg50
Nsg51
I00
sg52
Vhttps://pbs.twimg.com/profile_banners/22726788/1387925629
p1013
sg53
I00
sg54
I01
sg55
V009999
p1014
sg56
I00
sg57
I00
sg58
Vhttp://abs.twimg.com/images/themes/theme14/bg.gif
p1015
sg59
Vsyleecia
p1016
sg61
I78
sg62
VDr.SyleeciaThompson
p1017
sg64
VEFEFEF
p1018
sg65
Vhttp://t.co/Zrwu68ybAW
p1019
sg66
I22726788
sg67
V131516
p1020
sbsg94
I9
sg95
V<a href="http://twitter.com/download/android" rel="nofollow">Twitter for Android</a>
p1021
sg97
(lp1022
sg66
I543850915871334401
sbsg16
Nsg17
(lp1023
sg19
Nsg20
Nsg21
Nsg22
VSat Dec 13 19:41:03 +0000 2014
p1024
sg24
Nsg25
Nsg26
Nsg28
Nsg29
Nsg30
Nsg31
I00
sg32
Nsg33
(lp1025
g3
(g35
g5
Ntp1026
Rp1027
(dp1028
g10
Nsg39
Nsg40
Nsg41
Nsg42
Nsg43
Nsg22
Nsg44
Nsg45
Nsg46
Nsg47
Nsg48
Nsg49
Nsg50
Nsg51
Nsg52
Nsg53
Nsg54
Nsg55
Nsg56
Nsg57
Nsg58
Nsg59
Vsyleecia
p1029
sg61
Nsg62
VDr.SyleeciaThompson
p1030
sg64
Nsg65
Nsg66
I22726788
sg67
Nsbag3
(g35
g5
Ntp1031
Rp1032
(dp1033
g10
Nsg39
Nsg40
Nsg41
Nsg42
Nsg43
Nsg22
Nsg44
Nsg45
Nsg46
Nsg47
Nsg48
Nsg49
Nsg50
Nsg51
Nsg52
Nsg53
Nsg54
Nsg55
Nsg56
Nsg57
Nsg58
Nsg59
VPIERREMEDOR
p1034
sg61
Nsg62
V#TheMaven
p1035
sg64
Nsg65
Nsg66
I60713087
sg67
Nsbag3
(g35
g5
Ntp1036
Rp1037
(dp1038
g10
Nsg39
Nsg40
Nsg41
Nsg42
Nsg43
Nsg22
Nsg44
Nsg45
Nsg46
Nsg47
Nsg48
Nsg49
Nsg50
Nsg51
Nsg52
Nsg53
Nsg54
Nsg55
Nsg56
Nsg57
Nsg58
Nsg59
VyaboyKAJUN
p1039
sg61
Nsg62
VKAJUN
p1040
sg64
Nsg65
Nsg66
I25361901
sg67
Nsbag3
(g35
g5
Ntp1041
Rp1042
(dp1043
g10
Nsg39
Nsg40
Nsg41
Nsg42
Nsg43
Nsg22
Nsg44
Nsg45
Nsg46
Nsg47
Nsg48
Nsg49
Nsg50
Nsg51
Nsg52
Nsg53
Nsg54
Nsg55
Nsg56
Nsg57
Nsg58
Nsg59
VRicAtari
p1044
sg61
Nsg62
VRic Atari
p1045
sg64
Nsg65
Nsg66
I42233478
sg67
Nsbag3
(g35
g5
Ntp1046
Rp1047
(dp1048
g10
Nsg39
Nsg40
Nsg41
Nsg42
Nsg43
Nsg22
Nsg44
Nsg45
Nsg46
Nsg47
Nsg48
Nsg49
Nsg50
Nsg51
Nsg52
Nsg53
Nsg54
Nsg55
Nsg56
Nsg57
Nsg58
Nsg59
VUCanCallMeMave
p1049
sg61
Nsg62
VMave (N8 Tha Maven)
p1050
sg64
Nsg65
Nsg66
I36431220
sg67
Nsbag3
(g35
g5
Ntp1051
Rp1052
(dp1053
g10
Nsg39
Nsg40
Nsg41
Nsg42
Nsg43
Nsg22
Nsg44
Nsg45
Nsg46
Nsg47
Nsg48
Nsg49
Nsg50
Nsg51
Nsg52
Nsg53
Nsg54
Nsg55
Nsg56
Nsg57
Nsg58
Nsg59
VSyleena_Johnson
p1054
sg61
Nsg62
VSyleena Johnson
p1055
sg64
Nsg65
Nsg66
I181630001
sg67
Nsbasg68
Nsg69
Nsg70
Nsg71
VRT @syleecia: Mannnn Chapter 6: Couples Therapy is so dope! 2015 is gonna be crazy! @PIERREMEDOR @yaboyKAJUN @RicAtari @UCanCallMeMave @Syl\u2026
p1056
sg73
I00
sg74
Ven
p1057
sg76
g3
(g35
g5
Ntp1058
Rp1059
(dp1060
g10
VLondon
p1061
sg39
V3D1957
p1062
sg40
Ven
p1063
sg41
VLondon
p1064
sg42
I575
sg43
I5340
sg22
VThu Mar 15 19:10:58 +0000 2012
p1065
sg44
I00
sg45
VI love music which makes me stop and think, music is the food to my soul, play on!! Play on!!
p1066
sg46
Vhttps://pbs.twimg.com/profile_images/538757576553275393/l_n-l61__normal.jpeg
p1067
sg47
I537
sg48
I782
sg49
I0
sg50
Nsg51
I00
sg52
Vhttps://pbs.twimg.com/profile_banners/525660720/1414965259
p1068
sg53
I00
sg54
I01
sg55
V0400FF
p1069
sg56
I01
sg57
I00
sg58
Vhttp://pbs.twimg.com/profile_background_images/524668947174408192/Ca1Yct2c.jpeg
p1070
sg59
Vsimplyyee
p1071
sg61
I1
sg62
VOfficially me
p1072
sg64
V7AC3EE
p1073
sg65
Nsg66
I525660720
sg67
V16091F
p1074
sbsg94
I9
sg95
V<a href="http://twitter.com" rel="nofollow">Twitter Web Client</a>
p1075
sg97
(lp1076
sg66
I543853122456928256
sbag3
(g4
g5
Ntp1077
Rp1078
(dp1079
g9
I0
sg10
Nsg11
Nsg12
(lp1080
g3
(g103
g5
Ntp1081
Rp1082
(dp1083
g107
VRepost
p1084
sbasg14
I00
sg15
g3
(g4
g5
Ntp1085
Rp1086
(dp1087
g9
I5
sg10
Nsg11
Nsg12
(lp1088
g3
(g103
g5
Ntp1089
Rp1090
(dp1091
g107
VRepost
p1092
sbasg14
I00
sg15
Nsg16
Nsg17
(lp1093
sg19
Nsg20
Nsg21
Nsg22
VSat Dec 13 14:35:31 +0000 2014
p1094
sg24
Nsg25
I00
sg26
Nsg28
Nsg29
Nsg30
Nsg31
I00
sg32
Nsg33
(lp1095
sg68
Nsg69
Nsg70
Nsg71
V#Repost kindaabigdeal with repostapp.\u2070\u30fb\u30fb\u30fb\u2070Today's the day!!! The 1st annual 2014 HOLIDAY FAMILY FUN\u2026 http://t.co/H2WBirHgRa
p1096
sg73
I00
sg74
Ven
p1097
sg76
g3
(g35
g5
Ntp1098
Rp1099
(dp1100
g10
VWORLDWIDE
p1101
sg39
V3C3940
p1102
sg40
Ven
p1103
sg41
VCentral Time (US & Canada)
p1104
sg42
I170921
sg43
I51304
sg22
VSun Aug 22 17:47:53 +0000 2010
p1105
sg44
I01
sg45
VR&B Diva & CEO of She-Lean Health & Fitness, LLC MGMT: DYG Management Group, LLC, Dygmanagement@gmail.com
p1106
sg46
Vhttps://pbs.twimg.com/profile_images/511535118993735682/cXaMiT6R_normal.jpeg
p1107
sg47
I1378
sg48
I2029
sg49
I-21600
sg50
Nsg51
I00
sg52
Vhttps://pbs.twimg.com/profile_banners/181630001/1411333031
p1108
sg53
I00
sg54
I01
sg55
V009999
p1109
sg56
I01
sg57
I00
sg58
Vhttp://pbs.twimg.com/profile_background_images/513794933036032001/fG4TTI7T.jpeg
p1110
sg59
VSyleena_Johnson
p1111
sg61
I715
sg62
VSyleena Johnson
p1112
sg64
V95E8EC
p1113
sg65
Vhttp://t.co/fVCtnFLiW8
p1114
sg66
I181630001
sg67
V131516
p1115
sbsg94
I8
sg95
V<a href="http://instagram.com" rel="nofollow">Instagram</a>
p1116
sg97
(lp1117
g3
(g141
g5
Ntp1118
Rp1119
(dp1120
g145
Vhttp://t.co/H2WBirHgRa
p1121
sg147
Vhttp://instagram.com/p/wjOqoqqw7i/
p1122
sbasg66
I543776233642033152
sbsg16
Nsg17
(lp1123
sg19
Nsg20
Nsg21
Nsg22
VSat Dec 13 17:25:30 +0000 2014
p1124
sg24
Nsg25
I00
sg26
Nsg28
Nsg29
Nsg30
Nsg31
I00
sg32
Nsg33
(lp1125
g3
(g35
g5
Ntp1126
Rp1127
(dp1128
g10
Nsg39
Nsg40
Nsg41
Nsg42
Nsg43
Nsg22
Nsg44
Nsg45
Nsg46
Nsg47
Nsg48
Nsg49
Nsg50
Nsg51
Nsg52
Nsg53
Nsg54
Nsg55
Nsg56
Nsg57
Nsg58
Nsg59
VSyleena_Johnson
p1129
sg61
Nsg62
VSyleena Johnson
p1130
sg64
Nsg65
Nsg66
I181630001
sg67
Nsbasg68
Nsg69
Nsg70
Nsg71
VRT @Syleena_Johnson: #Repost kindaabigdeal with repostapp.\u2070\u30fb\u30fb\u30fb\u2070Today's the day!!! The 1st annual 2014 HOLIDAY FAMILY FUN\u2026 http://t.co/H2WBi\u2026
p1131
sg73
I00
sg74
Ven
p1132
sg76
g3
(g35
g5
Ntp1133
Rp1134
(dp1135
g10
VLondon
p1136
sg39
V3D1957
p1137
sg40
Ven
p1138
sg41
VLondon
p1139
sg42
I575
sg43
I5340
sg22
VThu Mar 15 19:10:58 +0000 2012
p1140
sg44
I00
sg45
VI love music which makes me stop and think, music is the food to my soul, play on!! Play on!!
p1141
sg46
Vhttps://pbs.twimg.com/profile_images/538757576553275393/l_n-l61__normal.jpeg
p1142
sg47
I537
sg48
I782
sg49
I0
sg50
Nsg51
I00
sg52
Vhttps://pbs.twimg.com/profile_banners/525660720/1414965259
p1143
sg53
I00
sg54
I01
sg55
V0400FF
p1144
sg56
I01
sg57
I00
sg58
Vhttp://pbs.twimg.com/profile_background_images/524668947174408192/Ca1Yct2c.jpeg
p1145
sg59
Vsimplyyee
p1146
sg61
I1
sg62
VOfficially me
p1147
sg64
V7AC3EE
p1148
sg65
Nsg66
I525660720
sg67
V16091F
p1149
sbsg94
I8
sg95
V<a href="http://twitter.com" rel="nofollow">Twitter Web Client</a>
p1150
sg97
(lp1151
g3
(g141
g5
Ntp1152
Rp1153
(dp1154
g145
Vhttp://t.co/H2WBirHgRa
p1155
sg147
Vhttp://instagram.com/p/wjOqoqqw7i/
p1156
sbasg66
I543819009242959872
sbag3
(g4
g5
Ntp1157
Rp1158
(dp1159
g9
I0
sg10
Nsg11
Nsg12
(lp1160
sg14
I00
sg15
g3
(g4
g5
Ntp1161
Rp1162
(dp1163
g9
I9
sg10
Nsg11
Nsg12
(lp1164
sg14
I00
sg15
Nsg16
Nsg17
(lp1165
sg19
Nsg20
Nsg21
Nsg22
VSat Dec 13 16:14:27 +0000 2014
p1166
sg24
Nsg25
I00
sg26
Nsg28
Nsg29
Nsg30
Nsg31
I00
sg32
Nsg33
(lp1167
sg68
Nsg69
Nsg70
Nsg71
VONLY ON WE TV! Extended Trailer: http://t.co/j1khVSaZmr
p1168
sg73
I00
sg74
Ven
p1169
sg76
g3
(g35
g5
Ntp1170
Rp1171
(dp1172
g10
VWORLDWIDE
p1173
sg39
V3C3940
p1174
sg40
Ven
p1175
sg41
VCentral Time (US & Canada)
p1176
sg42
I170921
sg43
I51304
sg22
VSun Aug 22 17:47:53 +0000 2010
p1177
sg44
I01
sg45
VR&B Diva & CEO of She-Lean Health & Fitness, LLC MGMT: DYG Management Group, LLC, Dygmanagement@gmail.com
p1178
sg46
Vhttps://pbs.twimg.com/profile_images/511535118993735682/cXaMiT6R_normal.jpeg
p1179
sg47
I1378
sg48
I2029
sg49
I-21600
sg50
Nsg51
I00
sg52
Vhttps://pbs.twimg.com/profile_banners/181630001/1411333031
p1180
sg53
I00
sg54
I01
sg55
V009999
p1181
sg56
I01
sg57
I00
sg58
Vhttp://pbs.twimg.com/profile_background_images/513794933036032001/fG4TTI7T.jpeg
p1182
sg59
VSyleena_Johnson
p1183
sg61
I715
sg62
VSyleena Johnson
p1184
sg64
V95E8EC
p1185
sg65
Vhttp://t.co/fVCtnFLiW8
p1186
sg66
I181630001
sg67
V131516
p1187
sbsg94
I18
sg95
V<a href="http://twitter.com/download/android" rel="nofollow">Twitter for Android</a>
p1188
sg97
(lp1189
g3
(g141
g5
Ntp1190
Rp1191
(dp1192
g145
Vhttp://t.co/j1khVSaZmr
p1193
sg147
Vhttp://www.wetv.com/marriage-boot-camp-reality-stars/videos/marriage-boot-camp-reality-stars-2-first-look
p1194
sbasg66
I543801128597856257
sbsg16
Nsg17
(lp1195
sg19
Nsg20
Nsg21
Nsg22
VSat Dec 13 17:23:17 +0000 2014
p1196
sg24
Nsg25
I00
sg26
Nsg28
Nsg29
Nsg30
Nsg31
I00
sg32
Nsg33
(lp1197
g3
(g35
g5
Ntp1198
Rp1199
(dp1200
g10
Nsg39
Nsg40
Nsg41
Nsg42
Nsg43
Nsg22
Nsg44
Nsg45
Nsg46
Nsg47
Nsg48
Nsg49
Nsg50
Nsg51
Nsg52
Nsg53
Nsg54
Nsg55
Nsg56
Nsg57
Nsg58
Nsg59
VSyleena_Johnson
p1201
sg61
Nsg62
VSyleena Johnson
p1202
sg64
Nsg65
Nsg66
I181630001
sg67
Nsbasg68
Nsg69
Nsg70
Nsg71
VRT @Syleena_Johnson: ONLY ON WE TV! Extended Trailer: http://t.co/j1khVSaZmr
p1203
sg73
I00
sg74
Ven
p1204
sg76
g3
(g35
g5
Ntp1205
Rp1206
(dp1207
g10
VLondon
p1208
sg39
V3D1957
p1209
sg40
Ven
p1210
sg41
VLondon
p1211
sg42
I575
sg43
I5340
sg22
VThu Mar 15 19:10:58 +0000 2012
p1212
sg44
I00
sg45
VI love music which makes me stop and think, music is the food to my soul, play on!! Play on!!
p1213
sg46
Vhttps://pbs.twimg.com/profile_images/538757576553275393/l_n-l61__normal.jpeg
p1214
sg47
I537
sg48
I782
sg49
I0
sg50
Nsg51
I00
sg52
Vhttps://pbs.twimg.com/profile_banners/525660720/1414965259
p1215
sg53
I00
sg54
I01
sg55
V0400FF
p1216
sg56
I01
sg57
I00
sg58
Vhttp://pbs.twimg.com/profile_background_images/524668947174408192/Ca1Yct2c.jpeg
p1217
sg59
Vsimplyyee
p1218
sg61
I1
sg62
VOfficially me
p1219
sg64
V7AC3EE
p1220
sg65
Nsg66
I525660720
sg67
V16091F
p1221
sbsg94
I18
sg95
V<a href="http://twitter.com" rel="nofollow">Twitter Web Client</a>
p1222
sg97
(lp1223
g3
(g141
g5
Ntp1224
Rp1225
(dp1226
g145
Vhttp://t.co/j1khVSaZmr
p1227
sg147
Vhttp://www.wetv.com/marriage-boot-camp-reality-stars/videos/marriage-boot-camp-reality-stars-2-first-look
p1228
sbasg66
I543818453145366530
sbag3
(g4
g5
Ntp1229
Rp1230
(dp1231
g9
I0
sg10
Nsg11
Nsg12
(lp1232
sg14
I00
sg15
Nsg16
Nsg17
(lp1233
sg19
Nsg20
Nsg21
Nsg22
VSat Dec 13 17:09:14 +0000 2014
p1234
sg24
Nsg25
I00
sg26
Nsg28
Nsg29
Nsg30
Nsg31
I00
sg32
Nsg33
(lp1235
g3
(g35
g5
Ntp1236
Rp1237
(dp1238
g10
Nsg39
Nsg40
Nsg41
Nsg42
Nsg43
Nsg22
Nsg44
Nsg45
Nsg46
Nsg47
Nsg48
Nsg49
Nsg50
Nsg51
Nsg52
Nsg53
Nsg54
Nsg55
Nsg56
Nsg57
Nsg58
Nsg59
VSyleena_Johnson
p1239
sg61
Nsg62
VSyleena Johnson
p1240
sg64
Nsg65
Nsg66
I181630001
sg67
Nsbag3
(g35
g5
Ntp1241
Rp1242
(dp1243
g10
Nsg39
Nsg40
Nsg41
Nsg42
Nsg43
Nsg22
Nsg44
Nsg45
Nsg46
Nsg47
Nsg48
Nsg49
Nsg50
Nsg51
Nsg52
Nsg53
Nsg54
Nsg55
Nsg56
Nsg57
Nsg58
Nsg59
VSyleena_Johnson
p1244
sg61
Nsg62
VSyleena Johnson
p1245
sg64
Nsg65
Nsg66
I181630001
sg67
Nsbasg68
Nsg69
Nsg70
Nsg71
V.@Syleena_Johnson's 7 Days of Giving Holiday Contest: Day Six \u2014 Skype Video Call with @Syleena_Johnson! Enter here: http://t.co/0VqCu62Odx
p1246
sg73
I00
sg74
Ven
p1247
sg76
g3
(g35
g5
Ntp1248
Rp1249
(dp1250
g10
VLondon
p1251
sg39
V3D1957
p1252
sg40
Ven
p1253
sg41
VLondon
p1254
sg42
I575
sg43
I5340
sg22
VThu Mar 15 19:10:58 +0000 2012
p1255
sg44
I00
sg45
VI love music which makes me stop and think, music is the food to my soul, play on!! Play on!!
p1256
sg46
Vhttps://pbs.twimg.com/profile_images/538757576553275393/l_n-l61__normal.jpeg
p1257
sg47
I537
sg48
I782
sg49
I0
sg50
Nsg51
I00
sg52
Vhttps://pbs.twimg.com/profile_banners/525660720/1414965259
p1258
sg53
I00
sg54
I01
sg55
V0400FF
p1259
sg56
I01
sg57
I00
sg58
Vhttp://pbs.twimg.com/profile_background_images/524668947174408192/Ca1Yct2c.jpeg
p1260
sg59
Vsimplyyee
p1261
sg61
I1
sg62
VOfficially me
p1262
sg64
V7AC3EE
p1263
sg65
Nsg66
I525660720
sg67
V16091F
p1264
sbsg94
I1
sg95
V<a href="http://lockerdome.com" rel="nofollow">LockerDome</a>
p1265
sg97
(lp1266
g3
(g141
g5
Ntp1267
Rp1268
(dp1269
g145
Vhttp://t.co/0VqCu62Odx
p1270
sg147
Vhttp://lockerdo.me/Nxg1q
p1271
sbasg66
I543814918298824705
sbag3
(g4
g5
Ntp1272
Rp1273
(dp1274
g9
I0
sg10
Nsg11
Nsg12
(lp1275
sg14
I00
sg15
Nsg16
Nsg17
(lp1276
sg19
Nsg20
Nsg21
Nsg22
VSat Dec 13 17:08:10 +0000 2014
p1277
sg24
Nsg25
I00
sg26
Nsg28
Nsg29
Nsg30
Nsg31
I00
sg32
Nsg33
(lp1278
sg68
Nsg69
Nsg70
Nsg71
VSyleena's 7 Days of Giving Holiday Contest: Day Six \u2014 Skype Video Call with Syleena Johnson http://t.co/cjzfrEjBZo
p1279
sg73
I00
sg74
Ven
p1280
sg76
g3
(g35
g5
Ntp1281
Rp1282
(dp1283
g10
VLondon
p1284
sg39
V3D1957
p1285
sg40
Ven
p1286
sg41
VLondon
p1287
sg42
I575
sg43
I5340
sg22
VThu Mar 15 19:10:58 +0000 2012
p1288
sg44
I00
sg45
VI love music which makes me stop and think, music is the food to my soul, play on!! Play on!!
p1289
sg46
Vhttps://pbs.twimg.com/profile_images/538757576553275393/l_n-l61__normal.jpeg
p1290
sg47
I537
sg48
I782
sg49
I0
sg50
Nsg51
I00
sg52
Vhttps://pbs.twimg.com/profile_banners/525660720/1414965259
p1291
sg53
I00
sg54
I01
sg55
V0400FF
p1292
sg56
I01
sg57
I00
sg58
Vhttp://pbs.twimg.com/profile_background_images/524668947174408192/Ca1Yct2c.jpeg
p1293
sg59
Vsimplyyee
p1294
sg61
I1
sg62
VOfficially me
p1295
sg64
V7AC3EE
p1296
sg65
Nsg66
I525660720
sg67
V16091F
p1297
sbsg94
I0
sg95
V<a href="https://dev.twitter.com/docs/tfw" rel="nofollow">Twitter for Websites</a>
p1298
sg97
(lp1299
g3
(g141
g5
Ntp1300
Rp1301
(dp1302
g145
Vhttp://t.co/cjzfrEjBZo
p1303
sg147
Vhttp://lockerdo.me/M2srN~6
p1304
sbasg66
I543814649540403200
sbag3
(g4
g5
Ntp1305
Rp1306
(dp1307
g9
I0
sg10
Nsg11
Nsg12
(lp1308
g3
(g103
g5
Ntp1309
Rp1310
(dp1311
g107
Vsocial70
p1312
sbasg14
I00
sg15
Nsg16
Nsg17
(lp1313
sg19
Nsg20
Nsg21
Nsg22
VSat Dec 13 15:21:44 +0000 2014
p1314
sg24
Nsg25
I00
sg26
Nsg28
Nsg29
Nsg30
Nsg31
I00
sg32
Nsg33
(lp1315
g3
(g35
g5
Ntp1316
Rp1317
(dp1318
g10
Nsg39
Nsg40
Nsg41
Nsg42
Nsg43
Nsg22
Nsg44
Nsg45
Nsg46
Nsg47
Nsg48
Nsg49
Nsg50
Nsg51
Nsg52
Nsg53
Nsg54
Nsg55
Nsg56
Nsg57
Nsg58
Nsg59
VSyleena_Johnson
p1319
sg61
Nsg62
VSyleena Johnson
p1320
sg64
Nsg65
Nsg66
I181630001
sg67
Nsbasg68
Nsg69
Nsg70
Nsg71
VWow!!! win a Skype chat with @Syleena_Johnson 7 days of giving contest. Day 6 enter here http://t.co/2mMZEoTK29 #social70
p1321
sg73
I00
sg74
Ven
p1322
sg76
g3
(g35
g5
Ntp1323
Rp1324
(dp1325
g10
VLondon
p1326
sg39
V3D1957
p1327
sg40
Ven
p1328
sg41
VLondon
p1329
sg42
I575
sg43
I5340
sg22
VThu Mar 15 19:10:58 +0000 2012
p1330
sg44
I00
sg45
VI love music which makes me stop and think, music is the food to my soul, play on!! Play on!!
p1331
sg46
Vhttps://pbs.twimg.com/profile_images/538757576553275393/l_n-l61__normal.jpeg
p1332
sg47
I537
sg48
I782
sg49
I0
sg50
Nsg51
I00
sg52
Vhttps://pbs.twimg.com/profile_banners/525660720/1414965259
p1333
sg53
I00
sg54
I01
sg55
V0400FF
p1334
sg56
I01
sg57
I00
sg58
Vhttp://pbs.twimg.com/profile_background_images/524668947174408192/Ca1Yct2c.jpeg
p1335
sg59
Vsimplyyee
p1336
sg61
I1
sg62
VOfficially me
p1337
sg64
V7AC3EE
p1338
sg65
Nsg66
I525660720
sg67
V16091F
p1339
sbsg94
I1
sg95
V<a href="http://twitter.com/download/android" rel="nofollow">Twitter for Android</a>
p1340
sg97
(lp1341
g3
(g141
g5
Ntp1342
Rp1343
(dp1344
g145
Vhttp://t.co/2mMZEoTK29
p1345
sg147
Vhttp://lockerdome.com/7183106880970049/7232261842160922
p1346
sbasg66
I543787865399103488
sbaa.