(lp0
S'xfeelgoodxx'
p1
a(lp2
ccopy_reg
_reconstructor
p3
(ctwitter
Status
p4
c__builtin__
object
p5
Ntp6
Rp7
(dp8
S'_favorite_count'
p9
I32
sS'_location'
p10
NsS'_withheld_scope'
p11
NsS'hashtags'
p12
(lp13
sS'_truncated'
p14
I00
sS'_retweeted_status'
p15
NsS'_withheld_copyright'
p16
NsS'media'
p17
(lp18
sS'_place'
p19
NsS'_contributors'
p20
NsS'_current_user_retweet'
p21
NsS'_created_at'
p22
VWed Dec 10 14:10:13 +0000 2014
p23
sS'_scopes'
p24
NsS'_possibly_sensitive'
p25
I00
sS'_in_reply_to_screen_name'
p26
NsS'_coordinates'
p27
NsS'_in_reply_to_user_id'
p28
NsS'_geo'
p29
NsS'_favorited'
p30
I00
sS'_withheld_in_countries'
p31
NsS'user_mentions'
p32
(lp33
sS'_now'
p34
NsS'_id_str'
p35
V542682702387093504
p36
sS'_in_reply_to_status_id'
p37
NsS'_text'
p38
VLol Justin Beiber was arrested again!\u000ahttp://t.co/x0BXxyRBz3
p39
sS'_retweeted'
p40
I00
sS'lang'
p41
Ven
p42
sS'_user'
p43
g3
(ctwitter
User
p44
g5
Ntp45
Rp46
(dp47
g10
V
p48
sS'_profile_text_color'
p49
V333333
p50
sS'_lang'
p51
Ven
p52
sS'_time_zone'
p53
VEastern Time (US & Canada)
p54
sS'_followers_count'
p55
I29384
sS'_statuses_count'
p56
I478
sg22
VWed Mar 20 21:26:25 +0000 2013
p57
sS'_verified'
p58
I00
sS'_description'
p59
VI'm here to make your day brighter. I post #funny and #true tweets that you will #love. Follow to Feel Good! For business kik: xfeelgood
p60
sS'_profile_image_url'
p61
Vhttps://pbs.twimg.com/profile_images/424347988484296704/Wz9K6BYo_normal.jpeg
p62
sS'_friends_count'
p63
I22129
sS'_favourites_count'
p64
I13
sS'_utc_offset'
p65
I-18000
sS'_status'
p66
NsS'_protected'
p67
I00
sS'_profile_banner_url'
p68
Vhttps://pbs.twimg.com/profile_banners/1284319952/1390006823
p69
sS'_notifications'
p70
I00
sS'_profile_background_tile'
p71
I00
sS'_profile_link_color'
p72
V0084B4
p73
sS'_geo_enabled'
p74
I00
sS'_contributors_enabled'
p75
I00
sS'_profile_background_image_url'
p76
Vhttp://abs.twimg.com/images/themes/theme15/bg.png
p77
sS'_screen_name'
p78
Vxfeelgoodxx
p79
sS'_listed_count'
p80
I53
sS'_name'
p81
VFeel Good Posts
p82
sS'_profile_sidebar_fill_color'
p83
VC0DFEC
p84
sS'_url'
p85
NsS'_id'
p86
I1284319952
sS'_profile_background_color'
p87
V022330
p88
sbsS'_retweet_count'
p89
I86
sS'_source'
p90
V<a href="http://twitter.com/download/iphone" rel="nofollow">Twitter for iPhone</a>
p91
sS'urls'
p92
(lp93
g3
(ctwitter
Url
p94
g5
Ntp95
Rp96
(dp97
S'url'
p98
Vhttp://t.co/x0BXxyRBz3
p99
sS'expanded_url'
p100
Vhttp://bit.ly/1Gd0zdO
p101
sbasg86
I542682702387093504
sbag3
(g4
g5
Ntp102
Rp103
(dp104
g9
I15
sg10
Nsg11
Nsg12
(lp105
sg14
I00
sg15
Nsg16
Nsg17
(lp106
sg19
Nsg20
Nsg21
Nsg22
VWed Dec 10 14:09:25 +0000 2014
p107
sg24
Nsg25
I00
sg26
Nsg27
Nsg28
Nsg29
Nsg30
I00
sg31
Nsg32
(lp108
sg34
Nsg35
V542682502511738880
p109
sg37
Nsg38
VCheck out the Taco Bell secret menu! \u000a(I like the guacamole Tacos)\u000ahttp://t.co/P4sbkE1Ljc
p110
sg40
I00
sg41
Ven
p111
sg43
g3
(g44
g5
Ntp112
Rp113
(dp114
g10
g48
sg49
V333333
p115
sg51
Ven
p116
sg53
VEastern Time (US & Canada)
p117
sg55
I29384
sg56
I478
sg22
VWed Mar 20 21:26:25 +0000 2013
p118
sg58
I00
sg59
VI'm here to make your day brighter. I post #funny and #true tweets that you will #love. Follow to Feel Good! For business kik: xfeelgood
p119
sg61
Vhttps://pbs.twimg.com/profile_images/424347988484296704/Wz9K6BYo_normal.jpeg
p120
sg63
I22129
sg64
I13
sg65
I-18000
sg66
Nsg67
I00
sg68
Vhttps://pbs.twimg.com/profile_banners/1284319952/1390006823
p121
sg70
I00
sg71
I00
sg72
V0084B4
p122
sg74
I00
sg75
I00
sg76
Vhttp://abs.twimg.com/images/themes/theme15/bg.png
p123
sg78
Vxfeelgoodxx
p124
sg80
I53
sg81
VFeel Good Posts
p125
sg83
VC0DFEC
p126
sg85
Nsg86
I1284319952
sg87
V022330
p127
sbsg89
I71
sg90
V<a href="http://twitter.com/download/iphone" rel="nofollow">Twitter for iPhone</a>
p128
sg92
(lp129
g3
(g94
g5
Ntp130
Rp131
(dp132
g98
Vhttp://t.co/P4sbkE1Ljc
p133
sg100
Vhttp://bit.ly/1Gd0l6E
p134
sbasg86
I542682502511738880
sbag3
(g4
g5
Ntp135
Rp136
(dp137
g9
I97
sg10
Nsg11
Nsg12
(lp138
sg14
I00
sg15
Nsg16
Nsg17
(lp139
(dp140
Vexpanded_url
p141
Vhttp://twitter.com/xfeelgoodxx/status/540610661362196480/photo/1
p142
sVdisplay_url
p143
Vpic.twitter.com/32869D9zRN
p144
sVurl
p145
Vhttp://t.co/32869D9zRN
p146
sVmedia_url_https
p147
Vhttps://pbs.twimg.com/media/B4CiiBuIYAAJ8h4.jpg
p148
sVid_str
p149
V540610660745633792
p150
sVsizes
p151
(dp152
Vlarge
p153
(dp154
Vh
p155
I295
sVresize
p156
Vfit
p157
sVw
p158
I590
ssVsmall
p159
(dp160
Vh
p161
I170
sVresize
p162
Vfit
p163
sVw
p164
I340
ssVmedium
p165
(dp166
Vh
p167
I295
sVresize
p168
Vfit
p169
sVw
p170
I590
ssVthumb
p171
(dp172
Vh
p173
I150
sVresize
p174
Vcrop
p175
sVw
p176
I150
sssVindices
p177
(lp178
I71
aI93
asVtype
p179
Vphoto
p180
sVid
p181
I540610660745633792
sVmedia_url
p182
Vhttp://pbs.twimg.com/media/B4CiiBuIYAAJ8h4.jpg
p183
sasg19
Nsg20
Nsg21
Nsg22
VThu Dec 04 20:56:40 +0000 2014
p184
sg24
Nsg25
I00
sg26
Nsg27
Nsg28
Nsg29
Nsg30
I00
sg31
Nsg32
(lp185
sg34
Nsg35
V540610661362196480
p186
sg37
Nsg38
VGet beautiful hair like this in just two weeks.\u000ahttp://t.co/y1jqrDXQMJ http://t.co/32869D9zRN
p187
sg40
I00
sg41
Ven
p188
sg43
g3
(g44
g5
Ntp189
Rp190
(dp191
g10
g48
sg49
V333333
p192
sg51
Ven
p193
sg53
VEastern Time (US & Canada)
p194
sg55
I29384
sg56
I478
sg22
VWed Mar 20 21:26:25 +0000 2013
p195
sg58
I00
sg59
VI'm here to make your day brighter. I post #funny and #true tweets that you will #love. Follow to Feel Good! For business kik: xfeelgood
p196
sg61
Vhttps://pbs.twimg.com/profile_images/424347988484296704/Wz9K6BYo_normal.jpeg
p197
sg63
I22129
sg64
I13
sg65
I-18000
sg66
Nsg67
I00
sg68
Vhttps://pbs.twimg.com/profile_banners/1284319952/1390006823
p198
sg70
I00
sg71
I00
sg72
V0084B4
p199
sg74
I00
sg75
I00
sg76
Vhttp://abs.twimg.com/images/themes/theme15/bg.png
p200
sg78
Vxfeelgoodxx
p201
sg80
I53
sg81
VFeel Good Posts
p202
sg83
VC0DFEC
p203
sg85
Nsg86
I1284319952
sg87
V022330
p204
sbsg89
I114
sg90
V<a href="http://twitter.com/download/iphone" rel="nofollow">Twitter for iPhone</a>
p205
sg92
(lp206
g3
(g94
g5
Ntp207
Rp208
(dp209
g98
Vhttp://t.co/y1jqrDXQMJ
p210
sg100
Vhttp://bit.ly/1yX3NzW
p211
sbasg86
I540610661362196480
sbag3
(g4
g5
Ntp212
Rp213
(dp214
g9
I596
sg10
Nsg11
Nsg12
(lp215
sg14
I00
sg15
Nsg16
Nsg17
(lp216
(dp217
Vexpanded_url
p218
Vhttp://twitter.com/xfeelgoodxx/status/525638814094872576/photo/1
p219
sVdisplay_url
p220
Vpic.twitter.com/J0hQzzwbR2
p221
sVurl
p222
Vhttp://t.co/J0hQzzwbR2
p223
sVmedia_url_https
p224
Vhttps://pbs.twimg.com/media/B0txsitCYAAdUdE.jpg
p225
sVid_str
p226
V525638791562682368
p227
sVsizes
p228
(dp229
Vlarge
p230
(dp231
Vh
p232
I1024
sVresize
p233
Vfit
p234
sVw
p235
I591
ssVsmall
p236
(dp237
Vh
p238
I589
sVresize
p239
Vfit
p240
sVw
p241
I340
ssVmedium
p242
(dp243
Vh
p244
I1024
sVresize
p245
Vfit
p246
sVw
p247
I591
ssVthumb
p248
(dp249
Vh
p250
I150
sVresize
p251
Vcrop
p252
sVw
p253
I150
sssVindices
p254
(lp255
I16
aI38
asVtype
p256
Vphoto
p257
sVid
p258
I525638791562682368
sVmedia_url
p259
Vhttp://pbs.twimg.com/media/B0txsitCYAAdUdE.jpg
p260
sasg19
Nsg20
Nsg21
Nsg22
VFri Oct 24 13:23:53 +0000 2014
p261
sg24
Nsg25
I00
sg26
Nsg27
Nsg28
Nsg29
Nsg30
I00
sg31
Nsg32
(lp262
sg34
Nsg35
V525638814094872576
p263
sg37
Nsg38
VThis is awesome http://t.co/J0hQzzwbR2
p264
sg40
I00
sg41
Ven
p265
sg43
g3
(g44
g5
Ntp266
Rp267
(dp268
g10
g48
sg49
V333333
p269
sg51
Ven
p270
sg53
VEastern Time (US & Canada)
p271
sg55
I29384
sg56
I478
sg22
VWed Mar 20 21:26:25 +0000 2013
p272
sg58
I00
sg59
VI'm here to make your day brighter. I post #funny and #true tweets that you will #love. Follow to Feel Good! For business kik: xfeelgood
p273
sg61
Vhttps://pbs.twimg.com/profile_images/424347988484296704/Wz9K6BYo_normal.jpeg
p274
sg63
I22129
sg64
I13
sg65
I-18000
sg66
Nsg67
I00
sg68
Vhttps://pbs.twimg.com/profile_banners/1284319952/1390006823
p275
sg70
I00
sg71
I00
sg72
V0084B4
p276
sg74
I00
sg75
I00
sg76
Vhttp://abs.twimg.com/images/themes/theme15/bg.png
p277
sg78
Vxfeelgoodxx
p278
sg80
I53
sg81
VFeel Good Posts
p279
sg83
VC0DFEC
p280
sg85
Nsg86
I1284319952
sg87
V022330
p281
sbsg89
I275
sg90
V<a href="http://twitter.com/download/iphone" rel="nofollow">Twitter for iPhone</a>
p282
sg92
(lp283
sg86
I525638814094872576
sbag3
(g4
g5
Ntp284
Rp285
(dp286
g9
I360
sg10
Nsg11
Nsg12
(lp287
sg14
I00
sg15
Nsg16
Nsg17
(lp288
(dp289
Vexpanded_url
p290
Vhttp://twitter.com/xfeelgoodxx/status/518363316201472000/photo/1
p291
sVdisplay_url
p292
Vpic.twitter.com/oIHSvBodRU
p293
sVurl
p294
Vhttp://t.co/oIHSvBodRU
p295
sVmedia_url_https
p296
Vhttps://pbs.twimg.com/media/BzGYsGjIAAAtCZA.jpg
p297
sVid_str
p298
V518363315563921408
p299
sVsizes
p300
(dp301
Vsmall
p302
(dp303
Vh
p304
I226
sVresize
p305
Vfit
p306
sVw
p307
I340
ssVlarge
p308
(dp309
Vh
p310
I333
sVresize
p311
Vfit
p312
sVw
p313
I500
ssVmedium
p314
(dp315
Vh
p316
I333
sVresize
p317
Vfit
p318
sVw
p319
I500
ssVthumb
p320
(dp321
Vh
p322
I150
sVresize
p323
Vcrop
p324
sVw
p325
I150
sssVindices
p326
(lp327
I48
aI70
asVtype
p328
Vphoto
p329
sVid
p330
I518363315563921408
sVmedia_url
p331
Vhttp://pbs.twimg.com/media/BzGYsGjIAAAtCZA.jpg
p332
sasg19
Nsg20
Nsg21
Nsg22
VSat Oct 04 11:33:39 +0000 2014
p333
sg24
Nsg25
I00
sg26
Nsg27
Nsg28
Nsg29
Nsg30
I00
sg31
Nsg32
(lp334
sg34
Nsg35
V518363316201472000
p335
sg37
Nsg38
VOnly a month into school and this is how I feel http://t.co/oIHSvBodRU
p336
sg40
I00
sg41
Ven
p337
sg43
g3
(g44
g5
Ntp338
Rp339
(dp340
g10
g48
sg49
V333333
p341
sg51
Ven
p342
sg53
VEastern Time (US & Canada)
p343
sg55
I29384
sg56
I478
sg22
VWed Mar 20 21:26:25 +0000 2013
p344
sg58
I00
sg59
VI'm here to make your day brighter. I post #funny and #true tweets that you will #love. Follow to Feel Good! For business kik: xfeelgood
p345
sg61
Vhttps://pbs.twimg.com/profile_images/424347988484296704/Wz9K6BYo_normal.jpeg
p346
sg63
I22129
sg64
I13
sg65
I-18000
sg66
Nsg67
I00
sg68
Vhttps://pbs.twimg.com/profile_banners/1284319952/1390006823
p347
sg70
I00
sg71
I00
sg72
V0084B4
p348
sg74
I00
sg75
I00
sg76
Vhttp://abs.twimg.com/images/themes/theme15/bg.png
p349
sg78
Vxfeelgoodxx
p350
sg80
I53
sg81
VFeel Good Posts
p351
sg83
VC0DFEC
p352
sg85
Nsg86
I1284319952
sg87
V022330
p353
sbsg89
I324
sg90
V<a href="http://twitter.com/download/iphone" rel="nofollow">Twitter for iPhone</a>
p354
sg92
(lp355
sg86
I518363316201472000
sbag3
(g4
g5
Ntp356
Rp357
(dp358
g9
I708
sg10
Nsg11
Nsg12
(lp359
sg14
I00
sg15
Nsg16
Nsg17
(lp360
(dp361
Vexpanded_url
p362
Vhttp://twitter.com/xfeelgoodxx/status/516675305071968257/photo/1
p363
sVdisplay_url
p364
Vpic.twitter.com/6wXHG1kQ3K
p365
sVurl
p366
Vhttp://t.co/6wXHG1kQ3K
p367
sVmedia_url_https
p368
Vhttps://pbs.twimg.com/media/ByuZc3zCUAE9Jvc.jpg
p369
sVid_str
p370
V516675303557451777
p371
sVsizes
p372
(dp373
Vsmall
p374
(dp375
Vh
p376
I339
sVresize
p377
Vfit
p378
sVw
p379
I340
ssVlarge
p380
(dp381
Vh
p382
I978
sVresize
p383
Vfit
p384
sVw
p385
I980
ssVmedium
p386
(dp387
Vh
p388
I598
sVresize
p389
Vfit
p390
sVw
p391
I600
ssVthumb
p392
(dp393
Vh
p394
I150
sVresize
p395
Vcrop
p396
sVw
p397
I150
sssVindices
p398
(lp399
I24
aI46
asVtype
p400
Vphoto
p401
sVid
p402
I516675303557451777
sVmedia_url
p403
Vhttp://pbs.twimg.com/media/ByuZc3zCUAE9Jvc.jpg
p404
sasg19
Nsg20
Nsg21
Nsg22
VMon Sep 29 19:46:06 +0000 2014
p405
sg24
Nsg25
I00
sg26
Nsg27
Nsg28
Nsg29
Nsg30
I00
sg31
Nsg32
(lp406
sg34
Nsg35
V516675305071968257
p407
sg37
Nsg38
VThis represents my life http://t.co/6wXHG1kQ3K
p408
sg40
I00
sg41
Ven
p409
sg43
g3
(g44
g5
Ntp410
Rp411
(dp412
g10
g48
sg49
V333333
p413
sg51
Ven
p414
sg53
VEastern Time (US & Canada)
p415
sg55
I29384
sg56
I478
sg22
VWed Mar 20 21:26:25 +0000 2013
p416
sg58
I00
sg59
VI'm here to make your day brighter. I post #funny and #true tweets that you will #love. Follow to Feel Good! For business kik: xfeelgood
p417
sg61
Vhttps://pbs.twimg.com/profile_images/424347988484296704/Wz9K6BYo_normal.jpeg
p418
sg63
I22129
sg64
I13
sg65
I-18000
sg66
Nsg67
I00
sg68
Vhttps://pbs.twimg.com/profile_banners/1284319952/1390006823
p419
sg70
I00
sg71
I00
sg72
V0084B4
p420
sg74
I00
sg75
I00
sg76
Vhttp://abs.twimg.com/images/themes/theme15/bg.png
p421
sg78
Vxfeelgoodxx
p422
sg80
I53
sg81
VFeel Good Posts
p423
sg83
VC0DFEC
p424
sg85
Nsg86
I1284319952
sg87
V022330
p425
sbsg89
I524
sg90
V<a href="http://twitter.com/download/iphone" rel="nofollow">Twitter for iPhone</a>
p426
sg92
(lp427
sg86
I516675305071968257
sbag3
(g4
g5
Ntp428
Rp429
(dp430
g9
I1507
sg10
Nsg11
Nsg12
(lp431
sg14
I00
sg15
Nsg16
Nsg17
(lp432
(dp433
Vexpanded_url
p434
Vhttp://twitter.com/xfeelgoodxx/status/509881690551238656/photo/1
p435
sVdisplay_url
p436
Vpic.twitter.com/WVpmWtFHos
p437
sVurl
p438
Vhttp://t.co/WVpmWtFHos
p439
sVmedia_url_https
p440
Vhttps://pbs.twimg.com/media/BxN2sftCIAEQcyu.jpg
p441
sVid_str
p442
V509881689619701761
p443
sVsizes
p444
(dp445
Vlarge
p446
(dp447
Vh
p448
I416
sVresize
p449
Vfit
p450
sVw
p451
I990
ssVsmall
p452
(dp453
Vh
p454
I142
sVresize
p455
Vfit
p456
sVw
p457
I340
ssVmedium
p458
(dp459
Vh
p460
I252
sVresize
p461
Vfit
p462
sVw
p463
I600
ssVthumb
p464
(dp465
Vh
p466
I150
sVresize
p467
Vcrop
p468
sVw
p469
I150
sssVindices
p470
(lp471
I40
aI62
asVtype
p472
Vphoto
p473
sVid
p474
I509881689619701761
sVmedia_url
p475
Vhttp://pbs.twimg.com/media/BxN2sftCIAEQcyu.jpg
p476
sasg19
Nsg20
Nsg21
Nsg22
VThu Sep 11 01:50:42 +0000 2014
p477
sg24
Nsg25
I00
sg26
Nsg27
Nsg28
Nsg29
Nsg30
I00
sg31
Nsg32
(lp478
sg34
Nsg35
V509881690551238656
p479
sg37
Nsg38
VWhen your favorite teacher tells at you http://t.co/WVpmWtFHos
p480
sg40
I00
sg41
Ven
p481
sg43
g3
(g44
g5
Ntp482
Rp483
(dp484
g10
g48
sg49
V333333
p485
sg51
Ven
p486
sg53
VEastern Time (US & Canada)
p487
sg55
I29384
sg56
I478
sg22
VWed Mar 20 21:26:25 +0000 2013
p488
sg58
I00
sg59
VI'm here to make your day brighter. I post #funny and #true tweets that you will #love. Follow to Feel Good! For business kik: xfeelgood
p489
sg61
Vhttps://pbs.twimg.com/profile_images/424347988484296704/Wz9K6BYo_normal.jpeg
p490
sg63
I22129
sg64
I13
sg65
I-18000
sg66
Nsg67
I00
sg68
Vhttps://pbs.twimg.com/profile_banners/1284319952/1390006823
p491
sg70
I00
sg71
I00
sg72
V0084B4
p492
sg74
I00
sg75
I00
sg76
Vhttp://abs.twimg.com/images/themes/theme15/bg.png
p493
sg78
Vxfeelgoodxx
p494
sg80
I53
sg81
VFeel Good Posts
p495
sg83
VC0DFEC
p496
sg85
Nsg86
I1284319952
sg87
V022330
p497
sbsg89
I1075
sg90
V<a href="http://twitter.com/download/iphone" rel="nofollow">Twitter for iPhone</a>
p498
sg92
(lp499
sg86
I509881690551238656
sbag3
(g4
g5
Ntp500
Rp501
(dp502
g9
I1394
sg10
Nsg11
Nsg12
(lp503
sg14
I00
sg15
Nsg16
Nsg17
(lp504
(dp505
Vexpanded_url
p506
Vhttp://twitter.com/xfeelgoodxx/status/507693969762172929/photo/1
p507
sVdisplay_url
p508
Vpic.twitter.com/lQIVSlpuJI
p509
sVurl
p510
Vhttp://t.co/lQIVSlpuJI
p511
sVmedia_url_https
p512
Vhttps://pbs.twimg.com/media/Bwuw-R6CIAAPu3-.jpg
p513
sVid_str
p514
V507693967014502400
p515
sVsizes
p516
(dp517
Vsmall
p518
(dp519
Vh
p520
I340
sVresize
p521
Vfit
p522
sVw
p523
I340
ssVlarge
p524
(dp525
Vh
p526
I640
sVresize
p527
Vfit
p528
sVw
p529
I640
ssVmedium
p530
(dp531
Vh
p532
I600
sVresize
p533
Vfit
p534
sVw
p535
I600
ssVthumb
p536
(dp537
Vh
p538
I150
sVresize
p539
Vcrop
p540
sVw
p541
I150
sssVindices
p542
(lp543
I26
aI48
asVtype
p544
Vphoto
p545
sVid
p546
I507693967014502400
sVmedia_url
p547
Vhttp://pbs.twimg.com/media/Bwuw-R6CIAAPu3-.jpg
p548
sasg19
Nsg20
Nsg21
Nsg22
VFri Sep 05 00:57:29 +0000 2014
p549
sg24
Nsg25
I00
sg26
Nsg27
Nsg28
Nsg29
Nsg30
I00
sg31
Nsg32
(lp550
sg34
Nsg35
V507693969762172929
p551
sg37
Nsg38
VWhenever I go to chipotle http://t.co/lQIVSlpuJI
p552
sg40
I00
sg41
Ven
p553
sg43
g3
(g44
g5
Ntp554
Rp555
(dp556
g10
g48
sg49
V333333
p557
sg51
Ven
p558
sg53
VEastern Time (US & Canada)
p559
sg55
I29384
sg56
I478
sg22
VWed Mar 20 21:26:25 +0000 2013
p560
sg58
I00
sg59
VI'm here to make your day brighter. I post #funny and #true tweets that you will #love. Follow to Feel Good! For business kik: xfeelgood
p561
sg61
Vhttps://pbs.twimg.com/profile_images/424347988484296704/Wz9K6BYo_normal.jpeg
p562
sg63
I22129
sg64
I13
sg65
I-18000
sg66
Nsg67
I00
sg68
Vhttps://pbs.twimg.com/profile_banners/1284319952/1390006823
p563
sg70
I00
sg71
I00
sg72
V0084B4
p564
sg74
I00
sg75
I00
sg76
Vhttp://abs.twimg.com/images/themes/theme15/bg.png
p565
sg78
Vxfeelgoodxx
p566
sg80
I53
sg81
VFeel Good Posts
p567
sg83
VC0DFEC
p568
sg85
Nsg86
I1284319952
sg87
V022330
p569
sbsg89
I1093
sg90
V<a href="http://twitter.com/download/iphone" rel="nofollow">Twitter for iPhone</a>
p570
sg92
(lp571
sg86
I507693969762172929
sbag3
(g4
g5
Ntp572
Rp573
(dp574
g9
I2235
sg10
Nsg11
Nsg12
(lp575
sg14
I00
sg15
Nsg16
Nsg17
(lp576
(dp577
Vexpanded_url
p578
Vhttp://twitter.com/xfeelgoodxx/status/507640040194060288/photo/1
p579
sVdisplay_url
p580
Vpic.twitter.com/uUeKB9cGG4
p581
sVurl
p582
Vhttp://t.co/uUeKB9cGG4
p583
sVmedia_url_https
p584
Vhttps://pbs.twimg.com/media/Bwt_7SQIcAAoTmY.jpg
p585
sVid_str
p586
V507640039497822208
p587
sVsizes
p588
(dp589
Vsmall
p590
(dp591
Vh
p592
I144
sVresize
p593
Vfit
p594
sVw
p595
I340
ssVlarge
p596
(dp597
Vh
p598
I271
sVresize
p599
Vfit
p600
sVw
p601
I639
ssVmedium
p602
(dp603
Vh
p604
I254
sVresize
p605
Vfit
p606
sVw
p607
I600
ssVthumb
p608
(dp609
Vh
p610
I150
sVresize
p611
Vcrop
p612
sVw
p613
I150
sssVindices
p614
(lp615
I11
aI33
asVtype
p616
Vphoto
p617
sVid
p618
I507640039497822208
sVmedia_url
p619
Vhttp://pbs.twimg.com/media/Bwt_7SQIcAAoTmY.jpg
p620
sasg19
Nsg20
Nsg21
Nsg22
VThu Sep 04 21:23:11 +0000 2014
p621
sg24
Nsg25
I00
sg26
Nsg27
Nsg28
Nsg29
Nsg30
I00
sg31
Nsg32
(lp622
sg34
Nsg35
V507640040194060288
p623
sg37
Nsg38
VAccurate \U0001f629 http://t.co/uUeKB9cGG4
p624
sg40
I00
sg41
Ven
p625
sg43
g3
(g44
g5
Ntp626
Rp627
(dp628
g10
g48
sg49
V333333
p629
sg51
Ven
p630
sg53
VEastern Time (US & Canada)
p631
sg55
I29384
sg56
I478
sg22
VWed Mar 20 21:26:25 +0000 2013
p632
sg58
I00
sg59
VI'm here to make your day brighter. I post #funny and #true tweets that you will #love. Follow to Feel Good! For business kik: xfeelgood
p633
sg61
Vhttps://pbs.twimg.com/profile_images/424347988484296704/Wz9K6BYo_normal.jpeg
p634
sg63
I22129
sg64
I13
sg65
I-18000
sg66
Nsg67
I00
sg68
Vhttps://pbs.twimg.com/profile_banners/1284319952/1390006823
p635
sg70
I00
sg71
I00
sg72
V0084B4
p636
sg74
I00
sg75
I00
sg76
Vhttp://abs.twimg.com/images/themes/theme15/bg.png
p637
sg78
Vxfeelgoodxx
p638
sg80
I53
sg81
VFeel Good Posts
p639
sg83
VC0DFEC
p640
sg85
Nsg86
I1284319952
sg87
V022330
p641
sbsg89
I1612
sg90
V<a href="http://twitter.com/download/iphone" rel="nofollow">Twitter for iPhone</a>
p642
sg92
(lp643
sg86
I507640040194060288
sbag3
(g4
g5
Ntp644
Rp645
(dp646
g9
I1608
sg10
Nsg11
Nsg12
(lp647
sg14
I00
sg15
Nsg16
Nsg17
(lp648
(dp649
Vexpanded_url
p650
Vhttp://twitter.com/xfeelgoodxx/status/507293042760769536/photo/1
p651
sVdisplay_url
p652
Vpic.twitter.com/DD8Me6F6D5
p653
sVurl
p654
Vhttp://t.co/DD8Me6F6D5
p655
sVmedia_url_https
p656
Vhttps://pbs.twimg.com/media/BwpEVYjIgAE6voL.jpg
p657
sVid_str
p658
V507293042190352385
p659
sVsizes
p660
(dp661
Vlarge
p662
(dp663
Vh
p664
I707
sVresize
p665
Vfit
p666
sVw
p667
I528
ssVsmall
p668
(dp669
Vh
p670
I455
sVresize
p671
Vfit
p672
sVw
p673
I340
ssVmedium
p674
(dp675
Vh
p676
I707
sVresize
p677
Vfit
p678
sVw
p679
I528
ssVthumb
p680
(dp681
Vh
p682
I150
sVresize
p683
Vcrop
p684
sVw
p685
I150
sssVindices
p686
(lp687
I56
aI78
asVtype
p688
Vphoto
p689
sVid
p690
I507293042190352385
sVmedia_url
p691
Vhttp://pbs.twimg.com/media/BwpEVYjIgAE6voL.jpg
p692
sasg19
Nsg20
Nsg21
Nsg22
VWed Sep 03 22:24:21 +0000 2014
p693
sg24
Nsg25
I00
sg26
Nsg27
Nsg28
Nsg29
Nsg30
I00
sg31
Nsg32
(lp694
sg34
Nsg35
V507293042760769536
p695
sg37
Nsg38
VWhen you lose your phone in the couch and can't find it http://t.co/DD8Me6F6D5
p696
sg40
I00
sg41
Ven
p697
sg43
g3
(g44
g5
Ntp698
Rp699
(dp700
g10
g48
sg49
V333333
p701
sg51
Ven
p702
sg53
VEastern Time (US & Canada)
p703
sg55
I29384
sg56
I478
sg22
VWed Mar 20 21:26:25 +0000 2013
p704
sg58
I00
sg59
VI'm here to make your day brighter. I post #funny and #true tweets that you will #love. Follow to Feel Good! For business kik: xfeelgood
p705
sg61
Vhttps://pbs.twimg.com/profile_images/424347988484296704/Wz9K6BYo_normal.jpeg
p706
sg63
I22129
sg64
I13
sg65
I-18000
sg66
Nsg67
I00
sg68
Vhttps://pbs.twimg.com/profile_banners/1284319952/1390006823
p707
sg70
I00
sg71
I00
sg72
V0084B4
p708
sg74
I00
sg75
I00
sg76
Vhttp://abs.twimg.com/images/themes/theme15/bg.png
p709
sg78
Vxfeelgoodxx
p710
sg80
I53
sg81
VFeel Good Posts
p711
sg83
VC0DFEC
p712
sg85
Nsg86
I1284319952
sg87
V022330
p713
sbsg89
I1386
sg90
V<a href="http://twitter.com/download/iphone" rel="nofollow">Twitter for iPhone</a>
p714
sg92
(lp715
sg86
I507293042760769536
sbag3
(g4
g5
Ntp716
Rp717
(dp718
g9
I1435
sg10
Nsg11
Nsg12
(lp719
sg14
I00
sg15
Nsg16
Nsg17
(lp720
(dp721
Vexpanded_url
p722
Vhttp://twitter.com/xfeelgoodxx/status/506956025296351234/photo/1
p723
sVdisplay_url
p724
Vpic.twitter.com/7kYCpdCrJM
p725
sVurl
p726
Vhttp://t.co/7kYCpdCrJM
p727
sVmedia_url_https
p728
Vhttps://pbs.twimg.com/media/BwkR0YYIgAAx8Q1.jpg
p729
sVid_str
p730
V506956024650432512
p731
sVsizes
p732
(dp733
Vlarge
p734
(dp735
Vh
p736
I739
sVresize
p737
Vfit
p738
sVw
p739
I576
ssVsmall
p740
(dp741
Vh
p742
I436
sVresize
p743
Vfit
p744
sVw
p745
I340
ssVmedium
p746
(dp747
Vh
p748
I739
sVresize
p749
Vfit
p750
sVw
p751
I576
ssVthumb
p752
(dp753
Vh
p754
I150
sVresize
p755
Vcrop
p756
sVw
p757
I150
sssVindices
p758
(lp759
I19
aI41
asVtype
p760
Vphoto
p761
sVid
p762
I506956024650432512
sVmedia_url
p763
Vhttp://pbs.twimg.com/media/BwkR0YYIgAAx8Q1.jpg
p764
sasg19
Nsg20
Nsg21
Nsg22
VWed Sep 03 00:05:09 +0000 2014
p765
sg24
Nsg25
I00
sg26
Nsg27
Nsg28
Nsg29
Nsg30
I00
sg31
Nsg32
(lp766
sg34
Nsg35
V506956025296351234
p767
sg37
Nsg38
VI wanna do this \U0001f30e\u2708 http://t.co/7kYCpdCrJM
p768
sg40
I00
sg41
Ven
p769
sg43
g3
(g44
g5
Ntp770
Rp771
(dp772
g10
g48
sg49
V333333
p773
sg51
Ven
p774
sg53
VEastern Time (US & Canada)
p775
sg55
I29384
sg56
I478
sg22
VWed Mar 20 21:26:25 +0000 2013
p776
sg58
I00
sg59
VI'm here to make your day brighter. I post #funny and #true tweets that you will #love. Follow to Feel Good! For business kik: xfeelgood
p777
sg61
Vhttps://pbs.twimg.com/profile_images/424347988484296704/Wz9K6BYo_normal.jpeg
p778
sg63
I22129
sg64
I13
sg65
I-18000
sg66
Nsg67
I00
sg68
Vhttps://pbs.twimg.com/profile_banners/1284319952/1390006823
p779
sg70
I00
sg71
I00
sg72
V0084B4
p780
sg74
I00
sg75
I00
sg76
Vhttp://abs.twimg.com/images/themes/theme15/bg.png
p781
sg78
Vxfeelgoodxx
p782
sg80
I53
sg81
VFeel Good Posts
p783
sg83
VC0DFEC
p784
sg85
Nsg86
I1284319952
sg87
V022330
p785
sbsg89
I1163
sg90
V<a href="http://twitter.com/download/iphone" rel="nofollow">Twitter for iPhone</a>
p786
sg92
(lp787
sg86
I506956025296351234
sbag3
(g4
g5
Ntp788
Rp789
(dp790
g9
I1264
sg10
Nsg11
Nsg12
(lp791
sg14
I00
sg15
Nsg16
Nsg17
(lp792
(dp793
Vexpanded_url
p794
Vhttp://twitter.com/xfeelgoodxx/status/506763386076815360/photo/1
p795
sVdisplay_url
p796
Vpic.twitter.com/JdDpkfPCq8
p797
sVurl
p798
Vhttp://t.co/JdDpkfPCq8
p799
sVmedia_url_https
p800
Vhttps://pbs.twimg.com/media/BwhinSuIQAAA1XM.jpg
p801
sVid_str
p802
V506763385258917888
p803
sVsizes
p804
(dp805
Vsmall
p806
(dp807
Vh
p808
I366
sVresize
p809
Vfit
p810
sVw
p811
I340
ssVlarge
p812
(dp813
Vh
p814
I592
sVresize
p815
Vfit
p816
sVw
p817
I549
ssVmedium
p818
(dp819
Vh
p820
I592
sVresize
p821
Vfit
p822
sVw
p823
I549
ssVthumb
p824
(dp825
Vh
p826
I150
sVresize
p827
Vcrop
p828
sVw
p829
I150
sssVindices
p830
(lp831
I23
aI45
asVtype
p832
Vphoto
p833
sVid
p834
I506763385258917888
sVmedia_url
p835
Vhttp://pbs.twimg.com/media/BwhinSuIQAAA1XM.jpg
p836
sasg19
Nsg20
Nsg21
Nsg22
VTue Sep 02 11:19:41 +0000 2014
p837
sg24
Nsg25
I00
sg26
Nsg27
Nsg28
Nsg29
Nsg30
I00
sg31
Nsg32
(lp838
sg34
Nsg35
V506763386076815360
p839
sg37
Nsg38
VI need one of these \U0001f43b\U0001f495 http://t.co/JdDpkfPCq8
p840
sg40
I00
sg41
Ven
p841
sg43
g3
(g44
g5
Ntp842
Rp843
(dp844
g10
g48
sg49
V333333
p845
sg51
Ven
p846
sg53
VEastern Time (US & Canada)
p847
sg55
I29384
sg56
I478
sg22
VWed Mar 20 21:26:25 +0000 2013
p848
sg58
I00
sg59
VI'm here to make your day brighter. I post #funny and #true tweets that you will #love. Follow to Feel Good! For business kik: xfeelgood
p849
sg61
Vhttps://pbs.twimg.com/profile_images/424347988484296704/Wz9K6BYo_normal.jpeg
p850
sg63
I22129
sg64
I13
sg65
I-18000
sg66
Nsg67
I00
sg68
Vhttps://pbs.twimg.com/profile_banners/1284319952/1390006823
p851
sg70
I00
sg71
I00
sg72
V0084B4
p852
sg74
I00
sg75
I00
sg76
Vhttp://abs.twimg.com/images/themes/theme15/bg.png
p853
sg78
Vxfeelgoodxx
p854
sg80
I53
sg81
VFeel Good Posts
p855
sg83
VC0DFEC
p856
sg85
Nsg86
I1284319952
sg87
V022330
p857
sbsg89
I1574
sg90
V<a href="http://twitter.com/download/iphone" rel="nofollow">Twitter for iPhone</a>
p858
sg92
(lp859
sg86
I506763386076815360
sbag3
(g4
g5
Ntp860
Rp861
(dp862
g9
I2532
sg10
Nsg11
Nsg12
(lp863
sg14
I00
sg15
Nsg16
Nsg17
(lp864
(dp865
Vexpanded_url
p866
Vhttp://twitter.com/xfeelgoodxx/status/506476658338324481/photo/1
p867
sVdisplay_url
p868
Vpic.twitter.com/npONDCaG5A
p869
sVurl
p870
Vhttp://t.co/npONDCaG5A
p871
sVmedia_url_https
p872
Vhttps://pbs.twimg.com/media/Bwdd1huCEAA9YAH.jpg
p873
sVid_str
p874
V506476657268363264
p875
sVsizes
p876
(dp877
Vsmall
p878
(dp879
Vh
p880
I511
sVresize
p881
Vfit
p882
sVw
p883
I340
ssVlarge
p884
(dp885
Vh
p886
I600
sVresize
p887
Vfit
p888
sVw
p889
I399
ssVmedium
p890
(dp891
Vh
p892
I600
sVresize
p893
Vfit
p894
sVw
p895
I399
ssVthumb
p896
(dp897
Vh
p898
I150
sVresize
p899
Vcrop
p900
sVw
p901
I150
sssVindices
p902
(lp903
I108
aI130
asVtype
p904
Vphoto
p905
sVid
p906
I506476657268363264
sVmedia_url
p907
Vhttp://pbs.twimg.com/media/Bwdd1huCEAA9YAH.jpg
p908
sasg19
Nsg20
Nsg21
Nsg22
VMon Sep 01 16:20:19 +0000 2014
p909
sg24
Nsg25
I00
sg26
Nsg27
Nsg28
Nsg29
Nsg30
I00
sg31
Nsg32
(lp910
sg34
Nsg35
V506476658338324481
p911
sg37
Nsg38
VI can't wait until I'm at the point of my life where I get to see something like this everyday in my home \U0001f60d http://t.co/npONDCaG5A
p912
sg40
I00
sg41
Ven
p913
sg43
g3
(g44
g5
Ntp914
Rp915
(dp916
g10
g48
sg49
V333333
p917
sg51
Ven
p918
sg53
VEastern Time (US & Canada)
p919
sg55
I29384
sg56
I478
sg22
VWed Mar 20 21:26:25 +0000 2013
p920
sg58
I00
sg59
VI'm here to make your day brighter. I post #funny and #true tweets that you will #love. Follow to Feel Good! For business kik: xfeelgood
p921
sg61
Vhttps://pbs.twimg.com/profile_images/424347988484296704/Wz9K6BYo_normal.jpeg
p922
sg63
I22129
sg64
I13
sg65
I-18000
sg66
Nsg67
I00
sg68
Vhttps://pbs.twimg.com/profile_banners/1284319952/1390006823
p923
sg70
I00
sg71
I00
sg72
V0084B4
p924
sg74
I00
sg75
I00
sg76
Vhttp://abs.twimg.com/images/themes/theme15/bg.png
p925
sg78
Vxfeelgoodxx
p926
sg80
I53
sg81
VFeel Good Posts
p927
sg83
VC0DFEC
p928
sg85
Nsg86
I1284319952
sg87
V022330
p929
sbsg89
I1814
sg90
V<a href="http://twitter.com/download/iphone" rel="nofollow">Twitter for iPhone</a>
p930
sg92
(lp931
sg86
I506476658338324481
sbag3
(g4
g5
Ntp932
Rp933
(dp934
g9
I2439
sg10
Nsg11
Nsg12
(lp935
sg14
I00
sg15
Nsg16
Nsg17
(lp936
(dp937
Vexpanded_url
p938
Vhttp://twitter.com/xfeelgoodxx/status/506170358891024384/photo/1
p939
sVdisplay_url
p940
Vpic.twitter.com/t9OsnKwcDi
p941
sVurl
p942
Vhttp://t.co/t9OsnKwcDi
p943
sVmedia_url_https
p944
Vhttps://pbs.twimg.com/media/BwZHQeuCcAEaKac.jpg
p945
sVid_str
p946
V506170356575399937
p947
sVsizes
p948
(dp949
Vsmall
p950
(dp951
Vh
p952
I185
sVresize
p953
Vfit
p954
sVw
p955
I340
ssVlarge
p956
(dp957
Vh
p958
I442
sVresize
p959
Vfit
p960
sVw
p961
I812
ssVmedium
p962
(dp963
Vh
p964
I326
sVresize
p965
Vfit
p966
sVw
p967
I600
ssVthumb
p968
(dp969
Vh
p970
I150
sVresize
p971
Vcrop
p972
sVw
p973
I150
sssVindices
p974
(lp975
I36
aI58
asVtype
p976
Vphoto
p977
sVid
p978
I506170356575399937
sVmedia_url
p979
Vhttp://pbs.twimg.com/media/BwZHQeuCcAEaKac.jpg
p980
sasg19
Nsg20
Nsg21
Nsg22
VSun Aug 31 20:03:12 +0000 2014
p981
sg24
Nsg25
I00
sg26
Nsg27
Nsg28
Nsg29
Nsg30
I00
sg31
Nsg32
(lp982
sg34
Nsg35
V506170358891024384
p983
sg37
Nsg38
VI always panic when I get this text http://t.co/t9OsnKwcDi
p984
sg40
I00
sg41
Ven
p985
sg43
g3
(g44
g5
Ntp986
Rp987
(dp988
g10
g48
sg49
V333333
p989
sg51
Ven
p990
sg53
VEastern Time (US & Canada)
p991
sg55
I29384
sg56
I478
sg22
VWed Mar 20 21:26:25 +0000 2013
p992
sg58
I00
sg59
VI'm here to make your day brighter. I post #funny and #true tweets that you will #love. Follow to Feel Good! For business kik: xfeelgood
p993
sg61
Vhttps://pbs.twimg.com/profile_images/424347988484296704/Wz9K6BYo_normal.jpeg
p994
sg63
I22129
sg64
I13
sg65
I-18000
sg66
Nsg67
I00
sg68
Vhttps://pbs.twimg.com/profile_banners/1284319952/1390006823
p995
sg70
I00
sg71
I00
sg72
V0084B4
p996
sg74
I00
sg75
I00
sg76
Vhttp://abs.twimg.com/images/themes/theme15/bg.png
p997
sg78
Vxfeelgoodxx
p998
sg80
I53
sg81
VFeel Good Posts
p999
sg83
VC0DFEC
p1000
sg85
Nsg86
I1284319952
sg87
V022330
p1001
sbsg89
I2113
sg90
V<a href="http://twitter.com/download/iphone" rel="nofollow">Twitter for iPhone</a>
p1002
sg92
(lp1003
sg86
I506170358891024384
sbag3
(g4
g5
Ntp1004
Rp1005
(dp1006
g9
I749
sg10
Nsg11
Nsg12
(lp1007
sg14
I00
sg15
Nsg16
Nsg17
(lp1008
(dp1009
Vexpanded_url
p1010
Vhttp://twitter.com/xfeelgoodxx/status/505775480495423488/photo/1
p1011
sVdisplay_url
p1012
Vpic.twitter.com/QjzsYk2hjS
p1013
sVurl
p1014
Vhttp://t.co/QjzsYk2hjS
p1015
sVmedia_url_https
p1016
Vhttps://pbs.twimg.com/media/BwTgHjVIQAADOA6.jpg
p1017
sVid_str
p1018
V505775478519906304
p1019
sVsizes
p1020
(dp1021
Vlarge
p1022
(dp1023
Vh
p1024
I470
sVresize
p1025
Vfit
p1026
sVw
p1027
I1000
ssVsmall
p1028
(dp1029
Vh
p1030
I159
sVresize
p1031
Vfit
p1032
sVw
p1033
I340
ssVmedium
p1034
(dp1035
Vh
p1036
I282
sVresize
p1037
Vfit
p1038
sVw
p1039
I600
ssVthumb
p1040
(dp1041
Vh
p1042
I150
sVresize
p1043
Vcrop
p1044
sVw
p1045
I150
sssVindices
p1046
(lp1047
I31
aI53
asVtype
p1048
Vphoto
p1049
sVid
p1050
I505775478519906304
sVmedia_url
p1051
Vhttp://pbs.twimg.com/media/BwTgHjVIQAADOA6.jpg
p1052
sasg19
Nsg20
Nsg21
Nsg22
VSat Aug 30 17:54:06 +0000 2014
p1053
sg24
Nsg25
I00
sg26
Nsg27
Nsg28
Nsg29
Nsg30
I00
sg31
Nsg32
(lp1054
sg34
Nsg35
V505775480495423488
p1055
sg37
Nsg38
VMy first thought anywhere I go http://t.co/QjzsYk2hjS
p1056
sg40
I00
sg41
Ven
p1057
sg43
g3
(g44
g5
Ntp1058
Rp1059
(dp1060
g10
g48
sg49
V333333
p1061
sg51
Ven
p1062
sg53
VEastern Time (US & Canada)
p1063
sg55
I29384
sg56
I478
sg22
VWed Mar 20 21:26:25 +0000 2013
p1064
sg58
I00
sg59
VI'm here to make your day brighter. I post #funny and #true tweets that you will #love. Follow to Feel Good! For business kik: xfeelgood
p1065
sg61
Vhttps://pbs.twimg.com/profile_images/424347988484296704/Wz9K6BYo_normal.jpeg
p1066
sg63
I22129
sg64
I13
sg65
I-18000
sg66
Nsg67
I00
sg68
Vhttps://pbs.twimg.com/profile_banners/1284319952/1390006823
p1067
sg70
I00
sg71
I00
sg72
V0084B4
p1068
sg74
I00
sg75
I00
sg76
Vhttp://abs.twimg.com/images/themes/theme15/bg.png
p1069
sg78
Vxfeelgoodxx
p1070
sg80
I53
sg81
VFeel Good Posts
p1071
sg83
VC0DFEC
p1072
sg85
Nsg86
I1284319952
sg87
V022330
p1073
sbsg89
I880
sg90
V<a href="http://twitter.com/download/iphone" rel="nofollow">Twitter for iPhone</a>
p1074
sg92
(lp1075
sg86
I505775480495423488
sbag3
(g4
g5
Ntp1076
Rp1077
(dp1078
g9
I2351
sg10
Nsg11
Nsg12
(lp1079
sg14
I00
sg15
Nsg16
Nsg17
(lp1080
(dp1081
Vexpanded_url
p1082
Vhttp://twitter.com/xfeelgoodxx/status/505707850724048896/photo/1
p1083
sVdisplay_url
p1084
Vpic.twitter.com/8qomzBLKD0
p1085
sVurl
p1086
Vhttp://t.co/8qomzBLKD0
p1087
sVmedia_url_https
p1088
Vhttps://pbs.twimg.com/media/BwSinC6CEAABymk.jpg
p1089
sVid_str
p1090
V505707849851211776
p1091
sVsizes
p1092
(dp1093
Vlarge
p1094
(dp1095
Vh
p1096
I1024
sVresize
p1097
Vfit
p1098
sVw
p1099
I774
ssVsmall
p1100
(dp1101
Vh
p1102
I449
sVresize
p1103
Vfit
p1104
sVw
p1105
I340
ssVmedium
p1106
(dp1107
Vh
p1108
I793
sVresize
p1109
Vfit
p1110
sVw
p1111
I600
ssVthumb
p1112
(dp1113
Vh
p1114
I150
sVresize
p1115
Vcrop
p1116
sVw
p1117
I150
sssVindices
p1118
(lp1119
I34
aI56
asVtype
p1120
Vphoto
p1121
sVid
p1122
I505707849851211776
sVmedia_url
p1123
Vhttp://pbs.twimg.com/media/BwSinC6CEAABymk.jpg
p1124
sasg19
Nsg20
Nsg21
Nsg22
VSat Aug 30 13:25:21 +0000 2014
p1125
sg24
Nsg25
I00
sg26
Nsg27
Nsg28
Nsg29
Nsg30
I00
sg31
Nsg32
(lp1126
sg34
Nsg35
V505707850724048896
p1127
sg37
Nsg38
V"How do you know when it's over?" http://t.co/8qomzBLKD0
p1128
sg40
I00
sg41
Ven
p1129
sg43
g3
(g44
g5
Ntp1130
Rp1131
(dp1132
g10
g48
sg49
V333333
p1133
sg51
Ven
p1134
sg53
VEastern Time (US & Canada)
p1135
sg55
I29384
sg56
I478
sg22
VWed Mar 20 21:26:25 +0000 2013
p1136
sg58
I00
sg59
VI'm here to make your day brighter. I post #funny and #true tweets that you will #love. Follow to Feel Good! For business kik: xfeelgood
p1137
sg61
Vhttps://pbs.twimg.com/profile_images/424347988484296704/Wz9K6BYo_normal.jpeg
p1138
sg63
I22129
sg64
I13
sg65
I-18000
sg66
Nsg67
I00
sg68
Vhttps://pbs.twimg.com/profile_banners/1284319952/1390006823
p1139
sg70
I00
sg71
I00
sg72
V0084B4
p1140
sg74
I00
sg75
I00
sg76
Vhttp://abs.twimg.com/images/themes/theme15/bg.png
p1141
sg78
Vxfeelgoodxx
p1142
sg80
I53
sg81
VFeel Good Posts
p1143
sg83
VC0DFEC
p1144
sg85
Nsg86
I1284319952
sg87
V022330
p1145
sbsg89
I1414
sg90
V<a href="http://twitter.com/download/iphone" rel="nofollow">Twitter for iPhone</a>
p1146
sg92
(lp1147
sg86
I505707850724048896
sbag3
(g4
g5
Ntp1148
Rp1149
(dp1150
g9
I1667
sg10
Nsg11
Nsg12
(lp1151
sg14
I00
sg15
Nsg16
Nsg17
(lp1152
(dp1153
Vexpanded_url
p1154
Vhttp://twitter.com/xfeelgoodxx/status/505117220595572736/photo/1
p1155
sVdisplay_url
p1156
Vpic.twitter.com/QK4se3vnss
p1157
sVurl
p1158
Vhttp://t.co/QK4se3vnss
p1159
sVmedia_url_https
p1160
Vhttps://pbs.twimg.com/media/BwKJb2lIcAE2Dcx.jpg
p1161
sVid_str
p1162
V505117219819646977
p1163
sVsizes
p1164
(dp1165
Vsmall
p1166
(dp1167
Vh
p1168
I453
sVresize
p1169
Vfit
p1170
sVw
p1171
I340
ssVlarge
p1172
(dp1173
Vh
p1174
I799
sVresize
p1175
Vfit
p1176
sVw
p1177
I599
ssVmedium
p1178
(dp1179
Vh
p1180
I799
sVresize
p1181
Vfit
p1182
sVw
p1183
I599
ssVthumb
p1184
(dp1185
Vh
p1186
I150
sVresize
p1187
Vcrop
p1188
sVw
p1189
I150
sssVindices
p1190
(lp1191
I26
aI48
asVtype
p1192
Vphoto
p1193
sVid
p1194
I505117219819646977
sVmedia_url
p1195
Vhttp://pbs.twimg.com/media/BwKJb2lIcAE2Dcx.jpg
p1196
sasg19
Nsg20
Nsg21
Nsg22
VThu Aug 28 22:18:24 +0000 2014
p1197
sg24
Nsg25
I00
sg26
Nsg27
Nsg28
Nsg29
Nsg30
I00
sg31
Nsg32
(lp1198
sg34
Nsg35
V505117220595572736
p1199
sg37
Nsg38
VNew form of stress relief http://t.co/QK4se3vnss
p1200
sg40
I00
sg41
Ven
p1201
sg43
g3
(g44
g5
Ntp1202
Rp1203
(dp1204
g10
g48
sg49
V333333
p1205
sg51
Ven
p1206
sg53
VEastern Time (US & Canada)
p1207
sg55
I29384
sg56
I478
sg22
VWed Mar 20 21:26:25 +0000 2013
p1208
sg58
I00
sg59
VI'm here to make your day brighter. I post #funny and #true tweets that you will #love. Follow to Feel Good! For business kik: xfeelgood
p1209
sg61
Vhttps://pbs.twimg.com/profile_images/424347988484296704/Wz9K6BYo_normal.jpeg
p1210
sg63
I22129
sg64
I13
sg65
I-18000
sg66
Nsg67
I00
sg68
Vhttps://pbs.twimg.com/profile_banners/1284319952/1390006823
p1211
sg70
I00
sg71
I00
sg72
V0084B4
p1212
sg74
I00
sg75
I00
sg76
Vhttp://abs.twimg.com/images/themes/theme15/bg.png
p1213
sg78
Vxfeelgoodxx
p1214
sg80
I53
sg81
VFeel Good Posts
p1215
sg83
VC0DFEC
p1216
sg85
Nsg86
I1284319952
sg87
V022330
p1217
sbsg89
I1150
sg90
V<a href="http://twitter.com/download/iphone" rel="nofollow">Twitter for iPhone</a>
p1218
sg92
(lp1219
sg86
I505117220595572736
sbag3
(g4
g5
Ntp1220
Rp1221
(dp1222
g9
I467
sg10
Nsg11
Nsg12
(lp1223
sg14
I00
sg15
Nsg16
Nsg17
(lp1224
(dp1225
Vexpanded_url
p1226
Vhttp://twitter.com/xfeelgoodxx/status/505000629451124736/photo/1
p1227
sVdisplay_url
p1228
Vpic.twitter.com/E3XvTigoAy
p1229
sVurl
p1230
Vhttp://t.co/E3XvTigoAy
p1231
sVmedia_url_https
p1232
Vhttps://pbs.twimg.com/media/BwIfZTxIEAEnpG3.jpg
p1233
sVid_str
p1234
V505000627882430465
p1235
sVsizes
p1236
(dp1237
Vlarge
p1238
(dp1239
Vh
p1240
I592
sVresize
p1241
Vfit
p1242
sVw
p1243
I592
ssVsmall
p1244
(dp1245
Vh
p1246
I340
sVresize
p1247
Vfit
p1248
sVw
p1249
I340
ssVmedium
p1250
(dp1251
Vh
p1252
I592
sVresize
p1253
Vfit
p1254
sVw
p1255
I592
ssVthumb
p1256
(dp1257
Vh
p1258
I150
sVresize
p1259
Vcrop
p1260
sVw
p1261
I150
sssVindices
p1262
(lp1263
I17
aI39
asVtype
p1264
Vphoto
p1265
sVid
p1266
I505000627882430465
sVmedia_url
p1267
Vhttp://pbs.twimg.com/media/BwIfZTxIEAEnpG3.jpg
p1268
sasg19
Nsg20
Nsg21
Nsg22
VThu Aug 28 14:35:07 +0000 2014
p1269
sg24
Nsg25
I00
sg26
Nsg27
Nsg28
Nsg29
Nsg30
I00
sg31
Nsg32
(lp1270
sg34
Nsg35
V505000629451124736
p1271
sg37
Nsg38
VThink about that http://t.co/E3XvTigoAy
p1272
sg40
I00
sg41
Ven
p1273
sg43
g3
(g44
g5
Ntp1274
Rp1275
(dp1276
g10
g48
sg49
V333333
p1277
sg51
Ven
p1278
sg53
VEastern Time (US & Canada)
p1279
sg55
I29384
sg56
I478
sg22
VWed Mar 20 21:26:25 +0000 2013
p1280
sg58
I00
sg59
VI'm here to make your day brighter. I post #funny and #true tweets that you will #love. Follow to Feel Good! For business kik: xfeelgood
p1281
sg61
Vhttps://pbs.twimg.com/profile_images/424347988484296704/Wz9K6BYo_normal.jpeg
p1282
sg63
I22129
sg64
I13
sg65
I-18000
sg66
Nsg67
I00
sg68
Vhttps://pbs.twimg.com/profile_banners/1284319952/1390006823
p1283
sg70
I00
sg71
I00
sg72
V0084B4
p1284
sg74
I00
sg75
I00
sg76
Vhttp://abs.twimg.com/images/themes/theme15/bg.png
p1285
sg78
Vxfeelgoodxx
p1286
sg80
I53
sg81
VFeel Good Posts
p1287
sg83
VC0DFEC
p1288
sg85
Nsg86
I1284319952
sg87
V022330
p1289
sbsg89
I408
sg90
V<a href="http://twitter.com/download/iphone" rel="nofollow">Twitter for iPhone</a>
p1290
sg92
(lp1291
sg86
I505000629451124736
sbag3
(g4
g5
Ntp1292
Rp1293
(dp1294
g9
I1045
sg10
Nsg11
Nsg12
(lp1295
sg14
I00
sg15
Nsg16
Nsg17
(lp1296
(dp1297
Vexpanded_url
p1298
Vhttp://twitter.com/xfeelgoodxx/status/504776821855232000/photo/1
p1299
sVdisplay_url
p1300
Vpic.twitter.com/tq1KsKV9Dv
p1301
sVurl
p1302
Vhttp://t.co/tq1KsKV9Dv
p1303
sVmedia_url_https
p1304
Vhttps://pbs.twimg.com/media/BwFT2CACIAIxklF.jpg
p1305
sVid_str
p1306
V504776820957257730
p1307
sVsizes
p1308
(dp1309
Vsmall
p1310
(dp1311
Vh
p1312
I604
sVresize
p1313
Vfit
p1314
sVw
p1315
I340
ssVlarge
p1316
(dp1317
Vh
p1318
I854
sVresize
p1319
Vfit
p1320
sVw
p1321
I480
ssVmedium
p1322
(dp1323
Vh
p1324
I854
sVresize
p1325
Vfit
p1326
sVw
p1327
I480
ssVthumb
p1328
(dp1329
Vh
p1330
I150
sVresize
p1331
Vcrop
p1332
sVw
p1333
I150
sssVindices
p1334
(lp1335
I45
aI67
asVtype
p1336
Vphoto
p1337
sVid
p1338
I504776820957257730
sVmedia_url
p1339
Vhttp://pbs.twimg.com/media/BwFT2CACIAIxklF.jpg
p1340
sasg19
Nsg20
Nsg21
Nsg22
VWed Aug 27 23:45:47 +0000 2014
p1341
sg24
Nsg25
I00
sg26
Nsg27
Nsg28
Nsg29
Nsg30
I00
sg31
Nsg32
(lp1342
sg34
Nsg35
V504776821855232000
p1343
sg37
Nsg38
VIf you text like this we can be best friends http://t.co/tq1KsKV9Dv
p1344
sg40
I00
sg41
Ven
p1345
sg43
g3
(g44
g5
Ntp1346
Rp1347
(dp1348
g10
g48
sg49
V333333
p1349
sg51
Ven
p1350
sg53
VEastern Time (US & Canada)
p1351
sg55
I29384
sg56
I478
sg22
VWed Mar 20 21:26:25 +0000 2013
p1352
sg58
I00
sg59
VI'm here to make your day brighter. I post #funny and #true tweets that you will #love. Follow to Feel Good! For business kik: xfeelgood
p1353
sg61
Vhttps://pbs.twimg.com/profile_images/424347988484296704/Wz9K6BYo_normal.jpeg
p1354
sg63
I22129
sg64
I13
sg65
I-18000
sg66
Nsg67
I00
sg68
Vhttps://pbs.twimg.com/profile_banners/1284319952/1390006823
p1355
sg70
I00
sg71
I00
sg72
V0084B4
p1356
sg74
I00
sg75
I00
sg76
Vhttp://abs.twimg.com/images/themes/theme15/bg.png
p1357
sg78
Vxfeelgoodxx
p1358
sg80
I53
sg81
VFeel Good Posts
p1359
sg83
VC0DFEC
p1360
sg85
Nsg86
I1284319952
sg87
V022330
p1361
sbsg89
I1064
sg90
V<a href="http://twitter.com/download/iphone" rel="nofollow">Twitter for iPhone</a>
p1362
sg92
(lp1363
sg86
I504776821855232000
sbag3
(g4
g5
Ntp1364
Rp1365
(dp1366
g9
I490
sg10
Nsg11
Nsg12
(lp1367
sg14
I00
sg15
Nsg16
Nsg17
(lp1368
(dp1369
Vexpanded_url
p1370
Vhttp://twitter.com/xfeelgoodxx/status/504443969573777408/photo/1
p1371
sVdisplay_url
p1372
Vpic.twitter.com/Q7Qkx8r8d4
p1373
sVurl
p1374
Vhttp://t.co/Q7Qkx8r8d4
p1375
sVmedia_url_https
p1376
Vhttps://pbs.twimg.com/media/BwAlHfbIUAASKbN.jpg
p1377
sVid_str
p1378
V504443968890097664
p1379
sVsizes
p1380
(dp1381
Vlarge
p1382
(dp1383
Vh
p1384
I344
sVresize
p1385
Vfit
p1386
sVw
p1387
I640
ssVsmall
p1388
(dp1389
Vh
p1390
I182
sVresize
p1391
Vfit
p1392
sVw
p1393
I340
ssVmedium
p1394
(dp1395
Vh
p1396
I322
sVresize
p1397
Vfit
p1398
sVw
p1399
I600
ssVthumb
p1400
(dp1401
Vh
p1402
I150
sVresize
p1403
Vcrop
p1404
sVw
p1405
I150
sssVindices
p1406
(lp1407
I21
aI43
asVtype
p1408
Vphoto
p1409
sVid
p1410
I504443968890097664
sVmedia_url
p1411
Vhttp://pbs.twimg.com/media/BwAlHfbIUAASKbN.jpg
p1412
sasg19
Nsg20
Nsg21
Nsg22
VWed Aug 27 01:43:09 +0000 2014
p1413
sg24
Nsg25
I00
sg26
Nsg27
Nsg28
Nsg29
Nsg30
I00
sg31
Nsg32
(lp1414
sg34
Nsg35
V504443969573777408
p1415
sg37
Nsg38
VYou have 24 hours... http://t.co/Q7Qkx8r8d4
p1416
sg40
I00
sg41
Ven
p1417
sg43
g3
(g44
g5
Ntp1418
Rp1419
(dp1420
g10
g48
sg49
V333333
p1421
sg51
Ven
p1422
sg53
VEastern Time (US & Canada)
p1423
sg55
I29384
sg56
I478
sg22
VWed Mar 20 21:26:25 +0000 2013
p1424
sg58
I00
sg59
VI'm here to make your day brighter. I post #funny and #true tweets that you will #love. Follow to Feel Good! For business kik: xfeelgood
p1425
sg61
Vhttps://pbs.twimg.com/profile_images/424347988484296704/Wz9K6BYo_normal.jpeg
p1426
sg63
I22129
sg64
I13
sg65
I-18000
sg66
Nsg67
I00
sg68
Vhttps://pbs.twimg.com/profile_banners/1284319952/1390006823
p1427
sg70
I00
sg71
I00
sg72
V0084B4
p1428
sg74
I00
sg75
I00
sg76
Vhttp://abs.twimg.com/images/themes/theme15/bg.png
p1429
sg78
Vxfeelgoodxx
p1430
sg80
I53
sg81
VFeel Good Posts
p1431
sg83
VC0DFEC
p1432
sg85
Nsg86
I1284319952
sg87
V022330
p1433
sbsg89
I670
sg90
V<a href="http://twitter.com/download/iphone" rel="nofollow">Twitter for iPhone</a>
p1434
sg92
(lp1435
sg86
I504443969573777408
sbaa.