(lp0
S'theapothecaries'
p1
a(lp2
ccopy_reg
_reconstructor
p3
(ctwitter.status
Status
p4
c__builtin__
object
p5
Ntp6
Rp7
(dp8
S'_favorite_count'
p9
I0
sS'_location'
p10
NsS'_withheld_scope'
p11
NsS'hashtags'
p12
(lp13
g3
(ctwitter.hashtag
Hashtag
p14
g5
Ntp15
Rp16
(dp17
S'text'
p18
Vsleep
p19
sbag3
(g14
g5
Ntp20
Rp21
(dp22
g18
Vskin
p23
sbasS'_truncated'
p24
I00
sS'_retweeted_status'
p25
NsS'_withheld_copyright'
p26
NsS'media'
p27
(lp28
sS'_place'
p29
NsS'_contributors'
p30
NsS'_current_user_retweet'
p31
NsS'_created_at'
p32
VSun Dec 14 18:31:06 +0000 2014
p33
sS'_scopes'
p34
NsS'_possibly_sensitive'
p35
I00
sS'_in_reply_to_screen_name'
p36
NsS'_coordinates'
p37
NsS'_in_reply_to_user_id'
p38
NsS'_geo'
p39
NsS'_favorited'
p40
I00
sS'_withheld_in_countries'
p41
NsS'user_mentions'
p42
(lp43
sS'_now'
p44
NsS'_id_str'
p45
NsS'_in_reply_to_status_id'
p46
NsS'_text'
p47
VThe skin naturally repairs itself when we sleep - so it only makes sense to get a good nights #sleep for great #skin http://t.co/fh9iE52iDs
p48
sS'_retweeted'
p49
I00
sS'lang'
p50
Ven
p51
sS'_user'
p52
g3
(ctwitter.user
User
p53
g5
Ntp54
Rp55
(dp56
g10
VUnited Kingdom
p57
sS'_profile_text_color'
p58
V333333
p59
sS'_lang'
p60
Ven
p61
sS'_time_zone'
p62
NsS'_followers_count'
p63
I282
sS'_statuses_count'
p64
I816
sg32
VSat Sep 07 08:47:12 +0000 2013
p65
sS'_verified'
p66
I00
sS'_description'
p67
VA luxury beauty online retailer specialising in worldwide cosmeceutical brands such as SkinCeuticals, NeoStrata, Revitalash & more! FREE UK DELIVERY
p68
sS'_profile_image_url'
p69
Vhttps://pbs.twimg.com/profile_images/378800000762007636/ba04c06f7d1e637934aa9d4cb47f6fbe_normal.png
p70
sS'_friends_count'
p71
I520
sS'_favourites_count'
p72
I374
sS'_utc_offset'
p73
NsS'_status'
p74
NsS'_protected'
p75
I00
sS'_profile_banner_url'
p76
Vhttps://pbs.twimg.com/profile_banners/1743685044/1415919781
p77
sS'_notifications'
p78
I00
sS'_profile_background_tile'
p79
I01
sS'_profile_link_color'
p80
V696A6B
p81
sS'_geo_enabled'
p82
I00
sS'_contributors_enabled'
p83
I00
sS'_profile_background_image_url'
p84
Vhttp://pbs.twimg.com/profile_background_images/378800000182249849/XjuYiHk5.png
p85
sS'_screen_name'
p86
Vtheapothecaries
p87
sS'_listed_count'
p88
I3
sS'_name'
p89
VThe Apothecaries
p90
sS'_profile_sidebar_fill_color'
p91
VDDEEF6
p92
sS'_url'
p93
Vhttp://t.co/kaGIongmfQ
p94
sS'_id'
p95
I1743685044
sS'_profile_background_color'
p96
VFFFFFF
p97
sbsS'_retweet_count'
p98
I0
sS'_source'
p99
V<a href="http://www.oktopost.com" rel="nofollow">Oktopost</a>
p100
sS'urls'
p101
(lp102
g3
(ctwitter.url
Url
p103
g5
Ntp104
Rp105
(dp106
S'url'
p107
Vhttp://t.co/fh9iE52iDs
p108
sS'expanded_url'
p109
Vhttp://okt.to/5hv8T9
p110
sbasg95
I544197906564415488
sbag3
(g4
g5
Ntp111
Rp112
(dp113
g9
I0
sg10
Nsg11
Nsg12
(lp114
g3
(g14
g5
Ntp115
Rp116
(dp117
g18
Vwater
p118
sbag3
(g14
g5
Ntp119
Rp120
(dp121
g18
VPrematureAgeing
p122
sbag3
(g14
g5
Ntp123
Rp124
(dp125
g18
VAntiAgeing
p126
sbasg24
I00
sg25
Nsg26
Nsg27
(lp127
(dp128
Vexpanded_url
p129
Vhttp://twitter.com/theapothecaries/status/544130711221850112/photo/1
p130
sVdisplay_url
p131
Vpic.twitter.com/YAtJi3gMKc
p132
sVurl
p133
Vhttp://t.co/YAtJi3gMKc
p134
sVmedia_url_https
p135
Vhttps://pbs.twimg.com/media/B40j_7OCcAAM6QC.png
p136
sVid_str
p137
V544130711117000704
p138
sVsizes
p139
(dp140
Vlarge
p141
(dp142
Vh
p143
I253
sVresize
p144
Vfit
p145
sVw
p146
I506
ssVsmall
p147
(dp148
Vh
p149
I170
sVresize
p150
Vfit
p151
sVw
p152
I340
ssVmedium
p153
(dp154
Vh
p155
I253
sVresize
p156
Vfit
p157
sVw
p158
I506
ssVthumb
p159
(dp160
Vh
p161
I150
sVresize
p162
Vcrop
p163
sVw
p164
I150
sssVindices
p165
(lp166
I108
aI130
asVtype
p167
Vphoto
p168
sVid
p169
I544130711117000704
sVmedia_url
p170
Vhttp://pbs.twimg.com/media/B40j_7OCcAAM6QC.png
p171
sasg29
Nsg30
Nsg31
Nsg32
VSun Dec 14 14:04:05 +0000 2014
p172
sg34
Nsg35
I00
sg36
Nsg37
Nsg38
Nsg39
Nsg40
I00
sg41
Nsg42
(lp173
sg44
Nsg45
Nsg46
Nsg47
VFind out why drinking plenty of #water helps to prevent #PrematureAgeing #AntiAgeing http://t.co/yQX7HBWXg3 http://t.co/YAtJi3gMKc
p174
sg49
I00
sg50
Ven
p175
sg52
g3
(g53
g5
Ntp176
Rp177
(dp178
g10
VUnited Kingdom
p179
sg58
V333333
p180
sg60
Ven
p181
sg62
Nsg63
I282
sg64
I816
sg32
VSat Sep 07 08:47:12 +0000 2013
p182
sg66
I00
sg67
VA luxury beauty online retailer specialising in worldwide cosmeceutical brands such as SkinCeuticals, NeoStrata, Revitalash & more! FREE UK DELIVERY
p183
sg69
Vhttps://pbs.twimg.com/profile_images/378800000762007636/ba04c06f7d1e637934aa9d4cb47f6fbe_normal.png
p184
sg71
I520
sg72
I374
sg73
Nsg74
Nsg75
I00
sg76
Vhttps://pbs.twimg.com/profile_banners/1743685044/1415919781
p185
sg78
I00
sg79
I01
sg80
V696A6B
p186
sg82
I00
sg83
I00
sg84
Vhttp://pbs.twimg.com/profile_background_images/378800000182249849/XjuYiHk5.png
p187
sg86
Vtheapothecaries
p188
sg88
I3
sg89
VThe Apothecaries
p189
sg91
VDDEEF6
p190
sg93
Vhttp://t.co/kaGIongmfQ
p191
sg95
I1743685044
sg96
VFFFFFF
p192
sbsg98
I0
sg99
V<a href="http://www.oktopost.com" rel="nofollow">Oktopost</a>
p193
sg101
(lp194
g3
(g103
g5
Ntp195
Rp196
(dp197
g107
Vhttp://t.co/yQX7HBWXg3
p198
sg109
Vhttp://okt.to/a8B0ZO
p199
sbasg95
I544130711221850112
sbag3
(g4
g5
Ntp200
Rp201
(dp202
g9
I0
sg10
Nsg11
Nsg12
(lp203
g3
(g14
g5
Ntp204
Rp205
(dp206
g18
VFacebook
p207
sbag3
(g14
g5
Ntp208
Rp209
(dp210
g18
VGiveaway
p211
sbag3
(g14
g5
Ntp212
Rp213
(dp214
g18
VExuviance
p215
sbag3
(g14
g5
Ntp216
Rp217
(dp218
g18
VCompetition
p219
sbasg24
I00
sg25
Nsg26
Nsg27
(lp220
sg29
Nsg30
Nsg31
Nsg32
VSun Dec 14 13:51:03 +0000 2014
p221
sg34
Nsg35
I00
sg36
Nsg37
Nsg38
Nsg39
Nsg40
I00
sg41
Nsg42
(lp222
sg44
Nsg45
Nsg46
Nsg47
VIt is your final chance to enter our #Facebook #Giveaway! Win an #Exuviance Vespera Bionic Serum #Competition http://t.co/HMevD3nH0w
p223
sg49
I00
sg50
Ven
p224
sg52
g3
(g53
g5
Ntp225
Rp226
(dp227
g10
VUnited Kingdom
p228
sg58
V333333
p229
sg60
Ven
p230
sg62
Nsg63
I282
sg64
I816
sg32
VSat Sep 07 08:47:12 +0000 2013
p231
sg66
I00
sg67
VA luxury beauty online retailer specialising in worldwide cosmeceutical brands such as SkinCeuticals, NeoStrata, Revitalash & more! FREE UK DELIVERY
p232
sg69
Vhttps://pbs.twimg.com/profile_images/378800000762007636/ba04c06f7d1e637934aa9d4cb47f6fbe_normal.png
p233
sg71
I520
sg72
I374
sg73
Nsg74
Nsg75
I00
sg76
Vhttps://pbs.twimg.com/profile_banners/1743685044/1415919781
p234
sg78
I00
sg79
I01
sg80
V696A6B
p235
sg82
I00
sg83
I00
sg84
Vhttp://pbs.twimg.com/profile_background_images/378800000182249849/XjuYiHk5.png
p236
sg86
Vtheapothecaries
p237
sg88
I3
sg89
VThe Apothecaries
p238
sg91
VDDEEF6
p239
sg93
Vhttp://t.co/kaGIongmfQ
p240
sg95
I1743685044
sg96
VFFFFFF
p241
sbsg98
I0
sg99
V<a href="http://www.oktopost.com" rel="nofollow">Oktopost</a>
p242
sg101
(lp243
g3
(g103
g5
Ntp244
Rp245
(dp246
g107
Vhttp://t.co/HMevD3nH0w
p247
sg109
Vhttp://okt.to/l96JtB
p248
sbasg95
I544127432425766912
sbag3
(g4
g5
Ntp249
Rp250
(dp251
g9
I0
sg10
Nsg11
Nsg12
(lp252
g3
(g14
g5
Ntp253
Rp254
(dp255
g18
Vsleep
p256
sbag3
(g14
g5
Ntp257
Rp258
(dp259
g18
Vmakeup
p260
sbag3
(g14
g5
Ntp261
Rp262
(dp263
g18
Vageing
p264
sbasg24
I00
sg25
Nsg26
Nsg27
(lp265
(dp266
Vexpanded_url
p267
Vhttp://twitter.com/theapothecaries/status/544090448714031104/photo/1
p268
sVdisplay_url
p269
Vpic.twitter.com/U0VSCokNhY
p270
sVurl
p271
Vhttp://t.co/U0VSCokNhY
p272
sVmedia_url_https
p273
Vhttps://pbs.twimg.com/media/B4z_YVzIIAENpyD.png
p274
sVid_str
p275
V544090448638517249
p276
sVsizes
p277
(dp278
Vlarge
p279
(dp280
Vh
p281
I253
sVresize
p282
Vfit
p283
sVw
p284
I506
ssVsmall
p285
(dp286
Vh
p287
I170
sVresize
p288
Vfit
p289
sVw
p290
I340
ssVmedium
p291
(dp292
Vh
p293
I253
sVresize
p294
Vfit
p295
sVw
p296
I506
ssVthumb
p297
(dp298
Vh
p299
I150
sVresize
p300
Vcrop
p301
sVw
p302
I150
sssVindices
p303
(lp304
I107
aI129
asVtype
p305
Vphoto
p306
sVid
p307
I544090448638517249
sVmedia_url
p308
Vhttp://pbs.twimg.com/media/B4z_YVzIIAENpyD.png
p309
sasg29
Nsg30
Nsg31
Nsg32
VSun Dec 14 11:24:06 +0000 2014
p310
sg34
Nsg35
I00
sg36
Nsg37
Nsg38
Nsg39
Nsg40
I00
sg41
Nsg42
(lp311
sg44
Nsg45
Nsg46
Nsg47
VDo you #sleep in your #makeup? Read why this could be #ageing your skin prematurely http://t.co/f90s1pk8cs http://t.co/U0VSCokNhY
p312
sg49
I00
sg50
Ven
p313
sg52
g3
(g53
g5
Ntp314
Rp315
(dp316
g10
VUnited Kingdom
p317
sg58
V333333
p318
sg60
Ven
p319
sg62
Nsg63
I282
sg64
I816
sg32
VSat Sep 07 08:47:12 +0000 2013
p320
sg66
I00
sg67
VA luxury beauty online retailer specialising in worldwide cosmeceutical brands such as SkinCeuticals, NeoStrata, Revitalash & more! FREE UK DELIVERY
p321
sg69
Vhttps://pbs.twimg.com/profile_images/378800000762007636/ba04c06f7d1e637934aa9d4cb47f6fbe_normal.png
p322
sg71
I520
sg72
I374
sg73
Nsg74
Nsg75
I00
sg76
Vhttps://pbs.twimg.com/profile_banners/1743685044/1415919781
p323
sg78
I00
sg79
I01
sg80
V696A6B
p324
sg82
I00
sg83
I00
sg84
Vhttp://pbs.twimg.com/profile_background_images/378800000182249849/XjuYiHk5.png
p325
sg86
Vtheapothecaries
p326
sg88
I3
sg89
VThe Apothecaries
p327
sg91
VDDEEF6
p328
sg93
Vhttp://t.co/kaGIongmfQ
p329
sg95
I1743685044
sg96
VFFFFFF
p330
sbsg98
I0
sg99
V<a href="http://www.oktopost.com" rel="nofollow">Oktopost</a>
p331
sg101
(lp332
g3
(g103
g5
Ntp333
Rp334
(dp335
g107
Vhttp://t.co/f90s1pk8cs
p336
sg109
Vhttp://okt.to/9cqkj7
p337
sbasg95
I544090448714031104
sbag3
(g4
g5
Ntp338
Rp339
(dp340
g9
I0
sg10
Nsg11
Nsg12
(lp341
g3
(g14
g5
Ntp342
Rp343
(dp344
g18
Vskin
p345
sbag3
(g14
g5
Ntp346
Rp347
(dp348
g18
VAntiAgeing
p349
sbag3
(g14
g5
Ntp350
Rp351
(dp352
g18
VAntioxidants
p353
sbasg24
I00
sg25
Nsg26
Nsg27
(lp354
(dp355
Vexpanded_url
p356
Vhttp://twitter.com/theapothecaries/status/543852902247583745/photo/1
p357
sVdisplay_url
p358
Vpic.twitter.com/eCNADFhatQ
p359
sVurl
p360
Vhttp://t.co/eCNADFhatQ
p361
sVmedia_url_https
p362
Vhttps://pbs.twimg.com/media/B4wnVURIcAEzasd.png
p363
sVid_str
p364
V543852902176288769
p365
sVsizes
p366
(dp367
Vlarge
p368
(dp369
Vh
p370
I253
sVresize
p371
Vfit
p372
sVw
p373
I506
ssVsmall
p374
(dp375
Vh
p376
I170
sVresize
p377
Vfit
p378
sVw
p379
I340
ssVmedium
p380
(dp381
Vh
p382
I253
sVresize
p383
Vfit
p384
sVw
p385
I506
ssVthumb
p386
(dp387
Vh
p388
I150
sVresize
p389
Vcrop
p390
sVw
p391
I150
sssVindices
p392
(lp393
I115
aI137
asVtype
p394
Vphoto
p395
sVid
p396
I543852902176288769
sVmedia_url
p397
Vhttp://pbs.twimg.com/media/B4wnVURIcAEzasd.png
p398
sasg29
Nsg30
Nsg31
Nsg32
VSat Dec 13 19:40:10 +0000 2014
p399
sg34
Nsg35
I00
sg36
Nsg37
Nsg38
Nsg39
Nsg40
I00
sg41
Nsg42
(lp400
sg44
Nsg45
Nsg46
Nsg47
VLearn how to protect your #skin against environmental aggressors: #AntiAgeing #Antioxidants http://t.co/obBh0ITImJ http://t.co/eCNADFhatQ
p401
sg49
I00
sg50
Ven
p402
sg52
g3
(g53
g5
Ntp403
Rp404
(dp405
g10
VUnited Kingdom
p406
sg58
V333333
p407
sg60
Ven
p408
sg62
Nsg63
I282
sg64
I816
sg32
VSat Sep 07 08:47:12 +0000 2013
p409
sg66
I00
sg67
VA luxury beauty online retailer specialising in worldwide cosmeceutical brands such as SkinCeuticals, NeoStrata, Revitalash & more! FREE UK DELIVERY
p410
sg69
Vhttps://pbs.twimg.com/profile_images/378800000762007636/ba04c06f7d1e637934aa9d4cb47f6fbe_normal.png
p411
sg71
I520
sg72
I374
sg73
Nsg74
Nsg75
I00
sg76
Vhttps://pbs.twimg.com/profile_banners/1743685044/1415919781
p412
sg78
I00
sg79
I01
sg80
V696A6B
p413
sg82
I00
sg83
I00
sg84
Vhttp://pbs.twimg.com/profile_background_images/378800000182249849/XjuYiHk5.png
p414
sg86
Vtheapothecaries
p415
sg88
I3
sg89
VThe Apothecaries
p416
sg91
VDDEEF6
p417
sg93
Vhttp://t.co/kaGIongmfQ
p418
sg95
I1743685044
sg96
VFFFFFF
p419
sbsg98
I0
sg99
V<a href="http://www.oktopost.com" rel="nofollow">Oktopost</a>
p420
sg101
(lp421
g3
(g103
g5
Ntp422
Rp423
(dp424
g107
Vhttp://t.co/obBh0ITImJ
p425
sg109
Vhttp://okt.to/ELQPGv
p426
sbasg95
I543852902247583745
sbag3
(g4
g5
Ntp427
Rp428
(dp429
g9
I0
sg10
Nsg11
Nsg12
(lp430
g3
(g14
g5
Ntp431
Rp432
(dp433
g18
VWeekendCompetition
p434
sbag3
(g14
g5
Ntp435
Rp436
(dp437
g18
VFacebook
p438
sbasg24
I00
sg25
Nsg26
Nsg27
(lp439
sg29
Nsg30
Nsg31
Nsg32
VSat Dec 13 14:37:25 +0000 2014
p440
sg34
Nsg35
I00
sg36
Nsg37
Nsg38
Nsg39
Nsg40
I00
sg41
Nsg42
(lp441
sg44
Nsg45
Nsg46
Nsg47
VHave you entered our #WeekendCompetition? Head over to our #Facebook page for your chance to win an Exuviance serum! http://t.co/aZnjaLJuEc
p442
sg49
I00
sg50
Ven
p443
sg52
g3
(g53
g5
Ntp444
Rp445
(dp446
g10
VUnited Kingdom
p447
sg58
V333333
p448
sg60
Ven
p449
sg62
Nsg63
I282
sg64
I816
sg32
VSat Sep 07 08:47:12 +0000 2013
p450
sg66
I00
sg67
VA luxury beauty online retailer specialising in worldwide cosmeceutical brands such as SkinCeuticals, NeoStrata, Revitalash & more! FREE UK DELIVERY
p451
sg69
Vhttps://pbs.twimg.com/profile_images/378800000762007636/ba04c06f7d1e637934aa9d4cb47f6fbe_normal.png
p452
sg71
I520
sg72
I374
sg73
Nsg74
Nsg75
I00
sg76
Vhttps://pbs.twimg.com/profile_banners/1743685044/1415919781
p453
sg78
I00
sg79
I01
sg80
V696A6B
p454
sg82
I00
sg83
I00
sg84
Vhttp://pbs.twimg.com/profile_background_images/378800000182249849/XjuYiHk5.png
p455
sg86
Vtheapothecaries
p456
sg88
I3
sg89
VThe Apothecaries
p457
sg91
VDDEEF6
p458
sg93
Vhttp://t.co/kaGIongmfQ
p459
sg95
I1743685044
sg96
VFFFFFF
p460
sbsg98
I0
sg99
V<a href="http://www.oktopost.com" rel="nofollow">Oktopost</a>
p461
sg101
(lp462
g3
(g103
g5
Ntp463
Rp464
(dp465
g107
Vhttp://t.co/aZnjaLJuEc
p466
sg109
Vhttp://okt.to/41NN52
p467
sbasg95
I543776712363085824
sbag3
(g4
g5
Ntp468
Rp469
(dp470
g9
I0
sg10
Nsg11
Nsg12
(lp471
g3
(g14
g5
Ntp472
Rp473
(dp474
g18
Vcleansing
p475
sbag3
(g14
g5
Ntp476
Rp477
(dp478
g18
Vexfoliating
p479
sbasg24
I00
sg25
Nsg26
Nsg27
(lp480
sg29
Nsg30
Nsg31
Nsg32
VSat Dec 13 12:51:04 +0000 2014
p481
sg34
Nsg35
I00
sg36
Nsg37
Nsg38
Nsg39
Nsg40
I00
sg41
Nsg42
(lp482
sg44
Nsg45
Nsg46
Nsg47
VDid you know that #cleansing and #exfoliating the skin helps to maintain a youthful complexion? Learn more here: http://t.co/Uj4fBz5IG9
p483
sg49
I00
sg50
Ven
p484
sg52
g3
(g53
g5
Ntp485
Rp486
(dp487
g10
VUnited Kingdom
p488
sg58
V333333
p489
sg60
Ven
p490
sg62
Nsg63
I282
sg64
I816
sg32
VSat Sep 07 08:47:12 +0000 2013
p491
sg66
I00
sg67
VA luxury beauty online retailer specialising in worldwide cosmeceutical brands such as SkinCeuticals, NeoStrata, Revitalash & more! FREE UK DELIVERY
p492
sg69
Vhttps://pbs.twimg.com/profile_images/378800000762007636/ba04c06f7d1e637934aa9d4cb47f6fbe_normal.png
p493
sg71
I520
sg72
I374
sg73
Nsg74
Nsg75
I00
sg76
Vhttps://pbs.twimg.com/profile_banners/1743685044/1415919781
p494
sg78
I00
sg79
I01
sg80
V696A6B
p495
sg82
I00
sg83
I00
sg84
Vhttp://pbs.twimg.com/profile_background_images/378800000182249849/XjuYiHk5.png
p496
sg86
Vtheapothecaries
p497
sg88
I3
sg89
VThe Apothecaries
p498
sg91
VDDEEF6
p499
sg93
Vhttp://t.co/kaGIongmfQ
p500
sg95
I1743685044
sg96
VFFFFFF
p501
sbsg98
I0
sg99
V<a href="http://www.oktopost.com" rel="nofollow">Oktopost</a>
p502
sg101
(lp503
g3
(g103
g5
Ntp504
Rp505
(dp506
g107
Vhttp://t.co/Uj4fBz5IG9
p507
sg109
Vhttp://okt.to/xC2i09
p508
sbasg95
I543749948148580352
sbag3
(g4
g5
Ntp509
Rp510
(dp511
g9
I0
sg10
Nsg11
Nsg12
(lp512
g3
(g14
g5
Ntp513
Rp514
(dp515
g18
Vcompetition
p516
sbasg24
I00
sg25
Nsg26
Nsg27
(lp517
(dp518
Vexpanded_url
p519
Vhttp://twitter.com/theapothecaries/status/543724311110877184/photo/1
p520
sVdisplay_url
p521
Vpic.twitter.com/Yq5sDdJsDR
p522
sVurl
p523
Vhttp://t.co/Yq5sDdJsDR
p524
sVmedia_url_https
p525
Vhttps://pbs.twimg.com/media/B4uyYUwCIAA4dot.png
p526
sVid_str
p527
V543724310985056256
p528
sVsizes
p529
(dp530
Vlarge
p531
(dp532
Vh
p533
I253
sVresize
p534
Vfit
p535
sVw
p536
I506
ssVsmall
p537
(dp538
Vh
p539
I170
sVresize
p540
Vfit
p541
sVw
p542
I340
ssVmedium
p543
(dp544
Vh
p545
I253
sVresize
p546
Vfit
p547
sVw
p548
I506
ssVthumb
p549
(dp550
Vh
p551
I150
sVresize
p552
Vcrop
p553
sVw
p554
I150
sssVindices
p555
(lp556
I115
aI137
asVtype
p557
Vphoto
p558
sVid
p559
I543724310985056256
sVmedia_url
p560
Vhttp://pbs.twimg.com/media/B4uyYUwCIAA4dot.png
p561
sasg29
Nsg30
Nsg31
Nsg32
VSat Dec 13 11:09:12 +0000 2014
p562
sg34
Nsg35
I00
sg36
Nsg37
Nsg38
Nsg39
Nsg40
I00
sg41
Nsg42
(lp563
sg44
Nsg45
Nsg46
Nsg47
VHave you entered our Facebook #competition yet? Win an Exuviance Vespera Bionic Serum here: http://t.co/cmGx3c60fJ http://t.co/Yq5sDdJsDR
p564
sg49
I00
sg50
Ven
p565
sg52
g3
(g53
g5
Ntp566
Rp567
(dp568
g10
VUnited Kingdom
p569
sg58
V333333
p570
sg60
Ven
p571
sg62
Nsg63
I282
sg64
I816
sg32
VSat Sep 07 08:47:12 +0000 2013
p572
sg66
I00
sg67
VA luxury beauty online retailer specialising in worldwide cosmeceutical brands such as SkinCeuticals, NeoStrata, Revitalash & more! FREE UK DELIVERY
p573
sg69
Vhttps://pbs.twimg.com/profile_images/378800000762007636/ba04c06f7d1e637934aa9d4cb47f6fbe_normal.png
p574
sg71
I520
sg72
I374
sg73
Nsg74
Nsg75
I00
sg76
Vhttps://pbs.twimg.com/profile_banners/1743685044/1415919781
p575
sg78
I00
sg79
I01
sg80
V696A6B
p576
sg82
I00
sg83
I00
sg84
Vhttp://pbs.twimg.com/profile_background_images/378800000182249849/XjuYiHk5.png
p577
sg86
Vtheapothecaries
p578
sg88
I3
sg89
VThe Apothecaries
p579
sg91
VDDEEF6
p580
sg93
Vhttp://t.co/kaGIongmfQ
p581
sg95
I1743685044
sg96
VFFFFFF
p582
sbsg98
I0
sg99
V<a href="http://www.oktopost.com" rel="nofollow">Oktopost</a>
p583
sg101
(lp584
g3
(g103
g5
Ntp585
Rp586
(dp587
g107
Vhttp://t.co/cmGx3c60fJ
p588
sg109
Vhttp://okt.to/4491U0
p589
sbasg95
I543724311110877184
sbag3
(g4
g5
Ntp590
Rp591
(dp592
g9
I0
sg10
Nsg11
Nsg12
(lp593
g3
(g14
g5
Ntp594
Rp595
(dp596
g18
VBeautySleep
p597
sbag3
(g14
g5
Ntp598
Rp599
(dp600
g18
VPrematureAgeing
p601
sbasg24
I00
sg25
Nsg26
Nsg27
(lp602
(dp603
Vexpanded_url
p604
Vhttp://twitter.com/theapothecaries/status/543697355451936768/photo/1
p605
sVdisplay_url
p606
Vpic.twitter.com/iXJL05646R
p607
sVurl
p608
Vhttp://t.co/iXJL05646R
p609
sVmedia_url_https
p610
Vhttps://pbs.twimg.com/media/B4uZ3TJIAAAab5K.png
p611
sVid_str
p612
V543697355338678272
p613
sVsizes
p614
(dp615
Vlarge
p616
(dp617
Vh
p618
I253
sVresize
p619
Vfit
p620
sVw
p621
I506
ssVsmall
p622
(dp623
Vh
p624
I170
sVresize
p625
Vfit
p626
sVw
p627
I340
ssVmedium
p628
(dp629
Vh
p630
I253
sVresize
p631
Vfit
p632
sVw
p633
I506
ssVthumb
p634
(dp635
Vh
p636
I150
sVresize
p637
Vcrop
p638
sVw
p639
I150
sssVindices
p640
(lp641
I108
aI130
asVtype
p642
Vphoto
p643
sVid
p644
I543697355338678272
sVmedia_url
p645
Vhttp://pbs.twimg.com/media/B4uZ3TJIAAAab5K.png
p646
sasg29
Nsg30
Nsg31
Nsg32
VSat Dec 13 09:22:05 +0000 2014
p647
sg34
Nsg35
I00
sg36
Nsg37
Nsg38
Nsg39
Nsg40
I00
sg41
Nsg42
(lp648
sg44
Nsg45
Nsg46
Nsg47
VRead here to see how much #BeautySleep you need each night to avoid #PrematureAgeing http://t.co/8F3aKUepMI http://t.co/iXJL05646R
p649
sg49
I00
sg50
Ven
p650
sg52
g3
(g53
g5
Ntp651
Rp652
(dp653
g10
VUnited Kingdom
p654
sg58
V333333
p655
sg60
Ven
p656
sg62
Nsg63
I282
sg64
I816
sg32
VSat Sep 07 08:47:12 +0000 2013
p657
sg66
I00
sg67
VA luxury beauty online retailer specialising in worldwide cosmeceutical brands such as SkinCeuticals, NeoStrata, Revitalash & more! FREE UK DELIVERY
p658
sg69
Vhttps://pbs.twimg.com/profile_images/378800000762007636/ba04c06f7d1e637934aa9d4cb47f6fbe_normal.png
p659
sg71
I520
sg72
I374
sg73
Nsg74
Nsg75
I00
sg76
Vhttps://pbs.twimg.com/profile_banners/1743685044/1415919781
p660
sg78
I00
sg79
I01
sg80
V696A6B
p661
sg82
I00
sg83
I00
sg84
Vhttp://pbs.twimg.com/profile_background_images/378800000182249849/XjuYiHk5.png
p662
sg86
Vtheapothecaries
p663
sg88
I3
sg89
VThe Apothecaries
p664
sg91
VDDEEF6
p665
sg93
Vhttp://t.co/kaGIongmfQ
p666
sg95
I1743685044
sg96
VFFFFFF
p667
sbsg98
I0
sg99
V<a href="http://www.oktopost.com" rel="nofollow">Oktopost</a>
p668
sg101
(lp669
g3
(g103
g5
Ntp670
Rp671
(dp672
g107
Vhttp://t.co/8F3aKUepMI
p673
sg109
Vhttp://okt.to/xwe62H
p674
sbasg95
I543697355451936768
sbag3
(g4
g5
Ntp675
Rp676
(dp677
g9
I0
sg10
Nsg11
Nsg12
(lp678
g3
(g14
g5
Ntp679
Rp680
(dp681
g18
Vskin
p682
sbag3
(g14
g5
Ntp683
Rp684
(dp685
g18
Vageing
p686
sbasg24
I00
sg25
Nsg26
Nsg27
(lp687
sg29
Nsg30
Nsg31
Nsg32
VFri Dec 12 18:41:09 +0000 2014
p688
sg34
Nsg35
I00
sg36
Nsg37
Nsg38
Nsg39
Nsg40
I00
sg41
Nsg42
(lp689
sg44
Nsg45
Nsg46
Nsg47
VAs you get older your #skin may not be as smooth or tight as it once was - Learn how to prevent premature #ageing http://t.co/5Az8iXNdij
p690
sg49
I00
sg50
Ven
p691
sg52
g3
(g53
g5
Ntp692
Rp693
(dp694
g10
VUnited Kingdom
p695
sg58
V333333
p696
sg60
Ven
p697
sg62
Nsg63
I282
sg64
I816
sg32
VSat Sep 07 08:47:12 +0000 2013
p698
sg66
I00
sg67
VA luxury beauty online retailer specialising in worldwide cosmeceutical brands such as SkinCeuticals, NeoStrata, Revitalash & more! FREE UK DELIVERY
p699
sg69
Vhttps://pbs.twimg.com/profile_images/378800000762007636/ba04c06f7d1e637934aa9d4cb47f6fbe_normal.png
p700
sg71
I520
sg72
I374
sg73
Nsg74
Nsg75
I00
sg76
Vhttps://pbs.twimg.com/profile_banners/1743685044/1415919781
p701
sg78
I00
sg79
I01
sg80
V696A6B
p702
sg82
I00
sg83
I00
sg84
Vhttp://pbs.twimg.com/profile_background_images/378800000182249849/XjuYiHk5.png
p703
sg86
Vtheapothecaries
p704
sg88
I3
sg89
VThe Apothecaries
p705
sg91
VDDEEF6
p706
sg93
Vhttp://t.co/kaGIongmfQ
p707
sg95
I1743685044
sg96
VFFFFFF
p708
sbsg98
I1
sg99
V<a href="http://www.oktopost.com" rel="nofollow">Oktopost</a>
p709
sg101
(lp710
g3
(g103
g5
Ntp711
Rp712
(dp713
g107
Vhttp://t.co/5Az8iXNdij
p714
sg109
Vhttp://okt.to/3y20uc
p715
sbasg95
I543475662263431169
sbag3
(g4
g5
Ntp716
Rp717
(dp718
g9
I0
sg10
Nsg11
Nsg12
(lp719
g3
(g14
g5
Ntp720
Rp721
(dp722
g18
VFacebook
p723
sbag3
(g14
g5
Ntp724
Rp725
(dp726
g18
VWeekendGiveaway
p727
sbag3
(g14
g5
Ntp728
Rp729
(dp730
g18
Vwin
p731
sbag3
(g14
g5
Ntp732
Rp733
(dp734
g18
VExuviance
p735
sbag3
(g14
g5
Ntp736
Rp737
(dp738
g18
VCompetition
p739
sbasg24
I00
sg25
Nsg26
Nsg27
(lp740
sg29
Nsg30
Nsg31
Nsg32
VFri Dec 12 14:00:19 +0000 2014
p741
sg34
Nsg35
I00
sg36
Nsg37
Nsg38
Nsg39
Nsg40
I00
sg41
Nsg42
(lp742
sg44
Nsg45
Nsg46
Nsg47
VEnter our #Facebook #WeekendGiveaway for your chance to #win an #Exuviance Vespera Bionic Serum! #Competition http://t.co/fzG944Yx9g
p743
sg49
I00
sg50
Ven
p744
sg52
g3
(g53
g5
Ntp745
Rp746
(dp747
g10
VUnited Kingdom
p748
sg58
V333333
p749
sg60
Ven
p750
sg62
Nsg63
I282
sg64
I816
sg32
VSat Sep 07 08:47:12 +0000 2013
p751
sg66
I00
sg67
VA luxury beauty online retailer specialising in worldwide cosmeceutical brands such as SkinCeuticals, NeoStrata, Revitalash & more! FREE UK DELIVERY
p752
sg69
Vhttps://pbs.twimg.com/profile_images/378800000762007636/ba04c06f7d1e637934aa9d4cb47f6fbe_normal.png
p753
sg71
I520
sg72
I374
sg73
Nsg74
Nsg75
I00
sg76
Vhttps://pbs.twimg.com/profile_banners/1743685044/1415919781
p754
sg78
I00
sg79
I01
sg80
V696A6B
p755
sg82
I00
sg83
I00
sg84
Vhttp://pbs.twimg.com/profile_background_images/378800000182249849/XjuYiHk5.png
p756
sg86
Vtheapothecaries
p757
sg88
I3
sg89
VThe Apothecaries
p758
sg91
VDDEEF6
p759
sg93
Vhttp://t.co/kaGIongmfQ
p760
sg95
I1743685044
sg96
VFFFFFF
p761
sbsg98
I1
sg99
V<a href="http://www.oktopost.com" rel="nofollow">Oktopost</a>
p762
sg101
(lp763
g3
(g103
g5
Ntp764
Rp765
(dp766
g107
Vhttp://t.co/fzG944Yx9g
p767
sg109
Vhttp://okt.to/skmksh
p768
sbasg95
I543404985376337920
sbag3
(g4
g5
Ntp769
Rp770
(dp771
g9
I0
sg10
Nsg11
Nsg12
(lp772
g3
(g14
g5
Ntp773
Rp774
(dp775
g18
Vskin
p776
sbag3
(g14
g5
Ntp777
Rp778
(dp779
g18
Vwrinkled
p780
sbasg24
I00
sg25
Nsg26
Nsg27
(lp781
(dp782
Vexpanded_url
p783
Vhttp://twitter.com/theapothecaries/status/543374481633595392/photo/1
p784
sVdisplay_url
p785
Vpic.twitter.com/Tu6MrkR7Ib
p786
sVurl
p787
Vhttp://t.co/Tu6MrkR7Ib
p788
sVmedia_url_https
p789
Vhttps://pbs.twimg.com/media/B4p0NkjIcAAisbb.png
p790
sVid_str
p791
V543374481549717504
p792
sVsizes
p793
(dp794
Vlarge
p795
(dp796
Vh
p797
I253
sVresize
p798
Vfit
p799
sVw
p800
I506
ssVsmall
p801
(dp802
Vh
p803
I170
sVresize
p804
Vfit
p805
sVw
p806
I340
ssVmedium
p807
(dp808
Vh
p809
I253
sVresize
p810
Vfit
p811
sVw
p812
I506
ssVthumb
p813
(dp814
Vh
p815
I150
sVresize
p816
Vcrop
p817
sVw
p818
I150
sssVindices
p819
(lp820
I114
aI136
asVtype
p821
Vphoto
p822
sVid
p823
I543374481549717504
sVmedia_url
p824
Vhttp://pbs.twimg.com/media/B4p0NkjIcAAisbb.png
p825
sasg29
Nsg30
Nsg31
Nsg32
VFri Dec 12 11:59:06 +0000 2014
p826
sg34
Nsg35
I00
sg36
Nsg37
Nsg38
Nsg39
Nsg40
I00
sg41
Nsg42
(lp827
sg44
Nsg45
Nsg46
Nsg47
VDehydration makes your #skin look dry and #wrinkled - Discover how to avoid these concerns http://t.co/HUBWOibAuJ http://t.co/Tu6MrkR7Ib
p828
sg49
I00
sg50
Ven
p829
sg52
g3
(g53
g5
Ntp830
Rp831
(dp832
g10
VUnited Kingdom
p833
sg58
V333333
p834
sg60
Ven
p835
sg62
Nsg63
I282
sg64
I816
sg32
VSat Sep 07 08:47:12 +0000 2013
p836
sg66
I00
sg67
VA luxury beauty online retailer specialising in worldwide cosmeceutical brands such as SkinCeuticals, NeoStrata, Revitalash & more! FREE UK DELIVERY
p837
sg69
Vhttps://pbs.twimg.com/profile_images/378800000762007636/ba04c06f7d1e637934aa9d4cb47f6fbe_normal.png
p838
sg71
I520
sg72
I374
sg73
Nsg74
Nsg75
I00
sg76
Vhttps://pbs.twimg.com/profile_banners/1743685044/1415919781
p839
sg78
I00
sg79
I01
sg80
V696A6B
p840
sg82
I00
sg83
I00
sg84
Vhttp://pbs.twimg.com/profile_background_images/378800000182249849/XjuYiHk5.png
p841
sg86
Vtheapothecaries
p842
sg88
I3
sg89
VThe Apothecaries
p843
sg91
VDDEEF6
p844
sg93
Vhttp://t.co/kaGIongmfQ
p845
sg95
I1743685044
sg96
VFFFFFF
p846
sbsg98
I0
sg99
V<a href="http://www.oktopost.com" rel="nofollow">Oktopost</a>
p847
sg101
(lp848
g3
(g103
g5
Ntp849
Rp850
(dp851
g107
Vhttp://t.co/HUBWOibAuJ
p852
sg109
Vhttp://okt.to/s6zZ0R
p853
sbasg95
I543374481633595392
sbag3
(g4
g5
Ntp854
Rp855
(dp856
g9
I0
sg10
Nsg11
Nsg12
(lp857
g3
(g14
g5
Ntp858
Rp859
(dp860
g18
VBeauty
p861
sbag3
(g14
g5
Ntp862
Rp863
(dp864
g18
VLashes
p865
sbag3
(g14
g5
Ntp866
Rp867
(dp868
g18
VChristmas
p869
sbasg24
I00
sg25
Nsg26
Nsg27
(lp870
(dp871
Vexpanded_url
p872
Vhttp://twitter.com/theapothecaries/status/543348321579184128/photo/1
p873
sVdisplay_url
p874
Vpic.twitter.com/BOTInNxHFw
p875
sVurl
p876
Vhttp://t.co/BOTInNxHFw
p877
sVmedia_url_https
p878
Vhttps://pbs.twimg.com/media/B4pca2xIQAAZGh9.png
p879
sVid_str
p880
V543348321499496448
p881
sVsizes
p882
(dp883
Vlarge
p884
(dp885
Vh
p886
I253
sVresize
p887
Vfit
p888
sVw
p889
I506
ssVsmall
p890
(dp891
Vh
p892
I170
sVresize
p893
Vfit
p894
sVw
p895
I340
ssVmedium
p896
(dp897
Vh
p898
I253
sVresize
p899
Vfit
p900
sVw
p901
I506
ssVthumb
p902
(dp903
Vh
p904
I150
sVresize
p905
Vcrop
p906
sVw
p907
I150
sssVindices
p908
(lp909
I103
aI125
asVtype
p910
Vphoto
p911
sVid
p912
I543348321499496448
sVmedia_url
p913
Vhttp://pbs.twimg.com/media/B4pca2xIQAAZGh9.png
p914
sasg29
Nsg30
Nsg31
Nsg32
VFri Dec 12 10:15:09 +0000 2014
p915
sg34
Nsg35
I00
sg36
Nsg37
Nsg38
Nsg39
Nsg40
I00
sg41
Nsg42
(lp916
sg44
Nsg45
Nsg46
Nsg47
VWe hope this santa is coming down the chimney to us! #Beauty #Lashes #Christmas http://t.co/lJcWibRvQ8 http://t.co/BOTInNxHFw
p917
sg49
I00
sg50
Ven
p918
sg52
g3
(g53
g5
Ntp919
Rp920
(dp921
g10
VUnited Kingdom
p922
sg58
V333333
p923
sg60
Ven
p924
sg62
Nsg63
I282
sg64
I816
sg32
VSat Sep 07 08:47:12 +0000 2013
p925
sg66
I00
sg67
VA luxury beauty online retailer specialising in worldwide cosmeceutical brands such as SkinCeuticals, NeoStrata, Revitalash & more! FREE UK DELIVERY
p926
sg69
Vhttps://pbs.twimg.com/profile_images/378800000762007636/ba04c06f7d1e637934aa9d4cb47f6fbe_normal.png
p927
sg71
I520
sg72
I374
sg73
Nsg74
Nsg75
I00
sg76
Vhttps://pbs.twimg.com/profile_banners/1743685044/1415919781
p928
sg78
I00
sg79
I01
sg80
V696A6B
p929
sg82
I00
sg83
I00
sg84
Vhttp://pbs.twimg.com/profile_background_images/378800000182249849/XjuYiHk5.png
p930
sg86
Vtheapothecaries
p931
sg88
I3
sg89
VThe Apothecaries
p932
sg91
VDDEEF6
p933
sg93
Vhttp://t.co/kaGIongmfQ
p934
sg95
I1743685044
sg96
VFFFFFF
p935
sbsg98
I0
sg99
V<a href="http://www.oktopost.com" rel="nofollow">Oktopost</a>
p936
sg101
(lp937
g3
(g103
g5
Ntp938
Rp939
(dp940
g107
Vhttp://t.co/lJcWibRvQ8
p941
sg109
Vhttp://okt.to/WrZJs3
p942
sbasg95
I543348321579184128
sbag3
(g4
g5
Ntp943
Rp944
(dp945
g9
I0
sg10
Nsg11
Nsg12
(lp946
g3
(g14
g5
Ntp947
Rp948
(dp949
g18
VAntioxidants
p950
sbag3
(g14
g5
Ntp951
Rp952
(dp953
g18
Vwrinkles
p954
sbag3
(g14
g5
Ntp955
Rp956
(dp957
g18
Vantiageing
p958
sbasg24
I00
sg25
Nsg26
Nsg27
(lp959
sg29
Nsg30
Nsg31
Nsg32
VFri Dec 12 09:57:06 +0000 2014
p960
sg34
Nsg35
I00
sg36
Nsg37
Nsg38
Nsg39
Nsg40
I00
sg41
Nsg42
(lp961
sg44
Nsg45
Nsg46
Nsg47
VDiscover how you should be using #Antioxidants to fight premature ageing here #wrinkles #antiageing http://t.co/DZItXdtRmm
p962
sg49
I00
sg50
Ven
p963
sg52
g3
(g53
g5
Ntp964
Rp965
(dp966
g10
VUnited Kingdom
p967
sg58
V333333
p968
sg60
Ven
p969
sg62
Nsg63
I282
sg64
I816
sg32
VSat Sep 07 08:47:12 +0000 2013
p970
sg66
I00
sg67
VA luxury beauty online retailer specialising in worldwide cosmeceutical brands such as SkinCeuticals, NeoStrata, Revitalash & more! FREE UK DELIVERY
p971
sg69
Vhttps://pbs.twimg.com/profile_images/378800000762007636/ba04c06f7d1e637934aa9d4cb47f6fbe_normal.png
p972
sg71
I520
sg72
I374
sg73
Nsg74
Nsg75
I00
sg76
Vhttps://pbs.twimg.com/profile_banners/1743685044/1415919781
p973
sg78
I00
sg79
I01
sg80
V696A6B
p974
sg82
I00
sg83
I00
sg84
Vhttp://pbs.twimg.com/profile_background_images/378800000182249849/XjuYiHk5.png
p975
sg86
Vtheapothecaries
p976
sg88
I3
sg89
VThe Apothecaries
p977
sg91
VDDEEF6
p978
sg93
Vhttp://t.co/kaGIongmfQ
p979
sg95
I1743685044
sg96
VFFFFFF
p980
sbsg98
I0
sg99
V<a href="http://www.oktopost.com" rel="nofollow">Oktopost</a>
p981
sg101
(lp982
g3
(g103
g5
Ntp983
Rp984
(dp985
g107
Vhttp://t.co/DZItXdtRmm
p986
sg109
Vhttp://okt.to/bSMm80
p987
sbasg95
I543343777717714944
sbag3
(g4
g5
Ntp988
Rp989
(dp990
g9
I0
sg10
Nsg11
Nsg12
(lp991
g3
(g14
g5
Ntp992
Rp993
(dp994
g18
VBeautySleep
p995
sbag3
(g14
g5
Ntp996
Rp997
(dp998
g18
VAntiAgeing
p999
sbag3
(g14
g5
Ntp1000
Rp1001
(dp1002
g18
VSkincare
p1003
sbasg24
I00
sg25
Nsg26
Nsg27
(lp1004
(dp1005
Vexpanded_url
p1006
Vhttp://twitter.com/theapothecaries/status/543119297732960257/photo/1
p1007
sVdisplay_url
p1008
Vpic.twitter.com/VCgotgBdy2
p1009
sVurl
p1010
Vhttp://t.co/VCgotgBdy2
p1011
sVmedia_url_https
p1012
Vhttps://pbs.twimg.com/media/B4mMH6TIcAAa2gq.png
p1013
sVid_str
p1014
V543119297611329536
p1015
sVsizes
p1016
(dp1017
Vlarge
p1018
(dp1019
Vh
p1020
I253
sVresize
p1021
Vfit
p1022
sVw
p1023
I506
ssVsmall
p1024
(dp1025
Vh
p1026
I170
sVresize
p1027
Vfit
p1028
sVw
p1029
I340
ssVmedium
p1030
(dp1031
Vh
p1032
I253
sVresize
p1033
Vfit
p1034
sVw
p1035
I506
ssVthumb
p1036
(dp1037
Vh
p1038
I150
sVresize
p1039
Vcrop
p1040
sVw
p1041
I150
sssVindices
p1042
(lp1043
I117
aI139
asVtype
p1044
Vphoto
p1045
sVid
p1046
I543119297611329536
sVmedia_url
p1047
Vhttp://pbs.twimg.com/media/B4mMH6TIcAAa2gq.png
p1048
sasg29
Nsg30
Nsg31
Nsg32
VThu Dec 11 19:05:05 +0000 2014
p1049
sg34
Nsg35
I00
sg36
Nsg37
Nsg38
Nsg39
Nsg40
I00
sg41
Nsg42
(lp1050
sg44
Nsg45
Nsg46
Nsg47
VDo your skin a favour and get an early night! #BeautySleep #AntiAgeing #Skincare Find out why http://t.co/yPyxZfgZrg http://t.co/VCgotgBdy2
p1051
sg49
I00
sg50
Ven
p1052
sg52
g3
(g53
g5
Ntp1053
Rp1054
(dp1055
g10
VUnited Kingdom
p1056
sg58
V333333
p1057
sg60
Ven
p1058
sg62
Nsg63
I282
sg64
I816
sg32
VSat Sep 07 08:47:12 +0000 2013
p1059
sg66
I00
sg67
VA luxury beauty online retailer specialising in worldwide cosmeceutical brands such as SkinCeuticals, NeoStrata, Revitalash & more! FREE UK DELIVERY
p1060
sg69
Vhttps://pbs.twimg.com/profile_images/378800000762007636/ba04c06f7d1e637934aa9d4cb47f6fbe_normal.png
p1061
sg71
I520
sg72
I374
sg73
Nsg74
Nsg75
I00
sg76
Vhttps://pbs.twimg.com/profile_banners/1743685044/1415919781
p1062
sg78
I00
sg79
I01
sg80
V696A6B
p1063
sg82
I00
sg83
I00
sg84
Vhttp://pbs.twimg.com/profile_background_images/378800000182249849/XjuYiHk5.png
p1064
sg86
Vtheapothecaries
p1065
sg88
I3
sg89
VThe Apothecaries
p1066
sg91
VDDEEF6
p1067
sg93
Vhttp://t.co/kaGIongmfQ
p1068
sg95
I1743685044
sg96
VFFFFFF
p1069
sbsg98
I0
sg99
V<a href="http://www.oktopost.com" rel="nofollow">Oktopost</a>
p1070
sg101
(lp1071
g3
(g103
g5
Ntp1072
Rp1073
(dp1074
g107
Vhttp://t.co/yPyxZfgZrg
p1075
sg109
Vhttp://okt.to/hu8QzK
p1076
sbasg95
I543119297732960257
sbag3
(g4
g5
Ntp1077
Rp1078
(dp1079
g9
I0
sg10
Nsg11
Nsg12
(lp1080
sg24
I00
sg25
Nsg26
Nsg27
(lp1081
sg29
Nsg30
Nsg31
Nsg32
VThu Dec 11 11:20:09 +0000 2014
p1082
sg34
Nsg35
I00
sg36
Nsg37
Nsg38
Nsg39
Nsg40
I00
sg41
Nsg42
(lp1083
sg44
Nsg45
Nsg46
Nsg47
VWant to avoid the visible signs of ageing? Keep your skin looking young with these simple steps http://t.co/7BHMlVzEGd
p1084
sg49
I00
sg50
Ven
p1085
sg52
g3
(g53
g5
Ntp1086
Rp1087
(dp1088
g10
VUnited Kingdom
p1089
sg58
V333333
p1090
sg60
Ven
p1091
sg62
Nsg63
I282
sg64
I816
sg32
VSat Sep 07 08:47:12 +0000 2013
p1092
sg66
I00
sg67
VA luxury beauty online retailer specialising in worldwide cosmeceutical brands such as SkinCeuticals, NeoStrata, Revitalash & more! FREE UK DELIVERY
p1093
sg69
Vhttps://pbs.twimg.com/profile_images/378800000762007636/ba04c06f7d1e637934aa9d4cb47f6fbe_normal.png
p1094
sg71
I520
sg72
I374
sg73
Nsg74
Nsg75
I00
sg76
Vhttps://pbs.twimg.com/profile_banners/1743685044/1415919781
p1095
sg78
I00
sg79
I01
sg80
V696A6B
p1096
sg82
I00
sg83
I00
sg84
Vhttp://pbs.twimg.com/profile_background_images/378800000182249849/XjuYiHk5.png
p1097
sg86
Vtheapothecaries
p1098
sg88
I3
sg89
VThe Apothecaries
p1099
sg91
VDDEEF6
p1100
sg93
Vhttp://t.co/kaGIongmfQ
p1101
sg95
I1743685044
sg96
VFFFFFF
p1102
sbsg98
I0
sg99
V<a href="http://www.oktopost.com" rel="nofollow">Oktopost</a>
p1103
sg101
(lp1104
g3
(g103
g5
Ntp1105
Rp1106
(dp1107
g107
Vhttp://t.co/7BHMlVzEGd
p1108
sg109
Vhttp://okt.to/s21B3Y
p1109
sbasg95
I543002292153491456
sbag3
(g4
g5
Ntp1110
Rp1111
(dp1112
g9
I0
sg10
Nsg11
Nsg12
(lp1113
g3
(g14
g5
Ntp1114
Rp1115
(dp1116
g18
VNeoStrata
p1117
sbasg24
I00
sg25
Nsg26
Nsg27
(lp1118
sg29
Nsg30
Nsg31
Nsg32
VWed Dec 10 18:38:11 +0000 2014
p1119
sg34
Nsg35
I00
sg36
Nsg37
Nsg38
Nsg39
Nsg40
I00
sg41
Nsg42
(lp1120
sg44
Nsg45
Nsg46
Nsg47
VEnjoy 10% off ALL #NeoStrata orders. Add code NEO10 to shopping bag before you check out! http://t.co/EVapU0VraH
p1121
sg49
I00
sg50
Ven
p1122
sg52
g3
(g53
g5
Ntp1123
Rp1124
(dp1125
g10
VUnited Kingdom
p1126
sg58
V333333
p1127
sg60
Ven
p1128
sg62
Nsg63
I282
sg64
I816
sg32
VSat Sep 07 08:47:12 +0000 2013
p1129
sg66
I00
sg67
VA luxury beauty online retailer specialising in worldwide cosmeceutical brands such as SkinCeuticals, NeoStrata, Revitalash & more! FREE UK DELIVERY
p1130
sg69
Vhttps://pbs.twimg.com/profile_images/378800000762007636/ba04c06f7d1e637934aa9d4cb47f6fbe_normal.png
p1131
sg71
I520
sg72
I374
sg73
Nsg74
Nsg75
I00
sg76
Vhttps://pbs.twimg.com/profile_banners/1743685044/1415919781
p1132
sg78
I00
sg79
I01
sg80
V696A6B
p1133
sg82
I00
sg83
I00
sg84
Vhttp://pbs.twimg.com/profile_background_images/378800000182249849/XjuYiHk5.png
p1134
sg86
Vtheapothecaries
p1135
sg88
I3
sg89
VThe Apothecaries
p1136
sg91
VDDEEF6
p1137
sg93
Vhttp://t.co/kaGIongmfQ
p1138
sg95
I1743685044
sg96
VFFFFFF
p1139
sbsg98
I0
sg99
V<a href="http://www.oktopost.com" rel="nofollow">Oktopost</a>
p1140
sg101
(lp1141
g3
(g103
g5
Ntp1142
Rp1143
(dp1144
g107
Vhttp://t.co/EVapU0VraH
p1145
sg109
Vhttp://okt.to/KcC9ol
p1146
sbasg95
I542750137228222464
sbag3
(g4
g5
Ntp1147
Rp1148
(dp1149
g9
I0
sg10
Nsg11
Nsg12
(lp1150
g3
(g14
g5
Ntp1151
Rp1152
(dp1153
g18
Vskin
p1154
sbag3
(g14
g5
Ntp1155
Rp1156
(dp1157
g18
VAntiAgeing
p1158
sbag3
(g14
g5
Ntp1159
Rp1160
(dp1161
g18
VMoisturise
p1162
sbasg24
I00
sg25
Nsg26
Nsg27
(lp1163
sg29
Nsg30
Nsg31
Nsg32
VWed Dec 10 16:26:08 +0000 2014
p1164
sg34
Nsg35
I00
sg36
Nsg37
Nsg38
Nsg39
Nsg40
I00
sg41
Nsg42
(lp1165
sg44
Nsg45
Nsg46
Nsg47
VDoes your #skin look dull and dry? Click here to find out how you can change this  #AntiAgeing #Moisturise http://t.co/E1nlc0oapF
p1166
sg49
I00
sg50
Ven
p1167
sg52
g3
(g53
g5
Ntp1168
Rp1169
(dp1170
g10
VUnited Kingdom
p1171
sg58
V333333
p1172
sg60
Ven
p1173
sg62
Nsg63
I282
sg64
I816
sg32
VSat Sep 07 08:47:12 +0000 2013
p1174
sg66
I00
sg67
VA luxury beauty online retailer specialising in worldwide cosmeceutical brands such as SkinCeuticals, NeoStrata, Revitalash & more! FREE UK DELIVERY
p1175
sg69
Vhttps://pbs.twimg.com/profile_images/378800000762007636/ba04c06f7d1e637934aa9d4cb47f6fbe_normal.png
p1176
sg71
I520
sg72
I374
sg73
Nsg74
Nsg75
I00
sg76
Vhttps://pbs.twimg.com/profile_banners/1743685044/1415919781
p1177
sg78
I00
sg79
I01
sg80
V696A6B
p1178
sg82
I00
sg83
I00
sg84
Vhttp://pbs.twimg.com/profile_background_images/378800000182249849/XjuYiHk5.png
p1179
sg86
Vtheapothecaries
p1180
sg88
I3
sg89
VThe Apothecaries
p1181
sg91
VDDEEF6
p1182
sg93
Vhttp://t.co/kaGIongmfQ
p1183
sg95
I1743685044
sg96
VFFFFFF
p1184
sbsg98
I0
sg99
V<a href="http://www.oktopost.com" rel="nofollow">Oktopost</a>
p1185
sg101
(lp1186
g3
(g103
g5
Ntp1187
Rp1188
(dp1189
g107
Vhttp://t.co/E1nlc0oapF
p1190
sg109
Vhttp://okt.to/bCb0gB
p1191
sbasg95
I542716908832030720
sbag3
(g4
g5
Ntp1192
Rp1193
(dp1194
g9
I0
sg10
Nsg11
Nsg12
(lp1195
g3
(g14
g5
Ntp1196
Rp1197
(dp1198
g18
Vageing
p1199
sbag3
(g14
g5
Ntp1200
Rp1201
(dp1202
g18
Vskincare
p1203
sbasg24
I00
sg25
Nsg26
Nsg27
(lp1204
sg29
Nsg30
Nsg31
Nsg32
VWed Dec 10 12:52:16 +0000 2014
p1205
sg34
Nsg35
I00
sg36
Nsg37
Nsg38
Nsg39
Nsg40
I00
sg41
Nsg42
(lp1206
sg44
Nsg45
Nsg46
Nsg47
VWhether you are 20 something or 50 something, avoiding the #ageing process is something we all want to do! #skincare http://t.co/4wJRqiZ8e8
p1207
sg49
I00
sg50
Ven
p1208
sg52
g3
(g53
g5
Ntp1209
Rp1210
(dp1211
g10
VUnited Kingdom
p1212
sg58
V333333
p1213
sg60
Ven
p1214
sg62
Nsg63
I282
sg64
I816
sg32
VSat Sep 07 08:47:12 +0000 2013
p1215
sg66
I00
sg67
VA luxury beauty online retailer specialising in worldwide cosmeceutical brands such as SkinCeuticals, NeoStrata, Revitalash & more! FREE UK DELIVERY
p1216
sg69
Vhttps://pbs.twimg.com/profile_images/378800000762007636/ba04c06f7d1e637934aa9d4cb47f6fbe_normal.png
p1217
sg71
I520
sg72
I374
sg73
Nsg74
Nsg75
I00
sg76
Vhttps://pbs.twimg.com/profile_banners/1743685044/1415919781
p1218
sg78
I00
sg79
I01
sg80
V696A6B
p1219
sg82
I00
sg83
I00
sg84
Vhttp://pbs.twimg.com/profile_background_images/378800000182249849/XjuYiHk5.png
p1220
sg86
Vtheapothecaries
p1221
sg88
I3
sg89
VThe Apothecaries
p1222
sg91
VDDEEF6
p1223
sg93
Vhttp://t.co/kaGIongmfQ
p1224
sg95
I1743685044
sg96
VFFFFFF
p1225
sbsg98
I0
sg99
V<a href="http://www.oktopost.com" rel="nofollow">Oktopost</a>
p1226
sg101
(lp1227
g3
(g103
g5
Ntp1228
Rp1229
(dp1230
g107
Vhttp://t.co/4wJRqiZ8e8
p1231
sg109
Vhttp://okt.to/Ht4059
p1232
sbasg95
I542663083957977088
sbag3
(g4
g5
Ntp1233
Rp1234
(dp1235
g9
I0
sg10
Nsg11
Nsg12
(lp1236
g3
(g14
g5
Ntp1237
Rp1238
(dp1239
g18
VHydration
p1240
sbag3
(g14
g5
Ntp1241
Rp1242
(dp1243
g18
VSkincare
p1244
sbag3
(g14
g5
Ntp1245
Rp1246
(dp1247
g18
VAntiAgeing
p1248
sbasg24
I00
sg25
Nsg26
Nsg27
(lp1249
(dp1250
Vexpanded_url
p1251
Vhttp://twitter.com/theapothecaries/status/542590562051031041/photo/1
p1252
sVdisplay_url
p1253
Vpic.twitter.com/zOVztvuDsd
p1254
sVurl
p1255
Vhttp://t.co/zOVztvuDsd
p1256
sVmedia_url_https
p1257
Vhttps://pbs.twimg.com/media/B4erPcfIIAAmJDX.png
p1258
sVid_str
p1259
V542590561954570240
p1260
sVsizes
p1261
(dp1262
Vlarge
p1263
(dp1264
Vh
p1265
I253
sVresize
p1266
Vfit
p1267
sVw
p1268
I506
ssVsmall
p1269
(dp1270
Vh
p1271
I170
sVresize
p1272
Vfit
p1273
sVw
p1274
I340
ssVmedium
p1275
(dp1276
Vh
p1277
I253
sVresize
p1278
Vfit
p1279
sVw
p1280
I506
ssVthumb
p1281
(dp1282
Vh
p1283
I150
sVresize
p1284
Vcrop
p1285
sVw
p1286
I150
sssVindices
p1287
(lp1288
I91
aI113
asVtype
p1289
Vphoto
p1290
sVid
p1291
I542590561954570240
sVmedia_url
p1292
Vhttp://pbs.twimg.com/media/B4erPcfIIAAmJDX.png
p1293
sasg29
Nsg30
Nsg31
Nsg32
VWed Dec 10 08:04:05 +0000 2014
p1294
sg34
Nsg35
I00
sg36
Nsg37
Nsg38
Nsg39
Nsg40
I00
sg41
Nsg42
(lp1295
sg44
Nsg45
Nsg46
Nsg47
VHow much water do you drink a day? #Hydration #Skincare #AntiAgeing http://t.co/rDIXSQEnZL http://t.co/zOVztvuDsd
p1296
sg49
I00
sg50
Ven
p1297
sg52
g3
(g53
g5
Ntp1298
Rp1299
(dp1300
g10
VUnited Kingdom
p1301
sg58
V333333
p1302
sg60
Ven
p1303
sg62
Nsg63
I282
sg64
I816
sg32
VSat Sep 07 08:47:12 +0000 2013
p1304
sg66
I00
sg67
VA luxury beauty online retailer specialising in worldwide cosmeceutical brands such as SkinCeuticals, NeoStrata, Revitalash & more! FREE UK DELIVERY
p1305
sg69
Vhttps://pbs.twimg.com/profile_images/378800000762007636/ba04c06f7d1e637934aa9d4cb47f6fbe_normal.png
p1306
sg71
I520
sg72
I374
sg73
Nsg74
Nsg75
I00
sg76
Vhttps://pbs.twimg.com/profile_banners/1743685044/1415919781
p1307
sg78
I00
sg79
I01
sg80
V696A6B
p1308
sg82
I00
sg83
I00
sg84
Vhttp://pbs.twimg.com/profile_background_images/378800000182249849/XjuYiHk5.png
p1309
sg86
Vtheapothecaries
p1310
sg88
I3
sg89
VThe Apothecaries
p1311
sg91
VDDEEF6
p1312
sg93
Vhttp://t.co/kaGIongmfQ
p1313
sg95
I1743685044
sg96
VFFFFFF
p1314
sbsg98
I2
sg99
V<a href="http://www.oktopost.com" rel="nofollow">Oktopost</a>
p1315
sg101
(lp1316
g3
(g103
g5
Ntp1317
Rp1318
(dp1319
g107
Vhttp://t.co/rDIXSQEnZL
p1320
sg109
Vhttp://okt.to/4663WM
p1321
sbasg95
I542590562051031041
sbaa.