(lp0
S'pennywisemama'
p1
a(lp2
ccopy_reg
_reconstructor
p3
(ctwitter
Status
p4
c__builtin__
object
p5
Ntp6
Rp7
(dp8
S'_favorite_count'
p9
I0
sS'_location'
p10
NsS'_withheld_scope'
p11
NsS'hashtags'
p12
(lp13
g3
(ctwitter
Hashtag
p14
g5
Ntp15
Rp16
(dp17
S'text'
p18
VTollHouseTime
p19
sbag3
(g14
g5
Ntp20
Rp21
(dp22
g18
Vsp
p23
sbasS'_truncated'
p24
I00
sS'_retweeted_status'
p25
NsS'_withheld_copyright'
p26
NsS'media'
p27
(lp28
sS'_place'
p29
NsS'_contributors'
p30
NsS'_current_user_retweet'
p31
NsS'_created_at'
p32
VSat Dec 13 19:49:07 +0000 2014
p33
sS'_scopes'
p34
NsS'_possibly_sensitive'
p35
I00
sS'_in_reply_to_screen_name'
p36
NsS'_coordinates'
p37
NsS'_in_reply_to_user_id'
p38
NsS'_geo'
p39
NsS'_favorited'
p40
I00
sS'_withheld_in_countries'
p41
NsS'user_mentions'
p42
(lp43
g3
(ctwitter
User
p44
g5
Ntp45
Rp46
(dp47
g10
NsS'_profile_text_color'
p48
NsS'_lang'
p49
NsS'_time_zone'
p50
NsS'_followers_count'
p51
NsS'_statuses_count'
p52
Nsg32
NsS'_verified'
p53
NsS'_description'
p54
NsS'_profile_image_url'
p55
NsS'_friends_count'
p56
NsS'_favourites_count'
p57
NsS'_utc_offset'
p58
NsS'_status'
p59
NsS'_protected'
p60
NsS'_profile_banner_url'
p61
NsS'_notifications'
p62
NsS'_profile_background_tile'
p63
NsS'_profile_link_color'
p64
NsS'_geo_enabled'
p65
NsS'_contributors_enabled'
p66
NsS'_profile_background_image_url'
p67
NsS'_screen_name'
p68
VNestleTollHouse
p69
sS'_listed_count'
p70
NsS'_name'
p71
VNestle Toll House
p72
sS'_profile_sidebar_fill_color'
p73
NsS'_url'
p74
NsS'_id'
p75
I386487041
sS'_profile_background_color'
p76
NsbasS'_now'
p77
NsS'_id_str'
p78
V543855153011372032
p79
sS'_in_reply_to_status_id'
p80
NsS'_text'
p81
VBaking cookies has never been easier with @NestleTollHouse Cookie Dough Sheets! http://t.co/Qf32qiEtmr #TollHouseTime #sp
p82
sS'_retweeted'
p83
I00
sS'lang'
p84
Ven
p85
sS'_user'
p86
g3
(g44
g5
Ntp87
Rp88
(dp89
g10
VCO
p90
sg48
V666666
p91
sg49
Ven
p92
sg50
VMountain Time (US & Canada)
p93
sg51
I10285
sg52
I4472
sg32
VThu Oct 07 04:18:57 +0000 2010
p94
sg53
I00
sg54
VMom of 3. Blogger. Brand Ambassador. Passionate about Family, Food, Fitness, & Frugal Living.
p95
sg55
Vhttps://pbs.twimg.com/profile_images/477328217913569282/PNG0uVxz_normal.png
p96
sg56
I5635
sg57
I58
sg58
I-25200
sg59
Nsg60
I00
sg61
Nsg62
I00
sg63
I00
sg64
V2FC2EF
p97
sg65
I00
sg66
I00
sg67
Vhttp://abs.twimg.com/images/themes/theme9/bg.gif
p98
sg68
Vpennywisemama
p99
sg70
I58
sg71
VMarisa
p100
sg73
V252429
p101
sg74
Vhttp://t.co/uswr5s7pL6
p102
sg75
I199551313
sg76
V1A1B1F
p103
sbsS'_retweet_count'
p104
I0
sS'_source'
p105
V<a href="http://twitter.com" rel="nofollow">Twitter Web Client</a>
p106
sS'urls'
p107
(lp108
g3
(ctwitter
Url
p109
g5
Ntp110
Rp111
(dp112
S'url'
p113
Vhttp://t.co/Qf32qiEtmr
p114
sS'expanded_url'
p115
Vhttp://ooh.li/5d71545
p116
sbasg75
I543855153011372032
sbag3
(g4
g5
Ntp117
Rp118
(dp119
g9
I0
sg10
Nsg11
Nsg12
(lp120
sg24
I00
sg25
g3
(g4
g5
Ntp121
Rp122
(dp123
g9
I1
sg10
Nsg11
Nsg12
(lp124
sg24
I00
sg25
Nsg26
Nsg27
(lp125
sg29
Nsg30
Nsg31
Nsg32
VWed Dec 10 16:42:31 +0000 2014
p126
sg34
Nsg35
I00
sg36
Nsg37
Nsg38
Nsg39
Nsg40
I00
sg41
Nsg42
(lp127
g3
(g44
g5
Ntp128
Rp129
(dp130
g10
Nsg48
Nsg49
Nsg50
Nsg51
Nsg52
Nsg32
Nsg53
Nsg54
Nsg55
Nsg56
Nsg57
Nsg58
Nsg59
Nsg60
Nsg61
Nsg62
Nsg63
Nsg64
Nsg65
Nsg66
Nsg67
Nsg68
Vpennywisemama
p131
sg70
Nsg71
VMarisa
p132
sg73
Nsg74
Nsg75
I199551313
sg76
Nsbasg77
Nsg78
V542721030658084864
p133
sg80
Nsg81
VAdorable Reindeer Cupcakes - The PennyWiseMama http://t.co/mYhLBYJTPm via @pennywisemama
p134
sg83
I00
sg84
Ven
p135
sg86
g3
(g44
g5
Ntp136
Rp137
(dp138
g10
VChatham, IL
p139
sg48
V333333
p140
sg49
Ven
p141
sg50
VCentral Time (US & Canada)
p142
sg51
I4042
sg52
I9268
sg32
VWed May 06 03:59:23 +0000 2009
p143
sg53
I00
sg54
VI'm Kasey - a wife, mom, daycare provider and blogger all wrapped up into one. I share my daily life, family, recipes, reviews on my blog, All Things Mamma!
p144
sg55
Vhttps://pbs.twimg.com/profile_images/378800000661587865/c68f4d6b87603f58dd52e5fc782c1c70_normal.jpeg
p145
sg56
I4065
sg57
I141
sg58
I-21600
sg59
Nsg60
I00
sg61
Vhttps://pbs.twimg.com/profile_banners/38108873/1409686433
p146
sg62
I00
sg63
I01
sg64
V4A6285
p147
sg65
I01
sg66
I00
sg67
Vhttp://pbs.twimg.com/profile_background_images/378800000167477347/6tH6XW2g.jpeg
p148
sg68
VAllThingsMamma
p149
sg70
I150
sg71
VKasey Schwartz
p150
sg73
VB2D6D1
p151
sg74
Vhttp://t.co/3bkCbBNJIo
p152
sg75
I38108873
sg76
VEFEFEF
p153
sbsg104
I1
sg105
V<a href="https://dev.twitter.com/docs/tfw" rel="nofollow">Twitter for Websites</a>
p154
sg107
(lp155
g3
(g109
g5
Ntp156
Rp157
(dp158
g113
Vhttp://t.co/mYhLBYJTPm
p159
sg115
Vhttp://thepennywisemama.com/2014/11/adorable-reindeer-cupcakes.html
p160
sbasg75
I542721030658084864
sbsg26
Nsg27
(lp161
sg29
Nsg30
Nsg31
Nsg32
VSat Dec 13 05:49:45 +0000 2014
p162
sg34
Nsg35
I00
sg36
Nsg37
Nsg38
Nsg39
Nsg40
I00
sg41
Nsg42
(lp163
g3
(g44
g5
Ntp164
Rp165
(dp166
g10
Nsg48
Nsg49
Nsg50
Nsg51
Nsg52
Nsg32
Nsg53
Nsg54
Nsg55
Nsg56
Nsg57
Nsg58
Nsg59
Nsg60
Nsg61
Nsg62
Nsg63
Nsg64
Nsg65
Nsg66
Nsg67
Nsg68
VAllThingsMamma
p167
sg70
Nsg71
VKasey Schwartz
p168
sg73
Nsg74
Nsg75
I38108873
sg76
Nsbag3
(g44
g5
Ntp169
Rp170
(dp171
g10
Nsg48
Nsg49
Nsg50
Nsg51
Nsg52
Nsg32
Nsg53
Nsg54
Nsg55
Nsg56
Nsg57
Nsg58
Nsg59
Nsg60
Nsg61
Nsg62
Nsg63
Nsg64
Nsg65
Nsg66
Nsg67
Nsg68
Vpennywisemama
p172
sg70
Nsg71
VMarisa
p173
sg73
Nsg74
Nsg75
I199551313
sg76
Nsbasg77
Nsg78
V543643917510397952
p174
sg80
Nsg81
VRT @AllThingsMamma: Adorable Reindeer Cupcakes - The PennyWiseMama http://t.co/mYhLBYJTPm via @pennywisemama
p175
sg83
I00
sg84
Ven
p176
sg86
g3
(g44
g5
Ntp177
Rp178
(dp179
g10
VCO
p180
sg48
V666666
p181
sg49
Ven
p182
sg50
VMountain Time (US & Canada)
p183
sg51
I10285
sg52
I4472
sg32
VThu Oct 07 04:18:57 +0000 2010
p184
sg53
I00
sg54
VMom of 3. Blogger. Brand Ambassador. Passionate about Family, Food, Fitness, & Frugal Living.
p185
sg55
Vhttps://pbs.twimg.com/profile_images/477328217913569282/PNG0uVxz_normal.png
p186
sg56
I5635
sg57
I58
sg58
I-25200
sg59
Nsg60
I00
sg61
Nsg62
I00
sg63
I00
sg64
V2FC2EF
p187
sg65
I00
sg66
I00
sg67
Vhttp://abs.twimg.com/images/themes/theme9/bg.gif
p188
sg68
Vpennywisemama
p189
sg70
I58
sg71
VMarisa
p190
sg73
V252429
p191
sg74
Vhttp://t.co/uswr5s7pL6
p192
sg75
I199551313
sg76
V1A1B1F
p193
sbsg104
I1
sg105
V<a href="http://twitter.com/download/iphone" rel="nofollow">Twitter for iPhone</a>
p194
sg107
(lp195
g3
(g109
g5
Ntp196
Rp197
(dp198
g113
Vhttp://t.co/mYhLBYJTPm
p199
sg115
Vhttp://thepennywisemama.com/2014/11/adorable-reindeer-cupcakes.html
p200
sbasg75
I543643917510397952
sbag3
(g4
g5
Ntp201
Rp202
(dp203
g9
I0
sg10
Nsg11
Nsg12
(lp204
g3
(g14
g5
Ntp205
Rp206
(dp207
g18
VCrushtheCups
p208
sbag3
(g14
g5
Ntp209
Rp210
(dp211
g18
Vwin
p212
sbag3
(g14
g5
Ntp213
Rp214
(dp215
g18
Vsp
p216
sbasg24
I00
sg25
g3
(g4
g5
Ntp217
Rp218
(dp219
g9
I0
sg10
Nsg11
Nsg12
(lp220
g3
(g14
g5
Ntp221
Rp222
(dp223
g18
VCrushtheCups
p224
sbag3
(g14
g5
Ntp225
Rp226
(dp227
g18
Vwin
p228
sbag3
(g14
g5
Ntp229
Rp230
(dp231
g18
Vsp
p232
sbasg24
I00
sg25
Nsg26
Nsg27
(lp233
sg29
Nsg30
Nsg31
Nsg32
VThu Dec 11 21:46:06 +0000 2014
p234
sg34
Nsg35
I00
sg36
Nsg37
Nsg38
Nsg39
Nsg40
I00
sg41
Nsg42
(lp235
g3
(g44
g5
Ntp236
Rp237
(dp238
g10
Nsg48
Nsg49
Nsg50
Nsg51
Nsg52
Nsg32
Nsg53
Nsg54
Nsg55
Nsg56
Nsg57
Nsg58
Nsg59
Nsg60
Nsg61
Nsg62
Nsg63
Nsg64
Nsg65
Nsg66
Nsg67
Nsg68
VCameronsCoffee
p239
sg70
Nsg71
VCameron's Coffee
p240
sg73
Nsg74
Nsg75
I240412108
sg76
Nsbasg77
Nsg78
V543159815552655360
p241
sg80
Nsg81
VCreate a creative #CrushtheCups video to #win a year of @CameronsCoffee for or a trip to Hawaii! http://t.co/V3tgCuutPH #sp
p242
sg83
I00
sg84
Ven
p243
sg86
g3
(g44
g5
Ntp244
Rp245
(dp246
g10
V
p247
sg48
V333333
p248
sg49
Ven
p249
sg50
Nsg51
I1240
sg52
I4881
sg32
VSat Nov 16 17:10:36 +0000 2013
p250
sg53
I00
sg54
VA blended family\u2019s adventures in homeschooling, sensory processing, natural living & personal experiences.
p251
sg55
Vhttps://pbs.twimg.com/profile_images/378800000764199405/8c0a41a8d0b068bd1cbb872b86530f81_normal.jpeg
p252
sg56
I1724
sg57
I973
sg58
Nsg59
Nsg60
I00
sg61
Nsg62
I00
sg63
I00
sg64
V0084B4
p253
sg65
I00
sg66
I00
sg67
Vhttp://abs.twimg.com/images/themes/theme1/bg.png
p254
sg68
Vlemonlimeadv
p255
sg70
I38
sg71
VDayna
p256
sg73
VDDEEF6
p257
sg74
Vhttp://t.co/fT2gBvrviR
p258
sg75
I2198081792
sg76
VC0DEED
p259
sbsg104
I20
sg105
V<a href="http://bufferapp.com" rel="nofollow">Buffer</a>
p260
sg107
(lp261
g3
(g109
g5
Ntp262
Rp263
(dp264
g113
Vhttp://t.co/V3tgCuutPH
p265
sg115
Vhttp://buff.ly/1yC1leF
p266
sbasg75
I543159815552655360
sbsg26
Nsg27
(lp267
sg29
Nsg30
Nsg31
Nsg32
VSat Dec 13 04:23:27 +0000 2014
p268
sg34
Nsg35
I00
sg36
Nsg37
Nsg38
Nsg39
Nsg40
I00
sg41
Nsg42
(lp269
g3
(g44
g5
Ntp270
Rp271
(dp272
g10
Nsg48
Nsg49
Nsg50
Nsg51
Nsg52
Nsg32
Nsg53
Nsg54
Nsg55
Nsg56
Nsg57
Nsg58
Nsg59
Nsg60
Nsg61
Nsg62
Nsg63
Nsg64
Nsg65
Nsg66
Nsg67
Nsg68
Vlemonlimeadv
p273
sg70
Nsg71
VDayna
p274
sg73
Nsg74
Nsg75
I2198081792
sg76
Nsbag3
(g44
g5
Ntp275
Rp276
(dp277
g10
Nsg48
Nsg49
Nsg50
Nsg51
Nsg52
Nsg32
Nsg53
Nsg54
Nsg55
Nsg56
Nsg57
Nsg58
Nsg59
Nsg60
Nsg61
Nsg62
Nsg63
Nsg64
Nsg65
Nsg66
Nsg67
Nsg68
VCameronsCoffee
p278
sg70
Nsg71
VCameron's Coffee
p279
sg73
Nsg74
Nsg75
I240412108
sg76
Nsbasg77
Nsg78
V543622201685995520
p280
sg80
Nsg81
VRT @lemonlimeadv: Create a creative #CrushtheCups video to #win a year of @CameronsCoffee for or a trip to Hawaii! http://t.co/V3tgCuutPH #\u2026
p281
sg83
I00
sg84
Ven
p282
sg86
g3
(g44
g5
Ntp283
Rp284
(dp285
g10
VCO
p286
sg48
V666666
p287
sg49
Ven
p288
sg50
VMountain Time (US & Canada)
p289
sg51
I10285
sg52
I4472
sg32
VThu Oct 07 04:18:57 +0000 2010
p290
sg53
I00
sg54
VMom of 3. Blogger. Brand Ambassador. Passionate about Family, Food, Fitness, & Frugal Living.
p291
sg55
Vhttps://pbs.twimg.com/profile_images/477328217913569282/PNG0uVxz_normal.png
p292
sg56
I5635
sg57
I58
sg58
I-25200
sg59
Nsg60
I00
sg61
Nsg62
I00
sg63
I00
sg64
V2FC2EF
p293
sg65
I00
sg66
I00
sg67
Vhttp://abs.twimg.com/images/themes/theme9/bg.gif
p294
sg68
Vpennywisemama
p295
sg70
I58
sg71
VMarisa
p296
sg73
V252429
p297
sg74
Vhttp://t.co/uswr5s7pL6
p298
sg75
I199551313
sg76
V1A1B1F
p299
sbsg104
I20
sg105
V<a href="https://mobile.twitter.com" rel="nofollow">Mobile Web (M5)</a>
p300
sg107
(lp301
g3
(g109
g5
Ntp302
Rp303
(dp304
g113
Vhttp://t.co/V3tgCuutPH
p305
sg115
Vhttp://buff.ly/1yC1leF
p306
sbasg75
I543622201685995520
sbag3
(g4
g5
Ntp307
Rp308
(dp309
g9
I0
sg10
Nsg11
Nsg12
(lp310
g3
(g14
g5
Ntp311
Rp312
(dp313
g18
Vjoy
p314
sbag3
(g14
g5
Ntp315
Rp316
(dp317
g18
VAd
p318
sbag3
(g14
g5
Ntp319
Rp320
(dp321
g18
Vgiveaway
p322
sbasg24
I00
sg25
g3
(g4
g5
Ntp323
Rp324
(dp325
g9
I0
sg10
Nsg11
Nsg12
(lp326
g3
(g14
g5
Ntp327
Rp328
(dp329
g18
Vjoy
p330
sbag3
(g14
g5
Ntp331
Rp332
(dp333
g18
VAd
p334
sbag3
(g14
g5
Ntp335
Rp336
(dp337
g18
Vgiveaway
p338
sbasg24
I00
sg25
Nsg26
Nsg27
(lp339
sg29
Nsg30
Nsg31
Nsg32
VThu Dec 11 21:53:44 +0000 2014
p340
sg34
Nsg35
I00
sg36
Nsg37
Nsg38
Nsg39
Nsg40
I00
sg41
Nsg42
(lp341
g3
(g44
g5
Ntp342
Rp343
(dp344
g10
Nsg48
Nsg49
Nsg50
Nsg51
Nsg52
Nsg32
Nsg53
Nsg54
Nsg55
Nsg56
Nsg57
Nsg58
Nsg59
Nsg60
Nsg61
Nsg62
Nsg63
Nsg64
Nsg65
Nsg66
Nsg67
Nsg68
VSOYJOYUS
p345
sg70
Nsg71
VSOYJOYUS
p346
sg73
Nsg74
Nsg75
I194587331
sg76
Nsbasg77
Nsg78
V543161737525329920
p347
sg80
Nsg81
VWhat brings you #joy? Tell me on the blog for your chance to win a @SOYJOYUS prize pack! #Ad http://t.co/PZuUHit3hd #giveaway
p348
sg83
I00
sg84
Ven
p349
sg86
g3
(g44
g5
Ntp350
Rp351
(dp352
g10
VCentral Florida
p353
sg48
V333333
p354
sg49
Ven
p355
sg50
VEastern Time (US & Canada)
p356
sg51
I31771
sg52
I41959
sg32
VThu Aug 13 03:20:16 +0000 2009
p357
sg53
I00
sg54
VMom #blogger, Crafter, Social Media Junkie, Party Planner, Deal Hunter, #PRFriendly, Mother of 2, #Disney Lover & Writer. Headed to #DisneySMMoms
p358
sg55
Vhttps://pbs.twimg.com/profile_images/3254820892/495689f7109c9714f2e12bbb06b3a8bf_normal.jpeg
p359
sg56
I19506
sg57
I53
sg58
I-18000
sg59
Nsg60
I00
sg61
Vhttps://pbs.twimg.com/profile_banners/65258793/1360898126
p360
sg62
I00
sg63
I00
sg64
VD9296F
p361
sg65
I01
sg66
I00
sg67
Vhttp://pbs.twimg.com/profile_background_images/538349206/Twitter_bground_copy.jpg
p362
sg68
VSuburbanMomClub
p363
sg70
I511
sg71
VJen 
p364
sg73
VDADEF5
p365
sg74
Vhttp://t.co/ShOhM2KljP
p366
sg75
I65258793
sg76
VCFE2F0
p367
sbsg104
I20
sg105
V<a href="http://twitter.com" rel="nofollow">Twitter Web Client</a>
p368
sg107
(lp369
g3
(g109
g5
Ntp370
Rp371
(dp372
g113
Vhttp://t.co/PZuUHit3hd
p373
sg115
Vhttp://www.thesuburbanmom.com/2014/12/11/find-joy
p374
sbasg75
I543161737525329920
sbsg26
Nsg27
(lp375
sg29
Nsg30
Nsg31
Nsg32
VSat Dec 13 04:23:15 +0000 2014
p376
sg34
Nsg35
I00
sg36
Nsg37
Nsg38
Nsg39
Nsg40
I00
sg41
Nsg42
(lp377
g3
(g44
g5
Ntp378
Rp379
(dp380
g10
Nsg48
Nsg49
Nsg50
Nsg51
Nsg52
Nsg32
Nsg53
Nsg54
Nsg55
Nsg56
Nsg57
Nsg58
Nsg59
Nsg60
Nsg61
Nsg62
Nsg63
Nsg64
Nsg65
Nsg66
Nsg67
Nsg68
VSuburbanMomClub
p381
sg70
Nsg71
VJen 
p382
sg73
Nsg74
Nsg75
I65258793
sg76
Nsbag3
(g44
g5
Ntp383
Rp384
(dp385
g10
Nsg48
Nsg49
Nsg50
Nsg51
Nsg52
Nsg32
Nsg53
Nsg54
Nsg55
Nsg56
Nsg57
Nsg58
Nsg59
Nsg60
Nsg61
Nsg62
Nsg63
Nsg64
Nsg65
Nsg66
Nsg67
Nsg68
VSOYJOYUS
p386
sg70
Nsg71
VSOYJOYUS
p387
sg73
Nsg74
Nsg75
I194587331
sg76
Nsbasg77
Nsg78
V543622152180617216
p388
sg80
Nsg81
VRT @SuburbanMomClub: What brings you #joy? Tell me on the blog for your chance to win a @SOYJOYUS prize pack! #Ad http://t.co/PZuUHit3hd #g\u2026
p389
sg83
I00
sg84
Ven
p390
sg86
g3
(g44
g5
Ntp391
Rp392
(dp393
g10
VCO
p394
sg48
V666666
p395
sg49
Ven
p396
sg50
VMountain Time (US & Canada)
p397
sg51
I10285
sg52
I4472
sg32
VThu Oct 07 04:18:57 +0000 2010
p398
sg53
I00
sg54
VMom of 3. Blogger. Brand Ambassador. Passionate about Family, Food, Fitness, & Frugal Living.
p399
sg55
Vhttps://pbs.twimg.com/profile_images/477328217913569282/PNG0uVxz_normal.png
p400
sg56
I5635
sg57
I58
sg58
I-25200
sg59
Nsg60
I00
sg61
Nsg62
I00
sg63
I00
sg64
V2FC2EF
p401
sg65
I00
sg66
I00
sg67
Vhttp://abs.twimg.com/images/themes/theme9/bg.gif
p402
sg68
Vpennywisemama
p403
sg70
I58
sg71
VMarisa
p404
sg73
V252429
p405
sg74
Vhttp://t.co/uswr5s7pL6
p406
sg75
I199551313
sg76
V1A1B1F
p407
sbsg104
I20
sg105
V<a href="https://mobile.twitter.com" rel="nofollow">Mobile Web (M5)</a>
p408
sg107
(lp409
g3
(g109
g5
Ntp410
Rp411
(dp412
g113
Vhttp://t.co/PZuUHit3hd
p413
sg115
Vhttp://www.thesuburbanmom.com/2014/12/11/find-joy
p414
sbasg75
I543622152180617216
sbag3
(g4
g5
Ntp415
Rp416
(dp417
g9
I0
sg10
Nsg11
Nsg12
(lp418
g3
(g14
g5
Ntp419
Rp420
(dp421
g18
Vringspiration
p422
sbasg24
I00
sg25
g3
(g4
g5
Ntp423
Rp424
(dp425
g9
I0
sg10
Nsg11
Nsg12
(lp426
g3
(g14
g5
Ntp427
Rp428
(dp429
g18
Vringspiration
p430
sbasg24
I00
sg25
Nsg26
Nsg27
(lp431
(dp432
Vexpanded_url
p433
Vhttp://twitter.com/MomSpotted/status/543156007514701824/photo/1
p434
sVdisplay_url
p435
Vpic.twitter.com/mYlRtSwr6q
p436
sVurl
p437
Vhttp://t.co/mYlRtSwr6q
p438
sVmedia_url_https
p439
Vhttps://pbs.twimg.com/media/B4mtgpoCYAAhRzY.png
p440
sVid_str
p441
V543156006516056064
p442
sVsizes
p443
(dp444
Vlarge
p445
(dp446
Vh
p447
I355
sVresize
p448
Vfit
p449
sVw
p450
I934
ssVsmall
p451
(dp452
Vh
p453
I129
sVresize
p454
Vfit
p455
sVw
p456
I340
ssVmedium
p457
(dp458
Vh
p459
I228
sVresize
p460
Vfit
p461
sVw
p462
I600
ssVthumb
p463
(dp464
Vh
p465
I150
sVresize
p466
Vcrop
p467
sVw
p468
I150
sssVindices
p469
(lp470
I93
aI115
asVtype
p471
Vphoto
p472
sVid
p473
I543156006516056064
sVmedia_url
p474
Vhttp://pbs.twimg.com/media/B4mtgpoCYAAhRzY.png
p475
sasg29
(dp476
Vfull_name
p477
VEasthampton, MA
p478
sVurl
p479
Vhttps://api.twitter.com/1.1/geo/id/6cfe9bd7210b0a2b.json
p480
sVcountry
p481
VUnited States
p482
sVplace_type
p483
Vcity
p484
sVbounding_box
p485
(dp486
Vtype
p487
VPolygon
p488
sVcoordinates
p489
(lp490
(lp491
(lp492
F-72.736613
aF42.223205
aa(lp493
F-72.614108
aF42.223205
aa(lp494
F-72.614108
aF42.291787
aa(lp495
F-72.736613
aF42.291787
aaassVcontained_within
p496
(lp497
sVcountry_code
p498
VUS
p499
sVattributes
p500
(dp501
sVid
p502
V6cfe9bd7210b0a2b
p503
sVname
p504
VEasthampton
p505
ssg30
Nsg31
Nsg32
VThu Dec 11 21:30:58 +0000 2014
p506
sg34
Nsg35
I00
sg36
Nsg37
Nsg38
Nsg39
Nsg40
I00
sg41
Nsg42
(lp507
g3
(g44
g5
Ntp508
Rp509
(dp510
g10
Nsg48
Nsg49
Nsg50
Nsg51
Nsg52
Nsg32
Nsg53
Nsg54
Nsg55
Nsg56
Nsg57
Nsg58
Nsg59
Nsg60
Nsg61
Nsg62
Nsg63
Nsg64
Nsg65
Nsg66
Nsg67
Nsg68
VJostens
p511
sg70
Nsg71
VJostens
p512
sg73
Nsg74
Nsg75
I18698751
sg76
Nsbasg77
Nsg78
V543156007514701824
p513
sg80
Nsg81
VFind the Perfect Class Ring for Your Child at @Jostens #ringspiration http://t.co/KXOOAPK3TA http://t.co/mYlRtSwr6q
p514
sg83
I00
sg84
Ven
p515
sg86
g3
(g44
g5
Ntp516
Rp517
(dp518
g10
VWestern MA
p519
sg48
V3E4415
p520
sg49
Ven
p521
sg50
VEastern Time (US & Canada)
p522
sg51
I13243
sg52
I26206
sg32
VSun Jan 25 23:46:06 +0000 2009
p523
sg53
I00
sg54
V33, married mom of 3 boys! I love travel, photography, & cooking! I am also on a fitness journey to get healthy! #westernma #blogger #ambassador #cook #mom
p524
sg55
Vhttps://pbs.twimg.com/profile_images/524463789291237376/opBcl2TU_normal.jpeg
p525
sg56
I2636
sg57
I89
sg58
I-18000
sg59
Nsg60
I00
sg61
Vhttps://pbs.twimg.com/profile_banners/19511300/1417837589
p526
sg62
I00
sg63
I01
sg64
VC94A6C
p527
sg65
I01
sg66
I00
sg67
Vhttp://pbs.twimg.com/profile_background_images/378800000060068931/429993313fd14404879b414a520bbd26.png
p528
sg68
VMomSpotted
p529
sg70
I279
sg71
VJennifer
p530
sg73
V99CC33
p531
sg74
Vhttp://t.co/7vlj3ZjZKV
p532
sg75
I19511300
sg76
V70396C
p533
sbsg104
I19
sg105
V<a href="http://twitter.com" rel="nofollow">Twitter Web Client</a>
p534
sg107
(lp535
g3
(g109
g5
Ntp536
Rp537
(dp538
g113
Vhttp://t.co/KXOOAPK3TA
p539
sg115
Vhttp://momspotted.com/2014/12/find-perfect-class-ring-child-jostens-ringspiration.html
p540
sbasg75
I543156007514701824
sbsg26
Nsg27
(lp541
(dp542
Vsource_user_id
p543
I19511300
sVsource_status_id_str
p544
V543156007514701824
p545
sVexpanded_url
p546
Vhttp://twitter.com/MomSpotted/status/543156007514701824/photo/1
p547
sVdisplay_url
p548
Vpic.twitter.com/mYlRtSwr6q
p549
sVurl
p550
Vhttp://t.co/mYlRtSwr6q
p551
sVmedia_url_https
p552
Vhttps://pbs.twimg.com/media/B4mtgpoCYAAhRzY.png
p553
sVsource_user_id_str
p554
V19511300
p555
sVsource_status_id
p556
I543156007514701824
sVid_str
p557
V543156006516056064
p558
sVsizes
p559
(dp560
Vlarge
p561
(dp562
Vh
p563
I355
sVresize
p564
Vfit
p565
sVw
p566
I934
ssVsmall
p567
(dp568
Vh
p569
I129
sVresize
p570
Vfit
p571
sVw
p572
I340
ssVmedium
p573
(dp574
Vh
p575
I228
sVresize
p576
Vfit
p577
sVw
p578
I600
ssVthumb
p579
(dp580
Vh
p581
I150
sVresize
p582
Vcrop
p583
sVw
p584
I150
sssVindices
p585
(lp586
I109
aI131
asVtype
p587
Vphoto
p588
sVid
p589
I543156006516056064
sVmedia_url
p590
Vhttp://pbs.twimg.com/media/B4mtgpoCYAAhRzY.png
p591
sasg29
Nsg30
Nsg31
Nsg32
VSat Dec 13 04:23:07 +0000 2014
p592
sg34
Nsg35
I00
sg36
Nsg37
Nsg38
Nsg39
Nsg40
I00
sg41
Nsg42
(lp593
g3
(g44
g5
Ntp594
Rp595
(dp596
g10
Nsg48
Nsg49
Nsg50
Nsg51
Nsg52
Nsg32
Nsg53
Nsg54
Nsg55
Nsg56
Nsg57
Nsg58
Nsg59
Nsg60
Nsg61
Nsg62
Nsg63
Nsg64
Nsg65
Nsg66
Nsg67
Nsg68
VMomSpotted
p597
sg70
Nsg71
VJennifer
p598
sg73
Nsg74
Nsg75
I19511300
sg76
Nsbag3
(g44
g5
Ntp599
Rp600
(dp601
g10
Nsg48
Nsg49
Nsg50
Nsg51
Nsg52
Nsg32
Nsg53
Nsg54
Nsg55
Nsg56
Nsg57
Nsg58
Nsg59
Nsg60
Nsg61
Nsg62
Nsg63
Nsg64
Nsg65
Nsg66
Nsg67
Nsg68
VJostens
p602
sg70
Nsg71
VJostens
p603
sg73
Nsg74
Nsg75
I18698751
sg76
Nsbasg77
Nsg78
V543622116126384129
p604
sg80
Nsg81
VRT @MomSpotted: Find the Perfect Class Ring for Your Child at @Jostens #ringspiration http://t.co/KXOOAPK3TA http://t.co/mYlRtSwr6q
p605
sg83
I00
sg84
Ven
p606
sg86
g3
(g44
g5
Ntp607
Rp608
(dp609
g10
VCO
p610
sg48
V666666
p611
sg49
Ven
p612
sg50
VMountain Time (US & Canada)
p613
sg51
I10285
sg52
I4472
sg32
VThu Oct 07 04:18:57 +0000 2010
p614
sg53
I00
sg54
VMom of 3. Blogger. Brand Ambassador. Passionate about Family, Food, Fitness, & Frugal Living.
p615
sg55
Vhttps://pbs.twimg.com/profile_images/477328217913569282/PNG0uVxz_normal.png
p616
sg56
I5635
sg57
I58
sg58
I-25200
sg59
Nsg60
I00
sg61
Nsg62
I00
sg63
I00
sg64
V2FC2EF
p617
sg65
I00
sg66
I00
sg67
Vhttp://abs.twimg.com/images/themes/theme9/bg.gif
p618
sg68
Vpennywisemama
p619
sg70
I58
sg71
VMarisa
p620
sg73
V252429
p621
sg74
Vhttp://t.co/uswr5s7pL6
p622
sg75
I199551313
sg76
V1A1B1F
p623
sbsg104
I19
sg105
V<a href="https://mobile.twitter.com" rel="nofollow">Mobile Web (M5)</a>
p624
sg107
(lp625
g3
(g109
g5
Ntp626
Rp627
(dp628
g113
Vhttp://t.co/KXOOAPK3TA
p629
sg115
Vhttp://momspotted.com/2014/12/find-perfect-class-ring-child-jostens-ringspiration.html
p630
sbasg75
I543622116126384129
sbag3
(g4
g5
Ntp631
Rp632
(dp633
g9
I0
sg10
Nsg11
Nsg12
(lp634
g3
(g14
g5
Ntp635
Rp636
(dp637
g18
Vgiveaway
p638
sbasg24
I00
sg25
g3
(g4
g5
Ntp639
Rp640
(dp641
g9
I1
sg10
Nsg11
Nsg12
(lp642
g3
(g14
g5
Ntp643
Rp644
(dp645
g18
Vgiveaway
p646
sbasg24
I00
sg25
Nsg26
Nsg27
(lp647
sg29
Nsg30
Nsg31
Nsg32
VThu Dec 11 20:50:50 +0000 2014
p648
sg34
Nsg35
I00
sg36
Nsg37
Nsg38
Nsg39
Nsg40
I00
sg41
Nsg42
(lp649
g3
(g44
g5
Ntp650
Rp651
(dp652
g10
Nsg48
Nsg49
Nsg50
Nsg51
Nsg52
Nsg32
Nsg53
Nsg54
Nsg55
Nsg56
Nsg57
Nsg58
Nsg59
Nsg60
Nsg61
Nsg62
Nsg63
Nsg64
Nsg65
Nsg66
Nsg67
Nsg68
VFandango
p653
sg70
Nsg71
VFandango
p654
sg73
Nsg74
Nsg75
I14983499
sg76
Nsbasg77
Nsg78
V543145909626757121
p655
sg80
Nsg81
VWhat movie would you like to see? I'm giving away a few @Fandango gift cards to a few lucky people. http://t.co/l5E4wUnfsI #giveaway
p656
sg83
I00
sg84
Ven
p657
sg86
g3
(g44
g5
Ntp658
Rp659
(dp660
g10
VMy Old Kentucky Home 
p661
sg48
V634047
p662
sg49
Ven
p663
sg50
VEastern Time (US & Canada)
p664
sg51
I2628
sg52
I4914
sg32
VTue Dec 11 18:32:00 +0000 2012
p665
sg53
I00
sg54
VI'm a southern mother who loves family, food, & fashion. Former news reporter, turned full-time writer. Johnson & Johnson Social Influencer for Social Good
p666
sg55
Vhttps://pbs.twimg.com/profile_images/481633650522353664/TGkU2_7B_normal.jpeg
p667
sg56
I2217
sg57
I1788
sg58
I-18000
sg59
Nsg60
I00
sg61
Vhttps://pbs.twimg.com/profile_banners/1004601186/1412086062
p668
sg62
I00
sg63
I00
sg64
V088253
p669
sg65
I01
sg66
I00
sg67
Vhttp://abs.twimg.com/images/themes/theme3/bg.gif
p670
sg68
Vasouthernmother
p671
sg70
I61
sg71
VJessica Urgelles
p672
sg73
VE3E2DE
p673
sg74
Vhttp://t.co/E0Vxv5DNal
p674
sg75
I1004601186
sg76
VEDECE9
p675
sbsg104
I19
sg105
V<a href="https://dev.twitter.com/docs/tfw" rel="nofollow">Twitter for Websites</a>
p676
sg107
(lp677
g3
(g109
g5
Ntp678
Rp679
(dp680
g113
Vhttp://t.co/l5E4wUnfsI
p681
sg115
Vhttp://asouthernmother.com/2014/12/fandango-gift-cards.html
p682
sbasg75
I543145909626757121
sbsg26
Nsg27
(lp683
sg29
Nsg30
Nsg31
Nsg32
VSat Dec 13 04:22:52 +0000 2014
p684
sg34
Nsg35
I00
sg36
Nsg37
Nsg38
Nsg39
Nsg40
I00
sg41
Nsg42
(lp685
g3
(g44
g5
Ntp686
Rp687
(dp688
g10
Nsg48
Nsg49
Nsg50
Nsg51
Nsg52
Nsg32
Nsg53
Nsg54
Nsg55
Nsg56
Nsg57
Nsg58
Nsg59
Nsg60
Nsg61
Nsg62
Nsg63
Nsg64
Nsg65
Nsg66
Nsg67
Nsg68
Vasouthernmother
p689
sg70
Nsg71
VJessica Urgelles
p690
sg73
Nsg74
Nsg75
I1004601186
sg76
Nsbag3
(g44
g5
Ntp691
Rp692
(dp693
g10
Nsg48
Nsg49
Nsg50
Nsg51
Nsg52
Nsg32
Nsg53
Nsg54
Nsg55
Nsg56
Nsg57
Nsg58
Nsg59
Nsg60
Nsg61
Nsg62
Nsg63
Nsg64
Nsg65
Nsg66
Nsg67
Nsg68
VFandango
p694
sg70
Nsg71
VFandango
p695
sg73
Nsg74
Nsg75
I14983499
sg76
Nsbasg77
Nsg78
V543622056567242752
p696
sg80
Nsg81
VRT @asouthernmother: What movie would you like to see? I'm giving away a few @Fandango gift cards to a few lucky people. http://t.co/l5E4wU\u2026
p697
sg83
I00
sg84
Ven
p698
sg86
g3
(g44
g5
Ntp699
Rp700
(dp701
g10
VCO
p702
sg48
V666666
p703
sg49
Ven
p704
sg50
VMountain Time (US & Canada)
p705
sg51
I10285
sg52
I4472
sg32
VThu Oct 07 04:18:57 +0000 2010
p706
sg53
I00
sg54
VMom of 3. Blogger. Brand Ambassador. Passionate about Family, Food, Fitness, & Frugal Living.
p707
sg55
Vhttps://pbs.twimg.com/profile_images/477328217913569282/PNG0uVxz_normal.png
p708
sg56
I5635
sg57
I58
sg58
I-25200
sg59
Nsg60
I00
sg61
Nsg62
I00
sg63
I00
sg64
V2FC2EF
p709
sg65
I00
sg66
I00
sg67
Vhttp://abs.twimg.com/images/themes/theme9/bg.gif
p710
sg68
Vpennywisemama
p711
sg70
I58
sg71
VMarisa
p712
sg73
V252429
p713
sg74
Vhttp://t.co/uswr5s7pL6
p714
sg75
I199551313
sg76
V1A1B1F
p715
sbsg104
I19
sg105
V<a href="https://mobile.twitter.com" rel="nofollow">Mobile Web (M5)</a>
p716
sg107
(lp717
g3
(g109
g5
Ntp718
Rp719
(dp720
g113
Vhttp://t.co/l5E4wUnfsI
p721
sg115
Vhttp://asouthernmother.com/2014/12/fandango-gift-cards.html
p722
sbasg75
I543622056567242752
sbag3
(g4
g5
Ntp723
Rp724
(dp725
g9
I0
sg10
Nsg11
Nsg12
(lp726
g3
(g14
g5
Ntp727
Rp728
(dp729
g18
Vcookiedoughsheets
p730
sbag3
(g14
g5
Ntp731
Rp732
(dp733
g18
VTollHouseTime
p734
sbag3
(g14
g5
Ntp735
Rp736
(dp737
g18
Vsp
p738
sbasg24
I00
sg25
g3
(g4
g5
Ntp739
Rp740
(dp741
g9
I1
sg10
Nsg11
Nsg12
(lp742
g3
(g14
g5
Ntp743
Rp744
(dp745
g18
Vcookiedoughsheets
p746
sbag3
(g14
g5
Ntp747
Rp748
(dp749
g18
VTollHouseTime
p750
sbag3
(g14
g5
Ntp751
Rp752
(dp753
g18
Vsp
p754
sbasg24
I00
sg25
Nsg26
Nsg27
(lp755
sg29
Nsg30
Nsg31
Nsg32
VThu Dec 11 19:01:09 +0000 2014
p756
sg34
Nsg35
I00
sg36
Nsg37
Nsg38
Nsg39
Nsg40
I00
sg41
Nsg42
(lp757
g3
(g44
g5
Ntp758
Rp759
(dp760
g10
Nsg48
Nsg49
Nsg50
Nsg51
Nsg52
Nsg32
Nsg53
Nsg54
Nsg55
Nsg56
Nsg57
Nsg58
Nsg59
Nsg60
Nsg61
Nsg62
Nsg63
Nsg64
Nsg65
Nsg66
Nsg67
Nsg68
VNestleTollHouse
p761
sg70
Nsg71
VNestle Toll House
p762
sg73
Nsg74
Nsg75
I386487041
sg76
Nsbasg77
Nsg78
V543118308044976128
p763
sg80
Nsg81
VCreate holiday inspired cookies with rolled and ready #cookiedoughsheets from @NestleTollHouse #TollHouseTime #sp http://t.co/HEBpN5DVoM
p764
sg83
I00
sg84
Ven
p765
sg86
g3
(g44
g5
Ntp766
Rp767
(dp768
g10
VBettendorf, IA
p769
sg48
V444444
p770
sg49
Ven
p771
sg50
VCentral Time (US & Canada)
p772
sg51
I8051
sg52
I20822
sg32
VMon Jan 12 02:35:44 +0000 2009
p773
sg53
I00
sg54
VSocial Media Moms, Brand Ambassadors & Freelance Social Media Campaign Coordinators. Publisher: Nicole, http://t.co/AVoURdXApG: PR-friendly story-based reviews.
p774
sg55
Vhttps://pbs.twimg.com/profile_images/420676230170411009/oP8-1HIH_normal.jpeg
p775
sg56
I7386
sg57
I644
sg58
I-21600
sg59
Nsg60
I00
sg61
Vhttps://pbs.twimg.com/profile_banners/18888465/1408670285
p776
sg62
I00
sg63
I00
sg64
VE1252E
p777
sg65
I01
sg66
I00
sg67
Vhttp://pbs.twimg.com/profile_background_images/378800000164361431/_veUrbyT.jpeg
p778
sg68
VSahmReviews
p779
sg70
I228
sg71
VSahmReviews.com
p780
sg73
VF9F5EA
p781
sg74
Vhttp://t.co/y7rkz5QRRz
p782
sg75
I18888465
sg76
V2B373F
p783
sbsg104
I20
sg105
V<a href="http://bufferapp.com" rel="nofollow">Buffer</a>
p784
sg107
(lp785
g3
(g109
g5
Ntp786
Rp787
(dp788
g113
Vhttp://t.co/HEBpN5DVoM
p789
sg115
Vhttp://buff.ly/1zbGQrS
p790
sbasg75
I543118308044976128
sbsg26
Nsg27
(lp791
sg29
Nsg30
Nsg31
Nsg32
VSat Dec 13 04:22:42 +0000 2014
p792
sg34
Nsg35
I00
sg36
Nsg37
Nsg38
Nsg39
Nsg40
I00
sg41
Nsg42
(lp793
g3
(g44
g5
Ntp794
Rp795
(dp796
g10
Nsg48
Nsg49
Nsg50
Nsg51
Nsg52
Nsg32
Nsg53
Nsg54
Nsg55
Nsg56
Nsg57
Nsg58
Nsg59
Nsg60
Nsg61
Nsg62
Nsg63
Nsg64
Nsg65
Nsg66
Nsg67
Nsg68
VSahmReviews
p797
sg70
Nsg71
VSahmReviews.com
p798
sg73
Nsg74
Nsg75
I18888465
sg76
Nsbag3
(g44
g5
Ntp799
Rp800
(dp801
g10
Nsg48
Nsg49
Nsg50
Nsg51
Nsg52
Nsg32
Nsg53
Nsg54
Nsg55
Nsg56
Nsg57
Nsg58
Nsg59
Nsg60
Nsg61
Nsg62
Nsg63
Nsg64
Nsg65
Nsg66
Nsg67
Nsg68
VNestleTollHouse
p802
sg70
Nsg71
VNestle Toll House
p803
sg73
Nsg74
Nsg75
I386487041
sg76
Nsbasg77
Nsg78
V543622012363472896
p804
sg80
Nsg81
VRT @SahmReviews: Create holiday inspired cookies with rolled and ready #cookiedoughsheets from @NestleTollHouse #TollHouseTime #sp http://t\u2026
p805
sg83
I00
sg84
Ven
p806
sg86
g3
(g44
g5
Ntp807
Rp808
(dp809
g10
VCO
p810
sg48
V666666
p811
sg49
Ven
p812
sg50
VMountain Time (US & Canada)
p813
sg51
I10285
sg52
I4472
sg32
VThu Oct 07 04:18:57 +0000 2010
p814
sg53
I00
sg54
VMom of 3. Blogger. Brand Ambassador. Passionate about Family, Food, Fitness, & Frugal Living.
p815
sg55
Vhttps://pbs.twimg.com/profile_images/477328217913569282/PNG0uVxz_normal.png
p816
sg56
I5635
sg57
I58
sg58
I-25200
sg59
Nsg60
I00
sg61
Nsg62
I00
sg63
I00
sg64
V2FC2EF
p817
sg65
I00
sg66
I00
sg67
Vhttp://abs.twimg.com/images/themes/theme9/bg.gif
p818
sg68
Vpennywisemama
p819
sg70
I58
sg71
VMarisa
p820
sg73
V252429
p821
sg74
Vhttp://t.co/uswr5s7pL6
p822
sg75
I199551313
sg76
V1A1B1F
p823
sbsg104
I20
sg105
V<a href="https://mobile.twitter.com" rel="nofollow">Mobile Web (M5)</a>
p824
sg107
(lp825
g3
(g109
g5
Ntp826
Rp827
(dp828
g113
Vhttp://t.co/HEBpN5DVoM
p829
sg115
Vhttp://buff.ly/1zbGQrS
p830
sbasg75
I543622012363472896
sbag3
(g4
g5
Ntp831
Rp832
(dp833
g9
I0
sg10
Nsg11
Nsg12
(lp834
g3
(g14
g5
Ntp835
Rp836
(dp837
g18
Vgift
p838
sbasg24
I00
sg25
g3
(g4
g5
Ntp839
Rp840
(dp841
g9
I0
sg10
Nsg11
Nsg12
(lp842
g3
(g14
g5
Ntp843
Rp844
(dp845
g18
Vgift
p846
sbasg24
I00
sg25
Nsg26
Nsg27
(lp847
sg29
Nsg30
Nsg31
Nsg32
VThu Dec 11 18:05:22 +0000 2014
p848
sg34
Nsg35
I00
sg36
Nsg37
Nsg38
Nsg39
Nsg40
I00
sg41
Nsg42
(lp849
sg77
Nsg78
V543104268119465984
p850
sg80
Nsg81
VCool Off with Ozeri 3x (44") Tower Fan with Passive Noise Reduction Technology - Review. Makes a great gift! http://t.co/WNRgyViRM1 #gift
p851
sg83
I00
sg84
Ven
p852
sg86
g3
(g44
g5
Ntp853
Rp854
(dp855
g10
VPA
p856
sg48
V4B2A7A
p857
sg49
Ven
p858
sg50
VEastern Time (US & Canada)
p859
sg51
I4398
sg52
I11816
sg32
VMon Apr 27 06:44:14 +0000 2009
p860
sg53
I00
sg54
VBlogger, reviewer, artist, handmade jewelry designer. http://t.co/06JdKgRy32
p861
sg55
Vhttps://pbs.twimg.com/profile_images/526197176154611713/qwJZpuAU_normal.jpeg
p862
sg56
I4167
sg57
I75
sg58
I-18000
sg59
Nsg60
I00
sg61
Vhttps://pbs.twimg.com/profile_banners/35690082/1412703614
p863
sg62
I00
sg63
I01
sg64
V621691
p864
sg65
I00
sg66
I00
sg67
Vhttp://pbs.twimg.com/profile_background_images/378800000167266084/AuFlP5Lg.jpeg
p865
sg68
VAutumnBlues
p866
sg70
I41
sg71
VAutumn Blues Reviews
p867
sg73
V767199
p868
sg74
Vhttps://t.co/pPFYxTc6Ym
p869
sg75
I35690082
sg76
V352726
p870
sbsg104
I18
sg105
V<a href="https://dev.twitter.com/docs/tfw" rel="nofollow">Twitter for Websites</a>
p871
sg107
(lp872
g3
(g109
g5
Ntp873
Rp874
(dp875
g113
Vhttp://t.co/WNRgyViRM1
p876
sg115
Vhttp://bit.ly/1wDv5wp
p877
sbasg75
I543104268119465984
sbsg26
Nsg27
(lp878
sg29
Nsg30
Nsg31
Nsg32
VSat Dec 13 04:22:33 +0000 2014
p879
sg34
Nsg35
I00
sg36
Nsg37
Nsg38
Nsg39
Nsg40
I00
sg41
Nsg42
(lp880
g3
(g44
g5
Ntp881
Rp882
(dp883
g10
Nsg48
Nsg49
Nsg50
Nsg51
Nsg52
Nsg32
Nsg53
Nsg54
Nsg55
Nsg56
Nsg57
Nsg58
Nsg59
Nsg60
Nsg61
Nsg62
Nsg63
Nsg64
Nsg65
Nsg66
Nsg67
Nsg68
VAutumnBlues
p884
sg70
Nsg71
VAutumn Blues Reviews
p885
sg73
Nsg74
Nsg75
I35690082
sg76
Nsbasg77
Nsg78
V543621976586067968
p886
sg80
Nsg81
VRT @AutumnBlues: Cool Off with Ozeri 3x (44") Tower Fan with Passive Noise Reduction Technology - Review. Makes a great gift! http://t.co/W\u2026
p887
sg83
I00
sg84
Ven
p888
sg86
g3
(g44
g5
Ntp889
Rp890
(dp891
g10
VCO
p892
sg48
V666666
p893
sg49
Ven
p894
sg50
VMountain Time (US & Canada)
p895
sg51
I10285
sg52
I4472
sg32
VThu Oct 07 04:18:57 +0000 2010
p896
sg53
I00
sg54
VMom of 3. Blogger. Brand Ambassador. Passionate about Family, Food, Fitness, & Frugal Living.
p897
sg55
Vhttps://pbs.twimg.com/profile_images/477328217913569282/PNG0uVxz_normal.png
p898
sg56
I5635
sg57
I58
sg58
I-25200
sg59
Nsg60
I00
sg61
Nsg62
I00
sg63
I00
sg64
V2FC2EF
p899
sg65
I00
sg66
I00
sg67
Vhttp://abs.twimg.com/images/themes/theme9/bg.gif
p900
sg68
Vpennywisemama
p901
sg70
I58
sg71
VMarisa
p902
sg73
V252429
p903
sg74
Vhttp://t.co/uswr5s7pL6
p904
sg75
I199551313
sg76
V1A1B1F
p905
sbsg104
I18
sg105
V<a href="https://mobile.twitter.com" rel="nofollow">Mobile Web (M5)</a>
p906
sg107
(lp907
g3
(g109
g5
Ntp908
Rp909
(dp910
g113
Vhttp://t.co/WNRgyViRM1
p911
sg115
Vhttp://bit.ly/1wDv5wp
p912
sbasg75
I543621976586067968
sbag3
(g4
g5
Ntp913
Rp914
(dp915
g9
I0
sg10
Nsg11
Nsg12
(lp916
sg24
I00
sg25
g3
(g4
g5
Ntp917
Rp918
(dp919
g9
I1
sg10
Nsg11
Nsg12
(lp920
sg24
I00
sg25
Nsg26
Nsg27
(lp921
sg29
Nsg30
Nsg31
Nsg32
VThu Dec 11 18:03:34 +0000 2014
p922
sg34
Nsg35
I00
sg36
Nsg37
Nsg38
Nsg39
Nsg40
I00
sg41
Nsg42
(lp923
g3
(g44
g5
Ntp924
Rp925
(dp926
g10
Nsg48
Nsg49
Nsg50
Nsg51
Nsg52
Nsg32
Nsg53
Nsg54
Nsg55
Nsg56
Nsg57
Nsg58
Nsg59
Nsg60
Nsg61
Nsg62
Nsg63
Nsg64
Nsg65
Nsg66
Nsg67
Nsg68
VCraftyourself
p927
sg70
Nsg71
VAvry Byington
p928
sg73
Nsg74
Nsg75
I76680547
sg76
Nsbasg77
Nsg78
V543103815960895488
p929
sg80
Nsg81
VVintage Christmas Week "Vintage Count Down Chalkboards" - http://t.co/BlfXtK6iku http://t.co/aiCbruHm2p via @craftyourself
p930
sg83
I00
sg84
Ven
p931
sg86
g3
(g44
g5
Ntp932
Rp933
(dp934
g10
VSyracuse UTah
p935
sg48
V000000
p936
sg49
Ven
p937
sg50
VMountain Time (US & Canada)
p938
sg51
I3229
sg52
I4921
sg32
VWed Sep 23 16:08:08 +0000 2009
p939
sg53
I00
sg54
VWife to Justin, Mom to 4 kiddos and creator of http://t.co/l9Clgx8730
p940
sg55
Vhttps://pbs.twimg.com/profile_images/529653880544452608/ajS2nzeP_normal.jpeg
p941
sg56
I1320
sg57
I882
sg58
I-25200
sg59
Nsg60
I00
sg61
Vhttps://pbs.twimg.com/profile_banners/76680547/1415114210
p942
sg62
I00
sg63
I00
sg64
VFA743E
p943
sg65
I01
sg66
I00
sg67
Vhttp://abs.twimg.com/images/themes/theme5/bg.gif
p944
sg68
VCraftyourself
p945
sg70
I10
sg71
VAvry Byington
p946
sg73
V000000
p947
sg74
Vhttp://t.co/4gpsXWTlEr
p948
sg75
I76680547
sg76
V000000
p949
sbsg104
I18
sg105
V<a href="http://twitter.com/download/android" rel="nofollow">Twitter for Android</a>
p950
sg107
(lp951
g3
(g109
g5
Ntp952
Rp953
(dp954
g113
Vhttp://t.co/BlfXtK6iku
p955
sg115
Vhttp://craftyourself.com
p956
sbag3
(g109
g5
Ntp957
Rp958
(dp959
g113
Vhttp://t.co/aiCbruHm2p
p960
sg115
Vhttp://craftyourself.com/2014/12/vintage-christmas-week-vintage-count-chalkboards-womens-shelter-project/
p961
sbasg75
I543103815960895488
sbsg26
Nsg27
(lp962
sg29
Nsg30
Nsg31
Nsg32
VSat Dec 13 03:46:22 +0000 2014
p963
sg34
Nsg35
I00
sg36
Nsg37
Nsg38
Nsg39
Nsg40
I00
sg41
Nsg42
(lp964
g3
(g44
g5
Ntp965
Rp966
(dp967
g10
Nsg48
Nsg49
Nsg50
Nsg51
Nsg52
Nsg32
Nsg53
Nsg54
Nsg55
Nsg56
Nsg57
Nsg58
Nsg59
Nsg60
Nsg61
Nsg62
Nsg63
Nsg64
Nsg65
Nsg66
Nsg67
Nsg68
VCraftyourself
p968
sg70
Nsg71
VAvry Byington
p969
sg73
Nsg74
Nsg75
I76680547
sg76
Nsbag3
(g44
g5
Ntp970
Rp971
(dp972
g10
Nsg48
Nsg49
Nsg50
Nsg51
Nsg52
Nsg32
Nsg53
Nsg54
Nsg55
Nsg56
Nsg57
Nsg58
Nsg59
Nsg60
Nsg61
Nsg62
Nsg63
Nsg64
Nsg65
Nsg66
Nsg67
Nsg68
VCraftyourself
p973
sg70
Nsg71
VAvry Byington
p974
sg73
Nsg74
Nsg75
I76680547
sg76
Nsbasg77
Nsg78
V543612867602161667
p975
sg80
Nsg81
VRT @Craftyourself: Vintage Christmas Week "Vintage Count Down Chalkboards" - http://t.co/BlfXtK6iku http://t.co/aiCbruHm2p via @craftyourse\u2026
p976
sg83
I00
sg84
Ven
p977
sg86
g3
(g44
g5
Ntp978
Rp979
(dp980
g10
VCO
p981
sg48
V666666
p982
sg49
Ven
p983
sg50
VMountain Time (US & Canada)
p984
sg51
I10285
sg52
I4472
sg32
VThu Oct 07 04:18:57 +0000 2010
p985
sg53
I00
sg54
VMom of 3. Blogger. Brand Ambassador. Passionate about Family, Food, Fitness, & Frugal Living.
p986
sg55
Vhttps://pbs.twimg.com/profile_images/477328217913569282/PNG0uVxz_normal.png
p987
sg56
I5635
sg57
I58
sg58
I-25200
sg59
Nsg60
I00
sg61
Nsg62
I00
sg63
I00
sg64
V2FC2EF
p988
sg65
I00
sg66
I00
sg67
Vhttp://abs.twimg.com/images/themes/theme9/bg.gif
p989
sg68
Vpennywisemama
p990
sg70
I58
sg71
VMarisa
p991
sg73
V252429
p992
sg74
Vhttp://t.co/uswr5s7pL6
p993
sg75
I199551313
sg76
V1A1B1F
p994
sbsg104
I18
sg105
V<a href="https://mobile.twitter.com" rel="nofollow">Mobile Web (M5)</a>
p995
sg107
(lp996
g3
(g109
g5
Ntp997
Rp998
(dp999
g113
Vhttp://t.co/BlfXtK6iku
p1000
sg115
Vhttp://craftyourself.com
p1001
sbag3
(g109
g5
Ntp1002
Rp1003
(dp1004
g113
Vhttp://t.co/aiCbruHm2p
p1005
sg115
Vhttp://craftyourself.com/2014/12/vintage-christmas-week-vintage-count-chalkboards-womens-shelter-project/
p1006
sbasg75
I543612867602161667
sbag3
(g4
g5
Ntp1007
Rp1008
(dp1009
g9
I0
sg10
Nsg11
Nsg12
(lp1010
g3
(g14
g5
Ntp1011
Rp1012
(dp1013
g18
VHolidayGiftGuide
p1014
sbag3
(g14
g5
Ntp1015
Rp1016
(dp1017
g18
VSamsung
p1018
sbasg24
I00
sg25
g3
(g4
g5
Ntp1019
Rp1020
(dp1021
g9
I3
sg10
Nsg11
Nsg12
(lp1022
g3
(g14
g5
Ntp1023
Rp1024
(dp1025
g18
VHolidayGiftGuide
p1026
sbag3
(g14
g5
Ntp1027
Rp1028
(dp1029
g18
VSamsung
p1030
sbasg24
I00
sg25
Nsg26
Nsg27
(lp1031
(dp1032
Vexpanded_url
p1033
Vhttp://twitter.com/mommye/status/542064040726364160/photo/1
p1034
sVdisplay_url
p1035
Vpic.twitter.com/lWrQmkufaS
p1036
sVurl
p1037
Vhttp://t.co/lWrQmkufaS
p1038
sVmedia_url_https
p1039
Vhttps://pbs.twimg.com/media/B4XMXy4CQAAXXR8.jpg
p1040
sVid_str
p1041
V542064039333871616
p1042
sVsizes
p1043
(dp1044
Vsmall
p1045
(dp1046
Vh
p1047
I513
sVresize
p1048
Vfit
p1049
sVw
p1050
I340
ssVlarge
p1051
(dp1052
Vh
p1053
I906
sVresize
p1054
Vfit
p1055
sVw
p1056
I600
ssVmedium
p1057
(dp1058
Vh
p1059
I906
sVresize
p1060
Vfit
p1061
sVw
p1062
I600
ssVthumb
p1063
(dp1064
Vh
p1065
I150
sVresize
p1066
Vcrop
p1067
sVw
p1068
I150
sssVindices
p1069
(lp1070
I116
aI138
asVtype
p1071
Vphoto
p1072
sVid
p1073
I542064039333871616
sVmedia_url
p1074
Vhttp://pbs.twimg.com/media/B4XMXy4CQAAXXR8.jpg
p1075
sasg29
Nsg30
Nsg31
Nsg32
VMon Dec 08 21:11:53 +0000 2014
p1076
sg34
Nsg35
I00
sg36
Nsg37
Nsg38
Nsg39
Nsg40
I00
sg41
Nsg42
(lp1077
g3
(g44
g5
Ntp1078
Rp1079
(dp1080
g10
Nsg48
Nsg49
Nsg50
Nsg51
Nsg52
Nsg32
Nsg53
Nsg54
Nsg55
Nsg56
Nsg57
Nsg58
Nsg59
Nsg60
Nsg61
Nsg62
Nsg63
Nsg64
Nsg65
Nsg66
Nsg67
Nsg68
VSamsungtweets
p1081
sg70
Nsg71
VSamsung USA
p1082
sg73
Nsg74
Nsg75
I34356968
sg76
Nsbasg77
Nsg78
V542064040726364160
p1083
sg80
Nsg81
VGreat Gift Idea: Samsung VU7000 Motion Sync Vacuum http://t.co/DL6uQqcRJE #HolidayGiftGuide #Samsung\u000a@Samsungtweets http://t.co/lWrQmkufaS
p1084
sg83
I00
sg84
Ven
p1085
sg86
g3
(g44
g5
Ntp1086
Rp1087
(dp1088
g10
Vstefani@mommyenterprises.com
p1089
sg48
V000000
p1090
sg49
Ven
p1091
sg50
VPacific Time (US & Canada)
p1092
sg51
I36965
sg52
I107230
sg32
VSun Nov 12 22:07:46 +0000 2006
p1093
sg53
I00
sg54
VMulti-Tasking Mom of 4 | Owner of Mommy Enterprises & This Mom Can Cook |  Mom Blogger | Freelance Writer | Foodie | Disney Fan At Heart |
p1094
sg55
Vhttps://pbs.twimg.com/profile_images/493641764016640000/84F7C4MA_normal.jpeg
p1095
sg56
I35606
sg57
I1824
sg58
I-28800
sg59
Nsg60
I00
sg61
Vhttps://pbs.twimg.com/profile_banners/12181/1407467444
p1096
sg62
I00
sg63
I00
sg64
V0000FF
p1097
sg65
I01
sg66
I00
sg67
Vhttp://pbs.twimg.com/profile_background_images/444860805926764546/h-c_JWpS.jpeg
p1098
sg68
Vmommye
p1099
sg70
I552
sg71
VStefani Tolson
p1100
sg73
VFF91F5
p1101
sg74
Vhttp://t.co/aCJh48Czk5
p1102
sg75
I12181
sg76
VFF32C6
p1103
sbsg104
I75
sg105
V<a href="http://twitter.com" rel="nofollow">Twitter Web Client</a>
p1104
sg107
(lp1105
g3
(g109
g5
Ntp1106
Rp1107
(dp1108
g113
Vhttp://t.co/DL6uQqcRJE
p1109
sg115
Vhttp://www.mommyenterprises.com/moms-blog/39160/samsung-vu7000-motion-sync-vacuum/
p1110
sbasg75
I542064040726364160
sbsg26
Nsg27
(lp1111
(dp1112
Vsource_user_id
p1113
I12181
sVsource_status_id_str
p1114
V542064040726364160
p1115
sVexpanded_url
p1116
Vhttp://twitter.com/mommye/status/542064040726364160/photo/1
p1117
sVdisplay_url
p1118
Vpic.twitter.com/lWrQmkufaS
p1119
sVurl
p1120
Vhttp://t.co/lWrQmkufaS
p1121
sVmedia_url_https
p1122
Vhttps://pbs.twimg.com/media/B4XMXy4CQAAXXR8.jpg
p1123
sVsource_user_id_str
p1124
V12181
p1125
sVsource_status_id
p1126
I542064040726364160
sVid_str
p1127
V542064039333871616
p1128
sVsizes
p1129
(dp1130
Vsmall
p1131
(dp1132
Vh
p1133
I513
sVresize
p1134
Vfit
p1135
sVw
p1136
I340
ssVlarge
p1137
(dp1138
Vh
p1139
I906
sVresize
p1140
Vfit
p1141
sVw
p1142
I600
ssVmedium
p1143
(dp1144
Vh
p1145
I906
sVresize
p1146
Vfit
p1147
sVw
p1148
I600
ssVthumb
p1149
(dp1150
Vh
p1151
I150
sVresize
p1152
Vcrop
p1153
sVw
p1154
I150
sssVindices
p1155
(lp1156
I139
aI140
asVtype
p1157
Vphoto
p1158
sVid
p1159
I542064039333871616
sVmedia_url
p1160
Vhttp://pbs.twimg.com/media/B4XMXy4CQAAXXR8.jpg
p1161
sasg29
Nsg30
Nsg31
Nsg32
VSat Dec 13 03:46:03 +0000 2014
p1162
sg34
Nsg35
I00
sg36
Nsg37
Nsg38
Nsg39
Nsg40
I00
sg41
Nsg42
(lp1163
g3
(g44
g5
Ntp1164
Rp1165
(dp1166
g10
Nsg48
Nsg49
Nsg50
Nsg51
Nsg52
Nsg32
Nsg53
Nsg54
Nsg55
Nsg56
Nsg57
Nsg58
Nsg59
Nsg60
Nsg61
Nsg62
Nsg63
Nsg64
Nsg65
Nsg66
Nsg67
Nsg68
Vmommye
p1167
sg70
Nsg71
VStefani Tolson
p1168
sg73
Nsg74
Nsg75
I12181
sg76
Nsbag3
(g44
g5
Ntp1169
Rp1170
(dp1171
g10
Nsg48
Nsg49
Nsg50
Nsg51
Nsg52
Nsg32
Nsg53
Nsg54
Nsg55
Nsg56
Nsg57
Nsg58
Nsg59
Nsg60
Nsg61
Nsg62
Nsg63
Nsg64
Nsg65
Nsg66
Nsg67
Nsg68
VSamsungtweets
p1172
sg70
Nsg71
VSamsung USA
p1173
sg73
Nsg74
Nsg75
I34356968
sg76
Nsbasg77
Nsg78
V543612788719882241
p1174
sg80
Nsg81
VRT @mommye: Great Gift Idea: Samsung VU7000 Motion Sync Vacuum http://t.co/DL6uQqcRJE #HolidayGiftGuide #Samsung\u000a@Samsungtweets http://t.co\u2026
p1175
sg83
I00
sg84
Ven
p1176
sg86
g3
(g44
g5
Ntp1177
Rp1178
(dp1179
g10
VCO
p1180
sg48
V666666
p1181
sg49
Ven
p1182
sg50
VMountain Time (US & Canada)
p1183
sg51
I10285
sg52
I4472
sg32
VThu Oct 07 04:18:57 +0000 2010
p1184
sg53
I00
sg54
VMom of 3. Blogger. Brand Ambassador. Passionate about Family, Food, Fitness, & Frugal Living.
p1185
sg55
Vhttps://pbs.twimg.com/profile_images/477328217913569282/PNG0uVxz_normal.png
p1186
sg56
I5635
sg57
I58
sg58
I-25200
sg59
Nsg60
I00
sg61
Nsg62
I00
sg63
I00
sg64
V2FC2EF
p1187
sg65
I00
sg66
I00
sg67
Vhttp://abs.twimg.com/images/themes/theme9/bg.gif
p1188
sg68
Vpennywisemama
p1189
sg70
I58
sg71
VMarisa
p1190
sg73
V252429
p1191
sg74
Vhttp://t.co/uswr5s7pL6
p1192
sg75
I199551313
sg76
V1A1B1F
p1193
sbsg104
I75
sg105
V<a href="https://mobile.twitter.com" rel="nofollow">Mobile Web (M5)</a>
p1194
sg107
(lp1195
g3
(g109
g5
Ntp1196
Rp1197
(dp1198
g113
Vhttp://t.co/DL6uQqcRJE
p1199
sg115
Vhttp://www.mommyenterprises.com/moms-blog/39160/samsung-vu7000-motion-sync-vacuum/
p1200
sbasg75
I543612788719882241
sbag3
(g4
g5
Ntp1201
Rp1202
(dp1203
g9
I0
sg10
Nsg11
Nsg12
(lp1204
g3
(g14
g5
Ntp1205
Rp1206
(dp1207
g18
VGiftGuide
p1208
sbag3
(g14
g5
Ntp1209
Rp1210
(dp1211
g18
VHolidayshopping
p1212
sbasg24
I00
sg25
g3
(g4
g5
Ntp1213
Rp1214
(dp1215
g9
I1
sg10
Nsg11
Nsg12
(lp1216
g3
(g14
g5
Ntp1217
Rp1218
(dp1219
g18
VGiftGuide
p1220
sbag3
(g14
g5
Ntp1221
Rp1222
(dp1223
g18
VHolidayshopping
p1224
sbasg24
I00
sg25
Nsg26
Nsg27
(lp1225
(dp1226
Vexpanded_url
p1227
Vhttp://twitter.com/Recomonk/status/542025900099764225/photo/1
p1228
sVdisplay_url
p1229
Vpic.twitter.com/Kj1GqAA4da
p1230
sVurl
p1231
Vhttp://t.co/Kj1GqAA4da
p1232
sVmedia_url_https
p1233
Vhttps://pbs.twimg.com/media/B4WprtJCUAAJVPX.png
p1234
sVid_str
p1235
V542025898484977664
p1236
sVsizes
p1237
(dp1238
Vsmall
p1239
(dp1240
Vh
p1241
I262
sVresize
p1242
Vfit
p1243
sVw
p1244
I340
ssVlarge
p1245
(dp1246
Vh
p1247
I781
sVresize
p1248
Vfit
p1249
sVw
p1250
I1013
ssVmedium
p1251
(dp1252
Vh
p1253
I462
sVresize
p1254
Vfit
p1255
sVw
p1256
I600
ssVthumb
p1257
(dp1258
Vh
p1259
I150
sVresize
p1260
Vcrop
p1261
sVw
p1262
I150
sssVindices
p1263
(lp1264
I117
aI139
asVtype
p1265
Vphoto
p1266
sVid
p1267
I542025898484977664
sVmedia_url
p1268
Vhttp://pbs.twimg.com/media/B4WprtJCUAAJVPX.png
p1269
sasg29
Nsg30
Nsg31
Nsg32
VMon Dec 08 18:40:19 +0000 2014
p1270
sg34
Nsg35
I00
sg36
Nsg37
Nsg38
Nsg39
Nsg40
I00
sg41
Nsg42
(lp1271
g3
(g44
g5
Ntp1272
Rp1273
(dp1274
g10
Nsg48
Nsg49
Nsg50
Nsg51
Nsg52
Nsg32
Nsg53
Nsg54
Nsg55
Nsg56
Nsg57
Nsg58
Nsg59
Nsg60
Nsg61
Nsg62
Nsg63
Nsg64
Nsg65
Nsg66
Nsg67
Nsg68
Vshopwithmemama
p1275
sg70
Nsg71
VKim Delatorre
p1276
sg73
Nsg74
Nsg75
I18231937
sg76
Nsbasg77
Nsg78
V542025900099764225
p1277
sg80
Nsg81
VThe MOST AWESOME Holiday Gift Guide! CAN'T MISS  http://t.co/O2UbSlFgaz #GiftGuide #Holidayshopping  @shopwithmemama http://t.co/Kj1GqAA4da
p1278
sg83
I00
sg84
Ven
p1279
sg86
g3
(g44
g5
Ntp1280
Rp1281
(dp1282
g10
VBay Area
p1283
sg48
V333333
p1284
sg49
Ven
p1285
sg50
Nsg51
I1312
sg52
I186
sg32
VFri Feb 22 19:33:33 +0000 2013
p1286
sg53
I00
sg54
VShare the products you love and super-charge your blog's affiliate income. Create beautiful product showcases or insert visual links in blog text and images.
p1287
sg55
Vhttps://pbs.twimg.com/profile_images/433410887953563648/r5snT61Y_normal.jpeg
p1288
sg56
I1842
sg57
I74
sg58
Nsg59
Nsg60
I00
sg61
Vhttps://pbs.twimg.com/profile_banners/1209579870/1406289379
p1289
sg62
I00
sg63
I00
sg64
VD66C31
p1290
sg65
I00
sg66
I00
sg67
Vhttp://pbs.twimg.com/profile_background_images/378800000031650887/9b3ac2378eb9d4cb2ced090248d2f673.jpeg
p1291
sg68
VRecomonk
p1292
sg70
I8
sg71
VRecomonk
p1293
sg73
VDDEEF6
p1294
sg74
Vhttp://t.co/dbdGGrefsl
p1295
sg75
I1209579870
sg76
VFFFFFF
p1296
sbsg104
I19
sg105
V<a href="http://twitter.com" rel="nofollow">Twitter Web Client</a>
p1297
sg107
(lp1298
g3
(g109
g5
Ntp1299
Rp1300
(dp1301
g113
Vhttp://t.co/O2UbSlFgaz
p1302
sg115
Vhttp://bit.ly/1wRNh2Y
p1303
sbasg75
I542025900099764225
sbsg26
Nsg27
(lp1304
(dp1305
Vsource_user_id
p1306
I1209579870
sVsource_status_id_str
p1307
V542025900099764225
p1308
sVexpanded_url
p1309
Vhttp://twitter.com/Recomonk/status/542025900099764225/photo/1
p1310
sVdisplay_url
p1311
Vpic.twitter.com/Kj1GqAA4da
p1312
sVurl
p1313
Vhttp://t.co/Kj1GqAA4da
p1314
sVmedia_url_https
p1315
Vhttps://pbs.twimg.com/media/B4WprtJCUAAJVPX.png
p1316
sVsource_user_id_str
p1317
V1209579870
p1318
sVsource_status_id
p1319
I542025900099764225
sVid_str
p1320
V542025898484977664
p1321
sVsizes
p1322
(dp1323
Vsmall
p1324
(dp1325
Vh
p1326
I262
sVresize
p1327
Vfit
p1328
sVw
p1329
I340
ssVlarge
p1330
(dp1331
Vh
p1332
I781
sVresize
p1333
Vfit
p1334
sVw
p1335
I1013
ssVmedium
p1336
(dp1337
Vh
p1338
I462
sVresize
p1339
Vfit
p1340
sVw
p1341
I600
ssVthumb
p1342
(dp1343
Vh
p1344
I150
sVresize
p1345
Vcrop
p1346
sVw
p1347
I150
sssVindices
p1348
(lp1349
I139
aI140
asVtype
p1350
Vphoto
p1351
sVid
p1352
I542025898484977664
sVmedia_url
p1353
Vhttp://pbs.twimg.com/media/B4WprtJCUAAJVPX.png
p1354
sasg29
Nsg30
Nsg31
Nsg32
VSat Dec 13 03:45:48 +0000 2014
p1355
sg34
Nsg35
I00
sg36
Nsg37
Nsg38
Nsg39
Nsg40
I00
sg41
Nsg42
(lp1356
g3
(g44
g5
Ntp1357
Rp1358
(dp1359
g10
Nsg48
Nsg49
Nsg50
Nsg51
Nsg52
Nsg32
Nsg53
Nsg54
Nsg55
Nsg56
Nsg57
Nsg58
Nsg59
Nsg60
Nsg61
Nsg62
Nsg63
Nsg64
Nsg65
Nsg66
Nsg67
Nsg68
VRecomonk
p1360
sg70
Nsg71
VRecomonk
p1361
sg73
Nsg74
Nsg75
I1209579870
sg76
Nsbag3
(g44
g5
Ntp1362
Rp1363
(dp1364
g10
Nsg48
Nsg49
Nsg50
Nsg51
Nsg52
Nsg32
Nsg53
Nsg54
Nsg55
Nsg56
Nsg57
Nsg58
Nsg59
Nsg60
Nsg61
Nsg62
Nsg63
Nsg64
Nsg65
Nsg66
Nsg67
Nsg68
Vshopwithmemama
p1365
sg70
Nsg71
VKim Delatorre
p1366
sg73
Nsg74
Nsg75
I18231937
sg76
Nsbasg77
Nsg78
V543612727063625728
p1367
sg80
Nsg81
VRT @Recomonk: The MOST AWESOME Holiday Gift Guide! CAN'T MISS  http://t.co/O2UbSlFgaz #GiftGuide #Holidayshopping  @shopwithmemama http://t\u2026
p1368
sg83
I00
sg84
Ven
p1369
sg86
g3
(g44
g5
Ntp1370
Rp1371
(dp1372
g10
VCO
p1373
sg48
V666666
p1374
sg49
Ven
p1375
sg50
VMountain Time (US & Canada)
p1376
sg51
I10285
sg52
I4472
sg32
VThu Oct 07 04:18:57 +0000 2010
p1377
sg53
I00
sg54
VMom of 3. Blogger. Brand Ambassador. Passionate about Family, Food, Fitness, & Frugal Living.
p1378
sg55
Vhttps://pbs.twimg.com/profile_images/477328217913569282/PNG0uVxz_normal.png
p1379
sg56
I5635
sg57
I58
sg58
I-25200
sg59
Nsg60
I00
sg61
Nsg62
I00
sg63
I00
sg64
V2FC2EF
p1380
sg65
I00
sg66
I00
sg67
Vhttp://abs.twimg.com/images/themes/theme9/bg.gif
p1381
sg68
Vpennywisemama
p1382
sg70
I58
sg71
VMarisa
p1383
sg73
V252429
p1384
sg74
Vhttp://t.co/uswr5s7pL6
p1385
sg75
I199551313
sg76
V1A1B1F
p1386
sbsg104
I19
sg105
V<a href="https://mobile.twitter.com" rel="nofollow">Mobile Web (M5)</a>
p1387
sg107
(lp1388
g3
(g109
g5
Ntp1389
Rp1390
(dp1391
g113
Vhttp://t.co/O2UbSlFgaz
p1392
sg115
Vhttp://bit.ly/1wRNh2Y
p1393
sbasg75
I543612727063625728
sbag3
(g4
g5
Ntp1394
Rp1395
(dp1396
g9
I0
sg10
Nsg11
Nsg12
(lp1397
g3
(g14
g5
Ntp1398
Rp1399
(dp1400
g18
Vad
p1401
sbasg24
I00
sg25
g3
(g4
g5
Ntp1402
Rp1403
(dp1404
g9
I8
sg10
Nsg11
Nsg12
(lp1405
g3
(g14
g5
Ntp1406
Rp1407
(dp1408
g18
Vad
p1409
sbasg24
I00
sg25
Nsg26
Nsg27
(lp1410
(dp1411
Vexpanded_url
p1412
Vhttp://twitter.com/NotQuiteSusie/status/543095663647805442/photo/1
p1413
sVdisplay_url
p1414
Vpic.twitter.com/33fKBMr5sg
p1415
sVurl
p1416
Vhttp://t.co/33fKBMr5sg
p1417
sVmedia_url_https
p1418
Vhttps://pbs.twimg.com/media/B4l2oNVCUAA3957.png
p1419
sVid_str
p1420
V543095663219593216
p1421
sVsizes
p1422
(dp1423
Vsmall
p1424
(dp1425
Vh
p1426
I230
sVresize
p1427
Vfit
p1428
sVw
p1429
I340
ssVlarge
p1430
(dp1431
Vh
p1432
I249
sVresize
p1433
Vfit
p1434
sVw
p1435
I367
ssVmedium
p1436
(dp1437
Vh
p1438
I249
sVresize
p1439
Vfit
p1440
sVw
p1441
I367
ssVthumb
p1442
(dp1443
Vh
p1444
I150
sVresize
p1445
Vcrop
p1446
sVw
p1447
I150
sssVindices
p1448
(lp1449
I116
aI138
asVtype
p1450
Vphoto
p1451
sVid
p1452
I543095663219593216
sVmedia_url
p1453
Vhttp://pbs.twimg.com/media/B4l2oNVCUAA3957.png
p1454
sasg29
Nsg30
Nsg31
Nsg32
VThu Dec 11 17:31:11 +0000 2014
p1455
sg34
Nsg35
I00
sg36
Nsg37
Nsg38
Nsg39
Nsg40
I00
sg41
Nsg42
(lp1456
sg77
Nsg78
V543095663647805442
p1457
sg80
Nsg81
VYum! Nestle has cookie dough SHEETS perfect for food crafting or easy Christmas cookies! #ad http://t.co/8AlY6WyOrf http://t.co/33fKBMr5sg
p1458
sg83
I00
sg84
Ven
p1459
sg86
g3
(g44
g5
Ntp1460
Rp1461
(dp1462
g10
VLas Vegas, NV
p1463
sg48
V000000
p1464
sg49
Ven
p1465
sg50
VPacific Time (US & Canada)
p1466
sg51
I8780
sg52
I11432
sg32
VWed Feb 10 09:09:16 +0000 2010
p1467
sg53
I00
sg54
V20-something Mom, Wife & Blogger at {Not Quite} Susie Homemaker. Addicted to Easter Candy & Sparkles.
p1468
sg55
Vhttps://pbs.twimg.com/profile_images/462055917857411072/xt9q0egk_normal.jpeg
p1469
sg56
I4967
sg57
I84
sg58
I-28800
sg59
Nsg60
I00
sg61
Vhttps://pbs.twimg.com/profile_banners/112977585/1409733100
p1470
sg62
I00
sg63
I01
sg64
V97D1C5
p1471
sg65
I00
sg66
I00
sg67
Vhttp://pbs.twimg.com/profile_background_images/620247810/a6gkn1jjagnstxxcb72f.png
p1472
sg68
VNotQuiteSusie
p1473
sg70
I185
sg71
VShell Feis
p1474
sg73
VEBB7DB
p1475
sg74
Vhttp://t.co/C7S0JsTVTa
p1476
sg75
I112977585
sg76
VFFFFFF
p1477
sbsg104
I24
sg105
V<a href="http://twitter.com" rel="nofollow">Twitter Web Client</a>
p1478
sg107
(lp1479
g3
(g109
g5
Ntp1480
Rp1481
(dp1482
g113
Vhttp://t.co/8AlY6WyOrf
p1483
sg115
Vhttp://ooh.li/322eb2d
p1484
sbasg75
I543095663647805442
sbsg26
Nsg27
(lp1485
(dp1486
Vsource_user_id
p1487
I112977585
sVsource_status_id_str
p1488
V543095663647805442
p1489
sVexpanded_url
p1490
Vhttp://twitter.com/NotQuiteSusie/status/543095663647805442/photo/1
p1491
sVdisplay_url
p1492
Vpic.twitter.com/33fKBMr5sg
p1493
sVurl
p1494
Vhttp://t.co/33fKBMr5sg
p1495
sVmedia_url_https
p1496
Vhttps://pbs.twimg.com/media/B4l2oNVCUAA3957.png
p1497
sVsource_user_id_str
p1498
V112977585
p1499
sVsource_status_id
p1500
I543095663647805442
sVid_str
p1501
V543095663219593216
p1502
sVsizes
p1503
(dp1504
Vsmall
p1505
(dp1506
Vh
p1507
I230
sVresize
p1508
Vfit
p1509
sVw
p1510
I340
ssVlarge
p1511
(dp1512
Vh
p1513
I249
sVresize
p1514
Vfit
p1515
sVw
p1516
I367
ssVmedium
p1517
(dp1518
Vh
p1519
I249
sVresize
p1520
Vfit
p1521
sVw
p1522
I367
ssVthumb
p1523
(dp1524
Vh
p1525
I150
sVresize
p1526
Vcrop
p1527
sVw
p1528
I150
sssVindices
p1529
(lp1530
I139
aI140
asVtype
p1531
Vphoto
p1532
sVid
p1533
I543095663219593216
sVmedia_url
p1534
Vhttp://pbs.twimg.com/media/B4l2oNVCUAA3957.png
p1535
sasg29
Nsg30
Nsg31
Nsg32
VSat Dec 13 03:45:25 +0000 2014
p1536
sg34
Nsg35
I00
sg36
Nsg37
Nsg38
Nsg39
Nsg40
I00
sg41
Nsg42
(lp1537
g3
(g44
g5
Ntp1538
Rp1539
(dp1540
g10
Nsg48
Nsg49
Nsg50
Nsg51
Nsg52
Nsg32
Nsg53
Nsg54
Nsg55
Nsg56
Nsg57
Nsg58
Nsg59
Nsg60
Nsg61
Nsg62
Nsg63
Nsg64
Nsg65
Nsg66
Nsg67
Nsg68
VNotQuiteSusie
p1541
sg70
Nsg71
VShell Feis
p1542
sg73
Nsg74
Nsg75
I112977585
sg76
Nsbasg77
Nsg78
V543612630183596032
p1543
sg80
Nsg81
VRT @NotQuiteSusie: Yum! Nestle has cookie dough SHEETS perfect for food crafting or easy Christmas cookies! #ad http://t.co/8AlY6WyOrf http\u2026
p1544
sg83
I00
sg84
Ven
p1545
sg86
g3
(g44
g5
Ntp1546
Rp1547
(dp1548
g10
VCO
p1549
sg48
V666666
p1550
sg49
Ven
p1551
sg50
VMountain Time (US & Canada)
p1552
sg51
I10285
sg52
I4472
sg32
VThu Oct 07 04:18:57 +0000 2010
p1553
sg53
I00
sg54
VMom of 3. Blogger. Brand Ambassador. Passionate about Family, Food, Fitness, & Frugal Living.
p1554
sg55
Vhttps://pbs.twimg.com/profile_images/477328217913569282/PNG0uVxz_normal.png
p1555
sg56
I5635
sg57
I58
sg58
I-25200
sg59
Nsg60
I00
sg61
Nsg62
I00
sg63
I00
sg64
V2FC2EF
p1556
sg65
I00
sg66
I00
sg67
Vhttp://abs.twimg.com/images/themes/theme9/bg.gif
p1557
sg68
Vpennywisemama
p1558
sg70
I58
sg71
VMarisa
p1559
sg73
V252429
p1560
sg74
Vhttp://t.co/uswr5s7pL6
p1561
sg75
I199551313
sg76
V1A1B1F
p1562
sbsg104
I24
sg105
V<a href="https://mobile.twitter.com" rel="nofollow">Mobile Web (M5)</a>
p1563
sg107
(lp1564
g3
(g109
g5
Ntp1565
Rp1566
(dp1567
g113
Vhttp://t.co/8AlY6WyOrf
p1568
sg115
Vhttp://ooh.li/322eb2d
p1569
sbasg75
I543612630183596032
sbag3
(g4
g5
Ntp1570
Rp1571
(dp1572
g9
I0
sg10
Nsg11
Nsg12
(lp1573
g3
(g14
g5
Ntp1574
Rp1575
(dp1576
g18
VCASHFLOW
p1577
sbag3
(g14
g5
Ntp1578
Rp1579
(dp1580
g18
Vsp
p1581
sbasg24
I00
sg25
g3
(g4
g5
Ntp1582
Rp1583
(dp1584
g9
I0
sg10
Nsg11
Nsg12
(lp1585
g3
(g14
g5
Ntp1586
Rp1587
(dp1588
g18
VCASHFLOW
p1589
sbag3
(g14
g5
Ntp1590
Rp1591
(dp1592
g18
Vsp
p1593
sbasg24
I00
sg25
Nsg26
Nsg27
(lp1594
sg29
Nsg30
Nsg31
Nsg32
VThu Dec 11 15:03:27 +0000 2014
p1595
sg34
Nsg35
I00
sg36
Nsg37
Nsg38
Nsg39
Nsg40
I00
sg41
Nsg42
(lp1596
sg77
Nsg78
V543058488822616064
p1597
sg80
Nsg81
VHave you played #CASHFLOW with your kids yet? Teach your kids about being smart with money while having  fun! #sp  http://t.co/snLJI9GFFC
p1598
sg83
I00
sg84
Ven
p1599
sg86
g3
(g44
g5
Ntp1600
Rp1601
(dp1602
g10
VNevada
p1603
sg48
V333333
p1604
sg49
Ven
p1605
sg50
Nsg51
I1540
sg52
I1579
sg32
VMon Aug 15 16:46:11 +0000 2011
p1606
sg53
I00
sg54
VPR friendly #momblogger that Loves creating #Recipes. Creator of awesome #free #printables for the home and #etsy. Owner of The Bright Side of Reality Mom Blog.
p1607
sg55
Vhttps://pbs.twimg.com/profile_images/526904285259653120/PtfalNJT_normal.jpeg
p1608
sg56
I1872
sg57
I643
sg58
Nsg59
Nsg60
I00
sg61
Vhttps://pbs.twimg.com/profile_banners/355616401/1412378475
p1609
sg62
I00
sg63
I01
sg64
VF5ABB5
p1610
sg65
I00
sg66
I00
sg67
Vhttp://pbs.twimg.com/profile_background_images/464515582012821504/sgtMyRWQ.jpeg
p1611
sg68
VMyBrightReality
p1612
sg70
I23
sg71
VMiranda Lawton
p1613
sg73
VDDEEF6
p1614
sg74
Vhttp://t.co/BLnLjgGsKz
p1615
sg75
I355616401
sg76
VC0DEED
p1616
sbsg104
I19
sg105
V<a href="http://coschedule.com" rel="nofollow">CoSchedule</a>
p1617
sg107
(lp1618
g3
(g109
g5
Ntp1619
Rp1620
(dp1621
g113
Vhttp://t.co/snLJI9GFFC
p1622
sg115
Vhttp://ooh.li/d3279ba
p1623
sbasg75
I543058488822616064
sbsg26
Nsg27
(lp1624
sg29
Nsg30
Nsg31
Nsg32
VSat Dec 13 03:45:12 +0000 2014
p1625
sg34
Nsg35
I00
sg36
Nsg37
Nsg38
Nsg39
Nsg40
I00
sg41
Nsg42
(lp1626
g3
(g44
g5
Ntp1627
Rp1628
(dp1629
g10
Nsg48
Nsg49
Nsg50
Nsg51
Nsg52
Nsg32
Nsg53
Nsg54
Nsg55
Nsg56
Nsg57
Nsg58
Nsg59
Nsg60
Nsg61
Nsg62
Nsg63
Nsg64
Nsg65
Nsg66
Nsg67
Nsg68
VMyBrightReality
p1630
sg70
Nsg71
VMiranda Lawton
p1631
sg73
Nsg74
Nsg75
I355616401
sg76
Nsbasg77
Nsg78
V543612573547892736
p1632
sg80
Nsg81
VRT @MyBrightReality: Have you played #CASHFLOW with your kids yet? Teach your kids about being smart with money while having  fun! #sp  htt\u2026
p1633
sg83
I00
sg84
Ven
p1634
sg86
g3
(g44
g5
Ntp1635
Rp1636
(dp1637
g10
VCO
p1638
sg48
V666666
p1639
sg49
Ven
p1640
sg50
VMountain Time (US & Canada)
p1641
sg51
I10285
sg52
I4472
sg32
VThu Oct 07 04:18:57 +0000 2010
p1642
sg53
I00
sg54
VMom of 3. Blogger. Brand Ambassador. Passionate about Family, Food, Fitness, & Frugal Living.
p1643
sg55
Vhttps://pbs.twimg.com/profile_images/477328217913569282/PNG0uVxz_normal.png
p1644
sg56
I5635
sg57
I58
sg58
I-25200
sg59
Nsg60
I00
sg61
Nsg62
I00
sg63
I00
sg64
V2FC2EF
p1645
sg65
I00
sg66
I00
sg67
Vhttp://abs.twimg.com/images/themes/theme9/bg.gif
p1646
sg68
Vpennywisemama
p1647
sg70
I58
sg71
VMarisa
p1648
sg73
V252429
p1649
sg74
Vhttp://t.co/uswr5s7pL6
p1650
sg75
I199551313
sg76
V1A1B1F
p1651
sbsg104
I19
sg105
V<a href="https://mobile.twitter.com" rel="nofollow">Mobile Web (M5)</a>
p1652
sg107
(lp1653
g3
(g109
g5
Ntp1654
Rp1655
(dp1656
g113
Vhttp://t.co/snLJI9GFFC
p1657
sg115
Vhttp://ooh.li/d3279ba
p1658
sbasg75
I543612573547892736
sbag3
(g4
g5
Ntp1659
Rp1660
(dp1661
g9
I0
sg10
Nsg11
Nsg12
(lp1662
g3
(g14
g5
Ntp1663
Rp1664
(dp1665
g18
VMezzettaMemories
p1666
sbag3
(g14
g5
Ntp1667
Rp1668
(dp1669
g18
VSharingJoy
p1670
sbag3
(g14
g5
Ntp1671
Rp1672
(dp1673
g18
Vsp
p1674
sbasg24
I00
sg25
g3
(g4
g5
Ntp1675
Rp1676
(dp1677
g9
I2
sg10
Nsg11
Nsg12
(lp1678
g3
(g14
g5
Ntp1679
Rp1680
(dp1681
g18
VMezzettaMemories
p1682
sbag3
(g14
g5
Ntp1683
Rp1684
(dp1685
g18
VSharingJoy
p1686
sbag3
(g14
g5
Ntp1687
Rp1688
(dp1689
g18
Vsp
p1690
sbasg24
I00
sg25
Nsg26
Nsg27
(lp1691
sg29
Nsg30
Nsg31
Nsg32
VThu Dec 11 17:16:29 +0000 2014
p1692
sg34
Nsg35
I00
sg36
Nsg37
Nsg38
Nsg39
Nsg40
I00
sg41
Nsg42
(lp1693
sg77
Nsg78
V543091964791779328
p1694
sg80
Nsg81
VEnter to win every single day! http://t.co/0SsEa2MlHv #MezzettaMemories #SharingJoy #sp
p1695
sg83
I00
sg84
Ven
p1696
sg86
g3
(g44
g5
Ntp1697
Rp1698
(dp1699
g10
g247
sg48
V333333
p1700
sg49
Ven
p1701
sg50
VEastern Time (US & Canada)
p1702
sg51
I3359
sg52
I8218
sg32
VThu Sep 08 18:19:33 +0000 2011
p1703
sg53
I00
sg54
VBlogging, #cooking, #gardening, DIYing, jogging and most importantly: momming. PR friendly #blogger
p1704
sg55
Vhttps://pbs.twimg.com/profile_images/3222924732/e6d7bd4efb2e96c857cea128467f1068_normal.png
p1705
sg56
I1226
sg57
I228
sg58
I-18000
sg59
Nsg60
I00
sg61
Vhttps://pbs.twimg.com/profile_banners/370252916/1398394023
p1706
sg62
I00
sg63
I00
sg64
V93A644
p1707
sg65
I00
sg66
I00
sg67
Vhttp://abs.twimg.com/images/themes/theme13/bg.gif
p1708
sg68
Vgrownandhealthy
p1709
sg70
I32
sg71
VAubrey // H&H
p1710
sg73
VFFFFFF
p1711
sg74
Vhttp://t.co/neXWLQS5r7
p1712
sg75
I370252916
sg76
VB2DFDA
p1713
sbsg104
I64
sg105
V<a href="http://twitter.com" rel="nofollow">Twitter Web Client</a>
p1714
sg107
(lp1715
g3
(g109
g5
Ntp1716
Rp1717
(dp1718
g113
Vhttp://t.co/0SsEa2MlHv
p1719
sg115
Vhttp://ooh.li/cee4499
p1720
sbasg75
I543091964791779328
sbsg26
Nsg27
(lp1721
sg29
Nsg30
Nsg31
Nsg32
VSat Dec 13 03:44:57 +0000 2014
p1722
sg34
Nsg35
I00
sg36
Nsg37
Nsg38
Nsg39
Nsg40
I00
sg41
Nsg42
(lp1723
g3
(g44
g5
Ntp1724
Rp1725
(dp1726
g10
Nsg48
Nsg49
Nsg50
Nsg51
Nsg52
Nsg32
Nsg53
Nsg54
Nsg55
Nsg56
Nsg57
Nsg58
Nsg59
Nsg60
Nsg61
Nsg62
Nsg63
Nsg64
Nsg65
Nsg66
Nsg67
Nsg68
Vgrownandhealthy
p1727
sg70
Nsg71
VAubrey // H&H
p1728
sg73
Nsg74
Nsg75
I370252916
sg76
Nsbasg77
Nsg78
V543612512214585344
p1729
sg80
Nsg81
VRT @grownandhealthy: Enter to win every single day! http://t.co/0SsEa2MlHv #MezzettaMemories #SharingJoy #sp
p1730
sg83
I00
sg84
Ven
p1731
sg86
g3
(g44
g5
Ntp1732
Rp1733
(dp1734
g10
VCO
p1735
sg48
V666666
p1736
sg49
Ven
p1737
sg50
VMountain Time (US & Canada)
p1738
sg51
I10285
sg52
I4472
sg32
VThu Oct 07 04:18:57 +0000 2010
p1739
sg53
I00
sg54
VMom of 3. Blogger. Brand Ambassador. Passionate about Family, Food, Fitness, & Frugal Living.
p1740
sg55
Vhttps://pbs.twimg.com/profile_images/477328217913569282/PNG0uVxz_normal.png
p1741
sg56
I5635
sg57
I58
sg58
I-25200
sg59
Nsg60
I00
sg61
Nsg62
I00
sg63
I00
sg64
V2FC2EF
p1742
sg65
I00
sg66
I00
sg67
Vhttp://abs.twimg.com/images/themes/theme9/bg.gif
p1743
sg68
Vpennywisemama
p1744
sg70
I58
sg71
VMarisa
p1745
sg73
V252429
p1746
sg74
Vhttp://t.co/uswr5s7pL6
p1747
sg75
I199551313
sg76
V1A1B1F
p1748
sbsg104
I64
sg105
V<a href="https://mobile.twitter.com" rel="nofollow">Mobile Web (M5)</a>
p1749
sg107
(lp1750
g3
(g109
g5
Ntp1751
Rp1752
(dp1753
g113
Vhttp://t.co/0SsEa2MlHv
p1754
sg115
Vhttp://ooh.li/cee4499
p1755
sbasg75
I543612512214585344
sbag3
(g4
g5
Ntp1756
Rp1757
(dp1758
g9
I0
sg10
Nsg11
Nsg12
(lp1759
g3
(g14
g5
Ntp1760
Rp1761
(dp1762
g18
Vcookiedoughsheets
p1763
sbag3
(g14
g5
Ntp1764
Rp1765
(dp1766
g18
Vsp
p1767
sbasg24
I00
sg25
g3
(g4
g5
Ntp1768
Rp1769
(dp1770
g9
I6
sg10
Nsg11
Nsg12
(lp1771
g3
(g14
g5
Ntp1772
Rp1773
(dp1774
g18
Vcookiedoughsheets
p1775
sbag3
(g14
g5
Ntp1776
Rp1777
(dp1778
g18
Vsp
p1779
sbasg24
I00
sg25
Nsg26
Nsg27
(lp1780
(dp1781
Vexpanded_url
p1782
Vhttp://twitter.com/notimeMom/status/543091459826515968/photo/1
p1783
sVdisplay_url
p1784
Vpic.twitter.com/PnCoS4Jorv
p1785
sVurl
p1786
Vhttp://t.co/PnCoS4Jorv
p1787
sVmedia_url_https
p1788
Vhttps://pbs.twimg.com/media/B4lyzgUCcAE6mPo.jpg
p1789
sVid_str
p1790
V543091459247730689
p1791
sVsizes
p1792
(dp1793
Vsmall
p1794
(dp1795
Vh
p1796
I226
sVresize
p1797
Vfit
p1798
sVw
p1799
I340
ssVlarge
p1800
(dp1801
Vh
p1802
I682
sVresize
p1803
Vfit
p1804
sVw
p1805
I1024
ssVmedium
p1806
(dp1807
Vh
p1808
I400
sVresize
p1809
Vfit
p1810
sVw
p1811
I600
ssVthumb
p1812
(dp1813
Vh
p1814
I150
sVresize
p1815
Vcrop
p1816
sVw
p1817
I150
sssVindices
p1818
(lp1819
I117
aI139
asVtype
p1820
Vphoto
p1821
sVid
p1822
I543091459247730689
sVmedia_url
p1823
Vhttp://pbs.twimg.com/media/B4lyzgUCcAE6mPo.jpg
p1824
sasg29
Nsg30
Nsg31
Nsg32
VThu Dec 11 17:14:28 +0000 2014
p1825
sg34
Nsg35
I00
sg36
Nsg37
Nsg38
Nsg39
Nsg40
I00
sg41
Nsg42
(lp1826
g3
(g44
g5
Ntp1827
Rp1828
(dp1829
g10
Nsg48
Nsg49
Nsg50
Nsg51
Nsg52
Nsg32
Nsg53
Nsg54
Nsg55
Nsg56
Nsg57
Nsg58
Nsg59
Nsg60
Nsg61
Nsg62
Nsg63
Nsg64
Nsg65
Nsg66
Nsg67
Nsg68
VNestleTollHouse
p1830
sg70
Nsg71
VNestle Toll House
p1831
sg73
Nsg74
Nsg75
I386487041
sg76
Nsbasg77
Nsg78
V543091459826515968
p1832
sg80
Nsg81
VCreate Pumpkin Bars w/ @NestleTollHouse rolled &amp; ready #cookiedoughsheets Be inspired #sp http://t.co/OfZj4ioPgr http://t.co/PnCoS4Jorv
p1833
sg83
I00
sg84
Ven
p1834
sg86
g3
(g44
g5
Ntp1835
Rp1836
(dp1837
g10
VOregon
p1838
sg48
V333333
p1839
sg49
Ven
p1840
sg50
VPacific Time (US & Canada)
p1841
sg51
I10686
sg52
I87976
sg32
VFri Jun 12 05:26:55 +0000 2009
p1842
sg53
I00
sg54
VPR Friendly blog. Mom of 2 with much to do! From my garden, through the kitchen & to my table, it is all an adventure. Come join me.
p1843
sg55
Vhttps://pbs.twimg.com/profile_images/1521710847/IMG_4342_normal.JPG
p1844
sg56
I4648
sg57
I51331
sg58
I-28800
sg59
Nsg60
I00
sg61
Vhttps://pbs.twimg.com/profile_banners/46589508/1398228587
p1845
sg62
I00
sg63
I00
sg64
V93A644
p1846
sg65
I00
sg66
I00
sg67
Vhttp://abs.twimg.com/images/themes/theme13/bg.gif
p1847
sg68
VnotimeMom
p1848
sg70
I230
sg71
VAndrea Kruse
p1849
sg73
VFFFFFF
p1850
sg74
Vhttp://t.co/u3oEN4S26O
p1851
sg75
I46589508
sg76
VB2DFDA
p1852
sbsg104
I22
sg105
V<a href="http://twitter.com" rel="nofollow">Twitter Web Client</a>
p1853
sg107
(lp1854
g3
(g109
g5
Ntp1855
Rp1856
(dp1857
g113
Vhttp://t.co/OfZj4ioPgr
p1858
sg115
Vhttp://ooh.li/0b5fe8a
p1859
sbasg75
I543091459826515968
sbsg26
Nsg27
(lp1860
(dp1861
Vsource_user_id
p1862
I46589508
sVsource_status_id_str
p1863
V543091459826515968
p1864
sVexpanded_url
p1865
Vhttp://twitter.com/notimeMom/status/543091459826515968/photo/1
p1866
sVdisplay_url
p1867
Vpic.twitter.com/PnCoS4Jorv
p1868
sVurl
p1869
Vhttp://t.co/PnCoS4Jorv
p1870
sVmedia_url_https
p1871
Vhttps://pbs.twimg.com/media/B4lyzgUCcAE6mPo.jpg
p1872
sVsource_user_id_str
p1873
V46589508
p1874
sVsource_status_id
p1875
I543091459826515968
sVid_str
p1876
V543091459247730689
p1877
sVsizes
p1878
(dp1879
Vsmall
p1880
(dp1881
Vh
p1882
I226
sVresize
p1883
Vfit
p1884
sVw
p1885
I340
ssVlarge
p1886
(dp1887
Vh
p1888
I682
sVresize
p1889
Vfit
p1890
sVw
p1891
I1024
ssVmedium
p1892
(dp1893
Vh
p1894
I400
sVresize
p1895
Vfit
p1896
sVw
p1897
I600
ssVthumb
p1898
(dp1899
Vh
p1900
I150
sVresize
p1901
Vcrop
p1902
sVw
p1903
I150
sssVindices
p1904
(lp1905
I143
aI144
asVtype
p1906
Vphoto
p1907
sVid
p1908
I543091459247730689
sVmedia_url
p1909
Vhttp://pbs.twimg.com/media/B4lyzgUCcAE6mPo.jpg
p1910
sasg29
Nsg30
Nsg31
Nsg32
VSat Dec 13 03:44:44 +0000 2014
p1911
sg34
Nsg35
I00
sg36
Nsg37
Nsg38
Nsg39
Nsg40
I00
sg41
Nsg42
(lp1912
g3
(g44
g5
Ntp1913
Rp1914
(dp1915
g10
Nsg48
Nsg49
Nsg50
Nsg51
Nsg52
Nsg32
Nsg53
Nsg54
Nsg55
Nsg56
Nsg57
Nsg58
Nsg59
Nsg60
Nsg61
Nsg62
Nsg63
Nsg64
Nsg65
Nsg66
Nsg67
Nsg68
VnotimeMom
p1916
sg70
Nsg71
VAndrea Kruse
p1917
sg73
Nsg74
Nsg75
I46589508
sg76
Nsbag3
(g44
g5
Ntp1918
Rp1919
(dp1920
g10
Nsg48
Nsg49
Nsg50
Nsg51
Nsg52
Nsg32
Nsg53
Nsg54
Nsg55
Nsg56
Nsg57
Nsg58
Nsg59
Nsg60
Nsg61
Nsg62
Nsg63
Nsg64
Nsg65
Nsg66
Nsg67
Nsg68
VNestleTollHouse
p1921
sg70
Nsg71
VNestle Toll House
p1922
sg73
Nsg74
Nsg75
I386487041
sg76
Nsbasg77
Nsg78
V543612457894154240
p1923
sg80
Nsg81
VRT @notimeMom: Create Pumpkin Bars w/ @NestleTollHouse rolled &amp; ready #cookiedoughsheets Be inspired #sp http://t.co/OfZj4ioPgr http://t.co\u2026
p1924
sg83
I00
sg84
Ven
p1925
sg86
g3
(g44
g5
Ntp1926
Rp1927
(dp1928
g10
VCO
p1929
sg48
V666666
p1930
sg49
Ven
p1931
sg50
VMountain Time (US & Canada)
p1932
sg51
I10285
sg52
I4472
sg32
VThu Oct 07 04:18:57 +0000 2010
p1933
sg53
I00
sg54
VMom of 3. Blogger. Brand Ambassador. Passionate about Family, Food, Fitness, & Frugal Living.
p1934
sg55
Vhttps://pbs.twimg.com/profile_images/477328217913569282/PNG0uVxz_normal.png
p1935
sg56
I5635
sg57
I58
sg58
I-25200
sg59
Nsg60
I00
sg61
Nsg62
I00
sg63
I00
sg64
V2FC2EF
p1936
sg65
I00
sg66
I00
sg67
Vhttp://abs.twimg.com/images/themes/theme9/bg.gif
p1937
sg68
Vpennywisemama
p1938
sg70
I58
sg71
VMarisa
p1939
sg73
V252429
p1940
sg74
Vhttp://t.co/uswr5s7pL6
p1941
sg75
I199551313
sg76
V1A1B1F
p1942
sbsg104
I22
sg105
V<a href="https://mobile.twitter.com" rel="nofollow">Mobile Web (M5)</a>
p1943
sg107
(lp1944
g3
(g109
g5
Ntp1945
Rp1946
(dp1947
g113
Vhttp://t.co/OfZj4ioPgr
p1948
sg115
Vhttp://ooh.li/0b5fe8a
p1949
sbasg75
I543612457894154240
sbag3
(g4
g5
Ntp1950
Rp1951
(dp1952
g9
I0
sg10
Nsg11
Nsg12
(lp1953
g3
(g14
g5
Ntp1954
Rp1955
(dp1956
g18
Vcookiedoughsheets
p1957
sbag3
(g14
g5
Ntp1958
Rp1959
(dp1960
g18
VTollHouseTime
p1961
sbag3
(g14
g5
Ntp1962
Rp1963
(dp1964
g18
Vsp
p1965
sbasg24
I00
sg25
g3
(g4
g5
Ntp1966
Rp1967
(dp1968
g9
I5
sg10
Nsg11
Nsg12
(lp1969
g3
(g14
g5
Ntp1970
Rp1971
(dp1972
g18
Vcookiedoughsheets
p1973
sbag3
(g14
g5
Ntp1974
Rp1975
(dp1976
g18
VTollHouseTime
p1977
sbag3
(g14
g5
Ntp1978
Rp1979
(dp1980
g18
Vsp
p1981
sbasg24
I00
sg25
Nsg26
Nsg27
(lp1982
sg29
Nsg30
Nsg31
Nsg32
VTue Dec 09 21:48:19 +0000 2014
p1983
sg34
Nsg35
I00
sg36
Nsg37
Nsg38
Nsg39
Nsg40
I00
sg41
Nsg42
(lp1984
g3
(g44
g5
Ntp1985
Rp1986
(dp1987
g10
Nsg48
Nsg49
Nsg50
Nsg51
Nsg52
Nsg32
Nsg53
Nsg54
Nsg55
Nsg56
Nsg57
Nsg58
Nsg59
Nsg60
Nsg61
Nsg62
Nsg63
Nsg64
Nsg65
Nsg66
Nsg67
Nsg68
VNestleTollHouse
p1988
sg70
Nsg71
VNestle Toll House
p1989
sg73
Nsg74
Nsg75
I386487041
sg76
Nsbasg77
Nsg78
V542435599324442625
p1990
sg80
Nsg81
VCreate holiday inspired cookies with rolled and ready #cookiedoughsheets from @NestleTollHouse #TollHouseTime #sp http://t.co/wmzm4tnkt3
p1991
sg83
I00
sg84
Ven
p1992
sg86
g3
(g44
g5
Ntp1993
Rp1994
(dp1995
g10
VEvansville,  Indiana
p1996
sg48
V362720
p1997
sg49
Ven
p1998
sg50
VAlaska
p1999
sg51
I16407
sg52
I6140
sg32
VThu Feb 07 23:44:05 +0000 2008
p2000
sg53
I00
sg54
VLifestyle // Photography // Travel // Fashion // Beauty // Tech  Find me @BeautyCounter & @FashionFling as well.
p2001
sg55
Vhttps://pbs.twimg.com/profile_images/522534097659240448/_Qz3Roxl_normal.jpeg
p2002
sg56
I15478
sg57
I705
sg58
I-32400
sg59
Nsg60
I00
sg61
Vhttps://pbs.twimg.com/profile_banners/13226812/1413542560
p2003
sg62
I00
sg63
I01
sg64
V1C884E
p2004
sg65
I01
sg66
I00
sg67
Vhttp://pbs.twimg.com/profile_background_images/434003568459137025/CT4lUtQc.jpeg
p2005
sg68
VHilLesha
p2006
sg70
I215
sg71
VHilLesha O'Nan
p2007
sg73
VE5507E
p2008
sg74
Vhttp://t.co/PFvCnrg533
p2009
sg75
I13226812
sg76
VFFFFFF
p2010
sbsg104
I19
sg105
V<a href="http://twitter.com" rel="nofollow">Twitter Web Client</a>
p2011
sg107
(lp2012
g3
(g109
g5
Ntp2013
Rp2014
(dp2015
g113
Vhttp://t.co/wmzm4tnkt3
p2016
sg115
Vhttp://ooh.li/bdba74a
p2017
sbasg75
I542435599324442625
sbsg26
Nsg27
(lp2018
sg29
Nsg30
Nsg31
Nsg32
VSat Dec 13 03:44:27 +0000 2014
p2019
sg34
Nsg35
I00
sg36
Nsg37
Nsg38
Nsg39
Nsg40
I00
sg41
Nsg42
(lp2020
g3
(g44
g5
Ntp2021
Rp2022
(dp2023
g10
Nsg48
Nsg49
Nsg50
Nsg51
Nsg52
Nsg32
Nsg53
Nsg54
Nsg55
Nsg56
Nsg57
Nsg58
Nsg59
Nsg60
Nsg61
Nsg62
Nsg63
Nsg64
Nsg65
Nsg66
Nsg67
Nsg68
VHilLesha
p2024
sg70
Nsg71
VHilLesha O'Nan
p2025
sg73
Nsg74
Nsg75
I13226812
sg76
Nsbag3
(g44
g5
Ntp2026
Rp2027
(dp2028
g10
Nsg48
Nsg49
Nsg50
Nsg51
Nsg52
Nsg32
Nsg53
Nsg54
Nsg55
Nsg56
Nsg57
Nsg58
Nsg59
Nsg60
Nsg61
Nsg62
Nsg63
Nsg64
Nsg65
Nsg66
Nsg67
Nsg68
VNestleTollHouse
p2029
sg70
Nsg71
VNestle Toll House
p2030
sg73
Nsg74
Nsg75
I386487041
sg76
Nsbasg77
Nsg78
V543612385882161152
p2031
sg80
Nsg81
VRT @HilLesha: Create holiday inspired cookies with rolled and ready #cookiedoughsheets from @NestleTollHouse #TollHouseTime #sp http://t.co\u2026
p2032
sg83
I00
sg84
Ven
p2033
sg86
g3
(g44
g5
Ntp2034
Rp2035
(dp2036
g10
VCO
p2037
sg48
V666666
p2038
sg49
Ven
p2039
sg50
VMountain Time (US & Canada)
p2040
sg51
I10285
sg52
I4472
sg32
VThu Oct 07 04:18:57 +0000 2010
p2041
sg53
I00
sg54
VMom of 3. Blogger. Brand Ambassador. Passionate about Family, Food, Fitness, & Frugal Living.
p2042
sg55
Vhttps://pbs.twimg.com/profile_images/477328217913569282/PNG0uVxz_normal.png
p2043
sg56
I5635
sg57
I58
sg58
I-25200
sg59
Nsg60
I00
sg61
Nsg62
I00
sg63
I00
sg64
V2FC2EF
p2044
sg65
I00
sg66
I00
sg67
Vhttp://abs.twimg.com/images/themes/theme9/bg.gif
p2045
sg68
Vpennywisemama
p2046
sg70
I58
sg71
VMarisa
p2047
sg73
V252429
p2048
sg74
Vhttp://t.co/uswr5s7pL6
p2049
sg75
I199551313
sg76
V1A1B1F
p2050
sbsg104
I19
sg105
V<a href="https://mobile.twitter.com" rel="nofollow">Mobile Web (M5)</a>
p2051
sg107
(lp2052
g3
(g109
g5
Ntp2053
Rp2054
(dp2055
g113
Vhttp://t.co/wmzm4tnkt3
p2056
sg115
Vhttp://ooh.li/bdba74a
p2057
sbasg75
I543612385882161152
sbag3
(g4
g5
Ntp2058
Rp2059
(dp2060
g9
I0
sg10
Nsg11
Nsg12
(lp2061
g3
(g14
g5
Ntp2062
Rp2063
(dp2064
g18
VCashewmilk
p2065
sbasg24
I00
sg25
Nsg26
Nsg27
(lp2066
sg29
Nsg30
Nsg31
Nsg32
VSat Dec 13 01:36:00 +0000 2014
p2067
sg34
Nsg35
I00
sg36
Nsg37
Nsg38
Nsg39
Nsg40
I00
sg41
Nsg42
(lp2068
g3
(g44
g5
Ntp2069
Rp2070
(dp2071
g10
Nsg48
Nsg49
Nsg50
Nsg51
Nsg52
Nsg32
Nsg53
Nsg54
Nsg55
Nsg56
Nsg57
Nsg58
Nsg59
Nsg60
Nsg61
Nsg62
Nsg63
Nsg64
Nsg65
Nsg66
Nsg67
Nsg68
VLoveMySilk
p2072
sg70
Nsg71
VSilk 
p2073
sg73
Nsg74
Nsg75
I25354531
sg76
Nsbasg77
Nsg78
V543580061350121472
p2074
sg80
Nsg81
VBreakfast solved. So creamy. So delicious. You gotta try it! @LoveMySilk #Cashewmilk http://t.co/od2WloKd8i
p2075
sg83
I00
sg84
Ven
p2076
sg86
g3
(g44
g5
Ntp2077
Rp2078
(dp2079
g10
VCO
p2080
sg48
V666666
p2081
sg49
Ven
p2082
sg50
VMountain Time (US & Canada)
p2083
sg51
I10285
sg52
I4472
sg32
VThu Oct 07 04:18:57 +0000 2010
p2084
sg53
I00
sg54
VMom of 3. Blogger. Brand Ambassador. Passionate about Family, Food, Fitness, & Frugal Living.
p2085
sg55
Vhttps://pbs.twimg.com/profile_images/477328217913569282/PNG0uVxz_normal.png
p2086
sg56
I5635
sg57
I58
sg58
I-25200
sg59
Nsg60
I00
sg61
Nsg62
I00
sg63
I00
sg64
V2FC2EF
p2087
sg65
I00
sg66
I00
sg67
Vhttp://abs.twimg.com/images/themes/theme9/bg.gif
p2088
sg68
Vpennywisemama
p2089
sg70
I58
sg71
VMarisa
p2090
sg73
V252429
p2091
sg74
Vhttp://t.co/uswr5s7pL6
p2092
sg75
I199551313
sg76
V1A1B1F
p2093
sbsg104
I0
sg105
V<a href="http://instagram.com" rel="nofollow">Instagram</a>
p2094
sg107
(lp2095
g3
(g109
g5
Ntp2096
Rp2097
(dp2098
g113
Vhttp://t.co/od2WloKd8i
p2099
sg115
Vhttp://instagram.com/p/wh1dQPxLYU/
p2100
sbasg75
I543580061350121472
sbag3
(g4
g5
Ntp2101
Rp2102
(dp2103
g9
I0
sg10
Nsg11
Nsg12
(lp2104
g3
(g14
g5
Ntp2105
Rp2106
(dp2107
g18
Vshopular
p2108
sbag3
(g14
g5
Ntp2109
Rp2110
(dp2111
g18
Vshoppingbff
p2112
sbag3
(g14
g5
Ntp2113
Rp2114
(dp2115
g18
Vspendlessbuymore
p2116
sbasg24
I00
sg25
Nsg26
Nsg27
(lp2117
sg29
Nsg30
Nsg31
Nsg32
VFri Dec 12 23:42:44 +0000 2014
p2118
sg34
Nsg35
I00
sg36
Nsg37
Nsg38
Nsg39
Nsg40
I00
sg41
Nsg42
(lp2119
sg77
Nsg78
V543551554834276352
p2120
sg80
Nsg81
V5 Free Apps That Will Save You Money http://t.co/Oksy5jEWYe #shopular #shoppingbff #spendlessbuymore
p2121
sg83
I00
sg84
Ven
p2122
sg86
g3
(g44
g5
Ntp2123
Rp2124
(dp2125
g10
VCO
p2126
sg48
V666666
p2127
sg49
Ven
p2128
sg50
VMountain Time (US & Canada)
p2129
sg51
I10285
sg52
I4472
sg32
VThu Oct 07 04:18:57 +0000 2010
p2130
sg53
I00
sg54
VMom of 3. Blogger. Brand Ambassador. Passionate about Family, Food, Fitness, & Frugal Living.
p2131
sg55
Vhttps://pbs.twimg.com/profile_images/477328217913569282/PNG0uVxz_normal.png
p2132
sg56
I5635
sg57
I58
sg58
I-25200
sg59
Nsg60
I00
sg61
Nsg62
I00
sg63
I00
sg64
V2FC2EF
p2133
sg65
I00
sg66
I00
sg67
Vhttp://abs.twimg.com/images/themes/theme9/bg.gif
p2134
sg68
Vpennywisemama
p2135
sg70
I58
sg71
VMarisa
p2136
sg73
V252429
p2137
sg74
Vhttp://t.co/uswr5s7pL6
p2138
sg75
I199551313
sg76
V1A1B1F
p2139
sbsg104
I0
sg105
V<a href="http://twitter.com" rel="nofollow">Twitter Web Client</a>
p2140
sg107
(lp2141
g3
(g109
g5
Ntp2142
Rp2143
(dp2144
g113
Vhttp://t.co/Oksy5jEWYe
p2145
sg115
Vhttp://wp.me/p2f3uv-486
p2146
sbasg75
I543551554834276352
sbag3
(g4
g5
Ntp2147
Rp2148
(dp2149
g9
I0
sg10
Nsg11
Nsg12
(lp2150
g3
(g14
g5
Ntp2151
Rp2152
(dp2153
g18
VSilkCashew
p2154
sbasg24
I00
sg25
Nsg26
Nsg27
(lp2155
sg29
Nsg30
Nsg31
Nsg32
VFri Dec 12 21:55:41 +0000 2014
p2156
sg34
Nsg35
I00
sg36
Nsg37
Nsg38
Nsg39
Nsg40
I00
sg41
Nsg42
(lp2157
g3
(g44
g5
Ntp2158
Rp2159
(dp2160
g10
Nsg48
Nsg49
Nsg50
Nsg51
Nsg52
Nsg32
Nsg53
Nsg54
Nsg55
Nsg56
Nsg57
Nsg58
Nsg59
Nsg60
Nsg61
Nsg62
Nsg63
Nsg64
Nsg65
Nsg66
Nsg67
Nsg68
VLoveMySilk
p2161
sg70
Nsg71
VSilk 
p2162
sg73
Nsg74
Nsg75
I25354531
sg76
Nsbasg77
Nsg78
V543524617403387904
p2163
sg80
Nsg81
VNeed breakfast ideas? Try this delicious Cinnamon Cashew Breakfast Smoothie! http://t.co/khBPZ9vsKj #SilkCashew @LoveMySilk
p2164
sg83
I00
sg84
Ven
p2165
sg86
g3
(g44
g5
Ntp2166
Rp2167
(dp2168
g10
VCO
p2169
sg48
V666666
p2170
sg49
Ven
p2171
sg50
VMountain Time (US & Canada)
p2172
sg51
I10285
sg52
I4472
sg32
VThu Oct 07 04:18:57 +0000 2010
p2173
sg53
I00
sg54
VMom of 3. Blogger. Brand Ambassador. Passionate about Family, Food, Fitness, & Frugal Living.
p2174
sg55
Vhttps://pbs.twimg.com/profile_images/477328217913569282/PNG0uVxz_normal.png
p2175
sg56
I5635
sg57
I58
sg58
I-25200
sg59
Nsg60
I00
sg61
Nsg62
I00
sg63
I00
sg64
V2FC2EF
p2176
sg65
I00
sg66
I00
sg67
Vhttp://abs.twimg.com/images/themes/theme9/bg.gif
p2177
sg68
Vpennywisemama
p2178
sg70
I58
sg71
VMarisa
p2179
sg73
V252429
p2180
sg74
Vhttp://t.co/uswr5s7pL6
p2181
sg75
I199551313
sg76
V1A1B1F
p2182
sbsg104
I0
sg105
V<a href="http://twitter.com" rel="nofollow">Twitter Web Client</a>
p2183
sg107
(lp2184
g3
(g109
g5
Ntp2185
Rp2186
(dp2187
g113
Vhttp://t.co/khBPZ9vsKj
p2188
sg115
Vhttp://wp.me/p2f3uv-47I
p2189
sbasg75
I543524617403387904
sbag3
(g4
g5
Ntp2190
Rp2191
(dp2192
g9
I0
sg10
Nsg11
Nsg12
(lp2193
g3
(g14
g5
Ntp2194
Rp2195
(dp2196
g18
VTreatThePups
p2197
sbag3
(g14
g5
Ntp2198
Rp2199
(dp2200
g18
Vad
p2201
sbasg24
I00
sg25
g3
(g4
g5
Ntp2202
Rp2203
(dp2204
g9
I17
sg10
Nsg11
Nsg12
(lp2205
g3
(g14
g5
Ntp2206
Rp2207
(dp2208
g18
VTreatThePups
p2209
sbag3
(g14
g5
Ntp2210
Rp2211
(dp2212
g18
Vad
p2213
sbasg24
I00
sg25
Nsg26
Nsg27
(lp2214
(dp2215
Vexpanded_url
p2216
Vhttp://twitter.com/blm03/status/542851069500739584/photo/1
p2217
sVdisplay_url
p2218
Vpic.twitter.com/vqDaREm3ce
p2219
sVurl
p2220
Vhttp://t.co/vqDaREm3ce
p2221
sVmedia_url_https
p2222
Vhttps://pbs.twimg.com/media/B4iYK-MIQAAUNRS.jpg
p2223
sVid_str
p2224
V542851069358129152
p2225
sVsizes
p2226
(dp2227
Vsmall
p2228
(dp2229
Vh
p2230
I191
sVresize
p2231
Vfit
p2232
sVw
p2233
I340
ssVlarge
p2234
(dp2235
Vh
p2236
I576
sVresize
p2237
Vfit
p2238
sVw
p2239
I1024
ssVmedium
p2240
(dp2241
Vh
p2242
I337
sVresize
p2243
Vfit
p2244
sVw
p2245
I600
ssVthumb
p2246
(dp2247
Vh
p2248
I150
sVresize
p2249
Vcrop
p2250
sVw
p2251
I150
sssVindices
p2252
(lp2253
I55
aI77
asVtype
p2254
Vphoto
p2255
sVid
p2256
I542851069358129152
sVmedia_url
p2257
Vhttp://pbs.twimg.com/media/B4iYK-MIQAAUNRS.jpg
p2258
sasg29
Nsg30
Nsg31
Nsg32
VThu Dec 11 01:19:15 +0000 2014
p2259
sg34
Nsg35
I00
sg36
Nsg37
Nsg38
Nsg39
Nsg40
I00
sg41
Nsg42
(lp2260
sg77
Nsg78
V542851069500739584
p2261
sg80
Nsg81
VHow Will You #TreatThePups? http://t.co/RyqVOUz7ni #ad http://t.co/vqDaREm3ce
p2262
sg83
I00
sg84
Ven
p2263
sg86
g3
(g44
g5
Ntp2264
Rp2265
(dp2266
g10
VChicagoland
p2267
sg48
V000000
p2268
sg49
Ven
p2269
sg50
VCentral Time (US & Canada)
p2270
sg51
I33078
sg52
I81474
sg32
VThu Nov 08 03:50:58 +0000 2007
p2271
sg53
I00
sg54
VMom, Social Media Addict, Blogger
p2272
sg55
Vhttps://pbs.twimg.com/profile_images/3366742175/c14c1f97612d1b659b573214e6b7625e_normal.jpeg
p2273
sg56
I17322
sg57
I0
sg58
I-21600
sg59
Nsg60
I00
sg61
Vhttps://pbs.twimg.com/profile_banners/10054832/1398226049
p2274
sg62
I00
sg63
I01
sg64
V04ADEA
p2275
sg65
I01
sg66
I00
sg67
Vhttp://pbs.twimg.com/profile_background_images/432891454/x5914d04499d0f743096730c63affa05.png
p2276
sg68
Vblm03
p2277
sg70
I702
sg71
VLisa
p2278
sg73
VA7D307
p2279
sg74
Vhttp://t.co/hqYIlbVaPl
p2280
sg75
I10054832
sg76
V75B5E3
p2281
sbsg104
I151
sg105
V<a href="http://coschedule.com" rel="nofollow">CoSchedule</a>
p2282
sg107
(lp2283
g3
(g109
g5
Ntp2284
Rp2285
(dp2286
g113
Vhttp://t.co/RyqVOUz7ni
p2287
sg115
Vhttp://bit.ly/1yS2JO3
p2288
sbasg75
I542851069500739584
sbsg26
Nsg27
(lp2289
(dp2290
Vsource_user_id
p2291
I10054832
sVsource_status_id_str
p2292
V542851069500739584
p2293
sVexpanded_url
p2294
Vhttp://twitter.com/blm03/status/542851069500739584/photo/1
p2295
sVdisplay_url
p2296
Vpic.twitter.com/vqDaREm3ce
p2297
sVurl
p2298
Vhttp://t.co/vqDaREm3ce
p2299
sVmedia_url_https
p2300
Vhttps://pbs.twimg.com/media/B4iYK-MIQAAUNRS.jpg
p2301
sVsource_user_id_str
p2302
V10054832
p2303
sVsource_status_id
p2304
I542851069500739584
sVid_str
p2305
V542851069358129152
p2306
sVsizes
p2307
(dp2308
Vsmall
p2309
(dp2310
Vh
p2311
I191
sVresize
p2312
Vfit
p2313
sVw
p2314
I340
ssVlarge
p2315
(dp2316
Vh
p2317
I576
sVresize
p2318
Vfit
p2319
sVw
p2320
I1024
ssVmedium
p2321
(dp2322
Vh
p2323
I337
sVresize
p2324
Vfit
p2325
sVw
p2326
I600
ssVthumb
p2327
(dp2328
Vh
p2329
I150
sVresize
p2330
Vcrop
p2331
sVw
p2332
I150
sssVindices
p2333
(lp2334
I66
aI88
asVtype
p2335
Vphoto
p2336
sVid
p2337
I542851069358129152
sVmedia_url
p2338
Vhttp://pbs.twimg.com/media/B4iYK-MIQAAUNRS.jpg
p2339
sasg29
Nsg30
Nsg31
Nsg32
VFri Dec 12 05:36:34 +0000 2014
p2340
sg34
Nsg35
I00
sg36
Nsg37
Nsg38
Nsg39
Nsg40
I00
sg41
Nsg42
(lp2341
g3
(g44
g5
Ntp2342
Rp2343
(dp2344
g10
Nsg48
Nsg49
Nsg50
Nsg51
Nsg52
Nsg32
Nsg53
Nsg54
Nsg55
Nsg56
Nsg57
Nsg58
Nsg59
Nsg60
Nsg61
Nsg62
Nsg63
Nsg64
Nsg65
Nsg66
Nsg67
Nsg68
Vblm03
p2345
sg70
Nsg71
VLisa
p2346
sg73
Nsg74
Nsg75
I10054832
sg76
Nsbasg77
Nsg78
V543278214554992640
p2347
sg80
Nsg81
VRT @blm03: How Will You #TreatThePups? http://t.co/RyqVOUz7ni #ad http://t.co/vqDaREm3ce
p2348
sg83
I00
sg84
Ven
p2349
sg86
g3
(g44
g5
Ntp2350
Rp2351
(dp2352
g10
VCO
p2353
sg48
V666666
p2354
sg49
Ven
p2355
sg50
VMountain Time (US & Canada)
p2356
sg51
I10285
sg52
I4472
sg32
VThu Oct 07 04:18:57 +0000 2010
p2357
sg53
I00
sg54
VMom of 3. Blogger. Brand Ambassador. Passionate about Family, Food, Fitness, & Frugal Living.
p2358
sg55
Vhttps://pbs.twimg.com/profile_images/477328217913569282/PNG0uVxz_normal.png
p2359
sg56
I5635
sg57
I58
sg58
I-25200
sg59
Nsg60
I00
sg61
Nsg62
I00
sg63
I00
sg64
V2FC2EF
p2360
sg65
I00
sg66
I00
sg67
Vhttp://abs.twimg.com/images/themes/theme9/bg.gif
p2361
sg68
Vpennywisemama
p2362
sg70
I58
sg71
VMarisa
p2363
sg73
V252429
p2364
sg74
Vhttp://t.co/uswr5s7pL6
p2365
sg75
I199551313
sg76
V1A1B1F
p2366
sbsg104
I151
sg105
V<a href="https://mobile.twitter.com" rel="nofollow">Mobile Web (M5)</a>
p2367
sg107
(lp2368
g3
(g109
g5
Ntp2369
Rp2370
(dp2371
g113
Vhttp://t.co/RyqVOUz7ni
p2372
sg115
Vhttp://bit.ly/1yS2JO3
p2373
sbasg75
I543278214554992640
sbaa.