(lp0
S'goldminr'
p1
a(lp2
ccopy_reg
_reconstructor
p3
(ctwitter.status
Status
p4
c__builtin__
object
p5
Ntp6
Rp7
(dp8
S'_favorite_count'
p9
I0
sS'_location'
p10
NsS'_withheld_scope'
p11
NsS'hashtags'
p12
(lp13
g3
(ctwitter.hashtag
Hashtag
p14
g5
Ntp15
Rp16
(dp17
S'text'
p18
Vmakeup
p19
sbag3
(g14
g5
Ntp20
Rp21
(dp22
g18
Vselfie
p23
sbag3
(g14
g5
Ntp24
Rp25
(dp26
g18
Vsexy
p27
sbasS'_truncated'
p28
I00
sS'_retweeted_status'
p29
NsS'_withheld_copyright'
p30
NsS'media'
p31
(lp32
sS'_place'
p33
NsS'_contributors'
p34
NsS'_current_user_retweet'
p35
NsS'_created_at'
p36
VSun Dec 14 19:26:50 +0000 2014
p37
sS'_scopes'
p38
NsS'_possibly_sensitive'
p39
I00
sS'_in_reply_to_screen_name'
p40
NsS'_coordinates'
p41
NsS'_in_reply_to_user_id'
p42
NsS'_geo'
p43
NsS'_favorited'
p44
I00
sS'_withheld_in_countries'
p45
NsS'user_mentions'
p46
(lp47
sS'_now'
p48
NsS'_id_str'
p49
NsS'_in_reply_to_status_id'
p50
NsS'_text'
p51
VB/A Acne Cover Up! CCW! via /r/MakeupAddiction #makeup #selfie #sexy http://t.co/vZeXoh4Gmv
p52
sS'_retweeted'
p53
I00
sS'lang'
p54
Ven
p55
sS'_user'
p56
g3
(ctwitter.user
User
p57
g5
Ntp58
Rp59
(dp60
g10
VNYC
p61
sS'_profile_text_color'
p62
V333333
p63
sS'_lang'
p64
Ven
p65
sS'_time_zone'
p66
VQuito
p67
sS'_followers_count'
p68
I810
sS'_statuses_count'
p69
I320214
sg36
VSun Jun 19 01:46:03 +0000 2011
p70
sS'_verified'
p71
I00
sS'_description'
p72
VAvid life enthusiast / nature lover / professional entrepreneur / Battery Park City resident / website monetizer - http://t.co/Sk4O6MJbdE
p73
sS'_profile_image_url'
p74
Vhttps://pbs.twimg.com/profile_images/1452500114/beach7_normal.jpg
p75
sS'_friends_count'
p76
I160
sS'_favourites_count'
p77
I1
sS'_utc_offset'
p78
I-18000
sS'_status'
p79
NsS'_protected'
p80
I00
sS'_profile_banner_url'
p81
Vhttps://pbs.twimg.com/profile_banners/319952443/1388539027
p82
sS'_notifications'
p83
I00
sS'_profile_background_tile'
p84
I00
sS'_profile_link_color'
p85
V0084B4
p86
sS'_geo_enabled'
p87
I00
sS'_contributors_enabled'
p88
I00
sS'_profile_background_image_url'
p89
Vhttp://abs.twimg.com/images/themes/theme1/bg.png
p90
sS'_screen_name'
p91
Vgoldminr
p92
sS'_listed_count'
p93
I50
sS'_name'
p94
VBK
p95
sS'_profile_sidebar_fill_color'
p96
VDDEEF6
p97
sS'_url'
p98
NsS'_id'
p99
I319952443
sS'_profile_background_color'
p100
VC0DEED
p101
sbsS'_retweet_count'
p102
I0
sS'_source'
p103
V<a href="http://ifttt.com" rel="nofollow">IFTTT</a>
p104
sS'urls'
p105
(lp106
g3
(ctwitter.url
Url
p107
g5
Ntp108
Rp109
(dp110
S'url'
p111
Vhttp://t.co/vZeXoh4Gmv
p112
sS'expanded_url'
p113
Vhttp://ift.tt/1rYoQga
p114
sbasg99
I544211934967771136
sbag3
(g4
g5
Ntp115
Rp116
(dp117
g9
I0
sg10
Nsg11
Nsg12
(lp118
g3
(g14
g5
Ntp119
Rp120
(dp121
g18
Vmakeup
p122
sbag3
(g14
g5
Ntp123
Rp124
(dp125
g18
Vselfie
p126
sbag3
(g14
g5
Ntp127
Rp128
(dp129
g18
Vsexy
p130
sbasg28
I00
sg29
Nsg30
Nsg31
(lp131
sg33
Nsg34
Nsg35
Nsg36
VSun Dec 14 19:26:50 +0000 2014
p132
sg38
Nsg39
I00
sg40
Nsg41
Nsg42
Nsg43
Nsg44
I00
sg45
Nsg46
(lp133
sg48
Nsg49
Nsg50
Nsg51
VUrban decay primer potion or Too Faced shadow insurance? via /r/MakeupAddiction #makeup #selfie #sexy http://t.co/vZeXoh4Gmv
p134
sg53
I00
sg54
Ven
p135
sg56
g3
(g57
g5
Ntp136
Rp137
(dp138
g10
VNYC
p139
sg62
V333333
p140
sg64
Ven
p141
sg66
VQuito
p142
sg68
I810
sg69
I320214
sg36
VSun Jun 19 01:46:03 +0000 2011
p143
sg71
I00
sg72
VAvid life enthusiast / nature lover / professional entrepreneur / Battery Park City resident / website monetizer - http://t.co/Sk4O6MJbdE
p144
sg74
Vhttps://pbs.twimg.com/profile_images/1452500114/beach7_normal.jpg
p145
sg76
I160
sg77
I1
sg78
I-18000
sg79
Nsg80
I00
sg81
Vhttps://pbs.twimg.com/profile_banners/319952443/1388539027
p146
sg83
I00
sg84
I00
sg85
V0084B4
p147
sg87
I00
sg88
I00
sg89
Vhttp://abs.twimg.com/images/themes/theme1/bg.png
p148
sg91
Vgoldminr
p149
sg93
I50
sg94
VBK
p150
sg96
VDDEEF6
p151
sg98
Nsg99
I319952443
sg100
VC0DEED
p152
sbsg102
I0
sg103
V<a href="http://ifttt.com" rel="nofollow">IFTTT</a>
p153
sg105
(lp154
g3
(g107
g5
Ntp155
Rp156
(dp157
g111
Vhttp://t.co/vZeXoh4Gmv
p158
sg113
Vhttp://ift.tt/1rYoQga
p159
sbasg99
I544211933034209280
sbag3
(g4
g5
Ntp160
Rp161
(dp162
g9
I0
sg10
Nsg11
Nsg12
(lp163
sg28
I00
sg29
Nsg30
Nsg31
(lp164
sg33
Nsg34
Nsg35
Nsg36
VSun Dec 14 19:26:49 +0000 2014
p165
sg38
Nsg39
I00
sg40
Nsg41
Nsg42
Nsg43
Nsg44
I00
sg45
Nsg46
(lp166
sg48
Nsg49
Nsg50
Nsg51
VBartender at a Holiday party needs fierce red lips right? Tarte glamazon fierce red lipstick did the trick! CCW!... http://t.co/vZeXoh4Gmv
p167
sg53
I00
sg54
Ven
p168
sg56
g3
(g57
g5
Ntp169
Rp170
(dp171
g10
VNYC
p172
sg62
V333333
p173
sg64
Ven
p174
sg66
VQuito
p175
sg68
I810
sg69
I320214
sg36
VSun Jun 19 01:46:03 +0000 2011
p176
sg71
I00
sg72
VAvid life enthusiast / nature lover / professional entrepreneur / Battery Park City resident / website monetizer - http://t.co/Sk4O6MJbdE
p177
sg74
Vhttps://pbs.twimg.com/profile_images/1452500114/beach7_normal.jpg
p178
sg76
I160
sg77
I1
sg78
I-18000
sg79
Nsg80
I00
sg81
Vhttps://pbs.twimg.com/profile_banners/319952443/1388539027
p179
sg83
I00
sg84
I00
sg85
V0084B4
p180
sg87
I00
sg88
I00
sg89
Vhttp://abs.twimg.com/images/themes/theme1/bg.png
p181
sg91
Vgoldminr
p182
sg93
I50
sg94
VBK
p183
sg96
VDDEEF6
p184
sg98
Nsg99
I319952443
sg100
VC0DEED
p185
sbsg102
I0
sg103
V<a href="http://ifttt.com" rel="nofollow">IFTTT</a>
p186
sg105
(lp187
g3
(g107
g5
Ntp188
Rp189
(dp190
g111
Vhttp://t.co/vZeXoh4Gmv
p191
sg113
Vhttp://ift.tt/1rYoQga
p192
sbasg99
I544211930840588290
sbag3
(g4
g5
Ntp193
Rp194
(dp195
g9
I0
sg10
Nsg11
Nsg12
(lp196
sg28
I00
sg29
Nsg30
Nsg31
(lp197
sg33
Nsg34
Nsg35
Nsg36
VSun Dec 14 19:26:49 +0000 2014
p198
sg38
Nsg39
I00
sg40
Nsg41
Nsg42
Nsg43
Nsg44
I00
sg45
Nsg46
(lp199
sg48
Nsg49
Nsg50
Nsg51
VSomeone asked me for an updated collection yesterday, so here 'tis. Any swatch requests/ questions, let me know ... http://t.co/vZeXoh4Gmv
p200
sg53
I00
sg54
Ven
p201
sg56
g3
(g57
g5
Ntp202
Rp203
(dp204
g10
VNYC
p205
sg62
V333333
p206
sg64
Ven
p207
sg66
VQuito
p208
sg68
I810
sg69
I320214
sg36
VSun Jun 19 01:46:03 +0000 2011
p209
sg71
I00
sg72
VAvid life enthusiast / nature lover / professional entrepreneur / Battery Park City resident / website monetizer - http://t.co/Sk4O6MJbdE
p210
sg74
Vhttps://pbs.twimg.com/profile_images/1452500114/beach7_normal.jpg
p211
sg76
I160
sg77
I1
sg78
I-18000
sg79
Nsg80
I00
sg81
Vhttps://pbs.twimg.com/profile_banners/319952443/1388539027
p212
sg83
I00
sg84
I00
sg85
V0084B4
p213
sg87
I00
sg88
I00
sg89
Vhttp://abs.twimg.com/images/themes/theme1/bg.png
p214
sg91
Vgoldminr
p215
sg93
I50
sg94
VBK
p216
sg96
VDDEEF6
p217
sg98
Nsg99
I319952443
sg100
VC0DEED
p218
sbsg102
I0
sg103
V<a href="http://ifttt.com" rel="nofollow">IFTTT</a>
p219
sg105
(lp220
g3
(g107
g5
Ntp221
Rp222
(dp223
g111
Vhttp://t.co/vZeXoh4Gmv
p224
sg113
Vhttp://ift.tt/1rYoQga
p225
sbasg99
I544211928785362944
sbag3
(g4
g5
Ntp226
Rp227
(dp228
g9
I0
sg10
Nsg11
Nsg12
(lp229
g3
(g14
g5
Ntp230
Rp231
(dp232
g18
Vmakeup
p233
sbag3
(g14
g5
Ntp234
Rp235
(dp236
g18
Vselfie
p237
sbag3
(g14
g5
Ntp238
Rp239
(dp240
g18
Vsexy
p241
sbasg28
I00
sg29
Nsg30
Nsg31
(lp242
sg33
Nsg34
Nsg35
Nsg36
VSun Dec 14 19:26:48 +0000 2014
p243
sg38
Nsg39
I00
sg40
Nsg41
Nsg42
Nsg43
Nsg44
I00
sg45
Nsg46
(lp244
sg48
Nsg49
Nsg50
Nsg51
VHelp: My UD "Big Fatty" mascara makes a mess! via /r/MakeupAddiction #makeup #selfie #sexy http://t.co/vZeXoh4Gmv
p245
sg53
I00
sg54
Ven
p246
sg56
g3
(g57
g5
Ntp247
Rp248
(dp249
g10
VNYC
p250
sg62
V333333
p251
sg64
Ven
p252
sg66
VQuito
p253
sg68
I810
sg69
I320214
sg36
VSun Jun 19 01:46:03 +0000 2011
p254
sg71
I00
sg72
VAvid life enthusiast / nature lover / professional entrepreneur / Battery Park City resident / website monetizer - http://t.co/Sk4O6MJbdE
p255
sg74
Vhttps://pbs.twimg.com/profile_images/1452500114/beach7_normal.jpg
p256
sg76
I160
sg77
I1
sg78
I-18000
sg79
Nsg80
I00
sg81
Vhttps://pbs.twimg.com/profile_banners/319952443/1388539027
p257
sg83
I00
sg84
I00
sg85
V0084B4
p258
sg87
I00
sg88
I00
sg89
Vhttp://abs.twimg.com/images/themes/theme1/bg.png
p259
sg91
Vgoldminr
p260
sg93
I50
sg94
VBK
p261
sg96
VDDEEF6
p262
sg98
Nsg99
I319952443
sg100
VC0DEED
p263
sbsg102
I0
sg103
V<a href="http://ifttt.com" rel="nofollow">IFTTT</a>
p264
sg105
(lp265
g3
(g107
g5
Ntp266
Rp267
(dp268
g111
Vhttp://t.co/vZeXoh4Gmv
p269
sg113
Vhttp://ift.tt/1rYoQga
p270
sbasg99
I544211926243627008
sbag3
(g4
g5
Ntp271
Rp272
(dp273
g9
I0
sg10
Nsg11
Nsg12
(lp274
sg28
I00
sg29
Nsg30
Nsg31
(lp275
sg33
Nsg34
Nsg35
Nsg36
VSun Dec 14 19:26:27 +0000 2014
p276
sg38
Nsg39
I00
sg40
Nsg41
Nsg42
Nsg43
Nsg44
I00
sg45
Nsg46
(lp277
g3
(g57
g5
Ntp278
Rp279
(dp280
g10
Nsg62
Nsg64
Nsg66
Nsg68
Nsg69
Nsg36
Nsg71
Nsg72
Nsg74
Nsg76
Nsg77
Nsg78
Nsg79
Nsg80
Nsg81
Nsg83
Nsg84
Nsg85
Nsg87
Nsg88
Nsg89
Nsg91
Vpenheartspaper
p281
sg93
Nsg94
Vpenheartspaper
p282
sg96
Nsg98
Nsg99
I1005371418
sg100
Nsbasg48
Nsg49
Nsg50
Nsg51
VJust ordered this print from @penheartspaper for my home and I can't wait to get it! by shaym http://t.co/vZeXoh4Gmv
p283
sg53
I00
sg54
Ven
p284
sg56
g3
(g57
g5
Ntp285
Rp286
(dp287
g10
VNYC
p288
sg62
V333333
p289
sg64
Ven
p290
sg66
VQuito
p291
sg68
I810
sg69
I320214
sg36
VSun Jun 19 01:46:03 +0000 2011
p292
sg71
I00
sg72
VAvid life enthusiast / nature lover / professional entrepreneur / Battery Park City resident / website monetizer - http://t.co/Sk4O6MJbdE
p293
sg74
Vhttps://pbs.twimg.com/profile_images/1452500114/beach7_normal.jpg
p294
sg76
I160
sg77
I1
sg78
I-18000
sg79
Nsg80
I00
sg81
Vhttps://pbs.twimg.com/profile_banners/319952443/1388539027
p295
sg83
I00
sg84
I00
sg85
V0084B4
p296
sg87
I00
sg88
I00
sg89
Vhttp://abs.twimg.com/images/themes/theme1/bg.png
p297
sg91
Vgoldminr
p298
sg93
I50
sg94
VBK
p299
sg96
VDDEEF6
p300
sg98
Nsg99
I319952443
sg100
VC0DEED
p301
sbsg102
I0
sg103
V<a href="http://ifttt.com" rel="nofollow">IFTTT</a>
p302
sg105
(lp303
g3
(g107
g5
Ntp304
Rp305
(dp306
g111
Vhttp://t.co/vZeXoh4Gmv
p307
sg113
Vhttp://ift.tt/1rYoQga
p308
sbasg99
I544211835885723649
sbag3
(g4
g5
Ntp309
Rp310
(dp311
g9
I0
sg10
Nsg11
Nsg12
(lp312
sg28
I00
sg29
Nsg30
Nsg31
(lp313
sg33
Nsg34
Nsg35
Nsg36
VSun Dec 14 19:25:50 +0000 2014
p314
sg38
Nsg39
I00
sg40
Nsg41
Nsg42
Nsg43
Nsg44
I00
sg45
Nsg46
(lp315
sg48
Nsg49
Nsg50
Nsg51
V"Big forearms. Soft hands. Long fingers. High hands. High-waisted. High pockets. High rear. Baby-faced.": Phrase... http://t.co/rJT0o64xBg
p316
sg53
I00
sg54
Ven
p317
sg56
g3
(g57
g5
Ntp318
Rp319
(dp320
g10
VNYC
p321
sg62
V333333
p322
sg64
Ven
p323
sg66
VQuito
p324
sg68
I810
sg69
I320214
sg36
VSun Jun 19 01:46:03 +0000 2011
p325
sg71
I00
sg72
VAvid life enthusiast / nature lover / professional entrepreneur / Battery Park City resident / website monetizer - http://t.co/Sk4O6MJbdE
p326
sg74
Vhttps://pbs.twimg.com/profile_images/1452500114/beach7_normal.jpg
p327
sg76
I160
sg77
I1
sg78
I-18000
sg79
Nsg80
I00
sg81
Vhttps://pbs.twimg.com/profile_banners/319952443/1388539027
p328
sg83
I00
sg84
I00
sg85
V0084B4
p329
sg87
I00
sg88
I00
sg89
Vhttp://abs.twimg.com/images/themes/theme1/bg.png
p330
sg91
Vgoldminr
p331
sg93
I50
sg94
VBK
p332
sg96
VDDEEF6
p333
sg98
Nsg99
I319952443
sg100
VC0DEED
p334
sbsg102
I0
sg103
V<a href="http://ifttt.com" rel="nofollow">IFTTT</a>
p335
sg105
(lp336
g3
(g107
g5
Ntp337
Rp338
(dp339
g111
Vhttp://t.co/rJT0o64xBg
p340
sg113
Vhttp://ift.tt/1p1cUvc
p341
sbasg99
I544211679777931265
sbag3
(g4
g5
Ntp342
Rp343
(dp344
g9
I0
sg10
Nsg11
Nsg12
(lp345
g3
(g14
g5
Ntp346
Rp347
(dp348
g18
VFoodPorn
p349
sbag3
(g14
g5
Ntp350
Rp351
(dp352
g18
Vfood
p353
sbasg28
I00
sg29
Nsg30
Nsg31
(lp354
sg33
Nsg34
Nsg35
Nsg36
VSun Dec 14 19:25:34 +0000 2014
p355
sg38
Nsg39
I00
sg40
Nsg41
Nsg42
Nsg43
Nsg44
I00
sg45
Nsg46
(lp356
sg48
Nsg49
Nsg50
Nsg51
VWhole steamed fish thai style [OC] [2591 x 1881] via /r/#FoodPorn #food http://t.co/LBeXH6WZxt
p357
sg53
I00
sg54
Ven
p358
sg56
g3
(g57
g5
Ntp359
Rp360
(dp361
g10
VNYC
p362
sg62
V333333
p363
sg64
Ven
p364
sg66
VQuito
p365
sg68
I810
sg69
I320214
sg36
VSun Jun 19 01:46:03 +0000 2011
p366
sg71
I00
sg72
VAvid life enthusiast / nature lover / professional entrepreneur / Battery Park City resident / website monetizer - http://t.co/Sk4O6MJbdE
p367
sg74
Vhttps://pbs.twimg.com/profile_images/1452500114/beach7_normal.jpg
p368
sg76
I160
sg77
I1
sg78
I-18000
sg79
Nsg80
I00
sg81
Vhttps://pbs.twimg.com/profile_banners/319952443/1388539027
p369
sg83
I00
sg84
I00
sg85
V0084B4
p370
sg87
I00
sg88
I00
sg89
Vhttp://abs.twimg.com/images/themes/theme1/bg.png
p371
sg91
Vgoldminr
p372
sg93
I50
sg94
VBK
p373
sg96
VDDEEF6
p374
sg98
Nsg99
I319952443
sg100
VC0DEED
p375
sbsg102
I1
sg103
V<a href="http://ifttt.com" rel="nofollow">IFTTT</a>
p376
sg105
(lp377
g3
(g107
g5
Ntp378
Rp379
(dp380
g111
Vhttp://t.co/LBeXH6WZxt
p381
sg113
Vhttp://ift.tt/1tIqeHN
p382
sbasg99
I544211614812348416
sbag3
(g4
g5
Ntp383
Rp384
(dp385
g9
I0
sg10
Nsg11
Nsg12
(lp386
g3
(g14
g5
Ntp387
Rp388
(dp389
g18
VFoodPorn
p390
sbag3
(g14
g5
Ntp391
Rp392
(dp393
g18
Vfood
p394
sbasg28
I00
sg29
Nsg30
Nsg31
(lp395
sg33
Nsg34
Nsg35
Nsg36
VSun Dec 14 19:25:34 +0000 2014
p396
sg38
Nsg39
I00
sg40
Nsg41
Nsg42
Nsg43
Nsg44
I00
sg45
Nsg46
(lp397
sg48
Nsg49
Nsg50
Nsg51
VEgg fries cheeseburger [1800x1200] via /r/#FoodPorn #food http://t.co/LBeXH6WZxt
p398
sg53
I00
sg54
Ven
p399
sg56
g3
(g57
g5
Ntp400
Rp401
(dp402
g10
VNYC
p403
sg62
V333333
p404
sg64
Ven
p405
sg66
VQuito
p406
sg68
I810
sg69
I320214
sg36
VSun Jun 19 01:46:03 +0000 2011
p407
sg71
I00
sg72
VAvid life enthusiast / nature lover / professional entrepreneur / Battery Park City resident / website monetizer - http://t.co/Sk4O6MJbdE
p408
sg74
Vhttps://pbs.twimg.com/profile_images/1452500114/beach7_normal.jpg
p409
sg76
I160
sg77
I1
sg78
I-18000
sg79
Nsg80
I00
sg81
Vhttps://pbs.twimg.com/profile_banners/319952443/1388539027
p410
sg83
I00
sg84
I00
sg85
V0084B4
p411
sg87
I00
sg88
I00
sg89
Vhttp://abs.twimg.com/images/themes/theme1/bg.png
p412
sg91
Vgoldminr
p413
sg93
I50
sg94
VBK
p414
sg96
VDDEEF6
p415
sg98
Nsg99
I319952443
sg100
VC0DEED
p416
sbsg102
I2
sg103
V<a href="http://ifttt.com" rel="nofollow">IFTTT</a>
p417
sg105
(lp418
g3
(g107
g5
Ntp419
Rp420
(dp421
g111
Vhttp://t.co/LBeXH6WZxt
p422
sg113
Vhttp://ift.tt/1tIqeHN
p423
sbasg99
I544211612694249473
sbag3
(g4
g5
Ntp424
Rp425
(dp426
g9
I0
sg10
Nsg11
Nsg12
(lp427
g3
(g14
g5
Ntp428
Rp429
(dp430
g18
VFoodPorn
p431
sbag3
(g14
g5
Ntp432
Rp433
(dp434
g18
Vfood
p435
sbasg28
I00
sg29
Nsg30
Nsg31
(lp436
sg33
Nsg34
Nsg35
Nsg36
VSun Dec 14 19:25:33 +0000 2014
p437
sg38
Nsg39
I00
sg40
Nsg41
Nsg42
Nsg43
Nsg44
I00
sg45
Nsg46
(lp438
sg48
Nsg49
Nsg50
Nsg51
VThe Messier The Better! Pulled Pork Sandwich for Breakfast [OC] [1836x2448] via /r/#FoodPorn #food http://t.co/LBeXH6WZxt
p439
sg53
I00
sg54
Ven
p440
sg56
g3
(g57
g5
Ntp441
Rp442
(dp443
g10
VNYC
p444
sg62
V333333
p445
sg64
Ven
p446
sg66
VQuito
p447
sg68
I810
sg69
I320214
sg36
VSun Jun 19 01:46:03 +0000 2011
p448
sg71
I00
sg72
VAvid life enthusiast / nature lover / professional entrepreneur / Battery Park City resident / website monetizer - http://t.co/Sk4O6MJbdE
p449
sg74
Vhttps://pbs.twimg.com/profile_images/1452500114/beach7_normal.jpg
p450
sg76
I160
sg77
I1
sg78
I-18000
sg79
Nsg80
I00
sg81
Vhttps://pbs.twimg.com/profile_banners/319952443/1388539027
p451
sg83
I00
sg84
I00
sg85
V0084B4
p452
sg87
I00
sg88
I00
sg89
Vhttp://abs.twimg.com/images/themes/theme1/bg.png
p453
sg91
Vgoldminr
p454
sg93
I50
sg94
VBK
p455
sg96
VDDEEF6
p456
sg98
Nsg99
I319952443
sg100
VC0DEED
p457
sbsg102
I1
sg103
V<a href="http://ifttt.com" rel="nofollow">IFTTT</a>
p458
sg105
(lp459
g3
(g107
g5
Ntp460
Rp461
(dp462
g111
Vhttp://t.co/LBeXH6WZxt
p463
sg113
Vhttp://ift.tt/1tIqeHN
p464
sbasg99
I544211610454491136
sbag3
(g4
g5
Ntp465
Rp466
(dp467
g9
I0
sg10
Nsg11
Nsg12
(lp468
sg28
I00
sg29
Nsg30
Nsg31
(lp469
sg33
Nsg34
Nsg35
Nsg36
VSun Dec 14 19:25:33 +0000 2014
p470
sg38
Nsg39
I00
sg40
Nsg41
Nsg42
Nsg43
Nsg44
I00
sg45
Nsg46
(lp471
sg48
Nsg49
Nsg50
Nsg51
VJust a casual afternoon snack: chatka (canned Russian king crab), hard boiled egg, pickles, chives, caviar, porc... http://t.co/LBeXH6WZxt
p472
sg53
I00
sg54
Ven
p473
sg56
g3
(g57
g5
Ntp474
Rp475
(dp476
g10
VNYC
p477
sg62
V333333
p478
sg64
Ven
p479
sg66
VQuito
p480
sg68
I810
sg69
I320214
sg36
VSun Jun 19 01:46:03 +0000 2011
p481
sg71
I00
sg72
VAvid life enthusiast / nature lover / professional entrepreneur / Battery Park City resident / website monetizer - http://t.co/Sk4O6MJbdE
p482
sg74
Vhttps://pbs.twimg.com/profile_images/1452500114/beach7_normal.jpg
p483
sg76
I160
sg77
I1
sg78
I-18000
sg79
Nsg80
I00
sg81
Vhttps://pbs.twimg.com/profile_banners/319952443/1388539027
p484
sg83
I00
sg84
I00
sg85
V0084B4
p485
sg87
I00
sg88
I00
sg89
Vhttp://abs.twimg.com/images/themes/theme1/bg.png
p486
sg91
Vgoldminr
p487
sg93
I50
sg94
VBK
p488
sg96
VDDEEF6
p489
sg98
Nsg99
I319952443
sg100
VC0DEED
p490
sbsg102
I0
sg103
V<a href="http://ifttt.com" rel="nofollow">IFTTT</a>
p491
sg105
(lp492
g3
(g107
g5
Ntp493
Rp494
(dp495
g111
Vhttp://t.co/LBeXH6WZxt
p496
sg113
Vhttp://ift.tt/1tIqeHN
p497
sbasg99
I544211608206319617
sbag3
(g4
g5
Ntp498
Rp499
(dp500
g9
I0
sg10
Nsg11
Nsg12
(lp501
g3
(g14
g5
Ntp502
Rp503
(dp504
g18
VFoodPorn
p505
sbag3
(g14
g5
Ntp506
Rp507
(dp508
g18
Vfood
p509
sbasg28
I00
sg29
Nsg30
Nsg31
(lp510
sg33
Nsg34
Nsg35
Nsg36
VSun Dec 14 19:25:32 +0000 2014
p511
sg38
Nsg39
I00
sg40
Nsg41
Nsg42
Nsg43
Nsg44
I00
sg45
Nsg46
(lp512
sg48
Nsg49
Nsg50
Nsg51
Vhow long meters kebap? [OS] [1200x676] via /r/#FoodPorn #food http://t.co/LBeXH6WZxt
p513
sg53
I00
sg54
Vin
p514
sg56
g3
(g57
g5
Ntp515
Rp516
(dp517
g10
VNYC
p518
sg62
V333333
p519
sg64
Ven
p520
sg66
VQuito
p521
sg68
I810
sg69
I320214
sg36
VSun Jun 19 01:46:03 +0000 2011
p522
sg71
I00
sg72
VAvid life enthusiast / nature lover / professional entrepreneur / Battery Park City resident / website monetizer - http://t.co/Sk4O6MJbdE
p523
sg74
Vhttps://pbs.twimg.com/profile_images/1452500114/beach7_normal.jpg
p524
sg76
I160
sg77
I1
sg78
I-18000
sg79
Nsg80
I00
sg81
Vhttps://pbs.twimg.com/profile_banners/319952443/1388539027
p525
sg83
I00
sg84
I00
sg85
V0084B4
p526
sg87
I00
sg88
I00
sg89
Vhttp://abs.twimg.com/images/themes/theme1/bg.png
p527
sg91
Vgoldminr
p528
sg93
I50
sg94
VBK
p529
sg96
VDDEEF6
p530
sg98
Nsg99
I319952443
sg100
VC0DEED
p531
sbsg102
I1
sg103
V<a href="http://ifttt.com" rel="nofollow">IFTTT</a>
p532
sg105
(lp533
g3
(g107
g5
Ntp534
Rp535
(dp536
g111
Vhttp://t.co/LBeXH6WZxt
p537
sg113
Vhttp://ift.tt/1tIqeHN
p538
sbasg99
I544211604154626048
sbag3
(g4
g5
Ntp539
Rp540
(dp541
g9
I0
sg10
Nsg11
Nsg12
(lp542
g3
(g14
g5
Ntp543
Rp544
(dp545
g18
Vsports
p546
sbasg28
I00
sg29
Nsg30
Nsg31
(lp547
sg33
Nsg34
Nsg35
Nsg36
VSun Dec 14 19:25:21 +0000 2014
p548
sg38
Nsg39
I00
sg40
Nsg41
Nsg42
Nsg43
Nsg44
I00
sg45
Nsg46
(lp549
sg48
Nsg49
Nsg50
Nsg51
V\u2018Doping allegations bad as Johnson\u2019 | http://t.co/eqLtiFkK0d via /r/#sports http://t.co/rJT0o64xBg
p550
sg53
I00
sg54
Ven
p551
sg56
g3
(g57
g5
Ntp552
Rp553
(dp554
g10
VNYC
p555
sg62
V333333
p556
sg64
Ven
p557
sg66
VQuito
p558
sg68
I810
sg69
I320214
sg36
VSun Jun 19 01:46:03 +0000 2011
p559
sg71
I00
sg72
VAvid life enthusiast / nature lover / professional entrepreneur / Battery Park City resident / website monetizer - http://t.co/Sk4O6MJbdE
p560
sg74
Vhttps://pbs.twimg.com/profile_images/1452500114/beach7_normal.jpg
p561
sg76
I160
sg77
I1
sg78
I-18000
sg79
Nsg80
I00
sg81
Vhttps://pbs.twimg.com/profile_banners/319952443/1388539027
p562
sg83
I00
sg84
I00
sg85
V0084B4
p563
sg87
I00
sg88
I00
sg89
Vhttp://abs.twimg.com/images/themes/theme1/bg.png
p564
sg91
Vgoldminr
p565
sg93
I50
sg94
VBK
p566
sg96
VDDEEF6
p567
sg98
Nsg99
I319952443
sg100
VC0DEED
p568
sbsg102
I0
sg103
V<a href="http://ifttt.com" rel="nofollow">IFTTT</a>
p569
sg105
(lp570
g3
(g107
g5
Ntp571
Rp572
(dp573
g111
Vhttp://t.co/eqLtiFkK0d
p574
sg113
Vhttp://RioterSports.com
p575
sbag3
(g107
g5
Ntp576
Rp577
(dp578
g111
Vhttp://t.co/rJT0o64xBg
p579
sg113
Vhttp://ift.tt/1p1cUvc
p580
sbasg99
I544211559246229504
sbag3
(g4
g5
Ntp581
Rp582
(dp583
g9
I0
sg10
Nsg11
Nsg12
(lp584
g3
(g14
g5
Ntp585
Rp586
(dp587
g18
Vcoffee
p588
sbag3
(g14
g5
Ntp589
Rp590
(dp591
g18
Vstarbucks
p592
sbag3
(g14
g5
Ntp593
Rp594
(dp595
g18
Vdun
p596
sbasg28
I00
sg29
Nsg30
Nsg31
(lp597
sg33
Nsg34
Nsg35
Nsg36
VSun Dec 14 19:23:13 +0000 2014
p598
sg38
Nsg39
I00
sg40
Nsg41
Nsg42
Nsg43
Nsg44
I00
sg45
Nsg46
(lp599
sg48
Nsg49
Nsg50
Nsg51
VWhat's the worst mistake you've made making coffee, before you've had any coffee? via /r/#coffee #starbucks #dun... http://t.co/tN3A9gzkWQ
p600
sg53
I00
sg54
Ven
p601
sg56
g3
(g57
g5
Ntp602
Rp603
(dp604
g10
VNYC
p605
sg62
V333333
p606
sg64
Ven
p607
sg66
VQuito
p608
sg68
I810
sg69
I320214
sg36
VSun Jun 19 01:46:03 +0000 2011
p609
sg71
I00
sg72
VAvid life enthusiast / nature lover / professional entrepreneur / Battery Park City resident / website monetizer - http://t.co/Sk4O6MJbdE
p610
sg74
Vhttps://pbs.twimg.com/profile_images/1452500114/beach7_normal.jpg
p611
sg76
I160
sg77
I1
sg78
I-18000
sg79
Nsg80
I00
sg81
Vhttps://pbs.twimg.com/profile_banners/319952443/1388539027
p612
sg83
I00
sg84
I00
sg85
V0084B4
p613
sg87
I00
sg88
I00
sg89
Vhttp://abs.twimg.com/images/themes/theme1/bg.png
p614
sg91
Vgoldminr
p615
sg93
I50
sg94
VBK
p616
sg96
VDDEEF6
p617
sg98
Nsg99
I319952443
sg100
VC0DEED
p618
sbsg102
I0
sg103
V<a href="http://ifttt.com" rel="nofollow">IFTTT</a>
p619
sg105
(lp620
g3
(g107
g5
Ntp621
Rp622
(dp623
g111
Vhttp://t.co/tN3A9gzkWQ
p624
sg113
Vhttp://ift.tt/1keodQt
p625
sbasg99
I544211022052331521
sbag3
(g4
g5
Ntp626
Rp627
(dp628
g9
I0
sg10
Nsg11
Nsg12
(lp629
sg28
I00
sg29
Nsg30
Nsg31
(lp630
sg33
Nsg34
Nsg35
Nsg36
VSun Dec 14 19:22:38 +0000 2014
p631
sg38
Nsg39
I00
sg40
Nsg41
Nsg42
Nsg43
Nsg44
I00
sg45
Nsg46
(lp632
sg48
Nsg49
Nsg50
Nsg51
V\U0001f355\U0001f355\U0001f355 \U0001f355\U0001f355\U0001f355\U0001f355\U0001f355\U0001f355\U0001f355\U0001f355\U0001f355\U0001f355\U0001f355step up yo pizza game hospy!!!!!!!!!!!!!!!!!!!! \U0001f355\U0001f355\U0001f355\U0001f355\U0001f355\U0001f355\U0001f355\U0001f355\U0001f355\U0001f355\U0001f355\U0001f355\U0001f355\U0001f355 by mileycyrus http://t.co/vZeXoh4Gmv
p633
sg53
I00
sg54
Ven
p634
sg56
g3
(g57
g5
Ntp635
Rp636
(dp637
g10
VNYC
p638
sg62
V333333
p639
sg64
Ven
p640
sg66
VQuito
p641
sg68
I810
sg69
I320214
sg36
VSun Jun 19 01:46:03 +0000 2011
p642
sg71
I00
sg72
VAvid life enthusiast / nature lover / professional entrepreneur / Battery Park City resident / website monetizer - http://t.co/Sk4O6MJbdE
p643
sg74
Vhttps://pbs.twimg.com/profile_images/1452500114/beach7_normal.jpg
p644
sg76
I160
sg77
I1
sg78
I-18000
sg79
Nsg80
I00
sg81
Vhttps://pbs.twimg.com/profile_banners/319952443/1388539027
p645
sg83
I00
sg84
I00
sg85
V0084B4
p646
sg87
I00
sg88
I00
sg89
Vhttp://abs.twimg.com/images/themes/theme1/bg.png
p647
sg91
Vgoldminr
p648
sg93
I50
sg94
VBK
p649
sg96
VDDEEF6
p650
sg98
Nsg99
I319952443
sg100
VC0DEED
p651
sbsg102
I0
sg103
V<a href="http://ifttt.com" rel="nofollow">IFTTT</a>
p652
sg105
(lp653
g3
(g107
g5
Ntp654
Rp655
(dp656
g111
Vhttp://t.co/vZeXoh4Gmv
p657
sg113
Vhttp://ift.tt/1rYoQga
p658
sbasg99
I544210877248208896
sbag3
(g4
g5
Ntp659
Rp660
(dp661
g9
I0
sg10
Nsg11
Nsg12
(lp662
sg28
I00
sg29
Nsg30
Nsg31
(lp663
sg33
Nsg34
Nsg35
Nsg36
VSun Dec 14 19:22:38 +0000 2014
p664
sg38
Nsg39
I00
sg40
Nsg41
Nsg42
Nsg43
Nsg44
I00
sg45
Nsg46
(lp665
sg48
Nsg49
Nsg50
Nsg51
Vgot all da puppies chillin takin care of theyyyyy mama \u2764\ufe0f\u2764\ufe0f\u2764\ufe0f by mileycyrus http://t.co/vZeXoh4Gmv
p666
sg53
I00
sg54
Ven
p667
sg56
g3
(g57
g5
Ntp668
Rp669
(dp670
g10
VNYC
p671
sg62
V333333
p672
sg64
Ven
p673
sg66
VQuito
p674
sg68
I810
sg69
I320214
sg36
VSun Jun 19 01:46:03 +0000 2011
p675
sg71
I00
sg72
VAvid life enthusiast / nature lover / professional entrepreneur / Battery Park City resident / website monetizer - http://t.co/Sk4O6MJbdE
p676
sg74
Vhttps://pbs.twimg.com/profile_images/1452500114/beach7_normal.jpg
p677
sg76
I160
sg77
I1
sg78
I-18000
sg79
Nsg80
I00
sg81
Vhttps://pbs.twimg.com/profile_banners/319952443/1388539027
p678
sg83
I00
sg84
I00
sg85
V0084B4
p679
sg87
I00
sg88
I00
sg89
Vhttp://abs.twimg.com/images/themes/theme1/bg.png
p680
sg91
Vgoldminr
p681
sg93
I50
sg94
VBK
p682
sg96
VDDEEF6
p683
sg98
Nsg99
I319952443
sg100
VC0DEED
p684
sbsg102
I0
sg103
V<a href="http://ifttt.com" rel="nofollow">IFTTT</a>
p685
sg105
(lp686
g3
(g107
g5
Ntp687
Rp688
(dp689
g111
Vhttp://t.co/vZeXoh4Gmv
p690
sg113
Vhttp://ift.tt/1rYoQga
p691
sbasg99
I544210875432046592
sbag3
(g4
g5
Ntp692
Rp693
(dp694
g9
I0
sg10
Nsg11
Nsg12
(lp695
sg28
I00
sg29
Nsg30
Nsg31
(lp696
sg33
Nsg34
Nsg35
Nsg36
VSun Dec 14 19:22:37 +0000 2014
p697
sg38
Nsg39
I00
sg40
Nsg41
Nsg42
Nsg43
Nsg44
I00
sg45
Nsg46
(lp698
sg48
Nsg49
Nsg50
Nsg51
Vby mileycyrus http://t.co/vZeXoh4Gmv
p699
sg53
I00
sg54
Ven
p700
sg56
g3
(g57
g5
Ntp701
Rp702
(dp703
g10
VNYC
p704
sg62
V333333
p705
sg64
Ven
p706
sg66
VQuito
p707
sg68
I810
sg69
I320214
sg36
VSun Jun 19 01:46:03 +0000 2011
p708
sg71
I00
sg72
VAvid life enthusiast / nature lover / professional entrepreneur / Battery Park City resident / website monetizer - http://t.co/Sk4O6MJbdE
p709
sg74
Vhttps://pbs.twimg.com/profile_images/1452500114/beach7_normal.jpg
p710
sg76
I160
sg77
I1
sg78
I-18000
sg79
Nsg80
I00
sg81
Vhttps://pbs.twimg.com/profile_banners/319952443/1388539027
p711
sg83
I00
sg84
I00
sg85
V0084B4
p712
sg87
I00
sg88
I00
sg89
Vhttp://abs.twimg.com/images/themes/theme1/bg.png
p713
sg91
Vgoldminr
p714
sg93
I50
sg94
VBK
p715
sg96
VDDEEF6
p716
sg98
Nsg99
I319952443
sg100
VC0DEED
p717
sbsg102
I0
sg103
V<a href="http://ifttt.com" rel="nofollow">IFTTT</a>
p718
sg105
(lp719
g3
(g107
g5
Ntp720
Rp721
(dp722
g111
Vhttp://t.co/vZeXoh4Gmv
p723
sg113
Vhttp://ift.tt/1rYoQga
p724
sbasg99
I544210873741766657
sbag3
(g4
g5
Ntp725
Rp726
(dp727
g9
I0
sg10
Nsg11
Nsg12
(lp728
sg28
I00
sg29
Nsg30
Nsg31
(lp729
sg33
Nsg34
Nsg35
Nsg36
VSun Dec 14 19:22:37 +0000 2014
p730
sg38
Nsg39
I00
sg40
Nsg41
Nsg42
Nsg43
Nsg44
I00
sg45
Nsg46
(lp731
sg48
Nsg49
Nsg50
Nsg51
Vthose 3 days I was off Instagram I got pregnant and went to rehab. I was am super busy sorry guys. I know how mu... http://t.co/vZeXoh4Gmv
p732
sg53
I00
sg54
Ven
p733
sg56
g3
(g57
g5
Ntp734
Rp735
(dp736
g10
VNYC
p737
sg62
V333333
p738
sg64
Ven
p739
sg66
VQuito
p740
sg68
I810
sg69
I320214
sg36
VSun Jun 19 01:46:03 +0000 2011
p741
sg71
I00
sg72
VAvid life enthusiast / nature lover / professional entrepreneur / Battery Park City resident / website monetizer - http://t.co/Sk4O6MJbdE
p742
sg74
Vhttps://pbs.twimg.com/profile_images/1452500114/beach7_normal.jpg
p743
sg76
I160
sg77
I1
sg78
I-18000
sg79
Nsg80
I00
sg81
Vhttps://pbs.twimg.com/profile_banners/319952443/1388539027
p744
sg83
I00
sg84
I00
sg85
V0084B4
p745
sg87
I00
sg88
I00
sg89
Vhttp://abs.twimg.com/images/themes/theme1/bg.png
p746
sg91
Vgoldminr
p747
sg93
I50
sg94
VBK
p748
sg96
VDDEEF6
p749
sg98
Nsg99
I319952443
sg100
VC0DEED
p750
sbsg102
I0
sg103
V<a href="http://ifttt.com" rel="nofollow">IFTTT</a>
p751
sg105
(lp752
g3
(g107
g5
Ntp753
Rp754
(dp755
g111
Vhttp://t.co/vZeXoh4Gmv
p756
sg113
Vhttp://ift.tt/1rYoQga
p757
sbasg99
I544210870117892097
sbag3
(g4
g5
Ntp758
Rp759
(dp760
g9
I0
sg10
Nsg11
Nsg12
(lp761
g3
(g14
g5
Ntp762
Rp763
(dp764
g18
Vsex
p765
sbag3
(g14
g5
Ntp766
Rp767
(dp768
g18
VTrojan
p769
sbag3
(g14
g5
Ntp770
Rp771
(dp772
g18
VKY
p773
sbasg28
I00
sg29
Nsg30
Nsg31
(lp774
sg33
Nsg34
Nsg35
Nsg36
VSun Dec 14 19:18:33 +0000 2014
p775
sg38
Nsg39
I00
sg40
Nsg41
Nsg42
Nsg43
Nsg44
I00
sg45
Nsg46
(lp776
sg48
Nsg49
Nsg50
Nsg51
VWomen of Reddit, need your advice via /r/#sex #Trojan #KY http://t.co/NTUDuTnGpO
p777
sg53
I00
sg54
Ven
p778
sg56
g3
(g57
g5
Ntp779
Rp780
(dp781
g10
VNYC
p782
sg62
V333333
p783
sg64
Ven
p784
sg66
VQuito
p785
sg68
I810
sg69
I320214
sg36
VSun Jun 19 01:46:03 +0000 2011
p786
sg71
I00
sg72
VAvid life enthusiast / nature lover / professional entrepreneur / Battery Park City resident / website monetizer - http://t.co/Sk4O6MJbdE
p787
sg74
Vhttps://pbs.twimg.com/profile_images/1452500114/beach7_normal.jpg
p788
sg76
I160
sg77
I1
sg78
I-18000
sg79
Nsg80
I00
sg81
Vhttps://pbs.twimg.com/profile_banners/319952443/1388539027
p789
sg83
I00
sg84
I00
sg85
V0084B4
p790
sg87
I00
sg88
I00
sg89
Vhttp://abs.twimg.com/images/themes/theme1/bg.png
p791
sg91
Vgoldminr
p792
sg93
I50
sg94
VBK
p793
sg96
VDDEEF6
p794
sg98
Nsg99
I319952443
sg100
VC0DEED
p795
sbsg102
I0
sg103
V<a href="http://ifttt.com" rel="nofollow">IFTTT</a>
p796
sg105
(lp797
g3
(g107
g5
Ntp798
Rp799
(dp800
g111
Vhttp://t.co/NTUDuTnGpO
p801
sg113
Vhttp://ift.tt/1keodQt
p802
sbasg99
I544209846631804928
sbag3
(g4
g5
Ntp803
Rp804
(dp805
g9
I0
sg10
Nsg11
Nsg12
(lp806
g3
(g14
g5
Ntp807
Rp808
(dp809
g18
Vtidycats
p810
sbag3
(g14
g5
Ntp811
Rp812
(dp813
g18
Vsciencediet
p814
sbasg28
I00
sg29
Nsg30
Nsg31
(lp815
sg33
Nsg34
Nsg35
Nsg36
VSun Dec 14 19:18:32 +0000 2014
p816
sg38
Nsg39
I00
sg40
Nsg41
Nsg42
Nsg43
Nsg44
I00
sg45
Nsg46
(lp817
sg48
Nsg49
Nsg50
Nsg51
VIs there anything else I can do to help my new cat not hate my dog? via /r/Pets #tidycats #sciencediet http://t.co/3ouTJAcIIX
p818
sg53
I00
sg54
Ven
p819
sg56
g3
(g57
g5
Ntp820
Rp821
(dp822
g10
VNYC
p823
sg62
V333333
p824
sg64
Ven
p825
sg66
VQuito
p826
sg68
I810
sg69
I320214
sg36
VSun Jun 19 01:46:03 +0000 2011
p827
sg71
I00
sg72
VAvid life enthusiast / nature lover / professional entrepreneur / Battery Park City resident / website monetizer - http://t.co/Sk4O6MJbdE
p828
sg74
Vhttps://pbs.twimg.com/profile_images/1452500114/beach7_normal.jpg
p829
sg76
I160
sg77
I1
sg78
I-18000
sg79
Nsg80
I00
sg81
Vhttps://pbs.twimg.com/profile_banners/319952443/1388539027
p830
sg83
I00
sg84
I00
sg85
V0084B4
p831
sg87
I00
sg88
I00
sg89
Vhttp://abs.twimg.com/images/themes/theme1/bg.png
p832
sg91
Vgoldminr
p833
sg93
I50
sg94
VBK
p834
sg96
VDDEEF6
p835
sg98
Nsg99
I319952443
sg100
VC0DEED
p836
sbsg102
I0
sg103
V<a href="http://ifttt.com" rel="nofollow">IFTTT</a>
p837
sg105
(lp838
g3
(g107
g5
Ntp839
Rp840
(dp841
g111
Vhttp://t.co/3ouTJAcIIX
p842
sg113
Vhttp://ift.tt/UJ0VX8
p843
sbasg99
I544209846053388288
sbaa.