(lp0
S'kymecuzulyzu'
p1
a(lp2
ccopy_reg
_reconstructor
p3
(ctwitter
Status
p4
c__builtin__
object
p5
Ntp6
Rp7
(dp8
S'_favorite_count'
p9
I0
sS'_location'
p10
NsS'_withheld_scope'
p11
NsS'hashtags'
p12
(lp13
sS'_truncated'
p14
I00
sS'_retweeted_status'
p15
NsS'_withheld_copyright'
p16
NsS'media'
p17
(lp18
sS'_place'
p19
NsS'_contributors'
p20
NsS'_current_user_retweet'
p21
NsS'_created_at'
p22
VSun Dec 14 20:33:50 +0000 2014
p23
sS'_scopes'
p24
NsS'_possibly_sensitive'
p25
NsS'_in_reply_to_screen_name'
p26
NsS'_coordinates'
p27
NsS'_in_reply_to_user_id'
p28
NsS'_geo'
p29
NsS'_favorited'
p30
I00
sS'_withheld_in_countries'
p31
NsS'user_mentions'
p32
(lp33
sS'_now'
p34
NsS'_id_str'
p35
V544228795247390720
p36
sS'_in_reply_to_status_id'
p37
NsS'_text'
p38
VCharacter contributes to beauty. It fortifies a woman as her youth fades. - Jacqueline Bisset
p39
sS'_retweeted'
p40
I00
sS'lang'
p41
Ven
p42
sS'_user'
p43
g3
(ctwitter
User
p44
g5
Ntp45
Rp46
(dp47
g10
V
p48
sS'_profile_text_color'
p49
V333333
p50
sS'_lang'
p51
Ven
p52
sS'_time_zone'
p53
NsS'_followers_count'
p54
I205
sS'_statuses_count'
p55
I3318
sg22
VMon Oct 14 17:17:40 +0000 2013
p56
sS'_verified'
p57
I00
sS'_description'
p58
VTotal zombie evangelist
p59
sS'_profile_image_url'
p60
Vhttps://pbs.twimg.com/profile_images/530743792500895744/Fxipy244_normal.png
p61
sS'_friends_count'
p62
I166
sS'_favourites_count'
p63
I0
sS'_utc_offset'
p64
NsS'_status'
p65
NsS'_protected'
p66
I00
sS'_profile_banner_url'
p67
NsS'_notifications'
p68
I00
sS'_profile_background_tile'
p69
I00
sS'_profile_link_color'
p70
V0099CC
p71
sS'_geo_enabled'
p72
I00
sS'_contributors_enabled'
p73
I00
sS'_profile_background_image_url'
p74
Vhttp://abs.twimg.com/images/themes/theme19/bg.gif
p75
sS'_screen_name'
p76
Vkymecuzulyzu
p77
sS'_listed_count'
p78
I0
sS'_name'
p79
VSenapati Schmidt
p80
sS'_profile_sidebar_fill_color'
p81
VF6FFD1
p82
sS'_url'
p83
NsS'_id'
p84
I1961070920
sS'_profile_background_color'
p85
VFFF04D
p86
sbsS'_retweet_count'
p87
I0
sS'_source'
p88
V<a href="http://twitter.com" rel="nofollow">Twitter Web Client</a>
p89
sS'urls'
p90
(lp91
sg84
I544228795247390720
sbag3
(g4
g5
Ntp92
Rp93
(dp94
g9
I0
sg10
Nsg11
Nsg12
(lp95
sg14
I00
sg15
Nsg16
Nsg17
(lp96
sg19
Nsg20
Nsg21
Nsg22
VSun Dec 14 20:30:26 +0000 2014
p97
sg24
Nsg25
Nsg26
Nsg27
Nsg28
Nsg29
Nsg30
I00
sg31
Nsg32
(lp98
sg34
Nsg35
V544227938632081408
p99
sg37
Nsg38
VJerry Garcia~ Whats been great about the human race gives you a sense of how great you might get how far you can reach.
p100
sg40
I00
sg41
Ven
p101
sg43
g3
(g44
g5
Ntp102
Rp103
(dp104
g10
g48
sg49
V333333
p105
sg51
Ven
p106
sg53
Nsg54
I205
sg55
I3318
sg22
VMon Oct 14 17:17:40 +0000 2013
p107
sg57
I00
sg58
VTotal zombie evangelist
p108
sg60
Vhttps://pbs.twimg.com/profile_images/530743792500895744/Fxipy244_normal.png
p109
sg62
I166
sg63
I0
sg64
Nsg65
Nsg66
I00
sg67
Nsg68
I00
sg69
I00
sg70
V0099CC
p110
sg72
I00
sg73
I00
sg74
Vhttp://abs.twimg.com/images/themes/theme19/bg.gif
p111
sg76
Vkymecuzulyzu
p112
sg78
I0
sg79
VSenapati Schmidt
p113
sg81
VF6FFD1
p114
sg83
Nsg84
I1961070920
sg85
VFFF04D
p115
sbsg87
I0
sg88
V<a href="http://twitter.com" rel="nofollow">Twitter Web Client</a>
p116
sg90
(lp117
sg84
I544227938632081408
sbag3
(g4
g5
Ntp118
Rp119
(dp120
g9
I0
sg10
Nsg11
Nsg12
(lp121
sg14
I00
sg15
Nsg16
Nsg17
(lp122
sg19
Nsg20
Nsg21
Nsg22
VSun Dec 14 20:27:23 +0000 2014
p123
sg24
Nsg25
Nsg26
Nsg27
Nsg28
Nsg29
Nsg30
I00
sg31
Nsg32
(lp124
sg34
Nsg35
V544227170042654720
p125
sg37
Nsg38
VChinese Proverb~ If you always give You will always have.
p126
sg40
I00
sg41
Ven
p127
sg43
g3
(g44
g5
Ntp128
Rp129
(dp130
g10
g48
sg49
V333333
p131
sg51
Ven
p132
sg53
Nsg54
I205
sg55
I3318
sg22
VMon Oct 14 17:17:40 +0000 2013
p133
sg57
I00
sg58
VTotal zombie evangelist
p134
sg60
Vhttps://pbs.twimg.com/profile_images/530743792500895744/Fxipy244_normal.png
p135
sg62
I166
sg63
I0
sg64
Nsg65
Nsg66
I00
sg67
Nsg68
I00
sg69
I00
sg70
V0099CC
p136
sg72
I00
sg73
I00
sg74
Vhttp://abs.twimg.com/images/themes/theme19/bg.gif
p137
sg76
Vkymecuzulyzu
p138
sg78
I0
sg79
VSenapati Schmidt
p139
sg81
VF6FFD1
p140
sg83
Nsg84
I1961070920
sg85
VFFF04D
p141
sbsg87
I0
sg88
V<a href="http://twitter.com" rel="nofollow">Twitter Web Client</a>
p142
sg90
(lp143
sg84
I544227170042654720
sbag3
(g4
g5
Ntp144
Rp145
(dp146
g9
I0
sg10
Nsg11
Nsg12
(lp147
sg14
I00
sg15
Nsg16
Nsg17
(lp148
sg19
Nsg20
Nsg21
Nsg22
VSun Dec 14 20:23:22 +0000 2014
p149
sg24
Nsg25
Nsg26
Nsg27
Nsg28
Nsg29
Nsg30
I00
sg31
Nsg32
(lp150
sg34
Nsg35
V544226160784056321
p151
sg37
Nsg38
VJoseph P. Thompson~ Real glory springs from the silent conquest of ourselves.
p152
sg40
I00
sg41
Ven
p153
sg43
g3
(g44
g5
Ntp154
Rp155
(dp156
g10
g48
sg49
V333333
p157
sg51
Ven
p158
sg53
Nsg54
I205
sg55
I3318
sg22
VMon Oct 14 17:17:40 +0000 2013
p159
sg57
I00
sg58
VTotal zombie evangelist
p160
sg60
Vhttps://pbs.twimg.com/profile_images/530743792500895744/Fxipy244_normal.png
p161
sg62
I166
sg63
I0
sg64
Nsg65
Nsg66
I00
sg67
Nsg68
I00
sg69
I00
sg70
V0099CC
p162
sg72
I00
sg73
I00
sg74
Vhttp://abs.twimg.com/images/themes/theme19/bg.gif
p163
sg76
Vkymecuzulyzu
p164
sg78
I0
sg79
VSenapati Schmidt
p165
sg81
VF6FFD1
p166
sg83
Nsg84
I1961070920
sg85
VFFF04D
p167
sbsg87
I0
sg88
V<a href="http://twitter.com" rel="nofollow">Twitter Web Client</a>
p168
sg90
(lp169
sg84
I544226160784056321
sbag3
(g4
g5
Ntp170
Rp171
(dp172
g9
I0
sg10
Nsg11
Nsg12
(lp173
sg14
I00
sg15
Nsg16
Nsg17
(lp174
sg19
Nsg20
Nsg21
Nsg22
VSun Dec 14 20:19:55 +0000 2014
p175
sg24
Nsg25
Nsg26
Nsg27
Nsg28
Nsg29
Nsg30
I00
sg31
Nsg32
(lp176
sg34
Nsg35
V544225291464232960
p177
sg37
Nsg38
VDaniel Patrick Moynihan~ The issue of race could benefit from a period of benign neglect.
p178
sg40
I00
sg41
Ven
p179
sg43
g3
(g44
g5
Ntp180
Rp181
(dp182
g10
g48
sg49
V333333
p183
sg51
Ven
p184
sg53
Nsg54
I205
sg55
I3318
sg22
VMon Oct 14 17:17:40 +0000 2013
p185
sg57
I00
sg58
VTotal zombie evangelist
p186
sg60
Vhttps://pbs.twimg.com/profile_images/530743792500895744/Fxipy244_normal.png
p187
sg62
I166
sg63
I0
sg64
Nsg65
Nsg66
I00
sg67
Nsg68
I00
sg69
I00
sg70
V0099CC
p188
sg72
I00
sg73
I00
sg74
Vhttp://abs.twimg.com/images/themes/theme19/bg.gif
p189
sg76
Vkymecuzulyzu
p190
sg78
I0
sg79
VSenapati Schmidt
p191
sg81
VF6FFD1
p192
sg83
Nsg84
I1961070920
sg85
VFFF04D
p193
sbsg87
I0
sg88
V<a href="http://twitter.com" rel="nofollow">Twitter Web Client</a>
p194
sg90
(lp195
sg84
I544225291464232960
sbag3
(g4
g5
Ntp196
Rp197
(dp198
g9
I0
sg10
Nsg11
Nsg12
(lp199
sg14
I00
sg15
Nsg16
Nsg17
(lp200
sg19
Nsg20
Nsg21
Nsg22
VSun Dec 14 20:16:50 +0000 2014
p201
sg24
Nsg25
Nsg26
Nsg27
Nsg28
Nsg29
Nsg30
I00
sg31
Nsg32
(lp202
sg34
Nsg35
V544224517418008577
p203
sg37
Nsg38
VRight now I'm having amnesia and deja vu at the same time. I think I've forgotten this before.
p204
sg40
I00
sg41
Ven
p205
sg43
g3
(g44
g5
Ntp206
Rp207
(dp208
g10
g48
sg49
V333333
p209
sg51
Ven
p210
sg53
Nsg54
I205
sg55
I3318
sg22
VMon Oct 14 17:17:40 +0000 2013
p211
sg57
I00
sg58
VTotal zombie evangelist
p212
sg60
Vhttps://pbs.twimg.com/profile_images/530743792500895744/Fxipy244_normal.png
p213
sg62
I166
sg63
I0
sg64
Nsg65
Nsg66
I00
sg67
Nsg68
I00
sg69
I00
sg70
V0099CC
p214
sg72
I00
sg73
I00
sg74
Vhttp://abs.twimg.com/images/themes/theme19/bg.gif
p215
sg76
Vkymecuzulyzu
p216
sg78
I0
sg79
VSenapati Schmidt
p217
sg81
VF6FFD1
p218
sg83
Nsg84
I1961070920
sg85
VFFF04D
p219
sbsg87
I0
sg88
V<a href="http://twitter.com" rel="nofollow">Twitter Web Client</a>
p220
sg90
(lp221
sg84
I544224517418008577
sbag3
(g4
g5
Ntp222
Rp223
(dp224
g9
I0
sg10
Nsg11
Nsg12
(lp225
sg14
I00
sg15
Nsg16
Nsg17
(lp226
sg19
Nsg20
Nsg21
Nsg22
VSun Dec 14 20:12:43 +0000 2014
p227
sg24
Nsg25
I00
sg26
VManiSaucKariina
p228
sg27
Nsg28
I1423807346
sg29
Nsg30
I00
sg31
Nsg32
(lp229
g3
(g44
g5
Ntp230
Rp231
(dp232
g10
Nsg49
Nsg51
Nsg53
Nsg54
Nsg55
Nsg22
Nsg57
Nsg58
Nsg60
Nsg62
Nsg63
Nsg64
Nsg65
Nsg66
Nsg67
Nsg68
Nsg69
Nsg70
Nsg72
Nsg73
Nsg74
Nsg76
VManiSaucKariina
p233
sg78
Nsg79
VKar\u012bna Limora \u2020
p234
sg81
Nsg83
Nsg84
I1423807346
sg85
Nsbasg34
Nsg35
V544223480648966144
p235
sg37
I544219733588201473
sg38
V@ManiSaucKariina Get Holiday blues coping skills https://t.co/J7IJVxF4k7
p236
sg40
I00
sg41
Ven
p237
sg43
g3
(g44
g5
Ntp238
Rp239
(dp240
g10
g48
sg49
V333333
p241
sg51
Ven
p242
sg53
Nsg54
I205
sg55
I3318
sg22
VMon Oct 14 17:17:40 +0000 2013
p243
sg57
I00
sg58
VTotal zombie evangelist
p244
sg60
Vhttps://pbs.twimg.com/profile_images/530743792500895744/Fxipy244_normal.png
p245
sg62
I166
sg63
I0
sg64
Nsg65
Nsg66
I00
sg67
Nsg68
I00
sg69
I00
sg70
V0099CC
p246
sg72
I00
sg73
I00
sg74
Vhttp://abs.twimg.com/images/themes/theme19/bg.gif
p247
sg76
Vkymecuzulyzu
p248
sg78
I0
sg79
VSenapati Schmidt
p249
sg81
VF6FFD1
p250
sg83
Nsg84
I1961070920
sg85
VFFF04D
p251
sbsg87
I0
sg88
V<a href="http://twitter.com" rel="nofollow">Twitter Web Client</a>
p252
sg90
(lp253
g3
(ctwitter
Url
p254
g5
Ntp255
Rp256
(dp257
S'url'
p258
Vhttps://t.co/J7IJVxF4k7
p259
sS'expanded_url'
p260
Vhttps://holiday-blues.com/?=tgd
p261
sbasg84
I544223480648966144
sbag3
(g4
g5
Ntp262
Rp263
(dp264
g9
I0
sg10
Nsg11
Nsg12
(lp265
sg14
I00
sg15
Nsg16
Nsg17
(lp266
sg19
Nsg20
Nsg21
Nsg22
VSun Dec 14 20:07:42 +0000 2014
p267
sg24
Nsg25
Nsg26
Nsg27
Nsg28
Nsg29
Nsg30
I00
sg31
Nsg32
(lp268
sg34
Nsg35
V544222216875827200
p269
sg37
Nsg38
VMark Twain~ I was gratified to be able to answer promptly. I said I dont know.
p270
sg40
I00
sg41
Ven
p271
sg43
g3
(g44
g5
Ntp272
Rp273
(dp274
g10
g48
sg49
V333333
p275
sg51
Ven
p276
sg53
Nsg54
I205
sg55
I3318
sg22
VMon Oct 14 17:17:40 +0000 2013
p277
sg57
I00
sg58
VTotal zombie evangelist
p278
sg60
Vhttps://pbs.twimg.com/profile_images/530743792500895744/Fxipy244_normal.png
p279
sg62
I166
sg63
I0
sg64
Nsg65
Nsg66
I00
sg67
Nsg68
I00
sg69
I00
sg70
V0099CC
p280
sg72
I00
sg73
I00
sg74
Vhttp://abs.twimg.com/images/themes/theme19/bg.gif
p281
sg76
Vkymecuzulyzu
p282
sg78
I0
sg79
VSenapati Schmidt
p283
sg81
VF6FFD1
p284
sg83
Nsg84
I1961070920
sg85
VFFF04D
p285
sbsg87
I0
sg88
V<a href="http://twitter.com" rel="nofollow">Twitter Web Client</a>
p286
sg90
(lp287
sg84
I544222216875827200
sbag3
(g4
g5
Ntp288
Rp289
(dp290
g9
I0
sg10
Nsg11
Nsg12
(lp291
sg14
I00
sg15
Nsg16
Nsg17
(lp292
sg19
Nsg20
Nsg21
Nsg22
VSun Dec 14 20:04:26 +0000 2014
p293
sg24
Nsg25
Nsg26
Nsg27
Nsg28
Nsg29
Nsg30
I00
sg31
Nsg32
(lp294
sg34
Nsg35
V544221393978548224
p295
sg37
Nsg38
VJ. Michael Straczynski~ The quality of our thoughts is bordered on all sides by our facility with language.
p296
sg40
I00
sg41
Ven
p297
sg43
g3
(g44
g5
Ntp298
Rp299
(dp300
g10
g48
sg49
V333333
p301
sg51
Ven
p302
sg53
Nsg54
I205
sg55
I3318
sg22
VMon Oct 14 17:17:40 +0000 2013
p303
sg57
I00
sg58
VTotal zombie evangelist
p304
sg60
Vhttps://pbs.twimg.com/profile_images/530743792500895744/Fxipy244_normal.png
p305
sg62
I166
sg63
I0
sg64
Nsg65
Nsg66
I00
sg67
Nsg68
I00
sg69
I00
sg70
V0099CC
p306
sg72
I00
sg73
I00
sg74
Vhttp://abs.twimg.com/images/themes/theme19/bg.gif
p307
sg76
Vkymecuzulyzu
p308
sg78
I0
sg79
VSenapati Schmidt
p309
sg81
VF6FFD1
p310
sg83
Nsg84
I1961070920
sg85
VFFF04D
p311
sbsg87
I0
sg88
V<a href="http://twitter.com" rel="nofollow">Twitter Web Client</a>
p312
sg90
(lp313
sg84
I544221393978548224
sbag3
(g4
g5
Ntp314
Rp315
(dp316
g9
I0
sg10
Nsg11
Nsg12
(lp317
sg14
I00
sg15
Nsg16
Nsg17
(lp318
sg19
Nsg20
Nsg21
Nsg22
VSun Dec 14 20:01:13 +0000 2014
p319
sg24
Nsg25
Nsg26
Nsg27
Nsg28
Nsg29
Nsg30
I00
sg31
Nsg32
(lp320
sg34
Nsg35
V544220587455819777
p321
sg37
Nsg38
VFailure is the opportunity to begin again, more intelligently. -Henry Ford
p322
sg40
I00
sg41
Ven
p323
sg43
g3
(g44
g5
Ntp324
Rp325
(dp326
g10
g48
sg49
V333333
p327
sg51
Ven
p328
sg53
Nsg54
I205
sg55
I3318
sg22
VMon Oct 14 17:17:40 +0000 2013
p329
sg57
I00
sg58
VTotal zombie evangelist
p330
sg60
Vhttps://pbs.twimg.com/profile_images/530743792500895744/Fxipy244_normal.png
p331
sg62
I166
sg63
I0
sg64
Nsg65
Nsg66
I00
sg67
Nsg68
I00
sg69
I00
sg70
V0099CC
p332
sg72
I00
sg73
I00
sg74
Vhttp://abs.twimg.com/images/themes/theme19/bg.gif
p333
sg76
Vkymecuzulyzu
p334
sg78
I0
sg79
VSenapati Schmidt
p335
sg81
VF6FFD1
p336
sg83
Nsg84
I1961070920
sg85
VFFF04D
p337
sbsg87
I0
sg88
V<a href="http://twitter.com" rel="nofollow">Twitter Web Client</a>
p338
sg90
(lp339
sg84
I544220587455819777
sbag3
(g4
g5
Ntp340
Rp341
(dp342
g9
I0
sg10
Nsg11
Nsg12
(lp343
sg14
I00
sg15
Nsg16
Nsg17
(lp344
sg19
Nsg20
Nsg21
Nsg22
VSun Dec 14 19:58:01 +0000 2014
p345
sg24
Nsg25
I00
sg26
V_bkaelynne
p346
sg27
Nsg28
I1562484085
sg29
Nsg30
I00
sg31
Nsg32
(lp347
g3
(g44
g5
Ntp348
Rp349
(dp350
g10
Nsg49
Nsg51
Nsg53
Nsg54
Nsg55
Nsg22
Nsg57
Nsg58
Nsg60
Nsg62
Nsg63
Nsg64
Nsg65
Nsg66
Nsg67
Nsg68
Nsg69
Nsg70
Nsg72
Nsg73
Nsg74
Nsg76
V_bkaelynne
p351
sg78
Nsg79
VBrianna Kaelynne \u2655
p352
sg81
Nsg83
Nsg84
I1562484085
sg85
Nsbasg34
Nsg35
V544219781331550209
p353
sg37
I544216002079113216
sg38
V@_bkaelynne Get Holiday stress coping skills https://t.co/iXqnwhQKCR
p354
sg40
I00
sg41
Ven
p355
sg43
g3
(g44
g5
Ntp356
Rp357
(dp358
g10
g48
sg49
V333333
p359
sg51
Ven
p360
sg53
Nsg54
I205
sg55
I3318
sg22
VMon Oct 14 17:17:40 +0000 2013
p361
sg57
I00
sg58
VTotal zombie evangelist
p362
sg60
Vhttps://pbs.twimg.com/profile_images/530743792500895744/Fxipy244_normal.png
p363
sg62
I166
sg63
I0
sg64
Nsg65
Nsg66
I00
sg67
Nsg68
I00
sg69
I00
sg70
V0099CC
p364
sg72
I00
sg73
I00
sg74
Vhttp://abs.twimg.com/images/themes/theme19/bg.gif
p365
sg76
Vkymecuzulyzu
p366
sg78
I0
sg79
VSenapati Schmidt
p367
sg81
VF6FFD1
p368
sg83
Nsg84
I1961070920
sg85
VFFF04D
p369
sbsg87
I0
sg88
V<a href="http://twitter.com" rel="nofollow">Twitter Web Client</a>
p370
sg90
(lp371
g3
(g254
g5
Ntp372
Rp373
(dp374
g258
Vhttps://t.co/iXqnwhQKCR
p375
sg260
Vhttps://holiday-blues.com/?=afucbsi
p376
sbasg84
I544219781331550209
sbag3
(g4
g5
Ntp377
Rp378
(dp379
g9
I0
sg10
Nsg11
Nsg12
(lp380
sg14
I00
sg15
Nsg16
Nsg17
(lp381
sg19
Nsg20
Nsg21
Nsg22
VSun Dec 14 19:54:16 +0000 2014
p382
sg24
Nsg25
Nsg26
Nsg27
Nsg28
Nsg29
Nsg30
I00
sg31
Nsg32
(lp383
sg34
Nsg35
V544218835130130432
p384
sg37
Nsg38
VShunryu Suzuki~ When you understand one thing through and through you understand everything.
p385
sg40
I00
sg41
Ven
p386
sg43
g3
(g44
g5
Ntp387
Rp388
(dp389
g10
g48
sg49
V333333
p390
sg51
Ven
p391
sg53
Nsg54
I205
sg55
I3318
sg22
VMon Oct 14 17:17:40 +0000 2013
p392
sg57
I00
sg58
VTotal zombie evangelist
p393
sg60
Vhttps://pbs.twimg.com/profile_images/530743792500895744/Fxipy244_normal.png
p394
sg62
I166
sg63
I0
sg64
Nsg65
Nsg66
I00
sg67
Nsg68
I00
sg69
I00
sg70
V0099CC
p395
sg72
I00
sg73
I00
sg74
Vhttp://abs.twimg.com/images/themes/theme19/bg.gif
p396
sg76
Vkymecuzulyzu
p397
sg78
I0
sg79
VSenapati Schmidt
p398
sg81
VF6FFD1
p399
sg83
Nsg84
I1961070920
sg85
VFFF04D
p400
sbsg87
I0
sg88
V<a href="http://twitter.com" rel="nofollow">Twitter Web Client</a>
p401
sg90
(lp402
sg84
I544218835130130432
sbag3
(g4
g5
Ntp403
Rp404
(dp405
g9
I0
sg10
Nsg11
Nsg12
(lp406
sg14
I00
sg15
Nsg16
Nsg17
(lp407
sg19
Nsg20
Nsg21
Nsg22
VSun Dec 14 19:50:58 +0000 2014
p408
sg24
Nsg25
Nsg26
Nsg27
Nsg28
Nsg29
Nsg30
I00
sg31
Nsg32
(lp409
sg34
Nsg35
V544218007757520896
p410
sg37
Nsg38
VNo Jesus - No Love. Know Jesus - Know Love.
p411
sg40
I00
sg41
Ven
p412
sg43
g3
(g44
g5
Ntp413
Rp414
(dp415
g10
g48
sg49
V333333
p416
sg51
Ven
p417
sg53
Nsg54
I205
sg55
I3318
sg22
VMon Oct 14 17:17:40 +0000 2013
p418
sg57
I00
sg58
VTotal zombie evangelist
p419
sg60
Vhttps://pbs.twimg.com/profile_images/530743792500895744/Fxipy244_normal.png
p420
sg62
I166
sg63
I0
sg64
Nsg65
Nsg66
I00
sg67
Nsg68
I00
sg69
I00
sg70
V0099CC
p421
sg72
I00
sg73
I00
sg74
Vhttp://abs.twimg.com/images/themes/theme19/bg.gif
p422
sg76
Vkymecuzulyzu
p423
sg78
I0
sg79
VSenapati Schmidt
p424
sg81
VF6FFD1
p425
sg83
Nsg84
I1961070920
sg85
VFFF04D
p426
sbsg87
I0
sg88
V<a href="http://twitter.com" rel="nofollow">Twitter Web Client</a>
p427
sg90
(lp428
sg84
I544218007757520896
sbag3
(g4
g5
Ntp429
Rp430
(dp431
g9
I0
sg10
Nsg11
Nsg12
(lp432
sg14
I00
sg15
Nsg16
Nsg17
(lp433
sg19
Nsg20
Nsg21
Nsg22
VSun Dec 14 19:47:11 +0000 2014
p434
sg24
Nsg25
Nsg26
Nsg27
Nsg28
Nsg29
Nsg30
I00
sg31
Nsg32
(lp435
sg34
Nsg35
V544217054425780225
p436
sg37
Nsg38
VJacob Braude~ Theres no fool like an old fool - - you cant beat experience.
p437
sg40
I00
sg41
Ven
p438
sg43
g3
(g44
g5
Ntp439
Rp440
(dp441
g10
g48
sg49
V333333
p442
sg51
Ven
p443
sg53
Nsg54
I205
sg55
I3318
sg22
VMon Oct 14 17:17:40 +0000 2013
p444
sg57
I00
sg58
VTotal zombie evangelist
p445
sg60
Vhttps://pbs.twimg.com/profile_images/530743792500895744/Fxipy244_normal.png
p446
sg62
I166
sg63
I0
sg64
Nsg65
Nsg66
I00
sg67
Nsg68
I00
sg69
I00
sg70
V0099CC
p447
sg72
I00
sg73
I00
sg74
Vhttp://abs.twimg.com/images/themes/theme19/bg.gif
p448
sg76
Vkymecuzulyzu
p449
sg78
I0
sg79
VSenapati Schmidt
p450
sg81
VF6FFD1
p451
sg83
Nsg84
I1961070920
sg85
VFFF04D
p452
sbsg87
I0
sg88
V<a href="http://twitter.com" rel="nofollow">Twitter Web Client</a>
p453
sg90
(lp454
sg84
I544217054425780225
sbag3
(g4
g5
Ntp455
Rp456
(dp457
g9
I0
sg10
Nsg11
Nsg12
(lp458
sg14
I00
sg15
Nsg16
Nsg17
(lp459
sg19
Nsg20
Nsg21
Nsg22
VSun Dec 14 19:43:06 +0000 2014
p460
sg24
Nsg25
I00
sg26
Vjro21568
p461
sg27
Nsg28
I137893649
sg29
Nsg30
I00
sg31
Nsg32
(lp462
g3
(g44
g5
Ntp463
Rp464
(dp465
g10
Nsg49
Nsg51
Nsg53
Nsg54
Nsg55
Nsg22
Nsg57
Nsg58
Nsg60
Nsg62
Nsg63
Nsg64
Nsg65
Nsg66
Nsg67
Nsg68
Nsg69
Nsg70
Nsg72
Nsg73
Nsg74
Nsg76
Vjro21568
p466
sg78
Nsg79
VMr. O
p467
sg81
Nsg83
Nsg84
I137893649
sg85
Nsbasg34
Nsg35
V544216026225729537
p468
sg37
I544212490469797888
sg38
V@jro21568 Free video reveals how to enjoy the holidays \ufffd finally https://t.co/fybVJE174Q
p469
sg40
I00
sg41
Ven
p470
sg43
g3
(g44
g5
Ntp471
Rp472
(dp473
g10
g48
sg49
V333333
p474
sg51
Ven
p475
sg53
Nsg54
I205
sg55
I3318
sg22
VMon Oct 14 17:17:40 +0000 2013
p476
sg57
I00
sg58
VTotal zombie evangelist
p477
sg60
Vhttps://pbs.twimg.com/profile_images/530743792500895744/Fxipy244_normal.png
p478
sg62
I166
sg63
I0
sg64
Nsg65
Nsg66
I00
sg67
Nsg68
I00
sg69
I00
sg70
V0099CC
p479
sg72
I00
sg73
I00
sg74
Vhttp://abs.twimg.com/images/themes/theme19/bg.gif
p480
sg76
Vkymecuzulyzu
p481
sg78
I0
sg79
VSenapati Schmidt
p482
sg81
VF6FFD1
p483
sg83
Nsg84
I1961070920
sg85
VFFF04D
p484
sbsg87
I0
sg88
V<a href="http://twitter.com" rel="nofollow">Twitter Web Client</a>
p485
sg90
(lp486
g3
(g254
g5
Ntp487
Rp488
(dp489
g258
Vhttps://t.co/fybVJE174Q
p490
sg260
Vhttps://holiday-blues.com/?=aeiacizqk
p491
sbasg84
I544216026225729537
sbag3
(g4
g5
Ntp492
Rp493
(dp494
g9
I0
sg10
Nsg11
Nsg12
(lp495
sg14
I00
sg15
Nsg16
Nsg17
(lp496
sg19
Nsg20
Nsg21
Nsg22
VSun Dec 14 19:39:59 +0000 2014
p497
sg24
Nsg25
Nsg26
Nsg27
Nsg28
Nsg29
Nsg30
I00
sg31
Nsg32
(lp498
sg34
Nsg35
V544215241962176512
p499
sg37
Nsg38
VVictor Daniels~ We must learn to tailor our concepts to fit reality instead of trying to stuff reality into our concepts.
p500
sg40
I00
sg41
Ven
p501
sg43
g3
(g44
g5
Ntp502
Rp503
(dp504
g10
g48
sg49
V333333
p505
sg51
Ven
p506
sg53
Nsg54
I205
sg55
I3318
sg22
VMon Oct 14 17:17:40 +0000 2013
p507
sg57
I00
sg58
VTotal zombie evangelist
p508
sg60
Vhttps://pbs.twimg.com/profile_images/530743792500895744/Fxipy244_normal.png
p509
sg62
I166
sg63
I0
sg64
Nsg65
Nsg66
I00
sg67
Nsg68
I00
sg69
I00
sg70
V0099CC
p510
sg72
I00
sg73
I00
sg74
Vhttp://abs.twimg.com/images/themes/theme19/bg.gif
p511
sg76
Vkymecuzulyzu
p512
sg78
I0
sg79
VSenapati Schmidt
p513
sg81
VF6FFD1
p514
sg83
Nsg84
I1961070920
sg85
VFFF04D
p515
sbsg87
I0
sg88
V<a href="http://twitter.com" rel="nofollow">Twitter Web Client</a>
p516
sg90
(lp517
sg84
I544215241962176512
sbag3
(g4
g5
Ntp518
Rp519
(dp520
g9
I0
sg10
Nsg11
Nsg12
(lp521
sg14
I00
sg15
Nsg16
Nsg17
(lp522
sg19
Nsg20
Nsg21
Nsg22
VSun Dec 14 19:36:30 +0000 2014
p523
sg24
Nsg25
Nsg26
Nsg27
Nsg28
Nsg29
Nsg30
I00
sg31
Nsg32
(lp524
sg34
Nsg35
V544214364413120513
p525
sg37
Nsg38
VFalling in love is awfully simple. Falling out of love is simply awfull.
p526
sg40
I00
sg41
Ven
p527
sg43
g3
(g44
g5
Ntp528
Rp529
(dp530
g10
g48
sg49
V333333
p531
sg51
Ven
p532
sg53
Nsg54
I205
sg55
I3318
sg22
VMon Oct 14 17:17:40 +0000 2013
p533
sg57
I00
sg58
VTotal zombie evangelist
p534
sg60
Vhttps://pbs.twimg.com/profile_images/530743792500895744/Fxipy244_normal.png
p535
sg62
I166
sg63
I0
sg64
Nsg65
Nsg66
I00
sg67
Nsg68
I00
sg69
I00
sg70
V0099CC
p536
sg72
I00
sg73
I00
sg74
Vhttp://abs.twimg.com/images/themes/theme19/bg.gif
p537
sg76
Vkymecuzulyzu
p538
sg78
I0
sg79
VSenapati Schmidt
p539
sg81
VF6FFD1
p540
sg83
Nsg84
I1961070920
sg85
VFFF04D
p541
sbsg87
I0
sg88
V<a href="http://twitter.com" rel="nofollow">Twitter Web Client</a>
p542
sg90
(lp543
sg84
I544214364413120513
sbag3
(g4
g5
Ntp544
Rp545
(dp546
g9
I0
sg10
Nsg11
Nsg12
(lp547
sg14
I00
sg15
Nsg16
Nsg17
(lp548
sg19
Nsg20
Nsg21
Nsg22
VSun Dec 14 19:32:39 +0000 2014
p549
sg24
Nsg25
Nsg26
Nsg27
Nsg28
Nsg29
Nsg30
I00
sg31
Nsg32
(lp550
sg34
Nsg35
V544213398762692608
p551
sg37
Nsg38
VA computer scientist is someone who fixes things that aren't broken.
p552
sg40
I00
sg41
Ven
p553
sg43
g3
(g44
g5
Ntp554
Rp555
(dp556
g10
g48
sg49
V333333
p557
sg51
Ven
p558
sg53
Nsg54
I205
sg55
I3318
sg22
VMon Oct 14 17:17:40 +0000 2013
p559
sg57
I00
sg58
VTotal zombie evangelist
p560
sg60
Vhttps://pbs.twimg.com/profile_images/530743792500895744/Fxipy244_normal.png
p561
sg62
I166
sg63
I0
sg64
Nsg65
Nsg66
I00
sg67
Nsg68
I00
sg69
I00
sg70
V0099CC
p562
sg72
I00
sg73
I00
sg74
Vhttp://abs.twimg.com/images/themes/theme19/bg.gif
p563
sg76
Vkymecuzulyzu
p564
sg78
I0
sg79
VSenapati Schmidt
p565
sg81
VF6FFD1
p566
sg83
Nsg84
I1961070920
sg85
VFFF04D
p567
sbsg87
I0
sg88
V<a href="http://twitter.com" rel="nofollow">Twitter Web Client</a>
p568
sg90
(lp569
sg84
I544213398762692608
sbag3
(g4
g5
Ntp570
Rp571
(dp572
g9
I0
sg10
Nsg11
Nsg12
(lp573
sg14
I00
sg15
Nsg16
Nsg17
(lp574
sg19
Nsg20
Nsg21
Nsg22
VSun Dec 14 19:29:16 +0000 2014
p575
sg24
Nsg25
I00
sg26
Vzvcktherapper
p576
sg27
Nsg28
I339281226
sg29
Nsg30
I00
sg31
Nsg32
(lp577
g3
(g44
g5
Ntp578
Rp579
(dp580
g10
Nsg49
Nsg51
Nsg53
Nsg54
Nsg55
Nsg22
Nsg57
Nsg58
Nsg60
Nsg62
Nsg63
Nsg64
Nsg65
Nsg66
Nsg67
Nsg68
Nsg69
Nsg70
Nsg72
Nsg73
Nsg74
Nsg76
Vzvcktherapper
p581
sg78
Nsg79
VBadmon
p582
sg81
Nsg83
Nsg84
I339281226
sg85
Nsbasg34
Nsg35
V544212546626928640
p583
sg37
I544208839717834752
sg38
V@zvcktherapper Get Holiday depression help https://t.co/3t6tQFjgai
p584
sg40
I00
sg41
Ven
p585
sg43
g3
(g44
g5
Ntp586
Rp587
(dp588
g10
g48
sg49
V333333
p589
sg51
Ven
p590
sg53
Nsg54
I205
sg55
I3318
sg22
VMon Oct 14 17:17:40 +0000 2013
p591
sg57
I00
sg58
VTotal zombie evangelist
p592
sg60
Vhttps://pbs.twimg.com/profile_images/530743792500895744/Fxipy244_normal.png
p593
sg62
I166
sg63
I0
sg64
Nsg65
Nsg66
I00
sg67
Nsg68
I00
sg69
I00
sg70
V0099CC
p594
sg72
I00
sg73
I00
sg74
Vhttp://abs.twimg.com/images/themes/theme19/bg.gif
p595
sg76
Vkymecuzulyzu
p596
sg78
I0
sg79
VSenapati Schmidt
p597
sg81
VF6FFD1
p598
sg83
Nsg84
I1961070920
sg85
VFFF04D
p599
sbsg87
I0
sg88
V<a href="http://twitter.com" rel="nofollow">Twitter Web Client</a>
p600
sg90
(lp601
g3
(g254
g5
Ntp602
Rp603
(dp604
g258
Vhttps://t.co/3t6tQFjgai
p605
sg260
Vhttps://holiday-blues.com/?=wgjj
p606
sbasg84
I544212546626928640
sbag3
(g4
g5
Ntp607
Rp608
(dp609
g9
I0
sg10
Nsg11
Nsg12
(lp610
sg14
I00
sg15
Nsg16
Nsg17
(lp611
sg19
Nsg20
Nsg21
Nsg22
VSun Dec 14 19:25:49 +0000 2014
p612
sg24
Nsg25
Nsg26
Nsg27
Nsg28
Nsg29
Nsg30
I00
sg31
Nsg32
(lp613
sg34
Nsg35
V544211677458096128
p614
sg37
Nsg38
VLin Yutang~ This I conceive to be the chemical function of humor to change the character of our thought.
p615
sg40
I00
sg41
Ven
p616
sg43
g3
(g44
g5
Ntp617
Rp618
(dp619
g10
g48
sg49
V333333
p620
sg51
Ven
p621
sg53
Nsg54
I205
sg55
I3318
sg22
VMon Oct 14 17:17:40 +0000 2013
p622
sg57
I00
sg58
VTotal zombie evangelist
p623
sg60
Vhttps://pbs.twimg.com/profile_images/530743792500895744/Fxipy244_normal.png
p624
sg62
I166
sg63
I0
sg64
Nsg65
Nsg66
I00
sg67
Nsg68
I00
sg69
I00
sg70
V0099CC
p625
sg72
I00
sg73
I00
sg74
Vhttp://abs.twimg.com/images/themes/theme19/bg.gif
p626
sg76
Vkymecuzulyzu
p627
sg78
I0
sg79
VSenapati Schmidt
p628
sg81
VF6FFD1
p629
sg83
Nsg84
I1961070920
sg85
VFFF04D
p630
sbsg87
I0
sg88
V<a href="http://twitter.com" rel="nofollow">Twitter Web Client</a>
p631
sg90
(lp632
sg84
I544211677458096128
sbaa.