(lp0
S'RVAmericaInc'
p1
a(lp2
ccopy_reg
_reconstructor
p3
(ctwitter
Status
p4
c__builtin__
object
p5
Ntp6
Rp7
(dp8
S'_favorite_count'
p9
I0
sS'_location'
p10
NsS'_withheld_scope'
p11
NsS'hashtags'
p12
(lp13
sS'_truncated'
p14
I00
sS'_retweeted_status'
p15
NsS'_withheld_copyright'
p16
NsS'media'
p17
(lp18
(dp19
Vexpanded_url
p20
Vhttp://twitter.com/RVAmericaInc/status/543427958401409025/photo/1
p21
sVdisplay_url
p22
Vpic.twitter.com/nZxc4lYIca
p23
sVurl
p24
Vhttp://t.co/nZxc4lYIca
p25
sVmedia_url_https
p26
Vhttps://pbs.twimg.com/media/B4qk2TaCcAACIUM.jpg
p27
sVid_str
p28
V543427957880942592
p29
sVsizes
p30
(dp31
Vsmall
p32
(dp33
Vh
p34
I477
sVresize
p35
Vfit
p36
sVw
p37
I340
ssVlarge
p38
(dp39
Vh
p40
I657
sVresize
p41
Vfit
p42
sVw
p43
I468
ssVmedium
p44
(dp45
Vh
p46
I657
sVresize
p47
Vfit
p48
sVw
p49
I468
ssVthumb
p50
(dp51
Vh
p52
I150
sVresize
p53
Vcrop
p54
sVw
p55
I150
sssVindices
p56
(lp57
I94
aI116
asVtype
p58
Vphoto
p59
sVid
p60
I543427957880942592
sVmedia_url
p61
Vhttp://pbs.twimg.com/media/B4qk2TaCcAACIUM.jpg
p62
sasS'_place'
p63
NsS'_contributors'
p64
NsS'_current_user_retweet'
p65
NsS'_created_at'
p66
VFri Dec 12 15:31:36 +0000 2014
p67
sS'_scopes'
p68
NsS'_possibly_sensitive'
p69
I00
sS'_in_reply_to_screen_name'
p70
NsS'_coordinates'
p71
NsS'_in_reply_to_user_id'
p72
NsS'_geo'
p73
NsS'_favorited'
p74
I00
sS'_withheld_in_countries'
p75
NsS'user_mentions'
p76
(lp77
sS'_now'
p78
NsS'_id_str'
p79
V543427958401409025
p80
sS'_in_reply_to_status_id'
p81
NsS'_text'
p82
VHere are some accessories that are sure to enhance your RV experience: http://t.co/jUURWSmIw0 http://t.co/nZxc4lYIca
p83
sS'_retweeted'
p84
I00
sS'lang'
p85
Ven
p86
sS'_user'
p87
g3
(ctwitter
User
p88
g5
Ntp89
Rp90
(dp91
g10
VDenver, CO
p92
sS'_profile_text_color'
p93
V333333
p94
sS'_lang'
p95
Ven
p96
sS'_time_zone'
p97
VMountain Time (US & Canada)
p98
sS'_followers_count'
p99
I562
sS'_statuses_count'
p100
I1102
sg66
VThu Oct 20 17:46:39 +0000 2011
p101
sS'_verified'
p102
I00
sS'_description'
p103
VRV sales, maintenance, parts and rentals in Denver and surrounding areas. Start your outdoor adventure today.
p104
sS'_profile_image_url'
p105
Vhttps://pbs.twimg.com/profile_images/1598190002/rv.america.logo_nbkgd2_normal.jpg
p106
sS'_friends_count'
p107
I480
sS'_favourites_count'
p108
I8
sS'_utc_offset'
p109
I-25200
sS'_status'
p110
NsS'_protected'
p111
I00
sS'_profile_banner_url'
p112
Vhttps://pbs.twimg.com/profile_banners/394824303/1399042852
p113
sS'_notifications'
p114
I00
sS'_profile_background_tile'
p115
I01
sS'_profile_link_color'
p116
V009999
p117
sS'_geo_enabled'
p118
I01
sS'_contributors_enabled'
p119
I00
sS'_profile_background_image_url'
p120
Vhttp://pbs.twimg.com/profile_background_images/349889011/usa-2-stars-stripes.jpg
p121
sS'_screen_name'
p122
VRVAmericaInc
p123
sS'_listed_count'
p124
I8
sS'_name'
p125
VRVAmericaInc
p126
sS'_profile_sidebar_fill_color'
p127
VEFEFEF
p128
sS'_url'
p129
Vhttp://t.co/kNblS5UtpV
p130
sS'_id'
p131
I394824303
sS'_profile_background_color'
p132
V131516
p133
sbsS'_retweet_count'
p134
I0
sS'_source'
p135
V<a href="http://www.hootsuite.com" rel="nofollow">Hootsuite</a>
p136
sS'urls'
p137
(lp138
g3
(ctwitter
Url
p139
g5
Ntp140
Rp141
(dp142
S'url'
p143
Vhttp://t.co/jUURWSmIw0
p144
sS'expanded_url'
p145
Vhttp://goo.gl/ILYCMK
p146
sbasg131
I543427958401409025
sbag3
(g4
g5
Ntp147
Rp148
(dp149
g9
I0
sg10
Nsg11
Nsg12
(lp150
sg14
I00
sg15
Nsg16
Nsg17
(lp151
sg63
Nsg64
Nsg65
Nsg66
VFri Dec 12 15:30:32 +0000 2014
p152
sg68
Nsg69
I00
sg70
Nsg71
Nsg72
Nsg73
Nsg74
I00
sg75
Nsg76
(lp153
sg78
Nsg79
V543427690481455104
p154
sg81
Nsg82
VAt RV America, Inc., we understand how important an RV purchase is. To make the most of your purchase, here are... http://t.co/Ybvbla6owX
p155
sg84
I00
sg85
Ven
p156
sg87
g3
(g88
g5
Ntp157
Rp158
(dp159
g10
VDenver, CO
p160
sg93
V333333
p161
sg95
Ven
p162
sg97
VMountain Time (US & Canada)
p163
sg99
I562
sg100
I1102
sg66
VThu Oct 20 17:46:39 +0000 2011
p164
sg102
I00
sg103
VRV sales, maintenance, parts and rentals in Denver and surrounding areas. Start your outdoor adventure today.
p165
sg105
Vhttps://pbs.twimg.com/profile_images/1598190002/rv.america.logo_nbkgd2_normal.jpg
p166
sg107
I480
sg108
I8
sg109
I-25200
sg110
Nsg111
I00
sg112
Vhttps://pbs.twimg.com/profile_banners/394824303/1399042852
p167
sg114
I00
sg115
I01
sg116
V009999
p168
sg118
I01
sg119
I00
sg120
Vhttp://pbs.twimg.com/profile_background_images/349889011/usa-2-stars-stripes.jpg
p169
sg122
VRVAmericaInc
p170
sg124
I8
sg125
VRVAmericaInc
p171
sg127
VEFEFEF
p172
sg129
Vhttp://t.co/kNblS5UtpV
p173
sg131
I394824303
sg132
V131516
p174
sbsg134
I0
sg135
V<a href="http://www.facebook.com/twitter" rel="nofollow">Facebook</a>
p175
sg137
(lp176
g3
(g139
g5
Ntp177
Rp178
(dp179
g143
Vhttp://t.co/Ybvbla6owX
p180
sg145
Vhttp://fb.me/466LWWgfQ
p181
sbasg131
I543427690481455104
sbag3
(g4
g5
Ntp182
Rp183
(dp184
g9
I0
sg10
Nsg11
Nsg12
(lp185
sg14
I00
sg15
Nsg16
Nsg17
(lp186
(dp187
Vexpanded_url
p188
Vhttp://twitter.com/RVAmericaInc/status/543070918999048192/photo/1
p189
sVdisplay_url
p190
Vpic.twitter.com/o9hRVL2kj5
p191
sVurl
p192
Vhttp://t.co/o9hRVL2kj5
p193
sVmedia_url_https
p194
Vhttps://pbs.twimg.com/media/B4lgH3sCAAMVMUw.jpg
p195
sVid_str
p196
V543070918398836739
p197
sVsizes
p198
(dp199
Vlarge
p200
(dp201
Vh
p202
I376
sVresize
p203
Vfit
p204
sVw
p205
I400
ssVsmall
p206
(dp207
Vh
p208
I319
sVresize
p209
Vfit
p210
sVw
p211
I340
ssVmedium
p212
(dp213
Vh
p214
I376
sVresize
p215
Vfit
p216
sVw
p217
I400
ssVthumb
p218
(dp219
Vh
p220
I150
sVresize
p221
Vcrop
p222
sVw
p223
I150
sssVindices
p224
(lp225
I118
aI140
asVtype
p226
Vphoto
p227
sVid
p228
I543070918398836739
sVmedia_url
p229
Vhttp://pbs.twimg.com/media/B4lgH3sCAAMVMUw.jpg
p230
sasg63
Nsg64
Nsg65
Nsg66
VThu Dec 11 15:52:51 +0000 2014
p231
sg68
Nsg69
I00
sg70
Nsg71
Nsg72
Nsg73
Nsg74
I00
sg75
Nsg76
(lp232
sg78
Nsg79
V543070918999048192
p233
sg81
Nsg82
VAre you purchasing an RV? Protect your investment with insurance. Browse insurance plans here: http://t.co/SOqgKpaxrr http://t.co/o9hRVL2kj5
p234
sg84
I00
sg85
Ven
p235
sg87
g3
(g88
g5
Ntp236
Rp237
(dp238
g10
VDenver, CO
p239
sg93
V333333
p240
sg95
Ven
p241
sg97
VMountain Time (US & Canada)
p242
sg99
I562
sg100
I1102
sg66
VThu Oct 20 17:46:39 +0000 2011
p243
sg102
I00
sg103
VRV sales, maintenance, parts and rentals in Denver and surrounding areas. Start your outdoor adventure today.
p244
sg105
Vhttps://pbs.twimg.com/profile_images/1598190002/rv.america.logo_nbkgd2_normal.jpg
p245
sg107
I480
sg108
I8
sg109
I-25200
sg110
Nsg111
I00
sg112
Vhttps://pbs.twimg.com/profile_banners/394824303/1399042852
p246
sg114
I00
sg115
I01
sg116
V009999
p247
sg118
I01
sg119
I00
sg120
Vhttp://pbs.twimg.com/profile_background_images/349889011/usa-2-stars-stripes.jpg
p248
sg122
VRVAmericaInc
p249
sg124
I8
sg125
VRVAmericaInc
p250
sg127
VEFEFEF
p251
sg129
Vhttp://t.co/kNblS5UtpV
p252
sg131
I394824303
sg132
V131516
p253
sbsg134
I0
sg135
V<a href="http://www.hootsuite.com" rel="nofollow">Hootsuite</a>
p254
sg137
(lp255
g3
(g139
g5
Ntp256
Rp257
(dp258
g143
Vhttp://t.co/SOqgKpaxrr
p259
sg145
Vhttp://goo.gl/V6UXLY
p260
sbasg131
I543070918999048192
sbag3
(g4
g5
Ntp261
Rp262
(dp263
g9
I0
sg10
Nsg11
Nsg12
(lp264
sg14
I00
sg15
Nsg16
Nsg17
(lp265
sg63
Nsg64
Nsg65
Nsg66
VThu Dec 11 14:00:04 +0000 2014
p266
sg68
Nsg69
I00
sg70
Nsg71
Nsg72
Nsg73
Nsg74
I00
sg75
Nsg76
(lp267
sg78
Nsg79
V543042534856228864
p268
sg81
Nsg82
VAre you considering an RV purchase? If so, protect your investment with insurance. Click here to find out which... http://t.co/12wbDUZXgU
p269
sg84
I00
sg85
Ven
p270
sg87
g3
(g88
g5
Ntp271
Rp272
(dp273
g10
VDenver, CO
p274
sg93
V333333
p275
sg95
Ven
p276
sg97
VMountain Time (US & Canada)
p277
sg99
I562
sg100
I1102
sg66
VThu Oct 20 17:46:39 +0000 2011
p278
sg102
I00
sg103
VRV sales, maintenance, parts and rentals in Denver and surrounding areas. Start your outdoor adventure today.
p279
sg105
Vhttps://pbs.twimg.com/profile_images/1598190002/rv.america.logo_nbkgd2_normal.jpg
p280
sg107
I480
sg108
I8
sg109
I-25200
sg110
Nsg111
I00
sg112
Vhttps://pbs.twimg.com/profile_banners/394824303/1399042852
p281
sg114
I00
sg115
I01
sg116
V009999
p282
sg118
I01
sg119
I00
sg120
Vhttp://pbs.twimg.com/profile_background_images/349889011/usa-2-stars-stripes.jpg
p283
sg122
VRVAmericaInc
p284
sg124
I8
sg125
VRVAmericaInc
p285
sg127
VEFEFEF
p286
sg129
Vhttp://t.co/kNblS5UtpV
p287
sg131
I394824303
sg132
V131516
p288
sbsg134
I0
sg135
V<a href="http://www.facebook.com/twitter" rel="nofollow">Facebook</a>
p289
sg137
(lp290
g3
(g139
g5
Ntp291
Rp292
(dp293
g143
Vhttp://t.co/12wbDUZXgU
p294
sg145
Vhttp://fb.me/3iokZARdi
p295
sbasg131
I543042534856228864
sbag3
(g4
g5
Ntp296
Rp297
(dp298
g9
I0
sg10
Nsg11
Nsg12
(lp299
sg14
I00
sg15
Nsg16
Nsg17
(lp300
(dp301
Vexpanded_url
p302
Vhttp://twitter.com/RVAmericaInc/status/542726086569000961/photo/1
p303
sVdisplay_url
p304
Vpic.twitter.com/Wx7clxPAFi
p305
sVurl
p306
Vhttp://t.co/Wx7clxPAFi
p307
sVmedia_url_https
p308
Vhttps://pbs.twimg.com/media/B4gmf_RIUAEu8_S.jpg
p309
sVid_str
p310
V542726086099226625
p311
sVsizes
p312
(dp313
Vsmall
p314
(dp315
Vh
p316
I340
sVresize
p317
Vfit
p318
sVw
p319
I340
ssVlarge
p320
(dp321
Vh
p322
I712
sVresize
p323
Vfit
p324
sVw
p325
I710
ssVmedium
p326
(dp327
Vh
p328
I601
sVresize
p329
Vfit
p330
sVw
p331
I600
ssVthumb
p332
(dp333
Vh
p334
I150
sVresize
p335
Vcrop
p336
sVw
p337
I150
sssVindices
p338
(lp339
I116
aI138
asVtype
p340
Vphoto
p341
sVid
p342
I542726086099226625
sVmedia_url
p343
Vhttp://pbs.twimg.com/media/B4gmf_RIUAEu8_S.jpg
p344
sasg63
Nsg64
Nsg65
Nsg66
VWed Dec 10 17:02:37 +0000 2014
p345
sg68
Nsg69
I00
sg70
Nsg71
Nsg72
Nsg73
Nsg74
I00
sg75
Nsg76
(lp346
sg78
Nsg79
V542726086569000961
p347
sg81
Nsg82
VThis year, give the gift the keeps giving all year long. Click here to browse our inventory: http://t.co/J8bycz7PDJ http://t.co/Wx7clxPAFi
p348
sg84
I00
sg85
Ven
p349
sg87
g3
(g88
g5
Ntp350
Rp351
(dp352
g10
VDenver, CO
p353
sg93
V333333
p354
sg95
Ven
p355
sg97
VMountain Time (US & Canada)
p356
sg99
I562
sg100
I1102
sg66
VThu Oct 20 17:46:39 +0000 2011
p357
sg102
I00
sg103
VRV sales, maintenance, parts and rentals in Denver and surrounding areas. Start your outdoor adventure today.
p358
sg105
Vhttps://pbs.twimg.com/profile_images/1598190002/rv.america.logo_nbkgd2_normal.jpg
p359
sg107
I480
sg108
I8
sg109
I-25200
sg110
Nsg111
I00
sg112
Vhttps://pbs.twimg.com/profile_banners/394824303/1399042852
p360
sg114
I00
sg115
I01
sg116
V009999
p361
sg118
I01
sg119
I00
sg120
Vhttp://pbs.twimg.com/profile_background_images/349889011/usa-2-stars-stripes.jpg
p362
sg122
VRVAmericaInc
p363
sg124
I8
sg125
VRVAmericaInc
p364
sg127
VEFEFEF
p365
sg129
Vhttp://t.co/kNblS5UtpV
p366
sg131
I394824303
sg132
V131516
p367
sbsg134
I0
sg135
V<a href="http://www.hootsuite.com" rel="nofollow">Hootsuite</a>
p368
sg137
(lp369
g3
(g139
g5
Ntp370
Rp371
(dp372
g143
Vhttp://t.co/J8bycz7PDJ
p373
sg145
Vhttp://goo.gl/Qf4XaW
p374
sbasg131
I542726086569000961
sbag3
(g4
g5
Ntp375
Rp376
(dp377
g9
I0
sg10
Nsg11
Nsg12
(lp378
g3
(ctwitter
Hashtag
p379
g5
Ntp380
Rp381
(dp382
S'text'
p383
VTipTuesday
p384
sbasg14
I00
sg15
Nsg16
Nsg17
(lp385
(dp386
Vexpanded_url
p387
Vhttp://twitter.com/RVAmericaInc/status/542363614905372673/photo/1
p388
sVdisplay_url
p389
Vpic.twitter.com/3tx1686Wp8
p390
sVurl
p391
Vhttp://t.co/3tx1686Wp8
p392
sVmedia_url_https
p393
Vhttps://pbs.twimg.com/media/B4bc1XEIAAAtXnp.jpg
p394
sVid_str
p395
V542363614427217920
p396
sVsizes
p397
(dp398
Vlarge
p399
(dp400
Vh
p401
I704
sVresize
p402
Vfit
p403
sVw
p404
I708
ssVsmall
p405
(dp406
Vh
p407
I338
sVresize
p408
Vfit
p409
sVw
p410
I340
ssVmedium
p411
(dp412
Vh
p413
I596
sVresize
p414
Vfit
p415
sVw
p416
I600
ssVthumb
p417
(dp418
Vh
p419
I150
sVresize
p420
Vcrop
p421
sVw
p422
I150
sssVindices
p423
(lp424
I111
aI133
asVtype
p425
Vphoto
p426
sVid
p427
I542363614427217920
sVmedia_url
p428
Vhttp://pbs.twimg.com/media/B4bc1XEIAAAtXnp.jpg
p429
sasg63
Nsg64
Nsg65
Nsg66
VTue Dec 09 17:02:17 +0000 2014
p430
sg68
Nsg69
I00
sg70
Nsg71
Nsg72
Nsg73
Nsg74
I00
sg75
Nsg76
(lp431
sg78
Nsg79
V542363614905372673
p432
sg81
Nsg82
V#TipTuesday Are you braving the cold in your RV this winter? Be sure to insulate windows with foam insulation. http://t.co/3tx1686Wp8
p433
sg84
I00
sg85
Ven
p434
sg87
g3
(g88
g5
Ntp435
Rp436
(dp437
g10
VDenver, CO
p438
sg93
V333333
p439
sg95
Ven
p440
sg97
VMountain Time (US & Canada)
p441
sg99
I562
sg100
I1102
sg66
VThu Oct 20 17:46:39 +0000 2011
p442
sg102
I00
sg103
VRV sales, maintenance, parts and rentals in Denver and surrounding areas. Start your outdoor adventure today.
p443
sg105
Vhttps://pbs.twimg.com/profile_images/1598190002/rv.america.logo_nbkgd2_normal.jpg
p444
sg107
I480
sg108
I8
sg109
I-25200
sg110
Nsg111
I00
sg112
Vhttps://pbs.twimg.com/profile_banners/394824303/1399042852
p445
sg114
I00
sg115
I01
sg116
V009999
p446
sg118
I01
sg119
I00
sg120
Vhttp://pbs.twimg.com/profile_background_images/349889011/usa-2-stars-stripes.jpg
p447
sg122
VRVAmericaInc
p448
sg124
I8
sg125
VRVAmericaInc
p449
sg127
VEFEFEF
p450
sg129
Vhttp://t.co/kNblS5UtpV
p451
sg131
I394824303
sg132
V131516
p452
sbsg134
I0
sg135
V<a href="http://www.hootsuite.com" rel="nofollow">Hootsuite</a>
p453
sg137
(lp454
sg131
I542363614905372673
sbag3
(g4
g5
Ntp455
Rp456
(dp457
g9
I0
sg10
Nsg11
Nsg12
(lp458
g3
(g379
g5
Ntp459
Rp460
(dp461
g383
VThingsRVersSay
p462
sbag3
(g379
g5
Ntp463
Rp464
(dp465
g383
VGoRVing
p466
sbasg14
I00
sg15
g3
(g4
g5
Ntp467
Rp468
(dp469
g9
I8
sg10
Nsg11
Nsg12
(lp470
g3
(g379
g5
Ntp471
Rp472
(dp473
g383
VThingsRVersSay
p474
sbag3
(g379
g5
Ntp475
Rp476
(dp477
g383
VGoRVing
p478
sbasg14
I00
sg15
Nsg16
Nsg17
(lp479
(dp480
Vexpanded_url
p481
Vhttp://twitter.com/GoRVing/status/542001598126628864/photo/1
p482
sVdisplay_url
p483
Vpic.twitter.com/TQBcvS1Nw8
p484
sVurl
p485
Vhttp://t.co/TQBcvS1Nw8
p486
sVmedia_url_https
p487
Vhttps://pbs.twimg.com/media/B4WTlJYIUAAVVsN.jpg
p488
sVid_str
p489
V542001596549582848
p490
sVsizes
p491
(dp492
Vsmall
p493
(dp494
Vh
p495
I226
sVresize
p496
Vfit
p497
sVw
p498
I340
ssVlarge
p499
(dp500
Vh
p501
I682
sVresize
p502
Vfit
p503
sVw
p504
I1024
ssVmedium
p505
(dp506
Vh
p507
I400
sVresize
p508
Vfit
p509
sVw
p510
I600
ssVthumb
p511
(dp512
Vh
p513
I150
sVresize
p514
Vcrop
p515
sVw
p516
I150
sssVindices
p517
(lp518
I43
aI65
asVtype
p519
Vphoto
p520
sVid
p521
I542001596549582848
sVmedia_url
p522
Vhttp://pbs.twimg.com/media/B4WTlJYIUAAVVsN.jpg
p523
sasg63
Nsg64
Nsg65
Nsg66
VMon Dec 08 17:03:45 +0000 2014
p524
sg68
Nsg69
I00
sg70
Nsg71
Nsg72
Nsg73
Nsg74
I00
sg75
Nsg76
(lp525
sg78
Nsg79
V542001598126628864
p526
sg81
Nsg82
VAdventure awaits. #ThingsRVersSay #GoRVing http://t.co/TQBcvS1Nw8
p527
sg84
I00
sg85
Ven
p528
sg87
g3
(g88
g5
Ntp529
Rp530
(dp531
g10
V
p532
sg93
V333333
p533
sg95
Ven
p534
sg97
VEastern Time (US & Canada)
p535
sg99
I8719
sg100
I1757
sg66
VFri Mar 20 19:53:34 +0000 2009
p536
sg102
I00
sg103
VCurrent RVers, RV dreamers, and happy campers - follow us for RV tips, news, contests, and inspiration from Go RVing bloggers. See you on the road!
p537
sg105
Vhttps://pbs.twimg.com/profile_images/3640075206/5268ff3eea4193ccab5a18f353d91b60_normal.jpeg
p538
sg107
I1223
sg108
I409
sg109
I-18000
sg110
Nsg111
I00
sg112
Vhttps://pbs.twimg.com/profile_banners/25563521/1400857543
p539
sg114
I00
sg115
I00
sg116
V0084B4
p540
sg118
I00
sg119
I00
sg120
Vhttp://abs.twimg.com/images/themes/theme1/bg.png
p541
sg122
VGoRVing
p542
sg124
I213
sg125
VGo RVing
p543
sg127
VDDEEF6
p544
sg129
Vhttp://t.co/zOVqHiLwzr
p545
sg131
I25563521
sg132
VC0DEED
p546
sbsg134
I6
sg135
V<a href="http://twitter.com" rel="nofollow">Twitter Web Client</a>
p547
sg137
(lp548
sg131
I542001598126628864
sbsg16
Nsg17
(lp549
(dp550
Vsource_user_id
p551
I25563521
sVsource_status_id_str
p552
V542001598126628864
p553
sVexpanded_url
p554
Vhttp://twitter.com/GoRVing/status/542001598126628864/photo/1
p555
sVdisplay_url
p556
Vpic.twitter.com/TQBcvS1Nw8
p557
sVurl
p558
Vhttp://t.co/TQBcvS1Nw8
p559
sVmedia_url_https
p560
Vhttps://pbs.twimg.com/media/B4WTlJYIUAAVVsN.jpg
p561
sVsource_user_id_str
p562
V25563521
p563
sVsource_status_id
p564
I542001598126628864
sVid_str
p565
V542001596549582848
p566
sVsizes
p567
(dp568
Vsmall
p569
(dp570
Vh
p571
I226
sVresize
p572
Vfit
p573
sVw
p574
I340
ssVlarge
p575
(dp576
Vh
p577
I682
sVresize
p578
Vfit
p579
sVw
p580
I1024
ssVmedium
p581
(dp582
Vh
p583
I400
sVresize
p584
Vfit
p585
sVw
p586
I600
ssVthumb
p587
(dp588
Vh
p589
I150
sVresize
p590
Vcrop
p591
sVw
p592
I150
sssVindices
p593
(lp594
I56
aI78
asVtype
p595
Vphoto
p596
sVid
p597
I542001596549582848
sVmedia_url
p598
Vhttp://pbs.twimg.com/media/B4WTlJYIUAAVVsN.jpg
p599
sasg63
Nsg64
Nsg65
Nsg66
VMon Dec 08 20:04:31 +0000 2014
p600
sg68
Nsg69
I00
sg70
Nsg71
Nsg72
Nsg73
Nsg74
I00
sg75
Nsg76
(lp601
g3
(g88
g5
Ntp602
Rp603
(dp604
g10
Nsg93
Nsg95
Nsg97
Nsg99
Nsg100
Nsg66
Nsg102
Nsg103
Nsg105
Nsg107
Nsg108
Nsg109
Nsg110
Nsg111
Nsg112
Nsg114
Nsg115
Nsg116
Nsg118
Nsg119
Nsg120
Nsg122
VGoRVing
p605
sg124
Nsg125
VGo RVing
p606
sg127
Nsg129
Nsg131
I25563521
sg132
Nsbasg78
Nsg79
V542047089354866690
p607
sg81
Nsg82
VRT @GoRVing: Adventure awaits. #ThingsRVersSay #GoRVing http://t.co/TQBcvS1Nw8
p608
sg84
I00
sg85
Ven
p609
sg87
g3
(g88
g5
Ntp610
Rp611
(dp612
g10
VDenver, CO
p613
sg93
V333333
p614
sg95
Ven
p615
sg97
VMountain Time (US & Canada)
p616
sg99
I562
sg100
I1102
sg66
VThu Oct 20 17:46:39 +0000 2011
p617
sg102
I00
sg103
VRV sales, maintenance, parts and rentals in Denver and surrounding areas. Start your outdoor adventure today.
p618
sg105
Vhttps://pbs.twimg.com/profile_images/1598190002/rv.america.logo_nbkgd2_normal.jpg
p619
sg107
I480
sg108
I8
sg109
I-25200
sg110
Nsg111
I00
sg112
Vhttps://pbs.twimg.com/profile_banners/394824303/1399042852
p620
sg114
I00
sg115
I01
sg116
V009999
p621
sg118
I01
sg119
I00
sg120
Vhttp://pbs.twimg.com/profile_background_images/349889011/usa-2-stars-stripes.jpg
p622
sg122
VRVAmericaInc
p623
sg124
I8
sg125
VRVAmericaInc
p624
sg127
VEFEFEF
p625
sg129
Vhttp://t.co/kNblS5UtpV
p626
sg131
I394824303
sg132
V131516
p627
sbsg134
I6
sg135
V<a href="http://twitter.com" rel="nofollow">Twitter Web Client</a>
p628
sg137
(lp629
sg131
I542047089354866690
sbag3
(g4
g5
Ntp630
Rp631
(dp632
g9
I0
sg10
Nsg11
Nsg12
(lp633
sg14
I00
sg15
Nsg16
Nsg17
(lp634
(dp635
Vexpanded_url
p636
Vhttp://twitter.com/RVAmericaInc/status/540926001178755072/photo/1
p637
sVdisplay_url
p638
Vpic.twitter.com/kMzvpHiqZ5
p639
sVurl
p640
Vhttp://t.co/kMzvpHiqZ5
p641
sVmedia_url_https
p642
Vhttps://pbs.twimg.com/media/B4HBVOcCEAAs57E.jpg
p643
sVid_str
p644
V540926000658255872
p645
sVsizes
p646
(dp647
Vlarge
p648
(dp649
Vh
p650
I480
sVresize
p651
Vfit
p652
sVw
p653
I640
ssVsmall
p654
(dp655
Vh
p656
I255
sVresize
p657
Vfit
p658
sVw
p659
I340
ssVmedium
p660
(dp661
Vh
p662
I450
sVresize
p663
Vfit
p664
sVw
p665
I600
ssVthumb
p666
(dp667
Vh
p668
I150
sVresize
p669
Vcrop
p670
sVw
p671
I150
sssVindices
p672
(lp673
I104
aI126
asVtype
p674
Vphoto
p675
sVid
p676
I540926000658255872
sVmedia_url
p677
Vhttp://pbs.twimg.com/media/B4HBVOcCEAAs57E.jpg
p678
sasg63
Nsg64
Nsg65
Nsg66
VFri Dec 05 17:49:43 +0000 2014
p679
sg68
Nsg69
I00
sg70
Nsg71
Nsg72
Nsg73
Nsg74
I00
sg75
Nsg76
(lp680
sg78
Nsg79
V540926001178755072
p681
sg81
Nsg82
VFull-time RVers know how to handle the winter. Click here for winter RVing tips: http://t.co/IjUtdZSi41 http://t.co/kMzvpHiqZ5
p682
sg84
I00
sg85
Ven
p683
sg87
g3
(g88
g5
Ntp684
Rp685
(dp686
g10
VDenver, CO
p687
sg93
V333333
p688
sg95
Ven
p689
sg97
VMountain Time (US & Canada)
p690
sg99
I562
sg100
I1102
sg66
VThu Oct 20 17:46:39 +0000 2011
p691
sg102
I00
sg103
VRV sales, maintenance, parts and rentals in Denver and surrounding areas. Start your outdoor adventure today.
p692
sg105
Vhttps://pbs.twimg.com/profile_images/1598190002/rv.america.logo_nbkgd2_normal.jpg
p693
sg107
I480
sg108
I8
sg109
I-25200
sg110
Nsg111
I00
sg112
Vhttps://pbs.twimg.com/profile_banners/394824303/1399042852
p694
sg114
I00
sg115
I01
sg116
V009999
p695
sg118
I01
sg119
I00
sg120
Vhttp://pbs.twimg.com/profile_background_images/349889011/usa-2-stars-stripes.jpg
p696
sg122
VRVAmericaInc
p697
sg124
I8
sg125
VRVAmericaInc
p698
sg127
VEFEFEF
p699
sg129
Vhttp://t.co/kNblS5UtpV
p700
sg131
I394824303
sg132
V131516
p701
sbsg134
I1
sg135
V<a href="http://www.hootsuite.com" rel="nofollow">Hootsuite</a>
p702
sg137
(lp703
g3
(g139
g5
Ntp704
Rp705
(dp706
g143
Vhttp://t.co/IjUtdZSi41
p707
sg145
Vhttp://goo.gl/iSkKpS
p708
sbasg131
I540926001178755072
sbag3
(g4
g5
Ntp709
Rp710
(dp711
g9
I0
sg10
Nsg11
Nsg12
(lp712
g3
(g379
g5
Ntp713
Rp714
(dp715
g383
VFunTownRVFact
p716
sbag3
(g379
g5
Ntp717
Rp718
(dp719
g383
VRV
p720
sbag3
(g379
g5
Ntp721
Rp722
(dp723
g383
VGoRVing
p724
sbasg14
I00
sg15
g3
(g4
g5
Ntp725
Rp726
(dp727
g9
I8
sg10
Nsg11
Nsg12
(lp728
g3
(g379
g5
Ntp729
Rp730
(dp731
g383
VFunTownRVFact
p732
sbag3
(g379
g5
Ntp733
Rp734
(dp735
g383
VRV
p736
sbag3
(g379
g5
Ntp737
Rp738
(dp739
g383
VGoRVing
p740
sbasg14
I00
sg15
Nsg16
Nsg17
(lp741
(dp742
Vexpanded_url
p743
Vhttp://twitter.com/FunTownRV/status/531144268304637952/photo/1
p744
sVdisplay_url
p745
Vpic.twitter.com/sqDn80W1ty
p746
sVurl
p747
Vhttp://t.co/sqDn80W1ty
p748
sVmedia_url_https
p749
Vhttps://pbs.twimg.com/media/B18A5dOIEAAPFWs.jpg
p750
sVid_str
p751
V531144268149428224
p752
sVsizes
p753
(dp754
Vsmall
p755
(dp756
Vh
p757
I226
sVresize
p758
Vfit
p759
sVw
p760
I340
ssVlarge
p761
(dp762
Vh
p763
I533
sVresize
p764
Vfit
p765
sVw
p766
I800
ssVmedium
p767
(dp768
Vh
p769
I399
sVresize
p770
Vfit
p771
sVw
p772
I600
ssVthumb
p773
(dp774
Vh
p775
I150
sVresize
p776
Vcrop
p777
sVw
p778
I150
sssVindices
p779
(lp780
I82
aI104
asVtype
p781
Vphoto
p782
sVid
p783
I531144268149428224
sVmedia_url
p784
Vhttp://pbs.twimg.com/media/B18A5dOIEAAPFWs.jpg
p785
sasg63
Nsg64
Nsg65
Nsg66
VSat Nov 08 18:00:36 +0000 2014
p786
sg68
Nsg69
I00
sg70
Nsg71
Nsg72
Nsg73
Nsg74
I00
sg75
Nsg76
(lp787
sg78
Nsg79
V531144268304637952
p788
sg81
Nsg82
V#FunTownRVFact ~ Couples who #RV develop stronger bonds with each other! #GoRVing http://t.co/sqDn80W1ty
p789
sg84
I00
sg85
Ven
p790
sg87
g3
(g88
g5
Ntp791
Rp792
(dp793
g10
VCleburne, Texas
p794
sg93
V333333
p795
sg95
Ven
p796
sg97
VCentral Time (US & Canada)
p797
sg99
I585
sg100
I2931
sg66
VWed Aug 11 05:24:45 +0000 2010
p798
sg102
I00
sg103
VThe best investment in your family you could ever make.
p799
sg105
Vhttps://pbs.twimg.com/profile_images/499294781214703616/HKUh7Icc_normal.jpeg
p800
sg107
I739
sg108
I36
sg109
I-21600
sg110
Nsg111
I00
sg112
Vhttps://pbs.twimg.com/profile_banners/177078012/1415053567
p801
sg114
I00
sg115
I00
sg116
V0084B4
p802
sg118
I01
sg119
I00
sg120
Vhttp://pbs.twimg.com/profile_background_images/378800000042699767/560e900a436822255eb6a49452e61950.jpeg
p803
sg122
VFunTownRV
p804
sg124
I8
sg125
VFun Town RV
p805
sg127
VDDEEF6
p806
sg129
Vhttp://t.co/tIPvXRU7hx
p807
sg131
I177078012
sg132
VC0DEED
p808
sbsg134
I13
sg135
V<a href="http://bufferapp.com" rel="nofollow">Buffer</a>
p809
sg137
(lp810
sg131
I531144268304637952
sbsg16
Nsg17
(lp811
(dp812
Vsource_user_id
p813
I177078012
sVsource_status_id_str
p814
V531144268304637952
p815
sVexpanded_url
p816
Vhttp://twitter.com/FunTownRV/status/531144268304637952/photo/1
p817
sVdisplay_url
p818
Vpic.twitter.com/sqDn80W1ty
p819
sVurl
p820
Vhttp://t.co/sqDn80W1ty
p821
sVmedia_url_https
p822
Vhttps://pbs.twimg.com/media/B18A5dOIEAAPFWs.jpg
p823
sVsource_user_id_str
p824
V177078012
p825
sVsource_status_id
p826
I531144268304637952
sVid_str
p827
V531144268149428224
p828
sVsizes
p829
(dp830
Vsmall
p831
(dp832
Vh
p833
I226
sVresize
p834
Vfit
p835
sVw
p836
I340
ssVlarge
p837
(dp838
Vh
p839
I533
sVresize
p840
Vfit
p841
sVw
p842
I800
ssVmedium
p843
(dp844
Vh
p845
I399
sVresize
p846
Vfit
p847
sVw
p848
I600
ssVthumb
p849
(dp850
Vh
p851
I150
sVresize
p852
Vcrop
p853
sVw
p854
I150
sssVindices
p855
(lp856
I97
aI119
asVtype
p857
Vphoto
p858
sVid
p859
I531144268149428224
sVmedia_url
p860
Vhttp://pbs.twimg.com/media/B18A5dOIEAAPFWs.jpg
p861
sasg63
Nsg64
Nsg65
Nsg66
VThu Dec 04 15:03:38 +0000 2014
p862
sg68
Nsg69
I00
sg70
Nsg71
Nsg72
Nsg73
Nsg74
I00
sg75
Nsg76
(lp863
g3
(g88
g5
Ntp864
Rp865
(dp866
g10
Nsg93
Nsg95
Nsg97
Nsg99
Nsg100
Nsg66
Nsg102
Nsg103
Nsg105
Nsg107
Nsg108
Nsg109
Nsg110
Nsg111
Nsg112
Nsg114
Nsg115
Nsg116
Nsg118
Nsg119
Nsg120
Nsg122
VFunTownRV
p867
sg124
Nsg125
VFun Town RV
p868
sg127
Nsg129
Nsg131
I177078012
sg132
Nsbasg78
Nsg79
V540521816201383936
p869
sg81
Nsg82
VRT @FunTownRV: #FunTownRVFact ~ Couples who #RV develop stronger bonds with each other! #GoRVing http://t.co/sqDn80W1ty
p870
sg84
I00
sg85
Ven
p871
sg87
g3
(g88
g5
Ntp872
Rp873
(dp874
g10
VDenver, CO
p875
sg93
V333333
p876
sg95
Ven
p877
sg97
VMountain Time (US & Canada)
p878
sg99
I562
sg100
I1102
sg66
VThu Oct 20 17:46:39 +0000 2011
p879
sg102
I00
sg103
VRV sales, maintenance, parts and rentals in Denver and surrounding areas. Start your outdoor adventure today.
p880
sg105
Vhttps://pbs.twimg.com/profile_images/1598190002/rv.america.logo_nbkgd2_normal.jpg
p881
sg107
I480
sg108
I8
sg109
I-25200
sg110
Nsg111
I00
sg112
Vhttps://pbs.twimg.com/profile_banners/394824303/1399042852
p882
sg114
I00
sg115
I01
sg116
V009999
p883
sg118
I01
sg119
I00
sg120
Vhttp://pbs.twimg.com/profile_background_images/349889011/usa-2-stars-stripes.jpg
p884
sg122
VRVAmericaInc
p885
sg124
I8
sg125
VRVAmericaInc
p886
sg127
VEFEFEF
p887
sg129
Vhttp://t.co/kNblS5UtpV
p888
sg131
I394824303
sg132
V131516
p889
sbsg134
I13
sg135
V<a href="http://twitter.com" rel="nofollow">Twitter Web Client</a>
p890
sg137
(lp891
sg131
I540521816201383936
sbag3
(g4
g5
Ntp892
Rp893
(dp894
g9
I0
sg10
Nsg11
Nsg12
(lp895
sg14
I00
sg15
Nsg16
Nsg17
(lp896
(dp897
Vexpanded_url
p898
Vhttp://twitter.com/RVAmericaInc/status/540506437089501184/photo/1
p899
sVdisplay_url
p900
Vpic.twitter.com/9bgnXNTxfk
p901
sVurl
p902
Vhttp://t.co/9bgnXNTxfk
p903
sVmedia_url_https
p904
Vhttps://pbs.twimg.com/media/B4BDvYjIcAEyiHb.jpg
p905
sVid_str
p906
V540506436607176705
p907
sVsizes
p908
(dp909
Vsmall
p910
(dp911
Vh
p912
I255
sVresize
p913
Vfit
p914
sVw
p915
I340
ssVlarge
p916
(dp917
Vh
p918
I768
sVresize
p919
Vfit
p920
sVw
p921
I1024
ssVmedium
p922
(dp923
Vh
p924
I450
sVresize
p925
Vfit
p926
sVw
p927
I600
ssVthumb
p928
(dp929
Vh
p930
I150
sVresize
p931
Vcrop
p932
sVw
p933
I150
sssVindices
p934
(lp935
I101
aI123
asVtype
p936
Vphoto
p937
sVid
p938
I540506436607176705
sVmedia_url
p939
Vhttp://pbs.twimg.com/media/B4BDvYjIcAEyiHb.jpg
p940
sasg63
Nsg64
Nsg65
Nsg66
VThu Dec 04 14:02:31 +0000 2014
p941
sg68
Nsg69
I00
sg70
Nsg71
Nsg72
Nsg73
Nsg74
I00
sg75
Nsg76
(lp942
sg78
Nsg79
V540506437089501184
p943
sg81
Nsg82
VWe understand that accidents happen. If your RV has been involved in an accident, call 970-278-1900. http://t.co/9bgnXNTxfk
p944
sg84
I00
sg85
Ven
p945
sg87
g3
(g88
g5
Ntp946
Rp947
(dp948
g10
VDenver, CO
p949
sg93
V333333
p950
sg95
Ven
p951
sg97
VMountain Time (US & Canada)
p952
sg99
I562
sg100
I1102
sg66
VThu Oct 20 17:46:39 +0000 2011
p953
sg102
I00
sg103
VRV sales, maintenance, parts and rentals in Denver and surrounding areas. Start your outdoor adventure today.
p954
sg105
Vhttps://pbs.twimg.com/profile_images/1598190002/rv.america.logo_nbkgd2_normal.jpg
p955
sg107
I480
sg108
I8
sg109
I-25200
sg110
Nsg111
I00
sg112
Vhttps://pbs.twimg.com/profile_banners/394824303/1399042852
p956
sg114
I00
sg115
I01
sg116
V009999
p957
sg118
I01
sg119
I00
sg120
Vhttp://pbs.twimg.com/profile_background_images/349889011/usa-2-stars-stripes.jpg
p958
sg122
VRVAmericaInc
p959
sg124
I8
sg125
VRVAmericaInc
p960
sg127
VEFEFEF
p961
sg129
Vhttp://t.co/kNblS5UtpV
p962
sg131
I394824303
sg132
V131516
p963
sbsg134
I0
sg135
V<a href="http://www.hootsuite.com" rel="nofollow">Hootsuite</a>
p964
sg137
(lp965
sg131
I540506437089501184
sbag3
(g4
g5
Ntp966
Rp967
(dp968
g9
I0
sg10
Nsg11
Nsg12
(lp969
g3
(g379
g5
Ntp970
Rp971
(dp972
g383
VThingsRVersSay
p973
sbasg14
I00
sg15
g3
(g4
g5
Ntp974
Rp975
(dp976
g9
I10
sg10
Nsg11
Nsg12
(lp977
g3
(g379
g5
Ntp978
Rp979
(dp980
g383
VThingsRVersSay
p981
sbasg14
I00
sg15
Nsg16
Nsg17
(lp982
(dp983
Vexpanded_url
p984
Vhttp://twitter.com/GoRVing/status/519534110117994496/photo/1
p985
sVdisplay_url
p986
Vpic.twitter.com/cUum3McNQN
p987
sVurl
p988
Vhttp://t.co/cUum3McNQN
p989
sVmedia_url_https
p990
Vhttps://pbs.twimg.com/media/BzXBhIFCYAEO8_z.png
p991
sVid_str
p992
V519534106879614977
p993
sVsizes
p994
(dp995
Vsmall
p996
(dp997
Vh
p998
I230
sVresize
p999
Vfit
p1000
sVw
p1001
I340
ssVlarge
p1002
(dp1003
Vh
p1004
I662
sVresize
p1005
Vfit
p1006
sVw
p1007
I977
ssVmedium
p1008
(dp1009
Vh
p1010
I406
sVresize
p1011
Vfit
p1012
sVw
p1013
I600
ssVthumb
p1014
(dp1015
Vh
p1016
I150
sVresize
p1017
Vcrop
p1018
sVw
p1019
I150
sssVindices
p1020
(lp1021
I60
aI82
asVtype
p1022
Vphoto
p1023
sVid
p1024
I519534106879614977
sVmedia_url
p1025
Vhttp://pbs.twimg.com/media/BzXBhIFCYAEO8_z.png
p1026
sasg63
Nsg64
Nsg65
Nsg66
VTue Oct 07 17:05:58 +0000 2014
p1027
sg68
Nsg69
I00
sg70
Nsg71
Nsg72
Nsg73
Nsg74
I00
sg75
Nsg76
(lp1028
sg78
Nsg79
V519534110117994496
p1029
sg81
Nsg82
VRain or shine, our RV will always be there. #ThingsRVersSay http://t.co/cUum3McNQN
p1030
sg84
I00
sg85
Ven
p1031
sg87
g3
(g88
g5
Ntp1032
Rp1033
(dp1034
g10
g532
sg93
V333333
p1035
sg95
Ven
p1036
sg97
VEastern Time (US & Canada)
p1037
sg99
I8719
sg100
I1757
sg66
VFri Mar 20 19:53:34 +0000 2009
p1038
sg102
I00
sg103
VCurrent RVers, RV dreamers, and happy campers - follow us for RV tips, news, contests, and inspiration from Go RVing bloggers. See you on the road!
p1039
sg105
Vhttps://pbs.twimg.com/profile_images/3640075206/5268ff3eea4193ccab5a18f353d91b60_normal.jpeg
p1040
sg107
I1223
sg108
I409
sg109
I-18000
sg110
Nsg111
I00
sg112
Vhttps://pbs.twimg.com/profile_banners/25563521/1400857543
p1041
sg114
I00
sg115
I00
sg116
V0084B4
p1042
sg118
I00
sg119
I00
sg120
Vhttp://abs.twimg.com/images/themes/theme1/bg.png
p1043
sg122
VGoRVing
p1044
sg124
I213
sg125
VGo RVing
p1045
sg127
VDDEEF6
p1046
sg129
Vhttp://t.co/zOVqHiLwzr
p1047
sg131
I25563521
sg132
VC0DEED
p1048
sbsg134
I6
sg135
V<a href="http://twitter.com" rel="nofollow">Twitter Web Client</a>
p1049
sg137
(lp1050
sg131
I519534110117994496
sbsg16
Nsg17
(lp1051
(dp1052
Vsource_user_id
p1053
I25563521
sVsource_status_id_str
p1054
V519534110117994496
p1055
sVexpanded_url
p1056
Vhttp://twitter.com/GoRVing/status/519534110117994496/photo/1
p1057
sVdisplay_url
p1058
Vpic.twitter.com/cUum3McNQN
p1059
sVurl
p1060
Vhttp://t.co/cUum3McNQN
p1061
sVmedia_url_https
p1062
Vhttps://pbs.twimg.com/media/BzXBhIFCYAEO8_z.png
p1063
sVsource_user_id_str
p1064
V25563521
p1065
sVsource_status_id
p1066
I519534110117994496
sVid_str
p1067
V519534106879614977
p1068
sVsizes
p1069
(dp1070
Vsmall
p1071
(dp1072
Vh
p1073
I230
sVresize
p1074
Vfit
p1075
sVw
p1076
I340
ssVlarge
p1077
(dp1078
Vh
p1079
I662
sVresize
p1080
Vfit
p1081
sVw
p1082
I977
ssVmedium
p1083
(dp1084
Vh
p1085
I406
sVresize
p1086
Vfit
p1087
sVw
p1088
I600
ssVthumb
p1089
(dp1090
Vh
p1091
I150
sVresize
p1092
Vcrop
p1093
sVw
p1094
I150
sssVindices
p1095
(lp1096
I73
aI95
asVtype
p1097
Vphoto
p1098
sVid
p1099
I519534106879614977
sVmedia_url
p1100
Vhttp://pbs.twimg.com/media/BzXBhIFCYAEO8_z.png
p1101
sasg63
Nsg64
Nsg65
Nsg66
VTue Dec 02 21:00:19 +0000 2014
p1102
sg68
Nsg69
I00
sg70
Nsg71
Nsg72
Nsg73
Nsg74
I00
sg75
Nsg76
(lp1103
g3
(g88
g5
Ntp1104
Rp1105
(dp1106
g10
Nsg93
Nsg95
Nsg97
Nsg99
Nsg100
Nsg66
Nsg102
Nsg103
Nsg105
Nsg107
Nsg108
Nsg109
Nsg110
Nsg111
Nsg112
Nsg114
Nsg115
Nsg116
Nsg118
Nsg119
Nsg120
Nsg122
VGoRVing
p1107
sg124
Nsg125
VGo RVing
p1108
sg127
Nsg129
Nsg131
I25563521
sg132
Nsbasg78
Nsg79
V539886803738976256
p1109
sg81
Nsg82
VRT @GoRVing: Rain or shine, our RV will always be there. #ThingsRVersSay http://t.co/cUum3McNQN
p1110
sg84
I00
sg85
Ven
p1111
sg87
g3
(g88
g5
Ntp1112
Rp1113
(dp1114
g10
VDenver, CO
p1115
sg93
V333333
p1116
sg95
Ven
p1117
sg97
VMountain Time (US & Canada)
p1118
sg99
I562
sg100
I1102
sg66
VThu Oct 20 17:46:39 +0000 2011
p1119
sg102
I00
sg103
VRV sales, maintenance, parts and rentals in Denver and surrounding areas. Start your outdoor adventure today.
p1120
sg105
Vhttps://pbs.twimg.com/profile_images/1598190002/rv.america.logo_nbkgd2_normal.jpg
p1121
sg107
I480
sg108
I8
sg109
I-25200
sg110
Nsg111
I00
sg112
Vhttps://pbs.twimg.com/profile_banners/394824303/1399042852
p1122
sg114
I00
sg115
I01
sg116
V009999
p1123
sg118
I01
sg119
I00
sg120
Vhttp://pbs.twimg.com/profile_background_images/349889011/usa-2-stars-stripes.jpg
p1124
sg122
VRVAmericaInc
p1125
sg124
I8
sg125
VRVAmericaInc
p1126
sg127
VEFEFEF
p1127
sg129
Vhttp://t.co/kNblS5UtpV
p1128
sg131
I394824303
sg132
V131516
p1129
sbsg134
I6
sg135
V<a href="http://twitter.com" rel="nofollow">Twitter Web Client</a>
p1130
sg137
(lp1131
sg131
I539886803738976256
sbag3
(g4
g5
Ntp1132
Rp1133
(dp1134
g9
I0
sg10
Nsg11
Nsg12
(lp1135
sg14
I00
sg15
Nsg16
Nsg17
(lp1136
(dp1137
Vexpanded_url
p1138
Vhttp://twitter.com/RVAmericaInc/status/539783695847403520/photo/1
p1139
sVdisplay_url
p1140
Vpic.twitter.com/MWuaUhaXFk
p1141
sVurl
p1142
Vhttp://t.co/MWuaUhaXFk
p1143
sVmedia_url_https
p1144
Vhttps://pbs.twimg.com/media/B32yaTxIMAAMDfz.jpg
p1145
sVid_str
p1146
V539783695407001600
p1147
sVsizes
p1148
(dp1149
Vsmall
p1150
(dp1151
Vh
p1152
I226
sVresize
p1153
Vfit
p1154
sVw
p1155
I340
ssVlarge
p1156
(dp1157
Vh
p1158
I427
sVresize
p1159
Vfit
p1160
sVw
p1161
I640
ssVmedium
p1162
(dp1163
Vh
p1164
I400
sVresize
p1165
Vfit
p1166
sVw
p1167
I600
ssVthumb
p1168
(dp1169
Vh
p1170
I150
sVresize
p1171
Vcrop
p1172
sVw
p1173
I150
sssVindices
p1174
(lp1175
I50
aI72
asVtype
p1176
Vphoto
p1177
sVid
p1178
I539783695407001600
sVmedia_url
p1179
Vhttp://pbs.twimg.com/media/B32yaTxIMAAMDfz.jpg
p1180
sasg63
Nsg64
Nsg65
Nsg66
VTue Dec 02 14:10:36 +0000 2014
p1181
sg68
Nsg69
I00
sg70
Nsg71
Nsg72
Nsg73
Nsg74
I00
sg75
Nsg76
(lp1182
sg78
Nsg79
V539783695847403520
p1183
sg81
Nsg82
VMake yourself at home with an RV from RV America. http://t.co/MWuaUhaXFk
p1184
sg84
I00
sg85
Ven
p1185
sg87
g3
(g88
g5
Ntp1186
Rp1187
(dp1188
g10
VDenver, CO
p1189
sg93
V333333
p1190
sg95
Ven
p1191
sg97
VMountain Time (US & Canada)
p1192
sg99
I562
sg100
I1102
sg66
VThu Oct 20 17:46:39 +0000 2011
p1193
sg102
I00
sg103
VRV sales, maintenance, parts and rentals in Denver and surrounding areas. Start your outdoor adventure today.
p1194
sg105
Vhttps://pbs.twimg.com/profile_images/1598190002/rv.america.logo_nbkgd2_normal.jpg
p1195
sg107
I480
sg108
I8
sg109
I-25200
sg110
Nsg111
I00
sg112
Vhttps://pbs.twimg.com/profile_banners/394824303/1399042852
p1196
sg114
I00
sg115
I01
sg116
V009999
p1197
sg118
I01
sg119
I00
sg120
Vhttp://pbs.twimg.com/profile_background_images/349889011/usa-2-stars-stripes.jpg
p1198
sg122
VRVAmericaInc
p1199
sg124
I8
sg125
VRVAmericaInc
p1200
sg127
VEFEFEF
p1201
sg129
Vhttp://t.co/kNblS5UtpV
p1202
sg131
I394824303
sg132
V131516
p1203
sbsg134
I0
sg135
V<a href="http://www.hootsuite.com" rel="nofollow">Hootsuite</a>
p1204
sg137
(lp1205
sg131
I539783695847403520
sbag3
(g4
g5
Ntp1206
Rp1207
(dp1208
g9
I0
sg10
Nsg11
Nsg12
(lp1209
sg14
I00
sg15
Nsg16
Nsg17
(lp1210
sg63
Nsg64
Nsg65
Nsg66
VThu Nov 27 14:26:13 +0000 2014
p1211
sg68
Nsg69
I00
sg70
Nsg71
Nsg72
Nsg73
Nsg74
I00
sg75
Nsg76
(lp1212
sg78
Nsg79
V537975687706329089
p1213
sg81
Nsg82
VAll of us and our families wish you and yours http://t.co/sLZsNZIdmT
p1214
sg84
I00
sg85
Ven
p1215
sg87
g3
(g88
g5
Ntp1216
Rp1217
(dp1218
g10
VDenver, CO
p1219
sg93
V333333
p1220
sg95
Ven
p1221
sg97
VMountain Time (US & Canada)
p1222
sg99
I562
sg100
I1102
sg66
VThu Oct 20 17:46:39 +0000 2011
p1223
sg102
I00
sg103
VRV sales, maintenance, parts and rentals in Denver and surrounding areas. Start your outdoor adventure today.
p1224
sg105
Vhttps://pbs.twimg.com/profile_images/1598190002/rv.america.logo_nbkgd2_normal.jpg
p1225
sg107
I480
sg108
I8
sg109
I-25200
sg110
Nsg111
I00
sg112
Vhttps://pbs.twimg.com/profile_banners/394824303/1399042852
p1226
sg114
I00
sg115
I01
sg116
V009999
p1227
sg118
I01
sg119
I00
sg120
Vhttp://pbs.twimg.com/profile_background_images/349889011/usa-2-stars-stripes.jpg
p1228
sg122
VRVAmericaInc
p1229
sg124
I8
sg125
VRVAmericaInc
p1230
sg127
VEFEFEF
p1231
sg129
Vhttp://t.co/kNblS5UtpV
p1232
sg131
I394824303
sg132
V131516
p1233
sbsg134
I0
sg135
V<a href="http://www.facebook.com/twitter" rel="nofollow">Facebook</a>
p1234
sg137
(lp1235
g3
(g139
g5
Ntp1236
Rp1237
(dp1238
g143
Vhttp://t.co/sLZsNZIdmT
p1239
sg145
Vhttp://fb.me/74EfscZGo
p1240
sbasg131
I537975687706329089
sbag3
(g4
g5
Ntp1241
Rp1242
(dp1243
g9
I0
sg10
Nsg11
Nsg12
(lp1244
sg14
I00
sg15
Nsg16
Nsg17
(lp1245
(dp1246
Vexpanded_url
p1247
Vhttp://twitter.com/RVAmericaInc/status/537971763469373441/photo/1
p1248
sVdisplay_url
p1249
Vpic.twitter.com/DmBPM2xH7t
p1250
sVurl
p1251
Vhttp://t.co/DmBPM2xH7t
p1252
sVmedia_url_https
p1253
Vhttps://pbs.twimg.com/media/B3dCd9YCEAAWYrH.jpg
p1254
sVid_str
p1255
V537971762953064448
p1256
sVsizes
p1257
(dp1258
Vlarge
p1259
(dp1260
Vh
p1261
I429
sVresize
p1262
Vfit
p1263
sVw
p1264
I640
ssVsmall
p1265
(dp1266
Vh
p1267
I227
sVresize
p1268
Vfit
p1269
sVw
p1270
I340
ssVmedium
p1271
(dp1272
Vh
p1273
I402
sVresize
p1274
Vfit
p1275
sVw
p1276
I600
ssVthumb
p1277
(dp1278
Vh
p1279
I150
sVresize
p1280
Vcrop
p1281
sVw
p1282
I150
sssVindices
p1283
(lp1284
I110
aI132
asVtype
p1285
Vphoto
p1286
sVid
p1287
I537971762953064448
sVmedia_url
p1288
Vhttp://pbs.twimg.com/media/B3dCd9YCEAAWYrH.jpg
p1289
sasg63
Nsg64
Nsg65
Nsg66
VThu Nov 27 14:10:38 +0000 2014
p1290
sg68
Nsg69
I00
sg70
Nsg71
Nsg72
Nsg73
Nsg74
I00
sg75
Nsg76
(lp1291
sg78
Nsg79
V537971763469373441
p1292
sg81
Nsg82
VOh, the places you'll go in an RV from RV America. Click here to browse our inventory: http://t.co/J8bycz7PDJ http://t.co/DmBPM2xH7t
p1293
sg84
I00
sg85
Ven
p1294
sg87
g3
(g88
g5
Ntp1295
Rp1296
(dp1297
g10
VDenver, CO
p1298
sg93
V333333
p1299
sg95
Ven
p1300
sg97
VMountain Time (US & Canada)
p1301
sg99
I562
sg100
I1102
sg66
VThu Oct 20 17:46:39 +0000 2011
p1302
sg102
I00
sg103
VRV sales, maintenance, parts and rentals in Denver and surrounding areas. Start your outdoor adventure today.
p1303
sg105
Vhttps://pbs.twimg.com/profile_images/1598190002/rv.america.logo_nbkgd2_normal.jpg
p1304
sg107
I480
sg108
I8
sg109
I-25200
sg110
Nsg111
I00
sg112
Vhttps://pbs.twimg.com/profile_banners/394824303/1399042852
p1305
sg114
I00
sg115
I01
sg116
V009999
p1306
sg118
I01
sg119
I00
sg120
Vhttp://pbs.twimg.com/profile_background_images/349889011/usa-2-stars-stripes.jpg
p1307
sg122
VRVAmericaInc
p1308
sg124
I8
sg125
VRVAmericaInc
p1309
sg127
VEFEFEF
p1310
sg129
Vhttp://t.co/kNblS5UtpV
p1311
sg131
I394824303
sg132
V131516
p1312
sbsg134
I0
sg135
V<a href="http://www.hootsuite.com" rel="nofollow">Hootsuite</a>
p1313
sg137
(lp1314
g3
(g139
g5
Ntp1315
Rp1316
(dp1317
g143
Vhttp://t.co/J8bycz7PDJ
p1318
sg145
Vhttp://goo.gl/Qf4XaW
p1319
sbasg131
I537971763469373441
sbag3
(g4
g5
Ntp1320
Rp1321
(dp1322
g9
I0
sg10
Nsg11
Nsg12
(lp1323
sg14
I00
sg15
Nsg16
Nsg17
(lp1324
sg63
Nsg64
Nsg65
Nsg66
VWed Nov 26 17:31:57 +0000 2014
p1325
sg68
Nsg69
I00
sg70
Nsg71
Nsg72
Nsg73
Nsg74
I00
sg75
Nsg76
(lp1326
sg78
Nsg79
V537660038580817920
p1327
sg81
Nsg82
VHappy Holidays from our family to yours! In observance of the Thanksgiving Holiday, our stores will be closing at... http://t.co/9knPdzG5TR
p1328
sg84
I00
sg85
Ven
p1329
sg87
g3
(g88
g5
Ntp1330
Rp1331
(dp1332
g10
VDenver, CO
p1333
sg93
V333333
p1334
sg95
Ven
p1335
sg97
VMountain Time (US & Canada)
p1336
sg99
I562
sg100
I1102
sg66
VThu Oct 20 17:46:39 +0000 2011
p1337
sg102
I00
sg103
VRV sales, maintenance, parts and rentals in Denver and surrounding areas. Start your outdoor adventure today.
p1338
sg105
Vhttps://pbs.twimg.com/profile_images/1598190002/rv.america.logo_nbkgd2_normal.jpg
p1339
sg107
I480
sg108
I8
sg109
I-25200
sg110
Nsg111
I00
sg112
Vhttps://pbs.twimg.com/profile_banners/394824303/1399042852
p1340
sg114
I00
sg115
I01
sg116
V009999
p1341
sg118
I01
sg119
I00
sg120
Vhttp://pbs.twimg.com/profile_background_images/349889011/usa-2-stars-stripes.jpg
p1342
sg122
VRVAmericaInc
p1343
sg124
I8
sg125
VRVAmericaInc
p1344
sg127
VEFEFEF
p1345
sg129
Vhttp://t.co/kNblS5UtpV
p1346
sg131
I394824303
sg132
V131516
p1347
sbsg134
I0
sg135
V<a href="http://www.facebook.com/twitter" rel="nofollow">Facebook</a>
p1348
sg137
(lp1349
g3
(g139
g5
Ntp1350
Rp1351
(dp1352
g143
Vhttp://t.co/9knPdzG5TR
p1353
sg145
Vhttp://fb.me/1qKWKgPcv
p1354
sbasg131
I537660038580817920
sbag3
(g4
g5
Ntp1355
Rp1356
(dp1357
g9
I0
sg10
Nsg11
Nsg12
(lp1358
sg14
I00
sg15
Nsg16
Nsg17
(lp1359
(dp1360
Vexpanded_url
p1361
Vhttp://twitter.com/RVAmericaInc/status/537622875424194560/photo/1
p1362
sVdisplay_url
p1363
Vpic.twitter.com/kuyZO4vHin
p1364
sVurl
p1365
Vhttp://t.co/kuyZO4vHin
p1366
sVmedia_url_https
p1367
Vhttps://pbs.twimg.com/media/B3YFJ_vCEAA3vGz.jpg
p1368
sVid_str
p1369
V537622874803015680
p1370
sVsizes
p1371
(dp1372
Vlarge
p1373
(dp1374
Vh
p1375
I452
sVresize
p1376
Vfit
p1377
sVw
p1378
I680
ssVsmall
p1379
(dp1380
Vh
p1381
I226
sVresize
p1382
Vfit
p1383
sVw
p1384
I340
ssVmedium
p1385
(dp1386
Vh
p1387
I398
sVresize
p1388
Vfit
p1389
sVw
p1390
I600
ssVthumb
p1391
(dp1392
Vh
p1393
I150
sVresize
p1394
Vcrop
p1395
sVw
p1396
I150
sssVindices
p1397
(lp1398
I118
aI140
asVtype
p1399
Vphoto
p1400
sVid
p1401
I537622874803015680
sVmedia_url
p1402
Vhttp://pbs.twimg.com/media/B3YFJ_vCEAA3vGz.jpg
p1403
sasg63
Nsg64
Nsg65
Nsg66
VWed Nov 26 15:04:16 +0000 2014
p1404
sg68
Nsg69
I00
sg70
Nsg71
Nsg72
Nsg73
Nsg74
I00
sg75
Nsg76
(lp1405
sg78
Nsg79
V537622875424194560
p1406
sg81
Nsg82
VWe carry a wide variety of used RVs. Here are tips to keep in mind when shopping for a used RV http://t.co/rq2yJbL35n http://t.co/kuyZO4vHin
p1407
sg84
I00
sg85
Ven
p1408
sg87
g3
(g88
g5
Ntp1409
Rp1410
(dp1411
g10
VDenver, CO
p1412
sg93
V333333
p1413
sg95
Ven
p1414
sg97
VMountain Time (US & Canada)
p1415
sg99
I562
sg100
I1102
sg66
VThu Oct 20 17:46:39 +0000 2011
p1416
sg102
I00
sg103
VRV sales, maintenance, parts and rentals in Denver and surrounding areas. Start your outdoor adventure today.
p1417
sg105
Vhttps://pbs.twimg.com/profile_images/1598190002/rv.america.logo_nbkgd2_normal.jpg
p1418
sg107
I480
sg108
I8
sg109
I-25200
sg110
Nsg111
I00
sg112
Vhttps://pbs.twimg.com/profile_banners/394824303/1399042852
p1419
sg114
I00
sg115
I01
sg116
V009999
p1420
sg118
I01
sg119
I00
sg120
Vhttp://pbs.twimg.com/profile_background_images/349889011/usa-2-stars-stripes.jpg
p1421
sg122
VRVAmericaInc
p1422
sg124
I8
sg125
VRVAmericaInc
p1423
sg127
VEFEFEF
p1424
sg129
Vhttp://t.co/kNblS5UtpV
p1425
sg131
I394824303
sg132
V131516
p1426
sbsg134
I0
sg135
V<a href="http://www.hootsuite.com" rel="nofollow">Hootsuite</a>
p1427
sg137
(lp1428
g3
(g139
g5
Ntp1429
Rp1430
(dp1431
g143
Vhttp://t.co/rq2yJbL35n
p1432
sg145
Vhttp://goo.gl/tEpZ5S
p1433
sbasg131
I537622875424194560
sbag3
(g4
g5
Ntp1434
Rp1435
(dp1436
g9
I1
sg10
Nsg11
Nsg12
(lp1437
sg14
I00
sg15
Nsg16
Nsg17
(lp1438
(dp1439
Vexpanded_url
p1440
Vhttp://twitter.com/RVAmericaInc/status/537244962761748480/photo/1
p1441
sVdisplay_url
p1442
Vpic.twitter.com/9GRZ8ZXi08
p1443
sVurl
p1444
Vhttp://t.co/9GRZ8ZXi08
p1445
sVmedia_url_https
p1446
Vhttps://pbs.twimg.com/media/B3Stcl7IYAAwbDE.jpg
p1447
sVid_str
p1448
V537244962291998720
p1449
sVsizes
p1450
(dp1451
Vsmall
p1452
(dp1453
Vh
p1454
I226
sVresize
p1455
Vfit
p1456
sVw
p1457
I340
ssVlarge
p1458
(dp1459
Vh
p1460
I427
sVresize
p1461
Vfit
p1462
sVw
p1463
I640
ssVmedium
p1464
(dp1465
Vh
p1466
I400
sVresize
p1467
Vfit
p1468
sVw
p1469
I600
ssVthumb
p1470
(dp1471
Vh
p1472
I150
sVresize
p1473
Vcrop
p1474
sVw
p1475
I150
sssVindices
p1476
(lp1477
I117
aI139
asVtype
p1478
Vphoto
p1479
sVid
p1480
I537244962291998720
sVmedia_url
p1481
Vhttp://pbs.twimg.com/media/B3Stcl7IYAAwbDE.jpg
p1482
sasg63
Nsg64
Nsg65
Nsg66
VTue Nov 25 14:02:35 +0000 2014
p1483
sg68
Nsg69
I00
sg70
Nsg71
Nsg72
Nsg73
Nsg74
I00
sg75
Nsg76
(lp1484
sg78
Nsg79
V537244962761748480
p1485
sg81
Nsg82
VWe can take your childhood dream of owning an RV and turn it into a reality. Call us at 970-278-1900 to get started! http://t.co/9GRZ8ZXi08
p1486
sg84
I00
sg85
Ven
p1487
sg87
g3
(g88
g5
Ntp1488
Rp1489
(dp1490
g10
VDenver, CO
p1491
sg93
V333333
p1492
sg95
Ven
p1493
sg97
VMountain Time (US & Canada)
p1494
sg99
I562
sg100
I1102
sg66
VThu Oct 20 17:46:39 +0000 2011
p1495
sg102
I00
sg103
VRV sales, maintenance, parts and rentals in Denver and surrounding areas. Start your outdoor adventure today.
p1496
sg105
Vhttps://pbs.twimg.com/profile_images/1598190002/rv.america.logo_nbkgd2_normal.jpg
p1497
sg107
I480
sg108
I8
sg109
I-25200
sg110
Nsg111
I00
sg112
Vhttps://pbs.twimg.com/profile_banners/394824303/1399042852
p1498
sg114
I00
sg115
I01
sg116
V009999
p1499
sg118
I01
sg119
I00
sg120
Vhttp://pbs.twimg.com/profile_background_images/349889011/usa-2-stars-stripes.jpg
p1500
sg122
VRVAmericaInc
p1501
sg124
I8
sg125
VRVAmericaInc
p1502
sg127
VEFEFEF
p1503
sg129
Vhttp://t.co/kNblS5UtpV
p1504
sg131
I394824303
sg132
V131516
p1505
sbsg134
I1
sg135
V<a href="http://www.hootsuite.com" rel="nofollow">Hootsuite</a>
p1506
sg137
(lp1507
sg131
I537244962761748480
sbag3
(g4
g5
Ntp1508
Rp1509
(dp1510
g9
I1
sg10
Nsg11
Nsg12
(lp1511
sg14
I00
sg15
Nsg16
Nsg17
(lp1512
(dp1513
Vexpanded_url
p1514
Vhttp://twitter.com/RVAmericaInc/status/535814753487425536/photo/1
p1515
sVdisplay_url
p1516
Vpic.twitter.com/pxlp10iPKC
p1517
sVurl
p1518
Vhttp://t.co/pxlp10iPKC
p1519
sVmedia_url_https
p1520
Vhttps://pbs.twimg.com/media/B2-YrdHIgAAU0gT.jpg
p1521
sVid_str
p1522
V535814752996720640
p1523
sVsizes
p1524
(dp1525
Vlarge
p1526
(dp1527
Vh
p1528
I387
sVresize
p1529
Vfit
p1530
sVw
p1531
I577
ssVsmall
p1532
(dp1533
Vh
p1534
I228
sVresize
p1535
Vfit
p1536
sVw
p1537
I340
ssVmedium
p1538
(dp1539
Vh
p1540
I387
sVresize
p1541
Vfit
p1542
sVw
p1543
I577
ssVthumb
p1544
(dp1545
Vh
p1546
I150
sVresize
p1547
Vcrop
p1548
sVw
p1549
I150
sssVindices
p1550
(lp1551
I114
aI136
asVtype
p1552
Vphoto
p1553
sVid
p1554
I535814752996720640
sVmedia_url
p1555
Vhttp://pbs.twimg.com/media/B2-YrdHIgAAU0gT.jpg
p1556
sasg63
Nsg64
Nsg65
Nsg66
VFri Nov 21 15:19:26 +0000 2014
p1557
sg68
Nsg69
I00
sg70
Nsg71
Nsg72
Nsg73
Nsg74
I00
sg75
Nsg76
(lp1558
sg78
Nsg79
V535814753487425536
p1559
sg81
Nsg82
VDriving an RV is different from driving a car. Click here for the most common RV problems: http://t.co/KBlsqD5iGu http://t.co/pxlp10iPKC
p1560
sg84
I00
sg85
Ven
p1561
sg87
g3
(g88
g5
Ntp1562
Rp1563
(dp1564
g10
VDenver, CO
p1565
sg93
V333333
p1566
sg95
Ven
p1567
sg97
VMountain Time (US & Canada)
p1568
sg99
I562
sg100
I1102
sg66
VThu Oct 20 17:46:39 +0000 2011
p1569
sg102
I00
sg103
VRV sales, maintenance, parts and rentals in Denver and surrounding areas. Start your outdoor adventure today.
p1570
sg105
Vhttps://pbs.twimg.com/profile_images/1598190002/rv.america.logo_nbkgd2_normal.jpg
p1571
sg107
I480
sg108
I8
sg109
I-25200
sg110
Nsg111
I00
sg112
Vhttps://pbs.twimg.com/profile_banners/394824303/1399042852
p1572
sg114
I00
sg115
I01
sg116
V009999
p1573
sg118
I01
sg119
I00
sg120
Vhttp://pbs.twimg.com/profile_background_images/349889011/usa-2-stars-stripes.jpg
p1574
sg122
VRVAmericaInc
p1575
sg124
I8
sg125
VRVAmericaInc
p1576
sg127
VEFEFEF
p1577
sg129
Vhttp://t.co/kNblS5UtpV
p1578
sg131
I394824303
sg132
V131516
p1579
sbsg134
I1
sg135
V<a href="http://www.hootsuite.com" rel="nofollow">Hootsuite</a>
p1580
sg137
(lp1581
g3
(g139
g5
Ntp1582
Rp1583
(dp1584
g143
Vhttp://t.co/KBlsqD5iGu
p1585
sg145
Vhttp://goo.gl/HsLcAH
p1586
sbasg131
I535814753487425536
sbag3
(g4
g5
Ntp1587
Rp1588
(dp1589
g9
I1
sg10
Nsg11
Nsg12
(lp1590
g3
(g379
g5
Ntp1591
Rp1592
(dp1593
g383
VWeWantToKnow
p1594
sbasg14
I00
sg15
Nsg16
Nsg17
(lp1595
(dp1596
Vexpanded_url
p1597
Vhttp://twitter.com/RVAmericaInc/status/535433790391599105/photo/1
p1598
sVdisplay_url
p1599
Vpic.twitter.com/4aW8c72Qgo
p1600
sVurl
p1601
Vhttp://t.co/4aW8c72Qgo
p1602
sVmedia_url_https
p1603
Vhttps://pbs.twimg.com/media/B24-MfJIQAA8uLZ.jpg
p1604
sVid_str
p1605
V535433789942808576
p1606
sVsizes
p1607
(dp1608
Vsmall
p1609
(dp1610
Vh
p1611
I226
sVresize
p1612
Vfit
p1613
sVw
p1614
I340
ssVlarge
p1615
(dp1616
Vh
p1617
I427
sVresize
p1618
Vfit
p1619
sVw
p1620
I640
ssVmedium
p1621
(dp1622
Vh
p1623
I400
sVresize
p1624
Vfit
p1625
sVw
p1626
I600
ssVthumb
p1627
(dp1628
Vh
p1629
I150
sVresize
p1630
Vcrop
p1631
sVw
p1632
I150
sssVindices
p1633
(lp1634
I48
aI70
asVtype
p1635
Vphoto
p1636
sVid
p1637
I535433789942808576
sVmedia_url
p1638
Vhttp://pbs.twimg.com/media/B24-MfJIQAA8uLZ.jpg
p1639
sasg63
Nsg64
Nsg65
Nsg66
VThu Nov 20 14:05:38 +0000 2014
p1640
sg68
Nsg69
I00
sg70
Nsg71
Nsg72
Nsg73
Nsg74
I00
sg75
Nsg76
(lp1641
sg78
Nsg79
V535433790391599105
p1642
sg81
Nsg82
V#WeWantToKnow what would be in your perfect RV? http://t.co/4aW8c72Qgo
p1643
sg84
I00
sg85
Ven
p1644
sg87
g3
(g88
g5
Ntp1645
Rp1646
(dp1647
g10
VDenver, CO
p1648
sg93
V333333
p1649
sg95
Ven
p1650
sg97
VMountain Time (US & Canada)
p1651
sg99
I562
sg100
I1102
sg66
VThu Oct 20 17:46:39 +0000 2011
p1652
sg102
I00
sg103
VRV sales, maintenance, parts and rentals in Denver and surrounding areas. Start your outdoor adventure today.
p1653
sg105
Vhttps://pbs.twimg.com/profile_images/1598190002/rv.america.logo_nbkgd2_normal.jpg
p1654
sg107
I480
sg108
I8
sg109
I-25200
sg110
Nsg111
I00
sg112
Vhttps://pbs.twimg.com/profile_banners/394824303/1399042852
p1655
sg114
I00
sg115
I01
sg116
V009999
p1656
sg118
I01
sg119
I00
sg120
Vhttp://pbs.twimg.com/profile_background_images/349889011/usa-2-stars-stripes.jpg
p1657
sg122
VRVAmericaInc
p1658
sg124
I8
sg125
VRVAmericaInc
p1659
sg127
VEFEFEF
p1660
sg129
Vhttp://t.co/kNblS5UtpV
p1661
sg131
I394824303
sg132
V131516
p1662
sbsg134
I0
sg135
V<a href="http://www.hootsuite.com" rel="nofollow">Hootsuite</a>
p1663
sg137
(lp1664
sg131
I535433790391599105
sbag3
(g4
g5
Ntp1665
Rp1666
(dp1667
g9
I0
sg10
Nsg11
Nsg12
(lp1668
sg14
I00
sg15
Nsg16
Nsg17
(lp1669
(dp1670
Vexpanded_url
p1671
Vhttp://twitter.com/RVAmericaInc/status/534708991411384320/photo/1
p1672
sVdisplay_url
p1673
Vpic.twitter.com/7CUBHxIkvW
p1674
sVurl
p1675
Vhttp://t.co/7CUBHxIkvW
p1676
sVmedia_url_https
p1677
Vhttps://pbs.twimg.com/media/B2uq_ocIIAEOSJc.jpg
p1678
sVid_str
p1679
V534708990937407489
p1680
sVsizes
p1681
(dp1682
Vsmall
p1683
(dp1684
Vh
p1685
I225
sVresize
p1686
Vfit
p1687
sVw
p1688
I340
ssVlarge
p1689
(dp1690
Vh
p1691
I425
sVresize
p1692
Vfit
p1693
sVw
p1694
I640
ssVmedium
p1695
(dp1696
Vh
p1697
I398
sVresize
p1698
Vfit
p1699
sVw
p1700
I600
ssVthumb
p1701
(dp1702
Vh
p1703
I150
sVresize
p1704
Vcrop
p1705
sVw
p1706
I150
sssVindices
p1707
(lp1708
I82
aI104
asVtype
p1709
Vphoto
p1710
sVid
p1711
I534708990937407489
sVmedia_url
p1712
Vhttp://pbs.twimg.com/media/B2uq_ocIIAEOSJc.jpg
p1713
sasg63
Nsg64
Nsg65
Nsg66
VTue Nov 18 14:05:32 +0000 2014
p1714
sg68
Nsg69
I00
sg70
Nsg71
Nsg72
Nsg73
Nsg74
I00
sg75
Nsg76
(lp1715
sg78
Nsg79
V534708991411384320
p1716
sg81
Nsg82
VIs the RV lifestyle right for you? Click here to find out: http://t.co/1NpAknpFBu http://t.co/7CUBHxIkvW
p1717
sg84
I00
sg85
Ven
p1718
sg87
g3
(g88
g5
Ntp1719
Rp1720
(dp1721
g10
VDenver, CO
p1722
sg93
V333333
p1723
sg95
Ven
p1724
sg97
VMountain Time (US & Canada)
p1725
sg99
I562
sg100
I1102
sg66
VThu Oct 20 17:46:39 +0000 2011
p1726
sg102
I00
sg103
VRV sales, maintenance, parts and rentals in Denver and surrounding areas. Start your outdoor adventure today.
p1727
sg105
Vhttps://pbs.twimg.com/profile_images/1598190002/rv.america.logo_nbkgd2_normal.jpg
p1728
sg107
I480
sg108
I8
sg109
I-25200
sg110
Nsg111
I00
sg112
Vhttps://pbs.twimg.com/profile_banners/394824303/1399042852
p1729
sg114
I00
sg115
I01
sg116
V009999
p1730
sg118
I01
sg119
I00
sg120
Vhttp://pbs.twimg.com/profile_background_images/349889011/usa-2-stars-stripes.jpg
p1731
sg122
VRVAmericaInc
p1732
sg124
I8
sg125
VRVAmericaInc
p1733
sg127
VEFEFEF
p1734
sg129
Vhttp://t.co/kNblS5UtpV
p1735
sg131
I394824303
sg132
V131516
p1736
sbsg134
I0
sg135
V<a href="http://www.hootsuite.com" rel="nofollow">Hootsuite</a>
p1737
sg137
(lp1738
g3
(g139
g5
Ntp1739
Rp1740
(dp1741
g143
Vhttp://t.co/1NpAknpFBu
p1742
sg145
Vhttp://goo.gl/EdhclW
p1743
sbasg131
I534708991411384320
sbaa.