(lp0
S'susanhunter1855'
p1
a(lp2
ccopy_reg
_reconstructor
p3
(ctwitter
Status
p4
c__builtin__
object
p5
Ntp6
Rp7
(dp8
S'_favorite_count'
p9
I0
sS'_location'
p10
NsS'_withheld_scope'
p11
NsS'hashtags'
p12
(lp13
sS'_truncated'
p14
I00
sS'_retweeted_status'
p15
NsS'_withheld_copyright'
p16
NsS'media'
p17
(lp18
sS'_place'
p19
NsS'_contributors'
p20
NsS'_current_user_retweet'
p21
NsS'_created_at'
p22
VSun Dec 14 13:55:49 +0000 2014
p23
sS'_scopes'
p24
NsS'_possibly_sensitive'
p25
NsS'_in_reply_to_screen_name'
p26
NsS'_coordinates'
p27
NsS'_in_reply_to_user_id'
p28
NsS'_geo'
p29
NsS'_favorited'
p30
I00
sS'_withheld_in_countries'
p31
NsS'user_mentions'
p32
(lp33
sS'_now'
p34
NsS'_id_str'
p35
V544128628406370304
p36
sS'_in_reply_to_status_id'
p37
NsS'_text'
p38
VWe overcame crazy ole King George became a great Nation Wanna be King Obama will not destroy us...
p39
sS'_retweeted'
p40
I00
sS'lang'
p41
Ven
p42
sS'_user'
p43
g3
(ctwitter
User
p44
g5
Ntp45
Rp46
(dp47
g10
VVero Beach, Florida
p48
sS'_profile_text_color'
p49
V333333
p50
sS'_lang'
p51
Ven
p52
sS'_time_zone'
p53
NsS'_followers_count'
p54
I318
sS'_statuses_count'
p55
I5042
sg22
VTue Oct 16 23:55:28 +0000 2012
p56
sS'_verified'
p57
I00
sS'_description'
p58
VI'm a Granny, I love God, country, my children & family, pets, animals, nature,photography,human rights, our constitution..
p59
sS'_profile_image_url'
p60
Vhttps://pbs.twimg.com/profile_images/2727322662/a5522767e755d349e34702fa4c15af81_normal.jpeg
p61
sS'_friends_count'
p62
I430
sS'_favourites_count'
p63
I2964
sS'_utc_offset'
p64
NsS'_status'
p65
NsS'_protected'
p66
I00
sS'_profile_banner_url'
p67
NsS'_notifications'
p68
I00
sS'_profile_background_tile'
p69
I00
sS'_profile_link_color'
p70
V0084B4
p71
sS'_geo_enabled'
p72
I01
sS'_contributors_enabled'
p73
I00
sS'_profile_background_image_url'
p74
Vhttp://abs.twimg.com/images/themes/theme1/bg.png
p75
sS'_screen_name'
p76
Vsusanhunter1855
p77
sS'_listed_count'
p78
I7
sS'_name'
p79
VSusan M Hunter
p80
sS'_profile_sidebar_fill_color'
p81
VDDEEF6
p82
sS'_url'
p83
NsS'_id'
p84
I885589280
sS'_profile_background_color'
p85
VC0DEED
p86
sbsS'_retweet_count'
p87
I0
sS'_source'
p88
V<a href="http://twitter.com" rel="nofollow">Twitter Web Client</a>
p89
sS'urls'
p90
(lp91
sg84
I544128628406370304
sbag3
(g4
g5
Ntp92
Rp93
(dp94
g9
I0
sg10
Nsg11
Nsg12
(lp95
g3
(ctwitter
Hashtag
p96
g5
Ntp97
Rp98
(dp99
S'text'
p100
VBB4SP
p101
sbasg14
I00
sg15
g3
(g4
g5
Ntp102
Rp103
(dp104
g9
I23
sg10
Nsg11
Nsg12
(lp105
g3
(g96
g5
Ntp106
Rp107
(dp108
g100
VBB4SP
p109
sbasg14
I00
sg15
Nsg16
Nsg17
(lp110
(dp111
Vexpanded_url
p112
Vhttp://twitter.com/NaughtyBeyotch/status/544122186064470017/photo/1
p113
sVdisplay_url
p114
Vpic.twitter.com/0pOJ1LhV2I
p115
sVurl
p116
Vhttp://t.co/0pOJ1LhV2I
p117
sVmedia_url_https
p118
Vhttps://pbs.twimg.com/media/B40cPsvIcAAdlAB.jpg
p119
sVid_str
p120
V544122186014158848
p121
sVsizes
p122
(dp123
Vsmall
p124
(dp125
Vh
p126
I340
sVresize
p127
Vfit
p128
sVw
p129
I340
ssVlarge
p130
(dp131
Vh
p132
I403
sVresize
p133
Vfit
p134
sVw
p135
I403
ssVmedium
p136
(dp137
Vh
p138
I403
sVresize
p139
Vfit
p140
sVw
p141
I403
ssVthumb
p142
(dp143
Vh
p144
I150
sVresize
p145
Vcrop
p146
sVw
p147
I150
sssVindices
p148
(lp149
I102
aI124
asVtype
p150
Vphoto
p151
sVid
p152
I544122186014158848
sVmedia_url
p153
Vhttp://pbs.twimg.com/media/B40cPsvIcAAdlAB.jpg
p154
sasg19
Nsg20
Nsg21
Nsg22
VSun Dec 14 13:30:13 +0000 2014
p155
sg24
Nsg25
I00
sg26
Nsg27
Nsg28
Nsg29
Nsg30
I00
sg31
Nsg32
(lp156
sg34
Nsg35
V544122186064470017
p157
sg37
Nsg38
V\u2605\u2605\u2605 Patriots Who Dare... Join our fight to save America! \u27a0 Click Here \u27a0 http://t.co/tZqqRaTund #BB4SP http://t.co/0pOJ1LhV2I
p158
sg40
I00
sg41
Ven
p159
sg43
g3
(g44
g5
Ntp160
Rp161
(dp162
g10
VTexas
p163
sg49
V333333
p164
sg51
Ven
p165
sg53
VCentral Time (US & Canada)
p166
sg54
I71031
sg55
I176169
sg22
VFri Jan 27 13:22:58 +0000 2012
p167
sg57
I00
sg58
VI'm that evil CONSERVATIVE Obama warned you about...               Pro-Palin #Conservative, #Pro-Life,
p168
sg60
Vhttps://pbs.twimg.com/profile_images/2325278828/3vk1c4cr6p302r98qbed_normal.gif
p169
sg62
I46876
sg63
I688
sg64
I-21600
sg65
Nsg66
I00
sg67
Vhttps://pbs.twimg.com/profile_banners/475811383/1359238543
p170
sg68
I00
sg69
I01
sg70
VDD2E44
p171
sg72
I00
sg73
I00
sg74
Vhttp://pbs.twimg.com/profile_background_images/583872427/7jlgbhszc77dbaln32zz.jpeg
p172
sg76
VNaughtyBeyotch
p173
sg78
I667
sg79
VConservative Chick
p174
sg81
VDDEEF6
p175
sg83
Vhttp://t.co/tEZppnJEvN
p176
sg84
I475811383
sg85
VC0DEED
p177
sbsg87
I20
sg88
V<a href="http://bufferapp.com" rel="nofollow">Buffer</a>
p178
sg90
(lp179
g3
(ctwitter
Url
p180
g5
Ntp181
Rp182
(dp183
S'url'
p184
Vhttp://t.co/tZqqRaTund
p185
sS'expanded_url'
p186
Vhttp://bit.ly/1A5b3IN
p187
sbasg84
I544122186064470017
sbsg16
Nsg17
(lp188
(dp189
Vsource_user_id
p190
I475811383
sVsource_status_id_str
p191
V544122186064470017
p192
sVexpanded_url
p193
Vhttp://twitter.com/NaughtyBeyotch/status/544122186064470017/photo/1
p194
sVdisplay_url
p195
Vpic.twitter.com/0pOJ1LhV2I
p196
sVurl
p197
Vhttp://t.co/0pOJ1LhV2I
p198
sVmedia_url_https
p199
Vhttps://pbs.twimg.com/media/B40cPsvIcAAdlAB.jpg
p200
sVsource_user_id_str
p201
V475811383
p202
sVsource_status_id
p203
I544122186064470017
sVid_str
p204
V544122186014158848
p205
sVsizes
p206
(dp207
Vsmall
p208
(dp209
Vh
p210
I340
sVresize
p211
Vfit
p212
sVw
p213
I340
ssVlarge
p214
(dp215
Vh
p216
I403
sVresize
p217
Vfit
p218
sVw
p219
I403
ssVmedium
p220
(dp221
Vh
p222
I403
sVresize
p223
Vfit
p224
sVw
p225
I403
ssVthumb
p226
(dp227
Vh
p228
I150
sVresize
p229
Vcrop
p230
sVw
p231
I150
sssVindices
p232
(lp233
I139
aI140
asVtype
p234
Vphoto
p235
sVid
p236
I544122186014158848
sVmedia_url
p237
Vhttp://pbs.twimg.com/media/B40cPsvIcAAdlAB.jpg
p238
sasg19
Nsg20
Nsg21
Nsg22
VSun Dec 14 13:41:14 +0000 2014
p239
sg24
Nsg25
I00
sg26
Nsg27
Nsg28
Nsg29
Nsg30
I00
sg31
Nsg32
(lp240
g3
(g44
g5
Ntp241
Rp242
(dp243
g10
Nsg49
Nsg51
Nsg53
Nsg54
Nsg55
Nsg22
Nsg57
Nsg58
Nsg60
Nsg62
Nsg63
Nsg64
Nsg65
Nsg66
Nsg67
Nsg68
Nsg69
Nsg70
Nsg72
Nsg73
Nsg74
Nsg76
VNaughtyBeyotch
p244
sg78
Nsg79
VConservative Chick
p245
sg81
Nsg83
Nsg84
I475811383
sg85
Nsbasg34
Nsg35
V544124958100959232
p246
sg37
Nsg38
VRT @NaughtyBeyotch: \u2605\u2605\u2605 Patriots Who Dare... Join our fight to save America! \u27a0 Click Here \u27a0 http://t.co/tZqqRaTund #BB4SP http://t.co/0pOJ1\u2026
p247
sg40
I00
sg41
Ven
p248
sg43
g3
(g44
g5
Ntp249
Rp250
(dp251
g10
VVero Beach, Florida
p252
sg49
V333333
p253
sg51
Ven
p254
sg53
Nsg54
I318
sg55
I5042
sg22
VTue Oct 16 23:55:28 +0000 2012
p255
sg57
I00
sg58
VI'm a Granny, I love God, country, my children & family, pets, animals, nature,photography,human rights, our constitution..
p256
sg60
Vhttps://pbs.twimg.com/profile_images/2727322662/a5522767e755d349e34702fa4c15af81_normal.jpeg
p257
sg62
I430
sg63
I2964
sg64
Nsg65
Nsg66
I00
sg67
Nsg68
I00
sg69
I00
sg70
V0084B4
p258
sg72
I01
sg73
I00
sg74
Vhttp://abs.twimg.com/images/themes/theme1/bg.png
p259
sg76
Vsusanhunter1855
p260
sg78
I7
sg79
VSusan M Hunter
p261
sg81
VDDEEF6
p262
sg83
Nsg84
I885589280
sg85
VC0DEED
p263
sbsg87
I20
sg88
V<a href="http://twitter.com" rel="nofollow">Twitter Web Client</a>
p264
sg90
(lp265
g3
(g180
g5
Ntp266
Rp267
(dp268
g184
Vhttp://t.co/tZqqRaTund
p269
sg186
Vhttp://bit.ly/1A5b3IN
p270
sbasg84
I544124958100959232
sbag3
(g4
g5
Ntp271
Rp272
(dp273
g9
I0
sg10
Nsg11
Nsg12
(lp274
sg14
I00
sg15
g3
(g4
g5
Ntp275
Rp276
(dp277
g9
I12
sg10
Nsg11
Nsg12
(lp278
sg14
I00
sg15
Nsg16
Nsg17
(lp279
sg19
Nsg20
Nsg21
Nsg22
VSun Dec 14 13:31:10 +0000 2014
p280
sg24
Nsg25
Nsg26
Nsg27
Nsg28
Nsg29
Nsg30
I00
sg31
Nsg32
(lp281
g3
(g44
g5
Ntp282
Rp283
(dp284
g10
Nsg49
Nsg51
Nsg53
Nsg54
Nsg55
Nsg22
Nsg57
Nsg58
Nsg60
Nsg62
Nsg63
Nsg64
Nsg65
Nsg66
Nsg67
Nsg68
Nsg69
Nsg70
Nsg72
Nsg73
Nsg74
Nsg76
Vmamakahara8110
p285
sg78
Nsg79
V\u30de\u30e9\u30a4\u30a2\u30003\u2665\u2665 new account
p286
sg81
Nsg83
Nsg84
I2926527871
sg85
Nsbag3
(g44
g5
Ntp287
Rp288
(dp289
g10
Nsg49
Nsg51
Nsg53
Nsg54
Nsg55
Nsg22
Nsg57
Nsg58
Nsg60
Nsg62
Nsg63
Nsg64
Nsg65
Nsg66
Nsg67
Nsg68
Nsg69
Nsg70
Nsg72
Nsg73
Nsg74
Nsg76
Vgsdlady2
p290
sg78
Nsg79
VGSD \u7236 Lady
p291
sg81
Nsg83
Nsg84
I625766440
sg85
Nsbag3
(g44
g5
Ntp292
Rp293
(dp294
g10
Nsg49
Nsg51
Nsg53
Nsg54
Nsg55
Nsg22
Nsg57
Nsg58
Nsg60
Nsg62
Nsg63
Nsg64
Nsg65
Nsg66
Nsg67
Nsg68
Nsg69
Nsg70
Nsg72
Nsg73
Nsg74
Nsg76
VSissy2814
p295
sg78
Nsg79
VMax
p296
sg81
Nsg83
Nsg84
I252924667
sg85
Nsbasg34
Nsg35
V544122427228176384
p297
sg37
Nsg38
VIf we can fill one day with happiness, we have what we need to start a lifetime of joy\u000a\u000a@mamakahara8110  @gsdlady2  @Sissy2814 \u000a&lt;&lt;THANK YOU
p298
sg40
I00
sg41
Ven
p299
sg43
g3
(g44
g5
Ntp300
Rp301
(dp302
g10
VGlasgow
p303
sg49
V333333
p304
sg51
Ven
p305
sg53
VLondon
p306
sg54
I105962
sg55
I212006
sg22
VWed Feb 15 10:15:11 +0000 2012
p307
sg57
I00
sg58
VHousebound is no worse than earthbound it's what you make of it. Multiple Sclerosis (PRMS), Fibro, COPD and more, may have limited me but it can't destroy me.
p308
sg60
Vhttps://pbs.twimg.com/profile_images/2372488460/ytp80fzk41lslp3ykm3u_normal.png
p309
sg62
I106624
sg63
I16576
sg64
I0
sg65
Nsg66
I00
sg67
Vhttps://pbs.twimg.com/profile_banners/492991594/1396890432
p310
sg68
I00
sg69
I01
sg70
V300099
p311
sg72
I01
sg73
I00
sg74
Vhttp://pbs.twimg.com/profile_background_images/501875238/tumblr_lzuhssWhRj1qzpe8uo1_500.jpg
p312
sg76
VLtd_To_Two
p313
sg78
I1556
sg79
VPamela Sutherland
p314
sg81
VDDEEF6
p315
sg83
Vhttp://t.co/d8GiUHY5Qy
p316
sg84
I492991594
sg85
V030B0F
p317
sbsg87
I11
sg88
V<a href="https://about.twitter.com/products/tweetdeck" rel="nofollow">TweetDeck</a>
p318
sg90
(lp319
sg84
I544122427228176384
sbsg16
Nsg17
(lp320
sg19
Nsg20
Nsg21
Nsg22
VSun Dec 14 13:37:07 +0000 2014
p321
sg24
Nsg25
Nsg26
Nsg27
Nsg28
Nsg29
Nsg30
I00
sg31
Nsg32
(lp322
g3
(g44
g5
Ntp323
Rp324
(dp325
g10
Nsg49
Nsg51
Nsg53
Nsg54
Nsg55
Nsg22
Nsg57
Nsg58
Nsg60
Nsg62
Nsg63
Nsg64
Nsg65
Nsg66
Nsg67
Nsg68
Nsg69
Nsg70
Nsg72
Nsg73
Nsg74
Nsg76
VLtd_To_Two
p326
sg78
Nsg79
VPamela Sutherland
p327
sg81
Nsg83
Nsg84
I492991594
sg85
Nsbag3
(g44
g5
Ntp328
Rp329
(dp330
g10
Nsg49
Nsg51
Nsg53
Nsg54
Nsg55
Nsg22
Nsg57
Nsg58
Nsg60
Nsg62
Nsg63
Nsg64
Nsg65
Nsg66
Nsg67
Nsg68
Nsg69
Nsg70
Nsg72
Nsg73
Nsg74
Nsg76
Vmamakahara8110
p331
sg78
Nsg79
V\u30de\u30e9\u30a4\u30a2\u30003\u2665\u2665 new account
p332
sg81
Nsg83
Nsg84
I2926527871
sg85
Nsbag3
(g44
g5
Ntp333
Rp334
(dp335
g10
Nsg49
Nsg51
Nsg53
Nsg54
Nsg55
Nsg22
Nsg57
Nsg58
Nsg60
Nsg62
Nsg63
Nsg64
Nsg65
Nsg66
Nsg67
Nsg68
Nsg69
Nsg70
Nsg72
Nsg73
Nsg74
Nsg76
Vgsdlady2
p336
sg78
Nsg79
VGSD \u7236 Lady
p337
sg81
Nsg83
Nsg84
I625766440
sg85
Nsbag3
(g44
g5
Ntp338
Rp339
(dp340
g10
Nsg49
Nsg51
Nsg53
Nsg54
Nsg55
Nsg22
Nsg57
Nsg58
Nsg60
Nsg62
Nsg63
Nsg64
Nsg65
Nsg66
Nsg67
Nsg68
Nsg69
Nsg70
Nsg72
Nsg73
Nsg74
Nsg76
VSissy2814
p341
sg78
Nsg79
VMax
p342
sg81
Nsg83
Nsg84
I252924667
sg85
Nsbasg34
Nsg35
V544123923055804417
p343
sg37
Nsg38
VRT @Ltd_To_Two: If we can fill one day with happiness, we have what we need to start a lifetime of joy\u000a\u000a@mamakahara8110  @gsdlady2  @Sissy2\u2026
p344
sg40
I00
sg41
Ven
p345
sg43
g3
(g44
g5
Ntp346
Rp347
(dp348
g10
VVero Beach, Florida
p349
sg49
V333333
p350
sg51
Ven
p351
sg53
Nsg54
I318
sg55
I5042
sg22
VTue Oct 16 23:55:28 +0000 2012
p352
sg57
I00
sg58
VI'm a Granny, I love God, country, my children & family, pets, animals, nature,photography,human rights, our constitution..
p353
sg60
Vhttps://pbs.twimg.com/profile_images/2727322662/a5522767e755d349e34702fa4c15af81_normal.jpeg
p354
sg62
I430
sg63
I2964
sg64
Nsg65
Nsg66
I00
sg67
Nsg68
I00
sg69
I00
sg70
V0084B4
p355
sg72
I01
sg73
I00
sg74
Vhttp://abs.twimg.com/images/themes/theme1/bg.png
p356
sg76
Vsusanhunter1855
p357
sg78
I7
sg79
VSusan M Hunter
p358
sg81
VDDEEF6
p359
sg83
Nsg84
I885589280
sg85
VC0DEED
p360
sbsg87
I11
sg88
V<a href="http://twitter.com" rel="nofollow">Twitter Web Client</a>
p361
sg90
(lp362
sg84
I544123923055804417
sbag3
(g4
g5
Ntp363
Rp364
(dp365
g9
I0
sg10
Nsg11
Nsg12
(lp366
sg14
I00
sg15
g3
(g4
g5
Ntp367
Rp368
(dp369
g9
I5
sg10
Nsg11
Nsg12
(lp370
sg14
I00
sg15
Nsg16
Nsg17
(lp371
sg19
Nsg20
Nsg21
Nsg22
VSun Dec 14 13:31:41 +0000 2014
p372
sg24
Nsg25
Nsg26
Nsg27
Nsg28
Nsg29
Nsg30
I00
sg31
Nsg32
(lp373
sg34
Nsg35
V544122556274724865
p374
sg37
Nsg38
VI don't hate elves. I simply forgot to check the oven before I pre-heated it to make a pizza. Are these cuffs really necessary officer?
p375
sg40
I00
sg41
Ven
p376
sg43
g3
(g44
g5
Ntp377
Rp378
(dp379
g10
VPennsylvania
p380
sg49
V000000
p381
sg51
Ven
p382
sg53
VAtlantic Time (Canada)
p383
sg54
I6295
sg55
I37200
sg22
VFri May 10 16:52:10 +0000 2013
p384
sg57
I00
sg58
VDad, grandpa, hunter, fisherman, biologist, horror, sports, rock, beer drinker extraordinaire. #BraydenStrong #TeamEmily #CRPS #PTSD #Eagles #PennState #KCCO
p385
sg60
Vhttps://pbs.twimg.com/profile_images/529403315113582592/m1UX1oOH_normal.jpeg
p386
sg62
I6108
sg63
I79419
sg64
I-14400
sg65
Nsg66
I00
sg67
Vhttps://pbs.twimg.com/profile_banners/1418589001/1416216686
p387
sg68
I00
sg69
I00
sg70
V3B94D9
p388
sg72
I00
sg73
I00
sg74
Vhttp://abs.twimg.com/images/themes/theme1/bg.png
p389
sg76
VUncleBob56
p390
sg78
I170
sg79
VPappy
p391
sg81
V000000
p392
sg83
Vhttp://t.co/wkD0QA8s7s
p393
sg84
I1418589001
sg85
V000000
p394
sbsg87
I1
sg88
V<a href="http://twitter.com" rel="nofollow">Twitter Web Client</a>
p395
sg90
(lp396
sg84
I544122556274724865
sbsg16
Nsg17
(lp397
sg19
Nsg20
Nsg21
Nsg22
VSun Dec 14 13:34:38 +0000 2014
p398
sg24
Nsg25
Nsg26
Nsg27
Nsg28
Nsg29
Nsg30
I00
sg31
Nsg32
(lp399
g3
(g44
g5
Ntp400
Rp401
(dp402
g10
Nsg49
Nsg51
Nsg53
Nsg54
Nsg55
Nsg22
Nsg57
Nsg58
Nsg60
Nsg62
Nsg63
Nsg64
Nsg65
Nsg66
Nsg67
Nsg68
Nsg69
Nsg70
Nsg72
Nsg73
Nsg74
Nsg76
VUncleBob56
p403
sg78
Nsg79
VPappy
p404
sg81
Nsg83
Nsg84
I1418589001
sg85
Nsbasg34
Nsg35
V544123300952412160
p405
sg37
Nsg38
VRT @UncleBob56: I don't hate elves. I simply forgot to check the oven before I pre-heated it to make a pizza. Are these cuffs really necess\u2026
p406
sg40
I00
sg41
Ven
p407
sg43
g3
(g44
g5
Ntp408
Rp409
(dp410
g10
VVero Beach, Florida
p411
sg49
V333333
p412
sg51
Ven
p413
sg53
Nsg54
I318
sg55
I5042
sg22
VTue Oct 16 23:55:28 +0000 2012
p414
sg57
I00
sg58
VI'm a Granny, I love God, country, my children & family, pets, animals, nature,photography,human rights, our constitution..
p415
sg60
Vhttps://pbs.twimg.com/profile_images/2727322662/a5522767e755d349e34702fa4c15af81_normal.jpeg
p416
sg62
I430
sg63
I2964
sg64
Nsg65
Nsg66
I00
sg67
Nsg68
I00
sg69
I00
sg70
V0084B4
p417
sg72
I01
sg73
I00
sg74
Vhttp://abs.twimg.com/images/themes/theme1/bg.png
p418
sg76
Vsusanhunter1855
p419
sg78
I7
sg79
VSusan M Hunter
p420
sg81
VDDEEF6
p421
sg83
Nsg84
I885589280
sg85
VC0DEED
p422
sbsg87
I1
sg88
V<a href="http://twitter.com" rel="nofollow">Twitter Web Client</a>
p423
sg90
(lp424
sg84
I544123300952412160
sbag3
(g4
g5
Ntp425
Rp426
(dp427
g9
I0
sg10
Nsg11
Nsg12
(lp428
sg14
I00
sg15
Nsg16
Nsg17
(lp429
sg19
Nsg20
Nsg21
Nsg22
VSun Dec 14 13:32:28 +0000 2014
p430
sg24
Nsg25
Nsg26
Nsg27
Nsg28
Nsg29
Nsg30
I00
sg31
Nsg32
(lp431
sg34
Nsg35
V544122755827126272
p432
sg37
Nsg38
VI must live by faith not by sight because a lot of what I see is so awful while faith believing GOD shows me a better day a better way AMEN
p433
sg40
I00
sg41
Ven
p434
sg43
g3
(g44
g5
Ntp435
Rp436
(dp437
g10
VVero Beach, Florida
p438
sg49
V333333
p439
sg51
Ven
p440
sg53
Nsg54
I318
sg55
I5042
sg22
VTue Oct 16 23:55:28 +0000 2012
p441
sg57
I00
sg58
VI'm a Granny, I love God, country, my children & family, pets, animals, nature,photography,human rights, our constitution..
p442
sg60
Vhttps://pbs.twimg.com/profile_images/2727322662/a5522767e755d349e34702fa4c15af81_normal.jpeg
p443
sg62
I430
sg63
I2964
sg64
Nsg65
Nsg66
I00
sg67
Nsg68
I00
sg69
I00
sg70
V0084B4
p444
sg72
I01
sg73
I00
sg74
Vhttp://abs.twimg.com/images/themes/theme1/bg.png
p445
sg76
Vsusanhunter1855
p446
sg78
I7
sg79
VSusan M Hunter
p447
sg81
VDDEEF6
p448
sg83
Nsg84
I885589280
sg85
VC0DEED
p449
sbsg87
I0
sg88
V<a href="http://twitter.com" rel="nofollow">Twitter Web Client</a>
p450
sg90
(lp451
sg84
I544122755827126272
sbag3
(g4
g5
Ntp452
Rp453
(dp454
g9
I0
sg10
Nsg11
Nsg12
(lp455
sg14
I00
sg15
g3
(g4
g5
Ntp456
Rp457
(dp458
g9
I54
sg10
Nsg11
Nsg12
(lp459
sg14
I00
sg15
Nsg16
Nsg17
(lp460
(dp461
Vexpanded_url
p462
Vhttp://twitter.com/Candy_Cage/status/544053852086214656/photo/1
p463
sVdisplay_url
p464
Vpic.twitter.com/M2p2I7GteR
p465
sVurl
p466
Vhttp://t.co/M2p2I7GteR
p467
sVmedia_url_https
p468
Vhttps://pbs.twimg.com/media/B4zeGF7IcAELwmR.jpg
p469
sVid_str
p470
V544053851255762945
p471
sVsizes
p472
(dp473
Vlarge
p474
(dp475
Vh
p476
I220
sVresize
p477
Vfit
p478
sVw
p479
I293
ssVsmall
p480
(dp481
Vh
p482
I220
sVresize
p483
Vfit
p484
sVw
p485
I293
ssVmedium
p486
(dp487
Vh
p488
I220
sVresize
p489
Vfit
p490
sVw
p491
I293
ssVthumb
p492
(dp493
Vh
p494
I150
sVresize
p495
Vcrop
p496
sVw
p497
I150
sssVindices
p498
(lp499
I116
aI138
asVtype
p500
Vphoto
p501
sVid
p502
I544053851255762945
sVmedia_url
p503
Vhttp://pbs.twimg.com/media/B4zeGF7IcAELwmR.jpg
p504
sasg19
Nsg20
Nsg21
Nsg22
VSun Dec 14 08:58:41 +0000 2014
p505
sg24
Nsg25
I00
sg26
VShashikaraS
p506
sg27
Nsg28
I498067144
sg29
Nsg30
I00
sg31
Nsg32
(lp507
g3
(g44
g5
Ntp508
Rp509
(dp510
g10
Nsg49
Nsg51
Nsg53
Nsg54
Nsg55
Nsg22
Nsg57
Nsg58
Nsg60
Nsg62
Nsg63
Nsg64
Nsg65
Nsg66
Nsg67
Nsg68
Nsg69
Nsg70
Nsg72
Nsg73
Nsg74
Nsg76
VShashikaraS
p511
sg78
Nsg79
Vshashikara s shetty
p512
sg81
Nsg83
Nsg84
I498067144
sg85
Nsbag3
(g44
g5
Ntp513
Rp514
(dp515
g10
Nsg49
Nsg51
Nsg53
Nsg54
Nsg55
Nsg22
Nsg57
Nsg58
Nsg60
Nsg62
Nsg63
Nsg64
Nsg65
Nsg66
Nsg67
Nsg68
Nsg69
Nsg70
Nsg72
Nsg73
Nsg74
Nsg76
Vvitali_giuseppe
p516
sg78
Nsg79
VGiuseppe Vitali
p517
sg81
Nsg83
Nsg84
I1629678848
sg85
Nsbag3
(g44
g5
Ntp518
Rp519
(dp520
g10
Nsg49
Nsg51
Nsg53
Nsg54
Nsg55
Nsg22
Nsg57
Nsg58
Nsg60
Nsg62
Nsg63
Nsg64
Nsg65
Nsg66
Nsg67
Nsg68
Nsg69
Nsg70
Nsg72
Nsg73
Nsg74
Nsg76
V247razz
p521
sg78
Nsg79
Vtim cornwell
p522
sg81
Nsg83
Nsg84
I272175633
sg85
Nsbag3
(g44
g5
Ntp523
Rp524
(dp525
g10
Nsg49
Nsg51
Nsg53
Nsg54
Nsg55
Nsg22
Nsg57
Nsg58
Nsg60
Nsg62
Nsg63
Nsg64
Nsg65
Nsg66
Nsg67
Nsg68
Nsg69
Nsg70
Nsg72
Nsg73
Nsg74
Nsg76
Viamalive41
p526
sg78
Nsg79
Viamalive41
p527
sg81
Nsg83
Nsg84
I265612643
sg85
Nsbag3
(g44
g5
Ntp528
Rp529
(dp530
g10
Nsg49
Nsg51
Nsg53
Nsg54
Nsg55
Nsg22
Nsg57
Nsg58
Nsg60
Nsg62
Nsg63
Nsg64
Nsg65
Nsg66
Nsg67
Nsg68
Nsg69
Nsg70
Nsg72
Nsg73
Nsg74
Nsg76
VAcWgst
p531
sg78
Nsg79
VL\u2661VE
p532
sg81
Nsg83
Nsg84
I765025706
sg85
Nsbag3
(g44
g5
Ntp533
Rp534
(dp535
g10
Nsg49
Nsg51
Nsg53
Nsg54
Nsg55
Nsg22
Nsg57
Nsg58
Nsg60
Nsg62
Nsg63
Nsg64
Nsg65
Nsg66
Nsg67
Nsg68
Nsg69
Nsg70
Nsg72
Nsg73
Nsg74
Nsg76
VAlycyaDisney
p536
sg78
Nsg79
V\u255a\u2550 \u2665@lycy@\u2665 \u2550\u255d
p537
sg81
Nsg83
Nsg84
I1289072779
sg85
Nsbag3
(g44
g5
Ntp538
Rp539
(dp540
g10
Nsg49
Nsg51
Nsg53
Nsg54
Nsg55
Nsg22
Nsg57
Nsg58
Nsg60
Nsg62
Nsg63
Nsg64
Nsg65
Nsg66
Nsg67
Nsg68
Nsg69
Nsg70
Nsg72
Nsg73
Nsg74
Nsg76
VAlexx_xxelA
p541
sg78
Nsg79
VAlex\u2665RDJ&DylC
p542
sg81
Nsg83
Nsg84
I2300543806
sg85
Nsbag3
(g44
g5
Ntp543
Rp544
(dp545
g10
Nsg49
Nsg51
Nsg53
Nsg54
Nsg55
Nsg22
Nsg57
Nsg58
Nsg60
Nsg62
Nsg63
Nsg64
Nsg65
Nsg66
Nsg67
Nsg68
Nsg69
Nsg70
Nsg72
Nsg73
Nsg74
Nsg76
Vleone4964
p546
sg78
Nsg79
VG.B.
p547
sg81
Nsg83
Nsg84
I2452701214
sg85
Nsbag3
(g44
g5
Ntp548
Rp549
(dp550
g10
Nsg49
Nsg51
Nsg53
Nsg54
Nsg55
Nsg22
Nsg57
Nsg58
Nsg60
Nsg62
Nsg63
Nsg64
Nsg65
Nsg66
Nsg67
Nsg68
Nsg69
Nsg70
Nsg72
Nsg73
Nsg74
Nsg76
V960Sonia
p551
sg78
Nsg79
VSonia Frisiero
p552
sg81
Nsg83
Nsg84
I2629503372
sg85
Nsbag3
(g44
g5
Ntp553
Rp554
(dp555
g10
Nsg49
Nsg51
Nsg53
Nsg54
Nsg55
Nsg22
Nsg57
Nsg58
Nsg60
Nsg62
Nsg63
Nsg64
Nsg65
Nsg66
Nsg67
Nsg68
Nsg69
Nsg70
Nsg72
Nsg73
Nsg74
Nsg76
Vannmavi
p556
sg78
Nsg79
Vannmavi
p557
sg81
Nsg83
Nsg84
I2152870890
sg85
Nsbasg34
Nsg35
V544053852086214656
p558
sg37
I544051262618996737
sg38
V@ShashikaraS @vitali_giuseppe @247razz @iamalive41 @AcWgst @AlycyaDisney @Alexx_xxelA @leone4964 @960Sonia @annmavi http://t.co/M2p2I7GteR
p559
sg40
I00
sg41
Vund
p560
sg43
g3
(g44
g5
Ntp561
Rp562
(dp563
g10
VGermany
p564
sg49
V000000
p565
sg51
Vde
p566
sg53
VBerlin
p567
sg54
I1595
sg55
I23967
sg22
VSat Sep 01 19:40:36 +0000 2012
p568
sg57
I00
sg58
VSmall-Town-Girl like laughing, movies, music, nature, animals, photograph, perfumes and @TomCruise
p569
sg60
Vhttps://pbs.twimg.com/profile_images/542409252212457472/LJXfPGhu_normal.jpeg
p570
sg62
I1497
sg63
I16147
sg64
I3600
sg65
Nsg66
I00
sg67
Vhttps://pbs.twimg.com/profile_banners/796733526/1418155595
p571
sg68
I00
sg69
I00
sg70
VDD2E44
p572
sg72
I00
sg73
I00
sg74
Vhttp://abs.twimg.com/images/themes/theme9/bg.gif
p573
sg76
VCandy_Cage
p574
sg78
I34
sg79
VTom'sCat
p575
sg81
V000000
p576
sg83
Vhttp://t.co/BJSgRwXVGD
p577
sg84
I796733526
sg85
V4A913C
p578
sbsg87
I40
sg88
V<a href="http://twitter.com/#!/download/ipad" rel="nofollow">Twitter for iPad</a>
p579
sg90
(lp580
sg84
I544053852086214656
sbsg16
Nsg17
(lp581
(dp582
Vsource_user_id
p583
I796733526
sVsource_status_id_str
p584
V544053852086214656
p585
sVexpanded_url
p586
Vhttp://twitter.com/Candy_Cage/status/544053852086214656/photo/1
p587
sVdisplay_url
p588
Vpic.twitter.com/M2p2I7GteR
p589
sVurl
p590
Vhttp://t.co/M2p2I7GteR
p591
sVmedia_url_https
p592
Vhttps://pbs.twimg.com/media/B4zeGF7IcAELwmR.jpg
p593
sVsource_user_id_str
p594
V796733526
p595
sVsource_status_id
p596
I544053852086214656
sVid_str
p597
V544053851255762945
p598
sVsizes
p599
(dp600
Vlarge
p601
(dp602
Vh
p603
I220
sVresize
p604
Vfit
p605
sVw
p606
I293
ssVsmall
p607
(dp608
Vh
p609
I220
sVresize
p610
Vfit
p611
sVw
p612
I293
ssVmedium
p613
(dp614
Vh
p615
I220
sVresize
p616
Vfit
p617
sVw
p618
I293
ssVthumb
p619
(dp620
Vh
p621
I150
sVresize
p622
Vcrop
p623
sVw
p624
I150
sssVindices
p625
(lp626
I139
aI140
asVtype
p627
Vphoto
p628
sVid
p629
I544053851255762945
sVmedia_url
p630
Vhttp://pbs.twimg.com/media/B4zeGF7IcAELwmR.jpg
p631
sasg19
Nsg20
Nsg21
Nsg22
VSun Dec 14 13:24:26 +0000 2014
p632
sg24
Nsg25
I00
sg26
Nsg27
Nsg28
Nsg29
Nsg30
I00
sg31
Nsg32
(lp633
g3
(g44
g5
Ntp634
Rp635
(dp636
g10
Nsg49
Nsg51
Nsg53
Nsg54
Nsg55
Nsg22
Nsg57
Nsg58
Nsg60
Nsg62
Nsg63
Nsg64
Nsg65
Nsg66
Nsg67
Nsg68
Nsg69
Nsg70
Nsg72
Nsg73
Nsg74
Nsg76
VCandy_Cage
p637
sg78
Nsg79
VTom'sCat
p638
sg81
Nsg83
Nsg84
I796733526
sg85
Nsbag3
(g44
g5
Ntp639
Rp640
(dp641
g10
Nsg49
Nsg51
Nsg53
Nsg54
Nsg55
Nsg22
Nsg57
Nsg58
Nsg60
Nsg62
Nsg63
Nsg64
Nsg65
Nsg66
Nsg67
Nsg68
Nsg69
Nsg70
Nsg72
Nsg73
Nsg74
Nsg76
VShashikaraS
p642
sg78
Nsg79
Vshashikara s shetty
p643
sg81
Nsg83
Nsg84
I498067144
sg85
Nsbag3
(g44
g5
Ntp644
Rp645
(dp646
g10
Nsg49
Nsg51
Nsg53
Nsg54
Nsg55
Nsg22
Nsg57
Nsg58
Nsg60
Nsg62
Nsg63
Nsg64
Nsg65
Nsg66
Nsg67
Nsg68
Nsg69
Nsg70
Nsg72
Nsg73
Nsg74
Nsg76
Vvitali_giuseppe
p647
sg78
Nsg79
VGiuseppe Vitali
p648
sg81
Nsg83
Nsg84
I1629678848
sg85
Nsbag3
(g44
g5
Ntp649
Rp650
(dp651
g10
Nsg49
Nsg51
Nsg53
Nsg54
Nsg55
Nsg22
Nsg57
Nsg58
Nsg60
Nsg62
Nsg63
Nsg64
Nsg65
Nsg66
Nsg67
Nsg68
Nsg69
Nsg70
Nsg72
Nsg73
Nsg74
Nsg76
V247razz
p652
sg78
Nsg79
Vtim cornwell
p653
sg81
Nsg83
Nsg84
I272175633
sg85
Nsbag3
(g44
g5
Ntp654
Rp655
(dp656
g10
Nsg49
Nsg51
Nsg53
Nsg54
Nsg55
Nsg22
Nsg57
Nsg58
Nsg60
Nsg62
Nsg63
Nsg64
Nsg65
Nsg66
Nsg67
Nsg68
Nsg69
Nsg70
Nsg72
Nsg73
Nsg74
Nsg76
Viamalive41
p657
sg78
Nsg79
Viamalive41
p658
sg81
Nsg83
Nsg84
I265612643
sg85
Nsbag3
(g44
g5
Ntp659
Rp660
(dp661
g10
Nsg49
Nsg51
Nsg53
Nsg54
Nsg55
Nsg22
Nsg57
Nsg58
Nsg60
Nsg62
Nsg63
Nsg64
Nsg65
Nsg66
Nsg67
Nsg68
Nsg69
Nsg70
Nsg72
Nsg73
Nsg74
Nsg76
VAcWgst
p662
sg78
Nsg79
VL\u2661VE
p663
sg81
Nsg83
Nsg84
I765025706
sg85
Nsbag3
(g44
g5
Ntp664
Rp665
(dp666
g10
Nsg49
Nsg51
Nsg53
Nsg54
Nsg55
Nsg22
Nsg57
Nsg58
Nsg60
Nsg62
Nsg63
Nsg64
Nsg65
Nsg66
Nsg67
Nsg68
Nsg69
Nsg70
Nsg72
Nsg73
Nsg74
Nsg76
VAlycyaDisney
p667
sg78
Nsg79
V\u255a\u2550 \u2665@lycy@\u2665 \u2550\u255d
p668
sg81
Nsg83
Nsg84
I1289072779
sg85
Nsbag3
(g44
g5
Ntp669
Rp670
(dp671
g10
Nsg49
Nsg51
Nsg53
Nsg54
Nsg55
Nsg22
Nsg57
Nsg58
Nsg60
Nsg62
Nsg63
Nsg64
Nsg65
Nsg66
Nsg67
Nsg68
Nsg69
Nsg70
Nsg72
Nsg73
Nsg74
Nsg76
VAlexx_xxelA
p672
sg78
Nsg79
VAlex\u2665RDJ&DylC
p673
sg81
Nsg83
Nsg84
I2300543806
sg85
Nsbag3
(g44
g5
Ntp674
Rp675
(dp676
g10
Nsg49
Nsg51
Nsg53
Nsg54
Nsg55
Nsg22
Nsg57
Nsg58
Nsg60
Nsg62
Nsg63
Nsg64
Nsg65
Nsg66
Nsg67
Nsg68
Nsg69
Nsg70
Nsg72
Nsg73
Nsg74
Nsg76
Vleone4964
p677
sg78
Nsg79
VG.B.
p678
sg81
Nsg83
Nsg84
I2452701214
sg85
Nsbag3
(g44
g5
Ntp679
Rp680
(dp681
g10
Nsg49
Nsg51
Nsg53
Nsg54
Nsg55
Nsg22
Nsg57
Nsg58
Nsg60
Nsg62
Nsg63
Nsg64
Nsg65
Nsg66
Nsg67
Nsg68
Nsg69
Nsg70
Nsg72
Nsg73
Nsg74
Nsg76
V960Sonia
p682
sg78
Nsg79
VSonia Frisiero
p683
sg81
Nsg83
Nsg84
I2629503372
sg85
Nsbag3
(g44
g5
Ntp684
Rp685
(dp686
g10
Nsg49
Nsg51
Nsg53
Nsg54
Nsg55
Nsg22
Nsg57
Nsg58
Nsg60
Nsg62
Nsg63
Nsg64
Nsg65
Nsg66
Nsg67
Nsg68
Nsg69
Nsg70
Nsg72
Nsg73
Nsg74
Nsg76
Vannmavi
p687
sg78
Nsg79
Vannmavi
p688
sg81
Nsg83
Nsg84
I2152870890
sg85
Nsbasg34
Nsg35
V544120734302605315
p689
sg37
Nsg38
VRT @Candy_Cage: @ShashikaraS @vitali_giuseppe @247razz @iamalive41 @AcWgst @AlycyaDisney @Alexx_xxelA @leone4964 @960Sonia @annmavi http://\u2026
p690
sg40
I00
sg41
Vund
p691
sg43
g3
(g44
g5
Ntp692
Rp693
(dp694
g10
VVero Beach, Florida
p695
sg49
V333333
p696
sg51
Ven
p697
sg53
Nsg54
I318
sg55
I5042
sg22
VTue Oct 16 23:55:28 +0000 2012
p698
sg57
I00
sg58
VI'm a Granny, I love God, country, my children & family, pets, animals, nature,photography,human rights, our constitution..
p699
sg60
Vhttps://pbs.twimg.com/profile_images/2727322662/a5522767e755d349e34702fa4c15af81_normal.jpeg
p700
sg62
I430
sg63
I2964
sg64
Nsg65
Nsg66
I00
sg67
Nsg68
I00
sg69
I00
sg70
V0084B4
p701
sg72
I01
sg73
I00
sg74
Vhttp://abs.twimg.com/images/themes/theme1/bg.png
p702
sg76
Vsusanhunter1855
p703
sg78
I7
sg79
VSusan M Hunter
p704
sg81
VDDEEF6
p705
sg83
Nsg84
I885589280
sg85
VC0DEED
p706
sbsg87
I40
sg88
V<a href="http://twitter.com" rel="nofollow">Twitter Web Client</a>
p707
sg90
(lp708
sg84
I544120734302605315
sbag3
(g4
g5
Ntp709
Rp710
(dp711
g9
I0
sg10
Nsg11
Nsg12
(lp712
sg14
I00
sg15
Nsg16
Nsg17
(lp713
sg19
Nsg20
Nsg21
Nsg22
VSun Dec 14 13:20:23 +0000 2014
p714
sg24
Nsg25
Nsg26
Nsg27
Nsg28
Nsg29
Nsg30
I00
sg31
Nsg32
(lp715
sg34
Nsg35
V544119713836847104
p716
sg37
Nsg38
VI'm listening to Pastor Joel Olseen faith over fact Dont let facts get you stuck Keep praying faith GOD comes through when facts seek death.
p717
sg40
I00
sg41
Ven
p718
sg43
g3
(g44
g5
Ntp719
Rp720
(dp721
g10
VVero Beach, Florida
p722
sg49
V333333
p723
sg51
Ven
p724
sg53
Nsg54
I318
sg55
I5042
sg22
VTue Oct 16 23:55:28 +0000 2012
p725
sg57
I00
sg58
VI'm a Granny, I love God, country, my children & family, pets, animals, nature,photography,human rights, our constitution..
p726
sg60
Vhttps://pbs.twimg.com/profile_images/2727322662/a5522767e755d349e34702fa4c15af81_normal.jpeg
p727
sg62
I430
sg63
I2964
sg64
Nsg65
Nsg66
I00
sg67
Nsg68
I00
sg69
I00
sg70
V0084B4
p728
sg72
I01
sg73
I00
sg74
Vhttp://abs.twimg.com/images/themes/theme1/bg.png
p729
sg76
Vsusanhunter1855
p730
sg78
I7
sg79
VSusan M Hunter
p731
sg81
VDDEEF6
p732
sg83
Nsg84
I885589280
sg85
VC0DEED
p733
sbsg87
I0
sg88
V<a href="http://twitter.com" rel="nofollow">Twitter Web Client</a>
p734
sg90
(lp735
sg84
I544119713836847104
sbag3
(g4
g5
Ntp736
Rp737
(dp738
g9
I0
sg10
Nsg11
Nsg12
(lp739
sg14
I00
sg15
Nsg16
Nsg17
(lp740
sg19
Nsg20
Nsg21
Nsg22
VSun Dec 14 13:12:56 +0000 2014
p741
sg24
Nsg25
Nsg26
Nsg27
Nsg28
Nsg29
Nsg30
I00
sg31
Nsg32
(lp742
sg34
Nsg35
V544117838857138176
p743
sg37
Nsg38
VIts a good Sunday Morning here in South Florida Its still in the 40's I'm praying I'll have a gift for everyone in my family not an IOU :)
p744
sg40
I00
sg41
Ven
p745
sg43
g3
(g44
g5
Ntp746
Rp747
(dp748
g10
VVero Beach, Florida
p749
sg49
V333333
p750
sg51
Ven
p751
sg53
Nsg54
I318
sg55
I5042
sg22
VTue Oct 16 23:55:28 +0000 2012
p752
sg57
I00
sg58
VI'm a Granny, I love God, country, my children & family, pets, animals, nature,photography,human rights, our constitution..
p753
sg60
Vhttps://pbs.twimg.com/profile_images/2727322662/a5522767e755d349e34702fa4c15af81_normal.jpeg
p754
sg62
I430
sg63
I2964
sg64
Nsg65
Nsg66
I00
sg67
Nsg68
I00
sg69
I00
sg70
V0084B4
p755
sg72
I01
sg73
I00
sg74
Vhttp://abs.twimg.com/images/themes/theme1/bg.png
p756
sg76
Vsusanhunter1855
p757
sg78
I7
sg79
VSusan M Hunter
p758
sg81
VDDEEF6
p759
sg83
Nsg84
I885589280
sg85
VC0DEED
p760
sbsg87
I0
sg88
V<a href="http://twitter.com" rel="nofollow">Twitter Web Client</a>
p761
sg90
(lp762
sg84
I544117838857138176
sbag3
(g4
g5
Ntp763
Rp764
(dp765
g9
I0
sg10
Nsg11
Nsg12
(lp766
g3
(g96
g5
Ntp767
Rp768
(dp769
g100
V2A
p770
sbasg14
I00
sg15
g3
(g4
g5
Ntp771
Rp772
(dp773
g9
I1
sg10
Nsg11
Nsg12
(lp774
g3
(g96
g5
Ntp775
Rp776
(dp777
g100
V2A
p778
sbasg14
I00
sg15
Nsg16
Nsg17
(lp779
sg19
Nsg20
Nsg21
Nsg22
VWed Dec 10 19:38:38 +0000 2014
p780
sg24
Nsg25
Nsg26
Vsusanhunter1855
p781
sg27
Nsg28
I885589280
sg29
Nsg30
I00
sg31
Nsg32
(lp782
g3
(g44
g5
Ntp783
Rp784
(dp785
g10
Nsg49
Nsg51
Nsg53
Nsg54
Nsg55
Nsg22
Nsg57
Nsg58
Nsg60
Nsg62
Nsg63
Nsg64
Nsg65
Nsg66
Nsg67
Nsg68
Nsg69
Nsg70
Nsg72
Nsg73
Nsg74
Nsg76
Vsusanhunter1855
p786
sg78
Nsg79
VSusan M Hunter
p787
sg81
Nsg83
Nsg84
I885589280
sg85
Nsbasg34
Nsg35
V542765351705260032
p788
sg37
I542761473936588800
sg38
V@susanhunter1855 The Office of the POTUS owes its existence &amp; authority solely to the "free State" #2A the Constitution created.
p789
sg40
I00
sg41
Ven
p790
sg43
g3
(g44
g5
Ntp791
Rp792
(dp793
g10
VU.S.
p794
sg49
V333333
p795
sg51
Ven
p796
sg53
VPacific Time (US & Canada)
p797
sg54
I32555
sg55
I36939
sg22
VThu Jan 17 01:52:36 +0000 2013
p798
sg57
I00
sg58
VState Legislated Governmental Institutions with full constitutional legal authority required by Amendment 2 as: necessary to the security of a free State.
p799
sg60
Vhttps://pbs.twimg.com/profile_images/3354762358/a55d5a1ae1c9da6338d60dd9391ea2c0_normal.jpeg
p800
sg62
I32876
sg63
I321
sg64
I-28800
sg65
Nsg66
I00
sg67
Vhttps://pbs.twimg.com/profile_banners/1096901059/1398636509
p801
sg68
I00
sg69
I00
sg70
VAD1111
p802
sg72
I00
sg73
I00
sg74
Vhttp://pbs.twimg.com/profile_background_images/378800000182489801/_Z10RnB5.png
p803
sg76
VCONSMILITIA
p804
sg78
I280
sg79
VConstitutionalMilita
p805
sg81
VEFEFEF
p806
sg83
Vhttp://t.co/jL1oQs5QkP
p807
sg84
I1096901059
sg85
V131516
p808
sbsg87
I1
sg88
V<a href="http://twitter.com" rel="nofollow">Twitter Web Client</a>
p809
sg90
(lp810
sg84
I542765351705260032
sbsg16
Nsg17
(lp811
sg19
Nsg20
Nsg21
Nsg22
VSat Dec 13 14:01:02 +0000 2014
p812
sg24
Nsg25
Nsg26
Nsg27
Nsg28
Nsg29
Nsg30
I00
sg31
Nsg32
(lp813
g3
(g44
g5
Ntp814
Rp815
(dp816
g10
Nsg49
Nsg51
Nsg53
Nsg54
Nsg55
Nsg22
Nsg57
Nsg58
Nsg60
Nsg62
Nsg63
Nsg64
Nsg65
Nsg66
Nsg67
Nsg68
Nsg69
Nsg70
Nsg72
Nsg73
Nsg74
Nsg76
VCONSMILITIA
p817
sg78
Nsg79
VConstitutionalMilita
p818
sg81
Nsg83
Nsg84
I1096901059
sg85
Nsbag3
(g44
g5
Ntp819
Rp820
(dp821
g10
Nsg49
Nsg51
Nsg53
Nsg54
Nsg55
Nsg22
Nsg57
Nsg58
Nsg60
Nsg62
Nsg63
Nsg64
Nsg65
Nsg66
Nsg67
Nsg68
Nsg69
Nsg70
Nsg72
Nsg73
Nsg74
Nsg76
Vsusanhunter1855
p822
sg78
Nsg79
VSusan M Hunter
p823
sg81
Nsg83
Nsg84
I885589280
sg85
Nsbasg34
Nsg35
V543767556965019648
p824
sg37
Nsg38
VRT @CONSMILITIA: @susanhunter1855 The Office of the POTUS owes its existence &amp; authority solely to the "free State" #2A the Constitution cr\u2026
p825
sg40
I00
sg41
Ven
p826
sg43
g3
(g44
g5
Ntp827
Rp828
(dp829
g10
VVero Beach, Florida
p830
sg49
V333333
p831
sg51
Ven
p832
sg53
Nsg54
I318
sg55
I5042
sg22
VTue Oct 16 23:55:28 +0000 2012
p833
sg57
I00
sg58
VI'm a Granny, I love God, country, my children & family, pets, animals, nature,photography,human rights, our constitution..
p834
sg60
Vhttps://pbs.twimg.com/profile_images/2727322662/a5522767e755d349e34702fa4c15af81_normal.jpeg
p835
sg62
I430
sg63
I2964
sg64
Nsg65
Nsg66
I00
sg67
Nsg68
I00
sg69
I00
sg70
V0084B4
p836
sg72
I01
sg73
I00
sg74
Vhttp://abs.twimg.com/images/themes/theme1/bg.png
p837
sg76
Vsusanhunter1855
p838
sg78
I7
sg79
VSusan M Hunter
p839
sg81
VDDEEF6
p840
sg83
Nsg84
I885589280
sg85
VC0DEED
p841
sbsg87
I1
sg88
V<a href="http://twitter.com" rel="nofollow">Twitter Web Client</a>
p842
sg90
(lp843
sg84
I543767556965019648
sbag3
(g4
g5
Ntp844
Rp845
(dp846
g9
I0
sg10
Nsg11
Nsg12
(lp847
sg14
I00
sg15
g3
(g4
g5
Ntp848
Rp849
(dp850
g9
I1
sg10
Nsg11
Nsg12
(lp851
sg14
I00
sg15
Nsg16
Nsg17
(lp852
sg19
Nsg20
Nsg21
Nsg22
VWed Dec 10 19:43:30 +0000 2014
p853
sg24
Nsg25
Nsg26
Vsusanhunter1855
p854
sg27
Nsg28
I885589280
sg29
Nsg30
I00
sg31
Nsg32
(lp855
g3
(g44
g5
Ntp856
Rp857
(dp858
g10
Nsg49
Nsg51
Nsg53
Nsg54
Nsg55
Nsg22
Nsg57
Nsg58
Nsg60
Nsg62
Nsg63
Nsg64
Nsg65
Nsg66
Nsg67
Nsg68
Nsg69
Nsg70
Nsg72
Nsg73
Nsg74
Nsg76
Vsusanhunter1855
p859
sg78
Nsg79
VSusan M Hunter
p860
sg81
Nsg83
Nsg84
I885589280
sg85
Nsbag3
(g44
g5
Ntp861
Rp862
(dp863
g10
Nsg49
Nsg51
Nsg53
Nsg54
Nsg55
Nsg22
Nsg57
Nsg58
Nsg60
Nsg62
Nsg63
Nsg64
Nsg65
Nsg66
Nsg67
Nsg68
Nsg69
Nsg70
Nsg72
Nsg73
Nsg74
Nsg76
VRealBenCarson
p864
sg78
Nsg79
VDr. Ben Carson
p865
sg81
Nsg83
Nsg84
I1180379185
sg85
Nsbasg34
Nsg35
V542766577041813504
p866
sg37
I542765493434589184
sg38
V@susanhunter1855 @RealBenCarson sorry, but historically religion dividies not unites, it is our FREEDOM that unites us, fight for THAT.
p867
sg40
I00
sg41
Ven
p868
sg43
g3
(g44
g5
Ntp869
Rp870
(dp871
g10
VAlexandria Virginia
p872
sg49
V3E4415
p873
sg51
Ven
p874
sg53
VEastern Time (US & Canada)
p875
sg54
I39
sg55
I1805
sg22
VSat May 16 18:29:08 +0000 2009
p876
sg57
I00
sg58
VIt so happens, that I am a (not so) militant moderate, a realistic romantic, a seeker of foolish wisdom, AND a living breathing oxymoron.
p877
sg60
Vhttps://pbs.twimg.com/profile_images/214826069/sailorman_normal.jpg
p878
sg62
I120
sg63
I5
sg64
I-18000
sg65
Nsg66
I00
sg67
Nsg68
I00
sg69
I00
sg70
VD02B55
p879
sg72
I01
sg73
I00
sg74
Vhttp://abs.twimg.com/images/themes/theme5/bg.gif
p880
sg76
Vrdubya11
p881
sg78
I0
sg79
VWayne Cowan
p882
sg81
V99CC33
p883
sg83
Nsg84
I40515340
sg85
V352726
p884
sbsg87
I1
sg88
V<a href="http://twitter.com" rel="nofollow">Twitter Web Client</a>
p885
sg90
(lp886
sg84
I542766577041813504
sbsg16
Nsg17
(lp887
sg19
Nsg20
Nsg21
Nsg22
VSat Dec 13 14:00:39 +0000 2014
p888
sg24
Nsg25
Nsg26
Nsg27
Nsg28
Nsg29
Nsg30
I00
sg31
Nsg32
(lp889
g3
(g44
g5
Ntp890
Rp891
(dp892
g10
Nsg49
Nsg51
Nsg53
Nsg54
Nsg55
Nsg22
Nsg57
Nsg58
Nsg60
Nsg62
Nsg63
Nsg64
Nsg65
Nsg66
Nsg67
Nsg68
Nsg69
Nsg70
Nsg72
Nsg73
Nsg74
Nsg76
Vrdubya11
p893
sg78
Nsg79
VWayne Cowan
p894
sg81
Nsg83
Nsg84
I40515340
sg85
Nsbag3
(g44
g5
Ntp895
Rp896
(dp897
g10
Nsg49
Nsg51
Nsg53
Nsg54
Nsg55
Nsg22
Nsg57
Nsg58
Nsg60
Nsg62
Nsg63
Nsg64
Nsg65
Nsg66
Nsg67
Nsg68
Nsg69
Nsg70
Nsg72
Nsg73
Nsg74
Nsg76
Vsusanhunter1855
p898
sg78
Nsg79
VSusan M Hunter
p899
sg81
Nsg83
Nsg84
I885589280
sg85
Nsbag3
(g44
g5
Ntp900
Rp901
(dp902
g10
Nsg49
Nsg51
Nsg53
Nsg54
Nsg55
Nsg22
Nsg57
Nsg58
Nsg60
Nsg62
Nsg63
Nsg64
Nsg65
Nsg66
Nsg67
Nsg68
Nsg69
Nsg70
Nsg72
Nsg73
Nsg74
Nsg76
VRealBenCarson
p903
sg78
Nsg79
VDr. Ben Carson
p904
sg81
Nsg83
Nsg84
I1180379185
sg85
Nsbasg34
Nsg35
V543767458373697536
p905
sg37
Nsg38
VRT @rdubya11: @susanhunter1855 @RealBenCarson sorry, but historically religion dividies not unites, it is our FREEDOM that unites us, fight\u2026
p906
sg40
I00
sg41
Ven
p907
sg43
g3
(g44
g5
Ntp908
Rp909
(dp910
g10
VVero Beach, Florida
p911
sg49
V333333
p912
sg51
Ven
p913
sg53
Nsg54
I318
sg55
I5042
sg22
VTue Oct 16 23:55:28 +0000 2012
p914
sg57
I00
sg58
VI'm a Granny, I love God, country, my children & family, pets, animals, nature,photography,human rights, our constitution..
p915
sg60
Vhttps://pbs.twimg.com/profile_images/2727322662/a5522767e755d349e34702fa4c15af81_normal.jpeg
p916
sg62
I430
sg63
I2964
sg64
Nsg65
Nsg66
I00
sg67
Nsg68
I00
sg69
I00
sg70
V0084B4
p917
sg72
I01
sg73
I00
sg74
Vhttp://abs.twimg.com/images/themes/theme1/bg.png
p918
sg76
Vsusanhunter1855
p919
sg78
I7
sg79
VSusan M Hunter
p920
sg81
VDDEEF6
p921
sg83
Nsg84
I885589280
sg85
VC0DEED
p922
sbsg87
I1
sg88
V<a href="http://twitter.com" rel="nofollow">Twitter Web Client</a>
p923
sg90
(lp924
sg84
I543767458373697536
sbag3
(g4
g5
Ntp925
Rp926
(dp927
g9
I0
sg10
Nsg11
Nsg12
(lp928
sg14
I00
sg15
Nsg16
Nsg17
(lp929
sg19
Nsg20
Nsg21
Nsg22
VSat Dec 13 13:54:08 +0000 2014
p930
sg24
Nsg25
Nsg26
Nsg27
Nsg28
Nsg29
Nsg30
I00
sg31
Nsg32
(lp931
sg34
Nsg35
V543765819415875584
p932
sg37
Nsg38
VIts sunny cold here in South Florida Yet all that see this day are blessed GOD is good to me &amp; mine I am grateful for His new grace &amp; mercy
p933
sg40
I00
sg41
Ven
p934
sg43
g3
(g44
g5
Ntp935
Rp936
(dp937
g10
VVero Beach, Florida
p938
sg49
V333333
p939
sg51
Ven
p940
sg53
Nsg54
I318
sg55
I5042
sg22
VTue Oct 16 23:55:28 +0000 2012
p941
sg57
I00
sg58
VI'm a Granny, I love God, country, my children & family, pets, animals, nature,photography,human rights, our constitution..
p942
sg60
Vhttps://pbs.twimg.com/profile_images/2727322662/a5522767e755d349e34702fa4c15af81_normal.jpeg
p943
sg62
I430
sg63
I2964
sg64
Nsg65
Nsg66
I00
sg67
Nsg68
I00
sg69
I00
sg70
V0084B4
p944
sg72
I01
sg73
I00
sg74
Vhttp://abs.twimg.com/images/themes/theme1/bg.png
p945
sg76
Vsusanhunter1855
p946
sg78
I7
sg79
VSusan M Hunter
p947
sg81
VDDEEF6
p948
sg83
Nsg84
I885589280
sg85
VC0DEED
p949
sbsg87
I0
sg88
V<a href="http://twitter.com" rel="nofollow">Twitter Web Client</a>
p950
sg90
(lp951
sg84
I543765819415875584
sbag3
(g4
g5
Ntp952
Rp953
(dp954
g9
I0
sg10
Nsg11
Nsg12
(lp955
sg14
I00
sg15
g3
(g4
g5
Ntp956
Rp957
(dp958
g9
I2
sg10
Nsg11
Nsg12
(lp959
sg14
I00
sg15
Nsg16
Nsg17
(lp960
(dp961
Vexpanded_url
p962
Vhttp://twitter.com/MarciaCrocker01/status/543406370704617472/photo/1
p963
sVdisplay_url
p964
Vpic.twitter.com/CctBMJFofg
p965
sVurl
p966
Vhttp://t.co/CctBMJFofg
p967
sVmedia_url_https
p968
Vhttps://pbs.twimg.com/media/B4qRMOZCcAAkkd7.jpg
p969
sVid_str
p970
V543406344259137536
p971
sVsizes
p972
(dp973
Vsmall
p974
(dp975
Vh
p976
I416
sVresize
p977
Vfit
p978
sVw
p979
I340
ssVlarge
p980
(dp981
Vh
p982
I881
sVresize
p983
Vfit
p984
sVw
p985
I720
ssVmedium
p986
(dp987
Vh
p988
I734
sVresize
p989
Vfit
p990
sVw
p991
I600
ssVthumb
p992
(dp993
Vh
p994
I150
sVresize
p995
Vcrop
p996
sVw
p997
I150
sssVindices
p998
(lp999
I80
aI102
asVtype
p1000
Vphoto
p1001
sVid
p1002
I543406344259137536
sVmedia_url
p1003
Vhttp://pbs.twimg.com/media/B4qRMOZCcAAkkd7.jpg
p1004
sasg19
Nsg20
Nsg21
Nsg22
VFri Dec 12 14:05:49 +0000 2014
p1005
sg24
Nsg25
I00
sg26
Nsg27
Nsg28
Nsg29
Nsg30
I00
sg31
Nsg32
(lp1006
sg34
Nsg35
V543406370704617472
p1007
sg37
Nsg38
VBlame blame blame..When does he take responsibility..oh I forgot..he's Democrat http://t.co/CctBMJFofg
p1008
sg40
I00
sg41
Ven
p1009
sg43
g3
(g44
g5
Ntp1010
Rp1011
(dp1012
g10
VThe south
p1013
sg49
V333333
p1014
sg51
Ven
p1015
sg53
Nsg54
I1046
sg55
I19868
sg22
VTue Sep 24 22:09:56 +0000 2013
p1016
sg57
I00
sg58
Vmarried mom of five...proud American defender of  Constitution and  wondering how Democrats come up with their illogic.
p1017
sg60
Vhttps://pbs.twimg.com/profile_images/423837782399016960/_-GTSONj_normal.jpeg
p1018
sg62
I688
sg63
I4668
sg64
Nsg65
Nsg66
I00
sg67
Vhttps://pbs.twimg.com/profile_banners/1901945432/1389885935
p1019
sg68
I00
sg69
I00
sg70
V0084B4
p1020
sg72
I00
sg73
I00
sg74
Vhttp://abs.twimg.com/images/themes/theme1/bg.png
p1021
sg76
VMarciaCrocker01
p1022
sg78
I20
sg79
Vmarciacrocker
p1023
sg81
VDDEEF6
p1024
sg83
Nsg84
I1901945432
sg85
VC0DEED
p1025
sbsg87
I2
sg88
V<a href="http://twitter.com/download/android" rel="nofollow">Twitter for Android</a>
p1026
sg90
(lp1027
sg84
I543406370704617472
sbsg16
Nsg17
(lp1028
(dp1029
Vsource_user_id
p1030
I1901945432
sVsource_status_id_str
p1031
V543406370704617472
p1032
sVexpanded_url
p1033
Vhttp://twitter.com/MarciaCrocker01/status/543406370704617472/photo/1
p1034
sVdisplay_url
p1035
Vpic.twitter.com/CctBMJFofg
p1036
sVurl
p1037
Vhttp://t.co/CctBMJFofg
p1038
sVmedia_url_https
p1039
Vhttps://pbs.twimg.com/media/B4qRMOZCcAAkkd7.jpg
p1040
sVsource_user_id_str
p1041
V1901945432
p1042
sVsource_status_id
p1043
I543406370704617472
sVid_str
p1044
V543406344259137536
p1045
sVsizes
p1046
(dp1047
Vsmall
p1048
(dp1049
Vh
p1050
I416
sVresize
p1051
Vfit
p1052
sVw
p1053
I340
ssVlarge
p1054
(dp1055
Vh
p1056
I881
sVresize
p1057
Vfit
p1058
sVw
p1059
I720
ssVmedium
p1060
(dp1061
Vh
p1062
I734
sVresize
p1063
Vfit
p1064
sVw
p1065
I600
ssVthumb
p1066
(dp1067
Vh
p1068
I150
sVresize
p1069
Vcrop
p1070
sVw
p1071
I150
sssVindices
p1072
(lp1073
I101
aI123
asVtype
p1074
Vphoto
p1075
sVid
p1076
I543406344259137536
sVmedia_url
p1077
Vhttp://pbs.twimg.com/media/B4qRMOZCcAAkkd7.jpg
p1078
sasg19
Nsg20
Nsg21
Nsg22
VFri Dec 12 15:36:27 +0000 2014
p1079
sg24
Nsg25
I00
sg26
Nsg27
Nsg28
Nsg29
Nsg30
I00
sg31
Nsg32
(lp1080
g3
(g44
g5
Ntp1081
Rp1082
(dp1083
g10
Nsg49
Nsg51
Nsg53
Nsg54
Nsg55
Nsg22
Nsg57
Nsg58
Nsg60
Nsg62
Nsg63
Nsg64
Nsg65
Nsg66
Nsg67
Nsg68
Nsg69
Nsg70
Nsg72
Nsg73
Nsg74
Nsg76
VMarciaCrocker01
p1084
sg78
Nsg79
Vmarciacrocker
p1085
sg81
Nsg83
Nsg84
I1901945432
sg85
Nsbasg34
Nsg35
V543429179967283200
p1086
sg37
Nsg38
VRT @MarciaCrocker01: Blame blame blame..When does he take responsibility..oh I forgot..he's Democrat http://t.co/CctBMJFofg
p1087
sg40
I00
sg41
Ven
p1088
sg43
g3
(g44
g5
Ntp1089
Rp1090
(dp1091
g10
VVero Beach, Florida
p1092
sg49
V333333
p1093
sg51
Ven
p1094
sg53
Nsg54
I318
sg55
I5042
sg22
VTue Oct 16 23:55:28 +0000 2012
p1095
sg57
I00
sg58
VI'm a Granny, I love God, country, my children & family, pets, animals, nature,photography,human rights, our constitution..
p1096
sg60
Vhttps://pbs.twimg.com/profile_images/2727322662/a5522767e755d349e34702fa4c15af81_normal.jpeg
p1097
sg62
I430
sg63
I2964
sg64
Nsg65
Nsg66
I00
sg67
Nsg68
I00
sg69
I00
sg70
V0084B4
p1098
sg72
I01
sg73
I00
sg74
Vhttp://abs.twimg.com/images/themes/theme1/bg.png
p1099
sg76
Vsusanhunter1855
p1100
sg78
I7
sg79
VSusan M Hunter
p1101
sg81
VDDEEF6
p1102
sg83
Nsg84
I885589280
sg85
VC0DEED
p1103
sbsg87
I2
sg88
V<a href="http://twitter.com" rel="nofollow">Twitter Web Client</a>
p1104
sg90
(lp1105
sg84
I543429179967283200
sbag3
(g4
g5
Ntp1106
Rp1107
(dp1108
g9
I0
sg10
Nsg11
Nsg12
(lp1109
sg14
I00
sg15
g3
(g4
g5
Ntp1110
Rp1111
(dp1112
g9
I133
sg10
Nsg11
Nsg12
(lp1113
sg14
I00
sg15
Nsg16
Nsg17
(lp1114
sg19
Nsg20
Nsg21
Nsg22
VFri Dec 12 15:25:19 +0000 2014
p1115
sg24
Nsg25
I00
sg26
Nsg27
Nsg28
Nsg29
Nsg30
I00
sg31
Nsg32
(lp1116
sg34
Nsg35
V543426378360963073
p1117
sg37
Nsg38
V"I think fixing the economy is not going to be that difficult"\u000a http://t.co/5XEFMjDtfM
p1118
sg40
I00
sg41
Ven
p1119
sg43
g3
(g44
g5
Ntp1120
Rp1121
(dp1122
g10
VBaltimore, MD 
p1123
sg49
V666666
p1124
sg51
Ven
p1125
sg53
VPacific Time (US & Canada)
p1126
sg54
I259436
sg55
I748
sg22
VThu Feb 14 21:33:22 +0000 2013
p1127
sg57
I01
sg58
VThe Official Twitter Page For Dr. Benjamin S. Carson. Connect on Facebook: http://t.co/WQq4FrnIp9
p1128
sg60
Vhttps://pbs.twimg.com/profile_images/534414239658549248/cPWTz2IA_normal.jpeg
p1129
sg62
I19
sg63
I24
sg64
I-28800
sg65
Nsg66
I00
sg67
Vhttps://pbs.twimg.com/profile_banners/1180379185/1416249240
p1130
sg68
I00
sg69
I01
sg70
V2FC2EF
p1131
sg72
I01
sg73
I00
sg74
Vhttp://pbs.twimg.com/profile_background_images/443788602028199937/SLwrkRC4.jpeg
p1132
sg76
VRealBenCarson
p1133
sg78
I2345
sg79
VDr. Ben Carson
p1134
sg81
V252429
p1135
sg83
Vhttp://t.co/qGlbVw0Y7j
p1136
sg84
I1180379185
sg85
V1A1B1F
p1137
sbsg87
I125
sg88
V<a href="http://www.hootsuite.com" rel="nofollow">Hootsuite</a>
p1138
sg90
(lp1139
g3
(g180
g5
Ntp1140
Rp1141
(dp1142
g184
Vhttp://t.co/5XEFMjDtfM
p1143
sg186
Vhttp://ow.ly/FL4pR
p1144
sbasg84
I543426378360963073
sbsg16
Nsg17
(lp1145
sg19
Nsg20
Nsg21
Nsg22
VFri Dec 12 15:31:07 +0000 2014
p1146
sg24
Nsg25
I00
sg26
Nsg27
Nsg28
Nsg29
Nsg30
I00
sg31
Nsg32
(lp1147
g3
(g44
g5
Ntp1148
Rp1149
(dp1150
g10
Nsg49
Nsg51
Nsg53
Nsg54
Nsg55
Nsg22
Nsg57
Nsg58
Nsg60
Nsg62
Nsg63
Nsg64
Nsg65
Nsg66
Nsg67
Nsg68
Nsg69
Nsg70
Nsg72
Nsg73
Nsg74
Nsg76
VRealBenCarson
p1151
sg78
Nsg79
VDr. Ben Carson
p1152
sg81
Nsg83
Nsg84
I1180379185
sg85
Nsbasg34
Nsg35
V543427836590424064
p1153
sg37
Nsg38
VRT @RealBenCarson: "I think fixing the economy is not going to be that difficult"\u000a http://t.co/5XEFMjDtfM
p1154
sg40
I00
sg41
Ven
p1155
sg43
g3
(g44
g5
Ntp1156
Rp1157
(dp1158
g10
VVero Beach, Florida
p1159
sg49
V333333
p1160
sg51
Ven
p1161
sg53
Nsg54
I318
sg55
I5042
sg22
VTue Oct 16 23:55:28 +0000 2012
p1162
sg57
I00
sg58
VI'm a Granny, I love God, country, my children & family, pets, animals, nature,photography,human rights, our constitution..
p1163
sg60
Vhttps://pbs.twimg.com/profile_images/2727322662/a5522767e755d349e34702fa4c15af81_normal.jpeg
p1164
sg62
I430
sg63
I2964
sg64
Nsg65
Nsg66
I00
sg67
Nsg68
I00
sg69
I00
sg70
V0084B4
p1165
sg72
I01
sg73
I00
sg74
Vhttp://abs.twimg.com/images/themes/theme1/bg.png
p1166
sg76
Vsusanhunter1855
p1167
sg78
I7
sg79
VSusan M Hunter
p1168
sg81
VDDEEF6
p1169
sg83
Nsg84
I885589280
sg85
VC0DEED
p1170
sbsg87
I125
sg88
V<a href="http://twitter.com" rel="nofollow">Twitter Web Client</a>
p1171
sg90
(lp1172
g3
(g180
g5
Ntp1173
Rp1174
(dp1175
g184
Vhttp://t.co/5XEFMjDtfM
p1176
sg186
Vhttp://ow.ly/FL4pR
p1177
sbasg84
I543427836590424064
sbag3
(g4
g5
Ntp1178
Rp1179
(dp1180
g9
I0
sg10
Nsg11
Nsg12
(lp1181
sg14
I00
sg15
g3
(g4
g5
Ntp1182
Rp1183
(dp1184
g9
I1
sg10
Nsg11
Nsg12
(lp1185
sg14
I00
sg15
Nsg16
Nsg17
(lp1186
sg19
Nsg20
Nsg21
Nsg22
VFri Dec 12 15:24:01 +0000 2014
p1187
sg24
Nsg25
Nsg26
Vtracieeeeee
p1188
sg27
Nsg28
I1251812930
sg29
Nsg30
I00
sg31
Nsg32
(lp1189
g3
(g44
g5
Ntp1190
Rp1191
(dp1192
g10
Nsg49
Nsg51
Nsg53
Nsg54
Nsg55
Nsg22
Nsg57
Nsg58
Nsg60
Nsg62
Nsg63
Nsg64
Nsg65
Nsg66
Nsg67
Nsg68
Nsg69
Nsg70
Nsg72
Nsg73
Nsg74
Nsg76
Vtracieeeeee
p1193
sg78
Nsg79
VHETEROSEXUAL WOMAN \u2122
p1194
sg81
Nsg83
Nsg84
I1251812930
sg85
Nsbasg34
Nsg35
V543426049170620417
p1195
sg37
I543424944294871041
sg38
V@tracieeeeee They clearly think their "mastermind" plan is getting even w/ someone BUT all it's doing is making them look DUMB &amp; coldhearted
p1196
sg40
I00
sg41
Ven
p1197
sg43
g3
(g44
g5
Ntp1198
Rp1199
(dp1200
g10
V
p1201
sg49
V333333
p1202
sg51
Ven
p1203
sg53
Nsg54
I849
sg55
I9000
sg22
VThu Mar 21 22:09:13 +0000 2013
p1204
sg57
I00
sg58
VPublished Childrens Book Author, animal lover and activist, DAR, Survivor, world traveler, wifey and a mommy to an amazing lil boy! Proud Army daughter & sister
p1205
sg60
Vhttps://pbs.twimg.com/profile_images/543439096169762816/v1IUKXOV_normal.jpeg
p1206
sg62
I772
sg63
I12887
sg64
Nsg65
Nsg66
I00
sg67
Vhttps://pbs.twimg.com/profile_banners/1287074820/1418168886
p1207
sg68
I00
sg69
I00
sg70
V0084B4
p1208
sg72
I01
sg73
I00
sg74
Vhttp://abs.twimg.com/images/themes/theme1/bg.png
p1209
sg76
Vheatherbelle75
p1210
sg78
I10
sg79
VBelle
p1211
sg81
VDDEEF6
p1212
sg83
Nsg84
I1287074820
sg85
VC0DEED
p1213
sbsg87
I2
sg88
V<a href="http://twitter.com/download/iphone" rel="nofollow">Twitter for iPhone</a>
p1214
sg90
(lp1215
sg84
I543426049170620417
sbsg16
Nsg17
(lp1216
sg19
Nsg20
Nsg21
Nsg22
VFri Dec 12 15:30:11 +0000 2014
p1217
sg24
Nsg25
Nsg26
Nsg27
Nsg28
Nsg29
Nsg30
I00
sg31
Nsg32
(lp1218
g3
(g44
g5
Ntp1219
Rp1220
(dp1221
g10
Nsg49
Nsg51
Nsg53
Nsg54
Nsg55
Nsg22
Nsg57
Nsg58
Nsg60
Nsg62
Nsg63
Nsg64
Nsg65
Nsg66
Nsg67
Nsg68
Nsg69
Nsg70
Nsg72
Nsg73
Nsg74
Nsg76
Vheatherbelle75
p1222
sg78
Nsg79
VBelle
p1223
sg81
Nsg83
Nsg84
I1287074820
sg85
Nsbag3
(g44
g5
Ntp1224
Rp1225
(dp1226
g10
Nsg49
Nsg51
Nsg53
Nsg54
Nsg55
Nsg22
Nsg57
Nsg58
Nsg60
Nsg62
Nsg63
Nsg64
Nsg65
Nsg66
Nsg67
Nsg68
Nsg69
Nsg70
Nsg72
Nsg73
Nsg74
Nsg76
Vtracieeeeee
p1227
sg78
Nsg79
VHETEROSEXUAL WOMAN \u2122
p1228
sg81
Nsg83
Nsg84
I1251812930
sg85
Nsbasg34
Nsg35
V543427601755545600
p1229
sg37
Nsg38
VRT @heatherbelle75: @tracieeeeee They clearly think their "mastermind" plan is getting even w/ someone BUT all it's doing is making them lo\u2026
p1230
sg40
I00
sg41
Ven
p1231
sg43
g3
(g44
g5
Ntp1232
Rp1233
(dp1234
g10
VVero Beach, Florida
p1235
sg49
V333333
p1236
sg51
Ven
p1237
sg53
Nsg54
I318
sg55
I5042
sg22
VTue Oct 16 23:55:28 +0000 2012
p1238
sg57
I00
sg58
VI'm a Granny, I love God, country, my children & family, pets, animals, nature,photography,human rights, our constitution..
p1239
sg60
Vhttps://pbs.twimg.com/profile_images/2727322662/a5522767e755d349e34702fa4c15af81_normal.jpeg
p1240
sg62
I430
sg63
I2964
sg64
Nsg65
Nsg66
I00
sg67
Nsg68
I00
sg69
I00
sg70
V0084B4
p1241
sg72
I01
sg73
I00
sg74
Vhttp://abs.twimg.com/images/themes/theme1/bg.png
p1242
sg76
Vsusanhunter1855
p1243
sg78
I7
sg79
VSusan M Hunter
p1244
sg81
VDDEEF6
p1245
sg83
Nsg84
I885589280
sg85
VC0DEED
p1246
sbsg87
I2
sg88
V<a href="http://twitter.com" rel="nofollow">Twitter Web Client</a>
p1247
sg90
(lp1248
sg84
I543427601755545600
sbag3
(g4
g5
Ntp1249
Rp1250
(dp1251
g9
I0
sg10
Nsg11
Nsg12
(lp1252
sg14
I00
sg15
Nsg16
Nsg17
(lp1253
sg19
Nsg20
Nsg21
Nsg22
VFri Dec 12 15:26:31 +0000 2014
p1254
sg24
Nsg25
Nsg26
Nsg27
Nsg28
Nsg29
Nsg30
I00
sg31
Nsg32
(lp1255
sg34
Nsg35
V543426681881772032
p1256
sg37
Nsg38
VGood Morning its another chilly cloudy blessed day Here in South Florida Can we learn form our history instead of keep repeating it
p1257
sg40
I00
sg41
Ven
p1258
sg43
g3
(g44
g5
Ntp1259
Rp1260
(dp1261
g10
VVero Beach, Florida
p1262
sg49
V333333
p1263
sg51
Ven
p1264
sg53
Nsg54
I318
sg55
I5042
sg22
VTue Oct 16 23:55:28 +0000 2012
p1265
sg57
I00
sg58
VI'm a Granny, I love God, country, my children & family, pets, animals, nature,photography,human rights, our constitution..
p1266
sg60
Vhttps://pbs.twimg.com/profile_images/2727322662/a5522767e755d349e34702fa4c15af81_normal.jpeg
p1267
sg62
I430
sg63
I2964
sg64
Nsg65
Nsg66
I00
sg67
Nsg68
I00
sg69
I00
sg70
V0084B4
p1268
sg72
I01
sg73
I00
sg74
Vhttp://abs.twimg.com/images/themes/theme1/bg.png
p1269
sg76
Vsusanhunter1855
p1270
sg78
I7
sg79
VSusan M Hunter
p1271
sg81
VDDEEF6
p1272
sg83
Nsg84
I885589280
sg85
VC0DEED
p1273
sbsg87
I0
sg88
V<a href="http://twitter.com" rel="nofollow">Twitter Web Client</a>
p1274
sg90
(lp1275
sg84
I543426681881772032
sbag3
(g4
g5
Ntp1276
Rp1277
(dp1278
g9
I0
sg10
Nsg11
Nsg12
(lp1279
sg14
I00
sg15
Nsg16
Nsg17
(lp1280
sg19
Nsg20
Nsg21
Nsg22
VFri Dec 12 15:23:17 +0000 2014
p1281
sg24
Nsg25
Nsg26
Nsg27
Nsg28
Nsg29
Nsg30
I00
sg31
Nsg32
(lp1282
sg34
Nsg35
V543425868107104256
p1283
sg37
Nsg38
VSMITH COLLEGE STUDENTS ALL Lives matter So does FREESPEECH! Grow Up don't support racism I marched on Washington heard Dr. King OUR HISTORY
p1284
sg40
I00
sg41
Ven
p1285
sg43
g3
(g44
g5
Ntp1286
Rp1287
(dp1288
g10
VVero Beach, Florida
p1289
sg49
V333333
p1290
sg51
Ven
p1291
sg53
Nsg54
I318
sg55
I5042
sg22
VTue Oct 16 23:55:28 +0000 2012
p1292
sg57
I00
sg58
VI'm a Granny, I love God, country, my children & family, pets, animals, nature,photography,human rights, our constitution..
p1293
sg60
Vhttps://pbs.twimg.com/profile_images/2727322662/a5522767e755d349e34702fa4c15af81_normal.jpeg
p1294
sg62
I430
sg63
I2964
sg64
Nsg65
Nsg66
I00
sg67
Nsg68
I00
sg69
I00
sg70
V0084B4
p1295
sg72
I01
sg73
I00
sg74
Vhttp://abs.twimg.com/images/themes/theme1/bg.png
p1296
sg76
Vsusanhunter1855
p1297
sg78
I7
sg79
VSusan M Hunter
p1298
sg81
VDDEEF6
p1299
sg83
Nsg84
I885589280
sg85
VC0DEED
p1300
sbsg87
I0
sg88
V<a href="http://twitter.com" rel="nofollow">Twitter Web Client</a>
p1301
sg90
(lp1302
sg84
I543425868107104256
sbag3
(g4
g5
Ntp1303
Rp1304
(dp1305
g9
I0
sg10
Nsg11
Nsg12
(lp1306
sg14
I00
sg15
Nsg16
Nsg17
(lp1307
sg19
Nsg20
Nsg21
Nsg22
VThu Dec 11 16:01:34 +0000 2014
p1308
sg24
Nsg25
Nsg26
Nsg27
Nsg28
Nsg29
Nsg30
I00
sg31
Nsg32
(lp1309
sg34
Nsg35
V543073114163523584
p1310
sg37
Nsg38
VSMITH COLLEGE STUDENTS ALL Lives matter So does FREESPEECH! Grow Up don't support racism I marched on Washington heard Dr. King OUR HISTORY
p1311
sg40
I00
sg41
Ven
p1312
sg43
g3
(g44
g5
Ntp1313
Rp1314
(dp1315
g10
VVero Beach, Florida
p1316
sg49
V333333
p1317
sg51
Ven
p1318
sg53
Nsg54
I318
sg55
I5042
sg22
VTue Oct 16 23:55:28 +0000 2012
p1319
sg57
I00
sg58
VI'm a Granny, I love God, country, my children & family, pets, animals, nature,photography,human rights, our constitution..
p1320
sg60
Vhttps://pbs.twimg.com/profile_images/2727322662/a5522767e755d349e34702fa4c15af81_normal.jpeg
p1321
sg62
I430
sg63
I2964
sg64
Nsg65
Nsg66
I00
sg67
Nsg68
I00
sg69
I00
sg70
V0084B4
p1322
sg72
I01
sg73
I00
sg74
Vhttp://abs.twimg.com/images/themes/theme1/bg.png
p1323
sg76
Vsusanhunter1855
p1324
sg78
I7
sg79
VSusan M Hunter
p1325
sg81
VDDEEF6
p1326
sg83
Nsg84
I885589280
sg85
VC0DEED
p1327
sbsg87
I0
sg88
V<a href="http://twitter.com" rel="nofollow">Twitter Web Client</a>
p1328
sg90
(lp1329
sg84
I543073114163523584
sbag3
(g4
g5
Ntp1330
Rp1331
(dp1332
g9
I0
sg10
Nsg11
Nsg12
(lp1333
sg14
I00
sg15
g3
(g4
g5
Ntp1334
Rp1335
(dp1336
g9
I1
sg10
Nsg11
Nsg12
(lp1337
sg14
I00
sg15
Nsg16
Nsg17
(lp1338
sg19
Nsg20
Nsg21
Nsg22
VThu Dec 11 14:51:33 +0000 2014
p1339
sg24
Nsg25
Nsg26
Vsusanhunter1855
p1340
sg27
Nsg28
I885589280
sg29
Nsg30
I00
sg31
Nsg32
(lp1341
g3
(g44
g5
Ntp1342
Rp1343
(dp1344
g10
Nsg49
Nsg51
Nsg53
Nsg54
Nsg55
Nsg22
Nsg57
Nsg58
Nsg60
Nsg62
Nsg63
Nsg64
Nsg65
Nsg66
Nsg67
Nsg68
Nsg69
Nsg70
Nsg72
Nsg73
Nsg74
Nsg76
Vsusanhunter1855
p1345
sg78
Nsg79
VSusan M Hunter
p1346
sg81
Nsg83
Nsg84
I885589280
sg85
Nsbasg34
Nsg35
V543055491358679040
p1347
sg37
I543055150328610816
sg38
V@susanhunter1855 Like all sociopaths, he sees nothing wrong with what he is, or what he does. He's lost all sense of Reality or Sanity.
p1348
sg40
I00
sg41
Ven
p1349
sg43
g3
(g44
g5
Ntp1350
Rp1351
(dp1352
g10
g1201
sg49
V333333
p1353
sg51
Ven
p1354
sg53
Nsg54
I704
sg55
I8438
sg22
VMon Oct 22 00:07:59 +0000 2012
p1355
sg57
I00
sg58
g1201
sg60
Vhttps://pbs.twimg.com/profile_images/2748197253/89cc5f10af569c738a6610991a559e95_normal.png
p1356
sg62
I833
sg63
I1331
sg64
Nsg65
Nsg66
I00
sg67
Nsg68
I00
sg69
I00
sg70
V0084B4
p1357
sg72
I00
sg73
I00
sg74
Vhttp://abs.twimg.com/images/themes/theme1/bg.png
p1358
sg76
VPaulaDuvall2
p1359
sg78
I8
sg79
VPaula Duvall
p1360
sg81
VDDEEF6
p1361
sg83
Nsg84
I896400632
sg85
VC0DEED
p1362
sbsg87
I1
sg88
V<a href="http://twitter.com" rel="nofollow">Twitter Web Client</a>
p1363
sg90
(lp1364
sg84
I543055491358679040
sbsg16
Nsg17
(lp1365
sg19
Nsg20
Nsg21
Nsg22
VThu Dec 11 14:54:07 +0000 2014
p1366
sg24
Nsg25
Nsg26
Nsg27
Nsg28
Nsg29
Nsg30
I00
sg31
Nsg32
(lp1367
g3
(g44
g5
Ntp1368
Rp1369
(dp1370
g10
Nsg49
Nsg51
Nsg53
Nsg54
Nsg55
Nsg22
Nsg57
Nsg58
Nsg60
Nsg62
Nsg63
Nsg64
Nsg65
Nsg66
Nsg67
Nsg68
Nsg69
Nsg70
Nsg72
Nsg73
Nsg74
Nsg76
VPaulaDuvall2
p1371
sg78
Nsg79
VPaula Duvall
p1372
sg81
Nsg83
Nsg84
I896400632
sg85
Nsbag3
(g44
g5
Ntp1373
Rp1374
(dp1375
g10
Nsg49
Nsg51
Nsg53
Nsg54
Nsg55
Nsg22
Nsg57
Nsg58
Nsg60
Nsg62
Nsg63
Nsg64
Nsg65
Nsg66
Nsg67
Nsg68
Nsg69
Nsg70
Nsg72
Nsg73
Nsg74
Nsg76
Vsusanhunter1855
p1376
sg78
Nsg79
VSusan M Hunter
p1377
sg81
Nsg83
Nsg84
I885589280
sg85
Nsbasg34
Nsg35
V543056136266854400
p1378
sg37
Nsg38
VRT @PaulaDuvall2: @susanhunter1855 Like all sociopaths, he sees nothing wrong with what he is, or what he does. He's lost all sense of Real\u2026
p1379
sg40
I00
sg41
Ven
p1380
sg43
g3
(g44
g5
Ntp1381
Rp1382
(dp1383
g10
VVero Beach, Florida
p1384
sg49
V333333
p1385
sg51
Ven
p1386
sg53
Nsg54
I318
sg55
I5042
sg22
VTue Oct 16 23:55:28 +0000 2012
p1387
sg57
I00
sg58
VI'm a Granny, I love God, country, my children & family, pets, animals, nature,photography,human rights, our constitution..
p1388
sg60
Vhttps://pbs.twimg.com/profile_images/2727322662/a5522767e755d349e34702fa4c15af81_normal.jpeg
p1389
sg62
I430
sg63
I2964
sg64
Nsg65
Nsg66
I00
sg67
Nsg68
I00
sg69
I00
sg70
V0084B4
p1390
sg72
I01
sg73
I00
sg74
Vhttp://abs.twimg.com/images/themes/theme1/bg.png
p1391
sg76
Vsusanhunter1855
p1392
sg78
I7
sg79
VSusan M Hunter
p1393
sg81
VDDEEF6
p1394
sg83
Nsg84
I885589280
sg85
VC0DEED
p1395
sbsg87
I1
sg88
V<a href="http://twitter.com" rel="nofollow">Twitter Web Client</a>
p1396
sg90
(lp1397
sg84
I543056136266854400
sbag3
(g4
g5
Ntp1398
Rp1399
(dp1400
g9
I0
sg10
Nsg11
Nsg12
(lp1401
sg14
I00
sg15
Nsg16
Nsg17
(lp1402
sg19
Nsg20
Nsg21
Nsg22
VThu Dec 11 14:50:11 +0000 2014
p1403
sg24
Nsg25
Nsg26
Nsg27
Nsg28
Nsg29
Nsg30
I00
sg31
Nsg32
(lp1404
sg34
Nsg35
V543055150328610816
p1405
sg37
Nsg38
VLets see extract information from a terrorist or bomb innocents hoping to get a few terrorists POTUS get on your meds you're really off!!
p1406
sg40
I00
sg41
Ven
p1407
sg43
g3
(g44
g5
Ntp1408
Rp1409
(dp1410
g10
VVero Beach, Florida
p1411
sg49
V333333
p1412
sg51
Ven
p1413
sg53
Nsg54
I318
sg55
I5042
sg22
VTue Oct 16 23:55:28 +0000 2012
p1414
sg57
I00
sg58
VI'm a Granny, I love God, country, my children & family, pets, animals, nature,photography,human rights, our constitution..
p1415
sg60
Vhttps://pbs.twimg.com/profile_images/2727322662/a5522767e755d349e34702fa4c15af81_normal.jpeg
p1416
sg62
I430
sg63
I2964
sg64
Nsg65
Nsg66
I00
sg67
Nsg68
I00
sg69
I00
sg70
V0084B4
p1417
sg72
I01
sg73
I00
sg74
Vhttp://abs.twimg.com/images/themes/theme1/bg.png
p1418
sg76
Vsusanhunter1855
p1419
sg78
I7
sg79
VSusan M Hunter
p1420
sg81
VDDEEF6
p1421
sg83
Nsg84
I885589280
sg85
VC0DEED
p1422
sbsg87
I1
sg88
V<a href="http://twitter.com" rel="nofollow">Twitter Web Client</a>
p1423
sg90
(lp1424
sg84
I543055150328610816
sbag3
(g4
g5
Ntp1425
Rp1426
(dp1427
g9
I0
sg10
Nsg11
Nsg12
(lp1428
sg14
I00
sg15
Nsg16
Nsg17
(lp1429
sg19
Nsg20
Nsg21
Nsg22
VThu Dec 11 14:45:52 +0000 2014
p1430
sg24
Nsg25
Nsg26
Nsg27
Nsg28
Nsg29
Nsg30
I00
sg31
Nsg32
(lp1431
sg34
Nsg35
V543054063890616320
p1432
sg37
Nsg38
VGood Chilly Morning All God Bless You Politics as usual Fienstien said what she did was political puting American lives in danger for a vote
p1433
sg40
I00
sg41
Ven
p1434
sg43
g3
(g44
g5
Ntp1435
Rp1436
(dp1437
g10
VVero Beach, Florida
p1438
sg49
V333333
p1439
sg51
Ven
p1440
sg53
Nsg54
I318
sg55
I5042
sg22
VTue Oct 16 23:55:28 +0000 2012
p1441
sg57
I00
sg58
VI'm a Granny, I love God, country, my children & family, pets, animals, nature,photography,human rights, our constitution..
p1442
sg60
Vhttps://pbs.twimg.com/profile_images/2727322662/a5522767e755d349e34702fa4c15af81_normal.jpeg
p1443
sg62
I430
sg63
I2964
sg64
Nsg65
Nsg66
I00
sg67
Nsg68
I00
sg69
I00
sg70
V0084B4
p1444
sg72
I01
sg73
I00
sg74
Vhttp://abs.twimg.com/images/themes/theme1/bg.png
p1445
sg76
Vsusanhunter1855
p1446
sg78
I7
sg79
VSusan M Hunter
p1447
sg81
VDDEEF6
p1448
sg83
Nsg84
I885589280
sg85
VC0DEED
p1449
sbsg87
I0
sg88
V<a href="http://twitter.com" rel="nofollow">Twitter Web Client</a>
p1450
sg90
(lp1451
sg84
I543054063890616320
sbaa.