(lp0
S'riseof_empire'
p1
a(lp2
ccopy_reg
_reconstructor
p3
(ctwitter.status
Status
p4
c__builtin__
object
p5
Ntp6
Rp7
(dp8
S'_favorite_count'
p9
I0
sS'_location'
p10
NsS'_withheld_scope'
p11
NsS'hashtags'
p12
(lp13
sS'_truncated'
p14
I00
sS'_retweeted_status'
p15
g3
(g4
g5
Ntp16
Rp17
(dp18
g9
I14
sg10
Nsg11
Nsg12
(lp19
sg14
I00
sg15
NsS'_withheld_copyright'
p20
NsS'media'
p21
(lp22
sS'_place'
p23
NsS'_contributors'
p24
NsS'_current_user_retweet'
p25
NsS'_created_at'
p26
VSun Dec 14 12:44:07 +0000 2014
p27
sS'_scopes'
p28
NsS'_possibly_sensitive'
p29
I01
sS'_in_reply_to_screen_name'
p30
NsS'_coordinates'
p31
NsS'_in_reply_to_user_id'
p32
NsS'_geo'
p33
NsS'_favorited'
p34
I00
sS'_withheld_in_countries'
p35
NsS'user_mentions'
p36
(lp37
sS'_now'
p38
NsS'_id_str'
p39
NsS'_in_reply_to_status_id'
p40
NsS'_text'
p41
VGrown men racing Barbie Jeeps. Must watch! http://t.co/pNRmVV6lhT - sp
p42
sS'_retweeted'
p43
I00
sS'lang'
p44
Ven
p45
sS'_user'
p46
g3
(ctwitter.user
User
p47
g5
Ntp48
Rp49
(dp50
g10
V
p51
sS'_profile_text_color'
p52
V838978
p53
sS'_lang'
p54
Ven
p55
sS'_time_zone'
p56
VHawaii
p57
sS'_followers_count'
p58
I79493
sS'_statuses_count'
p59
I331
sg26
VWed Mar 05 18:08:04 +0000 2014
p60
sS'_verified'
p61
I00
sS'_description'
p62
VDon't judge me, you can't handle half of what I've dealt with. There's a reason I do the things I do, there's a reason I am who I am.
p63
sS'_profile_image_url'
p64
Vhttps://pbs.twimg.com/profile_images/542936935010816000/g5Rswoxg_normal.jpeg
p65
sS'_friends_count'
p66
I64755
sS'_favourites_count'
p67
I3
sS'_utc_offset'
p68
I-36000
sS'_status'
p69
NsS'_protected'
p70
I00
sS'_profile_banner_url'
p71
Vhttps://pbs.twimg.com/profile_banners/2374149744/1418281579
p72
sS'_notifications'
p73
I00
sS'_profile_background_tile'
p74
I00
sS'_profile_link_color'
p75
V4F3F38
p76
sS'_geo_enabled'
p77
I01
sS'_contributors_enabled'
p78
I00
sS'_profile_background_image_url'
p79
Vhttp://pbs.twimg.com/profile_background_images/510843676352708608/YC7cB2bK.jpeg
p80
sS'_screen_name'
p81
V00relationship
p82
sS'_listed_count'
p83
I139
sS'_name'
p84
VRelationship
p85
sS'_profile_sidebar_fill_color'
p86
V140E0A
p87
sS'_url'
p88
NsS'_id'
p89
I2374149744
sS'_profile_background_color'
p90
V1C130E
p91
sbsS'_retweet_count'
p92
I51
sS'_source'
p93
V<a href="http://mylikes.com" rel="nofollow">MyLikes Network</a>
p94
sS'urls'
p95
(lp96
g3
(ctwitter.url
Url
p97
g5
Ntp98
Rp99
(dp100
S'url'
p101
Vhttp://t.co/pNRmVV6lhT
p102
sS'expanded_url'
p103
Vhttp://itsfuntime.org/r/2z46L
p104
sbasg89
I544110585256747008
sbsg20
Nsg21
(lp105
sg23
Nsg24
Nsg25
Nsg26
VSun Dec 14 13:42:24 +0000 2014
p106
sg28
Nsg29
I00
sg30
Nsg31
Nsg32
Nsg33
Nsg34
I00
sg35
Nsg36
(lp107
g3
(g47
g5
Ntp108
Rp109
(dp110
g10
Nsg52
Nsg54
Nsg56
Nsg58
Nsg59
Nsg26
Nsg61
Nsg62
Nsg64
Nsg66
Nsg67
Nsg68
Nsg69
Nsg70
Nsg71
Nsg73
Nsg74
Nsg75
Nsg77
Nsg78
Nsg79
Nsg81
V00relationship
p111
sg83
Nsg84
VRelationship
p112
sg86
Nsg88
Nsg89
I2374149744
sg90
Nsbasg38
Nsg39
Nsg40
Nsg41
VRT @00relationship: Grown men racing Barbie Jeeps. Must watch! http://t.co/pNRmVV6lhT - sp
p113
sg43
I00
sg44
Ven
p114
sg46
g3
(g47
g5
Ntp115
Rp116
(dp117
g10
Vworld wide
p118
sg52
V333333
p119
sg54
Ven
p120
sg56
VNew Delhi
p121
sg58
I47292
sg59
I23
sg26
VTue Sep 16 03:38:38 +0000 2014
p122
sg61
I00
sg62
VTell me who admires you and loves you, and I will tell you who you are.
p123
sg64
Vhttps://pbs.twimg.com/profile_images/529344512535961600/KLEuihMB_normal.jpeg
p124
sg66
I43161
sg67
I3
sg68
I19800
sg69
Nsg70
I00
sg71
Vhttps://pbs.twimg.com/profile_banners/2812377188/1417169052
p125
sg73
I00
sg74
I00
sg75
V0084B4
p126
sg77
I00
sg78
I00
sg79
Vhttp://abs.twimg.com/images/themes/theme1/bg.png
p127
sg81
Vriseof_empire
p128
sg83
I63
sg84
V\u03b3\u03bf\u03c5\u03b7g\u03b9s\u03c4\u03b1\u03b1\u03b7 
p129
sg86
VDDEEF6
p130
sg88
Nsg89
I2812377188
sg90
VC0DEED
p131
sbsg92
I51
sg93
V<a href="http://twitter.com/download/android" rel="nofollow">Twitter for Android</a>
p132
sg95
(lp133
g3
(g97
g5
Ntp134
Rp135
(dp136
g101
Vhttp://t.co/pNRmVV6lhT
p137
sg103
Vhttp://itsfuntime.org/r/2z46L
p138
sbasg89
I544125252565864448
sbag3
(g4
g5
Ntp139
Rp140
(dp141
g9
I0
sg10
Nsg11
Nsg12
(lp142
sg14
I00
sg15
g3
(g4
g5
Ntp143
Rp144
(dp145
g9
I9
sg10
Nsg11
Nsg12
(lp146
sg14
I00
sg15
Nsg20
Nsg21
(lp147
sg23
Nsg24
Nsg25
Nsg26
VSun Dec 14 12:44:07 +0000 2014
p148
sg28
Nsg29
I01
sg30
Nsg31
Nsg32
Nsg33
Nsg34
I00
sg35
Nsg36
(lp149
sg38
Nsg39
Nsg40
Nsg41
VThis woman is a CrossFit power house! http://t.co/Ia2KbqnnMM - sp
p150
sg43
I00
sg44
Ven
p151
sg46
g3
(g47
g5
Ntp152
Rp153
(dp154
g10
g51
sg52
V838978
p155
sg54
Ven
p156
sg56
VHawaii
p157
sg58
I79493
sg59
I331
sg26
VWed Mar 05 18:08:04 +0000 2014
p158
sg61
I00
sg62
VDon't judge me, you can't handle half of what I've dealt with. There's a reason I do the things I do, there's a reason I am who I am.
p159
sg64
Vhttps://pbs.twimg.com/profile_images/542936935010816000/g5Rswoxg_normal.jpeg
p160
sg66
I64755
sg67
I3
sg68
I-36000
sg69
Nsg70
I00
sg71
Vhttps://pbs.twimg.com/profile_banners/2374149744/1418281579
p161
sg73
I00
sg74
I00
sg75
V4F3F38
p162
sg77
I01
sg78
I00
sg79
Vhttp://pbs.twimg.com/profile_background_images/510843676352708608/YC7cB2bK.jpeg
p163
sg81
V00relationship
p164
sg83
I139
sg84
VRelationship
p165
sg86
V140E0A
p166
sg88
Nsg89
I2374149744
sg90
V1C130E
p167
sbsg92
I80
sg93
V<a href="http://mylikes.com" rel="nofollow">MyLikes Network</a>
p168
sg95
(lp169
g3
(g97
g5
Ntp170
Rp171
(dp172
g101
Vhttp://t.co/Ia2KbqnnMM
p173
sg103
Vhttp://itsfuntime.org/r/2z46M
p174
sbasg89
I544110587853029376
sbsg20
Nsg21
(lp175
sg23
Nsg24
Nsg25
Nsg26
VSun Dec 14 13:42:24 +0000 2014
p176
sg28
Nsg29
I00
sg30
Nsg31
Nsg32
Nsg33
Nsg34
I00
sg35
Nsg36
(lp177
g3
(g47
g5
Ntp178
Rp179
(dp180
g10
Nsg52
Nsg54
Nsg56
Nsg58
Nsg59
Nsg26
Nsg61
Nsg62
Nsg64
Nsg66
Nsg67
Nsg68
Nsg69
Nsg70
Nsg71
Nsg73
Nsg74
Nsg75
Nsg77
Nsg78
Nsg79
Nsg81
V00relationship
p181
sg83
Nsg84
VRelationship
p182
sg86
Nsg88
Nsg89
I2374149744
sg90
Nsbasg38
Nsg39
Nsg40
Nsg41
VRT @00relationship: This woman is a CrossFit power house! http://t.co/Ia2KbqnnMM - sp
p183
sg43
I00
sg44
Ven
p184
sg46
g3
(g47
g5
Ntp185
Rp186
(dp187
g10
Vworld wide
p188
sg52
V333333
p189
sg54
Ven
p190
sg56
VNew Delhi
p191
sg58
I47292
sg59
I23
sg26
VTue Sep 16 03:38:38 +0000 2014
p192
sg61
I00
sg62
VTell me who admires you and loves you, and I will tell you who you are.
p193
sg64
Vhttps://pbs.twimg.com/profile_images/529344512535961600/KLEuihMB_normal.jpeg
p194
sg66
I43161
sg67
I3
sg68
I19800
sg69
Nsg70
I00
sg71
Vhttps://pbs.twimg.com/profile_banners/2812377188/1417169052
p195
sg73
I00
sg74
I00
sg75
V0084B4
p196
sg77
I00
sg78
I00
sg79
Vhttp://abs.twimg.com/images/themes/theme1/bg.png
p197
sg81
Vriseof_empire
p198
sg83
I63
sg84
V\u03b3\u03bf\u03c5\u03b7g\u03b9s\u03c4\u03b1\u03b1\u03b7 
p199
sg86
VDDEEF6
p200
sg88
Nsg89
I2812377188
sg90
VC0DEED
p201
sbsg92
I80
sg93
V<a href="http://twitter.com/download/android" rel="nofollow">Twitter for Android</a>
p202
sg95
(lp203
g3
(g97
g5
Ntp204
Rp205
(dp206
g101
Vhttp://t.co/Ia2KbqnnMM
p207
sg103
Vhttp://itsfuntime.org/r/2z46M
p208
sbasg89
I544125252083523584
sbag3
(g4
g5
Ntp209
Rp210
(dp211
g9
I0
sg10
Nsg11
Nsg12
(lp212
sg14
I00
sg15
g3
(g4
g5
Ntp213
Rp214
(dp215
g9
I12
sg10
Nsg11
Nsg12
(lp216
sg14
I00
sg15
Nsg20
Nsg21
(lp217
sg23
Nsg24
Nsg25
Nsg26
VSun Dec 14 12:44:30 +0000 2014
p218
sg28
Nsg29
I01
sg30
Nsg31
Nsg32
Nsg33
Nsg34
I00
sg35
Nsg36
(lp219
sg38
Nsg39
Nsg40
Nsg41
VYou won't believe how strong this grandma is! http://t.co/Q6izwQUmqq - sp
p220
sg43
I00
sg44
Ven
p221
sg46
g3
(g47
g5
Ntp222
Rp223
(dp224
g10
g51
sg52
V838978
p225
sg54
Ven
p226
sg56
VHawaii
p227
sg58
I79493
sg59
I331
sg26
VWed Mar 05 18:08:04 +0000 2014
p228
sg61
I00
sg62
VDon't judge me, you can't handle half of what I've dealt with. There's a reason I do the things I do, there's a reason I am who I am.
p229
sg64
Vhttps://pbs.twimg.com/profile_images/542936935010816000/g5Rswoxg_normal.jpeg
p230
sg66
I64755
sg67
I3
sg68
I-36000
sg69
Nsg70
I00
sg71
Vhttps://pbs.twimg.com/profile_banners/2374149744/1418281579
p231
sg73
I00
sg74
I00
sg75
V4F3F38
p232
sg77
I01
sg78
I00
sg79
Vhttp://pbs.twimg.com/profile_background_images/510843676352708608/YC7cB2bK.jpeg
p233
sg81
V00relationship
p234
sg83
I139
sg84
VRelationship
p235
sg86
V140E0A
p236
sg88
Nsg89
I2374149744
sg90
V1C130E
p237
sbsg92
I86
sg93
V<a href="http://mylikes.com" rel="nofollow">MyLikes Network</a>
p238
sg95
(lp239
g3
(g97
g5
Ntp240
Rp241
(dp242
g101
Vhttp://t.co/Q6izwQUmqq
p243
sg103
Vhttp://itsfuntime.org/r/2z46Z
p244
sbasg89
I544110681142734848
sbsg20
Nsg21
(lp245
sg23
Nsg24
Nsg25
Nsg26
VSun Dec 14 13:42:21 +0000 2014
p246
sg28
Nsg29
I00
sg30
Nsg31
Nsg32
Nsg33
Nsg34
I00
sg35
Nsg36
(lp247
g3
(g47
g5
Ntp248
Rp249
(dp250
g10
Nsg52
Nsg54
Nsg56
Nsg58
Nsg59
Nsg26
Nsg61
Nsg62
Nsg64
Nsg66
Nsg67
Nsg68
Nsg69
Nsg70
Nsg71
Nsg73
Nsg74
Nsg75
Nsg77
Nsg78
Nsg79
Nsg81
V00relationship
p251
sg83
Nsg84
VRelationship
p252
sg86
Nsg88
Nsg89
I2374149744
sg90
Nsbasg38
Nsg39
Nsg40
Nsg41
VRT @00relationship: You won't believe how strong this grandma is! http://t.co/Q6izwQUmqq - sp
p253
sg43
I00
sg44
Ven
p254
sg46
g3
(g47
g5
Ntp255
Rp256
(dp257
g10
Vworld wide
p258
sg52
V333333
p259
sg54
Ven
p260
sg56
VNew Delhi
p261
sg58
I47292
sg59
I23
sg26
VTue Sep 16 03:38:38 +0000 2014
p262
sg61
I00
sg62
VTell me who admires you and loves you, and I will tell you who you are.
p263
sg64
Vhttps://pbs.twimg.com/profile_images/529344512535961600/KLEuihMB_normal.jpeg
p264
sg66
I43161
sg67
I3
sg68
I19800
sg69
Nsg70
I00
sg71
Vhttps://pbs.twimg.com/profile_banners/2812377188/1417169052
p265
sg73
I00
sg74
I00
sg75
V0084B4
p266
sg77
I00
sg78
I00
sg79
Vhttp://abs.twimg.com/images/themes/theme1/bg.png
p267
sg81
Vriseof_empire
p268
sg83
I63
sg84
V\u03b3\u03bf\u03c5\u03b7g\u03b9s\u03c4\u03b1\u03b1\u03b7 
p269
sg86
VDDEEF6
p270
sg88
Nsg89
I2812377188
sg90
VC0DEED
p271
sbsg92
I86
sg93
V<a href="http://twitter.com/download/android" rel="nofollow">Twitter for Android</a>
p272
sg95
(lp273
g3
(g97
g5
Ntp274
Rp275
(dp276
g101
Vhttp://t.co/Q6izwQUmqq
p277
sg103
Vhttp://itsfuntime.org/r/2z46Z
p278
sbasg89
I544125239810994176
sbag3
(g4
g5
Ntp279
Rp280
(dp281
g9
I31
sg10
Nsg11
Nsg12
(lp282
sg14
I00
sg15
Nsg20
Nsg21
(lp283
sg23
Nsg24
Nsg25
Nsg26
VWed Sep 17 07:27:15 +0000 2014
p284
sg28
Nsg29
Nsg30
Nsg31
Nsg32
Nsg33
Nsg34
I00
sg35
Nsg36
(lp285
sg38
Nsg39
Nsg40
Nsg41
VIt\u2019s one thing to fall in love. It\u2019s another to feel someone else fall in love with you, and to feel a responsibility toward that love.
p286
sg43
I00
sg44
Ven
p287
sg46
g3
(g47
g5
Ntp288
Rp289
(dp290
g10
Vworld wide
p291
sg52
V333333
p292
sg54
Ven
p293
sg56
VNew Delhi
p294
sg58
I47292
sg59
I23
sg26
VTue Sep 16 03:38:38 +0000 2014
p295
sg61
I00
sg62
VTell me who admires you and loves you, and I will tell you who you are.
p296
sg64
Vhttps://pbs.twimg.com/profile_images/529344512535961600/KLEuihMB_normal.jpeg
p297
sg66
I43161
sg67
I3
sg68
I19800
sg69
Nsg70
I00
sg71
Vhttps://pbs.twimg.com/profile_banners/2812377188/1417169052
p298
sg73
I00
sg74
I00
sg75
V0084B4
p299
sg77
I00
sg78
I00
sg79
Vhttp://abs.twimg.com/images/themes/theme1/bg.png
p300
sg81
Vriseof_empire
p301
sg83
I63
sg84
V\u03b3\u03bf\u03c5\u03b7g\u03b9s\u03c4\u03b1\u03b1\u03b7 
p302
sg86
VDDEEF6
p303
sg88
Nsg89
I2812377188
sg90
VC0DEED
p304
sbsg92
I23
sg93
V<a href="http://twitter.com" rel="nofollow">Twitter Web Client</a>
p305
sg95
(lp306
sg89
I512140712842756096
sbaa.