(lp0
S'ab099888fbe5484'
p1
a(lp2
ccopy_reg
_reconstructor
p3
(ctwitter
Status
p4
c__builtin__
object
p5
Ntp6
Rp7
(dp8
S'_favorite_count'
p9
I0
sS'_location'
p10
NsS'_withheld_scope'
p11
NsS'hashtags'
p12
(lp13
sS'_truncated'
p14
I00
sS'_retweeted_status'
p15
g3
(g4
g5
Ntp16
Rp17
(dp18
g9
I211
sg10
Nsg11
Nsg12
(lp19
sg14
I00
sg15
NsS'_withheld_copyright'
p20
NsS'media'
p21
(lp22
(dp23
Vexpanded_url
p24
Vhttp://twitter.com/ibiebersupdates/status/543936215125602304/photo/1
p25
sVdisplay_url
p26
Vpic.twitter.com/zsUjsv3vjS
p27
sVurl
p28
Vhttp://t.co/zsUjsv3vjS
p29
sVmedia_url_https
p30
Vhttps://pbs.twimg.com/media/B4xzGpSCcAA1ehl.png
p31
sVid_str
p32
V543936213002907648
p33
sVsizes
p34
(dp35
Vsmall
p36
(dp37
Vh
p38
I456
sVresize
p39
Vfit
p40
sVw
p41
I340
ssVlarge
p42
(dp43
Vh
p44
I1024
sVresize
p45
Vfit
p46
sVw
p47
I762
ssVmedium
p48
(dp49
Vh
p50
I806
sVresize
p51
Vfit
p52
sVw
p53
I600
ssVthumb
p54
(dp55
Vh
p56
I150
sVresize
p57
Vcrop
p58
sVw
p59
I150
sssVindices
p60
(lp61
I68
aI90
asVtype
p62
Vphoto
p63
sVid
p64
I543936213002907648
sVmedia_url
p65
Vhttp://pbs.twimg.com/media/B4xzGpSCcAA1ehl.png
p66
sasS'_place'
p67
NsS'_contributors'
p68
NsS'_current_user_retweet'
p69
NsS'_created_at'
p70
VSun Dec 14 01:11:14 +0000 2014
p71
sS'_scopes'
p72
NsS'_possibly_sensitive'
p73
I00
sS'_in_reply_to_screen_name'
p74
NsS'_coordinates'
p75
NsS'_in_reply_to_user_id'
p76
NsS'_geo'
p77
NsS'_favorited'
p78
I00
sS'_withheld_in_countries'
p79
NsS'user_mentions'
p80
(lp81
sS'_now'
p82
NsS'_id_str'
p83
V543936215125602304
p84
sS'_in_reply_to_status_id'
p85
NsS'_text'
p86
VJustin today in California || Justin hoy en California (Dec 13) {3} http://t.co/zsUjsv3vjS
p87
sS'_retweeted'
p88
I00
sS'lang'
p89
Ven
p90
sS'_user'
p91
g3
(ctwitter
User
p92
g5
Ntp93
Rp94
(dp95
g10
V
p96
sS'_profile_text_color'
p97
V3D1957
p98
sS'_lang'
p99
Ves
p100
sS'_time_zone'
p101
VCaracas
p102
sS'_followers_count'
p103
I194980
sS'_statuses_count'
p104
I144922
sg70
VWed Sep 08 15:17:09 +0000 2010
p105
sS'_verified'
p106
I00
sS'_description'
p107
VOfficial Latin page providing you with the latest Justin Bieber News, photos, videos and more in Spanish and English. Contact: ibiebersupdates@gmail.com
p108
sS'_profile_image_url'
p109
Vhttps://pbs.twimg.com/profile_images/540260890377863169/tY96uAV__normal.png
p110
sS'_friends_count'
p111
I9154
sS'_favourites_count'
p112
I24173
sS'_utc_offset'
p113
I-16200
sS'_status'
p114
NsS'_protected'
p115
I00
sS'_profile_banner_url'
p116
Vhttps://pbs.twimg.com/profile_banners/188363858/1417643194
p117
sS'_notifications'
p118
I00
sS'_profile_background_tile'
p119
I00
sS'_profile_link_color'
p120
V579EB8
p121
sS'_geo_enabled'
p122
I01
sS'_contributors_enabled'
p123
I00
sS'_profile_background_image_url'
p124
Vhttp://pbs.twimg.com/profile_background_images/440197542546903040/-JP4Iyl4.jpeg
p125
sS'_screen_name'
p126
Vibiebersupdates
p127
sS'_listed_count'
p128
I801
sS'_name'
p129
VJustin Bieber News \u265b
p130
sS'_profile_sidebar_fill_color'
p131
V7AC3EE
p132
sS'_url'
p133
Vhttp://t.co/pWOjoAKnwV
p134
sS'_id'
p135
I188363858
sS'_profile_background_color'
p136
VFFFFFF
p137
sbsS'_retweet_count'
p138
I287
sS'_source'
p139
V<a href="https://about.twitter.com/products/tweetdeck" rel="nofollow">TweetDeck</a>
p140
sS'urls'
p141
(lp142
sg135
I543936215125602304
sbsg20
Nsg21
(lp143
(dp144
Vsource_user_id
p145
I188363858
sVsource_status_id_str
p146
V543936215125602304
p147
sVexpanded_url
p148
Vhttp://twitter.com/ibiebersupdates/status/543936215125602304/photo/1
p149
sVdisplay_url
p150
Vpic.twitter.com/zsUjsv3vjS
p151
sVurl
p152
Vhttp://t.co/zsUjsv3vjS
p153
sVmedia_url_https
p154
Vhttps://pbs.twimg.com/media/B4xzGpSCcAA1ehl.png
p155
sVsource_user_id_str
p156
V188363858
p157
sVsource_status_id
p158
I543936215125602304
sVid_str
p159
V543936213002907648
p160
sVsizes
p161
(dp162
Vsmall
p163
(dp164
Vh
p165
I456
sVresize
p166
Vfit
p167
sVw
p168
I340
ssVlarge
p169
(dp170
Vh
p171
I1024
sVresize
p172
Vfit
p173
sVw
p174
I762
ssVmedium
p175
(dp176
Vh
p177
I806
sVresize
p178
Vfit
p179
sVw
p180
I600
ssVthumb
p181
(dp182
Vh
p183
I150
sVresize
p184
Vcrop
p185
sVw
p186
I150
sssVindices
p187
(lp188
I89
aI111
asVtype
p189
Vphoto
p190
sVid
p191
I543936213002907648
sVmedia_url
p192
Vhttp://pbs.twimg.com/media/B4xzGpSCcAA1ehl.png
p193
sasg67
Nsg68
Nsg69
Nsg70
VSun Dec 14 03:49:51 +0000 2014
p194
sg72
Nsg73
I00
sg74
Nsg75
Nsg76
Nsg77
Nsg78
I00
sg79
Nsg80
(lp195
g3
(g92
g5
Ntp196
Rp197
(dp198
g10
Nsg97
Nsg99
Nsg101
Nsg103
Nsg104
Nsg70
Nsg106
Nsg107
Nsg109
Nsg111
Nsg112
Nsg113
Nsg114
Nsg115
Nsg116
Nsg118
Nsg119
Nsg120
Nsg122
Nsg123
Nsg124
Nsg126
Vibiebersupdates
p199
sg128
Nsg129
VJustin Bieber News \u265b
p200
sg131
Nsg133
Nsg135
I188363858
sg136
Nsbasg82
Nsg83
V543976132924563457
p201
sg85
Nsg86
VRT @ibiebersupdates: Justin today in California || Justin hoy en California (Dec 13) {3} http://t.co/zsUjsv3vjS
p202
sg88
I00
sg89
Ven
p203
sg91
g3
(g92
g5
Ntp204
Rp205
(dp206
g10
g96
sg97
V333333
p207
sg99
Ven
p208
sg101
Nsg103
I822
sg104
I359
sg70
VSun Dec 07 00:18:30 +0000 2014
p209
sg106
I00
sg107
VI'm a proud belieber
p210
sg109
Vhttps://pbs.twimg.com/profile_images/542818127893905408/ISXBiCVa_normal.jpeg
p211
sg111
I2004
sg112
I171
sg113
Nsg114
Nsg115
I00
sg116
Vhttps://pbs.twimg.com/profile_banners/2921048940/1418059484
p212
sg118
I00
sg119
I00
sg120
V0084B4
p213
sg122
I00
sg123
I00
sg124
Vhttp://abs.twimg.com/images/themes/theme1/bg.png
p214
sg126
Vab099888fbe5484
p215
sg128
I0
sg129
VHe stole my heart
p216
sg131
VDDEEF6
p217
sg133
Nsg135
I2921048940
sg136
VC0DEED
p218
sbsg138
I287
sg139
V<a href="http://twitter.com/download/android" rel="nofollow">Twitter for Android</a>
p219
sg141
(lp220
sg135
I543976132924563457
sbag3
(g4
g5
Ntp221
Rp222
(dp223
g9
I0
sg10
Nsg11
Nsg12
(lp224
sg14
I00
sg15
g3
(g4
g5
Ntp225
Rp226
(dp227
g9
I171
sg10
Nsg11
Nsg12
(lp228
sg14
I00
sg15
Nsg20
Nsg21
(lp229
sg67
Nsg68
Nsg69
Nsg70
VSun Dec 14 03:32:05 +0000 2014
p230
sg72
Nsg73
Nsg74
Nsg75
Nsg76
Nsg77
Nsg78
I00
sg79
Nsg80
(lp231
sg82
Nsg83
V543971664477028352
p232
sg85
Nsg86
VLaying in bed trying to sleep and then cake popped into my mind ... So now I'm baking a cake.
p233
sg88
I00
sg89
Ven
p234
sg91
g3
(g92
g5
Ntp235
Rp236
(dp237
g10
VATL
p238
sg97
V333333
p239
sg99
Ven
p240
sg101
VEastern Time (US & Canada)
p241
sg103
I973004
sg104
I21977
sg70
VTue Feb 03 20:58:44 +0000 2009
p242
sg106
I00
sg107
VWe make a living by what we get, but we make a life by what we give - business ONLY bookingscaitlin@gmail.com instagram- caitlinbeadles 2 corinthians 4:16-18
p243
sg109
Vhttps://pbs.twimg.com/profile_images/539718278118404097/QPZNxoWI_normal.jpeg
p244
sg111
I1233
sg112
I6731
sg113
I-18000
sg114
Nsg115
I00
sg116
Vhttps://pbs.twimg.com/profile_banners/20003448/1413341971
p245
sg118
I00
sg119
I01
sg120
V009999
p246
sg122
I01
sg123
I00
sg124
Vhttp://abs.twimg.com/images/themes/theme14/bg.gif
p247
sg126
Vgodsgirl8494
p248
sg128
I14705
sg129
VCaitlin Beadles
p249
sg131
VEFEFEF
p250
sg133
Nsg135
I20003448
sg136
V131516
p251
sbsg138
I100
sg139
V<a href="http://twitter.com/download/iphone" rel="nofollow">Twitter for iPhone</a>
p252
sg141
(lp253
sg135
I543971664477028352
sbsg20
Nsg21
(lp254
sg67
Nsg68
Nsg69
Nsg70
VSun Dec 14 03:46:49 +0000 2014
p255
sg72
Nsg73
Nsg74
Nsg75
Nsg76
Nsg77
Nsg78
I00
sg79
Nsg80
(lp256
g3
(g92
g5
Ntp257
Rp258
(dp259
g10
Nsg97
Nsg99
Nsg101
Nsg103
Nsg104
Nsg70
Nsg106
Nsg107
Nsg109
Nsg111
Nsg112
Nsg113
Nsg114
Nsg115
Nsg116
Nsg118
Nsg119
Nsg120
Nsg122
Nsg123
Nsg124
Nsg126
Vgodsgirl8494
p260
sg128
Nsg129
VCaitlin Beadles
p261
sg131
Nsg133
Nsg135
I20003448
sg136
Nsbasg82
Nsg83
V543975371738062848
p262
sg85
Nsg86
VRT @godsgirl8494: Laying in bed trying to sleep and then cake popped into my mind ... So now I'm baking a cake.
p263
sg88
I00
sg89
Ven
p264
sg91
g3
(g92
g5
Ntp265
Rp266
(dp267
g10
g96
sg97
V333333
p268
sg99
Ven
p269
sg101
Nsg103
I822
sg104
I359
sg70
VSun Dec 07 00:18:30 +0000 2014
p270
sg106
I00
sg107
VI'm a proud belieber
p271
sg109
Vhttps://pbs.twimg.com/profile_images/542818127893905408/ISXBiCVa_normal.jpeg
p272
sg111
I2004
sg112
I171
sg113
Nsg114
Nsg115
I00
sg116
Vhttps://pbs.twimg.com/profile_banners/2921048940/1418059484
p273
sg118
I00
sg119
I00
sg120
V0084B4
p274
sg122
I00
sg123
I00
sg124
Vhttp://abs.twimg.com/images/themes/theme1/bg.png
p275
sg126
Vab099888fbe5484
p276
sg128
I0
sg129
VHe stole my heart
p277
sg131
VDDEEF6
p278
sg133
Nsg135
I2921048940
sg136
VC0DEED
p279
sbsg138
I100
sg139
V<a href="http://twitter.com/download/android" rel="nofollow">Twitter for Android</a>
p280
sg141
(lp281
sg135
I543975371738062848
sbag3
(g4
g5
Ntp282
Rp283
(dp284
g9
I0
sg10
Nsg11
Nsg12
(lp285
sg14
I00
sg15
g3
(g4
g5
Ntp286
Rp287
(dp288
g9
I5941
sg10
Nsg11
Nsg12
(lp289
sg14
I00
sg15
Nsg20
Nsg21
(lp290
sg67
Nsg68
Nsg69
Nsg70
VMon Nov 24 17:36:31 +0000 2014
p291
sg72
Nsg73
Nsg74
Nsg75
Nsg76
Nsg77
Nsg78
I00
sg79
Nsg80
(lp292
sg82
Nsg83
V536936413686927360
p293
sg85
Nsg86
VHow do parents expect good grades when I pull on push doors
p294
sg88
I00
sg89
Ven
p295
sg91
g3
(g92
g5
Ntp296
Rp297
(dp298
g10
g96
sg97
V3D1957
p299
sg99
Ven
p300
sg101
VPacific Time (US & Canada)
p301
sg103
I2914671
sg104
I61557
sg70
VMon Aug 17 12:11:14 +0000 2009
p302
sg106
I00
sg107
VThat smells exotic.. Like Ranch dressing.. *Parody account* Contact: @SwoleScott
p303
sg109
Vhttps://pbs.twimg.com/profile_images/537397946468159488/w4n3WMIz_normal.jpeg
p304
sg111
I8454
sg112
I8029
sg113
I-28800
sg114
Nsg115
I00
sg116
Vhttps://pbs.twimg.com/profile_banners/66339576/1416962237
p305
sg118
I00
sg119
I00
sg120
VF5ABB5
p306
sg122
I00
sg123
I00
sg124
Vhttp://pbs.twimg.com/profile_background_images/495429323365421056/Xb8Rcrkx.jpeg
p307
sg126
VTheFunnyTeens
p308
sg128
I6454
sg129
VSarcasm
p309
sg131
V7AC3EE
p310
sg133
Nsg135
I66339576
sg136
VF5ABB5
p311
sbsg138
I6023
sg139
V<a href="http://twitter.com" rel="nofollow">Twitter Web Client</a>
p312
sg141
(lp313
sg135
I536936413686927360
sbsg20
Nsg21
(lp314
sg67
Nsg68
Nsg69
Nsg70
VSat Dec 13 22:36:00 +0000 2014
p315
sg72
Nsg73
Nsg74
Nsg75
Nsg76
Nsg77
Nsg78
I00
sg79
Nsg80
(lp316
g3
(g92
g5
Ntp317
Rp318
(dp319
g10
Nsg97
Nsg99
Nsg101
Nsg103
Nsg104
Nsg70
Nsg106
Nsg107
Nsg109
Nsg111
Nsg112
Nsg113
Nsg114
Nsg115
Nsg116
Nsg118
Nsg119
Nsg120
Nsg122
Nsg123
Nsg124
Nsg126
VTheFunnyTeens
p320
sg128
Nsg129
VSarcasm
p321
sg131
Nsg133
Nsg135
I66339576
sg136
Nsbasg82
Nsg83
V543897149772005376
p322
sg85
Nsg86
VRT @TheFunnyTeens: How do parents expect good grades when I pull on push doors
p323
sg88
I00
sg89
Ven
p324
sg91
g3
(g92
g5
Ntp325
Rp326
(dp327
g10
g96
sg97
V333333
p328
sg99
Ven
p329
sg101
Nsg103
I822
sg104
I359
sg70
VSun Dec 07 00:18:30 +0000 2014
p330
sg106
I00
sg107
VI'm a proud belieber
p331
sg109
Vhttps://pbs.twimg.com/profile_images/542818127893905408/ISXBiCVa_normal.jpeg
p332
sg111
I2004
sg112
I171
sg113
Nsg114
Nsg115
I00
sg116
Vhttps://pbs.twimg.com/profile_banners/2921048940/1418059484
p333
sg118
I00
sg119
I00
sg120
V0084B4
p334
sg122
I00
sg123
I00
sg124
Vhttp://abs.twimg.com/images/themes/theme1/bg.png
p335
sg126
Vab099888fbe5484
p336
sg128
I0
sg129
VHe stole my heart
p337
sg131
VDDEEF6
p338
sg133
Nsg135
I2921048940
sg136
VC0DEED
p339
sbsg138
I6023
sg139
V<a href="http://twitter.com/download/android" rel="nofollow">Twitter for Android</a>
p340
sg141
(lp341
sg135
I543897149772005376
sbag3
(g4
g5
Ntp342
Rp343
(dp344
g9
I0
sg10
Nsg11
Nsg12
(lp345
sg14
I00
sg15
g3
(g4
g5
Ntp346
Rp347
(dp348
g9
I4444
sg10
Nsg11
Nsg12
(lp349
sg14
I00
sg15
Nsg20
Nsg21
(lp350
sg67
Nsg68
Nsg69
Nsg70
VSat Nov 29 17:00:10 +0000 2014
p351
sg72
Nsg73
Nsg74
Nsg75
Nsg76
Nsg77
Nsg78
I00
sg79
Nsg80
(lp352
sg82
Nsg83
V538739203711176705
p353
sg85
Nsg86
Vmy worst fear is laughing at a joke I don\u2019t understand and having someone ask me to explain it
p354
sg88
I00
sg89
Ven
p355
sg91
g3
(g92
g5
Ntp356
Rp357
(dp358
g10
g96
sg97
V3D1957
p359
sg99
Ven
p360
sg101
VPacific Time (US & Canada)
p361
sg103
I2914671
sg104
I61557
sg70
VMon Aug 17 12:11:14 +0000 2009
p362
sg106
I00
sg107
VThat smells exotic.. Like Ranch dressing.. *Parody account* Contact: @SwoleScott
p363
sg109
Vhttps://pbs.twimg.com/profile_images/537397946468159488/w4n3WMIz_normal.jpeg
p364
sg111
I8454
sg112
I8029
sg113
I-28800
sg114
Nsg115
I00
sg116
Vhttps://pbs.twimg.com/profile_banners/66339576/1416962237
p365
sg118
I00
sg119
I00
sg120
VF5ABB5
p366
sg122
I00
sg123
I00
sg124
Vhttp://pbs.twimg.com/profile_background_images/495429323365421056/Xb8Rcrkx.jpeg
p367
sg126
VTheFunnyTeens
p368
sg128
I6454
sg129
VSarcasm
p369
sg131
V7AC3EE
p370
sg133
Nsg135
I66339576
sg136
VF5ABB5
p371
sbsg138
I3604
sg139
V<a href="http://twitter.com/download/iphone" rel="nofollow">Twitter for iPhone</a>
p372
sg141
(lp373
sg135
I538739203711176705
sbsg20
Nsg21
(lp374
sg67
Nsg68
Nsg69
Nsg70
VSat Dec 13 22:35:00 +0000 2014
p375
sg72
Nsg73
Nsg74
Nsg75
Nsg76
Nsg77
Nsg78
I00
sg79
Nsg80
(lp376
g3
(g92
g5
Ntp377
Rp378
(dp379
g10
Nsg97
Nsg99
Nsg101
Nsg103
Nsg104
Nsg70
Nsg106
Nsg107
Nsg109
Nsg111
Nsg112
Nsg113
Nsg114
Nsg115
Nsg116
Nsg118
Nsg119
Nsg120
Nsg122
Nsg123
Nsg124
Nsg126
VTheFunnyTeens
p380
sg128
Nsg129
VSarcasm
p381
sg131
Nsg133
Nsg135
I66339576
sg136
Nsbasg82
Nsg83
V543896899678265344
p382
sg85
Nsg86
VRT @TheFunnyTeens: my worst fear is laughing at a joke I don\u2019t understand and having someone ask me to explain it
p383
sg88
I00
sg89
Ven
p384
sg91
g3
(g92
g5
Ntp385
Rp386
(dp387
g10
g96
sg97
V333333
p388
sg99
Ven
p389
sg101
Nsg103
I822
sg104
I359
sg70
VSun Dec 07 00:18:30 +0000 2014
p390
sg106
I00
sg107
VI'm a proud belieber
p391
sg109
Vhttps://pbs.twimg.com/profile_images/542818127893905408/ISXBiCVa_normal.jpeg
p392
sg111
I2004
sg112
I171
sg113
Nsg114
Nsg115
I00
sg116
Vhttps://pbs.twimg.com/profile_banners/2921048940/1418059484
p393
sg118
I00
sg119
I00
sg120
V0084B4
p394
sg122
I00
sg123
I00
sg124
Vhttp://abs.twimg.com/images/themes/theme1/bg.png
p395
sg126
Vab099888fbe5484
p396
sg128
I0
sg129
VHe stole my heart
p397
sg131
VDDEEF6
p398
sg133
Nsg135
I2921048940
sg136
VC0DEED
p399
sbsg138
I3604
sg139
V<a href="http://twitter.com/download/android" rel="nofollow">Twitter for Android</a>
p400
sg141
(lp401
sg135
I543896899678265344
sbag3
(g4
g5
Ntp402
Rp403
(dp404
g9
I0
sg10
Nsg11
Nsg12
(lp405
sg14
I00
sg15
g3
(g4
g5
Ntp406
Rp407
(dp408
g9
I2651
sg10
Nsg11
Nsg12
(lp409
sg14
I00
sg15
Nsg20
Nsg21
(lp410
sg67
Nsg68
Nsg69
Nsg70
VSun Nov 30 20:27:32 +0000 2014
p411
sg72
Nsg73
Nsg74
Nsg75
Nsg76
Nsg77
Nsg78
I00
sg79
Nsg80
(lp412
sg82
Nsg83
V539153780152229888
p413
sg85
Nsg86
VTomorrow is December and I'm still single
p414
sg88
I00
sg89
Ven
p415
sg91
g3
(g92
g5
Ntp416
Rp417
(dp418
g10
g96
sg97
V3D1957
p419
sg99
Ven
p420
sg101
VPacific Time (US & Canada)
p421
sg103
I2914671
sg104
I61557
sg70
VMon Aug 17 12:11:14 +0000 2009
p422
sg106
I00
sg107
VThat smells exotic.. Like Ranch dressing.. *Parody account* Contact: @SwoleScott
p423
sg109
Vhttps://pbs.twimg.com/profile_images/537397946468159488/w4n3WMIz_normal.jpeg
p424
sg111
I8454
sg112
I8029
sg113
I-28800
sg114
Nsg115
I00
sg116
Vhttps://pbs.twimg.com/profile_banners/66339576/1416962237
p425
sg118
I00
sg119
I00
sg120
VF5ABB5
p426
sg122
I00
sg123
I00
sg124
Vhttp://pbs.twimg.com/profile_background_images/495429323365421056/Xb8Rcrkx.jpeg
p427
sg126
VTheFunnyTeens
p428
sg128
I6454
sg129
VSarcasm
p429
sg131
V7AC3EE
p430
sg133
Nsg135
I66339576
sg136
VF5ABB5
p431
sbsg138
I1874
sg139
V<a href="https://about.twitter.com/products/tweetdeck" rel="nofollow">TweetDeck</a>
p432
sg141
(lp433
sg135
I539153780152229888
sbsg20
Nsg21
(lp434
sg67
Nsg68
Nsg69
Nsg70
VSat Dec 13 22:35:00 +0000 2014
p435
sg72
Nsg73
Nsg74
Nsg75
Nsg76
Nsg77
Nsg78
I00
sg79
Nsg80
(lp436
g3
(g92
g5
Ntp437
Rp438
(dp439
g10
Nsg97
Nsg99
Nsg101
Nsg103
Nsg104
Nsg70
Nsg106
Nsg107
Nsg109
Nsg111
Nsg112
Nsg113
Nsg114
Nsg115
Nsg116
Nsg118
Nsg119
Nsg120
Nsg122
Nsg123
Nsg124
Nsg126
VTheFunnyTeens
p440
sg128
Nsg129
VSarcasm
p441
sg131
Nsg133
Nsg135
I66339576
sg136
Nsbasg82
Nsg83
V543896899590172672
p442
sg85
Nsg86
VRT @TheFunnyTeens: Tomorrow is December and I'm still single
p443
sg88
I00
sg89
Ven
p444
sg91
g3
(g92
g5
Ntp445
Rp446
(dp447
g10
g96
sg97
V333333
p448
sg99
Ven
p449
sg101
Nsg103
I822
sg104
I359
sg70
VSun Dec 07 00:18:30 +0000 2014
p450
sg106
I00
sg107
VI'm a proud belieber
p451
sg109
Vhttps://pbs.twimg.com/profile_images/542818127893905408/ISXBiCVa_normal.jpeg
p452
sg111
I2004
sg112
I171
sg113
Nsg114
Nsg115
I00
sg116
Vhttps://pbs.twimg.com/profile_banners/2921048940/1418059484
p453
sg118
I00
sg119
I00
sg120
V0084B4
p454
sg122
I00
sg123
I00
sg124
Vhttp://abs.twimg.com/images/themes/theme1/bg.png
p455
sg126
Vab099888fbe5484
p456
sg128
I0
sg129
VHe stole my heart
p457
sg131
VDDEEF6
p458
sg133
Nsg135
I2921048940
sg136
VC0DEED
p459
sbsg138
I1874
sg139
V<a href="http://twitter.com/download/android" rel="nofollow">Twitter for Android</a>
p460
sg141
(lp461
sg135
I543896899590172672
sbag3
(g4
g5
Ntp462
Rp463
(dp464
g9
I0
sg10
Nsg11
Nsg12
(lp465
sg14
I00
sg15
g3
(g4
g5
Ntp466
Rp467
(dp468
g9
I4863
sg10
Nsg11
Nsg12
(lp469
sg14
I00
sg15
Nsg20
Nsg21
(lp470
sg67
Nsg68
Nsg69
Nsg70
VSun Nov 30 04:09:06 +0000 2014
p471
sg72
Nsg73
Nsg74
Nsg75
Nsg76
Nsg77
Nsg78
I00
sg79
Nsg80
(lp472
sg82
Nsg83
V538907549127680000
p473
sg85
Nsg86
VWait a minute this isn\u2019t my \u000ahomework\u000aThis is twitter\u000aHow did this happen
p474
sg88
I00
sg89
Ven
p475
sg91
g3
(g92
g5
Ntp476
Rp477
(dp478
g10
g96
sg97
V3D1957
p479
sg99
Ven
p480
sg101
VPacific Time (US & Canada)
p481
sg103
I2914671
sg104
I61557
sg70
VMon Aug 17 12:11:14 +0000 2009
p482
sg106
I00
sg107
VThat smells exotic.. Like Ranch dressing.. *Parody account* Contact: @SwoleScott
p483
sg109
Vhttps://pbs.twimg.com/profile_images/537397946468159488/w4n3WMIz_normal.jpeg
p484
sg111
I8454
sg112
I8029
sg113
I-28800
sg114
Nsg115
I00
sg116
Vhttps://pbs.twimg.com/profile_banners/66339576/1416962237
p485
sg118
I00
sg119
I00
sg120
VF5ABB5
p486
sg122
I00
sg123
I00
sg124
Vhttp://pbs.twimg.com/profile_background_images/495429323365421056/Xb8Rcrkx.jpeg
p487
sg126
VTheFunnyTeens
p488
sg128
I6454
sg129
VSarcasm
p489
sg131
V7AC3EE
p490
sg133
Nsg135
I66339576
sg136
VF5ABB5
p491
sbsg138
I4026
sg139
V<a href="https://about.twitter.com/products/tweetdeck" rel="nofollow">TweetDeck</a>
p492
sg141
(lp493
sg135
I538907549127680000
sbsg20
Nsg21
(lp494
sg67
Nsg68
Nsg69
Nsg70
VSat Dec 13 22:34:59 +0000 2014
p495
sg72
Nsg73
Nsg74
Nsg75
Nsg76
Nsg77
Nsg78
I00
sg79
Nsg80
(lp496
g3
(g92
g5
Ntp497
Rp498
(dp499
g10
Nsg97
Nsg99
Nsg101
Nsg103
Nsg104
Nsg70
Nsg106
Nsg107
Nsg109
Nsg111
Nsg112
Nsg113
Nsg114
Nsg115
Nsg116
Nsg118
Nsg119
Nsg120
Nsg122
Nsg123
Nsg124
Nsg126
VTheFunnyTeens
p500
sg128
Nsg129
VSarcasm
p501
sg131
Nsg133
Nsg135
I66339576
sg136
Nsbasg82
Nsg83
V543896894783500288
p502
sg85
Nsg86
VRT @TheFunnyTeens: Wait a minute this isn\u2019t my \u000ahomework\u000aThis is twitter\u000aHow did this happen
p503
sg88
I00
sg89
Ven
p504
sg91
g3
(g92
g5
Ntp505
Rp506
(dp507
g10
g96
sg97
V333333
p508
sg99
Ven
p509
sg101
Nsg103
I822
sg104
I359
sg70
VSun Dec 07 00:18:30 +0000 2014
p510
sg106
I00
sg107
VI'm a proud belieber
p511
sg109
Vhttps://pbs.twimg.com/profile_images/542818127893905408/ISXBiCVa_normal.jpeg
p512
sg111
I2004
sg112
I171
sg113
Nsg114
Nsg115
I00
sg116
Vhttps://pbs.twimg.com/profile_banners/2921048940/1418059484
p513
sg118
I00
sg119
I00
sg120
V0084B4
p514
sg122
I00
sg123
I00
sg124
Vhttp://abs.twimg.com/images/themes/theme1/bg.png
p515
sg126
Vab099888fbe5484
p516
sg128
I0
sg129
VHe stole my heart
p517
sg131
VDDEEF6
p518
sg133
Nsg135
I2921048940
sg136
VC0DEED
p519
sbsg138
I4026
sg139
V<a href="http://twitter.com/download/android" rel="nofollow">Twitter for Android</a>
p520
sg141
(lp521
sg135
I543896894783500288
sbag3
(g4
g5
Ntp522
Rp523
(dp524
g9
I0
sg10
Nsg11
Nsg12
(lp525
sg14
I00
sg15
g3
(g4
g5
Ntp526
Rp527
(dp528
g9
I2745
sg10
Nsg11
Nsg12
(lp529
sg14
I00
sg15
Nsg20
Nsg21
(lp530
sg67
Nsg68
Nsg69
Nsg70
VWed Nov 26 21:00:57 +0000 2014
p531
sg72
Nsg73
Nsg74
Nsg75
Nsg76
Nsg77
Nsg78
I00
sg79
Nsg80
(lp532
sg82
Nsg83
V537712636012797953
p533
sg85
Nsg86
Vi bet you don't even have 99 problems i bet you have like 92 or 93 stop exaggerating
p534
sg88
I00
sg89
Ven
p535
sg91
g3
(g92
g5
Ntp536
Rp537
(dp538
g10
g96
sg97
V3D1957
p539
sg99
Ven
p540
sg101
VPacific Time (US & Canada)
p541
sg103
I2914671
sg104
I61557
sg70
VMon Aug 17 12:11:14 +0000 2009
p542
sg106
I00
sg107
VThat smells exotic.. Like Ranch dressing.. *Parody account* Contact: @SwoleScott
p543
sg109
Vhttps://pbs.twimg.com/profile_images/537397946468159488/w4n3WMIz_normal.jpeg
p544
sg111
I8454
sg112
I8029
sg113
I-28800
sg114
Nsg115
I00
sg116
Vhttps://pbs.twimg.com/profile_banners/66339576/1416962237
p545
sg118
I00
sg119
I00
sg120
VF5ABB5
p546
sg122
I00
sg123
I00
sg124
Vhttp://pbs.twimg.com/profile_background_images/495429323365421056/Xb8Rcrkx.jpeg
p547
sg126
VTheFunnyTeens
p548
sg128
I6454
sg129
VSarcasm
p549
sg131
V7AC3EE
p550
sg133
Nsg135
I66339576
sg136
VF5ABB5
p551
sbsg138
I1956
sg139
V<a href="https://about.twitter.com/products/tweetdeck" rel="nofollow">TweetDeck</a>
p552
sg141
(lp553
sg135
I537712636012797953
sbsg20
Nsg21
(lp554
sg67
Nsg68
Nsg69
Nsg70
VSat Dec 13 22:34:58 +0000 2014
p555
sg72
Nsg73
Nsg74
Nsg75
Nsg76
Nsg77
Nsg78
I00
sg79
Nsg80
(lp556
g3
(g92
g5
Ntp557
Rp558
(dp559
g10
Nsg97
Nsg99
Nsg101
Nsg103
Nsg104
Nsg70
Nsg106
Nsg107
Nsg109
Nsg111
Nsg112
Nsg113
Nsg114
Nsg115
Nsg116
Nsg118
Nsg119
Nsg120
Nsg122
Nsg123
Nsg124
Nsg126
VTheFunnyTeens
p560
sg128
Nsg129
VSarcasm
p561
sg131
Nsg133
Nsg135
I66339576
sg136
Nsbasg82
Nsg83
V543896890543075328
p562
sg85
Nsg86
VRT @TheFunnyTeens: i bet you don't even have 99 problems i bet you have like 92 or 93 stop exaggerating
p563
sg88
I00
sg89
Ven
p564
sg91
g3
(g92
g5
Ntp565
Rp566
(dp567
g10
g96
sg97
V333333
p568
sg99
Ven
p569
sg101
Nsg103
I822
sg104
I359
sg70
VSun Dec 07 00:18:30 +0000 2014
p570
sg106
I00
sg107
VI'm a proud belieber
p571
sg109
Vhttps://pbs.twimg.com/profile_images/542818127893905408/ISXBiCVa_normal.jpeg
p572
sg111
I2004
sg112
I171
sg113
Nsg114
Nsg115
I00
sg116
Vhttps://pbs.twimg.com/profile_banners/2921048940/1418059484
p573
sg118
I00
sg119
I00
sg120
V0084B4
p574
sg122
I00
sg123
I00
sg124
Vhttp://abs.twimg.com/images/themes/theme1/bg.png
p575
sg126
Vab099888fbe5484
p576
sg128
I0
sg129
VHe stole my heart
p577
sg131
VDDEEF6
p578
sg133
Nsg135
I2921048940
sg136
VC0DEED
p579
sbsg138
I1956
sg139
V<a href="http://twitter.com/download/android" rel="nofollow">Twitter for Android</a>
p580
sg141
(lp581
sg135
I543896890543075328
sbag3
(g4
g5
Ntp582
Rp583
(dp584
g9
I0
sg10
Nsg11
Nsg12
(lp585
sg14
I00
sg15
g3
(g4
g5
Ntp586
Rp587
(dp588
g9
I5999
sg10
Nsg11
Nsg12
(lp589
sg14
I00
sg15
Nsg20
Nsg21
(lp590
sg67
Nsg68
Nsg69
Nsg70
VTue Nov 25 22:10:33 +0000 2014
p591
sg72
Nsg73
Nsg74
Nsg75
Nsg76
Nsg77
Nsg78
I00
sg79
Nsg80
(lp592
sg82
Nsg83
V537367763267100672
p593
sg85
Nsg86
VIf I had a dollar for every time someone spelled my name wrong, I could pay for college, semester abroad, a new car, and a mansion in cash.
p594
sg88
I00
sg89
Ven
p595
sg91
g3
(g92
g5
Ntp596
Rp597
(dp598
g10
g96
sg97
V3D1957
p599
sg99
Ven
p600
sg101
VPacific Time (US & Canada)
p601
sg103
I2914671
sg104
I61557
sg70
VMon Aug 17 12:11:14 +0000 2009
p602
sg106
I00
sg107
VThat smells exotic.. Like Ranch dressing.. *Parody account* Contact: @SwoleScott
p603
sg109
Vhttps://pbs.twimg.com/profile_images/537397946468159488/w4n3WMIz_normal.jpeg
p604
sg111
I8454
sg112
I8029
sg113
I-28800
sg114
Nsg115
I00
sg116
Vhttps://pbs.twimg.com/profile_banners/66339576/1416962237
p605
sg118
I00
sg119
I00
sg120
VF5ABB5
p606
sg122
I00
sg123
I00
sg124
Vhttp://pbs.twimg.com/profile_background_images/495429323365421056/Xb8Rcrkx.jpeg
p607
sg126
VTheFunnyTeens
p608
sg128
I6454
sg129
VSarcasm
p609
sg131
V7AC3EE
p610
sg133
Nsg135
I66339576
sg136
VF5ABB5
p611
sbsg138
I7995
sg139
V<a href="http://twitter.com" rel="nofollow">Twitter Web Client</a>
p612
sg141
(lp613
sg135
I537367763267100672
sbsg20
Nsg21
(lp614
sg67
Nsg68
Nsg69
Nsg70
VSat Dec 13 22:34:58 +0000 2014
p615
sg72
Nsg73
Nsg74
Nsg75
Nsg76
Nsg77
Nsg78
I00
sg79
Nsg80
(lp616
g3
(g92
g5
Ntp617
Rp618
(dp619
g10
Nsg97
Nsg99
Nsg101
Nsg103
Nsg104
Nsg70
Nsg106
Nsg107
Nsg109
Nsg111
Nsg112
Nsg113
Nsg114
Nsg115
Nsg116
Nsg118
Nsg119
Nsg120
Nsg122
Nsg123
Nsg124
Nsg126
VTheFunnyTeens
p620
sg128
Nsg129
VSarcasm
p621
sg131
Nsg133
Nsg135
I66339576
sg136
Nsbasg82
Nsg83
V543896890501128193
p622
sg85
Nsg86
VRT @TheFunnyTeens: If I had a dollar for every time someone spelled my name wrong, I could pay for college, semester abroad, a new car, and\u2026
p623
sg88
I00
sg89
Ven
p624
sg91
g3
(g92
g5
Ntp625
Rp626
(dp627
g10
g96
sg97
V333333
p628
sg99
Ven
p629
sg101
Nsg103
I822
sg104
I359
sg70
VSun Dec 07 00:18:30 +0000 2014
p630
sg106
I00
sg107
VI'm a proud belieber
p631
sg109
Vhttps://pbs.twimg.com/profile_images/542818127893905408/ISXBiCVa_normal.jpeg
p632
sg111
I2004
sg112
I171
sg113
Nsg114
Nsg115
I00
sg116
Vhttps://pbs.twimg.com/profile_banners/2921048940/1418059484
p633
sg118
I00
sg119
I00
sg120
V0084B4
p634
sg122
I00
sg123
I00
sg124
Vhttp://abs.twimg.com/images/themes/theme1/bg.png
p635
sg126
Vab099888fbe5484
p636
sg128
I0
sg129
VHe stole my heart
p637
sg131
VDDEEF6
p638
sg133
Nsg135
I2921048940
sg136
VC0DEED
p639
sbsg138
I7995
sg139
V<a href="http://twitter.com/download/android" rel="nofollow">Twitter for Android</a>
p640
sg141
(lp641
sg135
I543896890501128193
sbag3
(g4
g5
Ntp642
Rp643
(dp644
g9
I0
sg10
Nsg11
Nsg12
(lp645
sg14
I00
sg15
g3
(g4
g5
Ntp646
Rp647
(dp648
g9
I5972
sg10
Nsg11
Nsg12
(lp649
sg14
I00
sg15
Nsg20
Nsg21
(lp650
sg67
Nsg68
Nsg69
Nsg70
VTue Nov 25 07:02:09 +0000 2014
p651
sg72
Nsg73
Nsg74
Nsg75
Nsg76
Nsg77
Nsg78
I00
sg79
Nsg80
(lp652
sg82
Nsg83
V537139159497183233
p653
sg85
Nsg86
Vemployer: why should we hire you?\u000a\u000ame: i got first place on Rainbow Road\u000a\u000aemployer: holy shit
p654
sg88
I00
sg89
Ven
p655
sg91
g3
(g92
g5
Ntp656
Rp657
(dp658
g10
g96
sg97
V3D1957
p659
sg99
Ven
p660
sg101
VPacific Time (US & Canada)
p661
sg103
I2914671
sg104
I61557
sg70
VMon Aug 17 12:11:14 +0000 2009
p662
sg106
I00
sg107
VThat smells exotic.. Like Ranch dressing.. *Parody account* Contact: @SwoleScott
p663
sg109
Vhttps://pbs.twimg.com/profile_images/537397946468159488/w4n3WMIz_normal.jpeg
p664
sg111
I8454
sg112
I8029
sg113
I-28800
sg114
Nsg115
I00
sg116
Vhttps://pbs.twimg.com/profile_banners/66339576/1416962237
p665
sg118
I00
sg119
I00
sg120
VF5ABB5
p666
sg122
I00
sg123
I00
sg124
Vhttp://pbs.twimg.com/profile_background_images/495429323365421056/Xb8Rcrkx.jpeg
p667
sg126
VTheFunnyTeens
p668
sg128
I6454
sg129
VSarcasm
p669
sg131
V7AC3EE
p670
sg133
Nsg135
I66339576
sg136
VF5ABB5
p671
sbsg138
I3204
sg139
V<a href="https://about.twitter.com/products/tweetdeck" rel="nofollow">TweetDeck</a>
p672
sg141
(lp673
sg135
I537139159497183233
sbsg20
Nsg21
(lp674
sg67
Nsg68
Nsg69
Nsg70
VSat Dec 13 22:34:58 +0000 2014
p675
sg72
Nsg73
Nsg74
Nsg75
Nsg76
Nsg77
Nsg78
I00
sg79
Nsg80
(lp676
g3
(g92
g5
Ntp677
Rp678
(dp679
g10
Nsg97
Nsg99
Nsg101
Nsg103
Nsg104
Nsg70
Nsg106
Nsg107
Nsg109
Nsg111
Nsg112
Nsg113
Nsg114
Nsg115
Nsg116
Nsg118
Nsg119
Nsg120
Nsg122
Nsg123
Nsg124
Nsg126
VTheFunnyTeens
p680
sg128
Nsg129
VSarcasm
p681
sg131
Nsg133
Nsg135
I66339576
sg136
Nsbasg82
Nsg83
V543896889171521536
p682
sg85
Nsg86
VRT @TheFunnyTeens: employer: why should we hire you?\u000a\u000ame: i got first place on Rainbow Road\u000a\u000aemployer: holy shit
p683
sg88
I00
sg89
Ven
p684
sg91
g3
(g92
g5
Ntp685
Rp686
(dp687
g10
g96
sg97
V333333
p688
sg99
Ven
p689
sg101
Nsg103
I822
sg104
I359
sg70
VSun Dec 07 00:18:30 +0000 2014
p690
sg106
I00
sg107
VI'm a proud belieber
p691
sg109
Vhttps://pbs.twimg.com/profile_images/542818127893905408/ISXBiCVa_normal.jpeg
p692
sg111
I2004
sg112
I171
sg113
Nsg114
Nsg115
I00
sg116
Vhttps://pbs.twimg.com/profile_banners/2921048940/1418059484
p693
sg118
I00
sg119
I00
sg120
V0084B4
p694
sg122
I00
sg123
I00
sg124
Vhttp://abs.twimg.com/images/themes/theme1/bg.png
p695
sg126
Vab099888fbe5484
p696
sg128
I0
sg129
VHe stole my heart
p697
sg131
VDDEEF6
p698
sg133
Nsg135
I2921048940
sg136
VC0DEED
p699
sbsg138
I3204
sg139
V<a href="http://twitter.com/download/android" rel="nofollow">Twitter for Android</a>
p700
sg141
(lp701
sg135
I543896889171521536
sbag3
(g4
g5
Ntp702
Rp703
(dp704
g9
I0
sg10
Nsg11
Nsg12
(lp705
sg14
I00
sg15
g3
(g4
g5
Ntp706
Rp707
(dp708
g9
I5150
sg10
Nsg11
Nsg12
(lp709
sg14
I00
sg15
Nsg20
Nsg21
(lp710
sg67
Nsg68
Nsg69
Nsg70
VSat Nov 29 19:15:56 +0000 2014
p711
sg72
Nsg73
Nsg74
Nsg75
Nsg76
Nsg77
Nsg78
I00
sg79
Nsg80
(lp712
sg82
Nsg83
V538773370230550529
p713
sg85
Nsg86
Vcan u lose weight by running away from your feelings?
p714
sg88
I00
sg89
Ven
p715
sg91
g3
(g92
g5
Ntp716
Rp717
(dp718
g10
g96
sg97
V3D1957
p719
sg99
Ven
p720
sg101
VPacific Time (US & Canada)
p721
sg103
I2914671
sg104
I61557
sg70
VMon Aug 17 12:11:14 +0000 2009
p722
sg106
I00
sg107
VThat smells exotic.. Like Ranch dressing.. *Parody account* Contact: @SwoleScott
p723
sg109
Vhttps://pbs.twimg.com/profile_images/537397946468159488/w4n3WMIz_normal.jpeg
p724
sg111
I8454
sg112
I8029
sg113
I-28800
sg114
Nsg115
I00
sg116
Vhttps://pbs.twimg.com/profile_banners/66339576/1416962237
p725
sg118
I00
sg119
I00
sg120
VF5ABB5
p726
sg122
I00
sg123
I00
sg124
Vhttp://pbs.twimg.com/profile_background_images/495429323365421056/Xb8Rcrkx.jpeg
p727
sg126
VTheFunnyTeens
p728
sg128
I6454
sg129
VSarcasm
p729
sg131
V7AC3EE
p730
sg133
Nsg135
I66339576
sg136
VF5ABB5
p731
sbsg138
I4782
sg139
V<a href="https://about.twitter.com/products/tweetdeck" rel="nofollow">TweetDeck</a>
p732
sg141
(lp733
sg135
I538773370230550529
sbsg20
Nsg21
(lp734
sg67
Nsg68
Nsg69
Nsg70
VSat Dec 13 22:34:58 +0000 2014
p735
sg72
Nsg73
Nsg74
Nsg75
Nsg76
Nsg77
Nsg78
I00
sg79
Nsg80
(lp736
g3
(g92
g5
Ntp737
Rp738
(dp739
g10
Nsg97
Nsg99
Nsg101
Nsg103
Nsg104
Nsg70
Nsg106
Nsg107
Nsg109
Nsg111
Nsg112
Nsg113
Nsg114
Nsg115
Nsg116
Nsg118
Nsg119
Nsg120
Nsg122
Nsg123
Nsg124
Nsg126
VTheFunnyTeens
p740
sg128
Nsg129
VSarcasm
p741
sg131
Nsg133
Nsg135
I66339576
sg136
Nsbasg82
Nsg83
V543896889167319040
p742
sg85
Nsg86
VRT @TheFunnyTeens: can u lose weight by running away from your feelings?
p743
sg88
I00
sg89
Ven
p744
sg91
g3
(g92
g5
Ntp745
Rp746
(dp747
g10
g96
sg97
V333333
p748
sg99
Ven
p749
sg101
Nsg103
I822
sg104
I359
sg70
VSun Dec 07 00:18:30 +0000 2014
p750
sg106
I00
sg107
VI'm a proud belieber
p751
sg109
Vhttps://pbs.twimg.com/profile_images/542818127893905408/ISXBiCVa_normal.jpeg
p752
sg111
I2004
sg112
I171
sg113
Nsg114
Nsg115
I00
sg116
Vhttps://pbs.twimg.com/profile_banners/2921048940/1418059484
p753
sg118
I00
sg119
I00
sg120
V0084B4
p754
sg122
I00
sg123
I00
sg124
Vhttp://abs.twimg.com/images/themes/theme1/bg.png
p755
sg126
Vab099888fbe5484
p756
sg128
I0
sg129
VHe stole my heart
p757
sg131
VDDEEF6
p758
sg133
Nsg135
I2921048940
sg136
VC0DEED
p759
sbsg138
I4782
sg139
V<a href="http://twitter.com/download/android" rel="nofollow">Twitter for Android</a>
p760
sg141
(lp761
sg135
I543896889167319040
sbag3
(g4
g5
Ntp762
Rp763
(dp764
g9
I0
sg10
Nsg11
Nsg12
(lp765
sg14
I00
sg15
g3
(g4
g5
Ntp766
Rp767
(dp768
g9
I5926
sg10
Nsg11
Nsg12
(lp769
sg14
I00
sg15
Nsg20
Nsg21
(lp770
sg67
Nsg68
Nsg69
Nsg70
VSat Nov 29 18:51:40 +0000 2014
p771
sg72
Nsg73
Nsg74
Nsg75
Nsg76
Nsg77
Nsg78
I00
sg79
Nsg80
(lp772
sg82
Nsg83
V538767265383333889
p773
sg85
Nsg86
Vwhy do parents get so upset about little things like I left a plate in the sink not a dead body
p774
sg88
I00
sg89
Ven
p775
sg91
g3
(g92
g5
Ntp776
Rp777
(dp778
g10
g96
sg97
V3D1957
p779
sg99
Ven
p780
sg101
VPacific Time (US & Canada)
p781
sg103
I2914671
sg104
I61557
sg70
VMon Aug 17 12:11:14 +0000 2009
p782
sg106
I00
sg107
VThat smells exotic.. Like Ranch dressing.. *Parody account* Contact: @SwoleScott
p783
sg109
Vhttps://pbs.twimg.com/profile_images/537397946468159488/w4n3WMIz_normal.jpeg
p784
sg111
I8454
sg112
I8029
sg113
I-28800
sg114
Nsg115
I00
sg116
Vhttps://pbs.twimg.com/profile_banners/66339576/1416962237
p785
sg118
I00
sg119
I00
sg120
VF5ABB5
p786
sg122
I00
sg123
I00
sg124
Vhttp://pbs.twimg.com/profile_background_images/495429323365421056/Xb8Rcrkx.jpeg
p787
sg126
VTheFunnyTeens
p788
sg128
I6454
sg129
VSarcasm
p789
sg131
V7AC3EE
p790
sg133
Nsg135
I66339576
sg136
VF5ABB5
p791
sbsg138
I4934
sg139
V<a href="https://about.twitter.com/products/tweetdeck" rel="nofollow">TweetDeck</a>
p792
sg141
(lp793
sg135
I538767265383333889
sbsg20
Nsg21
(lp794
sg67
Nsg68
Nsg69
Nsg70
VSat Dec 13 22:34:57 +0000 2014
p795
sg72
Nsg73
Nsg74
Nsg75
Nsg76
Nsg77
Nsg78
I00
sg79
Nsg80
(lp796
g3
(g92
g5
Ntp797
Rp798
(dp799
g10
Nsg97
Nsg99
Nsg101
Nsg103
Nsg104
Nsg70
Nsg106
Nsg107
Nsg109
Nsg111
Nsg112
Nsg113
Nsg114
Nsg115
Nsg116
Nsg118
Nsg119
Nsg120
Nsg122
Nsg123
Nsg124
Nsg126
VTheFunnyTeens
p800
sg128
Nsg129
VSarcasm
p801
sg131
Nsg133
Nsg135
I66339576
sg136
Nsbasg82
Nsg83
V543896886034178049
p802
sg85
Nsg86
VRT @TheFunnyTeens: why do parents get so upset about little things like I left a plate in the sink not a dead body
p803
sg88
I00
sg89
Ven
p804
sg91
g3
(g92
g5
Ntp805
Rp806
(dp807
g10
g96
sg97
V333333
p808
sg99
Ven
p809
sg101
Nsg103
I822
sg104
I359
sg70
VSun Dec 07 00:18:30 +0000 2014
p810
sg106
I00
sg107
VI'm a proud belieber
p811
sg109
Vhttps://pbs.twimg.com/profile_images/542818127893905408/ISXBiCVa_normal.jpeg
p812
sg111
I2004
sg112
I171
sg113
Nsg114
Nsg115
I00
sg116
Vhttps://pbs.twimg.com/profile_banners/2921048940/1418059484
p813
sg118
I00
sg119
I00
sg120
V0084B4
p814
sg122
I00
sg123
I00
sg124
Vhttp://abs.twimg.com/images/themes/theme1/bg.png
p815
sg126
Vab099888fbe5484
p816
sg128
I0
sg129
VHe stole my heart
p817
sg131
VDDEEF6
p818
sg133
Nsg135
I2921048940
sg136
VC0DEED
p819
sbsg138
I4934
sg139
V<a href="http://twitter.com/download/android" rel="nofollow">Twitter for Android</a>
p820
sg141
(lp821
sg135
I543896886034178049
sbag3
(g4
g5
Ntp822
Rp823
(dp824
g9
I0
sg10
Nsg11
Nsg12
(lp825
sg14
I00
sg15
g3
(g4
g5
Ntp826
Rp827
(dp828
g9
I5674
sg10
Nsg11
Nsg12
(lp829
sg14
I00
sg15
Nsg20
Nsg21
(lp830
sg67
Nsg68
Nsg69
Nsg70
VSat Nov 29 22:06:02 +0000 2014
p831
sg72
Nsg73
Nsg74
Nsg75
Nsg76
Nsg77
Nsg78
I00
sg79
Nsg80
(lp832
sg82
Nsg83
V538816177980858368
p833
sg85
Nsg86
Vdo u ever say or tweet something emotional then ur just like damn that was really lame
p834
sg88
I00
sg89
Ven
p835
sg91
g3
(g92
g5
Ntp836
Rp837
(dp838
g10
g96
sg97
V3D1957
p839
sg99
Ven
p840
sg101
VPacific Time (US & Canada)
p841
sg103
I2914671
sg104
I61557
sg70
VMon Aug 17 12:11:14 +0000 2009
p842
sg106
I00
sg107
VThat smells exotic.. Like Ranch dressing.. *Parody account* Contact: @SwoleScott
p843
sg109
Vhttps://pbs.twimg.com/profile_images/537397946468159488/w4n3WMIz_normal.jpeg
p844
sg111
I8454
sg112
I8029
sg113
I-28800
sg114
Nsg115
I00
sg116
Vhttps://pbs.twimg.com/profile_banners/66339576/1416962237
p845
sg118
I00
sg119
I00
sg120
VF5ABB5
p846
sg122
I00
sg123
I00
sg124
Vhttp://pbs.twimg.com/profile_background_images/495429323365421056/Xb8Rcrkx.jpeg
p847
sg126
VTheFunnyTeens
p848
sg128
I6454
sg129
VSarcasm
p849
sg131
V7AC3EE
p850
sg133
Nsg135
I66339576
sg136
VF5ABB5
p851
sbsg138
I3708
sg139
V<a href="https://about.twitter.com/products/tweetdeck" rel="nofollow">TweetDeck</a>
p852
sg141
(lp853
sg135
I538816177980858368
sbsg20
Nsg21
(lp854
sg67
Nsg68
Nsg69
Nsg70
VSat Dec 13 22:34:56 +0000 2014
p855
sg72
Nsg73
Nsg74
Nsg75
Nsg76
Nsg77
Nsg78
I00
sg79
Nsg80
(lp856
g3
(g92
g5
Ntp857
Rp858
(dp859
g10
Nsg97
Nsg99
Nsg101
Nsg103
Nsg104
Nsg70
Nsg106
Nsg107
Nsg109
Nsg111
Nsg112
Nsg113
Nsg114
Nsg115
Nsg116
Nsg118
Nsg119
Nsg120
Nsg122
Nsg123
Nsg124
Nsg126
VTheFunnyTeens
p860
sg128
Nsg129
VSarcasm
p861
sg131
Nsg133
Nsg135
I66339576
sg136
Nsbasg82
Nsg83
V543896882368376832
p862
sg85
Nsg86
VRT @TheFunnyTeens: do u ever say or tweet something emotional then ur just like damn that was really lame
p863
sg88
I00
sg89
Ven
p864
sg91
g3
(g92
g5
Ntp865
Rp866
(dp867
g10
g96
sg97
V333333
p868
sg99
Ven
p869
sg101
Nsg103
I822
sg104
I359
sg70
VSun Dec 07 00:18:30 +0000 2014
p870
sg106
I00
sg107
VI'm a proud belieber
p871
sg109
Vhttps://pbs.twimg.com/profile_images/542818127893905408/ISXBiCVa_normal.jpeg
p872
sg111
I2004
sg112
I171
sg113
Nsg114
Nsg115
I00
sg116
Vhttps://pbs.twimg.com/profile_banners/2921048940/1418059484
p873
sg118
I00
sg119
I00
sg120
V0084B4
p874
sg122
I00
sg123
I00
sg124
Vhttp://abs.twimg.com/images/themes/theme1/bg.png
p875
sg126
Vab099888fbe5484
p876
sg128
I0
sg129
VHe stole my heart
p877
sg131
VDDEEF6
p878
sg133
Nsg135
I2921048940
sg136
VC0DEED
p879
sbsg138
I3708
sg139
V<a href="http://twitter.com/download/android" rel="nofollow">Twitter for Android</a>
p880
sg141
(lp881
sg135
I543896882368376832
sbag3
(g4
g5
Ntp882
Rp883
(dp884
g9
I0
sg10
Nsg11
Nsg12
(lp885
sg14
I00
sg15
g3
(g4
g5
Ntp886
Rp887
(dp888
g9
I5252
sg10
Nsg11
Nsg12
(lp889
sg14
I00
sg15
Nsg20
Nsg21
(lp890
sg67
Nsg68
Nsg69
Nsg70
VThu Nov 27 00:23:58 +0000 2014
p891
sg72
Nsg73
Nsg74
Nsg75
Nsg76
Nsg77
Nsg78
I00
sg79
Nsg80
(lp892
sg82
Nsg83
V537763726888538112
p893
sg85
Nsg86
Vdont send nudes\u2026 send xrays its whats inside that counts
p894
sg88
I00
sg89
Ven
p895
sg91
g3
(g92
g5
Ntp896
Rp897
(dp898
g10
g96
sg97
V3D1957
p899
sg99
Ven
p900
sg101
VPacific Time (US & Canada)
p901
sg103
I2914671
sg104
I61557
sg70
VMon Aug 17 12:11:14 +0000 2009
p902
sg106
I00
sg107
VThat smells exotic.. Like Ranch dressing.. *Parody account* Contact: @SwoleScott
p903
sg109
Vhttps://pbs.twimg.com/profile_images/537397946468159488/w4n3WMIz_normal.jpeg
p904
sg111
I8454
sg112
I8029
sg113
I-28800
sg114
Nsg115
I00
sg116
Vhttps://pbs.twimg.com/profile_banners/66339576/1416962237
p905
sg118
I00
sg119
I00
sg120
VF5ABB5
p906
sg122
I00
sg123
I00
sg124
Vhttp://pbs.twimg.com/profile_background_images/495429323365421056/Xb8Rcrkx.jpeg
p907
sg126
VTheFunnyTeens
p908
sg128
I6454
sg129
VSarcasm
p909
sg131
V7AC3EE
p910
sg133
Nsg135
I66339576
sg136
VF5ABB5
p911
sbsg138
I4104
sg139
V<a href="https://about.twitter.com/products/tweetdeck" rel="nofollow">TweetDeck</a>
p912
sg141
(lp913
sg135
I537763726888538112
sbsg20
Nsg21
(lp914
sg67
Nsg68
Nsg69
Nsg70
VSat Dec 13 22:34:56 +0000 2014
p915
sg72
Nsg73
Nsg74
Nsg75
Nsg76
Nsg77
Nsg78
I00
sg79
Nsg80
(lp916
g3
(g92
g5
Ntp917
Rp918
(dp919
g10
Nsg97
Nsg99
Nsg101
Nsg103
Nsg104
Nsg70
Nsg106
Nsg107
Nsg109
Nsg111
Nsg112
Nsg113
Nsg114
Nsg115
Nsg116
Nsg118
Nsg119
Nsg120
Nsg122
Nsg123
Nsg124
Nsg126
VTheFunnyTeens
p920
sg128
Nsg129
VSarcasm
p921
sg131
Nsg133
Nsg135
I66339576
sg136
Nsbasg82
Nsg83
V543896882364166144
p922
sg85
Nsg86
VRT @TheFunnyTeens: dont send nudes\u2026 send xrays its whats inside that counts
p923
sg88
I00
sg89
Ven
p924
sg91
g3
(g92
g5
Ntp925
Rp926
(dp927
g10
g96
sg97
V333333
p928
sg99
Ven
p929
sg101
Nsg103
I822
sg104
I359
sg70
VSun Dec 07 00:18:30 +0000 2014
p930
sg106
I00
sg107
VI'm a proud belieber
p931
sg109
Vhttps://pbs.twimg.com/profile_images/542818127893905408/ISXBiCVa_normal.jpeg
p932
sg111
I2004
sg112
I171
sg113
Nsg114
Nsg115
I00
sg116
Vhttps://pbs.twimg.com/profile_banners/2921048940/1418059484
p933
sg118
I00
sg119
I00
sg120
V0084B4
p934
sg122
I00
sg123
I00
sg124
Vhttp://abs.twimg.com/images/themes/theme1/bg.png
p935
sg126
Vab099888fbe5484
p936
sg128
I0
sg129
VHe stole my heart
p937
sg131
VDDEEF6
p938
sg133
Nsg135
I2921048940
sg136
VC0DEED
p939
sbsg138
I4104
sg139
V<a href="http://twitter.com/download/android" rel="nofollow">Twitter for Android</a>
p940
sg141
(lp941
sg135
I543896882364166144
sbag3
(g4
g5
Ntp942
Rp943
(dp944
g9
I0
sg10
Nsg11
Nsg12
(lp945
sg14
I00
sg15
g3
(g4
g5
Ntp946
Rp947
(dp948
g9
I4491
sg10
Nsg11
Nsg12
(lp949
sg14
I00
sg15
Nsg20
Nsg21
(lp950
sg67
Nsg68
Nsg69
Nsg70
VThu Nov 27 01:46:16 +0000 2014
p951
sg72
Nsg73
Nsg74
Nsg75
Nsg76
Nsg77
Nsg78
I00
sg79
Nsg80
(lp952
sg82
Nsg83
V537784438265249792
p953
sg85
Nsg86
Vi get anxious for ppl who fall asleep on public transit. like where is ur home? how many stops have u missed? this was not a time for a nap
p954
sg88
I00
sg89
Ven
p955
sg91
g3
(g92
g5
Ntp956
Rp957
(dp958
g10
g96
sg97
V3D1957
p959
sg99
Ven
p960
sg101
VPacific Time (US & Canada)
p961
sg103
I2914671
sg104
I61557
sg70
VMon Aug 17 12:11:14 +0000 2009
p962
sg106
I00
sg107
VThat smells exotic.. Like Ranch dressing.. *Parody account* Contact: @SwoleScott
p963
sg109
Vhttps://pbs.twimg.com/profile_images/537397946468159488/w4n3WMIz_normal.jpeg
p964
sg111
I8454
sg112
I8029
sg113
I-28800
sg114
Nsg115
I00
sg116
Vhttps://pbs.twimg.com/profile_banners/66339576/1416962237
p965
sg118
I00
sg119
I00
sg120
VF5ABB5
p966
sg122
I00
sg123
I00
sg124
Vhttp://pbs.twimg.com/profile_background_images/495429323365421056/Xb8Rcrkx.jpeg
p967
sg126
VTheFunnyTeens
p968
sg128
I6454
sg129
VSarcasm
p969
sg131
V7AC3EE
p970
sg133
Nsg135
I66339576
sg136
VF5ABB5
p971
sbsg138
I3211
sg139
V<a href="https://about.twitter.com/products/tweetdeck" rel="nofollow">TweetDeck</a>
p972
sg141
(lp973
sg135
I537784438265249792
sbsg20
Nsg21
(lp974
sg67
Nsg68
Nsg69
Nsg70
VSat Dec 13 22:34:56 +0000 2014
p975
sg72
Nsg73
Nsg74
Nsg75
Nsg76
Nsg77
Nsg78
I00
sg79
Nsg80
(lp976
g3
(g92
g5
Ntp977
Rp978
(dp979
g10
Nsg97
Nsg99
Nsg101
Nsg103
Nsg104
Nsg70
Nsg106
Nsg107
Nsg109
Nsg111
Nsg112
Nsg113
Nsg114
Nsg115
Nsg116
Nsg118
Nsg119
Nsg120
Nsg122
Nsg123
Nsg124
Nsg126
VTheFunnyTeens
p980
sg128
Nsg129
VSarcasm
p981
sg131
Nsg133
Nsg135
I66339576
sg136
Nsbasg82
Nsg83
V543896882355773440
p982
sg85
Nsg86
VRT @TheFunnyTeens: i get anxious for ppl who fall asleep on public transit. like where is ur home? how many stops have u missed? this was n\u2026
p983
sg88
I00
sg89
Ven
p984
sg91
g3
(g92
g5
Ntp985
Rp986
(dp987
g10
g96
sg97
V333333
p988
sg99
Ven
p989
sg101
Nsg103
I822
sg104
I359
sg70
VSun Dec 07 00:18:30 +0000 2014
p990
sg106
I00
sg107
VI'm a proud belieber
p991
sg109
Vhttps://pbs.twimg.com/profile_images/542818127893905408/ISXBiCVa_normal.jpeg
p992
sg111
I2004
sg112
I171
sg113
Nsg114
Nsg115
I00
sg116
Vhttps://pbs.twimg.com/profile_banners/2921048940/1418059484
p993
sg118
I00
sg119
I00
sg120
V0084B4
p994
sg122
I00
sg123
I00
sg124
Vhttp://abs.twimg.com/images/themes/theme1/bg.png
p995
sg126
Vab099888fbe5484
p996
sg128
I0
sg129
VHe stole my heart
p997
sg131
VDDEEF6
p998
sg133
Nsg135
I2921048940
sg136
VC0DEED
p999
sbsg138
I3211
sg139
V<a href="http://twitter.com/download/android" rel="nofollow">Twitter for Android</a>
p1000
sg141
(lp1001
sg135
I543896882355773440
sbag3
(g4
g5
Ntp1002
Rp1003
(dp1004
g9
I0
sg10
Nsg11
Nsg12
(lp1005
sg14
I00
sg15
g3
(g4
g5
Ntp1006
Rp1007
(dp1008
g9
I8832
sg10
Nsg11
Nsg12
(lp1009
sg14
I00
sg15
Nsg20
Nsg21
(lp1010
(dp1011
Vexpanded_url
p1012
Vhttp://twitter.com/TheFunnyTeens/status/538881446489128960/photo/1
p1013
sVdisplay_url
p1014
Vpic.twitter.com/TaCJJ8i44Q
p1015
sVurl
p1016
Vhttp://t.co/TaCJJ8i44Q
p1017
sVmedia_url_https
p1018
Vhttps://pbs.twimg.com/media/B3p90RQCUAAO13I.jpg
p1019
sVid_str
p1020
V538881442361528320
p1021
sVsizes
p1022
(dp1023
Vsmall
p1024
(dp1025
Vh
p1026
I604
sVresize
p1027
Vfit
p1028
sVw
p1029
I340
ssVlarge
p1030
(dp1031
Vh
p1032
I720
sVresize
p1033
Vfit
p1034
sVw
p1035
I405
ssVmedium
p1036
(dp1037
Vh
p1038
I720
sVresize
p1039
Vfit
p1040
sVw
p1041
I405
ssVthumb
p1042
(dp1043
Vh
p1044
I150
sVresize
p1045
Vcrop
p1046
sVw
p1047
I150
sssVindices
p1048
(lp1049
I52
aI74
asVtype
p1050
Vphoto
p1051
sVid
p1052
I538881442361528320
sVmedia_url
p1053
Vhttp://pbs.twimg.com/media/B3p90RQCUAAO13I.jpg
p1054
sasg67
Nsg68
Nsg69
Nsg70
VSun Nov 30 02:25:23 +0000 2014
p1055
sg72
Nsg73
I00
sg74
Nsg75
Nsg76
Nsg77
Nsg78
I00
sg79
Nsg80
(lp1056
sg82
Nsg83
V538881446489128960
p1057
sg85
Nsg86
VI always go to the register with the cutest cashier http://t.co/TaCJJ8i44Q
p1058
sg88
I00
sg89
Ven
p1059
sg91
g3
(g92
g5
Ntp1060
Rp1061
(dp1062
g10
g96
sg97
V3D1957
p1063
sg99
Ven
p1064
sg101
VPacific Time (US & Canada)
p1065
sg103
I2914671
sg104
I61557
sg70
VMon Aug 17 12:11:14 +0000 2009
p1066
sg106
I00
sg107
VThat smells exotic.. Like Ranch dressing.. *Parody account* Contact: @SwoleScott
p1067
sg109
Vhttps://pbs.twimg.com/profile_images/537397946468159488/w4n3WMIz_normal.jpeg
p1068
sg111
I8454
sg112
I8029
sg113
I-28800
sg114
Nsg115
I00
sg116
Vhttps://pbs.twimg.com/profile_banners/66339576/1416962237
p1069
sg118
I00
sg119
I00
sg120
VF5ABB5
p1070
sg122
I00
sg123
I00
sg124
Vhttp://pbs.twimg.com/profile_background_images/495429323365421056/Xb8Rcrkx.jpeg
p1071
sg126
VTheFunnyTeens
p1072
sg128
I6454
sg129
VSarcasm
p1073
sg131
V7AC3EE
p1074
sg133
Nsg135
I66339576
sg136
VF5ABB5
p1075
sbsg138
I7083
sg139
V<a href="https://about.twitter.com/products/tweetdeck" rel="nofollow">TweetDeck</a>
p1076
sg141
(lp1077
sg135
I538881446489128960
sbsg20
Nsg21
(lp1078
(dp1079
Vsource_user_id
p1080
I66339576
sVsource_status_id_str
p1081
V538881446489128960
p1082
sVexpanded_url
p1083
Vhttp://twitter.com/TheFunnyTeens/status/538881446489128960/photo/1
p1084
sVdisplay_url
p1085
Vpic.twitter.com/TaCJJ8i44Q
p1086
sVurl
p1087
Vhttp://t.co/TaCJJ8i44Q
p1088
sVmedia_url_https
p1089
Vhttps://pbs.twimg.com/media/B3p90RQCUAAO13I.jpg
p1090
sVsource_user_id_str
p1091
V66339576
p1092
sVsource_status_id
p1093
I538881446489128960
sVid_str
p1094
V538881442361528320
p1095
sVsizes
p1096
(dp1097
Vsmall
p1098
(dp1099
Vh
p1100
I604
sVresize
p1101
Vfit
p1102
sVw
p1103
I340
ssVlarge
p1104
(dp1105
Vh
p1106
I720
sVresize
p1107
Vfit
p1108
sVw
p1109
I405
ssVmedium
p1110
(dp1111
Vh
p1112
I720
sVresize
p1113
Vfit
p1114
sVw
p1115
I405
ssVthumb
p1116
(dp1117
Vh
p1118
I150
sVresize
p1119
Vcrop
p1120
sVw
p1121
I150
sssVindices
p1122
(lp1123
I71
aI93
asVtype
p1124
Vphoto
p1125
sVid
p1126
I538881442361528320
sVmedia_url
p1127
Vhttp://pbs.twimg.com/media/B3p90RQCUAAO13I.jpg
p1128
sasg67
Nsg68
Nsg69
Nsg70
VSat Dec 13 22:34:56 +0000 2014
p1129
sg72
Nsg73
I00
sg74
Nsg75
Nsg76
Nsg77
Nsg78
I00
sg79
Nsg80
(lp1130
g3
(g92
g5
Ntp1131
Rp1132
(dp1133
g10
Nsg97
Nsg99
Nsg101
Nsg103
Nsg104
Nsg70
Nsg106
Nsg107
Nsg109
Nsg111
Nsg112
Nsg113
Nsg114
Nsg115
Nsg116
Nsg118
Nsg119
Nsg120
Nsg122
Nsg123
Nsg124
Nsg126
VTheFunnyTeens
p1134
sg128
Nsg129
VSarcasm
p1135
sg131
Nsg133
Nsg135
I66339576
sg136
Nsbasg82
Nsg83
V543896881177165824
p1136
sg85
Nsg86
VRT @TheFunnyTeens: I always go to the register with the cutest cashier http://t.co/TaCJJ8i44Q
p1137
sg88
I00
sg89
Ven
p1138
sg91
g3
(g92
g5
Ntp1139
Rp1140
(dp1141
g10
g96
sg97
V333333
p1142
sg99
Ven
p1143
sg101
Nsg103
I822
sg104
I359
sg70
VSun Dec 07 00:18:30 +0000 2014
p1144
sg106
I00
sg107
VI'm a proud belieber
p1145
sg109
Vhttps://pbs.twimg.com/profile_images/542818127893905408/ISXBiCVa_normal.jpeg
p1146
sg111
I2004
sg112
I171
sg113
Nsg114
Nsg115
I00
sg116
Vhttps://pbs.twimg.com/profile_banners/2921048940/1418059484
p1147
sg118
I00
sg119
I00
sg120
V0084B4
p1148
sg122
I00
sg123
I00
sg124
Vhttp://abs.twimg.com/images/themes/theme1/bg.png
p1149
sg126
Vab099888fbe5484
p1150
sg128
I0
sg129
VHe stole my heart
p1151
sg131
VDDEEF6
p1152
sg133
Nsg135
I2921048940
sg136
VC0DEED
p1153
sbsg138
I7083
sg139
V<a href="http://twitter.com/download/android" rel="nofollow">Twitter for Android</a>
p1154
sg141
(lp1155
sg135
I543896881177165824
sbag3
(g4
g5
Ntp1156
Rp1157
(dp1158
g9
I0
sg10
Nsg11
Nsg12
(lp1159
sg14
I00
sg15
g3
(g4
g5
Ntp1160
Rp1161
(dp1162
g9
I4352
sg10
Nsg11
Nsg12
(lp1163
sg14
I00
sg15
Nsg20
Nsg21
(lp1164
sg67
Nsg68
Nsg69
Nsg70
VSun Nov 30 03:10:26 +0000 2014
p1165
sg72
Nsg73
Nsg74
Nsg75
Nsg76
Nsg77
Nsg78
I00
sg79
Nsg80
(lp1166
sg82
Nsg83
V538892785706090498
p1167
sg85
Nsg86
VKinda wish I was born a Kardashian so I wouldn't have to go to school and could just be rich and drive around in my G Wagon
p1168
sg88
I00
sg89
Ven
p1169
sg91
g3
(g92
g5
Ntp1170
Rp1171
(dp1172
g10
g96
sg97
V3D1957
p1173
sg99
Ven
p1174
sg101
VPacific Time (US & Canada)
p1175
sg103
I2914671
sg104
I61557
sg70
VMon Aug 17 12:11:14 +0000 2009
p1176
sg106
I00
sg107
VThat smells exotic.. Like Ranch dressing.. *Parody account* Contact: @SwoleScott
p1177
sg109
Vhttps://pbs.twimg.com/profile_images/537397946468159488/w4n3WMIz_normal.jpeg
p1178
sg111
I8454
sg112
I8029
sg113
I-28800
sg114
Nsg115
I00
sg116
Vhttps://pbs.twimg.com/profile_banners/66339576/1416962237
p1179
sg118
I00
sg119
I00
sg120
VF5ABB5
p1180
sg122
I00
sg123
I00
sg124
Vhttp://pbs.twimg.com/profile_background_images/495429323365421056/Xb8Rcrkx.jpeg
p1181
sg126
VTheFunnyTeens
p1182
sg128
I6454
sg129
VSarcasm
p1183
sg131
V7AC3EE
p1184
sg133
Nsg135
I66339576
sg136
VF5ABB5
p1185
sbsg138
I3066
sg139
V<a href="https://about.twitter.com/products/tweetdeck" rel="nofollow">TweetDeck</a>
p1186
sg141
(lp1187
sg135
I538892785706090498
sbsg20
Nsg21
(lp1188
sg67
Nsg68
Nsg69
Nsg70
VSat Dec 13 22:34:56 +0000 2014
p1189
sg72
Nsg73
Nsg74
Nsg75
Nsg76
Nsg77
Nsg78
I00
sg79
Nsg80
(lp1190
g3
(g92
g5
Ntp1191
Rp1192
(dp1193
g10
Nsg97
Nsg99
Nsg101
Nsg103
Nsg104
Nsg70
Nsg106
Nsg107
Nsg109
Nsg111
Nsg112
Nsg113
Nsg114
Nsg115
Nsg116
Nsg118
Nsg119
Nsg120
Nsg122
Nsg123
Nsg124
Nsg126
VTheFunnyTeens
p1194
sg128
Nsg129
VSarcasm
p1195
sg131
Nsg133
Nsg135
I66339576
sg136
Nsbasg82
Nsg83
V543896881168797696
p1196
sg85
Nsg86
VRT @TheFunnyTeens: Kinda wish I was born a Kardashian so I wouldn't have to go to school and could just be rich and drive around in my G Wa\u2026
p1197
sg88
I00
sg89
Ven
p1198
sg91
g3
(g92
g5
Ntp1199
Rp1200
(dp1201
g10
g96
sg97
V333333
p1202
sg99
Ven
p1203
sg101
Nsg103
I822
sg104
I359
sg70
VSun Dec 07 00:18:30 +0000 2014
p1204
sg106
I00
sg107
VI'm a proud belieber
p1205
sg109
Vhttps://pbs.twimg.com/profile_images/542818127893905408/ISXBiCVa_normal.jpeg
p1206
sg111
I2004
sg112
I171
sg113
Nsg114
Nsg115
I00
sg116
Vhttps://pbs.twimg.com/profile_banners/2921048940/1418059484
p1207
sg118
I00
sg119
I00
sg120
V0084B4
p1208
sg122
I00
sg123
I00
sg124
Vhttp://abs.twimg.com/images/themes/theme1/bg.png
p1209
sg126
Vab099888fbe5484
p1210
sg128
I0
sg129
VHe stole my heart
p1211
sg131
VDDEEF6
p1212
sg133
Nsg135
I2921048940
sg136
VC0DEED
p1213
sbsg138
I3066
sg139
V<a href="http://twitter.com/download/android" rel="nofollow">Twitter for Android</a>
p1214
sg141
(lp1215
sg135
I543896881168797696
sbag3
(g4
g5
Ntp1216
Rp1217
(dp1218
g9
I0
sg10
Nsg11
Nsg12
(lp1219
sg14
I00
sg15
g3
(g4
g5
Ntp1220
Rp1221
(dp1222
g9
I5482
sg10
Nsg11
Nsg12
(lp1223
sg14
I00
sg15
Nsg20
Nsg21
(lp1224
sg67
Nsg68
Nsg69
Nsg70
VSat Nov 29 00:50:58 +0000 2014
p1225
sg72
Nsg73
Nsg74
Nsg75
Nsg76
Nsg77
Nsg78
I00
sg79
Nsg80
(lp1226
sg82
Nsg83
V538495297400627200
p1227
sg85
Nsg86
Vbra off.\u000a\u000ahair up.\u000a\u000asweats on.
p1228
sg88
I00
sg89
Ven
p1229
sg91
g3
(g92
g5
Ntp1230
Rp1231
(dp1232
g10
g96
sg97
V3D1957
p1233
sg99
Ven
p1234
sg101
VPacific Time (US & Canada)
p1235
sg103
I2914671
sg104
I61557
sg70
VMon Aug 17 12:11:14 +0000 2009
p1236
sg106
I00
sg107
VThat smells exotic.. Like Ranch dressing.. *Parody account* Contact: @SwoleScott
p1237
sg109
Vhttps://pbs.twimg.com/profile_images/537397946468159488/w4n3WMIz_normal.jpeg
p1238
sg111
I8454
sg112
I8029
sg113
I-28800
sg114
Nsg115
I00
sg116
Vhttps://pbs.twimg.com/profile_banners/66339576/1416962237
p1239
sg118
I00
sg119
I00
sg120
VF5ABB5
p1240
sg122
I00
sg123
I00
sg124
Vhttp://pbs.twimg.com/profile_background_images/495429323365421056/Xb8Rcrkx.jpeg
p1241
sg126
VTheFunnyTeens
p1242
sg128
I6454
sg129
VSarcasm
p1243
sg131
V7AC3EE
p1244
sg133
Nsg135
I66339576
sg136
VF5ABB5
p1245
sbsg138
I3520
sg139
V<a href="https://about.twitter.com/products/tweetdeck" rel="nofollow">TweetDeck</a>
p1246
sg141
(lp1247
sg135
I538495297400627200
sbsg20
Nsg21
(lp1248
sg67
Nsg68
Nsg69
Nsg70
VSat Dec 13 22:34:54 +0000 2014
p1249
sg72
Nsg73
Nsg74
Nsg75
Nsg76
Nsg77
Nsg78
I00
sg79
Nsg80
(lp1250
g3
(g92
g5
Ntp1251
Rp1252
(dp1253
g10
Nsg97
Nsg99
Nsg101
Nsg103
Nsg104
Nsg70
Nsg106
Nsg107
Nsg109
Nsg111
Nsg112
Nsg113
Nsg114
Nsg115
Nsg116
Nsg118
Nsg119
Nsg120
Nsg122
Nsg123
Nsg124
Nsg126
VTheFunnyTeens
p1254
sg128
Nsg129
VSarcasm
p1255
sg131
Nsg133
Nsg135
I66339576
sg136
Nsbasg82
Nsg83
V543896874621489152
p1256
sg85
Nsg86
VRT @TheFunnyTeens: bra off.\u000a\u000ahair up.\u000a\u000asweats on.
p1257
sg88
I00
sg89
Ven
p1258
sg91
g3
(g92
g5
Ntp1259
Rp1260
(dp1261
g10
g96
sg97
V333333
p1262
sg99
Ven
p1263
sg101
Nsg103
I822
sg104
I359
sg70
VSun Dec 07 00:18:30 +0000 2014
p1264
sg106
I00
sg107
VI'm a proud belieber
p1265
sg109
Vhttps://pbs.twimg.com/profile_images/542818127893905408/ISXBiCVa_normal.jpeg
p1266
sg111
I2004
sg112
I171
sg113
Nsg114
Nsg115
I00
sg116
Vhttps://pbs.twimg.com/profile_banners/2921048940/1418059484
p1267
sg118
I00
sg119
I00
sg120
V0084B4
p1268
sg122
I00
sg123
I00
sg124
Vhttp://abs.twimg.com/images/themes/theme1/bg.png
p1269
sg126
Vab099888fbe5484
p1270
sg128
I0
sg129
VHe stole my heart
p1271
sg131
VDDEEF6
p1272
sg133
Nsg135
I2921048940
sg136
VC0DEED
p1273
sbsg138
I3520
sg139
V<a href="http://twitter.com/download/android" rel="nofollow">Twitter for Android</a>
p1274
sg141
(lp1275
sg135
I543896874621489152
sbag3
(g4
g5
Ntp1276
Rp1277
(dp1278
g9
I0
sg10
Nsg11
Nsg12
(lp1279
sg14
I00
sg15
g3
(g4
g5
Ntp1280
Rp1281
(dp1282
g9
I3629
sg10
Nsg11
Nsg12
(lp1283
sg14
I00
sg15
Nsg20
Nsg21
(lp1284
sg67
Nsg68
Nsg69
Nsg70
VSun Nov 30 19:23:33 +0000 2014
p1285
sg72
Nsg73
Nsg74
Nsg75
Nsg76
Nsg77
Nsg78
I00
sg79
Nsg80
(lp1286
sg82
Nsg83
V539137677854257153
p1287
sg85
Nsg86
Vteam \u201ci wore this yesterday but i\u2019m going to a different place so it doesn\u2019t matter\u201d
p1288
sg88
I00
sg89
Ven
p1289
sg91
g3
(g92
g5
Ntp1290
Rp1291
(dp1292
g10
g96
sg97
V3D1957
p1293
sg99
Ven
p1294
sg101
VPacific Time (US & Canada)
p1295
sg103
I2914671
sg104
I61557
sg70
VMon Aug 17 12:11:14 +0000 2009
p1296
sg106
I00
sg107
VThat smells exotic.. Like Ranch dressing.. *Parody account* Contact: @SwoleScott
p1297
sg109
Vhttps://pbs.twimg.com/profile_images/537397946468159488/w4n3WMIz_normal.jpeg
p1298
sg111
I8454
sg112
I8029
sg113
I-28800
sg114
Nsg115
I00
sg116
Vhttps://pbs.twimg.com/profile_banners/66339576/1416962237
p1299
sg118
I00
sg119
I00
sg120
VF5ABB5
p1300
sg122
I00
sg123
I00
sg124
Vhttp://pbs.twimg.com/profile_background_images/495429323365421056/Xb8Rcrkx.jpeg
p1301
sg126
VTheFunnyTeens
p1302
sg128
I6454
sg129
VSarcasm
p1303
sg131
V7AC3EE
p1304
sg133
Nsg135
I66339576
sg136
VF5ABB5
p1305
sbsg138
I2221
sg139
V<a href="https://about.twitter.com/products/tweetdeck" rel="nofollow">TweetDeck</a>
p1306
sg141
(lp1307
sg135
I539137677854257153
sbsg20
Nsg21
(lp1308
sg67
Nsg68
Nsg69
Nsg70
VSat Dec 13 22:34:54 +0000 2014
p1309
sg72
Nsg73
Nsg74
Nsg75
Nsg76
Nsg77
Nsg78
I00
sg79
Nsg80
(lp1310
g3
(g92
g5
Ntp1311
Rp1312
(dp1313
g10
Nsg97
Nsg99
Nsg101
Nsg103
Nsg104
Nsg70
Nsg106
Nsg107
Nsg109
Nsg111
Nsg112
Nsg113
Nsg114
Nsg115
Nsg116
Nsg118
Nsg119
Nsg120
Nsg122
Nsg123
Nsg124
Nsg126
VTheFunnyTeens
p1314
sg128
Nsg129
VSarcasm
p1315
sg131
Nsg133
Nsg135
I66339576
sg136
Nsbasg82
Nsg83
V543896874504044545
p1316
sg85
Nsg86
VRT @TheFunnyTeens: team \u201ci wore this yesterday but i\u2019m going to a different place so it doesn\u2019t matter\u201d
p1317
sg88
I00
sg89
Ven
p1318
sg91
g3
(g92
g5
Ntp1319
Rp1320
(dp1321
g10
g96
sg97
V333333
p1322
sg99
Ven
p1323
sg101
Nsg103
I822
sg104
I359
sg70
VSun Dec 07 00:18:30 +0000 2014
p1324
sg106
I00
sg107
VI'm a proud belieber
p1325
sg109
Vhttps://pbs.twimg.com/profile_images/542818127893905408/ISXBiCVa_normal.jpeg
p1326
sg111
I2004
sg112
I171
sg113
Nsg114
Nsg115
I00
sg116
Vhttps://pbs.twimg.com/profile_banners/2921048940/1418059484
p1327
sg118
I00
sg119
I00
sg120
V0084B4
p1328
sg122
I00
sg123
I00
sg124
Vhttp://abs.twimg.com/images/themes/theme1/bg.png
p1329
sg126
Vab099888fbe5484
p1330
sg128
I0
sg129
VHe stole my heart
p1331
sg131
VDDEEF6
p1332
sg133
Nsg135
I2921048940
sg136
VC0DEED
p1333
sbsg138
I2221
sg139
V<a href="http://twitter.com/download/android" rel="nofollow">Twitter for Android</a>
p1334
sg141
(lp1335
sg135
I543896874504044545
sbag3
(g4
g5
Ntp1336
Rp1337
(dp1338
g9
I0
sg10
Nsg11
Nsg12
(lp1339
sg14
I00
sg15
g3
(g4
g5
Ntp1340
Rp1341
(dp1342
g9
I10189
sg10
Nsg11
Nsg12
(lp1343
sg14
I00
sg15
Nsg20
Nsg21
(lp1344
sg67
Nsg68
Nsg69
Nsg70
VFri Nov 28 01:51:34 +0000 2014
p1345
sg72
Nsg73
Nsg74
Nsg75
Nsg76
Nsg77
Nsg78
I00
sg79
Nsg80
(lp1346
sg82
Nsg83
V538148159592341504
p1347
sg85
Nsg86
VBlack Friday through the years:\u000a\u000a2005: 5am\u000a2010: 3am\u000a2012: 12am\u000a2013: Thursday 8pm\u000a2014: Thursday\u000a2020: 4th of July
p1348
sg88
I00
sg89
Ven
p1349
sg91
g3
(g92
g5
Ntp1350
Rp1351
(dp1352
g10
g96
sg97
V3D1957
p1353
sg99
Ven
p1354
sg101
VPacific Time (US & Canada)
p1355
sg103
I2914671
sg104
I61557
sg70
VMon Aug 17 12:11:14 +0000 2009
p1356
sg106
I00
sg107
VThat smells exotic.. Like Ranch dressing.. *Parody account* Contact: @SwoleScott
p1357
sg109
Vhttps://pbs.twimg.com/profile_images/537397946468159488/w4n3WMIz_normal.jpeg
p1358
sg111
I8454
sg112
I8029
sg113
I-28800
sg114
Nsg115
I00
sg116
Vhttps://pbs.twimg.com/profile_banners/66339576/1416962237
p1359
sg118
I00
sg119
I00
sg120
VF5ABB5
p1360
sg122
I00
sg123
I00
sg124
Vhttp://pbs.twimg.com/profile_background_images/495429323365421056/Xb8Rcrkx.jpeg
p1361
sg126
VTheFunnyTeens
p1362
sg128
I6454
sg129
VSarcasm
p1363
sg131
V7AC3EE
p1364
sg133
Nsg135
I66339576
sg136
VF5ABB5
p1365
sbsg138
I6873
sg139
V<a href="https://about.twitter.com/products/tweetdeck" rel="nofollow">TweetDeck</a>
p1366
sg141
(lp1367
sg135
I538148159592341504
sbsg20
Nsg21
(lp1368
sg67
Nsg68
Nsg69
Nsg70
VSat Dec 13 22:34:54 +0000 2014
p1369
sg72
Nsg73
Nsg74
Nsg75
Nsg76
Nsg77
Nsg78
I00
sg79
Nsg80
(lp1370
g3
(g92
g5
Ntp1371
Rp1372
(dp1373
g10
Nsg97
Nsg99
Nsg101
Nsg103
Nsg104
Nsg70
Nsg106
Nsg107
Nsg109
Nsg111
Nsg112
Nsg113
Nsg114
Nsg115
Nsg116
Nsg118
Nsg119
Nsg120
Nsg122
Nsg123
Nsg124
Nsg126
VTheFunnyTeens
p1374
sg128
Nsg129
VSarcasm
p1375
sg131
Nsg133
Nsg135
I66339576
sg136
Nsbasg82
Nsg83
V543896874411761664
p1376
sg85
Nsg86
VRT @TheFunnyTeens: Black Friday through the years:\u000a\u000a2005: 5am\u000a2010: 3am\u000a2012: 12am\u000a2013: Thursday 8pm\u000a2014: Thursday\u000a2020: 4th of July
p1377
sg88
I00
sg89
Ven
p1378
sg91
g3
(g92
g5
Ntp1379
Rp1380
(dp1381
g10
g96
sg97
V333333
p1382
sg99
Ven
p1383
sg101
Nsg103
I822
sg104
I359
sg70
VSun Dec 07 00:18:30 +0000 2014
p1384
sg106
I00
sg107
VI'm a proud belieber
p1385
sg109
Vhttps://pbs.twimg.com/profile_images/542818127893905408/ISXBiCVa_normal.jpeg
p1386
sg111
I2004
sg112
I171
sg113
Nsg114
Nsg115
I00
sg116
Vhttps://pbs.twimg.com/profile_banners/2921048940/1418059484
p1387
sg118
I00
sg119
I00
sg120
V0084B4
p1388
sg122
I00
sg123
I00
sg124
Vhttp://abs.twimg.com/images/themes/theme1/bg.png
p1389
sg126
Vab099888fbe5484
p1390
sg128
I0
sg129
VHe stole my heart
p1391
sg131
VDDEEF6
p1392
sg133
Nsg135
I2921048940
sg136
VC0DEED
p1393
sbsg138
I6873
sg139
V<a href="http://twitter.com/download/android" rel="nofollow">Twitter for Android</a>
p1394
sg141
(lp1395
sg135
I543896874411761664
sbag3
(g4
g5
Ntp1396
Rp1397
(dp1398
g9
I0
sg10
Nsg11
Nsg12
(lp1399
sg14
I00
sg15
g3
(g4
g5
Ntp1400
Rp1401
(dp1402
g9
I3807
sg10
Nsg11
Nsg12
(lp1403
sg14
I00
sg15
Nsg20
Nsg21
(lp1404
sg67
Nsg68
Nsg69
Nsg70
VTue Dec 02 22:08:55 +0000 2014
p1405
sg72
Nsg73
Nsg74
Nsg75
Nsg76
Nsg77
Nsg78
I00
sg79
Nsg80
(lp1406
sg82
Nsg83
V539904069910147073
p1407
sg85
Nsg86
VI don't mean to interrupt people I just randomly remember things and get really excited I\u2019m sorry
p1408
sg88
I00
sg89
Ven
p1409
sg91
g3
(g92
g5
Ntp1410
Rp1411
(dp1412
g10
g96
sg97
V3D1957
p1413
sg99
Ven
p1414
sg101
VPacific Time (US & Canada)
p1415
sg103
I2914671
sg104
I61557
sg70
VMon Aug 17 12:11:14 +0000 2009
p1416
sg106
I00
sg107
VThat smells exotic.. Like Ranch dressing.. *Parody account* Contact: @SwoleScott
p1417
sg109
Vhttps://pbs.twimg.com/profile_images/537397946468159488/w4n3WMIz_normal.jpeg
p1418
sg111
I8454
sg112
I8029
sg113
I-28800
sg114
Nsg115
I00
sg116
Vhttps://pbs.twimg.com/profile_banners/66339576/1416962237
p1419
sg118
I00
sg119
I00
sg120
VF5ABB5
p1420
sg122
I00
sg123
I00
sg124
Vhttp://pbs.twimg.com/profile_background_images/495429323365421056/Xb8Rcrkx.jpeg
p1421
sg126
VTheFunnyTeens
p1422
sg128
I6454
sg129
VSarcasm
p1423
sg131
V7AC3EE
p1424
sg133
Nsg135
I66339576
sg136
VF5ABB5
p1425
sbsg138
I3540
sg139
V<a href="https://about.twitter.com/products/tweetdeck" rel="nofollow">TweetDeck</a>
p1426
sg141
(lp1427
sg135
I539904069910147073
sbsg20
Nsg21
(lp1428
sg67
Nsg68
Nsg69
Nsg70
VSat Dec 13 22:22:16 +0000 2014
p1429
sg72
Nsg73
Nsg74
Nsg75
Nsg76
Nsg77
Nsg78
I00
sg79
Nsg80
(lp1430
g3
(g92
g5
Ntp1431
Rp1432
(dp1433
g10
Nsg97
Nsg99
Nsg101
Nsg103
Nsg104
Nsg70
Nsg106
Nsg107
Nsg109
Nsg111
Nsg112
Nsg113
Nsg114
Nsg115
Nsg116
Nsg118
Nsg119
Nsg120
Nsg122
Nsg123
Nsg124
Nsg126
VTheFunnyTeens
p1434
sg128
Nsg129
VSarcasm
p1435
sg131
Nsg133
Nsg135
I66339576
sg136
Nsbasg82
Nsg83
V543893694370177026
p1436
sg85
Nsg86
VRT @TheFunnyTeens: I don't mean to interrupt people I just randomly remember things and get really excited I\u2019m sorry
p1437
sg88
I00
sg89
Ven
p1438
sg91
g3
(g92
g5
Ntp1439
Rp1440
(dp1441
g10
g96
sg97
V333333
p1442
sg99
Ven
p1443
sg101
Nsg103
I822
sg104
I359
sg70
VSun Dec 07 00:18:30 +0000 2014
p1444
sg106
I00
sg107
VI'm a proud belieber
p1445
sg109
Vhttps://pbs.twimg.com/profile_images/542818127893905408/ISXBiCVa_normal.jpeg
p1446
sg111
I2004
sg112
I171
sg113
Nsg114
Nsg115
I00
sg116
Vhttps://pbs.twimg.com/profile_banners/2921048940/1418059484
p1447
sg118
I00
sg119
I00
sg120
V0084B4
p1448
sg122
I00
sg123
I00
sg124
Vhttp://abs.twimg.com/images/themes/theme1/bg.png
p1449
sg126
Vab099888fbe5484
p1450
sg128
I0
sg129
VHe stole my heart
p1451
sg131
VDDEEF6
p1452
sg133
Nsg135
I2921048940
sg136
VC0DEED
p1453
sbsg138
I3540
sg139
V<a href="http://twitter.com/download/android" rel="nofollow">Twitter for Android</a>
p1454
sg141
(lp1455
sg135
I543893694370177026
sbaa.