(lp0
S'LincolnFairOaks'
p1
a(lp2
ccopy_reg
_reconstructor
p3
(ctwitter.status
Status
p4
c__builtin__
object
p5
Ntp6
Rp7
(dp8
S'_favorite_count'
p9
I0
sS'_location'
p10
NsS'_withheld_scope'
p11
NsS'hashtags'
p12
(lp13
sS'_truncated'
p14
I00
sS'_retweeted_status'
p15
NsS'_withheld_copyright'
p16
NsS'media'
p17
(lp18
sS'_place'
p19
NsS'_contributors'
p20
NsS'_current_user_retweet'
p21
NsS'_created_at'
p22
VSun Dec 14 17:01:12 +0000 2014
p23
sS'_scopes'
p24
NsS'_possibly_sensitive'
p25
I00
sS'_in_reply_to_screen_name'
p26
NsS'_coordinates'
p27
NsS'_in_reply_to_user_id'
p28
NsS'_geo'
p29
NsS'_favorited'
p30
I00
sS'_withheld_in_countries'
p31
NsS'user_mentions'
p32
(lp33
sS'_now'
p34
NsS'_id_str'
p35
NsS'_in_reply_to_status_id'
p36
NsS'_text'
p37
VThe City of Fairfax Band Association &amp; Fairfax Choral Society are putting on Christmas in Fairfax. Dec. 20th.... http://t.co/tEctWv7MHD
p38
sS'_retweeted'
p39
I00
sS'lang'
p40
Ven
p41
sS'_user'
p42
g3
(ctwitter.user
User
p43
g5
Ntp44
Rp45
(dp46
g10
VFairfax, VA
p47
sS'_profile_text_color'
p48
V333333
p49
sS'_lang'
p50
Ven
p51
sS'_time_zone'
p52
VEastern Time (US & Canada)
p53
sS'_followers_count'
p54
I57
sS'_statuses_count'
p55
I1523
sg22
VWed Sep 30 19:16:14 +0000 2009
p56
sS'_verified'
p57
I00
sS'_description'
p58
VSearching for an apartment? Come to Lincoln at Fair Oaks and enjoy the best apartments in Fairfax, VA. Call to schedule a tour today: 877-794-7557
p59
sS'_profile_image_url'
p60
Vhttps://pbs.twimg.com/profile_images/378800000797553869/35787be4f391807063b0bda0fe7bd83f_normal.png
p61
sS'_friends_count'
p62
I18
sS'_favourites_count'
p63
I0
sS'_utc_offset'
p64
I-18000
sS'_status'
p65
NsS'_protected'
p66
I00
sS'_profile_banner_url'
p67
NsS'_notifications'
p68
I00
sS'_profile_background_tile'
p69
I00
sS'_profile_link_color'
p70
V9D582E
p71
sS'_geo_enabled'
p72
I00
sS'_contributors_enabled'
p73
I00
sS'_profile_background_image_url'
p74
Vhttp://abs.twimg.com/images/themes/theme8/bg.gif
p75
sS'_screen_name'
p76
VLincolnFairOaks
p77
sS'_listed_count'
p78
I0
sS'_name'
p79
VLincoln at Fair Oaks
p80
sS'_profile_sidebar_fill_color'
p81
VEADEAA
p82
sS'_url'
p83
Vhttp://t.co/4CKDqL5l
p84
sS'_id'
p85
I78684765
sS'_profile_background_color'
p86
V8B542B
p87
sbsS'_retweet_count'
p88
I0
sS'_source'
p89
V<a href="http://www.facebook.com/twitter" rel="nofollow">Facebook</a>
p90
sS'urls'
p91
(lp92
g3
(ctwitter.url
Url
p93
g5
Ntp94
Rp95
(dp96
S'url'
p97
Vhttp://t.co/tEctWv7MHD
p98
sS'expanded_url'
p99
Vhttp://fb.me/6YtMxQMKJ
p100
sbasg85
I544175285352931328
sbag3
(g4
g5
Ntp101
Rp102
(dp103
g9
I0
sg10
Nsg11
Nsg12
(lp104
sg14
I00
sg15
Nsg16
Nsg17
(lp105
sg19
Nsg20
Nsg21
Nsg22
VFri Dec 12 15:09:18 +0000 2014
p106
sg24
Nsg25
I00
sg26
Nsg27
Nsg28
Nsg29
Nsg30
I00
sg31
Nsg32
(lp107
sg34
Nsg35
Nsg36
Nsg37
VSnowflake is warm and cozy by the fire...follow us at @lincolnatfairoaks to see where she pops up tomorrow.... http://t.co/JgVd5n5hJT
p108
sg39
I00
sg40
Ven
p109
sg42
g3
(g43
g5
Ntp110
Rp111
(dp112
g10
VFairfax, VA
p113
sg48
V333333
p114
sg50
Ven
p115
sg52
VEastern Time (US & Canada)
p116
sg54
I57
sg55
I1523
sg22
VWed Sep 30 19:16:14 +0000 2009
p117
sg57
I00
sg58
VSearching for an apartment? Come to Lincoln at Fair Oaks and enjoy the best apartments in Fairfax, VA. Call to schedule a tour today: 877-794-7557
p118
sg60
Vhttps://pbs.twimg.com/profile_images/378800000797553869/35787be4f391807063b0bda0fe7bd83f_normal.png
p119
sg62
I18
sg63
I0
sg64
I-18000
sg65
Nsg66
I00
sg67
Nsg68
I00
sg69
I00
sg70
V9D582E
p120
sg72
I00
sg73
I00
sg74
Vhttp://abs.twimg.com/images/themes/theme8/bg.gif
p121
sg76
VLincolnFairOaks
p122
sg78
I0
sg79
VLincoln at Fair Oaks
p123
sg81
VEADEAA
p124
sg83
Vhttp://t.co/4CKDqL5l
p125
sg85
I78684765
sg86
V8B542B
p126
sbsg88
I0
sg89
V<a href="http://www.facebook.com/twitter" rel="nofollow">Facebook</a>
p127
sg91
(lp128
g3
(g93
g5
Ntp129
Rp130
(dp131
g97
Vhttp://t.co/JgVd5n5hJT
p132
sg99
Vhttp://fb.me/46tJadt5V
p133
sbasg85
I543422348167102466
sbag3
(g4
g5
Ntp134
Rp135
(dp136
g9
I0
sg10
Nsg11
Nsg12
(lp137
sg14
I00
sg15
Nsg16
Nsg17
(lp138
sg19
Nsg20
Nsg21
Nsg22
VFri Dec 12 15:03:48 +0000 2014
p139
sg24
Nsg25
I00
sg26
Nsg27
Nsg28
Nsg29
Nsg30
I00
sg31
Nsg32
(lp140
g3
(g43
g5
Ntp141
Rp142
(dp143
g10
Nsg48
Nsg50
Nsg52
Nsg54
Nsg55
Nsg22
Nsg57
Nsg58
Nsg60
Nsg62
Nsg63
Nsg64
Nsg65
Nsg66
Nsg67
Nsg68
Nsg69
Nsg70
Nsg72
Nsg73
Nsg74
Nsg76
VLincolnFairOaks
p144
sg78
Nsg79
VLincoln at Fair Oaks
p145
sg81
Nsg83
Nsg85
I78684765
sg86
Nsbasg34
Nsg35
Nsg36
Nsg37
VSnowflake is cozy and warm by the fire...follow us @lincolnfairoaks to see where she is tomorrow.\u2026 http://t.co/p3lt1ztEaU
p146
sg39
I00
sg40
Ven
p147
sg42
g3
(g43
g5
Ntp148
Rp149
(dp150
g10
VFairfax, VA
p151
sg48
V333333
p152
sg50
Ven
p153
sg52
VEastern Time (US & Canada)
p154
sg54
I57
sg55
I1523
sg22
VWed Sep 30 19:16:14 +0000 2009
p155
sg57
I00
sg58
VSearching for an apartment? Come to Lincoln at Fair Oaks and enjoy the best apartments in Fairfax, VA. Call to schedule a tour today: 877-794-7557
p156
sg60
Vhttps://pbs.twimg.com/profile_images/378800000797553869/35787be4f391807063b0bda0fe7bd83f_normal.png
p157
sg62
I18
sg63
I0
sg64
I-18000
sg65
Nsg66
I00
sg67
Nsg68
I00
sg69
I00
sg70
V9D582E
p158
sg72
I00
sg73
I00
sg74
Vhttp://abs.twimg.com/images/themes/theme8/bg.gif
p159
sg76
VLincolnFairOaks
p160
sg78
I0
sg79
VLincoln at Fair Oaks
p161
sg81
VEADEAA
p162
sg83
Vhttp://t.co/4CKDqL5l
p163
sg85
I78684765
sg86
V8B542B
p164
sbsg88
I0
sg89
V<a href="http://instagram.com" rel="nofollow">Instagram</a>
p165
sg91
(lp166
g3
(g93
g5
Ntp167
Rp168
(dp169
g97
Vhttp://t.co/p3lt1ztEaU
p170
sg99
Vhttp://instagram.com/p/wgtG9Xhn_j/
p171
sbasg85
I543420964667920385
sbag3
(g4
g5
Ntp172
Rp173
(dp174
g9
I0
sg10
Nsg11
Nsg12
(lp175
sg14
I00
sg15
Nsg16
Nsg17
(lp176
sg19
Nsg20
Nsg21
Nsg22
VThu Dec 11 15:40:19 +0000 2014
p177
sg24
Nsg25
I00
sg26
Nsg27
Nsg28
Nsg29
Nsg30
I00
sg31
Nsg32
(lp178
sg34
Nsg35
Nsg36
Nsg37
VAre you looking for some festive &amp; creative cookies to make for our Great Cookie Exchange next Wednesday?  Here... http://t.co/qF1yxcO4Vo
p179
sg39
I00
sg40
Ven
p180
sg42
g3
(g43
g5
Ntp181
Rp182
(dp183
g10
VFairfax, VA
p184
sg48
V333333
p185
sg50
Ven
p186
sg52
VEastern Time (US & Canada)
p187
sg54
I57
sg55
I1523
sg22
VWed Sep 30 19:16:14 +0000 2009
p188
sg57
I00
sg58
VSearching for an apartment? Come to Lincoln at Fair Oaks and enjoy the best apartments in Fairfax, VA. Call to schedule a tour today: 877-794-7557
p189
sg60
Vhttps://pbs.twimg.com/profile_images/378800000797553869/35787be4f391807063b0bda0fe7bd83f_normal.png
p190
sg62
I18
sg63
I0
sg64
I-18000
sg65
Nsg66
I00
sg67
Nsg68
I00
sg69
I00
sg70
V9D582E
p191
sg72
I00
sg73
I00
sg74
Vhttp://abs.twimg.com/images/themes/theme8/bg.gif
p192
sg76
VLincolnFairOaks
p193
sg78
I0
sg79
VLincoln at Fair Oaks
p194
sg81
VEADEAA
p195
sg83
Vhttp://t.co/4CKDqL5l
p196
sg85
I78684765
sg86
V8B542B
p197
sbsg88
I0
sg89
V<a href="http://www.facebook.com/twitter" rel="nofollow">Facebook</a>
p198
sg91
(lp199
g3
(g93
g5
Ntp200
Rp201
(dp202
g97
Vhttp://t.co/qF1yxcO4Vo
p203
sg99
Vhttp://fb.me/34wML62xL
p204
sbasg85
I543067763271827456
sbag3
(g4
g5
Ntp205
Rp206
(dp207
g9
I0
sg10
Nsg11
Nsg12
(lp208
sg14
I00
sg15
Nsg16
Nsg17
(lp209
sg19
Nsg20
Nsg21
Nsg22
VWed Dec 10 17:01:03 +0000 2014
p210
sg24
Nsg25
I00
sg26
Nsg27
Nsg28
Nsg29
Nsg30
I00
sg31
Nsg32
(lp211
sg34
Nsg35
Nsg36
Nsg37
VSupport your Fairfax volunteer firefighters by playing Bingo Friday nights at Fire Station 3! Click here for more... http://t.co/EtJVEIUAyj
p212
sg39
I00
sg40
Ven
p213
sg42
g3
(g43
g5
Ntp214
Rp215
(dp216
g10
VFairfax, VA
p217
sg48
V333333
p218
sg50
Ven
p219
sg52
VEastern Time (US & Canada)
p220
sg54
I57
sg55
I1523
sg22
VWed Sep 30 19:16:14 +0000 2009
p221
sg57
I00
sg58
VSearching for an apartment? Come to Lincoln at Fair Oaks and enjoy the best apartments in Fairfax, VA. Call to schedule a tour today: 877-794-7557
p222
sg60
Vhttps://pbs.twimg.com/profile_images/378800000797553869/35787be4f391807063b0bda0fe7bd83f_normal.png
p223
sg62
I18
sg63
I0
sg64
I-18000
sg65
Nsg66
I00
sg67
Nsg68
I00
sg69
I00
sg70
V9D582E
p224
sg72
I00
sg73
I00
sg74
Vhttp://abs.twimg.com/images/themes/theme8/bg.gif
p225
sg76
VLincolnFairOaks
p226
sg78
I0
sg79
VLincoln at Fair Oaks
p227
sg81
VEADEAA
p228
sg83
Vhttp://t.co/4CKDqL5l
p229
sg85
I78684765
sg86
V8B542B
p230
sbsg88
I0
sg89
V<a href="http://www.facebook.com/twitter" rel="nofollow">Facebook</a>
p231
sg91
(lp232
g3
(g93
g5
Ntp233
Rp234
(dp235
g97
Vhttp://t.co/EtJVEIUAyj
p236
sg99
Vhttp://fb.me/3jEFOfA1I
p237
sbasg85
I542725693692727296
sbag3
(g4
g5
Ntp238
Rp239
(dp240
g9
I0
sg10
Nsg11
Nsg12
(lp241
sg14
I00
sg15
Nsg16
Nsg17
(lp242
sg19
Nsg20
Nsg21
Nsg22
VWed Dec 10 14:45:27 +0000 2014
p243
sg24
Nsg25
I00
sg26
Nsg27
Nsg28
Nsg29
Nsg30
I00
sg31
Nsg32
(lp244
sg34
Nsg35
Nsg36
Nsg37
V3 Fun Games to Play With Your Dog http://t.co/Qe6yCSCp8U
p245
sg39
I00
sg40
Ven
p246
sg42
g3
(g43
g5
Ntp247
Rp248
(dp249
g10
VFairfax, VA
p250
sg48
V333333
p251
sg50
Ven
p252
sg52
VEastern Time (US & Canada)
p253
sg54
I57
sg55
I1523
sg22
VWed Sep 30 19:16:14 +0000 2009
p254
sg57
I00
sg58
VSearching for an apartment? Come to Lincoln at Fair Oaks and enjoy the best apartments in Fairfax, VA. Call to schedule a tour today: 877-794-7557
p255
sg60
Vhttps://pbs.twimg.com/profile_images/378800000797553869/35787be4f391807063b0bda0fe7bd83f_normal.png
p256
sg62
I18
sg63
I0
sg64
I-18000
sg65
Nsg66
I00
sg67
Nsg68
I00
sg69
I00
sg70
V9D582E
p257
sg72
I00
sg73
I00
sg74
Vhttp://abs.twimg.com/images/themes/theme8/bg.gif
p258
sg76
VLincolnFairOaks
p259
sg78
I0
sg79
VLincoln at Fair Oaks
p260
sg81
VEADEAA
p261
sg83
Vhttp://t.co/4CKDqL5l
p262
sg85
I78684765
sg86
V8B542B
p263
sbsg88
I0
sg89
V<a href="http://www.facebook.com/twitter" rel="nofollow">Facebook</a>
p264
sg91
(lp265
g3
(g93
g5
Ntp266
Rp267
(dp268
g97
Vhttp://t.co/Qe6yCSCp8U
p269
sg99
Vhttp://fb.me/1znqkmu1r
p270
sbasg85
I542691570945118208
sbag3
(g4
g5
Ntp271
Rp272
(dp273
g9
I0
sg10
Nsg11
Nsg12
(lp274
sg14
I00
sg15
Nsg16
Nsg17
(lp275
sg19
Nsg20
Nsg21
Nsg22
VWed Dec 10 14:10:17 +0000 2014
p276
sg24
Nsg25
I00
sg26
Nsg27
Nsg28
Nsg29
Nsg30
I00
sg31
Nsg32
(lp277
sg34
Nsg35
Nsg36
Nsg37
Vhttp://t.co/J9T5lrflkj http://t.co/6ntGKJDTK0
p278
sg39
I00
sg40
Vund
p279
sg42
g3
(g43
g5
Ntp280
Rp281
(dp282
g10
VFairfax, VA
p283
sg48
V333333
p284
sg50
Ven
p285
sg52
VEastern Time (US & Canada)
p286
sg54
I57
sg55
I1523
sg22
VWed Sep 30 19:16:14 +0000 2009
p287
sg57
I00
sg58
VSearching for an apartment? Come to Lincoln at Fair Oaks and enjoy the best apartments in Fairfax, VA. Call to schedule a tour today: 877-794-7557
p288
sg60
Vhttps://pbs.twimg.com/profile_images/378800000797553869/35787be4f391807063b0bda0fe7bd83f_normal.png
p289
sg62
I18
sg63
I0
sg64
I-18000
sg65
Nsg66
I00
sg67
Nsg68
I00
sg69
I00
sg70
V9D582E
p290
sg72
I00
sg73
I00
sg74
Vhttp://abs.twimg.com/images/themes/theme8/bg.gif
p291
sg76
VLincolnFairOaks
p292
sg78
I0
sg79
VLincoln at Fair Oaks
p293
sg81
VEADEAA
p294
sg83
Vhttp://t.co/4CKDqL5l
p295
sg85
I78684765
sg86
V8B542B
p296
sbsg88
I0
sg89
V<a href="http://www.facebook.com/twitter" rel="nofollow">Facebook</a>
p297
sg91
(lp298
g3
(g93
g5
Ntp299
Rp300
(dp301
g97
Vhttp://t.co/J9T5lrflkj
p302
sg99
Vhttp://www.today.com/food/christmas-cocktails-more-hot-holiday-drink-ideas-1D80349122?cid=sm_fbn
p303
sbag3
(g93
g5
Ntp304
Rp305
(dp306
g97
Vhttp://t.co/6ntGKJDTK0
p307
sg99
Vhttp://fb.me/2Gs3AdJN5
p308
sbasg85
I542682721282433024
sbag3
(g4
g5
Ntp309
Rp310
(dp311
g9
I0
sg10
Nsg11
Nsg12
(lp312
sg14
I00
sg15
Nsg16
Nsg17
(lp313
sg19
Nsg20
Nsg21
Nsg22
VTue Dec 09 19:03:25 +0000 2014
p314
sg24
Nsg25
I00
sg26
Nsg27
Nsg28
Nsg29
Nsg30
I00
sg31
Nsg32
(lp315
sg34
Nsg35
Nsg36
Nsg37
VI posted a new photo to Facebook http://t.co/jQFz4pxzID
p316
sg39
I00
sg40
Ven
p317
sg42
g3
(g43
g5
Ntp318
Rp319
(dp320
g10
VFairfax, VA
p321
sg48
V333333
p322
sg50
Ven
p323
sg52
VEastern Time (US & Canada)
p324
sg54
I57
sg55
I1523
sg22
VWed Sep 30 19:16:14 +0000 2009
p325
sg57
I00
sg58
VSearching for an apartment? Come to Lincoln at Fair Oaks and enjoy the best apartments in Fairfax, VA. Call to schedule a tour today: 877-794-7557
p326
sg60
Vhttps://pbs.twimg.com/profile_images/378800000797553869/35787be4f391807063b0bda0fe7bd83f_normal.png
p327
sg62
I18
sg63
I0
sg64
I-18000
sg65
Nsg66
I00
sg67
Nsg68
I00
sg69
I00
sg70
V9D582E
p328
sg72
I00
sg73
I00
sg74
Vhttp://abs.twimg.com/images/themes/theme8/bg.gif
p329
sg76
VLincolnFairOaks
p330
sg78
I0
sg79
VLincoln at Fair Oaks
p331
sg81
VEADEAA
p332
sg83
Vhttp://t.co/4CKDqL5l
p333
sg85
I78684765
sg86
V8B542B
p334
sbsg88
I0
sg89
V<a href="http://www.facebook.com/twitter" rel="nofollow">Facebook</a>
p335
sg91
(lp336
g3
(g93
g5
Ntp337
Rp338
(dp339
g97
Vhttp://t.co/jQFz4pxzID
p340
sg99
Vhttp://fb.me/36Ct3UkbB
p341
sbasg85
I542394099824099328
sbag3
(g4
g5
Ntp342
Rp343
(dp344
g9
I0
sg10
Nsg11
Nsg12
(lp345
sg14
I00
sg15
Nsg16
Nsg17
(lp346
sg19
Nsg20
Nsg21
Nsg22
VMon Dec 08 22:03:01 +0000 2014
p347
sg24
Nsg25
I00
sg26
Nsg27
Nsg28
Nsg29
Nsg30
I00
sg31
Nsg32
(lp348
sg34
Nsg35
Nsg36
Nsg37
VWill you be attending our Great Cookie Exchange?  If not...You Should!  \u000aDecember 17th 6-8pm, bring your best... http://t.co/yp2wwV16ic
p349
sg39
I00
sg40
Ven
p350
sg42
g3
(g43
g5
Ntp351
Rp352
(dp353
g10
VFairfax, VA
p354
sg48
V333333
p355
sg50
Ven
p356
sg52
VEastern Time (US & Canada)
p357
sg54
I57
sg55
I1523
sg22
VWed Sep 30 19:16:14 +0000 2009
p358
sg57
I00
sg58
VSearching for an apartment? Come to Lincoln at Fair Oaks and enjoy the best apartments in Fairfax, VA. Call to schedule a tour today: 877-794-7557
p359
sg60
Vhttps://pbs.twimg.com/profile_images/378800000797553869/35787be4f391807063b0bda0fe7bd83f_normal.png
p360
sg62
I18
sg63
I0
sg64
I-18000
sg65
Nsg66
I00
sg67
Nsg68
I00
sg69
I00
sg70
V9D582E
p361
sg72
I00
sg73
I00
sg74
Vhttp://abs.twimg.com/images/themes/theme8/bg.gif
p362
sg76
VLincolnFairOaks
p363
sg78
I0
sg79
VLincoln at Fair Oaks
p364
sg81
VEADEAA
p365
sg83
Vhttp://t.co/4CKDqL5l
p366
sg85
I78684765
sg86
V8B542B
p367
sbsg88
I0
sg89
V<a href="http://www.facebook.com/twitter" rel="nofollow">Facebook</a>
p368
sg91
(lp369
g3
(g93
g5
Ntp370
Rp371
(dp372
g97
Vhttp://t.co/yp2wwV16ic
p373
sg99
Vhttp://fb.me/6WXfsMord
p374
sbasg85
I542076911317692416
sbag3
(g4
g5
Ntp375
Rp376
(dp377
g9
I0
sg10
Nsg11
Nsg12
(lp378
sg14
I00
sg15
Nsg16
Nsg17
(lp379
sg19
Nsg20
Nsg21
Nsg22
VSat Dec 06 19:57:22 +0000 2014
p380
sg24
Nsg25
I00
sg26
Nsg27
Nsg28
Nsg29
Nsg30
I00
sg31
Nsg32
(lp381
sg34
Nsg35
Nsg36
Nsg37
VI posted 11 photos on Facebook in the album "Holiday Brunch 2014" http://t.co/d0BQ6aVAX0
p382
sg39
I00
sg40
Ven
p383
sg42
g3
(g43
g5
Ntp384
Rp385
(dp386
g10
VFairfax, VA
p387
sg48
V333333
p388
sg50
Ven
p389
sg52
VEastern Time (US & Canada)
p390
sg54
I57
sg55
I1523
sg22
VWed Sep 30 19:16:14 +0000 2009
p391
sg57
I00
sg58
VSearching for an apartment? Come to Lincoln at Fair Oaks and enjoy the best apartments in Fairfax, VA. Call to schedule a tour today: 877-794-7557
p392
sg60
Vhttps://pbs.twimg.com/profile_images/378800000797553869/35787be4f391807063b0bda0fe7bd83f_normal.png
p393
sg62
I18
sg63
I0
sg64
I-18000
sg65
Nsg66
I00
sg67
Nsg68
I00
sg69
I00
sg70
V9D582E
p394
sg72
I00
sg73
I00
sg74
Vhttp://abs.twimg.com/images/themes/theme8/bg.gif
p395
sg76
VLincolnFairOaks
p396
sg78
I0
sg79
VLincoln at Fair Oaks
p397
sg81
VEADEAA
p398
sg83
Vhttp://t.co/4CKDqL5l
p399
sg85
I78684765
sg86
V8B542B
p400
sbsg88
I0
sg89
V<a href="http://www.facebook.com/twitter" rel="nofollow">Facebook</a>
p401
sg91
(lp402
g3
(g93
g5
Ntp403
Rp404
(dp405
g97
Vhttp://t.co/d0BQ6aVAX0
p406
sg99
Vhttp://fb.me/1smHjvsJq
p407
sbasg85
I541320515269705728
sbag3
(g4
g5
Ntp408
Rp409
(dp410
g9
I0
sg10
Nsg11
Nsg12
(lp411
sg14
I00
sg15
Nsg16
Nsg17
(lp412
sg19
Nsg20
Nsg21
Nsg22
VSat Dec 06 19:06:01 +0000 2014
p413
sg24
Nsg25
I00
sg26
Nsg27
Nsg28
Nsg29
Nsg30
I00
sg31
Nsg32
(lp414
sg34
Nsg35
Nsg36
Nsg37
VDecember is full of festivities here at LFO!  Next up...Cookie Exchange w/gift wrapping station!\u000a\u000aJoin us... http://t.co/DGgG5AAJI6
p415
sg39
I00
sg40
Ven
p416
sg42
g3
(g43
g5
Ntp417
Rp418
(dp419
g10
VFairfax, VA
p420
sg48
V333333
p421
sg50
Ven
p422
sg52
VEastern Time (US & Canada)
p423
sg54
I57
sg55
I1523
sg22
VWed Sep 30 19:16:14 +0000 2009
p424
sg57
I00
sg58
VSearching for an apartment? Come to Lincoln at Fair Oaks and enjoy the best apartments in Fairfax, VA. Call to schedule a tour today: 877-794-7557
p425
sg60
Vhttps://pbs.twimg.com/profile_images/378800000797553869/35787be4f391807063b0bda0fe7bd83f_normal.png
p426
sg62
I18
sg63
I0
sg64
I-18000
sg65
Nsg66
I00
sg67
Nsg68
I00
sg69
I00
sg70
V9D582E
p427
sg72
I00
sg73
I00
sg74
Vhttp://abs.twimg.com/images/themes/theme8/bg.gif
p428
sg76
VLincolnFairOaks
p429
sg78
I0
sg79
VLincoln at Fair Oaks
p430
sg81
VEADEAA
p431
sg83
Vhttp://t.co/4CKDqL5l
p432
sg85
I78684765
sg86
V8B542B
p433
sbsg88
I0
sg89
V<a href="http://www.facebook.com/twitter" rel="nofollow">Facebook</a>
p434
sg91
(lp435
g3
(g93
g5
Ntp436
Rp437
(dp438
g97
Vhttp://t.co/DGgG5AAJI6
p439
sg99
Vhttp://fb.me/6VtfgijCO
p440
sbasg85
I541307591943786496
sbag3
(g4
g5
Ntp441
Rp442
(dp443
g9
I0
sg10
Nsg11
Nsg12
(lp444
sg14
I00
sg15
Nsg16
Nsg17
(lp445
sg19
Nsg20
Nsg21
Nsg22
VSat Dec 06 17:15:02 +0000 2014
p446
sg24
Nsg25
I00
sg26
Nsg27
Nsg28
Nsg29
Nsg30
I00
sg31
Nsg32
(lp447
g3
(g43
g5
Ntp448
Rp449
(dp450
g10
Nsg48
Nsg50
Nsg52
Nsg54
Nsg55
Nsg22
Nsg57
Nsg58
Nsg60
Nsg62
Nsg63
Nsg64
Nsg65
Nsg66
Nsg67
Nsg68
Nsg69
Nsg70
Nsg72
Nsg73
Nsg74
Nsg76
V7
p451
sg78
Nsg79
V\u30b8\u30a7\u30a4\u30af
p452
sg81
Nsg83
Nsg85
I255226431
sg86
Nsbasg34
Nsg35
Nsg36
Nsg37
VA Celtic Christmas with Sior-Og and Friends is tonight @7:30 pm at the Sherwood Community Center.  http://t.co/uQ2Rt58g0G
p453
sg39
I00
sg40
Ven
p454
sg42
g3
(g43
g5
Ntp455
Rp456
(dp457
g10
VFairfax, VA
p458
sg48
V333333
p459
sg50
Ven
p460
sg52
VEastern Time (US & Canada)
p461
sg54
I57
sg55
I1523
sg22
VWed Sep 30 19:16:14 +0000 2009
p462
sg57
I00
sg58
VSearching for an apartment? Come to Lincoln at Fair Oaks and enjoy the best apartments in Fairfax, VA. Call to schedule a tour today: 877-794-7557
p463
sg60
Vhttps://pbs.twimg.com/profile_images/378800000797553869/35787be4f391807063b0bda0fe7bd83f_normal.png
p464
sg62
I18
sg63
I0
sg64
I-18000
sg65
Nsg66
I00
sg67
Nsg68
I00
sg69
I00
sg70
V9D582E
p465
sg72
I00
sg73
I00
sg74
Vhttp://abs.twimg.com/images/themes/theme8/bg.gif
p466
sg76
VLincolnFairOaks
p467
sg78
I0
sg79
VLincoln at Fair Oaks
p468
sg81
VEADEAA
p469
sg83
Vhttp://t.co/4CKDqL5l
p470
sg85
I78684765
sg86
V8B542B
p471
sbsg88
I0
sg89
V<a href="http://www.facebook.com/twitter" rel="nofollow">Facebook</a>
p472
sg91
(lp473
g3
(g93
g5
Ntp474
Rp475
(dp476
g97
Vhttp://t.co/uQ2Rt58g0G
p477
sg99
Vhttp://bit.ly/1w5U23A
p478
sbasg85
I541279662115405826
sbag3
(g4
g5
Ntp479
Rp480
(dp481
g9
I0
sg10
Nsg11
Nsg12
(lp482
sg14
I00
sg15
Nsg16
Nsg17
(lp483
sg19
Nsg20
Nsg21
Nsg22
VSat Dec 06 14:00:02 +0000 2014
p484
sg24
Nsg25
I00
sg26
Nsg27
Nsg28
Nsg29
Nsg30
I00
sg31
Nsg32
(lp485
sg34
Nsg35
Nsg36
Nsg37
VBrunch is ready! Come by the office for breakfast! We will be serving until 11! http://t.co/c4obRSMTwj
p486
sg39
I00
sg40
Ven
p487
sg42
g3
(g43
g5
Ntp488
Rp489
(dp490
g10
VFairfax, VA
p491
sg48
V333333
p492
sg50
Ven
p493
sg52
VEastern Time (US & Canada)
p494
sg54
I57
sg55
I1523
sg22
VWed Sep 30 19:16:14 +0000 2009
p495
sg57
I00
sg58
VSearching for an apartment? Come to Lincoln at Fair Oaks and enjoy the best apartments in Fairfax, VA. Call to schedule a tour today: 877-794-7557
p496
sg60
Vhttps://pbs.twimg.com/profile_images/378800000797553869/35787be4f391807063b0bda0fe7bd83f_normal.png
p497
sg62
I18
sg63
I0
sg64
I-18000
sg65
Nsg66
I00
sg67
Nsg68
I00
sg69
I00
sg70
V9D582E
p498
sg72
I00
sg73
I00
sg74
Vhttp://abs.twimg.com/images/themes/theme8/bg.gif
p499
sg76
VLincolnFairOaks
p500
sg78
I0
sg79
VLincoln at Fair Oaks
p501
sg81
VEADEAA
p502
sg83
Vhttp://t.co/4CKDqL5l
p503
sg85
I78684765
sg86
V8B542B
p504
sbsg88
I0
sg89
V<a href="http://www.facebook.com/twitter" rel="nofollow">Facebook</a>
p505
sg91
(lp506
g3
(g93
g5
Ntp507
Rp508
(dp509
g97
Vhttp://t.co/c4obRSMTwj
p510
sg99
Vhttp://fb.me/70863m9NZ
p511
sbasg85
I541230590368817152
sbag3
(g4
g5
Ntp512
Rp513
(dp514
g9
I0
sg10
Nsg11
Nsg12
(lp515
sg14
I00
sg15
Nsg16
Nsg17
(lp516
sg19
Nsg20
Nsg21
Nsg22
VFri Dec 05 20:33:45 +0000 2014
p517
sg24
Nsg25
I00
sg26
Nsg27
Nsg28
Nsg29
Nsg30
I00
sg31
Nsg32
(lp518
g3
(g43
g5
Ntp519
Rp520
(dp521
g10
Nsg48
Nsg50
Nsg52
Nsg54
Nsg55
Nsg22
Nsg57
Nsg58
Nsg60
Nsg62
Nsg63
Nsg64
Nsg65
Nsg66
Nsg67
Nsg68
Nsg69
Nsg70
Nsg72
Nsg73
Nsg74
Nsg76
V11
p522
sg78
Nsg79
VStephen
p523
sg81
Nsg83
Nsg85
I663993
sg86
Nsbasg34
Nsg35
Nsg36
Nsg37
VThe Fairfax Festival of Lights and Carols starts tomorrow @11 am with a Lunch with Santa. Click here for a... http://t.co/fJrkDZLeLJ
p524
sg39
I00
sg40
Ven
p525
sg42
g3
(g43
g5
Ntp526
Rp527
(dp528
g10
VFairfax, VA
p529
sg48
V333333
p530
sg50
Ven
p531
sg52
VEastern Time (US & Canada)
p532
sg54
I57
sg55
I1523
sg22
VWed Sep 30 19:16:14 +0000 2009
p533
sg57
I00
sg58
VSearching for an apartment? Come to Lincoln at Fair Oaks and enjoy the best apartments in Fairfax, VA. Call to schedule a tour today: 877-794-7557
p534
sg60
Vhttps://pbs.twimg.com/profile_images/378800000797553869/35787be4f391807063b0bda0fe7bd83f_normal.png
p535
sg62
I18
sg63
I0
sg64
I-18000
sg65
Nsg66
I00
sg67
Nsg68
I00
sg69
I00
sg70
V9D582E
p536
sg72
I00
sg73
I00
sg74
Vhttp://abs.twimg.com/images/themes/theme8/bg.gif
p537
sg76
VLincolnFairOaks
p538
sg78
I0
sg79
VLincoln at Fair Oaks
p539
sg81
VEADEAA
p540
sg83
Vhttp://t.co/4CKDqL5l
p541
sg85
I78684765
sg86
V8B542B
p542
sbsg88
I0
sg89
V<a href="http://www.facebook.com/twitter" rel="nofollow">Facebook</a>
p543
sg91
(lp544
g3
(g93
g5
Ntp545
Rp546
(dp547
g97
Vhttp://t.co/fJrkDZLeLJ
p548
sg99
Vhttp://fb.me/3i9mJrtaH
p549
sbasg85
I540967283183476736
sbag3
(g4
g5
Ntp550
Rp551
(dp552
g9
I0
sg10
Nsg11
Nsg12
(lp553
sg14
I00
sg15
Nsg16
Nsg17
(lp554
sg19
Nsg20
Nsg21
Nsg22
VFri Dec 05 20:29:45 +0000 2014
p555
sg24
Nsg25
I00
sg26
Nsg27
Nsg28
Nsg29
Nsg30
I00
sg31
Nsg32
(lp556
g3
(g43
g5
Ntp557
Rp558
(dp559
g10
Nsg48
Nsg50
Nsg52
Nsg54
Nsg55
Nsg22
Nsg57
Nsg58
Nsg60
Nsg62
Nsg63
Nsg64
Nsg65
Nsg66
Nsg67
Nsg68
Nsg69
Nsg70
Nsg72
Nsg73
Nsg74
Nsg76
V2014
p560
sg78
Nsg79
V2014
p561
sg81
Nsg83
Nsg85
I371740603
sg86
Nsbasg34
Nsg35
Nsg36
Nsg37
VThe City of Fairfax Police Department will be collecting unused toys for the @2014 Santa's Ride until Dec. 15th!... http://t.co/4haGnHQVtL
p562
sg39
I00
sg40
Ven
p563
sg42
g3
(g43
g5
Ntp564
Rp565
(dp566
g10
VFairfax, VA
p567
sg48
V333333
p568
sg50
Ven
p569
sg52
VEastern Time (US & Canada)
p570
sg54
I57
sg55
I1523
sg22
VWed Sep 30 19:16:14 +0000 2009
p571
sg57
I00
sg58
VSearching for an apartment? Come to Lincoln at Fair Oaks and enjoy the best apartments in Fairfax, VA. Call to schedule a tour today: 877-794-7557
p572
sg60
Vhttps://pbs.twimg.com/profile_images/378800000797553869/35787be4f391807063b0bda0fe7bd83f_normal.png
p573
sg62
I18
sg63
I0
sg64
I-18000
sg65
Nsg66
I00
sg67
Nsg68
I00
sg69
I00
sg70
V9D582E
p574
sg72
I00
sg73
I00
sg74
Vhttp://abs.twimg.com/images/themes/theme8/bg.gif
p575
sg76
VLincolnFairOaks
p576
sg78
I0
sg79
VLincoln at Fair Oaks
p577
sg81
VEADEAA
p578
sg83
Vhttp://t.co/4CKDqL5l
p579
sg85
I78684765
sg86
V8B542B
p580
sbsg88
I0
sg89
V<a href="http://www.facebook.com/twitter" rel="nofollow">Facebook</a>
p581
sg91
(lp582
g3
(g93
g5
Ntp583
Rp584
(dp585
g97
Vhttp://t.co/4haGnHQVtL
p586
sg99
Vhttp://fb.me/7ZCvpfWUf
p587
sbasg85
I540966277984972801
sbag3
(g4
g5
Ntp588
Rp589
(dp590
g9
I0
sg10
Nsg11
Nsg12
(lp591
sg14
I00
sg15
Nsg16
Nsg17
(lp592
sg19
Nsg20
Nsg21
Nsg22
VFri Dec 05 19:36:16 +0000 2014
p593
sg24
Nsg25
I00
sg26
Nsg27
Nsg28
Nsg29
Nsg30
I00
sg31
Nsg32
(lp594
sg34
Nsg35
Nsg36
Nsg37
VStop by the office on tomorrow December 6th from 9am-11am to enjoy brunch with your neighbors!  We will have a... http://t.co/NciQ3BqC1M
p595
sg39
I00
sg40
Ven
p596
sg42
g3
(g43
g5
Ntp597
Rp598
(dp599
g10
VFairfax, VA
p600
sg48
V333333
p601
sg50
Ven
p602
sg52
VEastern Time (US & Canada)
p603
sg54
I57
sg55
I1523
sg22
VWed Sep 30 19:16:14 +0000 2009
p604
sg57
I00
sg58
VSearching for an apartment? Come to Lincoln at Fair Oaks and enjoy the best apartments in Fairfax, VA. Call to schedule a tour today: 877-794-7557
p605
sg60
Vhttps://pbs.twimg.com/profile_images/378800000797553869/35787be4f391807063b0bda0fe7bd83f_normal.png
p606
sg62
I18
sg63
I0
sg64
I-18000
sg65
Nsg66
I00
sg67
Nsg68
I00
sg69
I00
sg70
V9D582E
p607
sg72
I00
sg73
I00
sg74
Vhttp://abs.twimg.com/images/themes/theme8/bg.gif
p608
sg76
VLincolnFairOaks
p609
sg78
I0
sg79
VLincoln at Fair Oaks
p610
sg81
VEADEAA
p611
sg83
Vhttp://t.co/4CKDqL5l
p612
sg85
I78684765
sg86
V8B542B
p613
sbsg88
I0
sg89
V<a href="http://www.facebook.com/twitter" rel="nofollow">Facebook</a>
p614
sg91
(lp615
g3
(g93
g5
Ntp616
Rp617
(dp618
g97
Vhttp://t.co/NciQ3BqC1M
p619
sg99
Vhttp://fb.me/3xBUZHU1c
p620
sbasg85
I540952815485845504
sbag3
(g4
g5
Ntp621
Rp622
(dp623
g9
I0
sg10
Nsg11
Nsg12
(lp624
sg14
I00
sg15
Nsg16
Nsg17
(lp625
sg19
Nsg20
Nsg21
Nsg22
VFri Dec 05 14:43:39 +0000 2014
p626
sg24
Nsg25
I00
sg26
Nsg27
Nsg28
Nsg29
Nsg30
I00
sg31
Nsg32
(lp627
sg34
Nsg35
Nsg36
Nsg37
VThe Beauty of Autumn in Northern Virginia http://t.co/Oxygzkx9eM
p628
sg39
I00
sg40
Ven
p629
sg42
g3
(g43
g5
Ntp630
Rp631
(dp632
g10
VFairfax, VA
p633
sg48
V333333
p634
sg50
Ven
p635
sg52
VEastern Time (US & Canada)
p636
sg54
I57
sg55
I1523
sg22
VWed Sep 30 19:16:14 +0000 2009
p637
sg57
I00
sg58
VSearching for an apartment? Come to Lincoln at Fair Oaks and enjoy the best apartments in Fairfax, VA. Call to schedule a tour today: 877-794-7557
p638
sg60
Vhttps://pbs.twimg.com/profile_images/378800000797553869/35787be4f391807063b0bda0fe7bd83f_normal.png
p639
sg62
I18
sg63
I0
sg64
I-18000
sg65
Nsg66
I00
sg67
Nsg68
I00
sg69
I00
sg70
V9D582E
p640
sg72
I00
sg73
I00
sg74
Vhttp://abs.twimg.com/images/themes/theme8/bg.gif
p641
sg76
VLincolnFairOaks
p642
sg78
I0
sg79
VLincoln at Fair Oaks
p643
sg81
VEADEAA
p644
sg83
Vhttp://t.co/4CKDqL5l
p645
sg85
I78684765
sg86
V8B542B
p646
sbsg88
I0
sg89
V<a href="http://www.facebook.com/twitter" rel="nofollow">Facebook</a>
p647
sg91
(lp648
g3
(g93
g5
Ntp649
Rp650
(dp651
g97
Vhttp://t.co/Oxygzkx9eM
p652
sg99
Vhttp://fb.me/1KsF1MQ1B
p653
sbasg85
I540879175947915264
sbag3
(g4
g5
Ntp654
Rp655
(dp656
g9
I0
sg10
Nsg11
Nsg12
(lp657
sg14
I00
sg15
Nsg16
Nsg17
(lp658
sg19
Nsg20
Nsg21
Nsg22
VThu Dec 04 20:55:01 +0000 2014
p659
sg24
Nsg25
I00
sg26
Nsg27
Nsg28
Nsg29
Nsg30
I00
sg31
Nsg32
(lp660
sg34
Nsg35
Nsg36
Nsg37
VToys For Tots Needs Your Help!  Help us give back to our community!  \u000a\u000aWe are even going to enter your name in a... http://t.co/9V4DropcKe
p661
sg39
I00
sg40
Ven
p662
sg42
g3
(g43
g5
Ntp663
Rp664
(dp665
g10
VFairfax, VA
p666
sg48
V333333
p667
sg50
Ven
p668
sg52
VEastern Time (US & Canada)
p669
sg54
I57
sg55
I1523
sg22
VWed Sep 30 19:16:14 +0000 2009
p670
sg57
I00
sg58
VSearching for an apartment? Come to Lincoln at Fair Oaks and enjoy the best apartments in Fairfax, VA. Call to schedule a tour today: 877-794-7557
p671
sg60
Vhttps://pbs.twimg.com/profile_images/378800000797553869/35787be4f391807063b0bda0fe7bd83f_normal.png
p672
sg62
I18
sg63
I0
sg64
I-18000
sg65
Nsg66
I00
sg67
Nsg68
I00
sg69
I00
sg70
V9D582E
p673
sg72
I00
sg73
I00
sg74
Vhttp://abs.twimg.com/images/themes/theme8/bg.gif
p674
sg76
VLincolnFairOaks
p675
sg78
I0
sg79
VLincoln at Fair Oaks
p676
sg81
VEADEAA
p677
sg83
Vhttp://t.co/4CKDqL5l
p678
sg85
I78684765
sg86
V8B542B
p679
sbsg88
I0
sg89
V<a href="http://www.facebook.com/twitter" rel="nofollow">Facebook</a>
p680
sg91
(lp681
g3
(g93
g5
Ntp682
Rp683
(dp684
g97
Vhttp://t.co/9V4DropcKe
p685
sg99
Vhttp://fb.me/3pAkZ4PIy
p686
sbasg85
I540610246473814017
sbag3
(g4
g5
Ntp687
Rp688
(dp689
g9
I0
sg10
Nsg11
Nsg12
(lp690
g3
(ctwitter.hashtag
Hashtag
p691
g5
Ntp692
Rp693
(dp694
S'text'
p695
VLFO
p696
sbag3
(g691
g5
Ntp697
Rp698
(dp699
g695
Vtree
p700
sbasg14
I00
sg15
Nsg16
Nsg17
(lp701
sg19
Nsg20
Nsg21
Nsg22
VWed Dec 03 22:35:53 +0000 2014
p702
sg24
Nsg25
I00
sg26
Nsg27
Nsg28
Nsg29
Nsg30
I00
sg31
Nsg32
(lp703
sg34
Nsg35
Nsg36
Nsg37
VThe holiday season is here at the Lincoln at Fair Oaks.  #LFO  #tree http://t.co/kldNgXkFnZ
p704
sg39
I00
sg40
Ven
p705
sg42
g3
(g43
g5
Ntp706
Rp707
(dp708
g10
VFairfax, VA
p709
sg48
V333333
p710
sg50
Ven
p711
sg52
VEastern Time (US & Canada)
p712
sg54
I57
sg55
I1523
sg22
VWed Sep 30 19:16:14 +0000 2009
p713
sg57
I00
sg58
VSearching for an apartment? Come to Lincoln at Fair Oaks and enjoy the best apartments in Fairfax, VA. Call to schedule a tour today: 877-794-7557
p714
sg60
Vhttps://pbs.twimg.com/profile_images/378800000797553869/35787be4f391807063b0bda0fe7bd83f_normal.png
p715
sg62
I18
sg63
I0
sg64
I-18000
sg65
Nsg66
I00
sg67
Nsg68
I00
sg69
I00
sg70
V9D582E
p716
sg72
I00
sg73
I00
sg74
Vhttp://abs.twimg.com/images/themes/theme8/bg.gif
p717
sg76
VLincolnFairOaks
p718
sg78
I0
sg79
VLincoln at Fair Oaks
p719
sg81
VEADEAA
p720
sg83
Vhttp://t.co/4CKDqL5l
p721
sg85
I78684765
sg86
V8B542B
p722
sbsg88
I0
sg89
V<a href="http://www.facebook.com/twitter" rel="nofollow">Facebook</a>
p723
sg91
(lp724
g3
(g93
g5
Ntp725
Rp726
(dp727
g97
Vhttp://t.co/kldNgXkFnZ
p728
sg99
Vhttp://fb.me/1GHkWYDn7
p729
sbasg85
I540273242779684864
sbag3
(g4
g5
Ntp730
Rp731
(dp732
g9
I0
sg10
Nsg11
Nsg12
(lp733
sg14
I00
sg15
Nsg16
Nsg17
(lp734
sg19
Nsg20
Nsg21
Nsg22
VWed Dec 03 13:51:41 +0000 2014
p735
sg24
Nsg25
I00
sg26
Nsg27
Nsg28
Nsg29
Nsg30
I00
sg31
Nsg32
(lp736
sg34
Nsg35
Nsg36
Nsg37
VWe are down to one left!  \u000a\u000aPick up little Ronny from our Angel Tree Program, if you cannot, you can also help by... http://t.co/l9zsSodqxM
p737
sg39
I00
sg40
Ven
p738
sg42
g3
(g43
g5
Ntp739
Rp740
(dp741
g10
VFairfax, VA
p742
sg48
V333333
p743
sg50
Ven
p744
sg52
VEastern Time (US & Canada)
p745
sg54
I57
sg55
I1523
sg22
VWed Sep 30 19:16:14 +0000 2009
p746
sg57
I00
sg58
VSearching for an apartment? Come to Lincoln at Fair Oaks and enjoy the best apartments in Fairfax, VA. Call to schedule a tour today: 877-794-7557
p747
sg60
Vhttps://pbs.twimg.com/profile_images/378800000797553869/35787be4f391807063b0bda0fe7bd83f_normal.png
p748
sg62
I18
sg63
I0
sg64
I-18000
sg65
Nsg66
I00
sg67
Nsg68
I00
sg69
I00
sg70
V9D582E
p749
sg72
I00
sg73
I00
sg74
Vhttp://abs.twimg.com/images/themes/theme8/bg.gif
p750
sg76
VLincolnFairOaks
p751
sg78
I0
sg79
VLincoln at Fair Oaks
p752
sg81
VEADEAA
p753
sg83
Vhttp://t.co/4CKDqL5l
p754
sg85
I78684765
sg86
V8B542B
p755
sbsg88
I0
sg89
V<a href="http://www.facebook.com/twitter" rel="nofollow">Facebook</a>
p756
sg91
(lp757
g3
(g93
g5
Ntp758
Rp759
(dp760
g97
Vhttp://t.co/l9zsSodqxM
p761
sg99
Vhttp://fb.me/47mopfH9K
p762
sbasg85
I540141325371584512
sbaa.