(lp0
S'MrsAndreazza'
p1
a(lp2
ccopy_reg
_reconstructor
p3
(ctwitter
Status
p4
c__builtin__
object
p5
Ntp6
Rp7
(dp8
S'_favorite_count'
p9
I0
sS'_location'
p10
NsS'_withheld_scope'
p11
NsS'hashtags'
p12
(lp13
sS'_truncated'
p14
I00
sS'_retweeted_status'
p15
NsS'_withheld_copyright'
p16
NsS'media'
p17
(lp18
sS'_place'
p19
NsS'_contributors'
p20
NsS'_current_user_retweet'
p21
NsS'_created_at'
p22
VSat Dec 13 15:08:53 +0000 2014
p23
sS'_scopes'
p24
NsS'_possibly_sensitive'
p25
I00
sS'_in_reply_to_screen_name'
p26
NsS'_coordinates'
p27
NsS'_in_reply_to_user_id'
p28
NsS'_geo'
p29
NsS'_favorited'
p30
I00
sS'_withheld_in_countries'
p31
NsS'user_mentions'
p32
(lp33
sS'_now'
p34
NsS'_id_str'
p35
V543784631011516416
p36
sS'_in_reply_to_status_id'
p37
NsS'_text'
p38
VFree yarn for a year! Sign-up here: http://t.co/hI1pHuF3em
p39
sS'_retweeted'
p40
I00
sS'lang'
p41
Ven
p42
sS'_user'
p43
g3
(ctwitter
User
p44
g5
Ntp45
Rp46
(dp47
g10
V
p48
sS'_profile_text_color'
p49
V666666
p50
sS'_lang'
p51
Ven
p52
sS'_time_zone'
p53
NsS'_followers_count'
p54
I31
sS'_statuses_count'
p55
I225
sg22
VMon Aug 20 15:56:55 +0000 2012
p56
sS'_verified'
p57
I00
sS'_description'
p58
VMediocre wife and mother. Disney obsessed. Hobbyist photographer. Knitter. Classic Rock lover.
p59
sS'_profile_image_url'
p60
Vhttps://pbs.twimg.com/profile_images/512621370061385728/zpyR3sNK_normal.jpeg
p61
sS'_friends_count'
p62
I62
sS'_favourites_count'
p63
I131
sS'_utc_offset'
p64
NsS'_status'
p65
NsS'_protected'
p66
I00
sS'_profile_banner_url'
p67
Vhttps://pbs.twimg.com/profile_banners/769763893/1411154181
p68
sS'_notifications'
p69
I00
sS'_profile_background_tile'
p70
I00
sS'_profile_link_color'
p71
V2FC2EF
p72
sS'_geo_enabled'
p73
I00
sS'_contributors_enabled'
p74
I00
sS'_profile_background_image_url'
p75
Vhttp://abs.twimg.com/images/themes/theme9/bg.gif
p76
sS'_screen_name'
p77
VMrsAndreazza
p78
sS'_listed_count'
p79
I0
sS'_name'
p80
VMrs. Andreazza
p81
sS'_profile_sidebar_fill_color'
p82
V252429
p83
sS'_url'
p84
NsS'_id'
p85
I769763893
sS'_profile_background_color'
p86
V1A1B1F
p87
sbsS'_retweet_count'
p88
I0
sS'_source'
p89
V<a href="https://dev.twitter.com/docs/tfw" rel="nofollow">Twitter for Websites</a>
p90
sS'urls'
p91
(lp92
g3
(ctwitter
Url
p93
g5
Ntp94
Rp95
(dp96
S'url'
p97
Vhttp://t.co/hI1pHuF3em
p98
sS'expanded_url'
p99
Vhttp://www.yarnforyear.happilyhooked.com/?ref=db33774f13
p100
sbasg85
I543784631011516416
sbag3
(g4
g5
Ntp101
Rp102
(dp103
g9
I0
sg10
Nsg11
Nsg12
(lp104
g3
(ctwitter
Hashtag
p105
g5
Ntp106
Rp107
(dp108
S'text'
p109
Vdevo
p110
sbag3
(g105
g5
Ntp111
Rp112
(dp113
g109
Vmyfurbabies
p114
sbasg14
I00
sg15
Nsg16
Nsg17
(lp115
sg19
Nsg20
Nsg21
Nsg22
VSat Dec 13 14:05:39 +0000 2014
p116
sg24
Nsg25
I00
sg26
Nsg27
Nsg28
Nsg29
Nsg30
I00
sg31
Nsg32
(lp117
sg34
Nsg35
V543768715397832704
p118
sg37
Nsg38
VMy baby spent two days at the vet. He's not feeling too good. Glad to be home. #devo #myfurbabies\u2026 http://t.co/BRTdJncWV5
p119
sg40
I00
sg41
Ven
p120
sg43
g3
(g44
g5
Ntp121
Rp122
(dp123
g10
g48
sg49
V666666
p124
sg51
Ven
p125
sg53
Nsg54
I31
sg55
I225
sg22
VMon Aug 20 15:56:55 +0000 2012
p126
sg57
I00
sg58
VMediocre wife and mother. Disney obsessed. Hobbyist photographer. Knitter. Classic Rock lover.
p127
sg60
Vhttps://pbs.twimg.com/profile_images/512621370061385728/zpyR3sNK_normal.jpeg
p128
sg62
I62
sg63
I131
sg64
Nsg65
Nsg66
I00
sg67
Vhttps://pbs.twimg.com/profile_banners/769763893/1411154181
p129
sg69
I00
sg70
I00
sg71
V2FC2EF
p130
sg73
I00
sg74
I00
sg75
Vhttp://abs.twimg.com/images/themes/theme9/bg.gif
p131
sg77
VMrsAndreazza
p132
sg79
I0
sg80
VMrs. Andreazza
p133
sg82
V252429
p134
sg84
Nsg85
I769763893
sg86
V1A1B1F
p135
sbsg88
I0
sg89
V<a href="http://instagram.com" rel="nofollow">Instagram</a>
p136
sg91
(lp137
g3
(g93
g5
Ntp138
Rp139
(dp140
g97
Vhttp://t.co/BRTdJncWV5
p141
sg99
Vhttp://instagram.com/p/wjLPzZNI5Y/
p142
sbasg85
I543768715397832704
sbag3
(g4
g5
Ntp143
Rp144
(dp145
g9
I0
sg10
Nsg11
Nsg12
(lp146
g3
(g105
g5
Ntp147
Rp148
(dp149
g109
Vjamberry
p150
sbasg14
I00
sg15
Nsg16
Nsg17
(lp151
sg19
Nsg20
Nsg21
Nsg22
VWed Dec 10 22:17:35 +0000 2014
p152
sg24
Nsg25
I00
sg26
Nsg27
Nsg28
Nsg29
Nsg30
I00
sg31
Nsg32
(lp153
sg34
Nsg35
V542805350303297538
p154
sg37
Nsg38
VFinally did my nails again. Oh how I've missed my #jamberry http://t.co/y8BC9lofKU
p155
sg40
I00
sg41
Ven
p156
sg43
g3
(g44
g5
Ntp157
Rp158
(dp159
g10
g48
sg49
V666666
p160
sg51
Ven
p161
sg53
Nsg54
I31
sg55
I225
sg22
VMon Aug 20 15:56:55 +0000 2012
p162
sg57
I00
sg58
VMediocre wife and mother. Disney obsessed. Hobbyist photographer. Knitter. Classic Rock lover.
p163
sg60
Vhttps://pbs.twimg.com/profile_images/512621370061385728/zpyR3sNK_normal.jpeg
p164
sg62
I62
sg63
I131
sg64
Nsg65
Nsg66
I00
sg67
Vhttps://pbs.twimg.com/profile_banners/769763893/1411154181
p165
sg69
I00
sg70
I00
sg71
V2FC2EF
p166
sg73
I00
sg74
I00
sg75
Vhttp://abs.twimg.com/images/themes/theme9/bg.gif
p167
sg77
VMrsAndreazza
p168
sg79
I0
sg80
VMrs. Andreazza
p169
sg82
V252429
p170
sg84
Nsg85
I769763893
sg86
V1A1B1F
p171
sbsg88
I0
sg89
V<a href="http://instagram.com" rel="nofollow">Instagram</a>
p172
sg91
(lp173
g3
(g93
g5
Ntp174
Rp175
(dp176
g97
Vhttp://t.co/y8BC9lofKU
p177
sg99
Vhttp://instagram.com/p/wcVKMftI7T/
p178
sbasg85
I542805350303297538
sbag3
(g4
g5
Ntp179
Rp180
(dp181
g9
I0
sg10
Nsg11
Nsg12
(lp182
sg14
I00
sg15
Nsg16
Nsg17
(lp183
sg19
Nsg20
Nsg21
Nsg22
VWed Dec 10 19:57:01 +0000 2014
p184
sg24
Nsg25
I00
sg26
Nsg27
Nsg28
Nsg29
Nsg30
I00
sg31
Nsg32
(lp185
g3
(g44
g5
Ntp186
Rp187
(dp188
g10
Nsg49
Nsg51
Nsg53
Nsg54
Nsg55
Nsg22
Nsg57
Nsg58
Nsg60
Nsg62
Nsg63
Nsg64
Nsg65
Nsg66
Nsg67
Nsg69
Nsg70
Nsg71
Nsg73
Nsg74
Nsg75
Nsg77
VKnitPicks
p189
sg79
Nsg80
VKnit Picks staff
p190
sg82
Nsg84
Nsg85
I44473771
sg86
Nsbasg34
Nsg35
V542769977304961025
p191
sg37
Nsg38
VI just entered the @KnitPicks Facebook Fan contest! I hope I win ! Click here to enter too: http://t.co/3WOobaxwlj
p192
sg40
I00
sg41
Ven
p193
sg43
g3
(g44
g5
Ntp194
Rp195
(dp196
g10
g48
sg49
V666666
p197
sg51
Ven
p198
sg53
Nsg54
I31
sg55
I225
sg22
VMon Aug 20 15:56:55 +0000 2012
p199
sg57
I00
sg58
VMediocre wife and mother. Disney obsessed. Hobbyist photographer. Knitter. Classic Rock lover.
p200
sg60
Vhttps://pbs.twimg.com/profile_images/512621370061385728/zpyR3sNK_normal.jpeg
p201
sg62
I62
sg63
I131
sg64
Nsg65
Nsg66
I00
sg67
Vhttps://pbs.twimg.com/profile_banners/769763893/1411154181
p202
sg69
I00
sg70
I00
sg71
V2FC2EF
p203
sg73
I00
sg74
I00
sg75
Vhttp://abs.twimg.com/images/themes/theme9/bg.gif
p204
sg77
VMrsAndreazza
p205
sg79
I0
sg80
VMrs. Andreazza
p206
sg82
V252429
p207
sg84
Nsg85
I769763893
sg86
V1A1B1F
p208
sbsg88
I0
sg89
V<a href="https://dev.twitter.com/docs/tfw" rel="nofollow">Twitter for Websites</a>
p209
sg91
(lp210
g3
(g93
g5
Ntp211
Rp212
(dp213
g97
Vhttp://t.co/3WOobaxwlj
p214
sg99
Vhttp://woobox.com/myiq94/cieqw0
p215
sbasg85
I542769977304961025
sbag3
(g4
g5
Ntp216
Rp217
(dp218
g9
I0
sg10
Nsg11
Nsg12
(lp219
g3
(g105
g5
Ntp220
Rp221
(dp222
g109
Vpandor
p223
sbasg14
I00
sg15
Nsg16
Nsg17
(lp224
sg19
Nsg20
Nsg21
Nsg22
VMon Dec 08 16:11:09 +0000 2014
p225
sg24
Nsg25
I00
sg26
Nsg27
Nsg28
Nsg29
Nsg30
I00
sg31
Nsg32
(lp226
sg34
Nsg35
V541988362106982400
p227
sg37
Nsg38
VUm this doesn't quite fit with "The Beatles" radio....I mean it's beautiful but not quite classic rock.  #pandor... http://t.co/McNFbP1lMO
p228
sg40
I00
sg41
Ven
p229
sg43
g3
(g44
g5
Ntp230
Rp231
(dp232
g10
g48
sg49
V666666
p233
sg51
Ven
p234
sg53
Nsg54
I31
sg55
I225
sg22
VMon Aug 20 15:56:55 +0000 2012
p235
sg57
I00
sg58
VMediocre wife and mother. Disney obsessed. Hobbyist photographer. Knitter. Classic Rock lover.
p236
sg60
Vhttps://pbs.twimg.com/profile_images/512621370061385728/zpyR3sNK_normal.jpeg
p237
sg62
I62
sg63
I131
sg64
Nsg65
Nsg66
I00
sg67
Vhttps://pbs.twimg.com/profile_banners/769763893/1411154181
p238
sg69
I00
sg70
I00
sg71
V2FC2EF
p239
sg73
I00
sg74
I00
sg75
Vhttp://abs.twimg.com/images/themes/theme9/bg.gif
p240
sg77
VMrsAndreazza
p241
sg79
I0
sg80
VMrs. Andreazza
p242
sg82
V252429
p243
sg84
Nsg85
I769763893
sg86
V1A1B1F
p244
sbsg88
I0
sg89
V<a href="http://www.apple.com" rel="nofollow">iOS</a>
p245
sg91
(lp246
g3
(g93
g5
Ntp247
Rp248
(dp249
g97
Vhttp://t.co/McNFbP1lMO
p250
sg99
Vhttp://pdora.co/12EwbKy
p251
sbasg85
I541988362106982400
sbag3
(g4
g5
Ntp252
Rp253
(dp254
g9
I0
sg10
Nsg11
Nsg12
(lp255
g3
(g105
g5
Ntp256
Rp257
(dp258
g109
Vpunintended
p259
sbasg14
I00
sg15
Nsg16
Nsg17
(lp260
sg19
Nsg20
Nsg21
Nsg22
VFri Dec 05 22:16:30 +0000 2014
p261
sg24
Nsg25
I00
sg26
Nsg27
Nsg28
Nsg29
Nsg30
I00
sg31
Nsg32
(lp262
sg34
Nsg35
V540993138761154560
p263
sg37
Nsg38
VSpruced up a boring set of Christmas pj's! Will give them to the kiddos this weekend. :) #punintended http://t.co/OPBluTj1d4
p264
sg40
I00
sg41
Ven
p265
sg43
g3
(g44
g5
Ntp266
Rp267
(dp268
g10
g48
sg49
V666666
p269
sg51
Ven
p270
sg53
Nsg54
I31
sg55
I225
sg22
VMon Aug 20 15:56:55 +0000 2012
p271
sg57
I00
sg58
VMediocre wife and mother. Disney obsessed. Hobbyist photographer. Knitter. Classic Rock lover.
p272
sg60
Vhttps://pbs.twimg.com/profile_images/512621370061385728/zpyR3sNK_normal.jpeg
p273
sg62
I62
sg63
I131
sg64
Nsg65
Nsg66
I00
sg67
Vhttps://pbs.twimg.com/profile_banners/769763893/1411154181
p274
sg69
I00
sg70
I00
sg71
V2FC2EF
p275
sg73
I00
sg74
I00
sg75
Vhttp://abs.twimg.com/images/themes/theme9/bg.gif
p276
sg77
VMrsAndreazza
p277
sg79
I0
sg80
VMrs. Andreazza
p278
sg82
V252429
p279
sg84
Nsg85
I769763893
sg86
V1A1B1F
p280
sbsg88
I0
sg89
V<a href="http://instagram.com" rel="nofollow">Instagram</a>
p281
sg91
(lp282
g3
(g93
g5
Ntp283
Rp284
(dp285
g97
Vhttp://t.co/OPBluTj1d4
p286
sg99
Vhttp://instagram.com/p/wPdD6mtI5k/
p287
sbasg85
I540993138761154560
sbag3
(g4
g5
Ntp288
Rp289
(dp290
g9
I0
sg10
Nsg11
Nsg12
(lp291
sg14
I00
sg15
Nsg16
Nsg17
(lp292
sg19
Nsg20
Nsg21
Nsg22
VThu Dec 04 11:45:22 +0000 2014
p293
sg24
Nsg25
I00
sg26
Nsg27
Nsg28
Nsg29
Nsg30
I00
sg31
Nsg32
(lp294
g3
(g44
g5
Ntp295
Rp296
(dp297
g10
Nsg49
Nsg51
Nsg53
Nsg54
Nsg55
Nsg22
Nsg57
Nsg58
Nsg60
Nsg62
Nsg63
Nsg64
Nsg65
Nsg66
Nsg67
Nsg69
Nsg70
Nsg71
Nsg73
Nsg74
Nsg75
Nsg77
Vmcpactions
p298
sg79
Nsg80
VMCP Actions
p299
sg82
Nsg84
Nsg85
I15891719
sg86
Nsbasg34
Nsg35
V540471923264610304
p300
sg37
Nsg38
VEnter to win a Tamron 24-70 2.8 VC Lens on the @mcpactions blog now. http://t.co/fiAN6U0BTE
p301
sg40
I00
sg41
Ven
p302
sg43
g3
(g44
g5
Ntp303
Rp304
(dp305
g10
g48
sg49
V666666
p306
sg51
Ven
p307
sg53
Nsg54
I31
sg55
I225
sg22
VMon Aug 20 15:56:55 +0000 2012
p308
sg57
I00
sg58
VMediocre wife and mother. Disney obsessed. Hobbyist photographer. Knitter. Classic Rock lover.
p309
sg60
Vhttps://pbs.twimg.com/profile_images/512621370061385728/zpyR3sNK_normal.jpeg
p310
sg62
I62
sg63
I131
sg64
Nsg65
Nsg66
I00
sg67
Vhttps://pbs.twimg.com/profile_banners/769763893/1411154181
p311
sg69
I00
sg70
I00
sg71
V2FC2EF
p312
sg73
I00
sg74
I00
sg75
Vhttp://abs.twimg.com/images/themes/theme9/bg.gif
p313
sg77
VMrsAndreazza
p314
sg79
I0
sg80
VMrs. Andreazza
p315
sg82
V252429
p316
sg84
Nsg85
I769763893
sg86
V1A1B1F
p317
sbsg88
I0
sg89
V<a href="https://dev.twitter.com/docs/tfw" rel="nofollow">Twitter for Websites</a>
p318
sg91
(lp319
g3
(g93
g5
Ntp320
Rp321
(dp322
g97
Vhttp://t.co/fiAN6U0BTE
p323
sg99
Vhttp://mcpactions.com/2014/12/01/win-a-tamron-24-70-2-8-lens/
p324
sbasg85
I540471923264610304
sbag3
(g4
g5
Ntp325
Rp326
(dp327
g9
I0
sg10
Nsg11
Nsg12
(lp328
g3
(g105
g5
Ntp329
Rp330
(dp331
g109
Vknitallthethings
p332
sbag3
(g105
g5
Ntp333
Rp334
(dp335
g109
Vknitter4life
p336
sbasg14
I00
sg15
Nsg16
Nsg17
(lp337
sg19
Nsg20
Nsg21
Nsg22
VSat Nov 29 18:07:59 +0000 2014
p338
sg24
Nsg25
I00
sg26
Nsg27
Nsg28
Nsg29
Nsg30
I00
sg31
Nsg32
(lp339
sg34
Nsg35
V538756273228222465
p340
sg37
Nsg38
VCozy purple feet. No second sock syndrome for me! #knitallthethings #knitter4life http://t.co/VcMy2UkK54
p341
sg40
I00
sg41
Ven
p342
sg43
g3
(g44
g5
Ntp343
Rp344
(dp345
g10
g48
sg49
V666666
p346
sg51
Ven
p347
sg53
Nsg54
I31
sg55
I225
sg22
VMon Aug 20 15:56:55 +0000 2012
p348
sg57
I00
sg58
VMediocre wife and mother. Disney obsessed. Hobbyist photographer. Knitter. Classic Rock lover.
p349
sg60
Vhttps://pbs.twimg.com/profile_images/512621370061385728/zpyR3sNK_normal.jpeg
p350
sg62
I62
sg63
I131
sg64
Nsg65
Nsg66
I00
sg67
Vhttps://pbs.twimg.com/profile_banners/769763893/1411154181
p351
sg69
I00
sg70
I00
sg71
V2FC2EF
p352
sg73
I00
sg74
I00
sg75
Vhttp://abs.twimg.com/images/themes/theme9/bg.gif
p353
sg77
VMrsAndreazza
p354
sg79
I0
sg80
VMrs. Andreazza
p355
sg82
V252429
p356
sg84
Nsg85
I769763893
sg86
V1A1B1F
p357
sbsg88
I0
sg89
V<a href="http://instagram.com" rel="nofollow">Instagram</a>
p358
sg91
(lp359
g3
(g93
g5
Ntp360
Rp361
(dp362
g97
Vhttp://t.co/VcMy2UkK54
p363
sg99
Vhttp://instagram.com/p/v_j2j4NI6W/
p364
sbasg85
I538756273228222465
sbag3
(g4
g5
Ntp365
Rp366
(dp367
g9
I1
sg10
Nsg11
Nsg12
(lp368
g3
(g105
g5
Ntp369
Rp370
(dp371
g109
Vturkeysoup
p372
sbag3
(g105
g5
Ntp373
Rp374
(dp375
g109
Vnofilter
p376
sbasg14
I00
sg15
Nsg16
Nsg17
(lp377
sg19
Nsg20
Nsg21
Nsg22
VFri Nov 28 19:41:54 +0000 2014
p378
sg24
Nsg25
I00
sg26
Nsg27
Nsg28
Nsg29
Nsg30
I00
sg31
Nsg32
(lp379
sg34
Nsg35
V538417517409357826
p380
sg37
Nsg38
VI meant it when I said all day...still cooking. #turkeysoup #nofilter http://t.co/pcYQFK2K3U
p381
sg40
I00
sg41
Ven
p382
sg43
g3
(g44
g5
Ntp383
Rp384
(dp385
g10
g48
sg49
V666666
p386
sg51
Ven
p387
sg53
Nsg54
I31
sg55
I225
sg22
VMon Aug 20 15:56:55 +0000 2012
p388
sg57
I00
sg58
VMediocre wife and mother. Disney obsessed. Hobbyist photographer. Knitter. Classic Rock lover.
p389
sg60
Vhttps://pbs.twimg.com/profile_images/512621370061385728/zpyR3sNK_normal.jpeg
p390
sg62
I62
sg63
I131
sg64
Nsg65
Nsg66
I00
sg67
Vhttps://pbs.twimg.com/profile_banners/769763893/1411154181
p391
sg69
I00
sg70
I00
sg71
V2FC2EF
p392
sg73
I00
sg74
I00
sg75
Vhttp://abs.twimg.com/images/themes/theme9/bg.gif
p393
sg77
VMrsAndreazza
p394
sg79
I0
sg80
VMrs. Andreazza
p395
sg82
V252429
p396
sg84
Nsg85
I769763893
sg86
V1A1B1F
p397
sbsg88
I0
sg89
V<a href="http://instagram.com" rel="nofollow">Instagram</a>
p398
sg91
(lp399
g3
(g93
g5
Ntp400
Rp401
(dp402
g97
Vhttp://t.co/pcYQFK2K3U
p403
sg99
Vhttp://instagram.com/p/v9JzePtIyj/
p404
sbasg85
I538417517409357826
sbag3
(g4
g5
Ntp405
Rp406
(dp407
g9
I0
sg10
Nsg11
Nsg12
(lp408
g3
(g105
g5
Ntp409
Rp410
(dp411
g109
Vturkeysoup
p412
sbag3
(g105
g5
Ntp413
Rp414
(dp415
g109
Vnofilter
p416
sbasg14
I00
sg15
Nsg16
Nsg17
(lp417
sg19
Nsg20
Nsg21
Nsg22
VFri Nov 28 13:08:16 +0000 2014
p418
sg24
Nsg25
I00
sg26
Nsg27
Nsg28
Nsg29
Nsg30
I00
sg31
Nsg32
(lp419
sg34
Nsg35
V538318459592273921
p420
sg37
Nsg38
VSlave to the stove today. This will simmer all day long. #turkeysoup #nofilter http://t.co/Ox2QkOUXvs
p421
sg40
I00
sg41
Ven
p422
sg43
g3
(g44
g5
Ntp423
Rp424
(dp425
g10
g48
sg49
V666666
p426
sg51
Ven
p427
sg53
Nsg54
I31
sg55
I225
sg22
VMon Aug 20 15:56:55 +0000 2012
p428
sg57
I00
sg58
VMediocre wife and mother. Disney obsessed. Hobbyist photographer. Knitter. Classic Rock lover.
p429
sg60
Vhttps://pbs.twimg.com/profile_images/512621370061385728/zpyR3sNK_normal.jpeg
p430
sg62
I62
sg63
I131
sg64
Nsg65
Nsg66
I00
sg67
Vhttps://pbs.twimg.com/profile_banners/769763893/1411154181
p431
sg69
I00
sg70
I00
sg71
V2FC2EF
p432
sg73
I00
sg74
I00
sg75
Vhttp://abs.twimg.com/images/themes/theme9/bg.gif
p433
sg77
VMrsAndreazza
p434
sg79
I0
sg80
VMrs. Andreazza
p435
sg82
V252429
p436
sg84
Nsg85
I769763893
sg86
V1A1B1F
p437
sbsg88
I0
sg89
V<a href="http://instagram.com" rel="nofollow">Instagram</a>
p438
sg91
(lp439
g3
(g93
g5
Ntp440
Rp441
(dp442
g97
Vhttp://t.co/Ox2QkOUXvs
p443
sg99
Vhttp://instagram.com/p/v8cwhRNI2j/
p444
sbasg85
I538318459592273921
sbag3
(g4
g5
Ntp445
Rp446
(dp447
g9
I2
sg10
Nsg11
Nsg12
(lp448
g3
(g105
g5
Ntp449
Rp450
(dp451
g109
Vdiy
p452
sbasg14
I00
sg15
Nsg16
Nsg17
(lp453
sg19
Nsg20
Nsg21
Nsg22
VTue Nov 25 21:30:34 +0000 2014
p454
sg24
Nsg25
I00
sg26
Nsg27
Nsg28
Nsg29
Nsg30
I00
sg31
Nsg32
(lp455
sg34
Nsg35
V537357701118849024
p456
sg37
Nsg38
VDiy kitty beds from thrift store sweaters! #diy http://t.co/EmtiQOveM0
p457
sg40
I00
sg41
Ven
p458
sg43
g3
(g44
g5
Ntp459
Rp460
(dp461
g10
g48
sg49
V666666
p462
sg51
Ven
p463
sg53
Nsg54
I31
sg55
I225
sg22
VMon Aug 20 15:56:55 +0000 2012
p464
sg57
I00
sg58
VMediocre wife and mother. Disney obsessed. Hobbyist photographer. Knitter. Classic Rock lover.
p465
sg60
Vhttps://pbs.twimg.com/profile_images/512621370061385728/zpyR3sNK_normal.jpeg
p466
sg62
I62
sg63
I131
sg64
Nsg65
Nsg66
I00
sg67
Vhttps://pbs.twimg.com/profile_banners/769763893/1411154181
p467
sg69
I00
sg70
I00
sg71
V2FC2EF
p468
sg73
I00
sg74
I00
sg75
Vhttp://abs.twimg.com/images/themes/theme9/bg.gif
p469
sg77
VMrsAndreazza
p470
sg79
I0
sg80
VMrs. Andreazza
p471
sg82
V252429
p472
sg84
Nsg85
I769763893
sg86
V1A1B1F
p473
sbsg88
I0
sg89
V<a href="http://instagram.com" rel="nofollow">Instagram</a>
p474
sg91
(lp475
g3
(g93
g5
Ntp476
Rp477
(dp478
g97
Vhttp://t.co/EmtiQOveM0
p479
sg99
Vhttp://instagram.com/p/v1n2vwtIxr/
p480
sbasg85
I537357701118849024
sbag3
(g4
g5
Ntp481
Rp482
(dp483
g9
I0
sg10
Nsg11
Nsg12
(lp484
g3
(g105
g5
Ntp485
Rp486
(dp487
g109
Vknitter4life
p488
sbasg14
I00
sg15
Nsg16
Nsg17
(lp489
sg19
Nsg20
Nsg21
Nsg22
VMon Nov 24 12:36:04 +0000 2014
p490
sg24
Nsg25
I00
sg26
Nsg27
Nsg28
Nsg29
Nsg30
I00
sg31
Nsg32
(lp491
sg34
Nsg35
V536860801307787264
p492
sg37
Nsg38
VTwo-up comfy cozy socks. #knitter4life http://t.co/BMbwcMiYwO
p493
sg40
I00
sg41
Ven
p494
sg43
g3
(g44
g5
Ntp495
Rp496
(dp497
g10
g48
sg49
V666666
p498
sg51
Ven
p499
sg53
Nsg54
I31
sg55
I225
sg22
VMon Aug 20 15:56:55 +0000 2012
p500
sg57
I00
sg58
VMediocre wife and mother. Disney obsessed. Hobbyist photographer. Knitter. Classic Rock lover.
p501
sg60
Vhttps://pbs.twimg.com/profile_images/512621370061385728/zpyR3sNK_normal.jpeg
p502
sg62
I62
sg63
I131
sg64
Nsg65
Nsg66
I00
sg67
Vhttps://pbs.twimg.com/profile_banners/769763893/1411154181
p503
sg69
I00
sg70
I00
sg71
V2FC2EF
p504
sg73
I00
sg74
I00
sg75
Vhttp://abs.twimg.com/images/themes/theme9/bg.gif
p505
sg77
VMrsAndreazza
p506
sg79
I0
sg80
VMrs. Andreazza
p507
sg82
V252429
p508
sg84
Nsg85
I769763893
sg86
V1A1B1F
p509
sbsg88
I0
sg89
V<a href="http://instagram.com" rel="nofollow">Instagram</a>
p510
sg91
(lp511
g3
(g93
g5
Ntp512
Rp513
(dp514
g97
Vhttp://t.co/BMbwcMiYwO
p515
sg99
Vhttp://instagram.com/p/vyF5FEtI1b/
p516
sbasg85
I536860801307787264
sbag3
(g4
g5
Ntp517
Rp518
(dp519
g9
I0
sg10
Nsg11
Nsg12
(lp520
sg14
I00
sg15
Nsg16
Nsg17
(lp521
sg19
Nsg20
Nsg21
Nsg22
VSat Nov 22 22:30:16 +0000 2014
p522
sg24
Nsg25
I00
sg26
Nsg27
Nsg28
Nsg29
Nsg30
I00
sg31
Nsg32
(lp523
sg34
Nsg35
V536285562203045888
p524
sg37
Nsg38
VIt's starting.... http://t.co/49wcOvlcff
p525
sg40
I00
sg41
Ven
p526
sg43
g3
(g44
g5
Ntp527
Rp528
(dp529
g10
g48
sg49
V666666
p530
sg51
Ven
p531
sg53
Nsg54
I31
sg55
I225
sg22
VMon Aug 20 15:56:55 +0000 2012
p532
sg57
I00
sg58
VMediocre wife and mother. Disney obsessed. Hobbyist photographer. Knitter. Classic Rock lover.
p533
sg60
Vhttps://pbs.twimg.com/profile_images/512621370061385728/zpyR3sNK_normal.jpeg
p534
sg62
I62
sg63
I131
sg64
Nsg65
Nsg66
I00
sg67
Vhttps://pbs.twimg.com/profile_banners/769763893/1411154181
p535
sg69
I00
sg70
I00
sg71
V2FC2EF
p536
sg73
I00
sg74
I00
sg75
Vhttp://abs.twimg.com/images/themes/theme9/bg.gif
p537
sg77
VMrsAndreazza
p538
sg79
I0
sg80
VMrs. Andreazza
p539
sg82
V252429
p540
sg84
Nsg85
I769763893
sg86
V1A1B1F
p541
sbsg88
I0
sg89
V<a href="http://instagram.com" rel="nofollow">Instagram</a>
p542
sg91
(lp543
g3
(g93
g5
Ntp544
Rp545
(dp546
g97
Vhttp://t.co/49wcOvlcff
p547
sg99
Vhttp://instagram.com/p/vuATZuNI6y/
p548
sbasg85
I536285562203045888
sbag3
(g4
g5
Ntp549
Rp550
(dp551
g9
I0
sg10
Nsg11
Nsg12
(lp552
g3
(g105
g5
Ntp553
Rp554
(dp555
g109
Vobsessedwithcoffeemugs
p556
sbag3
(g105
g5
Ntp557
Rp558
(dp559
g109
Vdisneyweirdo
p560
sbag3
(g105
g5
Ntp561
Rp562
(dp563
g109
Vhauntedmansion
p564
sbasg14
I00
sg15
Nsg16
Nsg17
(lp565
sg19
Nsg20
Nsg21
Nsg22
VThu Nov 20 12:35:13 +0000 2014
p566
sg24
Nsg25
I00
sg26
Nsg27
Nsg28
Nsg29
Nsg30
I00
sg31
Nsg32
(lp567
sg34
Nsg35
V535411039534592000
p568
sg37
Nsg38
VMy hubby loves me. #obsessedwithcoffeemugs #disneyweirdo #hauntedmansion http://t.co/vimznktM87
p569
sg40
I00
sg41
Ven
p570
sg43
g3
(g44
g5
Ntp571
Rp572
(dp573
g10
g48
sg49
V666666
p574
sg51
Ven
p575
sg53
Nsg54
I31
sg55
I225
sg22
VMon Aug 20 15:56:55 +0000 2012
p576
sg57
I00
sg58
VMediocre wife and mother. Disney obsessed. Hobbyist photographer. Knitter. Classic Rock lover.
p577
sg60
Vhttps://pbs.twimg.com/profile_images/512621370061385728/zpyR3sNK_normal.jpeg
p578
sg62
I62
sg63
I131
sg64
Nsg65
Nsg66
I00
sg67
Vhttps://pbs.twimg.com/profile_banners/769763893/1411154181
p579
sg69
I00
sg70
I00
sg71
V2FC2EF
p580
sg73
I00
sg74
I00
sg75
Vhttp://abs.twimg.com/images/themes/theme9/bg.gif
p581
sg77
VMrsAndreazza
p582
sg79
I0
sg80
VMrs. Andreazza
p583
sg82
V252429
p584
sg84
Nsg85
I769763893
sg86
V1A1B1F
p585
sbsg88
I0
sg89
V<a href="http://instagram.com" rel="nofollow">Instagram</a>
p586
sg91
(lp587
g3
(g93
g5
Ntp588
Rp589
(dp590
g97
Vhttp://t.co/vimznktM87
p591
sg99
Vhttp://instagram.com/p/vnyncbtI6x/
p592
sbasg85
I535411039534592000
sbag3
(g4
g5
Ntp593
Rp594
(dp595
g9
I1
sg10
Nsg11
Nsg12
(lp596
g3
(g105
g5
Ntp597
Rp598
(dp599
g109
Vburnbabyburn
p600
sbag3
(g105
g5
Ntp601
Rp602
(dp603
g109
Vkickboxing
p604
sbasg14
I00
sg15
Nsg16
Nsg17
(lp605
sg19
Nsg20
Nsg21
Nsg22
VThu Nov 20 02:49:36 +0000 2014
p606
sg24
Nsg25
I00
sg26
Nsg27
Nsg28
Nsg29
Nsg30
I00
sg31
Nsg32
(lp607
sg34
Nsg35
V535263661108248576
p608
sg37
Nsg38
VSnow: 0, Andrea: 1 #burnbabyburn #kickboxing http://t.co/zfr5ngFAuo
p609
sg40
I00
sg41
Ven
p610
sg43
g3
(g44
g5
Ntp611
Rp612
(dp613
g10
g48
sg49
V666666
p614
sg51
Ven
p615
sg53
Nsg54
I31
sg55
I225
sg22
VMon Aug 20 15:56:55 +0000 2012
p616
sg57
I00
sg58
VMediocre wife and mother. Disney obsessed. Hobbyist photographer. Knitter. Classic Rock lover.
p617
sg60
Vhttps://pbs.twimg.com/profile_images/512621370061385728/zpyR3sNK_normal.jpeg
p618
sg62
I62
sg63
I131
sg64
Nsg65
Nsg66
I00
sg67
Vhttps://pbs.twimg.com/profile_banners/769763893/1411154181
p619
sg69
I00
sg70
I00
sg71
V2FC2EF
p620
sg73
I00
sg74
I00
sg75
Vhttp://abs.twimg.com/images/themes/theme9/bg.gif
p621
sg77
VMrsAndreazza
p622
sg79
I0
sg80
VMrs. Andreazza
p623
sg82
V252429
p624
sg84
Nsg85
I769763893
sg86
V1A1B1F
p625
sbsg88
I0
sg89
V<a href="http://instagram.com" rel="nofollow">Instagram</a>
p626
sg91
(lp627
g3
(g93
g5
Ntp628
Rp629
(dp630
g97
Vhttp://t.co/zfr5ngFAuo
p631
sg99
Vhttp://instagram.com/p/vmvmLrNI_C/
p632
sbasg85
I535263661108248576
sbag3
(g4
g5
Ntp633
Rp634
(dp635
g9
I0
sg10
Nsg11
Nsg12
(lp636
g3
(g105
g5
Ntp637
Rp638
(dp639
g109
Vcoldasheck
p640
sbag3
(g105
g5
Ntp641
Rp642
(dp643
g109
Vcrockpotrocks
p644
sbasg14
I00
sg15
Nsg16
Nsg17
(lp645
sg19
Nsg20
Nsg21
Nsg22
VWed Nov 19 18:50:43 +0000 2014
p646
sg24
Nsg25
I00
sg26
Nsg27
Nsg28
Nsg29
Nsg30
I00
sg31
Nsg32
(lp647
sg34
Nsg35
V535143148486270976
p648
sg37
Nsg38
VToday calls for chili. #coldasheck #crockpotrocks http://t.co/dfIkcwxQte
p649
sg40
I00
sg41
Ven
p650
sg43
g3
(g44
g5
Ntp651
Rp652
(dp653
g10
g48
sg49
V666666
p654
sg51
Ven
p655
sg53
Nsg54
I31
sg55
I225
sg22
VMon Aug 20 15:56:55 +0000 2012
p656
sg57
I00
sg58
VMediocre wife and mother. Disney obsessed. Hobbyist photographer. Knitter. Classic Rock lover.
p657
sg60
Vhttps://pbs.twimg.com/profile_images/512621370061385728/zpyR3sNK_normal.jpeg
p658
sg62
I62
sg63
I131
sg64
Nsg65
Nsg66
I00
sg67
Vhttps://pbs.twimg.com/profile_banners/769763893/1411154181
p659
sg69
I00
sg70
I00
sg71
V2FC2EF
p660
sg73
I00
sg74
I00
sg75
Vhttp://abs.twimg.com/images/themes/theme9/bg.gif
p661
sg77
VMrsAndreazza
p662
sg79
I0
sg80
VMrs. Andreazza
p663
sg82
V252429
p664
sg84
Nsg85
I769763893
sg86
V1A1B1F
p665
sbsg88
I0
sg89
V<a href="http://instagram.com" rel="nofollow">Instagram</a>
p666
sg91
(lp667
g3
(g93
g5
Ntp668
Rp669
(dp670
g97
Vhttp://t.co/dfIkcwxQte
p671
sg99
Vhttp://instagram.com/p/vl4yyKNIxj/
p672
sbasg85
I535143148486270976
sbag3
(g4
g5
Ntp673
Rp674
(dp675
g9
I0
sg10
Nsg11
Nsg12
(lp676
sg14
I00
sg15
Nsg16
Nsg17
(lp677
sg19
Nsg20
Nsg21
Nsg22
VWed Nov 19 01:28:17 +0000 2014
p678
sg24
Nsg25
Nsg26
Vmageyer
p679
sg27
Nsg28
I28838632
sg29
Nsg30
I00
sg31
Nsg32
(lp680
g3
(g44
g5
Ntp681
Rp682
(dp683
g10
Nsg49
Nsg51
Nsg53
Nsg54
Nsg55
Nsg22
Nsg57
Nsg58
Nsg60
Nsg62
Nsg63
Nsg64
Nsg65
Nsg66
Nsg67
Nsg69
Nsg70
Nsg71
Nsg73
Nsg74
Nsg75
Nsg77
Vmageyer
p684
sg79
Nsg80
VMarlena A. Geyer
p685
sg82
Nsg84
Nsg85
I28838632
sg86
Nsbasg34
Nsg35
V534880809912909824
p686
sg37
I534880714030735360
sg38
V@mageyer it's a start! ;)
p687
sg40
I00
sg41
Ven
p688
sg43
g3
(g44
g5
Ntp689
Rp690
(dp691
g10
g48
sg49
V666666
p692
sg51
Ven
p693
sg53
Nsg54
I31
sg55
I225
sg22
VMon Aug 20 15:56:55 +0000 2012
p694
sg57
I00
sg58
VMediocre wife and mother. Disney obsessed. Hobbyist photographer. Knitter. Classic Rock lover.
p695
sg60
Vhttps://pbs.twimg.com/profile_images/512621370061385728/zpyR3sNK_normal.jpeg
p696
sg62
I62
sg63
I131
sg64
Nsg65
Nsg66
I00
sg67
Vhttps://pbs.twimg.com/profile_banners/769763893/1411154181
p697
sg69
I00
sg70
I00
sg71
V2FC2EF
p698
sg73
I00
sg74
I00
sg75
Vhttp://abs.twimg.com/images/themes/theme9/bg.gif
p699
sg77
VMrsAndreazza
p700
sg79
I0
sg80
VMrs. Andreazza
p701
sg82
V252429
p702
sg84
Nsg85
I769763893
sg86
V1A1B1F
p703
sbsg88
I0
sg89
V<a href="http://twitter.com/download/iphone" rel="nofollow">Twitter for iPhone</a>
p704
sg91
(lp705
sg85
I534880809912909824
sbag3
(g4
g5
Ntp706
Rp707
(dp708
g9
I0
sg10
Nsg11
Nsg12
(lp709
sg14
I00
sg15
Nsg16
Nsg17
(lp710
sg19
Nsg20
Nsg21
Nsg22
VWed Nov 19 01:27:02 +0000 2014
p711
sg24
Nsg25
Nsg26
Vmageyer
p712
sg27
Nsg28
I28838632
sg29
Nsg30
I00
sg31
Nsg32
(lp713
g3
(g44
g5
Ntp714
Rp715
(dp716
g10
Nsg49
Nsg51
Nsg53
Nsg54
Nsg55
Nsg22
Nsg57
Nsg58
Nsg60
Nsg62
Nsg63
Nsg64
Nsg65
Nsg66
Nsg67
Nsg69
Nsg70
Nsg71
Nsg73
Nsg74
Nsg75
Nsg77
Vmageyer
p717
sg79
Nsg80
VMarlena A. Geyer
p718
sg82
Nsg84
Nsg85
I28838632
sg86
Nsbasg34
Nsg35
V534880495679856640
p719
sg37
I534877619477426176
sg38
V@mageyer thank you!! Only took me a year to finish. Haha.
p720
sg40
I00
sg41
Ven
p721
sg43
g3
(g44
g5
Ntp722
Rp723
(dp724
g10
g48
sg49
V666666
p725
sg51
Ven
p726
sg53
Nsg54
I31
sg55
I225
sg22
VMon Aug 20 15:56:55 +0000 2012
p727
sg57
I00
sg58
VMediocre wife and mother. Disney obsessed. Hobbyist photographer. Knitter. Classic Rock lover.
p728
sg60
Vhttps://pbs.twimg.com/profile_images/512621370061385728/zpyR3sNK_normal.jpeg
p729
sg62
I62
sg63
I131
sg64
Nsg65
Nsg66
I00
sg67
Vhttps://pbs.twimg.com/profile_banners/769763893/1411154181
p730
sg69
I00
sg70
I00
sg71
V2FC2EF
p731
sg73
I00
sg74
I00
sg75
Vhttp://abs.twimg.com/images/themes/theme9/bg.gif
p732
sg77
VMrsAndreazza
p733
sg79
I0
sg80
VMrs. Andreazza
p734
sg82
V252429
p735
sg84
Nsg85
I769763893
sg86
V1A1B1F
p736
sbsg88
I0
sg89
V<a href="http://twitter.com/download/iphone" rel="nofollow">Twitter for iPhone</a>
p737
sg91
(lp738
sg85
I534880495679856640
sbag3
(g4
g5
Ntp739
Rp740
(dp741
g9
I0
sg10
Nsg11
Nsg12
(lp742
g3
(g105
g5
Ntp743
Rp744
(dp745
g109
Vsweaterweather
p746
sbag3
(g105
g5
Ntp747
Rp748
(dp749
g109
Vknitter4life
p750
sbasg14
I00
sg15
Nsg16
Nsg17
(lp751
sg19
Nsg20
Nsg21
Nsg22
VWed Nov 19 01:05:02 +0000 2014
p752
sg24
Nsg25
I00
sg26
Nsg27
Nsg28
Nsg29
Nsg30
I00
sg31
Nsg32
(lp753
sg34
Nsg35
V534874959919583232
p754
sg37
Nsg38
VSweater complete!!!! #sweaterweather #knitter4life http://t.co/eMaRniaws7
p755
sg40
I00
sg41
Ven
p756
sg43
g3
(g44
g5
Ntp757
Rp758
(dp759
g10
g48
sg49
V666666
p760
sg51
Ven
p761
sg53
Nsg54
I31
sg55
I225
sg22
VMon Aug 20 15:56:55 +0000 2012
p762
sg57
I00
sg58
VMediocre wife and mother. Disney obsessed. Hobbyist photographer. Knitter. Classic Rock lover.
p763
sg60
Vhttps://pbs.twimg.com/profile_images/512621370061385728/zpyR3sNK_normal.jpeg
p764
sg62
I62
sg63
I131
sg64
Nsg65
Nsg66
I00
sg67
Vhttps://pbs.twimg.com/profile_banners/769763893/1411154181
p765
sg69
I00
sg70
I00
sg71
V2FC2EF
p766
sg73
I00
sg74
I00
sg75
Vhttp://abs.twimg.com/images/themes/theme9/bg.gif
p767
sg77
VMrsAndreazza
p768
sg79
I0
sg80
VMrs. Andreazza
p769
sg82
V252429
p770
sg84
Nsg85
I769763893
sg86
V1A1B1F
p771
sbsg88
I0
sg89
V<a href="http://instagram.com" rel="nofollow">Instagram</a>
p772
sg91
(lp773
g3
(g93
g5
Ntp774
Rp775
(dp776
g97
Vhttp://t.co/eMaRniaws7
p777
sg99
Vhttp://instagram.com/p/vj-1dANI4I/
p778
sbasg85
I534874959919583232
sbag3
(g4
g5
Ntp779
Rp780
(dp781
g9
I0
sg10
Nsg11
Nsg12
(lp782
sg14
I00
sg15
Nsg16
Nsg17
(lp783
sg19
Nsg20
Nsg21
Nsg22
VTue Nov 18 14:16:00 +0000 2014
p784
sg24
Nsg25
I00
sg26
Nsg27
Nsg28
Nsg29
Nsg30
I00
sg31
Nsg32
(lp785
sg34
Nsg35
V534711624725041153
p786
sg37
Nsg38
VHomemade fruit and nut bar. http://t.co/khB9M4Chxv
p787
sg40
I00
sg41
Ven
p788
sg43
g3
(g44
g5
Ntp789
Rp790
(dp791
g10
g48
sg49
V666666
p792
sg51
Ven
p793
sg53
Nsg54
I31
sg55
I225
sg22
VMon Aug 20 15:56:55 +0000 2012
p794
sg57
I00
sg58
VMediocre wife and mother. Disney obsessed. Hobbyist photographer. Knitter. Classic Rock lover.
p795
sg60
Vhttps://pbs.twimg.com/profile_images/512621370061385728/zpyR3sNK_normal.jpeg
p796
sg62
I62
sg63
I131
sg64
Nsg65
Nsg66
I00
sg67
Vhttps://pbs.twimg.com/profile_banners/769763893/1411154181
p797
sg69
I00
sg70
I00
sg71
V2FC2EF
p798
sg73
I00
sg74
I00
sg75
Vhttp://abs.twimg.com/images/themes/theme9/bg.gif
p799
sg77
VMrsAndreazza
p800
sg79
I0
sg80
VMrs. Andreazza
p801
sg82
V252429
p802
sg84
Nsg85
I769763893
sg86
V1A1B1F
p803
sbsg88
I0
sg89
V<a href="http://instagram.com" rel="nofollow">Instagram</a>
p804
sg91
(lp805
g3
(g93
g5
Ntp806
Rp807
(dp808
g97
Vhttp://t.co/khB9M4Chxv
p809
sg99
Vhttp://instagram.com/p/vi0jwyNI8-/
p810
sbasg85
I534711624725041153
sbaa.