(lp0
S'RobTomlinsonx'
p1
a(lp2
ccopy_reg
_reconstructor
p3
(ctwitter.status
Status
p4
c__builtin__
object
p5
Ntp6
Rp7
(dp8
S'_favorite_count'
p9
I0
sS'_location'
p10
NsS'_withheld_scope'
p11
NsS'hashtags'
p12
(lp13
sS'_truncated'
p14
I00
sS'_retweeted_status'
p15
NsS'_withheld_copyright'
p16
NsS'media'
p17
(lp18
sS'_place'
p19
NsS'_contributors'
p20
NsS'_current_user_retweet'
p21
NsS'_created_at'
p22
VWed Dec 10 22:26:35 +0000 2014
p23
sS'_scopes'
p24
NsS'_possibly_sensitive'
p25
NsS'_in_reply_to_screen_name'
p26
NsS'_coordinates'
p27
NsS'_in_reply_to_user_id'
p28
NsS'_geo'
p29
NsS'_favorited'
p30
I00
sS'_withheld_in_countries'
p31
NsS'user_mentions'
p32
(lp33
sS'_now'
p34
NsS'_id_str'
p35
NsS'_in_reply_to_status_id'
p36
NsS'_text'
p37
VHow are the VS models even real\U0001f63b
p38
sS'_retweeted'
p39
I00
sS'lang'
p40
Ven
p41
sS'_user'
p42
g3
(ctwitter.user
User
p43
g5
Ntp44
Rp45
(dp46
g10
V
p47
sS'_profile_text_color'
p48
V333333
p49
sS'_lang'
p50
Ven-gb
p51
sS'_time_zone'
p52
NsS'_followers_count'
p53
I226
sS'_statuses_count'
p54
I627
sg22
VThu Sep 19 20:01:50 +0000 2013
p55
sS'_verified'
p56
I00
sS'_description'
p57
g47
sS'_profile_image_url'
p58
Vhttps://pbs.twimg.com/profile_images/530402348406149120/Vjxa5urz_normal.jpeg
p59
sS'_friends_count'
p60
I379
sS'_favourites_count'
p61
I1022
sS'_utc_offset'
p62
NsS'_status'
p63
NsS'_protected'
p64
I00
sS'_profile_banner_url'
p65
Vhttps://pbs.twimg.com/profile_banners/1884197844/1418250544
p66
sS'_notifications'
p67
I00
sS'_profile_background_tile'
p68
I00
sS'_profile_link_color'
p69
V0084B4
p70
sS'_geo_enabled'
p71
I00
sS'_contributors_enabled'
p72
I00
sS'_profile_background_image_url'
p73
Vhttp://abs.twimg.com/images/themes/theme1/bg.png
p74
sS'_screen_name'
p75
VRobTomlinsonx
p76
sS'_listed_count'
p77
I0
sS'_name'
p78
VRobyn
p79
sS'_profile_sidebar_fill_color'
p80
VDDEEF6
p81
sS'_url'
p82
NsS'_id'
p83
I1884197844
sS'_profile_background_color'
p84
VC0DEED
p85
sbsS'_retweet_count'
p86
I0
sS'_source'
p87
V<a href="http://twitter.com/download/iphone" rel="nofollow">Twitter for iPhone</a>
p88
sS'urls'
p89
(lp90
sg83
I542807618910453762
sbag3
(g4
g5
Ntp91
Rp92
(dp93
g9
I0
sg10
Nsg11
Nsg12
(lp94
sg14
I00
sg15
Nsg16
Nsg17
(lp95
sg19
Nsg20
Nsg21
Nsg22
VWed Dec 10 22:24:48 +0000 2014
p96
sg24
Nsg25
Nsg26
Nsg27
Nsg28
Nsg29
Nsg30
I00
sg31
Nsg32
(lp97
sg34
Nsg35
Nsg36
Nsg37
VThe victoria secret fashion shows depress me more and more each year\U0001f623
p98
sg39
I00
sg40
Ven
p99
sg42
g3
(g43
g5
Ntp100
Rp101
(dp102
g10
g47
sg48
V333333
p103
sg50
Ven-gb
p104
sg52
Nsg53
I226
sg54
I627
sg22
VThu Sep 19 20:01:50 +0000 2013
p105
sg56
I00
sg57
g47
sg58
Vhttps://pbs.twimg.com/profile_images/530402348406149120/Vjxa5urz_normal.jpeg
p106
sg60
I379
sg61
I1022
sg62
Nsg63
Nsg64
I00
sg65
Vhttps://pbs.twimg.com/profile_banners/1884197844/1418250544
p107
sg67
I00
sg68
I00
sg69
V0084B4
p108
sg71
I00
sg72
I00
sg73
Vhttp://abs.twimg.com/images/themes/theme1/bg.png
p109
sg75
VRobTomlinsonx
p110
sg77
I0
sg78
VRobyn
p111
sg80
VDDEEF6
p112
sg82
Nsg83
I1884197844
sg84
VC0DEED
p113
sbsg86
I0
sg87
V<a href="http://twitter.com/download/iphone" rel="nofollow">Twitter for iPhone</a>
p114
sg89
(lp115
sg83
I542807167418781696
sbag3
(g4
g5
Ntp116
Rp117
(dp118
g9
I0
sg10
Nsg11
Nsg12
(lp119
sg14
I00
sg15
Nsg16
Nsg17
(lp120
sg19
Nsg20
Nsg21
Nsg22
VTue Dec 09 21:24:17 +0000 2014
p121
sg24
Nsg25
I00
sg26
Nsg27
Nsg28
Nsg29
Nsg30
I00
sg31
Nsg32
(lp122
sg34
Nsg35
Nsg36
Nsg37
VBY FAR ONE OF THE BEST DAYS OF MY LIFE!!! GOT TO MEET 5sos\U0001f46c\U0001f389\U0001f498 gutted we weren't aloud to take\u2026 http://t.co/LPwphUz1gI
p123
sg39
I00
sg40
Ven
p124
sg42
g3
(g43
g5
Ntp125
Rp126
(dp127
g10
g47
sg48
V333333
p128
sg50
Ven-gb
p129
sg52
Nsg53
I226
sg54
I627
sg22
VThu Sep 19 20:01:50 +0000 2013
p130
sg56
I00
sg57
g47
sg58
Vhttps://pbs.twimg.com/profile_images/530402348406149120/Vjxa5urz_normal.jpeg
p131
sg60
I379
sg61
I1022
sg62
Nsg63
Nsg64
I00
sg65
Vhttps://pbs.twimg.com/profile_banners/1884197844/1418250544
p132
sg67
I00
sg68
I00
sg69
V0084B4
p133
sg71
I00
sg72
I00
sg73
Vhttp://abs.twimg.com/images/themes/theme1/bg.png
p134
sg75
VRobTomlinsonx
p135
sg77
I0
sg78
VRobyn
p136
sg80
VDDEEF6
p137
sg82
Nsg83
I1884197844
sg84
VC0DEED
p138
sbsg86
I0
sg87
V<a href="http://instagram.com" rel="nofollow">Instagram</a>
p139
sg89
(lp140
g3
(ctwitter.url
Url
p141
g5
Ntp142
Rp143
(dp144
S'url'
p145
Vhttp://t.co/LPwphUz1gI
p146
sS'expanded_url'
p147
Vhttp://instagram.com/p/wZnVfjt9CF/
p148
sbasg83
I542429550878011392
sbag3
(g4
g5
Ntp149
Rp150
(dp151
g9
I0
sg10
Nsg11
Nsg12
(lp152
sg14
I00
sg15
Nsg16
Nsg17
(lp153
sg19
Nsg20
Nsg21
Nsg22
VTue Dec 09 19:54:11 +0000 2014
p154
sg24
Nsg25
Nsg26
Nsg27
Nsg28
Nsg29
Nsg30
I00
sg31
Nsg32
(lp155
sg34
Nsg35
Nsg36
Nsg37
VCAN OFFICIALLY SAY THAT IVE MET 5SOS
p156
sg39
I00
sg40
Ven
p157
sg42
g3
(g43
g5
Ntp158
Rp159
(dp160
g10
g47
sg48
V333333
p161
sg50
Ven-gb
p162
sg52
Nsg53
I226
sg54
I627
sg22
VThu Sep 19 20:01:50 +0000 2013
p163
sg56
I00
sg57
g47
sg58
Vhttps://pbs.twimg.com/profile_images/530402348406149120/Vjxa5urz_normal.jpeg
p164
sg60
I379
sg61
I1022
sg62
Nsg63
Nsg64
I00
sg65
Vhttps://pbs.twimg.com/profile_banners/1884197844/1418250544
p165
sg67
I00
sg68
I00
sg69
V0084B4
p166
sg71
I00
sg72
I00
sg73
Vhttp://abs.twimg.com/images/themes/theme1/bg.png
p167
sg75
VRobTomlinsonx
p168
sg77
I0
sg78
VRobyn
p169
sg80
VDDEEF6
p170
sg82
Nsg83
I1884197844
sg84
VC0DEED
p171
sbsg86
I0
sg87
V<a href="http://twitter.com/download/iphone" rel="nofollow">Twitter for iPhone</a>
p172
sg89
(lp173
sg83
I542406877540126721
sbag3
(g4
g5
Ntp174
Rp175
(dp176
g9
I0
sg10
Nsg11
Nsg12
(lp177
sg14
I00
sg15
Nsg16
Nsg17
(lp178
sg19
Nsg20
Nsg21
Nsg22
VSat Dec 06 11:37:16 +0000 2014
p179
sg24
Nsg25
Nsg26
Nsg27
Nsg28
Nsg29
Nsg30
I00
sg31
Nsg32
(lp180
sg34
Nsg35
Nsg36
Nsg37
VAway for Christmas and new year\U0001f389\U0001f1fa\U0001f1f8
p181
sg39
I00
sg40
Ven
p182
sg42
g3
(g43
g5
Ntp183
Rp184
(dp185
g10
g47
sg48
V333333
p186
sg50
Ven-gb
p187
sg52
Nsg53
I226
sg54
I627
sg22
VThu Sep 19 20:01:50 +0000 2013
p188
sg56
I00
sg57
g47
sg58
Vhttps://pbs.twimg.com/profile_images/530402348406149120/Vjxa5urz_normal.jpeg
p189
sg60
I379
sg61
I1022
sg62
Nsg63
Nsg64
I00
sg65
Vhttps://pbs.twimg.com/profile_banners/1884197844/1418250544
p190
sg67
I00
sg68
I00
sg69
V0084B4
p191
sg71
I00
sg72
I00
sg73
Vhttp://abs.twimg.com/images/themes/theme1/bg.png
p192
sg75
VRobTomlinsonx
p193
sg77
I0
sg78
VRobyn
p194
sg80
VDDEEF6
p195
sg82
Nsg83
I1884197844
sg84
VC0DEED
p196
sbsg86
I0
sg87
V<a href="http://twitter.com/download/iphone" rel="nofollow">Twitter for iPhone</a>
p197
sg89
(lp198
sg83
I541194659599753216
sbag3
(g4
g5
Ntp199
Rp200
(dp201
g9
I0
sg10
Nsg11
Nsg12
(lp202
sg14
I00
sg15
Nsg16
Nsg17
(lp203
sg19
Nsg20
Nsg21
Nsg22
VTue Dec 02 19:25:23 +0000 2014
p204
sg24
Nsg25
Nsg26
Nsg27
Nsg28
Nsg29
Nsg30
I00
sg31
Nsg32
(lp205
sg34
Nsg35
Nsg36
Nsg37
VWould pay someone to dry my hair for me\U0001f634
p206
sg39
I00
sg40
Ven
p207
sg42
g3
(g43
g5
Ntp208
Rp209
(dp210
g10
g47
sg48
V333333
p211
sg50
Ven-gb
p212
sg52
Nsg53
I226
sg54
I627
sg22
VThu Sep 19 20:01:50 +0000 2013
p213
sg56
I00
sg57
g47
sg58
Vhttps://pbs.twimg.com/profile_images/530402348406149120/Vjxa5urz_normal.jpeg
p214
sg60
I379
sg61
I1022
sg62
Nsg63
Nsg64
I00
sg65
Vhttps://pbs.twimg.com/profile_banners/1884197844/1418250544
p215
sg67
I00
sg68
I00
sg69
V0084B4
p216
sg71
I00
sg72
I00
sg73
Vhttp://abs.twimg.com/images/themes/theme1/bg.png
p217
sg75
VRobTomlinsonx
p218
sg77
I0
sg78
VRobyn
p219
sg80
VDDEEF6
p220
sg82
Nsg83
I1884197844
sg84
VC0DEED
p221
sbsg86
I0
sg87
V<a href="http://twitter.com/download/iphone" rel="nofollow">Twitter for iPhone</a>
p222
sg89
(lp223
sg83
I539862913637679104
sbag3
(g4
g5
Ntp224
Rp225
(dp226
g9
I0
sg10
Nsg11
Nsg12
(lp227
sg14
I00
sg15
Nsg16
Nsg17
(lp228
sg19
Nsg20
Nsg21
Nsg22
VSun Nov 30 18:59:53 +0000 2014
p229
sg24
Nsg25
Nsg26
Nsg27
Nsg28
Nsg29
Nsg30
I00
sg31
Nsg32
(lp230
sg34
Nsg35
Nsg36
Nsg37
VWhere did the weekend go
p231
sg39
I00
sg40
Ven
p232
sg42
g3
(g43
g5
Ntp233
Rp234
(dp235
g10
g47
sg48
V333333
p236
sg50
Ven-gb
p237
sg52
Nsg53
I226
sg54
I627
sg22
VThu Sep 19 20:01:50 +0000 2013
p238
sg56
I00
sg57
g47
sg58
Vhttps://pbs.twimg.com/profile_images/530402348406149120/Vjxa5urz_normal.jpeg
p239
sg60
I379
sg61
I1022
sg62
Nsg63
Nsg64
I00
sg65
Vhttps://pbs.twimg.com/profile_banners/1884197844/1418250544
p240
sg67
I00
sg68
I00
sg69
V0084B4
p241
sg71
I00
sg72
I00
sg73
Vhttp://abs.twimg.com/images/themes/theme1/bg.png
p242
sg75
VRobTomlinsonx
p243
sg77
I0
sg78
VRobyn
p244
sg80
VDDEEF6
p245
sg82
Nsg83
I1884197844
sg84
VC0DEED
p246
sbsg86
I0
sg87
V<a href="http://twitter.com/download/iphone" rel="nofollow">Twitter for iPhone</a>
p247
sg89
(lp248
sg83
I539131721258909696
sbag3
(g4
g5
Ntp249
Rp250
(dp251
g9
I0
sg10
Nsg11
Nsg12
(lp252
sg14
I00
sg15
Nsg16
Nsg17
(lp253
sg19
Nsg20
Nsg21
Nsg22
VSun Nov 30 13:35:37 +0000 2014
p254
sg24
Nsg25
Nsg26
Nsg27
Nsg28
Nsg29
Nsg30
I00
sg31
Nsg32
(lp255
sg34
Nsg35
Nsg36
Nsg37
VMickeys twice upon a Christmas will always be from favourite christmas film\U0001f385\U0001f384\U0001f381
p256
sg39
I00
sg40
Ven
p257
sg42
g3
(g43
g5
Ntp258
Rp259
(dp260
g10
g47
sg48
V333333
p261
sg50
Ven-gb
p262
sg52
Nsg53
I226
sg54
I627
sg22
VThu Sep 19 20:01:50 +0000 2013
p263
sg56
I00
sg57
g47
sg58
Vhttps://pbs.twimg.com/profile_images/530402348406149120/Vjxa5urz_normal.jpeg
p264
sg60
I379
sg61
I1022
sg62
Nsg63
Nsg64
I00
sg65
Vhttps://pbs.twimg.com/profile_banners/1884197844/1418250544
p265
sg67
I00
sg68
I00
sg69
V0084B4
p266
sg71
I00
sg72
I00
sg73
Vhttp://abs.twimg.com/images/themes/theme1/bg.png
p267
sg75
VRobTomlinsonx
p268
sg77
I0
sg78
VRobyn
p269
sg80
VDDEEF6
p270
sg82
Nsg83
I1884197844
sg84
VC0DEED
p271
sbsg86
I0
sg87
V<a href="http://twitter.com/download/iphone" rel="nofollow">Twitter for iPhone</a>
p272
sg89
(lp273
sg83
I539050116800581632
sbag3
(g4
g5
Ntp274
Rp275
(dp276
g9
I2
sg10
Nsg11
Nsg12
(lp277
sg14
I00
sg15
Nsg16
Nsg17
(lp278
sg19
Nsg20
Nsg21
Nsg22
VThu Nov 27 15:55:29 +0000 2014
p279
sg24
Nsg25
Nsg26
Nsg27
Nsg28
Nsg29
Nsg30
I00
sg31
Nsg32
(lp280
sg34
Nsg35
Nsg36
Nsg37
VLove love love daddy day care\u263a\ufe0f
p281
sg39
I00
sg40
Ven
p282
sg42
g3
(g43
g5
Ntp283
Rp284
(dp285
g10
g47
sg48
V333333
p286
sg50
Ven-gb
p287
sg52
Nsg53
I226
sg54
I627
sg22
VThu Sep 19 20:01:50 +0000 2013
p288
sg56
I00
sg57
g47
sg58
Vhttps://pbs.twimg.com/profile_images/530402348406149120/Vjxa5urz_normal.jpeg
p289
sg60
I379
sg61
I1022
sg62
Nsg63
Nsg64
I00
sg65
Vhttps://pbs.twimg.com/profile_banners/1884197844/1418250544
p290
sg67
I00
sg68
I00
sg69
V0084B4
p291
sg71
I00
sg72
I00
sg73
Vhttp://abs.twimg.com/images/themes/theme1/bg.png
p292
sg75
VRobTomlinsonx
p293
sg77
I0
sg78
VRobyn
p294
sg80
VDDEEF6
p295
sg82
Nsg83
I1884197844
sg84
VC0DEED
p296
sbsg86
I0
sg87
V<a href="http://twitter.com/download/iphone" rel="nofollow">Twitter for iPhone</a>
p297
sg89
(lp298
sg83
I537998153501650944
sbag3
(g4
g5
Ntp299
Rp300
(dp301
g9
I0
sg10
Nsg11
Nsg12
(lp302
sg14
I00
sg15
Nsg16
Nsg17
(lp303
sg19
Nsg20
Nsg21
Nsg22
VFri Nov 21 23:49:22 +0000 2014
p304
sg24
Nsg25
Nsg26
Nsg27
Nsg28
Nsg29
Nsg30
I00
sg31
Nsg32
(lp305
sg34
Nsg35
Nsg36
Nsg37
VDesperately need a lie in
p306
sg39
I00
sg40
Ven
p307
sg42
g3
(g43
g5
Ntp308
Rp309
(dp310
g10
g47
sg48
V333333
p311
sg50
Ven-gb
p312
sg52
Nsg53
I226
sg54
I627
sg22
VThu Sep 19 20:01:50 +0000 2013
p313
sg56
I00
sg57
g47
sg58
Vhttps://pbs.twimg.com/profile_images/530402348406149120/Vjxa5urz_normal.jpeg
p314
sg60
I379
sg61
I1022
sg62
Nsg63
Nsg64
I00
sg65
Vhttps://pbs.twimg.com/profile_banners/1884197844/1418250544
p315
sg67
I00
sg68
I00
sg69
V0084B4
p316
sg71
I00
sg72
I00
sg73
Vhttp://abs.twimg.com/images/themes/theme1/bg.png
p317
sg75
VRobTomlinsonx
p318
sg77
I0
sg78
VRobyn
p319
sg80
VDDEEF6
p320
sg82
Nsg83
I1884197844
sg84
VC0DEED
p321
sbsg86
I1
sg87
V<a href="http://twitter.com/download/iphone" rel="nofollow">Twitter for iPhone</a>
p322
sg89
(lp323
sg83
I535943079908622336
sbag3
(g4
g5
Ntp324
Rp325
(dp326
g9
I0
sg10
Nsg11
Nsg12
(lp327
sg14
I00
sg15
Nsg16
Nsg17
(lp328
sg19
Nsg20
Nsg21
Nsg22
VMon Nov 17 18:34:45 +0000 2014
p329
sg24
Nsg25
Nsg26
Nsg27
Nsg28
Nsg29
Nsg30
I00
sg31
Nsg32
(lp330
sg34
Nsg35
Nsg36
Nsg37
VIt's only Monday and I already want this week to be over
p331
sg39
I00
sg40
Ven
p332
sg42
g3
(g43
g5
Ntp333
Rp334
(dp335
g10
g47
sg48
V333333
p336
sg50
Ven-gb
p337
sg52
Nsg53
I226
sg54
I627
sg22
VThu Sep 19 20:01:50 +0000 2013
p338
sg56
I00
sg57
g47
sg58
Vhttps://pbs.twimg.com/profile_images/530402348406149120/Vjxa5urz_normal.jpeg
p339
sg60
I379
sg61
I1022
sg62
Nsg63
Nsg64
I00
sg65
Vhttps://pbs.twimg.com/profile_banners/1884197844/1418250544
p340
sg67
I00
sg68
I00
sg69
V0084B4
p341
sg71
I00
sg72
I00
sg73
Vhttp://abs.twimg.com/images/themes/theme1/bg.png
p342
sg75
VRobTomlinsonx
p343
sg77
I0
sg78
VRobyn
p344
sg80
VDDEEF6
p345
sg82
Nsg83
I1884197844
sg84
VC0DEED
p346
sbsg86
I0
sg87
V<a href="http://twitter.com/download/iphone" rel="nofollow">Twitter for iPhone</a>
p347
sg89
(lp348
sg83
I534414352481546241
sbag3
(g4
g5
Ntp349
Rp350
(dp351
g9
I1
sg10
Nsg11
Nsg12
(lp352
sg14
I00
sg15
Nsg16
Nsg17
(lp353
sg19
Nsg20
Nsg21
Nsg22
VSun Nov 16 21:26:37 +0000 2014
p354
sg24
Nsg25
Nsg26
Nsg27
Nsg28
Nsg29
Nsg30
I00
sg31
Nsg32
(lp355
sg34
Nsg35
Nsg36
Nsg37
VWhat would im a celeb be without ant &amp; dec
p356
sg39
I00
sg40
Ven
p357
sg42
g3
(g43
g5
Ntp358
Rp359
(dp360
g10
g47
sg48
V333333
p361
sg50
Ven-gb
p362
sg52
Nsg53
I226
sg54
I627
sg22
VThu Sep 19 20:01:50 +0000 2013
p363
sg56
I00
sg57
g47
sg58
Vhttps://pbs.twimg.com/profile_images/530402348406149120/Vjxa5urz_normal.jpeg
p364
sg60
I379
sg61
I1022
sg62
Nsg63
Nsg64
I00
sg65
Vhttps://pbs.twimg.com/profile_banners/1884197844/1418250544
p365
sg67
I00
sg68
I00
sg69
V0084B4
p366
sg71
I00
sg72
I00
sg73
Vhttp://abs.twimg.com/images/themes/theme1/bg.png
p367
sg75
VRobTomlinsonx
p368
sg77
I0
sg78
VRobyn
p369
sg80
VDDEEF6
p370
sg82
Nsg83
I1884197844
sg84
VC0DEED
p371
sbsg86
I0
sg87
V<a href="http://twitter.com/download/iphone" rel="nofollow">Twitter for iPhone</a>
p372
sg89
(lp373
sg83
I534095218526920704
sbag3
(g4
g5
Ntp374
Rp375
(dp376
g9
I0
sg10
Nsg11
Nsg12
(lp377
sg14
I00
sg15
Nsg16
Nsg17
(lp378
sg19
Nsg20
Nsg21
Nsg22
VSun Nov 16 12:06:57 +0000 2014
p379
sg24
Nsg25
Nsg26
Nsg27
Nsg28
Nsg29
Nsg30
I00
sg31
Nsg32
(lp380
sg34
Nsg35
Nsg36
Nsg37
VChristmas needs to come quick\U0001f629
p381
sg39
I00
sg40
Ven
p382
sg42
g3
(g43
g5
Ntp383
Rp384
(dp385
g10
g47
sg48
V333333
p386
sg50
Ven-gb
p387
sg52
Nsg53
I226
sg54
I627
sg22
VThu Sep 19 20:01:50 +0000 2013
p388
sg56
I00
sg57
g47
sg58
Vhttps://pbs.twimg.com/profile_images/530402348406149120/Vjxa5urz_normal.jpeg
p389
sg60
I379
sg61
I1022
sg62
Nsg63
Nsg64
I00
sg65
Vhttps://pbs.twimg.com/profile_banners/1884197844/1418250544
p390
sg67
I00
sg68
I00
sg69
V0084B4
p391
sg71
I00
sg72
I00
sg73
Vhttp://abs.twimg.com/images/themes/theme1/bg.png
p392
sg75
VRobTomlinsonx
p393
sg77
I0
sg78
VRobyn
p394
sg80
VDDEEF6
p395
sg82
Nsg83
I1884197844
sg84
VC0DEED
p396
sbsg86
I0
sg87
V<a href="http://twitter.com/download/iphone" rel="nofollow">Twitter for iPhone</a>
p397
sg89
(lp398
sg83
I533954373509206016
sbag3
(g4
g5
Ntp399
Rp400
(dp401
g9
I0
sg10
Nsg11
Nsg12
(lp402
sg14
I00
sg15
Nsg16
Nsg17
(lp403
sg19
Nsg20
Nsg21
Nsg22
VFri Nov 14 17:13:04 +0000 2014
p404
sg24
Nsg25
Nsg26
Nsg27
Nsg28
Nsg29
Nsg30
I00
sg31
Nsg32
(lp405
sg34
Nsg35
Nsg36
Nsg37
VFriday feelin'\U0001f483\U0001f483
p406
sg39
I00
sg40
Ven
p407
sg42
g3
(g43
g5
Ntp408
Rp409
(dp410
g10
g47
sg48
V333333
p411
sg50
Ven-gb
p412
sg52
Nsg53
I226
sg54
I627
sg22
VThu Sep 19 20:01:50 +0000 2013
p413
sg56
I00
sg57
g47
sg58
Vhttps://pbs.twimg.com/profile_images/530402348406149120/Vjxa5urz_normal.jpeg
p414
sg60
I379
sg61
I1022
sg62
Nsg63
Nsg64
I00
sg65
Vhttps://pbs.twimg.com/profile_banners/1884197844/1418250544
p415
sg67
I00
sg68
I00
sg69
V0084B4
p416
sg71
I00
sg72
I00
sg73
Vhttp://abs.twimg.com/images/themes/theme1/bg.png
p417
sg75
VRobTomlinsonx
p418
sg77
I0
sg78
VRobyn
p419
sg80
VDDEEF6
p420
sg82
Nsg83
I1884197844
sg84
VC0DEED
p421
sbsg86
I0
sg87
V<a href="http://twitter.com/download/iphone" rel="nofollow">Twitter for iPhone</a>
p422
sg89
(lp423
sg83
I533306632848285696
sbag3
(g4
g5
Ntp424
Rp425
(dp426
g9
I1
sg10
Nsg11
Nsg12
(lp427
sg14
I00
sg15
Nsg16
Nsg17
(lp428
sg19
Nsg20
Nsg21
Nsg22
VSat Nov 08 22:43:11 +0000 2014
p429
sg24
Nsg25
Nsg26
Nsg27
Nsg28
Nsg29
Nsg30
I00
sg31
Nsg32
(lp430
sg34
Nsg35
Nsg36
Nsg37
VNo way is it Christmas next month\U0001f633\U0001f633
p431
sg39
I00
sg40
Ven
p432
sg42
g3
(g43
g5
Ntp433
Rp434
(dp435
g10
g47
sg48
V333333
p436
sg50
Ven-gb
p437
sg52
Nsg53
I226
sg54
I627
sg22
VThu Sep 19 20:01:50 +0000 2013
p438
sg56
I00
sg57
g47
sg58
Vhttps://pbs.twimg.com/profile_images/530402348406149120/Vjxa5urz_normal.jpeg
p439
sg60
I379
sg61
I1022
sg62
Nsg63
Nsg64
I00
sg65
Vhttps://pbs.twimg.com/profile_banners/1884197844/1418250544
p440
sg67
I00
sg68
I00
sg69
V0084B4
p441
sg71
I00
sg72
I00
sg73
Vhttp://abs.twimg.com/images/themes/theme1/bg.png
p442
sg75
VRobTomlinsonx
p443
sg77
I0
sg78
VRobyn
p444
sg80
VDDEEF6
p445
sg82
Nsg83
I1884197844
sg84
VC0DEED
p446
sbsg86
I0
sg87
V<a href="http://twitter.com/download/iphone" rel="nofollow">Twitter for iPhone</a>
p447
sg89
(lp448
sg83
I531215384121475073
sbag3
(g4
g5
Ntp449
Rp450
(dp451
g9
I1
sg10
Nsg11
Nsg12
(lp452
sg14
I00
sg15
Nsg16
Nsg17
(lp453
sg19
Nsg20
Nsg21
Nsg22
VThu Nov 06 20:50:47 +0000 2014
p454
sg24
Nsg25
Nsg26
Nsg27
Nsg28
Nsg29
Nsg30
I00
sg31
Nsg32
(lp455
sg34
Nsg35
Nsg36
Nsg37
VSpending my thursday night crying my eyes out over the walking dead\U0001f602\U0001f606
p456
sg39
I00
sg40
Ven
p457
sg42
g3
(g43
g5
Ntp458
Rp459
(dp460
g10
g47
sg48
V333333
p461
sg50
Ven-gb
p462
sg52
Nsg53
I226
sg54
I627
sg22
VThu Sep 19 20:01:50 +0000 2013
p463
sg56
I00
sg57
g47
sg58
Vhttps://pbs.twimg.com/profile_images/530402348406149120/Vjxa5urz_normal.jpeg
p464
sg60
I379
sg61
I1022
sg62
Nsg63
Nsg64
I00
sg65
Vhttps://pbs.twimg.com/profile_banners/1884197844/1418250544
p465
sg67
I00
sg68
I00
sg69
V0084B4
p466
sg71
I00
sg72
I00
sg73
Vhttp://abs.twimg.com/images/themes/theme1/bg.png
p467
sg75
VRobTomlinsonx
p468
sg77
I0
sg78
VRobyn
p469
sg80
VDDEEF6
p470
sg82
Nsg83
I1884197844
sg84
VC0DEED
p471
sbsg86
I0
sg87
V<a href="http://twitter.com/download/iphone" rel="nofollow">Twitter for iPhone</a>
p472
sg89
(lp473
sg83
I530462322851323905
sbag3
(g4
g5
Ntp474
Rp475
(dp476
g9
I0
sg10
Nsg11
Nsg12
(lp477
sg14
I00
sg15
Nsg16
Nsg17
(lp478
sg19
Nsg20
Nsg21
Nsg22
VThu Nov 06 16:52:59 +0000 2014
p479
sg24
Nsg25
Nsg26
Nsg27
Nsg28
Nsg29
Nsg30
I00
sg31
Nsg32
(lp480
sg34
Nsg35
Nsg36
Nsg37
VThis house is absolutely freezing\U0001f616
p481
sg39
I00
sg40
Ven
p482
sg42
g3
(g43
g5
Ntp483
Rp484
(dp485
g10
g47
sg48
V333333
p486
sg50
Ven-gb
p487
sg52
Nsg53
I226
sg54
I627
sg22
VThu Sep 19 20:01:50 +0000 2013
p488
sg56
I00
sg57
g47
sg58
Vhttps://pbs.twimg.com/profile_images/530402348406149120/Vjxa5urz_normal.jpeg
p489
sg60
I379
sg61
I1022
sg62
Nsg63
Nsg64
I00
sg65
Vhttps://pbs.twimg.com/profile_banners/1884197844/1418250544
p490
sg67
I00
sg68
I00
sg69
V0084B4
p491
sg71
I00
sg72
I00
sg73
Vhttp://abs.twimg.com/images/themes/theme1/bg.png
p492
sg75
VRobTomlinsonx
p493
sg77
I0
sg78
VRobyn
p494
sg80
VDDEEF6
p495
sg82
Nsg83
I1884197844
sg84
VC0DEED
p496
sbsg86
I1
sg87
V<a href="http://twitter.com/download/iphone" rel="nofollow">Twitter for iPhone</a>
p497
sg89
(lp498
sg83
I530402476928032768
sbag3
(g4
g5
Ntp499
Rp500
(dp501
g9
I0
sg10
Nsg11
Nsg12
(lp502
sg14
I00
sg15
Nsg16
Nsg17
(lp503
sg19
Nsg20
Nsg21
Nsg22
VSun Nov 02 13:46:11 +0000 2014
p504
sg24
Nsg25
Nsg26
Nsg27
Nsg28
Nsg29
Nsg30
I00
sg31
Nsg32
(lp505
sg34
Nsg35
Nsg36
Nsg37
VNot prepared for these early mornings\U0001f62d
p506
sg39
I00
sg40
Ven
p507
sg42
g3
(g43
g5
Ntp508
Rp509
(dp510
g10
g47
sg48
V333333
p511
sg50
Ven-gb
p512
sg52
Nsg53
I226
sg54
I627
sg22
VThu Sep 19 20:01:50 +0000 2013
p513
sg56
I00
sg57
g47
sg58
Vhttps://pbs.twimg.com/profile_images/530402348406149120/Vjxa5urz_normal.jpeg
p514
sg60
I379
sg61
I1022
sg62
Nsg63
Nsg64
I00
sg65
Vhttps://pbs.twimg.com/profile_banners/1884197844/1418250544
p515
sg67
I00
sg68
I00
sg69
V0084B4
p516
sg71
I00
sg72
I00
sg73
Vhttp://abs.twimg.com/images/themes/theme1/bg.png
p517
sg75
VRobTomlinsonx
p518
sg77
I0
sg78
VRobyn
p519
sg80
VDDEEF6
p520
sg82
Nsg83
I1884197844
sg84
VC0DEED
p521
sbsg86
I0
sg87
V<a href="http://twitter.com/download/iphone" rel="nofollow">Twitter for iPhone</a>
p522
sg89
(lp523
sg83
I528905917103108097
sbag3
(g4
g5
Ntp524
Rp525
(dp526
g9
I0
sg10
Nsg11
Nsg12
(lp527
sg14
I00
sg15
Nsg16
Nsg17
(lp528
sg19
Nsg20
Nsg21
Nsg22
VFri Oct 31 11:17:56 +0000 2014
p529
sg24
Nsg25
Nsg26
Nsg27
Nsg28
Nsg29
Nsg30
I00
sg31
Nsg32
(lp530
sg34
Nsg35
Nsg36
Nsg37
VHappy halloween\U0001f383\U0001f47b
p531
sg39
I00
sg40
Ven
p532
sg42
g3
(g43
g5
Ntp533
Rp534
(dp535
g10
g47
sg48
V333333
p536
sg50
Ven-gb
p537
sg52
Nsg53
I226
sg54
I627
sg22
VThu Sep 19 20:01:50 +0000 2013
p538
sg56
I00
sg57
g47
sg58
Vhttps://pbs.twimg.com/profile_images/530402348406149120/Vjxa5urz_normal.jpeg
p539
sg60
I379
sg61
I1022
sg62
Nsg63
Nsg64
I00
sg65
Vhttps://pbs.twimg.com/profile_banners/1884197844/1418250544
p540
sg67
I00
sg68
I00
sg69
V0084B4
p541
sg71
I00
sg72
I00
sg73
Vhttp://abs.twimg.com/images/themes/theme1/bg.png
p542
sg75
VRobTomlinsonx
p543
sg77
I0
sg78
VRobyn
p544
sg80
VDDEEF6
p545
sg82
Nsg83
I1884197844
sg84
VC0DEED
p546
sbsg86
I1
sg87
V<a href="http://twitter.com/download/iphone" rel="nofollow">Twitter for iPhone</a>
p547
sg89
(lp548
sg83
I528143832022388736
sbag3
(g4
g5
Ntp549
Rp550
(dp551
g9
I0
sg10
Nsg11
Nsg12
(lp552
sg14
I00
sg15
Nsg16
Nsg17
(lp553
sg19
Nsg20
Nsg21
Nsg22
VFri Oct 31 00:00:03 +0000 2014
p554
sg24
Nsg25
Nsg26
Nsg27
Nsg28
Nsg29
Nsg30
I00
sg31
Nsg32
(lp555
sg34
Nsg35
Nsg36
Nsg37
VWhen do I not crave chocolate
p556
sg39
I00
sg40
Ven
p557
sg42
g3
(g43
g5
Ntp558
Rp559
(dp560
g10
g47
sg48
V333333
p561
sg50
Ven-gb
p562
sg52
Nsg53
I226
sg54
I627
sg22
VThu Sep 19 20:01:50 +0000 2013
p563
sg56
I00
sg57
g47
sg58
Vhttps://pbs.twimg.com/profile_images/530402348406149120/Vjxa5urz_normal.jpeg
p564
sg60
I379
sg61
I1022
sg62
Nsg63
Nsg64
I00
sg65
Vhttps://pbs.twimg.com/profile_banners/1884197844/1418250544
p565
sg67
I00
sg68
I00
sg69
V0084B4
p566
sg71
I00
sg72
I00
sg73
Vhttp://abs.twimg.com/images/themes/theme1/bg.png
p567
sg75
VRobTomlinsonx
p568
sg77
I0
sg78
VRobyn
p569
sg80
VDDEEF6
p570
sg82
Nsg83
I1884197844
sg84
VC0DEED
p571
sbsg86
I1
sg87
V<a href="http://twitter.com/download/iphone" rel="nofollow">Twitter for iPhone</a>
p572
sg89
(lp573
sg83
I527973236618043393
sbaa.