(lp0
S'BBSPMaine'
p1
a(lp2
ccopy_reg
_reconstructor
p3
(ctwitter.status
Status
p4
c__builtin__
object
p5
Ntp6
Rp7
(dp8
S'_favorite_count'
p9
I0
sS'_location'
p10
NsS'_withheld_scope'
p11
NsS'hashtags'
p12
(lp13
g3
(ctwitter.hashtag
Hashtag
p14
g5
Ntp15
Rp16
(dp17
S'text'
p18
VWeAreMaine
p19
sbasS'_truncated'
p20
I00
sS'_retweeted_status'
p21
g3
(g4
g5
Ntp22
Rp23
(dp24
g9
I3
sg10
Nsg11
Nsg12
(lp25
g3
(g14
g5
Ntp26
Rp27
(dp28
g18
VWeAreMaine
p29
sbasg20
I00
sg21
NsS'_withheld_copyright'
p30
NsS'media'
p31
(lp32
(dp33
Vexpanded_url
p34
Vhttp://twitter.com/BlackBearsWBB/status/543776241015603200/photo/1
p35
sVdisplay_url
p36
Vpic.twitter.com/TqGqu2Avu1
p37
sVurl
p38
Vhttp://t.co/TqGqu2Avu1
p39
sVmedia_url_https
p40
Vhttps://pbs.twimg.com/media/B4vhmoBCEAEXBFT.jpg
p41
sVid_str
p42
V543776233721303041
p43
sVsizes
p44
(dp45
Vsmall
p46
(dp47
Vh
p48
I340
sVresize
p49
Vfit
p50
sVw
p51
I340
ssVlarge
p52
(dp53
Vh
p54
I640
sVresize
p55
Vfit
p56
sVw
p57
I640
ssVmedium
p58
(dp59
Vh
p60
I600
sVresize
p61
Vfit
p62
sVw
p63
I600
ssVthumb
p64
(dp65
Vh
p66
I150
sVresize
p67
Vcrop
p68
sVw
p69
I150
sssVindices
p70
(lp71
I36
aI58
asVtype
p72
Vphoto
p73
sVid
p74
I543776233721303041
sVmedia_url
p75
Vhttp://pbs.twimg.com/media/B4vhmoBCEAEXBFT.jpg
p76
sasS'_place'
p77
NsS'_contributors'
p78
NsS'_current_user_retweet'
p79
NsS'_created_at'
p80
VSat Dec 13 14:35:33 +0000 2014
p81
sS'_scopes'
p82
NsS'_possibly_sensitive'
p83
I00
sS'_in_reply_to_screen_name'
p84
NsS'_coordinates'
p85
NsS'_in_reply_to_user_id'
p86
NsS'_geo'
p87
NsS'_favorited'
p88
I00
sS'_withheld_in_countries'
p89
NsS'user_mentions'
p90
(lp91
g3
(ctwitter.user
User
p92
g5
Ntp93
Rp94
(dp95
g10
NsS'_profile_text_color'
p96
NsS'_lang'
p97
NsS'_time_zone'
p98
NsS'_followers_count'
p99
NsS'_statuses_count'
p100
Nsg80
NsS'_verified'
p101
NsS'_description'
p102
NsS'_profile_image_url'
p103
NsS'_friends_count'
p104
NsS'_favourites_count'
p105
NsS'_utc_offset'
p106
NsS'_status'
p107
NsS'_protected'
p108
NsS'_profile_banner_url'
p109
NsS'_notifications'
p110
NsS'_profile_background_tile'
p111
NsS'_profile_link_color'
p112
NsS'_geo_enabled'
p113
NsS'_contributors_enabled'
p114
NsS'_profile_background_image_url'
p115
NsS'_screen_name'
p116
VCICBangor
p117
sS'_listed_count'
p118
NsS'_name'
p119
VCrossInsuranceCenter
p120
sS'_profile_sidebar_fill_color'
p121
NsS'_url'
p122
NsS'_id'
p123
I1521013687
sS'_profile_background_color'
p124
NsbasS'_now'
p125
NsS'_id_str'
p126
NsS'_in_reply_to_status_id'
p127
NsS'_text'
p128
VSee YOU @CICBangor !!!  #WeAreMaine http://t.co/TqGqu2Avu1
p129
sS'_retweeted'
p130
I00
sS'lang'
p131
Ven
p132
sS'_user'
p133
g3
(g92
g5
Ntp134
Rp135
(dp136
g10
VOrono, Maine
p137
sg96
V333333
p138
sg97
Ven
p139
sg98
VEastern Time (US & Canada)
p140
sg99
I1299
sg100
I3046
sg80
VThu Jun 04 19:09:25 +0000 2009
p141
sg101
I00
sg102
VThe Official Twitter Account of the University of Maine Women's Basketball Team: Embrace the Process
p142
sg103
Vhttps://pbs.twimg.com/profile_images/529700625828036608/rmFRe3s8_normal.jpeg
p143
sg104
I48
sg105
I57
sg106
I-18000
sg107
Nsg108
I00
sg109
Vhttps://pbs.twimg.com/profile_banners/44691693/1413831640
p144
sg110
I00
sg111
I00
sg112
V0084B4
p145
sg113
I01
sg114
I00
sg115
Vhttp://pbs.twimg.com/profile_background_images/524274132620296192/3Idz0p6h.jpeg
p146
sg116
VBlackBearsWBB
p147
sg118
I38
sg119
VMaine Women's Hoops
p148
sg121
VDDFFCC
p149
sg122
Vhttp://t.co/wduzrKA6MI
p150
sg123
I44691693
sg124
V9AE4E8
p151
sbsS'_retweet_count'
p152
I5
sS'_source'
p153
V<a href="http://twitter.com/download/iphone" rel="nofollow">Twitter for iPhone</a>
p154
sS'urls'
p155
(lp156
sg123
I543776241015603200
sbsg30
Nsg31
(lp157
(dp158
Vsource_user_id
p159
I44691693
sVsource_status_id_str
p160
V543776241015603200
p161
sVexpanded_url
p162
Vhttp://twitter.com/BlackBearsWBB/status/543776241015603200/photo/1
p163
sVdisplay_url
p164
Vpic.twitter.com/TqGqu2Avu1
p165
sVurl
p166
Vhttp://t.co/TqGqu2Avu1
p167
sVmedia_url_https
p168
Vhttps://pbs.twimg.com/media/B4vhmoBCEAEXBFT.jpg
p169
sVsource_user_id_str
p170
V44691693
p171
sVsource_status_id
p172
I543776241015603200
sVid_str
p173
V543776233721303041
p174
sVsizes
p175
(dp176
Vsmall
p177
(dp178
Vh
p179
I340
sVresize
p180
Vfit
p181
sVw
p182
I340
ssVlarge
p183
(dp184
Vh
p185
I640
sVresize
p186
Vfit
p187
sVw
p188
I640
ssVmedium
p189
(dp190
Vh
p191
I600
sVresize
p192
Vfit
p193
sVw
p194
I600
ssVthumb
p195
(dp196
Vh
p197
I150
sVresize
p198
Vcrop
p199
sVw
p200
I150
sssVindices
p201
(lp202
I55
aI77
asVtype
p203
Vphoto
p204
sVid
p205
I543776233721303041
sVmedia_url
p206
Vhttp://pbs.twimg.com/media/B4vhmoBCEAEXBFT.jpg
p207
sasg77
Nsg78
Nsg79
Nsg80
VSat Dec 13 14:52:38 +0000 2014
p208
sg82
Nsg83
I01
sg84
Nsg85
Nsg86
Nsg87
Nsg88
I00
sg89
Nsg90
(lp209
g3
(g92
g5
Ntp210
Rp211
(dp212
g10
Nsg96
Nsg97
Nsg98
Nsg99
Nsg100
Nsg80
Nsg101
Nsg102
Nsg103
Nsg104
Nsg105
Nsg106
Nsg107
Nsg108
Nsg109
Nsg110
Nsg111
Nsg112
Nsg113
Nsg114
Nsg115
Nsg116
VBlackBearsWBB
p213
sg118
Nsg119
VMaine Women's Hoops
p214
sg121
Nsg122
Nsg123
I44691693
sg124
Nsbag3
(g92
g5
Ntp215
Rp216
(dp217
g10
Nsg96
Nsg97
Nsg98
Nsg99
Nsg100
Nsg80
Nsg101
Nsg102
Nsg103
Nsg104
Nsg105
Nsg106
Nsg107
Nsg108
Nsg109
Nsg110
Nsg111
Nsg112
Nsg113
Nsg114
Nsg115
Nsg116
VCICBangor
p218
sg118
Nsg119
VCrossInsuranceCenter
p219
sg121
Nsg122
Nsg123
I1521013687
sg124
Nsbasg125
Nsg126
Nsg127
Nsg128
VRT @BlackBearsWBB: See YOU @CICBangor !!!  #WeAreMaine http://t.co/TqGqu2Avu1
p220
sg130
I00
sg131
Ven
p221
sg133
g3
(g92
g5
Ntp222
Rp223
(dp224
g10
VUniversity of Maine
p225
sg96
V333333
p226
sg97
Ven
p227
sg98
VEastern Time (US & Canada)
p228
sg99
I185
sg100
I2045
sg80
VWed Mar 05 18:12:08 +0000 2014
p229
sg101
I00
sg102
VWe are a Property of @LearfieldSports, and the Official multimedia rights holder for University of Maine Athletics (@BlackBearNation). #PartnerWithUMaine
p230
sg103
Vhttps://pbs.twimg.com/profile_images/441288554182737920/17ID16E5_normal.jpeg
p231
sg104
I420
sg105
I735
sg106
I-18000
sg107
Nsg108
I00
sg109
Nsg110
I00
sg111
I00
sg112
V3B94D9
p232
sg113
I00
sg114
I00
sg115
Vhttp://abs.twimg.com/images/themes/theme1/bg.png
p233
sg116
VBBSPMaine
p234
sg118
I4
sg119
VBlackBear Sport Prop
p235
sg121
VDDEEF6
p236
sg122
Vhttp://t.co/gY95idPK6T
p237
sg123
I2374164199
sg124
VC0DEED
p238
sbsg152
I5
sg153
V<a href="http://twitter.com/download/android" rel="nofollow">Twitter for Android</a>
p239
sg155
(lp240
sg123
I543780542546997248
sbag3
(g4
g5
Ntp241
Rp242
(dp243
g9
I0
sg10
Nsg11
Nsg12
(lp244
sg20
I00
sg21
g3
(g4
g5
Ntp245
Rp246
(dp247
g9
I5
sg10
Nsg11
Nsg12
(lp248
sg20
I00
sg21
Nsg30
Nsg31
(lp249
(dp250
Vexpanded_url
p251
Vhttp://twitter.com/paul_culina/status/543775701409992704/photo/1
p252
sVdisplay_url
p253
Vpic.twitter.com/enXYYQ58k4
p254
sVurl
p255
Vhttp://t.co/enXYYQ58k4
p256
sVmedia_url_https
p257
Vhttps://pbs.twimg.com/media/B4vhHowIUAA2Hxu.jpg
p258
sVid_str
p259
V543775701342900224
p260
sVsizes
p261
(dp262
Vsmall
p263
(dp264
Vh
p265
I255
sVresize
p266
Vfit
p267
sVw
p268
I340
ssVlarge
p269
(dp270
Vh
p271
I499
sVresize
p272
Vfit
p273
sVw
p274
I665
ssVmedium
p275
(dp276
Vh
p277
I450
sVresize
p278
Vfit
p279
sVw
p280
I600
ssVthumb
p281
(dp282
Vh
p283
I150
sVresize
p284
Vcrop
p285
sVw
p286
I150
sssVindices
p287
(lp288
I67
aI89
asVtype
p289
Vphoto
p290
sVid
p291
I543775701342900224
sVmedia_url
p292
Vhttp://pbs.twimg.com/media/B4vhHowIUAA2Hxu.jpg
p293
sasg77
Nsg78
Nsg79
Nsg80
VSat Dec 13 14:33:24 +0000 2014
p294
sg82
Nsg83
I00
sg84
Nsg85
Nsg86
Nsg87
Nsg88
I00
sg89
Nsg90
(lp295
g3
(g92
g5
Ntp296
Rp297
(dp298
g10
Nsg96
Nsg97
Nsg98
Nsg99
Nsg100
Nsg80
Nsg101
Nsg102
Nsg103
Nsg104
Nsg105
Nsg106
Nsg107
Nsg108
Nsg109
Nsg110
Nsg111
Nsg112
Nsg113
Nsg114
Nsg115
Nsg116
VPortlandPirates
p299
sg118
Nsg119
VPortland Pirates
p300
sg121
Nsg122
Nsg123
I17216342
sg124
Nsbasg125
Nsg126
Nsg127
Nsg128
VNice to be treated with the special touch by the @PortlandPirates! http://t.co/enXYYQ58k4
p301
sg130
I00
sg131
Ven
p302
sg133
g3
(g92
g5
Ntp303
Rp304
(dp305
g10
V
p306
sg96
V333333
p307
sg97
Ven
p308
sg98
VEastern Time (US & Canada)
p309
sg99
I52
sg100
I24
sg80
VSat Feb 01 13:59:32 +0000 2014
p310
sg101
I00
sg102
g306
sg103
Vhttps://pbs.twimg.com/profile_images/472164299733884928/WOu3PFzP_normal.jpeg
p311
sg104
I13
sg105
I7
sg106
I-18000
sg107
Nsg108
I00
sg109
Nsg110
I00
sg111
I00
sg112
V0084B4
p312
sg113
I00
sg114
I00
sg115
Vhttp://abs.twimg.com/images/themes/theme1/bg.png
p313
sg116
Vpaul_culina
p314
sg118
I0
sg119
VPaul Culina
p315
sg121
VDDEEF6
p316
sg122
Nsg123
I2318144625
sg124
VC0DEED
p317
sbsg152
I1
sg153
V<a href="http://www.apple.com" rel="nofollow">iOS</a>
p318
sg155
(lp319
sg123
I543775701409992704
sbsg30
Nsg31
(lp320
(dp321
Vsource_user_id
p322
I2318144625
sVsource_status_id_str
p323
V543775701409992704
p324
sVexpanded_url
p325
Vhttp://twitter.com/paul_culina/status/543775701409992704/photo/1
p326
sVdisplay_url
p327
Vpic.twitter.com/enXYYQ58k4
p328
sVurl
p329
Vhttp://t.co/enXYYQ58k4
p330
sVmedia_url_https
p331
Vhttps://pbs.twimg.com/media/B4vhHowIUAA2Hxu.jpg
p332
sVsource_user_id_str
p333
V2318144625
p334
sVsource_status_id
p335
I543775701409992704
sVid_str
p336
V543775701342900224
p337
sVsizes
p338
(dp339
Vsmall
p340
(dp341
Vh
p342
I255
sVresize
p343
Vfit
p344
sVw
p345
I340
ssVlarge
p346
(dp347
Vh
p348
I499
sVresize
p349
Vfit
p350
sVw
p351
I665
ssVmedium
p352
(dp353
Vh
p354
I450
sVresize
p355
Vfit
p356
sVw
p357
I600
ssVthumb
p358
(dp359
Vh
p360
I150
sVresize
p361
Vcrop
p362
sVw
p363
I150
sssVindices
p364
(lp365
I84
aI106
asVtype
p366
Vphoto
p367
sVid
p368
I543775701342900224
sVmedia_url
p369
Vhttp://pbs.twimg.com/media/B4vhHowIUAA2Hxu.jpg
p370
sasg77
Nsg78
Nsg79
Nsg80
VSat Dec 13 14:52:30 +0000 2014
p371
sg82
Nsg83
I01
sg84
Nsg85
Nsg86
Nsg87
Nsg88
I00
sg89
Nsg90
(lp372
g3
(g92
g5
Ntp373
Rp374
(dp375
g10
Nsg96
Nsg97
Nsg98
Nsg99
Nsg100
Nsg80
Nsg101
Nsg102
Nsg103
Nsg104
Nsg105
Nsg106
Nsg107
Nsg108
Nsg109
Nsg110
Nsg111
Nsg112
Nsg113
Nsg114
Nsg115
Nsg116
Vpaul_culina
p376
sg118
Nsg119
VPaul Culina
p377
sg121
Nsg122
Nsg123
I2318144625
sg124
Nsbag3
(g92
g5
Ntp378
Rp379
(dp380
g10
Nsg96
Nsg97
Nsg98
Nsg99
Nsg100
Nsg80
Nsg101
Nsg102
Nsg103
Nsg104
Nsg105
Nsg106
Nsg107
Nsg108
Nsg109
Nsg110
Nsg111
Nsg112
Nsg113
Nsg114
Nsg115
Nsg116
VPortlandPirates
p381
sg118
Nsg119
VPortland Pirates
p382
sg121
Nsg122
Nsg123
I17216342
sg124
Nsbasg125
Nsg126
Nsg127
Nsg128
VRT @paul_culina: Nice to be treated with the special touch by the @PortlandPirates! http://t.co/enXYYQ58k4
p383
sg130
I00
sg131
Ven
p384
sg133
g3
(g92
g5
Ntp385
Rp386
(dp387
g10
VUniversity of Maine
p388
sg96
V333333
p389
sg97
Ven
p390
sg98
VEastern Time (US & Canada)
p391
sg99
I185
sg100
I2045
sg80
VWed Mar 05 18:12:08 +0000 2014
p392
sg101
I00
sg102
VWe are a Property of @LearfieldSports, and the Official multimedia rights holder for University of Maine Athletics (@BlackBearNation). #PartnerWithUMaine
p393
sg103
Vhttps://pbs.twimg.com/profile_images/441288554182737920/17ID16E5_normal.jpeg
p394
sg104
I420
sg105
I735
sg106
I-18000
sg107
Nsg108
I00
sg109
Nsg110
I00
sg111
I00
sg112
V3B94D9
p395
sg113
I00
sg114
I00
sg115
Vhttp://abs.twimg.com/images/themes/theme1/bg.png
p396
sg116
VBBSPMaine
p397
sg118
I4
sg119
VBlackBear Sport Prop
p398
sg121
VDDEEF6
p399
sg122
Vhttp://t.co/gY95idPK6T
p400
sg123
I2374164199
sg124
VC0DEED
p401
sbsg152
I1
sg153
V<a href="http://twitter.com/download/android" rel="nofollow">Twitter for Android</a>
p402
sg155
(lp403
sg123
I543780507902042112
sbag3
(g4
g5
Ntp404
Rp405
(dp406
g9
I0
sg10
Nsg11
Nsg12
(lp407
sg20
I00
sg21
g3
(g4
g5
Ntp408
Rp409
(dp410
g9
I1
sg10
Nsg11
Nsg12
(lp411
sg20
I00
sg21
Nsg30
Nsg31
(lp412
sg77
Nsg78
Nsg79
Nsg80
VSat Dec 13 14:26:13 +0000 2014
p413
sg82
Nsg83
I00
sg84
Nsg85
Nsg86
Nsg87
Nsg88
I00
sg89
Nsg90
(lp414
sg125
Nsg126
Nsg127
Nsg128
VThe Maine women's basketball team looks for win #6 in a row this afternoon at 1 against Northeastern on GUY &amp; http://t.co/mpmtrinZ62
p415
sg130
I00
sg131
Ven
p416
sg133
g3
(g92
g5
Ntp417
Rp418
(dp419
g10
VBangor, Maine
p420
sg96
V333333
p421
sg97
Ven
p422
sg98
VEastern Time (US & Canada)
p423
sg99
I7
sg100
I319
sg80
VThu Jun 13 16:23:47 +0000 2013
p424
sg101
I00
sg102
VMaine's Best Oldies! 94.1 FM & 1230  AM!  Disc jockeys you remember along with university of Maine basketball and baseball!
p425
sg103
Vhttps://pbs.twimg.com/profile_images/344513261573746122/1c26b7c089bc2149f18dc5d818254fc5_normal.png
p426
sg104
I9
sg105
I1
sg106
I-18000
sg107
Nsg108
I00
sg109
Nsg110
I00
sg111
I00
sg112
V0084B4
p427
sg113
I00
sg114
I00
sg115
Vhttp://abs.twimg.com/images/themes/theme1/bg.png
p428
sg116
Voldies941wguy
p429
sg118
I0
sg119
VOldies 94.1 WGUY
p430
sg121
VDDEEF6
p431
sg122
Vhttp://t.co/XCUgSX0qtO
p432
sg123
I1513811082
sg124
VC0DEED
p433
sbsg152
I6
sg153
V<a href="http://www.facebook.com/twitter" rel="nofollow">Facebook</a>
p434
sg155
(lp435
g3
(ctwitter.url
Url
p436
g5
Ntp437
Rp438
(dp439
S'url'
p440
Vhttp://t.co/mpmtrinZ62
p441
sS'expanded_url'
p442
Vhttp://goblackbears.com
p443
sbasg123
I543773894310907905
sbsg30
Nsg31
(lp444
sg77
Nsg78
Nsg79
Nsg80
VSat Dec 13 14:52:18 +0000 2014
p445
sg82
Nsg83
I01
sg84
Nsg85
Nsg86
Nsg87
Nsg88
I00
sg89
Nsg90
(lp446
g3
(g92
g5
Ntp447
Rp448
(dp449
g10
Nsg96
Nsg97
Nsg98
Nsg99
Nsg100
Nsg80
Nsg101
Nsg102
Nsg103
Nsg104
Nsg105
Nsg106
Nsg107
Nsg108
Nsg109
Nsg110
Nsg111
Nsg112
Nsg113
Nsg114
Nsg115
Nsg116
Voldies941wguy
p450
sg118
Nsg119
VOldies 94.1 WGUY
p451
sg121
Nsg122
Nsg123
I1513811082
sg124
Nsbasg125
Nsg126
Nsg127
Nsg128
VRT @oldies941wguy: The Maine women's basketball team looks for win #6 in a row this afternoon at 1 against Northeastern on GUY &amp; http://t.c\u2026
p452
sg130
I00
sg131
Ven
p453
sg133
g3
(g92
g5
Ntp454
Rp455
(dp456
g10
VUniversity of Maine
p457
sg96
V333333
p458
sg97
Ven
p459
sg98
VEastern Time (US & Canada)
p460
sg99
I185
sg100
I2045
sg80
VWed Mar 05 18:12:08 +0000 2014
p461
sg101
I00
sg102
VWe are a Property of @LearfieldSports, and the Official multimedia rights holder for University of Maine Athletics (@BlackBearNation). #PartnerWithUMaine
p462
sg103
Vhttps://pbs.twimg.com/profile_images/441288554182737920/17ID16E5_normal.jpeg
p463
sg104
I420
sg105
I735
sg106
I-18000
sg107
Nsg108
I00
sg109
Nsg110
I00
sg111
I00
sg112
V3B94D9
p464
sg113
I00
sg114
I00
sg115
Vhttp://abs.twimg.com/images/themes/theme1/bg.png
p465
sg116
VBBSPMaine
p466
sg118
I4
sg119
VBlackBear Sport Prop
p467
sg121
VDDEEF6
p468
sg122
Vhttp://t.co/gY95idPK6T
p469
sg123
I2374164199
sg124
VC0DEED
p470
sbsg152
I6
sg153
V<a href="http://twitter.com/download/android" rel="nofollow">Twitter for Android</a>
p471
sg155
(lp472
g3
(g436
g5
Ntp473
Rp474
(dp475
g440
Vhttp://t.co/mpmtrinZ62
p476
sg442
Vhttp://goblackbears.com
p477
sbasg123
I543780457146753024
sbag3
(g4
g5
Ntp478
Rp479
(dp480
g9
I0
sg10
Nsg11
Nsg12
(lp481
g3
(g14
g5
Ntp482
Rp483
(dp484
g18
VBlackBearNation
p485
sbasg20
I00
sg21
g3
(g4
g5
Ntp486
Rp487
(dp488
g9
I5
sg10
Nsg11
Nsg12
(lp489
g3
(g14
g5
Ntp490
Rp491
(dp492
g18
VBlackBearNation
p493
sbasg20
I00
sg21
Nsg30
Nsg31
(lp494
(dp495
Vexpanded_url
p496
Vhttp://twitter.com/BlackBearNation/status/543744654970085377/photo/1
p497
sVdisplay_url
p498
Vpic.twitter.com/pKQThlYWqM
p499
sVurl
p500
Vhttp://t.co/pKQThlYWqM
p501
sVmedia_url_https
p502
Vhttps://pbs.twimg.com/media/B4mrU3tCIAA913N.jpg
p503
sVid_str
p504
V543153605113421824
p505
sVsizes
p506
(dp507
Vsmall
p508
(dp509
Vh
p510
I217
sVresize
p511
Vfit
p512
sVw
p513
I340
ssVlarge
p514
(dp515
Vh
p516
I654
sVresize
p517
Vfit
p518
sVw
p519
I1024
ssVmedium
p520
(dp521
Vh
p522
I383
sVresize
p523
Vfit
p524
sVw
p525
I600
ssVthumb
p526
(dp527
Vh
p528
I150
sVresize
p529
Vcrop
p530
sVw
p531
I150
sssVindices
p532
(lp533
I115
aI137
asVtype
p534
Vphoto
p535
sVid
p536
I543153605113421824
sVmedia_url
p537
Vhttp://pbs.twimg.com/media/B4mrU3tCIAA913N.jpg
p538
sasg77
Nsg78
Nsg79
Nsg80
VSat Dec 13 12:30:02 +0000 2014
p539
sg82
Nsg83
I00
sg84
Nsg85
Nsg86
Nsg87
Nsg88
I00
sg89
Nsg90
(lp540
g3
(g92
g5
Ntp541
Rp542
(dp543
g10
Nsg96
Nsg97
Nsg98
Nsg99
Nsg100
Nsg80
Nsg101
Nsg102
Nsg103
Nsg104
Nsg105
Nsg106
Nsg107
Nsg108
Nsg109
Nsg110
Nsg111
Nsg112
Nsg113
Nsg114
Nsg115
Nsg116
VBlackBearsWBB
p544
sg118
Nsg119
VMaine Women's Hoops
p545
sg121
Nsg122
Nsg123
I44691693
sg124
Nsbag3
(g92
g5
Ntp546
Rp547
(dp548
g10
Nsg96
Nsg97
Nsg98
Nsg99
Nsg100
Nsg80
Nsg101
Nsg102
Nsg103
Nsg104
Nsg105
Nsg106
Nsg107
Nsg108
Nsg109
Nsg110
Nsg111
Nsg112
Nsg113
Nsg114
Nsg115
Nsg116
VCICBangor
p549
sg118
Nsg119
VCrossInsuranceCenter
p550
sg121
Nsg122
Nsg123
I1521013687
sg124
Nsbasg125
Nsg126
Nsg127
Nsg128
VGame Day: @BlackBearsWBB returns to the @CICBangor to take on Northeastern. Tip-off is at 1:00pm! #BlackBearNation http://t.co/pKQThlYWqM
p551
sg130
I00
sg131
Ven
p552
sg133
g3
(g92
g5
Ntp553
Rp554
(dp555
g10
VOrono, Maine
p556
sg96
V333333
p557
sg97
Ven
p558
sg98
Nsg99
I6188
sg100
I7040
sg80
VTue Mar 31 18:26:01 +0000 2009
p559
sg101
I01
sg102
VOfficial Twitter Site of the University of Maine Athletic Department.
p560
sg103
Vhttps://pbs.twimg.com/profile_images/378800000369836475/3f78c3015b1506c0437ebe55b7a3ff09_normal.jpeg
p561
sg104
I58
sg105
I23
sg106
Nsg107
Nsg108
I00
sg109
Vhttps://pbs.twimg.com/profile_banners/27929580/1410209893
p562
sg110
I00
sg111
I00
sg112
V0084B4
p563
sg113
I00
sg114
I00
sg115
Vhttp://pbs.twimg.com/profile_background_images/378800000106883440/1d7c70ee375fe43a72e802f537d346a0.jpeg
p564
sg116
VBlackBearNation
p565
sg118
I120
sg119
VBlack Bear Nation
p566
sg121
VFCFEFA
p567
sg122
Vhttp://t.co/xKJhrOsM
p568
sg123
I27929580
sg124
V1D2AE7
p569
sbsg152
I3
sg153
V<a href="https://about.twitter.com/products/tweetdeck" rel="nofollow">TweetDeck</a>
p570
sg155
(lp571
sg123
I543744654970085377
sbsg30
Nsg31
(lp572
(dp573
Vsource_user_id
p574
I27929580
sVsource_status_id_str
p575
V543744654970085377
p576
sVexpanded_url
p577
Vhttp://twitter.com/BlackBearNation/status/543744654970085377/photo/1
p578
sVdisplay_url
p579
Vpic.twitter.com/pKQThlYWqM
p580
sVurl
p581
Vhttp://t.co/pKQThlYWqM
p582
sVmedia_url_https
p583
Vhttps://pbs.twimg.com/media/B4mrU3tCIAA913N.jpg
p584
sVsource_user_id_str
p585
V27929580
p586
sVsource_status_id
p587
I543744654970085377
sVid_str
p588
V543153605113421824
p589
sVsizes
p590
(dp591
Vsmall
p592
(dp593
Vh
p594
I217
sVresize
p595
Vfit
p596
sVw
p597
I340
ssVlarge
p598
(dp599
Vh
p600
I654
sVresize
p601
Vfit
p602
sVw
p603
I1024
ssVmedium
p604
(dp605
Vh
p606
I383
sVresize
p607
Vfit
p608
sVw
p609
I600
ssVthumb
p610
(dp611
Vh
p612
I150
sVresize
p613
Vcrop
p614
sVw
p615
I150
sssVindices
p616
(lp617
I139
aI140
asVtype
p618
Vphoto
p619
sVid
p620
I543153605113421824
sVmedia_url
p621
Vhttp://pbs.twimg.com/media/B4mrU3tCIAA913N.jpg
p622
sasg77
Nsg78
Nsg79
Nsg80
VSat Dec 13 14:49:30 +0000 2014
p623
sg82
Nsg83
I01
sg84
Nsg85
Nsg86
Nsg87
Nsg88
I00
sg89
Nsg90
(lp624
g3
(g92
g5
Ntp625
Rp626
(dp627
g10
Nsg96
Nsg97
Nsg98
Nsg99
Nsg100
Nsg80
Nsg101
Nsg102
Nsg103
Nsg104
Nsg105
Nsg106
Nsg107
Nsg108
Nsg109
Nsg110
Nsg111
Nsg112
Nsg113
Nsg114
Nsg115
Nsg116
VBlackBearNation
p628
sg118
Nsg119
VBlack Bear Nation
p629
sg121
Nsg122
Nsg123
I27929580
sg124
Nsbag3
(g92
g5
Ntp630
Rp631
(dp632
g10
Nsg96
Nsg97
Nsg98
Nsg99
Nsg100
Nsg80
Nsg101
Nsg102
Nsg103
Nsg104
Nsg105
Nsg106
Nsg107
Nsg108
Nsg109
Nsg110
Nsg111
Nsg112
Nsg113
Nsg114
Nsg115
Nsg116
VBlackBearsWBB
p633
sg118
Nsg119
VMaine Women's Hoops
p634
sg121
Nsg122
Nsg123
I44691693
sg124
Nsbag3
(g92
g5
Ntp635
Rp636
(dp637
g10
Nsg96
Nsg97
Nsg98
Nsg99
Nsg100
Nsg80
Nsg101
Nsg102
Nsg103
Nsg104
Nsg105
Nsg106
Nsg107
Nsg108
Nsg109
Nsg110
Nsg111
Nsg112
Nsg113
Nsg114
Nsg115
Nsg116
VCICBangor
p638
sg118
Nsg119
VCrossInsuranceCenter
p639
sg121
Nsg122
Nsg123
I1521013687
sg124
Nsbasg125
Nsg126
Nsg127
Nsg128
VRT @BlackBearNation: Game Day: @BlackBearsWBB returns to the @CICBangor to take on Northeastern. Tip-off is at 1:00pm! #BlackBearNation htt\u2026
p640
sg130
I00
sg131
Ven
p641
sg133
g3
(g92
g5
Ntp642
Rp643
(dp644
g10
VUniversity of Maine
p645
sg96
V333333
p646
sg97
Ven
p647
sg98
VEastern Time (US & Canada)
p648
sg99
I185
sg100
I2045
sg80
VWed Mar 05 18:12:08 +0000 2014
p649
sg101
I00
sg102
VWe are a Property of @LearfieldSports, and the Official multimedia rights holder for University of Maine Athletics (@BlackBearNation). #PartnerWithUMaine
p650
sg103
Vhttps://pbs.twimg.com/profile_images/441288554182737920/17ID16E5_normal.jpeg
p651
sg104
I420
sg105
I735
sg106
I-18000
sg107
Nsg108
I00
sg109
Nsg110
I00
sg111
I00
sg112
V3B94D9
p652
sg113
I00
sg114
I00
sg115
Vhttp://abs.twimg.com/images/themes/theme1/bg.png
p653
sg116
VBBSPMaine
p654
sg118
I4
sg119
VBlackBear Sport Prop
p655
sg121
VDDEEF6
p656
sg122
Vhttp://t.co/gY95idPK6T
p657
sg123
I2374164199
sg124
VC0DEED
p658
sbsg152
I3
sg153
V<a href="http://twitter.com/download/android" rel="nofollow">Twitter for Android</a>
p659
sg155
(lp660
sg123
I543779750251360256
sbag3
(g4
g5
Ntp661
Rp662
(dp663
g9
I0
sg10
Nsg11
Nsg12
(lp664
sg20
I00
sg21
g3
(g4
g5
Ntp665
Rp666
(dp667
g9
I5
sg10
Nsg11
Nsg12
(lp668
sg20
I00
sg21
Nsg30
Nsg31
(lp669
sg77
Nsg78
Nsg79
Nsg80
VSat Dec 13 04:35:47 +0000 2014
p670
sg82
Nsg83
Nsg84
VRedGendron
p671
sg85
Nsg86
I40866009
sg87
Nsg88
I00
sg89
Nsg90
(lp672
g3
(g92
g5
Ntp673
Rp674
(dp675
g10
Nsg96
Nsg97
Nsg98
Nsg99
Nsg100
Nsg80
Nsg101
Nsg102
Nsg103
Nsg104
Nsg105
Nsg106
Nsg107
Nsg108
Nsg109
Nsg110
Nsg111
Nsg112
Nsg113
Nsg114
Nsg115
Nsg116
VRedGendron
p676
sg118
Nsg119
VRed Gendron
p677
sg121
Nsg122
Nsg123
I40866009
sg124
Nsbag3
(g92
g5
Ntp678
Rp679
(dp680
g10
Nsg96
Nsg97
Nsg98
Nsg99
Nsg100
Nsg80
Nsg101
Nsg102
Nsg103
Nsg104
Nsg105
Nsg106
Nsg107
Nsg108
Nsg109
Nsg110
Nsg111
Nsg112
Nsg113
Nsg114
Nsg115
Nsg116
VMaineIceHockey
p681
sg118
Nsg119
VBlack Bear Hockey
p682
sg121
Nsg122
Nsg123
I77255989
sg124
Nsbasg125
Nsg126
Nsg127
Nsg128
V@RedGendron @MaineIceHockey Congrats and good luck in Portland tomorrow!
p683
sg130
I00
sg131
Ven
p684
sg133
g3
(g92
g5
Ntp685
Rp686
(dp687
g10
g306
sg96
V333333
p688
sg97
Ven
p689
sg98
Nsg99
I2416
sg100
I2411
sg80
VSat Jan 30 03:35:40 +0000 2010
p690
sg101
I00
sg102
VOfficial Twitter feed for UMAINE Baseball.   Follow us for game info, special events and to ensure you know what the team is up to.
p691
sg103
Vhttps://pbs.twimg.com/profile_images/673625297/Old_20English_20M_1__normal.jpg
p692
sg104
I107
sg105
I28
sg106
Nsg107
Nsg108
I00
sg109
Vhttps://pbs.twimg.com/profile_banners/109747431/1398452686
p693
sg110
I00
sg111
I00
sg112
V0084B4
p694
sg113
I01
sg114
I00
sg115
Vhttp://abs.twimg.com/images/themes/theme1/bg.png
p695
sg116
VMaineBaseball
p696
sg118
I50
sg119
VMaine Baseball
p697
sg121
VDDEEF6
p698
sg122
Vhttp://t.co/D9Tush2Ttm
p699
sg123
I109747431
sg124
VC0DEED
p700
sbsg152
I2
sg153
V<a href="http://twitter.com/download/iphone" rel="nofollow">Twitter for iPhone</a>
p701
sg155
(lp702
sg123
I543625305655898112
sbsg30
Nsg31
(lp703
sg77
Nsg78
Nsg79
Nsg80
VSat Dec 13 05:26:48 +0000 2014
p704
sg82
Nsg83
Nsg84
Nsg85
Nsg86
Nsg87
Nsg88
I00
sg89
Nsg90
(lp705
g3
(g92
g5
Ntp706
Rp707
(dp708
g10
Nsg96
Nsg97
Nsg98
Nsg99
Nsg100
Nsg80
Nsg101
Nsg102
Nsg103
Nsg104
Nsg105
Nsg106
Nsg107
Nsg108
Nsg109
Nsg110
Nsg111
Nsg112
Nsg113
Nsg114
Nsg115
Nsg116
VMaineBaseball
p709
sg118
Nsg119
VMaine Baseball
p710
sg121
Nsg122
Nsg123
I109747431
sg124
Nsbag3
(g92
g5
Ntp711
Rp712
(dp713
g10
Nsg96
Nsg97
Nsg98
Nsg99
Nsg100
Nsg80
Nsg101
Nsg102
Nsg103
Nsg104
Nsg105
Nsg106
Nsg107
Nsg108
Nsg109
Nsg110
Nsg111
Nsg112
Nsg113
Nsg114
Nsg115
Nsg116
VRedGendron
p714
sg118
Nsg119
VRed Gendron
p715
sg121
Nsg122
Nsg123
I40866009
sg124
Nsbag3
(g92
g5
Ntp716
Rp717
(dp718
g10
Nsg96
Nsg97
Nsg98
Nsg99
Nsg100
Nsg80
Nsg101
Nsg102
Nsg103
Nsg104
Nsg105
Nsg106
Nsg107
Nsg108
Nsg109
Nsg110
Nsg111
Nsg112
Nsg113
Nsg114
Nsg115
Nsg116
VMaineIceHockey
p719
sg118
Nsg119
VBlack Bear Hockey
p720
sg121
Nsg122
Nsg123
I77255989
sg124
Nsbasg125
Nsg126
Nsg127
Nsg128
VRT @MaineBaseball: @RedGendron @MaineIceHockey Congrats and good luck in Portland tomorrow!
p721
sg130
I00
sg131
Ven
p722
sg133
g3
(g92
g5
Ntp723
Rp724
(dp725
g10
VUniversity of Maine
p726
sg96
V333333
p727
sg97
Ven
p728
sg98
VEastern Time (US & Canada)
p729
sg99
I185
sg100
I2045
sg80
VWed Mar 05 18:12:08 +0000 2014
p730
sg101
I00
sg102
VWe are a Property of @LearfieldSports, and the Official multimedia rights holder for University of Maine Athletics (@BlackBearNation). #PartnerWithUMaine
p731
sg103
Vhttps://pbs.twimg.com/profile_images/441288554182737920/17ID16E5_normal.jpeg
p732
sg104
I420
sg105
I735
sg106
I-18000
sg107
Nsg108
I00
sg109
Nsg110
I00
sg111
I00
sg112
V3B94D9
p733
sg113
I00
sg114
I00
sg115
Vhttp://abs.twimg.com/images/themes/theme1/bg.png
p734
sg116
VBBSPMaine
p735
sg118
I4
sg119
VBlackBear Sport Prop
p736
sg121
VDDEEF6
p737
sg122
Vhttp://t.co/gY95idPK6T
p738
sg123
I2374164199
sg124
VC0DEED
p739
sbsg152
I2
sg153
V<a href="http://twitter.com/download/android" rel="nofollow">Twitter for Android</a>
p740
sg155
(lp741
sg123
I543638144919552001
sbag3
(g4
g5
Ntp742
Rp743
(dp744
g9
I0
sg10
Nsg11
Nsg12
(lp745
g3
(g14
g5
Ntp746
Rp747
(dp748
g18
VFCSPlayoffs
p749
sbasg20
I00
sg21
g3
(g4
g5
Ntp750
Rp751
(dp752
g9
I46
sg10
Nsg11
Nsg12
(lp753
g3
(g14
g5
Ntp754
Rp755
(dp756
g18
VFCSPlayoffs
p757
sbasg20
I00
sg21
Nsg30
Nsg31
(lp758
(dp759
Vexpanded_url
p760
Vhttp://twitter.com/NCAA_FCS/status/543624237421174785/photo/1
p761
sVdisplay_url
p762
Vpic.twitter.com/Ttq7LqS4lV
p763
sVurl
p764
Vhttp://t.co/Ttq7LqS4lV
p765
sVmedia_url_https
p766
Vhttps://pbs.twimg.com/media/B4tXXPDCIAElFkB.png
p767
sVid_str
p768
V543624236716138497
p769
sVsizes
p770
(dp771
Vsmall
p772
(dp773
Vh
p774
I170
sVresize
p775
Vfit
p776
sVw
p777
I340
ssVlarge
p778
(dp779
Vh
p780
I512
sVresize
p781
Vfit
p782
sVw
p783
I1024
ssVmedium
p784
(dp785
Vh
p786
I300
sVresize
p787
Vfit
p788
sVw
p789
I600
ssVthumb
p790
(dp791
Vh
p792
I150
sVresize
p793
Vcrop
p794
sVw
p795
I150
sssVindices
p796
(lp797
I114
aI136
asVtype
p798
Vphoto
p799
sVid
p800
I543624236716138497
sVmedia_url
p801
Vhttp://pbs.twimg.com/media/B4tXXPDCIAElFkB.png
p802
sasg77
Nsg78
Nsg79
Nsg80
VSat Dec 13 04:31:32 +0000 2014
p803
sg82
Nsg83
I00
sg84
Nsg85
Nsg86
Nsg87
Nsg88
I00
sg89
Nsg90
(lp804
g3
(g92
g5
Ntp805
Rp806
(dp807
g10
Nsg96
Nsg97
Nsg98
Nsg99
Nsg100
Nsg80
Nsg101
Nsg102
Nsg103
Nsg104
Nsg105
Nsg106
Nsg107
Nsg108
Nsg109
Nsg110
Nsg111
Nsg112
Nsg113
Nsg114
Nsg115
Nsg116
VUNHWildcats
p808
sg118
Nsg119
VUNH Wildcats
p809
sg121
Nsg122
Nsg123
I32448636
sg124
Nsbag3
(g92
g5
Ntp810
Rp811
(dp812
g10
Nsg96
Nsg97
Nsg98
Nsg99
Nsg100
Nsg80
Nsg101
Nsg102
Nsg103
Nsg104
Nsg105
Nsg106
Nsg107
Nsg108
Nsg109
Nsg110
Nsg111
Nsg112
Nsg113
Nsg114
Nsg115
Nsg116
VGoMocsFB
p813
sg118
Nsg119
VUTC Football
p814
sg121
Nsg122
Nsg123
I809904042
sg124
Nsbasg125
Nsg126
Nsg127
Nsg128
VNEW HAMPSHIRE ADVANCES!\u000a\u000aNo. 1 @UNHWildcats advances to the #FCSPlayoffs Semifinals with 35-30 win over @GoMocsFB http://t.co/Ttq7LqS4lV
p815
sg130
I00
sg131
Ven
p816
sg133
g3
(g92
g5
Ntp817
Rp818
(dp819
g10
VFrisco, TX
p820
sg96
V333333
p821
sg97
Ven
p822
sg98
VAtlantic Time (Canada)
p823
sg99
I12708
sg100
I2594
sg80
VWed Aug 14 16:43:47 +0000 2013
p824
sg101
I01
sg102
VThe official Twitter account for #FCS Football.
p825
sg103
Vhttps://pbs.twimg.com/profile_images/498947369052823552/ezqeK592_normal.jpeg
p826
sg104
I351
sg105
I21
sg106
I-14400
sg107
Nsg108
I00
sg109
Vhttps://pbs.twimg.com/profile_banners/1670966311/1416761336
p827
sg110
I00
sg111
I00
sg112
V0084B4
p828
sg113
I01
sg114
I00
sg115
Vhttp://pbs.twimg.com/profile_background_images/378800000076587843/759dc8a8a342fb011f80ea0b2a2b98c6.jpeg
p829
sg116
VNCAA_FCS
p830
sg118
I109
sg119
VFCS Football
p831
sg121
VDDEEF6
p832
sg122
Vhttp://t.co/JYXDqRCEhm
p833
sg123
I1670966311
sg124
VFFFFFF
p834
sbsg152
I62
sg153
V<a href="http://twitter.com" rel="nofollow">Twitter Web Client</a>
p835
sg155
(lp836
sg123
I543624237421174785
sbsg30
Nsg31
(lp837
(dp838
Vsource_user_id
p839
I1670966311
sVsource_status_id_str
p840
V543624237421174785
p841
sVexpanded_url
p842
Vhttp://twitter.com/NCAA_FCS/status/543624237421174785/photo/1
p843
sVdisplay_url
p844
Vpic.twitter.com/Ttq7LqS4lV
p845
sVurl
p846
Vhttp://t.co/Ttq7LqS4lV
p847
sVmedia_url_https
p848
Vhttps://pbs.twimg.com/media/B4tXXPDCIAElFkB.png
p849
sVsource_user_id_str
p850
V1670966311
p851
sVsource_status_id
p852
I543624237421174785
sVid_str
p853
V543624236716138497
p854
sVsizes
p855
(dp856
Vsmall
p857
(dp858
Vh
p859
I170
sVresize
p860
Vfit
p861
sVw
p862
I340
ssVlarge
p863
(dp864
Vh
p865
I512
sVresize
p866
Vfit
p867
sVw
p868
I1024
ssVmedium
p869
(dp870
Vh
p871
I300
sVresize
p872
Vfit
p873
sVw
p874
I600
ssVthumb
p875
(dp876
Vh
p877
I150
sVresize
p878
Vcrop
p879
sVw
p880
I150
sssVindices
p881
(lp882
I139
aI140
asVtype
p883
Vphoto
p884
sVid
p885
I543624236716138497
sVmedia_url
p886
Vhttp://pbs.twimg.com/media/B4tXXPDCIAElFkB.png
p887
sasg77
Nsg78
Nsg79
Nsg80
VSat Dec 13 05:26:33 +0000 2014
p888
sg82
Nsg83
I01
sg84
Nsg85
Nsg86
Nsg87
Nsg88
I00
sg89
Nsg90
(lp889
g3
(g92
g5
Ntp890
Rp891
(dp892
g10
Nsg96
Nsg97
Nsg98
Nsg99
Nsg100
Nsg80
Nsg101
Nsg102
Nsg103
Nsg104
Nsg105
Nsg106
Nsg107
Nsg108
Nsg109
Nsg110
Nsg111
Nsg112
Nsg113
Nsg114
Nsg115
Nsg116
VNCAA_FCS
p893
sg118
Nsg119
VFCS Football
p894
sg121
Nsg122
Nsg123
I1670966311
sg124
Nsbag3
(g92
g5
Ntp895
Rp896
(dp897
g10
Nsg96
Nsg97
Nsg98
Nsg99
Nsg100
Nsg80
Nsg101
Nsg102
Nsg103
Nsg104
Nsg105
Nsg106
Nsg107
Nsg108
Nsg109
Nsg110
Nsg111
Nsg112
Nsg113
Nsg114
Nsg115
Nsg116
VUNHWildcats
p898
sg118
Nsg119
VUNH Wildcats
p899
sg121
Nsg122
Nsg123
I32448636
sg124
Nsbag3
(g92
g5
Ntp900
Rp901
(dp902
g10
Nsg96
Nsg97
Nsg98
Nsg99
Nsg100
Nsg80
Nsg101
Nsg102
Nsg103
Nsg104
Nsg105
Nsg106
Nsg107
Nsg108
Nsg109
Nsg110
Nsg111
Nsg112
Nsg113
Nsg114
Nsg115
Nsg116
VGoMocsFB
p903
sg118
Nsg119
VUTC Football
p904
sg121
Nsg122
Nsg123
I809904042
sg124
Nsbasg125
Nsg126
Nsg127
Nsg128
VRT @NCAA_FCS: NEW HAMPSHIRE ADVANCES!\u000a\u000aNo. 1 @UNHWildcats advances to the #FCSPlayoffs Semifinals with 35-30 win over @GoMocsFB http://t.co\u2026
p905
sg130
I00
sg131
Ven
p906
sg133
g3
(g92
g5
Ntp907
Rp908
(dp909
g10
VUniversity of Maine
p910
sg96
V333333
p911
sg97
Ven
p912
sg98
VEastern Time (US & Canada)
p913
sg99
I185
sg100
I2045
sg80
VWed Mar 05 18:12:08 +0000 2014
p914
sg101
I00
sg102
VWe are a Property of @LearfieldSports, and the Official multimedia rights holder for University of Maine Athletics (@BlackBearNation). #PartnerWithUMaine
p915
sg103
Vhttps://pbs.twimg.com/profile_images/441288554182737920/17ID16E5_normal.jpeg
p916
sg104
I420
sg105
I735
sg106
I-18000
sg107
Nsg108
I00
sg109
Nsg110
I00
sg111
I00
sg112
V3B94D9
p917
sg113
I00
sg114
I00
sg115
Vhttp://abs.twimg.com/images/themes/theme1/bg.png
p918
sg116
VBBSPMaine
p919
sg118
I4
sg119
VBlackBear Sport Prop
p920
sg121
VDDEEF6
p921
sg122
Vhttp://t.co/gY95idPK6T
p922
sg123
I2374164199
sg124
VC0DEED
p923
sbsg152
I62
sg153
V<a href="http://twitter.com/download/android" rel="nofollow">Twitter for Android</a>
p924
sg155
(lp925
sg123
I543638080046239745
sbag3
(g4
g5
Ntp926
Rp927
(dp928
g9
I0
sg10
Nsg11
Nsg12
(lp929
g3
(g14
g5
Ntp930
Rp931
(dp932
g18
VFCSPlayoffs
p933
sbag3
(g14
g5
Ntp934
Rp935
(dp936
g18
VIBelieveInUNH
p937
sbasg20
I00
sg21
g3
(g4
g5
Ntp938
Rp939
(dp940
g9
I5
sg10
Nsg11
Nsg12
(lp941
g3
(g14
g5
Ntp942
Rp943
(dp944
g18
VFCSPlayoffs
p945
sbag3
(g14
g5
Ntp946
Rp947
(dp948
g18
VIBelieveInUNH
p949
sbasg20
I00
sg21
Nsg30
Nsg31
(lp950
sg77
Nsg78
Nsg79
Nsg80
VSat Dec 13 04:31:08 +0000 2014
p951
sg82
Nsg83
Nsg84
Nsg85
Nsg86
Nsg87
Nsg88
I00
sg89
Nsg90
(lp952
g3
(g92
g5
Ntp953
Rp954
(dp955
g10
Nsg96
Nsg97
Nsg98
Nsg99
Nsg100
Nsg80
Nsg101
Nsg102
Nsg103
Nsg104
Nsg105
Nsg106
Nsg107
Nsg108
Nsg109
Nsg110
Nsg111
Nsg112
Nsg113
Nsg114
Nsg115
Nsg116
VUNHWildcats
p956
sg118
Nsg119
VUNH Wildcats
p957
sg121
Nsg122
Nsg123
I32448636
sg124
Nsbasg125
Nsg126
Nsg127
Nsg128
VCongrats No. 1 @UNHWildcats football on advancing to the semifinals at the Dungeon! #FCSPlayoffs #IBelieveInUNH
p958
sg130
I00
sg131
Ven
p959
sg133
g3
(g92
g5
Ntp960
Rp961
(dp962
g10
VCambridge, MA
p963
sg96
V3C3940
p964
sg97
Ven
p965
sg98
VQuito
p966
sg99
I1584
sg100
I5637
sg80
VTue Dec 09 21:46:26 +0000 2008
p967
sg101
I00
sg102
VCommissioner | America East Conference | #3Pillars | Lucy's Human | Instagram: @ae_commish
p968
sg103
Vhttps://pbs.twimg.com/profile_images/543989009358536704/MFsozwjA_normal.jpeg
p969
sg104
I1023
sg105
I3765
sg106
I-18000
sg107
Nsg108
I00
sg109
Vhttps://pbs.twimg.com/profile_banners/18003597/1418531935
p970
sg110
I00
sg111
I00
sg112
V0099B9
p971
sg113
I00
sg114
I00
sg115
Vhttp://pbs.twimg.com/profile_background_images/378800000055651700/a84b3067e292f8b40bd222d04894c9bd.jpeg
p972
sg116
VAE_Commish
p973
sg118
I27
sg119
VAmy Huchthausen
p974
sg121
V95E8EC
p975
sg122
Vhttp://t.co/4je6vSvYEF
p976
sg123
I18003597
sg124
V0099B9
p977
sbsg152
I2
sg153
V<a href="http://twitter.com/download/iphone" rel="nofollow">Twitter for iPhone</a>
p978
sg155
(lp979
sg123
I543624135981936640
sbsg30
Nsg31
(lp980
sg77
Nsg78
Nsg79
Nsg80
VSat Dec 13 05:26:25 +0000 2014
p981
sg82
Nsg83
Nsg84
Nsg85
Nsg86
Nsg87
Nsg88
I00
sg89
Nsg90
(lp982
g3
(g92
g5
Ntp983
Rp984
(dp985
g10
Nsg96
Nsg97
Nsg98
Nsg99
Nsg100
Nsg80
Nsg101
Nsg102
Nsg103
Nsg104
Nsg105
Nsg106
Nsg107
Nsg108
Nsg109
Nsg110
Nsg111
Nsg112
Nsg113
Nsg114
Nsg115
Nsg116
VAE_Commish
p986
sg118
Nsg119
VAmy Huchthausen
p987
sg121
Nsg122
Nsg123
I18003597
sg124
Nsbag3
(g92
g5
Ntp988
Rp989
(dp990
g10
Nsg96
Nsg97
Nsg98
Nsg99
Nsg100
Nsg80
Nsg101
Nsg102
Nsg103
Nsg104
Nsg105
Nsg106
Nsg107
Nsg108
Nsg109
Nsg110
Nsg111
Nsg112
Nsg113
Nsg114
Nsg115
Nsg116
VUNHWildcats
p991
sg118
Nsg119
VUNH Wildcats
p992
sg121
Nsg122
Nsg123
I32448636
sg124
Nsbasg125
Nsg126
Nsg127
Nsg128
VRT @AE_Commish: Congrats No. 1 @UNHWildcats football on advancing to the semifinals at the Dungeon! #FCSPlayoffs #IBelieveInUNH
p993
sg130
I00
sg131
Ven
p994
sg133
g3
(g92
g5
Ntp995
Rp996
(dp997
g10
VUniversity of Maine
p998
sg96
V333333
p999
sg97
Ven
p1000
sg98
VEastern Time (US & Canada)
p1001
sg99
I185
sg100
I2045
sg80
VWed Mar 05 18:12:08 +0000 2014
p1002
sg101
I00
sg102
VWe are a Property of @LearfieldSports, and the Official multimedia rights holder for University of Maine Athletics (@BlackBearNation). #PartnerWithUMaine
p1003
sg103
Vhttps://pbs.twimg.com/profile_images/441288554182737920/17ID16E5_normal.jpeg
p1004
sg104
I420
sg105
I735
sg106
I-18000
sg107
Nsg108
I00
sg109
Nsg110
I00
sg111
I00
sg112
V3B94D9
p1005
sg113
I00
sg114
I00
sg115
Vhttp://abs.twimg.com/images/themes/theme1/bg.png
p1006
sg116
VBBSPMaine
p1007
sg118
I4
sg119
VBlackBear Sport Prop
p1008
sg121
VDDEEF6
p1009
sg122
Vhttp://t.co/gY95idPK6T
p1010
sg123
I2374164199
sg124
VC0DEED
p1011
sbsg152
I2
sg153
V<a href="http://twitter.com/download/android" rel="nofollow">Twitter for Android</a>
p1012
sg155
(lp1013
sg123
I543638046386978817
sbag3
(g4
g5
Ntp1014
Rp1015
(dp1016
g9
I0
sg10
Nsg11
Nsg12
(lp1017
g3
(g14
g5
Ntp1018
Rp1019
(dp1020
g18
VNovaNation
p1021
sbag3
(g14
g5
Ntp1022
Rp1023
(dp1024
g18
VCAAFB
p1025
sbag3
(g14
g5
Ntp1026
Rp1027
(dp1028
g18
VFCSplayoffs
p1029
sbasg20
I00
sg21
g3
(g4
g5
Ntp1030
Rp1031
(dp1032
g9
I0
sg10
Nsg11
Nsg12
(lp1033
g3
(g14
g5
Ntp1034
Rp1035
(dp1036
g18
VNovaNation
p1037
sbag3
(g14
g5
Ntp1038
Rp1039
(dp1040
g18
VCAAFB
p1041
sbag3
(g14
g5
Ntp1042
Rp1043
(dp1044
g18
VFCSplayoffs
p1045
sbasg20
I00
sg21
Nsg30
Nsg31
(lp1046
sg77
Nsg78
Nsg79
Nsg80
VSat Dec 13 04:30:32 +0000 2014
p1047
sg82
Nsg83
Nsg84
Nsg85
Nsg86
Nsg87
Nsg88
I00
sg89
Nsg90
(lp1048
sg125
Nsg126
Nsg127
Nsg128
VDon't forget, #NovaNation can make it two #CAAFB teams in the #FCSplayoffs semis.\u000a\u000aKickoff is tomorrow at 1:00 on ESPN3.
p1049
sg130
I00
sg131
Ven
p1050
sg133
g3
(g92
g5
Ntp1051
Rp1052
(dp1053
g10
VRichmond, Va.
p1054
sg96
V333333
p1055
sg97
Ven
p1056
sg98
VEastern Time (US & Canada)
p1057
sg99
I5498
sg100
I16868
sg80
VFri Mar 13 15:40:34 +0000 2009
p1058
sg101
I00
sg102
VThe official Twitter account of #CAAFB
p1059
sg103
Vhttps://pbs.twimg.com/profile_images/94972378/twitter_picture_normal.jpg
p1060
sg104
I181
sg105
I41
sg106
I-18000
sg107
Nsg108
I00
sg109
Vhttps://pbs.twimg.com/profile_banners/24191282/1358201911
p1061
sg110
I00
sg111
I00
sg112
V0084B4
p1062
sg113
I01
sg114
I00
sg115
Vhttp://pbs.twimg.com/profile_background_images/378800000181486288/K_2dRDeX.jpeg
p1063
sg116
VCAAFootball
p1064
sg118
I115
sg119
VCAA Football
p1065
sg121
VEFEFEF
p1066
sg122
Vhttp://t.co/bhqkB828FF
p1067
sg123
I24191282
sg124
V022330
p1068
sbsg152
I2
sg153
V<a href="http://www.hootsuite.com" rel="nofollow">Hootsuite</a>
p1069
sg155
(lp1070
sg123
I543623984886321152
sbsg30
Nsg31
(lp1071
sg77
Nsg78
Nsg79
Nsg80
VSat Dec 13 05:26:19 +0000 2014
p1072
sg82
Nsg83
Nsg84
Nsg85
Nsg86
Nsg87
Nsg88
I00
sg89
Nsg90
(lp1073
g3
(g92
g5
Ntp1074
Rp1075
(dp1076
g10
Nsg96
Nsg97
Nsg98
Nsg99
Nsg100
Nsg80
Nsg101
Nsg102
Nsg103
Nsg104
Nsg105
Nsg106
Nsg107
Nsg108
Nsg109
Nsg110
Nsg111
Nsg112
Nsg113
Nsg114
Nsg115
Nsg116
VCAAFootball
p1077
sg118
Nsg119
VCAA Football
p1078
sg121
Nsg122
Nsg123
I24191282
sg124
Nsbasg125
Nsg126
Nsg127
Nsg128
VRT @CAAFootball: Don't forget, #NovaNation can make it two #CAAFB teams in the #FCSplayoffs semis.\u000a\u000aKickoff is tomorrow at 1:00 on ESPN3.
p1079
sg130
I00
sg131
Ven
p1080
sg133
g3
(g92
g5
Ntp1081
Rp1082
(dp1083
g10
VUniversity of Maine
p1084
sg96
V333333
p1085
sg97
Ven
p1086
sg98
VEastern Time (US & Canada)
p1087
sg99
I185
sg100
I2045
sg80
VWed Mar 05 18:12:08 +0000 2014
p1088
sg101
I00
sg102
VWe are a Property of @LearfieldSports, and the Official multimedia rights holder for University of Maine Athletics (@BlackBearNation). #PartnerWithUMaine
p1089
sg103
Vhttps://pbs.twimg.com/profile_images/441288554182737920/17ID16E5_normal.jpeg
p1090
sg104
I420
sg105
I735
sg106
I-18000
sg107
Nsg108
I00
sg109
Nsg110
I00
sg111
I00
sg112
V3B94D9
p1091
sg113
I00
sg114
I00
sg115
Vhttp://abs.twimg.com/images/themes/theme1/bg.png
p1092
sg116
VBBSPMaine
p1093
sg118
I4
sg119
VBlackBear Sport Prop
p1094
sg121
VDDEEF6
p1095
sg122
Vhttp://t.co/gY95idPK6T
p1096
sg123
I2374164199
sg124
VC0DEED
p1097
sbsg152
I2
sg153
V<a href="http://twitter.com/download/android" rel="nofollow">Twitter for Android</a>
p1098
sg155
(lp1099
sg123
I543638022047420416
sbag3
(g4
g5
Ntp1100
Rp1101
(dp1102
g9
I0
sg10
Nsg11
Nsg12
(lp1103
g3
(g14
g5
Ntp1104
Rp1105
(dp1106
g18
VAEPride
p1107
sbasg20
I00
sg21
g3
(g4
g5
Ntp1108
Rp1109
(dp1110
g9
I15
sg10
Nsg11
Nsg12
(lp1111
g3
(g14
g5
Ntp1112
Rp1113
(dp1114
g18
VAEPride
p1115
sbasg20
I00
sg21
Nsg30
Nsg31
(lp1116
sg77
Nsg78
Nsg79
Nsg80
VSat Dec 13 04:28:18 +0000 2014
p1117
sg82
Nsg83
Nsg84
Nsg85
Nsg86
Nsg87
Nsg88
I00
sg89
Nsg90
(lp1118
g3
(g92
g5
Ntp1119
Rp1120
(dp1121
g10
Nsg96
Nsg97
Nsg98
Nsg99
Nsg100
Nsg80
Nsg101
Nsg102
Nsg103
Nsg104
Nsg105
Nsg106
Nsg107
Nsg108
Nsg109
Nsg110
Nsg111
Nsg112
Nsg113
Nsg114
Nsg115
Nsg116
VUNHWildcats
p1122
sg118
Nsg119
VUNH Wildcats
p1123
sg121
Nsg122
Nsg123
I32448636
sg124
Nsbag3
(g92
g5
Ntp1124
Rp1125
(dp1126
g10
Nsg96
Nsg97
Nsg98
Nsg99
Nsg100
Nsg80
Nsg101
Nsg102
Nsg103
Nsg104
Nsg105
Nsg106
Nsg107
Nsg108
Nsg109
Nsg110
Nsg111
Nsg112
Nsg113
Nsg114
Nsg115
Nsg116
VNCAA_FCS
p1127
sg118
Nsg119
VFCS Football
p1128
sg121
Nsg122
Nsg123
I1670966311
sg124
Nsbasg125
Nsg126
Nsg127
Nsg128
VCongrats to @UNHWildcats football on advancing to the @NCAA_FCS semifinals! #AEPride
p1129
sg130
I00
sg131
Ven
p1130
sg133
g3
(g92
g5
Ntp1131
Rp1132
(dp1133
g10
VCambridge, Massachusetts
p1134
sg96
V040273
p1135
sg97
Ven
p1136
sg98
VEastern Time (US & Canada)
p1137
sg99
I6744
sg100
I30593
sg80
VWed Feb 04 17:29:36 +0000 2009
p1138
sg101
I00
sg102
VThe Official Twitter page of the America East Conference
p1139
sg103
Vhttps://pbs.twimg.com/profile_images/543612824648687617/pN70HQuw_normal.jpeg
p1140
sg104
I1175
sg105
I3571
sg106
I-18000
sg107
Nsg108
I00
sg109
Vhttps://pbs.twimg.com/profile_banners/20071722/1418476649
p1141
sg110
I00
sg111
I00
sg112
V00B2E2
p1142
sg113
I01
sg114
I00
sg115
Vhttp://pbs.twimg.com/profile_background_images/378800000055650820/a84b3067e292f8b40bd222d04894c9bd.jpeg
p1143
sg116
VAmericaEast
p1144
sg118
I158
sg119
VAmerica East
p1145
sg121
VFCFCFC
p1146
sg122
Vhttp://t.co/RoZ995b5LY
p1147
sg123
I20071722
sg124
V000000
p1148
sbsg152
I8
sg153
V<a href="http://twitter.com/download/iphone" rel="nofollow">Twitter for iPhone</a>
p1149
sg155
(lp1150
sg123
I543623421473849344
sbsg30
Nsg31
(lp1151
sg77
Nsg78
Nsg79
Nsg80
VSat Dec 13 05:25:40 +0000 2014
p1152
sg82
Nsg83
Nsg84
Nsg85
Nsg86
Nsg87
Nsg88
I00
sg89
Nsg90
(lp1153
g3
(g92
g5
Ntp1154
Rp1155
(dp1156
g10
Nsg96
Nsg97
Nsg98
Nsg99
Nsg100
Nsg80
Nsg101
Nsg102
Nsg103
Nsg104
Nsg105
Nsg106
Nsg107
Nsg108
Nsg109
Nsg110
Nsg111
Nsg112
Nsg113
Nsg114
Nsg115
Nsg116
VAmericaEast
p1157
sg118
Nsg119
VAmerica East
p1158
sg121
Nsg122
Nsg123
I20071722
sg124
Nsbag3
(g92
g5
Ntp1159
Rp1160
(dp1161
g10
Nsg96
Nsg97
Nsg98
Nsg99
Nsg100
Nsg80
Nsg101
Nsg102
Nsg103
Nsg104
Nsg105
Nsg106
Nsg107
Nsg108
Nsg109
Nsg110
Nsg111
Nsg112
Nsg113
Nsg114
Nsg115
Nsg116
VUNHWildcats
p1162
sg118
Nsg119
VUNH Wildcats
p1163
sg121
Nsg122
Nsg123
I32448636
sg124
Nsbag3
(g92
g5
Ntp1164
Rp1165
(dp1166
g10
Nsg96
Nsg97
Nsg98
Nsg99
Nsg100
Nsg80
Nsg101
Nsg102
Nsg103
Nsg104
Nsg105
Nsg106
Nsg107
Nsg108
Nsg109
Nsg110
Nsg111
Nsg112
Nsg113
Nsg114
Nsg115
Nsg116
VNCAA_FCS
p1167
sg118
Nsg119
VFCS Football
p1168
sg121
Nsg122
Nsg123
I1670966311
sg124
Nsbasg125
Nsg126
Nsg127
Nsg128
VRT @AmericaEast: Congrats to @UNHWildcats football on advancing to the @NCAA_FCS semifinals! #AEPride
p1169
sg130
I00
sg131
Ven
p1170
sg133
g3
(g92
g5
Ntp1171
Rp1172
(dp1173
g10
VUniversity of Maine
p1174
sg96
V333333
p1175
sg97
Ven
p1176
sg98
VEastern Time (US & Canada)
p1177
sg99
I185
sg100
I2045
sg80
VWed Mar 05 18:12:08 +0000 2014
p1178
sg101
I00
sg102
VWe are a Property of @LearfieldSports, and the Official multimedia rights holder for University of Maine Athletics (@BlackBearNation). #PartnerWithUMaine
p1179
sg103
Vhttps://pbs.twimg.com/profile_images/441288554182737920/17ID16E5_normal.jpeg
p1180
sg104
I420
sg105
I735
sg106
I-18000
sg107
Nsg108
I00
sg109
Nsg110
I00
sg111
I00
sg112
V3B94D9
p1181
sg113
I00
sg114
I00
sg115
Vhttp://abs.twimg.com/images/themes/theme1/bg.png
p1182
sg116
VBBSPMaine
p1183
sg118
I4
sg119
VBlackBear Sport Prop
p1184
sg121
VDDEEF6
p1185
sg122
Vhttp://t.co/gY95idPK6T
p1186
sg123
I2374164199
sg124
VC0DEED
p1187
sbsg152
I8
sg153
V<a href="http://twitter.com/download/android" rel="nofollow">Twitter for Android</a>
p1188
sg155
(lp1189
sg123
I543637857991421952
sbag3
(g4
g5
Ntp1190
Rp1191
(dp1192
g9
I0
sg10
Nsg11
Nsg12
(lp1193
g3
(g14
g5
Ntp1194
Rp1195
(dp1196
g18
VCAAFB
p1197
sbasg20
I00
sg21
g3
(g4
g5
Ntp1198
Rp1199
(dp1200
g9
I0
sg10
Nsg11
Nsg12
(lp1201
g3
(g14
g5
Ntp1202
Rp1203
(dp1204
g18
VCAAFB
p1205
sbasg20
I00
sg21
Nsg30
Nsg31
(lp1206
sg77
Nsg78
Nsg79
Nsg80
VSat Dec 13 04:27:23 +0000 2014
p1207
sg82
Nsg83
Nsg84
Nsg85
Nsg86
Nsg87
Nsg88
I00
sg89
Nsg90
(lp1208
sg125
Nsg126
Nsg127
Nsg128
VNew Hampshire advances to the FCS semifinals with a 35-30 win over Chattanooga. #CAAFB
p1209
sg130
I00
sg131
Ven
p1210
sg133
g3
(g92
g5
Ntp1211
Rp1212
(dp1213
g10
VBangor,ME
p1214
sg96
V333333
p1215
sg97
Ven
p1216
sg98
VEastern Time (US & Canada)
p1217
sg99
I627
sg100
I2787
sg80
VWed Aug 24 15:34:02 +0000 2011
p1218
sg101
I00
sg102
VHost of Downtown on Sports Radio, 92.9 The  Ticket, voice of Maine Black Bear football for 18 seasons, teacher, actor, new dad.
p1219
sg103
Vhttps://pbs.twimg.com/profile_images/467677193145839616/2ybp9MHW_normal.jpeg
p1220
sg104
I501
sg105
I178
sg106
I-18000
sg107
Nsg108
I00
sg109
Vhttps://pbs.twimg.com/profile_banners/361299721/1400337941
p1221
sg110
I00
sg111
I00
sg112
V0099CC
p1222
sg113
I01
sg114
I00
sg115
Vhttp://abs.twimg.com/images/themes/theme19/bg.gif
p1223
sg116
VDowntownRichK
p1224
sg118
I11
sg119
VRich Kimball 
p1225
sg121
VF6FFD1
p1226
sg122
Vhttp://t.co/t0JxY7RQ
p1227
sg123
I361299721
sg124
VFFF04D
p1228
sbsg152
I1
sg153
V<a href="http://twitter.com/#!/download/ipad" rel="nofollow">Twitter for iPad</a>
p1229
sg155
(lp1230
sg123
I543623189407232000
sbsg30
Nsg31
(lp1231
sg77
Nsg78
Nsg79
Nsg80
VSat Dec 13 05:25:32 +0000 2014
p1232
sg82
Nsg83
Nsg84
Nsg85
Nsg86
Nsg87
Nsg88
I00
sg89
Nsg90
(lp1233
g3
(g92
g5
Ntp1234
Rp1235
(dp1236
g10
Nsg96
Nsg97
Nsg98
Nsg99
Nsg100
Nsg80
Nsg101
Nsg102
Nsg103
Nsg104
Nsg105
Nsg106
Nsg107
Nsg108
Nsg109
Nsg110
Nsg111
Nsg112
Nsg113
Nsg114
Nsg115
Nsg116
VDowntownRichK
p1237
sg118
Nsg119
VRich Kimball 
p1238
sg121
Nsg122
Nsg123
I361299721
sg124
Nsbasg125
Nsg126
Nsg127
Nsg128
VRT @DowntownRichK: New Hampshire advances to the FCS semifinals with a 35-30 win over Chattanooga. #CAAFB
p1239
sg130
I00
sg131
Ven
p1240
sg133
g3
(g92
g5
Ntp1241
Rp1242
(dp1243
g10
VUniversity of Maine
p1244
sg96
V333333
p1245
sg97
Ven
p1246
sg98
VEastern Time (US & Canada)
p1247
sg99
I185
sg100
I2045
sg80
VWed Mar 05 18:12:08 +0000 2014
p1248
sg101
I00
sg102
VWe are a Property of @LearfieldSports, and the Official multimedia rights holder for University of Maine Athletics (@BlackBearNation). #PartnerWithUMaine
p1249
sg103
Vhttps://pbs.twimg.com/profile_images/441288554182737920/17ID16E5_normal.jpeg
p1250
sg104
I420
sg105
I735
sg106
I-18000
sg107
Nsg108
I00
sg109
Nsg110
I00
sg111
I00
sg112
V3B94D9
p1251
sg113
I00
sg114
I00
sg115
Vhttp://abs.twimg.com/images/themes/theme1/bg.png
p1252
sg116
VBBSPMaine
p1253
sg118
I4
sg119
VBlackBear Sport Prop
p1254
sg121
VDDEEF6
p1255
sg122
Vhttp://t.co/gY95idPK6T
p1256
sg123
I2374164199
sg124
VC0DEED
p1257
sbsg152
I1
sg153
V<a href="http://twitter.com/download/android" rel="nofollow">Twitter for Android</a>
p1258
sg155
(lp1259
sg123
I543637827150704641
sbag3
(g4
g5
Ntp1260
Rp1261
(dp1262
g9
I0
sg10
Nsg11
Nsg12
(lp1263
g3
(g14
g5
Ntp1264
Rp1265
(dp1266
g18
Vaehoops
p1267
sbag3
(g14
g5
Ntp1268
Rp1269
(dp1270
g18
VBlackBearNation
p1271
sbasg20
I00
sg21
g3
(g4
g5
Ntp1272
Rp1273
(dp1274
g9
I3
sg10
Nsg11
Nsg12
(lp1275
g3
(g14
g5
Ntp1276
Rp1277
(dp1278
g18
Vaehoops
p1279
sbag3
(g14
g5
Ntp1280
Rp1281
(dp1282
g18
VBlackBearNation
p1283
sbasg20
I00
sg21
Nsg30
Nsg31
(lp1284
sg77
Nsg78
Nsg79
Nsg80
VFri Dec 12 19:47:42 +0000 2014
p1285
sg82
Nsg83
I00
sg84
Nsg85
Nsg86
Nsg87
Nsg88
I00
sg89
Nsg90
(lp1286
sg125
Nsg126
Nsg127
Nsg128
VPREVIEW: Women's Basketball Goes for Sixth-Straight Win Saturday vs. Northeastern #aehoops #BlackBearNation... http://t.co/LG4il2njcX
p1287
sg130
I00
sg131
Ven
p1288
sg133
g3
(g92
g5
Ntp1289
Rp1290
(dp1291
g10
VOrono, Maine
p1292
sg96
V333333
p1293
sg97
Ven
p1294
sg98
VEastern Time (US & Canada)
p1295
sg99
I1299
sg100
I3046
sg80
VThu Jun 04 19:09:25 +0000 2009
p1296
sg101
I00
sg102
VThe Official Twitter Account of the University of Maine Women's Basketball Team: Embrace the Process
p1297
sg103
Vhttps://pbs.twimg.com/profile_images/529700625828036608/rmFRe3s8_normal.jpeg
p1298
sg104
I48
sg105
I57
sg106
I-18000
sg107
Nsg108
I00
sg109
Vhttps://pbs.twimg.com/profile_banners/44691693/1413831640
p1299
sg110
I00
sg111
I00
sg112
V0084B4
p1300
sg113
I01
sg114
I00
sg115
Vhttp://pbs.twimg.com/profile_background_images/524274132620296192/3Idz0p6h.jpeg
p1301
sg116
VBlackBearsWBB
p1302
sg118
I38
sg119
VMaine Women's Hoops
p1303
sg121
VDDFFCC
p1304
sg122
Vhttp://t.co/wduzrKA6MI
p1305
sg123
I44691693
sg124
V9AE4E8
p1306
sbsg152
I6
sg153
V<a href="http://www.facebook.com/twitter" rel="nofollow">Facebook</a>
p1307
sg155
(lp1308
g3
(g436
g5
Ntp1309
Rp1310
(dp1311
g440
Vhttp://t.co/LG4il2njcX
p1312
sg442
Vhttp://fb.me/6YKXJHy3Z
p1313
sbasg123
I543492409880219650
sbsg30
Nsg31
(lp1314
sg77
Nsg78
Nsg79
Nsg80
VSat Dec 13 03:47:12 +0000 2014
p1315
sg82
Nsg83
I01
sg84
Nsg85
Nsg86
Nsg87
Nsg88
I00
sg89
Nsg90
(lp1316
g3
(g92
g5
Ntp1317
Rp1318
(dp1319
g10
Nsg96
Nsg97
Nsg98
Nsg99
Nsg100
Nsg80
Nsg101
Nsg102
Nsg103
Nsg104
Nsg105
Nsg106
Nsg107
Nsg108
Nsg109
Nsg110
Nsg111
Nsg112
Nsg113
Nsg114
Nsg115
Nsg116
VBlackBearsWBB
p1320
sg118
Nsg119
VMaine Women's Hoops
p1321
sg121
Nsg122
Nsg123
I44691693
sg124
Nsbasg125
Nsg126
Nsg127
Nsg128
VRT @BlackBearsWBB: PREVIEW: Women's Basketball Goes for Sixth-Straight Win Saturday vs. Northeastern #aehoops #BlackBearNation... http://t.\u2026
p1322
sg130
I00
sg131
Ven
p1323
sg133
g3
(g92
g5
Ntp1324
Rp1325
(dp1326
g10
VUniversity of Maine
p1327
sg96
V333333
p1328
sg97
Ven
p1329
sg98
VEastern Time (US & Canada)
p1330
sg99
I185
sg100
I2045
sg80
VWed Mar 05 18:12:08 +0000 2014
p1331
sg101
I00
sg102
VWe are a Property of @LearfieldSports, and the Official multimedia rights holder for University of Maine Athletics (@BlackBearNation). #PartnerWithUMaine
p1332
sg103
Vhttps://pbs.twimg.com/profile_images/441288554182737920/17ID16E5_normal.jpeg
p1333
sg104
I420
sg105
I735
sg106
I-18000
sg107
Nsg108
I00
sg109
Nsg110
I00
sg111
I00
sg112
V3B94D9
p1334
sg113
I00
sg114
I00
sg115
Vhttp://abs.twimg.com/images/themes/theme1/bg.png
p1335
sg116
VBBSPMaine
p1336
sg118
I4
sg119
VBlackBear Sport Prop
p1337
sg121
VDDEEF6
p1338
sg122
Vhttp://t.co/gY95idPK6T
p1339
sg123
I2374164199
sg124
VC0DEED
p1340
sbsg152
I6
sg153
V<a href="http://twitter.com/download/android" rel="nofollow">Twitter for Android</a>
p1341
sg155
(lp1342
g3
(g436
g5
Ntp1343
Rp1344
(dp1345
g440
Vhttp://t.co/LG4il2njcX
p1346
sg442
Vhttp://fb.me/6YKXJHy3Z
p1347
sbasg123
I543613078039166976
sbag3
(g4
g5
Ntp1348
Rp1349
(dp1350
g9
I0
sg10
Nsg11
Nsg12
(lp1351
g3
(g14
g5
Ntp1352
Rp1353
(dp1354
g18
VBlackBearNation
p1355
sbasg20
I00
sg21
g3
(g4
g5
Ntp1356
Rp1357
(dp1358
g9
I3
sg10
Nsg11
Nsg12
(lp1359
g3
(g14
g5
Ntp1360
Rp1361
(dp1362
g18
VBlackBearNation
p1363
sbasg20
I00
sg21
Nsg30
Nsg31
(lp1364
(dp1365
Vexpanded_url
p1366
Vhttp://twitter.com/BlackBearNation/status/543146152015953920/photo/1
p1367
sVdisplay_url
p1368
Vpic.twitter.com/N316z3ucqU
p1369
sVurl
p1370
Vhttp://t.co/N316z3ucqU
p1371
sVmedia_url_https
p1372
Vhttps://pbs.twimg.com/media/B4mkjAHCIAA0nB2.jpg
p1373
sVid_str
p1374
V543146151306731520
p1375
sVsizes
p1376
(dp1377
Vsmall
p1378
(dp1379
Vh
p1380
I217
sVresize
p1381
Vfit
p1382
sVw
p1383
I340
ssVlarge
p1384
(dp1385
Vh
p1386
I654
sVresize
p1387
Vfit
p1388
sVw
p1389
I1024
ssVmedium
p1390
(dp1391
Vh
p1392
I383
sVresize
p1393
Vfit
p1394
sVw
p1395
I600
ssVthumb
p1396
(dp1397
Vh
p1398
I150
sVresize
p1399
Vcrop
p1400
sVw
p1401
I150
sssVindices
p1402
(lp1403
I117
aI139
asVtype
p1404
Vphoto
p1405
sVid
p1406
I543146151306731520
sVmedia_url
p1407
Vhttp://pbs.twimg.com/media/B4mkjAHCIAA0nB2.jpg
p1408
sasg77
Nsg78
Nsg79
Nsg80
VThu Dec 11 20:51:48 +0000 2014
p1409
sg82
Nsg83
I00
sg84
VBlackBearsWBB
p1410
sg85
Nsg86
I44691693
sg87
Nsg88
I00
sg89
Nsg90
(lp1411
g3
(g92
g5
Ntp1412
Rp1413
(dp1414
g10
Nsg96
Nsg97
Nsg98
Nsg99
Nsg100
Nsg80
Nsg101
Nsg102
Nsg103
Nsg104
Nsg105
Nsg106
Nsg107
Nsg108
Nsg109
Nsg110
Nsg111
Nsg112
Nsg113
Nsg114
Nsg115
Nsg116
VBlackBearsWBB
p1415
sg118
Nsg119
VMaine Women's Hoops
p1416
sg121
Nsg122
Nsg123
I44691693
sg124
Nsbag3
(g92
g5
Ntp1417
Rp1418
(dp1419
g10
Nsg96
Nsg97
Nsg98
Nsg99
Nsg100
Nsg80
Nsg101
Nsg102
Nsg103
Nsg104
Nsg105
Nsg106
Nsg107
Nsg108
Nsg109
Nsg110
Nsg111
Nsg112
Nsg113
Nsg114
Nsg115
Nsg116
VCICBangor
p1420
sg118
Nsg119
VCrossInsuranceCenter
p1421
sg121
Nsg122
Nsg123
I1521013687
sg124
Nsbasg125
Nsg126
Nsg127
Nsg128
V@BlackBearsWBB returns to the @CICBangor on Saturday to take on Northeastern. Tip-off is at 1:00pm! #BlackBearNation http://t.co/N316z3ucqU
p1422
sg130
I00
sg131
Ven
p1423
sg133
g3
(g92
g5
Ntp1424
Rp1425
(dp1426
g10
VOrono, Maine
p1427
sg96
V333333
p1428
sg97
Ven
p1429
sg98
Nsg99
I6188
sg100
I7040
sg80
VTue Mar 31 18:26:01 +0000 2009
p1430
sg101
I01
sg102
VOfficial Twitter Site of the University of Maine Athletic Department.
p1431
sg103
Vhttps://pbs.twimg.com/profile_images/378800000369836475/3f78c3015b1506c0437ebe55b7a3ff09_normal.jpeg
p1432
sg104
I58
sg105
I23
sg106
Nsg107
Nsg108
I00
sg109
Vhttps://pbs.twimg.com/profile_banners/27929580/1410209893
p1433
sg110
I00
sg111
I00
sg112
V0084B4
p1434
sg113
I00
sg114
I00
sg115
Vhttp://pbs.twimg.com/profile_background_images/378800000106883440/1d7c70ee375fe43a72e802f537d346a0.jpeg
p1435
sg116
VBlackBearNation
p1436
sg118
I120
sg119
VBlack Bear Nation
p1437
sg121
VFCFEFA
p1438
sg122
Vhttp://t.co/xKJhrOsM
p1439
sg123
I27929580
sg124
V1D2AE7
p1440
sbsg152
I4
sg153
V<a href="http://twitter.com" rel="nofollow">Twitter Web Client</a>
p1441
sg155
(lp1442
sg123
I543146152015953920
sbsg30
Nsg31
(lp1443
(dp1444
Vsource_user_id
p1445
I27929580
sVsource_status_id_str
p1446
V543146152015953920
p1447
sVexpanded_url
p1448
Vhttp://twitter.com/BlackBearNation/status/543146152015953920/photo/1
p1449
sVdisplay_url
p1450
Vpic.twitter.com/N316z3ucqU
p1451
sVurl
p1452
Vhttp://t.co/N316z3ucqU
p1453
sVmedia_url_https
p1454
Vhttps://pbs.twimg.com/media/B4mkjAHCIAA0nB2.jpg
p1455
sVsource_user_id_str
p1456
V27929580
p1457
sVsource_status_id
p1458
I543146152015953920
sVid_str
p1459
V543146151306731520
p1460
sVsizes
p1461
(dp1462
Vsmall
p1463
(dp1464
Vh
p1465
I217
sVresize
p1466
Vfit
p1467
sVw
p1468
I340
ssVlarge
p1469
(dp1470
Vh
p1471
I654
sVresize
p1472
Vfit
p1473
sVw
p1474
I1024
ssVmedium
p1475
(dp1476
Vh
p1477
I383
sVresize
p1478
Vfit
p1479
sVw
p1480
I600
ssVthumb
p1481
(dp1482
Vh
p1483
I150
sVresize
p1484
Vcrop
p1485
sVw
p1486
I150
sssVindices
p1487
(lp1488
I139
aI140
asVtype
p1489
Vphoto
p1490
sVid
p1491
I543146151306731520
sVmedia_url
p1492
Vhttp://pbs.twimg.com/media/B4mkjAHCIAA0nB2.jpg
p1493
sasg77
Nsg78
Nsg79
Nsg80
VSat Dec 13 03:46:49 +0000 2014
p1494
sg82
Nsg83
I01
sg84
Nsg85
Nsg86
Nsg87
Nsg88
I00
sg89
Nsg90
(lp1495
g3
(g92
g5
Ntp1496
Rp1497
(dp1498
g10
Nsg96
Nsg97
Nsg98
Nsg99
Nsg100
Nsg80
Nsg101
Nsg102
Nsg103
Nsg104
Nsg105
Nsg106
Nsg107
Nsg108
Nsg109
Nsg110
Nsg111
Nsg112
Nsg113
Nsg114
Nsg115
Nsg116
VBlackBearNation
p1499
sg118
Nsg119
VBlack Bear Nation
p1500
sg121
Nsg122
Nsg123
I27929580
sg124
Nsbag3
(g92
g5
Ntp1501
Rp1502
(dp1503
g10
Nsg96
Nsg97
Nsg98
Nsg99
Nsg100
Nsg80
Nsg101
Nsg102
Nsg103
Nsg104
Nsg105
Nsg106
Nsg107
Nsg108
Nsg109
Nsg110
Nsg111
Nsg112
Nsg113
Nsg114
Nsg115
Nsg116
VBlackBearsWBB
p1504
sg118
Nsg119
VMaine Women's Hoops
p1505
sg121
Nsg122
Nsg123
I44691693
sg124
Nsbag3
(g92
g5
Ntp1506
Rp1507
(dp1508
g10
Nsg96
Nsg97
Nsg98
Nsg99
Nsg100
Nsg80
Nsg101
Nsg102
Nsg103
Nsg104
Nsg105
Nsg106
Nsg107
Nsg108
Nsg109
Nsg110
Nsg111
Nsg112
Nsg113
Nsg114
Nsg115
Nsg116
VCICBangor
p1509
sg118
Nsg119
VCrossInsuranceCenter
p1510
sg121
Nsg122
Nsg123
I1521013687
sg124
Nsbasg125
Nsg126
Nsg127
Nsg128
VRT @BlackBearNation: @BlackBearsWBB returns to the @CICBangor on Saturday to take on Northeastern. Tip-off is at 1:00pm! #BlackBearNation h\u2026
p1511
sg130
I00
sg131
Ven
p1512
sg133
g3
(g92
g5
Ntp1513
Rp1514
(dp1515
g10
VUniversity of Maine
p1516
sg96
V333333
p1517
sg97
Ven
p1518
sg98
VEastern Time (US & Canada)
p1519
sg99
I185
sg100
I2045
sg80
VWed Mar 05 18:12:08 +0000 2014
p1520
sg101
I00
sg102
VWe are a Property of @LearfieldSports, and the Official multimedia rights holder for University of Maine Athletics (@BlackBearNation). #PartnerWithUMaine
p1521
sg103
Vhttps://pbs.twimg.com/profile_images/441288554182737920/17ID16E5_normal.jpeg
p1522
sg104
I420
sg105
I735
sg106
I-18000
sg107
Nsg108
I00
sg109
Nsg110
I00
sg111
I00
sg112
V3B94D9
p1523
sg113
I00
sg114
I00
sg115
Vhttp://abs.twimg.com/images/themes/theme1/bg.png
p1524
sg116
VBBSPMaine
p1525
sg118
I4
sg119
VBlackBear Sport Prop
p1526
sg121
VDDEEF6
p1527
sg122
Vhttp://t.co/gY95idPK6T
p1528
sg123
I2374164199
sg124
VC0DEED
p1529
sbsg152
I4
sg153
V<a href="http://twitter.com/download/android" rel="nofollow">Twitter for Android</a>
p1530
sg155
(lp1531
sg123
I543612981767323648
sbag3
(g4
g5
Ntp1532
Rp1533
(dp1534
g9
I1
sg10
Nsg11
Nsg12
(lp1535
sg20
I00
sg21
Nsg30
Nsg31
(lp1536
sg77
Nsg78
Nsg79
Nsg80
VSat Dec 13 03:20:43 +0000 2014
p1537
sg82
Nsg83
Nsg84
VCoachBumaine
p1538
sg85
Nsg86
I2209462002
sg87
Nsg88
I00
sg89
Nsg90
(lp1539
g3
(g92
g5
Ntp1540
Rp1541
(dp1542
g10
Nsg96
Nsg97
Nsg98
Nsg99
Nsg100
Nsg80
Nsg101
Nsg102
Nsg103
Nsg104
Nsg105
Nsg106
Nsg107
Nsg108
Nsg109
Nsg110
Nsg111
Nsg112
Nsg113
Nsg114
Nsg115
Nsg116
VCoachBumaine
p1543
sg118
Nsg119
VRichard Barron
p1544
sg121
Nsg122
Nsg123
I2209462002
sg124
Nsbag3
(g92
g5
Ntp1545
Rp1546
(dp1547
g10
Nsg96
Nsg97
Nsg98
Nsg99
Nsg100
Nsg80
Nsg101
Nsg102
Nsg103
Nsg104
Nsg105
Nsg106
Nsg107
Nsg108
Nsg109
Nsg110
Nsg111
Nsg112
Nsg113
Nsg114
Nsg115
Nsg116
VCICBangor
p1548
sg118
Nsg119
VCrossInsuranceCenter
p1549
sg121
Nsg122
Nsg123
I1521013687
sg124
Nsbag3
(g92
g5
Ntp1550
Rp1551
(dp1552
g10
Nsg96
Nsg97
Nsg98
Nsg99
Nsg100
Nsg80
Nsg101
Nsg102
Nsg103
Nsg104
Nsg105
Nsg106
Nsg107
Nsg108
Nsg109
Nsg110
Nsg111
Nsg112
Nsg113
Nsg114
Nsg115
Nsg116
VBlackBearsWBB
p1553
sg118
Nsg119
VMaine Women's Hoops
p1554
sg121
Nsg122
Nsg123
I44691693
sg124
Nsbasg125
Nsg126
Nsg127
I543597273671012352
sg128
V@CoachBumaine @CICBangor @BlackBearsWBB We remember those days, Coach!  That place would ROCK like no other!
p1555
sg130
I00
sg131
Ven
p1556
sg133
g3
(g92
g5
Ntp1557
Rp1558
(dp1559
g10
VUniversity of Maine
p1560
sg96
V333333
p1561
sg97
Ven
p1562
sg98
VEastern Time (US & Canada)
p1563
sg99
I185
sg100
I2045
sg80
VWed Mar 05 18:12:08 +0000 2014
p1564
sg101
I00
sg102
VWe are a Property of @LearfieldSports, and the Official multimedia rights holder for University of Maine Athletics (@BlackBearNation). #PartnerWithUMaine
p1565
sg103
Vhttps://pbs.twimg.com/profile_images/441288554182737920/17ID16E5_normal.jpeg
p1566
sg104
I420
sg105
I735
sg106
I-18000
sg107
Nsg108
I00
sg109
Nsg110
I00
sg111
I00
sg112
V3B94D9
p1567
sg113
I00
sg114
I00
sg115
Vhttp://abs.twimg.com/images/themes/theme1/bg.png
p1568
sg116
VBBSPMaine
p1569
sg118
I4
sg119
VBlackBear Sport Prop
p1570
sg121
VDDEEF6
p1571
sg122
Vhttp://t.co/gY95idPK6T
p1572
sg123
I2374164199
sg124
VC0DEED
p1573
sbsg152
I0
sg153
V<a href="http://twitter.com/download/android" rel="nofollow">Twitter for Android</a>
p1574
sg155
(lp1575
sg123
I543606416205164545
sbag3
(g4
g5
Ntp1576
Rp1577
(dp1578
g9
I0
sg10
Nsg11
Nsg12
(lp1579
g3
(g14
g5
Ntp1580
Rp1581
(dp1582
g18
Vpackthecic
p1583
sbasg20
I00
sg21
g3
(g4
g5
Ntp1584
Rp1585
(dp1586
g9
I6
sg10
Nsg11
Nsg12
(lp1587
g3
(g14
g5
Ntp1588
Rp1589
(dp1590
g18
Vpackthecic
p1591
sbasg20
I00
sg21
Nsg30
Nsg31
(lp1592
(dp1593
Vexpanded_url
p1594
Vhttp://twitter.com/CoachBumaine/status/543597273671012352/photo/1
p1595
sVdisplay_url
p1596
Vpic.twitter.com/PDWRLEkLRN
p1597
sVurl
p1598
Vhttp://t.co/PDWRLEkLRN
p1599
sVmedia_url_https
p1600
Vhttps://pbs.twimg.com/media/B4s-1LBCAAEai_8.jpg
p1601
sVid_str
p1602
V543597263239380993
p1603
sVsizes
p1604
(dp1605
Vsmall
p1606
(dp1607
Vh
p1608
I255
sVresize
p1609
Vfit
p1610
sVw
p1611
I340
ssVlarge
p1612
(dp1613
Vh
p1614
I360
sVresize
p1615
Vfit
p1616
sVw
p1617
I480
ssVmedium
p1618
(dp1619
Vh
p1620
I360
sVresize
p1621
Vfit
p1622
sVw
p1623
I480
ssVthumb
p1624
(dp1625
Vh
p1626
I150
sVresize
p1627
Vcrop
p1628
sVw
p1629
I150
sssVindices
p1630
(lp1631
I117
aI139
asVtype
p1632
Vphoto
p1633
sVid
p1634
I543597263239380993
sVmedia_url
p1635
Vhttp://pbs.twimg.com/media/B4s-1LBCAAEai_8.jpg
p1636
sasg77
Nsg78
Nsg79
Nsg80
VSat Dec 13 02:44:24 +0000 2014
p1637
sg82
Nsg83
I00
sg84
Nsg85
Nsg86
Nsg87
Nsg88
I00
sg89
Nsg90
(lp1638
g3
(g92
g5
Ntp1639
Rp1640
(dp1641
g10
Nsg96
Nsg97
Nsg98
Nsg99
Nsg100
Nsg80
Nsg101
Nsg102
Nsg103
Nsg104
Nsg105
Nsg106
Nsg107
Nsg108
Nsg109
Nsg110
Nsg111
Nsg112
Nsg113
Nsg114
Nsg115
Nsg116
VCICBangor
p1642
sg118
Nsg119
VCrossInsuranceCenter
p1643
sg121
Nsg122
Nsg123
I1521013687
sg124
Nsbag3
(g92
g5
Ntp1644
Rp1645
(dp1646
g10
Nsg96
Nsg97
Nsg98
Nsg99
Nsg100
Nsg80
Nsg101
Nsg102
Nsg103
Nsg104
Nsg105
Nsg106
Nsg107
Nsg108
Nsg109
Nsg110
Nsg111
Nsg112
Nsg113
Nsg114
Nsg115
Nsg116
VBlackBearsWBB
p1647
sg118
Nsg119
VMaine Women's Hoops
p1648
sg121
Nsg122
Nsg123
I44691693
sg124
Nsbasg125
Nsg126
Nsg127
Nsg128
VImagine our home court advantage if we could return to the days of 4500 fans. #packthecic  @CICBangor @BlackBearsWBB http://t.co/PDWRLEkLRN
p1649
sg130
I00
sg131
Ven
p1650
sg133
g3
(g92
g5
Ntp1651
Rp1652
(dp1653
g10
VOrono
p1654
sg96
V333333
p1655
sg97
Ven
p1656
sg98
Nsg99
I709
sg100
I2976
sg80
VFri Nov 22 19:43:01 +0000 2013
p1657
sg101
I01
sg102
VWomen's Basketball Coach at University of Maine
p1658
sg103
Vhttps://pbs.twimg.com/profile_images/378800000775749064/cce0e3389a5b2b9c92d35c4a84f22c10_normal.jpeg
p1659
sg104
I495
sg105
I1532
sg106
Nsg107
Nsg108
I00
sg109
Vhttps://pbs.twimg.com/profile_banners/2209462002/1415569944
p1660
sg110
I00
sg111
I00
sg112
V0084B4
p1661
sg113
I01
sg114
I00
sg115
Vhttp://abs.twimg.com/images/themes/theme1/bg.png
p1662
sg116
VCoachBumaine
p1663
sg118
I8
sg119
VRichard Barron
p1664
sg121
VDDEEF6
p1665
sg122
Vhttp://t.co/gsXih7HP3V
p1666
sg123
I2209462002
sg124
VC0DEED
p1667
sbsg152
I5
sg153
V<a href="http://twitter.com/download/iphone" rel="nofollow">Twitter for iPhone</a>
p1668
sg155
(lp1669
sg123
I543597273671012352
sbsg30
Nsg31
(lp1670
(dp1671
Vsource_user_id
p1672
I2209462002
sVsource_status_id_str
p1673
V543597273671012352
p1674
sVexpanded_url
p1675
Vhttp://twitter.com/CoachBumaine/status/543597273671012352/photo/1
p1676
sVdisplay_url
p1677
Vpic.twitter.com/PDWRLEkLRN
p1678
sVurl
p1679
Vhttp://t.co/PDWRLEkLRN
p1680
sVmedia_url_https
p1681
Vhttps://pbs.twimg.com/media/B4s-1LBCAAEai_8.jpg
p1682
sVsource_user_id_str
p1683
V2209462002
p1684
sVsource_status_id
p1685
I543597273671012352
sVid_str
p1686
V543597263239380993
p1687
sVsizes
p1688
(dp1689
Vsmall
p1690
(dp1691
Vh
p1692
I255
sVresize
p1693
Vfit
p1694
sVw
p1695
I340
ssVlarge
p1696
(dp1697
Vh
p1698
I360
sVresize
p1699
Vfit
p1700
sVw
p1701
I480
ssVmedium
p1702
(dp1703
Vh
p1704
I360
sVresize
p1705
Vfit
p1706
sVw
p1707
I480
ssVthumb
p1708
(dp1709
Vh
p1710
I150
sVresize
p1711
Vcrop
p1712
sVw
p1713
I150
sssVindices
p1714
(lp1715
I139
aI140
asVtype
p1716
Vphoto
p1717
sVid
p1718
I543597263239380993
sVmedia_url
p1719
Vhttp://pbs.twimg.com/media/B4s-1LBCAAEai_8.jpg
p1720
sasg77
Nsg78
Nsg79
Nsg80
VSat Dec 13 03:19:00 +0000 2014
p1721
sg82
Nsg83
I01
sg84
Nsg85
Nsg86
Nsg87
Nsg88
I00
sg89
Nsg90
(lp1722
g3
(g92
g5
Ntp1723
Rp1724
(dp1725
g10
Nsg96
Nsg97
Nsg98
Nsg99
Nsg100
Nsg80
Nsg101
Nsg102
Nsg103
Nsg104
Nsg105
Nsg106
Nsg107
Nsg108
Nsg109
Nsg110
Nsg111
Nsg112
Nsg113
Nsg114
Nsg115
Nsg116
VCoachBumaine
p1726
sg118
Nsg119
VRichard Barron
p1727
sg121
Nsg122
Nsg123
I2209462002
sg124
Nsbag3
(g92
g5
Ntp1728
Rp1729
(dp1730
g10
Nsg96
Nsg97
Nsg98
Nsg99
Nsg100
Nsg80
Nsg101
Nsg102
Nsg103
Nsg104
Nsg105
Nsg106
Nsg107
Nsg108
Nsg109
Nsg110
Nsg111
Nsg112
Nsg113
Nsg114
Nsg115
Nsg116
VCICBangor
p1731
sg118
Nsg119
VCrossInsuranceCenter
p1732
sg121
Nsg122
Nsg123
I1521013687
sg124
Nsbag3
(g92
g5
Ntp1733
Rp1734
(dp1735
g10
Nsg96
Nsg97
Nsg98
Nsg99
Nsg100
Nsg80
Nsg101
Nsg102
Nsg103
Nsg104
Nsg105
Nsg106
Nsg107
Nsg108
Nsg109
Nsg110
Nsg111
Nsg112
Nsg113
Nsg114
Nsg115
Nsg116
VBlackBearsWBB
p1736
sg118
Nsg119
VMaine Women's Hoops
p1737
sg121
Nsg122
Nsg123
I44691693
sg124
Nsbasg125
Nsg126
Nsg127
Nsg128
VRT @CoachBumaine: Imagine our home court advantage if we could return to the days of 4500 fans. #packthecic  @CICBangor @BlackBearsWBB http\u2026
p1738
sg130
I00
sg131
Ven
p1739
sg133
g3
(g92
g5
Ntp1740
Rp1741
(dp1742
g10
VUniversity of Maine
p1743
sg96
V333333
p1744
sg97
Ven
p1745
sg98
VEastern Time (US & Canada)
p1746
sg99
I185
sg100
I2045
sg80
VWed Mar 05 18:12:08 +0000 2014
p1747
sg101
I00
sg102
VWe are a Property of @LearfieldSports, and the Official multimedia rights holder for University of Maine Athletics (@BlackBearNation). #PartnerWithUMaine
p1748
sg103
Vhttps://pbs.twimg.com/profile_images/441288554182737920/17ID16E5_normal.jpeg
p1749
sg104
I420
sg105
I735
sg106
I-18000
sg107
Nsg108
I00
sg109
Nsg110
I00
sg111
I00
sg112
V3B94D9
p1750
sg113
I00
sg114
I00
sg115
Vhttp://abs.twimg.com/images/themes/theme1/bg.png
p1751
sg116
VBBSPMaine
p1752
sg118
I4
sg119
VBlackBear Sport Prop
p1753
sg121
VDDEEF6
p1754
sg122
Vhttp://t.co/gY95idPK6T
p1755
sg123
I2374164199
sg124
VC0DEED
p1756
sbsg152
I5
sg153
V<a href="http://twitter.com/download/android" rel="nofollow">Twitter for Android</a>
p1757
sg155
(lp1758
sg123
I543605983965372416
sbag3
(g4
g5
Ntp1759
Rp1760
(dp1761
g9
I0
sg10
Nsg11
Nsg12
(lp1762
sg20
I00
sg21
g3
(g4
g5
Ntp1763
Rp1764
(dp1765
g9
I6
sg10
Nsg11
Nsg12
(lp1766
sg20
I00
sg21
Nsg30
Nsg31
(lp1767
(dp1768
Vexpanded_url
p1769
Vhttp://twitter.com/MaineIceHockey/status/543595572062879746/photo/1
p1770
sVdisplay_url
p1771
Vpic.twitter.com/50gYT05Ecm
p1772
sVurl
p1773
Vhttp://t.co/50gYT05Ecm
p1774
sVmedia_url_https
p1775
Vhttps://pbs.twimg.com/media/B4s9SGtCUAAMrqM.jpg
p1776
sVid_str
p1777
V543595561274724352
p1778
sVsizes
p1779
(dp1780
Vsmall
p1781
(dp1782
Vh
p1783
I453
sVresize
p1784
Vfit
p1785
sVw
p1786
I340
ssVlarge
p1787
(dp1788
Vh
p1789
I1024
sVresize
p1790
Vfit
p1791
sVw
p1792
I768
ssVmedium
p1793
(dp1794
Vh
p1795
I800
sVresize
p1796
Vfit
p1797
sVw
p1798
I600
ssVthumb
p1799
(dp1800
Vh
p1801
I150
sVresize
p1802
Vcrop
p1803
sVw
p1804
I150
sssVindices
p1805
(lp1806
I43
aI65
asVtype
p1807
Vphoto
p1808
sVid
p1809
I543595561274724352
sVmedia_url
p1810
Vhttp://pbs.twimg.com/media/B4s9SGtCUAAMrqM.jpg
p1811
sasg77
Nsg78
Nsg79
Nsg80
VSat Dec 13 02:37:38 +0000 2014
p1812
sg82
Nsg83
I00
sg84
Nsg85
Nsg86
Nsg87
Nsg88
I00
sg89
Nsg90
(lp1813
sg125
Nsg126
Nsg127
Nsg128
VCoach Gendron in the post game press conf. http://t.co/50gYT05Ecm
p1814
sg130
I00
sg131
Ven
p1815
sg133
g3
(g92
g5
Ntp1816
Rp1817
(dp1818
g10
VOrono, Maine
p1819
sg96
V333333
p1820
sg97
Ven
p1821
sg98
VEastern Time (US & Canada)
p1822
sg99
I8714
sg100
I4761
sg80
VFri Sep 25 16:49:46 +0000 2009
p1823
sg101
I00
sg102
VThe Official Twitter Page of the University of Maine Men's Ice Hockey Team.
p1824
sg103
Vhttps://pbs.twimg.com/profile_images/529369978319814656/m2wd2uAt_normal.jpeg
p1825
sg104
I91
sg105
I56
sg106
I-18000
sg107
Nsg108
I00
sg109
Vhttps://pbs.twimg.com/profile_banners/77255989/1412602521
p1826
sg110
I00
sg111
I00
sg112
V0084B4
p1827
sg113
I00
sg114
I00
sg115
Vhttp://pbs.twimg.com/profile_background_images/378800000115965153/e29816e67568a70fbff80313ba70757a.jpeg
p1828
sg116
VMaineIceHockey
p1829
sg118
I192
sg119
VBlack Bear Hockey
p1830
sg121
VDDEEF6
p1831
sg122
Vhttp://t.co/7SRH3YHIti
p1832
sg123
I77255989
sg124
VC0DEED
p1833
sbsg152
I2
sg153
V<a href="http://twitter.com/download/android" rel="nofollow">Twitter for Android</a>
p1834
sg155
(lp1835
sg123
I543595572062879746
sbsg30
Nsg31
(lp1836
(dp1837
Vsource_user_id
p1838
I77255989
sVsource_status_id_str
p1839
V543595572062879746
p1840
sVexpanded_url
p1841
Vhttp://twitter.com/MaineIceHockey/status/543595572062879746/photo/1
p1842
sVdisplay_url
p1843
Vpic.twitter.com/50gYT05Ecm
p1844
sVurl
p1845
Vhttp://t.co/50gYT05Ecm
p1846
sVmedia_url_https
p1847
Vhttps://pbs.twimg.com/media/B4s9SGtCUAAMrqM.jpg
p1848
sVsource_user_id_str
p1849
V77255989
p1850
sVsource_status_id
p1851
I543595572062879746
sVid_str
p1852
V543595561274724352
p1853
sVsizes
p1854
(dp1855
Vsmall
p1856
(dp1857
Vh
p1858
I453
sVresize
p1859
Vfit
p1860
sVw
p1861
I340
ssVlarge
p1862
(dp1863
Vh
p1864
I1024
sVresize
p1865
Vfit
p1866
sVw
p1867
I768
ssVmedium
p1868
(dp1869
Vh
p1870
I800
sVresize
p1871
Vfit
p1872
sVw
p1873
I600
ssVthumb
p1874
(dp1875
Vh
p1876
I150
sVresize
p1877
Vcrop
p1878
sVw
p1879
I150
sssVindices
p1880
(lp1881
I63
aI85
asVtype
p1882
Vphoto
p1883
sVid
p1884
I543595561274724352
sVmedia_url
p1885
Vhttp://pbs.twimg.com/media/B4s9SGtCUAAMrqM.jpg
p1886
sasg77
Nsg78
Nsg79
Nsg80
VSat Dec 13 02:39:56 +0000 2014
p1887
sg82
Nsg83
I01
sg84
Nsg85
Nsg86
Nsg87
Nsg88
I00
sg89
Nsg90
(lp1888
g3
(g92
g5
Ntp1889
Rp1890
(dp1891
g10
Nsg96
Nsg97
Nsg98
Nsg99
Nsg100
Nsg80
Nsg101
Nsg102
Nsg103
Nsg104
Nsg105
Nsg106
Nsg107
Nsg108
Nsg109
Nsg110
Nsg111
Nsg112
Nsg113
Nsg114
Nsg115
Nsg116
VMaineIceHockey
p1892
sg118
Nsg119
VBlack Bear Hockey
p1893
sg121
Nsg122
Nsg123
I77255989
sg124
Nsbasg125
Nsg126
Nsg127
Nsg128
VRT @MaineIceHockey: Coach Gendron in the post game press conf. http://t.co/50gYT05Ecm
p1894
sg130
I00
sg131
Ven
p1895
sg133
g3
(g92
g5
Ntp1896
Rp1897
(dp1898
g10
VUniversity of Maine
p1899
sg96
V333333
p1900
sg97
Ven
p1901
sg98
VEastern Time (US & Canada)
p1902
sg99
I185
sg100
I2045
sg80
VWed Mar 05 18:12:08 +0000 2014
p1903
sg101
I00
sg102
VWe are a Property of @LearfieldSports, and the Official multimedia rights holder for University of Maine Athletics (@BlackBearNation). #PartnerWithUMaine
p1904
sg103
Vhttps://pbs.twimg.com/profile_images/441288554182737920/17ID16E5_normal.jpeg
p1905
sg104
I420
sg105
I735
sg106
I-18000
sg107
Nsg108
I00
sg109
Nsg110
I00
sg111
I00
sg112
V3B94D9
p1906
sg113
I00
sg114
I00
sg115
Vhttp://abs.twimg.com/images/themes/theme1/bg.png
p1907
sg116
VBBSPMaine
p1908
sg118
I4
sg119
VBlackBear Sport Prop
p1909
sg121
VDDEEF6
p1910
sg122
Vhttp://t.co/gY95idPK6T
p1911
sg123
I2374164199
sg124
VC0DEED
p1912
sbsg152
I2
sg153
V<a href="http://twitter.com/download/android" rel="nofollow">Twitter for Android</a>
p1913
sg155
(lp1914
sg123
I543596150239289344
sbag3
(g4
g5
Ntp1915
Rp1916
(dp1917
g9
I0
sg10
Nsg11
Nsg12
(lp1918
sg20
I00
sg21
g3
(g4
g5
Ntp1919
Rp1920
(dp1921
g9
I23
sg10
Nsg11
Nsg12
(lp1922
sg20
I00
sg21
Nsg30
Nsg31
(lp1923
sg77
Nsg78
Nsg79
Nsg80
VSat Dec 13 02:29:23 +0000 2014
p1924
sg82
Nsg83
I00
sg84
Nsg85
Nsg86
Nsg87
Nsg88
I00
sg89
Nsg90
(lp1925
sg125
Nsg126
Nsg127
Nsg128
VMen's Ice Hockey: Maine 5, New Hampshire 2 (Final) Five Straight Goals Propel Men's Ice Hockey Past New Hampshire 5-2 http://t.co/KLms5jxedA
p1926
sg130
I00
sg131
Ven
p1927
sg133
g3
(g92
g5
Ntp1928
Rp1929
(dp1930
g10
VOrono, Maine
p1931
sg96
V333333
p1932
sg97
Ven
p1933
sg98
VEastern Time (US & Canada)
p1934
sg99
I8714
sg100
I4761
sg80
VFri Sep 25 16:49:46 +0000 2009
p1935
sg101
I00
sg102
VThe Official Twitter Page of the University of Maine Men's Ice Hockey Team.
p1936
sg103
Vhttps://pbs.twimg.com/profile_images/529369978319814656/m2wd2uAt_normal.jpeg
p1937
sg104
I91
sg105
I56
sg106
I-18000
sg107
Nsg108
I00
sg109
Vhttps://pbs.twimg.com/profile_banners/77255989/1412602521
p1938
sg110
I00
sg111
I00
sg112
V0084B4
p1939
sg113
I00
sg114
I00
sg115
Vhttp://pbs.twimg.com/profile_background_images/378800000115965153/e29816e67568a70fbff80313ba70757a.jpeg
p1940
sg116
VMaineIceHockey
p1941
sg118
I192
sg119
VBlack Bear Hockey
p1942
sg121
VDDEEF6
p1943
sg122
Vhttp://t.co/7SRH3YHIti
p1944
sg123
I77255989
sg124
VC0DEED
p1945
sbsg152
I26
sg153
V<a href="http://www.prestosports.com" rel="nofollow">PrestoSports</a>
p1946
sg155
(lp1947
g3
(g436
g5
Ntp1948
Rp1949
(dp1950
g440
Vhttp://t.co/KLms5jxedA
p1951
sg442
Vhttp://bit.ly/1wKLUFN
p1952
sbasg123
I543593493654822912
sbsg30
Nsg31
(lp1953
sg77
Nsg78
Nsg79
Nsg80
VSat Dec 13 02:33:28 +0000 2014
p1954
sg82
Nsg83
I01
sg84
Nsg85
Nsg86
Nsg87
Nsg88
I00
sg89
Nsg90
(lp1955
g3
(g92
g5
Ntp1956
Rp1957
(dp1958
g10
Nsg96
Nsg97
Nsg98
Nsg99
Nsg100
Nsg80
Nsg101
Nsg102
Nsg103
Nsg104
Nsg105
Nsg106
Nsg107
Nsg108
Nsg109
Nsg110
Nsg111
Nsg112
Nsg113
Nsg114
Nsg115
Nsg116
VMaineIceHockey
p1959
sg118
Nsg119
VBlack Bear Hockey
p1960
sg121
Nsg122
Nsg123
I77255989
sg124
Nsbasg125
Nsg126
Nsg127
Nsg128
VRT @MaineIceHockey: Men's Ice Hockey: Maine 5, New Hampshire 2 (Final) Five Straight Goals Propel Men's Ice Hockey Past New Hampshire 5-2 h\u2026
p1961
sg130
I00
sg131
Ven
p1962
sg133
g3
(g92
g5
Ntp1963
Rp1964
(dp1965
g10
VUniversity of Maine
p1966
sg96
V333333
p1967
sg97
Ven
p1968
sg98
VEastern Time (US & Canada)
p1969
sg99
I185
sg100
I2045
sg80
VWed Mar 05 18:12:08 +0000 2014
p1970
sg101
I00
sg102
VWe are a Property of @LearfieldSports, and the Official multimedia rights holder for University of Maine Athletics (@BlackBearNation). #PartnerWithUMaine
p1971
sg103
Vhttps://pbs.twimg.com/profile_images/441288554182737920/17ID16E5_normal.jpeg
p1972
sg104
I420
sg105
I735
sg106
I-18000
sg107
Nsg108
I00
sg109
Nsg110
I00
sg111
I00
sg112
V3B94D9
p1973
sg113
I00
sg114
I00
sg115
Vhttp://abs.twimg.com/images/themes/theme1/bg.png
p1974
sg116
VBBSPMaine
p1975
sg118
I4
sg119
VBlackBear Sport Prop
p1976
sg121
VDDEEF6
p1977
sg122
Vhttp://t.co/gY95idPK6T
p1978
sg123
I2374164199
sg124
VC0DEED
p1979
sbsg152
I26
sg153
V<a href="http://twitter.com/download/android" rel="nofollow">Twitter for Android</a>
p1980
sg155
(lp1981
g3
(g436
g5
Ntp1982
Rp1983
(dp1984
g440
Vhttp://t.co/KLms5jxedA
p1985
sg442
Vhttp://bit.ly/1wKLUFN
p1986
sbasg123
I543594522220187648
sbag3
(g4
g5
Ntp1987
Rp1988
(dp1989
g9
I0
sg10
Nsg11
Nsg12
(lp1990
sg20
I00
sg21
g3
(g4
g5
Ntp1991
Rp1992
(dp1993
g9
I10
sg10
Nsg11
Nsg12
(lp1994
sg20
I00
sg21
Nsg30
Nsg31
(lp1995
sg77
Nsg78
Nsg79
Nsg80
VSat Dec 13 02:29:22 +0000 2014
p1996
sg82
Nsg83
I00
sg84
Nsg85
Nsg86
Nsg87
Nsg88
I00
sg89
Nsg90
(lp1997
sg125
Nsg126
Nsg127
Nsg128
VMen's Ice Hockey: Maine 5, New Hampshire 2 (Final) Five Straight Goals Propel Men's Ice Hockey Past New Hampshire 5-2 http://t.co/Rl16l9k88o
p1998
sg130
I00
sg131
Ven
p1999
sg133
g3
(g92
g5
Ntp2000
Rp2001
(dp2002
g10
VOrono, Maine
p2003
sg96
V333333
p2004
sg97
Ven
p2005
sg98
Nsg99
I6188
sg100
I7040
sg80
VTue Mar 31 18:26:01 +0000 2009
p2006
sg101
I01
sg102
VOfficial Twitter Site of the University of Maine Athletic Department.
p2007
sg103
Vhttps://pbs.twimg.com/profile_images/378800000369836475/3f78c3015b1506c0437ebe55b7a3ff09_normal.jpeg
p2008
sg104
I58
sg105
I23
sg106
Nsg107
Nsg108
I00
sg109
Vhttps://pbs.twimg.com/profile_banners/27929580/1410209893
p2009
sg110
I00
sg111
I00
sg112
V0084B4
p2010
sg113
I00
sg114
I00
sg115
Vhttp://pbs.twimg.com/profile_background_images/378800000106883440/1d7c70ee375fe43a72e802f537d346a0.jpeg
p2011
sg116
VBlackBearNation
p2012
sg118
I120
sg119
VBlack Bear Nation
p2013
sg121
VFCFEFA
p2014
sg122
Vhttp://t.co/xKJhrOsM
p2015
sg123
I27929580
sg124
V1D2AE7
p2016
sbsg152
I12
sg153
V<a href="http://www.prestosports.com" rel="nofollow">PrestoSports</a>
p2017
sg155
(lp2018
g3
(g436
g5
Ntp2019
Rp2020
(dp2021
g440
Vhttp://t.co/Rl16l9k88o
p2022
sg442
Vhttp://bit.ly/1wKLUFN
p2023
sbasg123
I543593493067608064
sbsg30
Nsg31
(lp2024
sg77
Nsg78
Nsg79
Nsg80
VSat Dec 13 02:33:26 +0000 2014
p2025
sg82
Nsg83
I01
sg84
Nsg85
Nsg86
Nsg87
Nsg88
I00
sg89
Nsg90
(lp2026
g3
(g92
g5
Ntp2027
Rp2028
(dp2029
g10
Nsg96
Nsg97
Nsg98
Nsg99
Nsg100
Nsg80
Nsg101
Nsg102
Nsg103
Nsg104
Nsg105
Nsg106
Nsg107
Nsg108
Nsg109
Nsg110
Nsg111
Nsg112
Nsg113
Nsg114
Nsg115
Nsg116
VBlackBearNation
p2030
sg118
Nsg119
VBlack Bear Nation
p2031
sg121
Nsg122
Nsg123
I27929580
sg124
Nsbasg125
Nsg126
Nsg127
Nsg128
VRT @BlackBearNation: Men's Ice Hockey: Maine 5, New Hampshire 2 (Final) Five Straight Goals Propel Men's Ice Hockey Past New Hampshire 5-2 \u2026
p2032
sg130
I00
sg131
Ven
p2033
sg133
g3
(g92
g5
Ntp2034
Rp2035
(dp2036
g10
VUniversity of Maine
p2037
sg96
V333333
p2038
sg97
Ven
p2039
sg98
VEastern Time (US & Canada)
p2040
sg99
I185
sg100
I2045
sg80
VWed Mar 05 18:12:08 +0000 2014
p2041
sg101
I00
sg102
VWe are a Property of @LearfieldSports, and the Official multimedia rights holder for University of Maine Athletics (@BlackBearNation). #PartnerWithUMaine
p2042
sg103
Vhttps://pbs.twimg.com/profile_images/441288554182737920/17ID16E5_normal.jpeg
p2043
sg104
I420
sg105
I735
sg106
I-18000
sg107
Nsg108
I00
sg109
Nsg110
I00
sg111
I00
sg112
V3B94D9
p2044
sg113
I00
sg114
I00
sg115
Vhttp://abs.twimg.com/images/themes/theme1/bg.png
p2045
sg116
VBBSPMaine
p2046
sg118
I4
sg119
VBlackBear Sport Prop
p2047
sg121
VDDEEF6
p2048
sg122
Vhttp://t.co/gY95idPK6T
p2049
sg123
I2374164199
sg124
VC0DEED
p2050
sbsg152
I12
sg153
V<a href="http://twitter.com/download/android" rel="nofollow">Twitter for Android</a>
p2051
sg155
(lp2052
g3
(g436
g5
Ntp2053
Rp2054
(dp2055
g440
Vhttp://t.co/Rl16l9k88o
p2056
sg442
Vhttp://bit.ly/1wKLUFN
p2057
sbasg123
I543594513248583680
sbag3
(g4
g5
Ntp2058
Rp2059
(dp2060
g9
I0
sg10
Nsg11
Nsg12
(lp2061
g3
(g14
g5
Ntp2062
Rp2063
(dp2064
g18
Vgomaine
p2065
sbasg20
I00
sg21
g3
(g4
g5
Ntp2066
Rp2067
(dp2068
g9
I54
sg10
Nsg11
Nsg12
(lp2069
g3
(g14
g5
Ntp2070
Rp2071
(dp2072
g18
Vgomaine
p2073
sbasg20
I00
sg21
Nsg30
Nsg31
(lp2074
sg77
Nsg78
Nsg79
Nsg80
VSat Dec 13 02:24:01 +0000 2014
p2075
sg82
Nsg83
Nsg84
Nsg85
Nsg86
Nsg87
Nsg88
I00
sg89
Nsg90
(lp2076
sg125
Nsg126
Nsg127
Nsg128
VMaine wins it 5-2!!! Scores five straight goals in the victory!! #gomaine
p2077
sg130
I00
sg131
Ven
p2078
sg133
g3
(g92
g5
Ntp2079
Rp2080
(dp2081
g10
VOrono, Maine
p2082
sg96
V333333
p2083
sg97
Ven
p2084
sg98
VEastern Time (US & Canada)
p2085
sg99
I8714
sg100
I4761
sg80
VFri Sep 25 16:49:46 +0000 2009
p2086
sg101
I00
sg102
VThe Official Twitter Page of the University of Maine Men's Ice Hockey Team.
p2087
sg103
Vhttps://pbs.twimg.com/profile_images/529369978319814656/m2wd2uAt_normal.jpeg
p2088
sg104
I91
sg105
I56
sg106
I-18000
sg107
Nsg108
I00
sg109
Vhttps://pbs.twimg.com/profile_banners/77255989/1412602521
p2089
sg110
I00
sg111
I00
sg112
V0084B4
p2090
sg113
I00
sg114
I00
sg115
Vhttp://pbs.twimg.com/profile_background_images/378800000115965153/e29816e67568a70fbff80313ba70757a.jpeg
p2091
sg116
VMaineIceHockey
p2092
sg118
I192
sg119
VBlack Bear Hockey
p2093
sg121
VDDEEF6
p2094
sg122
Vhttp://t.co/7SRH3YHIti
p2095
sg123
I77255989
sg124
VC0DEED
p2096
sbsg152
I57
sg153
V<a href="http://twitter.com" rel="nofollow">Twitter Web Client</a>
p2097
sg155
(lp2098
sg123
I543592143349370881
sbsg30
Nsg31
(lp2099
sg77
Nsg78
Nsg79
Nsg80
VSat Dec 13 02:32:50 +0000 2014
p2100
sg82
Nsg83
Nsg84
Nsg85
Nsg86
Nsg87
Nsg88
I00
sg89
Nsg90
(lp2101
g3
(g92
g5
Ntp2102
Rp2103
(dp2104
g10
Nsg96
Nsg97
Nsg98
Nsg99
Nsg100
Nsg80
Nsg101
Nsg102
Nsg103
Nsg104
Nsg105
Nsg106
Nsg107
Nsg108
Nsg109
Nsg110
Nsg111
Nsg112
Nsg113
Nsg114
Nsg115
Nsg116
VMaineIceHockey
p2105
sg118
Nsg119
VBlack Bear Hockey
p2106
sg121
Nsg122
Nsg123
I77255989
sg124
Nsbasg125
Nsg126
Nsg127
Nsg128
VRT @MaineIceHockey: Maine wins it 5-2!!! Scores five straight goals in the victory!! #gomaine
p2107
sg130
I00
sg131
Ven
p2108
sg133
g3
(g92
g5
Ntp2109
Rp2110
(dp2111
g10
VUniversity of Maine
p2112
sg96
V333333
p2113
sg97
Ven
p2114
sg98
VEastern Time (US & Canada)
p2115
sg99
I185
sg100
I2045
sg80
VWed Mar 05 18:12:08 +0000 2014
p2116
sg101
I00
sg102
VWe are a Property of @LearfieldSports, and the Official multimedia rights holder for University of Maine Athletics (@BlackBearNation). #PartnerWithUMaine
p2117
sg103
Vhttps://pbs.twimg.com/profile_images/441288554182737920/17ID16E5_normal.jpeg
p2118
sg104
I420
sg105
I735
sg106
I-18000
sg107
Nsg108
I00
sg109
Nsg110
I00
sg111
I00
sg112
V3B94D9
p2119
sg113
I00
sg114
I00
sg115
Vhttp://abs.twimg.com/images/themes/theme1/bg.png
p2120
sg116
VBBSPMaine
p2121
sg118
I4
sg119
VBlackBear Sport Prop
p2122
sg121
VDDEEF6
p2123
sg122
Vhttp://t.co/gY95idPK6T
p2124
sg123
I2374164199
sg124
VC0DEED
p2125
sbsg152
I57
sg153
V<a href="http://twitter.com/download/android" rel="nofollow">Twitter for Android</a>
p2126
sg155
(lp2127
sg123
I543594365663588352
sbag3
(g4
g5
Ntp2128
Rp2129
(dp2130
g9
I0
sg10
Nsg11
Nsg12
(lp2131
g3
(g14
g5
Ntp2132
Rp2133
(dp2134
g18
VBlackBearNation
p2135
sbasg20
I00
sg21
g3
(g4
g5
Ntp2136
Rp2137
(dp2138
g9
I1
sg10
Nsg11
Nsg12
(lp2139
g3
(g14
g5
Ntp2140
Rp2141
(dp2142
g18
VBlackBearNation
p2143
sbasg20
I00
sg21
Nsg30
Nsg31
(lp2144
sg77
Nsg78
Nsg79
Nsg80
VSat Dec 13 02:26:25 +0000 2014
p2145
sg82
Nsg83
Nsg84
VMaineIceHockey
p2146
sg85
Nsg86
I77255989
sg87
Nsg88
I00
sg89
Nsg90
(lp2147
g3
(g92
g5
Ntp2148
Rp2149
(dp2150
g10
Nsg96
Nsg97
Nsg98
Nsg99
Nsg100
Nsg80
Nsg101
Nsg102
Nsg103
Nsg104
Nsg105
Nsg106
Nsg107
Nsg108
Nsg109
Nsg110
Nsg111
Nsg112
Nsg113
Nsg114
Nsg115
Nsg116
VMaineIceHockey
p2151
sg118
Nsg119
VBlack Bear Hockey
p2152
sg121
Nsg122
Nsg123
I77255989
sg124
Nsbag3
(g92
g5
Ntp2153
Rp2154
(dp2155
g10
Nsg96
Nsg97
Nsg98
Nsg99
Nsg100
Nsg80
Nsg101
Nsg102
Nsg103
Nsg104
Nsg105
Nsg106
Nsg107
Nsg108
Nsg109
Nsg110
Nsg111
Nsg112
Nsg113
Nsg114
Nsg115
Nsg116
VRedGendron
p2156
sg118
Nsg119
VRed Gendron
p2157
sg121
Nsg122
Nsg123
I40866009
sg124
Nsbasg125
Nsg126
Nsg127
I543592143349370881
sg128
VCongrat @MaineIceHockey and @RedGendron on the W! Get another one tomorrow in Pland!! #BlackBearNation
p2158
sg130
I00
sg131
Ven
p2159
sg133
g3
(g92
g5
Ntp2160
Rp2161
(dp2162
g10
VOrono, Maine
p2163
sg96
V333333
p2164
sg97
Ven
p2165
sg98
VQuito
p2166
sg99
I616
sg100
I6026
sg80
VThu Jun 30 00:49:17 +0000 2011
p2167
sg101
I00
sg102
VAssistant Women's Basketball Coach / Recruiting Coordinator - UMAINE                                      Instagram - @coachamyvachon
p2168
sg103
Vhttps://pbs.twimg.com/profile_images/470997212856877056/ZdZw2dnG_normal.jpeg
p2169
sg104
I449
sg105
I886
sg106
I-18000
sg107
Nsg108
I00
sg109
Vhttps://pbs.twimg.com/profile_banners/326496215/1401384901
p2170
sg110
I00
sg111
I01
sg112
V0D3CB3
p2171
sg113
I00
sg114
I00
sg115
Vhttp://pbs.twimg.com/profile_background_images/644288035/p2x2nvxdo1oy0fahawvw.jpeg
p2172
sg116
Vcoachamyvachon
p2173
sg118
I7
sg119
VAmy Vachon
p2174
sg121
VEFEFEF
p2175
sg122
Vhttp://t.co/2krPmDJz6B
p2176
sg123
I326496215
sg124
VFF6699
p2177
sbsg152
I3
sg153
V<a href="http://twitter.com/download/iphone" rel="nofollow">Twitter for iPhone</a>
p2178
sg155
(lp2179
sg123
I543592748369317890
sbsg30
Nsg31
(lp2180
sg77
Nsg78
Nsg79
Nsg80
VSat Dec 13 02:32:48 +0000 2014
p2181
sg82
Nsg83
Nsg84
Nsg85
Nsg86
Nsg87
Nsg88
I00
sg89
Nsg90
(lp2182
g3
(g92
g5
Ntp2183
Rp2184
(dp2185
g10
Nsg96
Nsg97
Nsg98
Nsg99
Nsg100
Nsg80
Nsg101
Nsg102
Nsg103
Nsg104
Nsg105
Nsg106
Nsg107
Nsg108
Nsg109
Nsg110
Nsg111
Nsg112
Nsg113
Nsg114
Nsg115
Nsg116
Vcoachamyvachon
p2186
sg118
Nsg119
VAmy Vachon
p2187
sg121
Nsg122
Nsg123
I326496215
sg124
Nsbag3
(g92
g5
Ntp2188
Rp2189
(dp2190
g10
Nsg96
Nsg97
Nsg98
Nsg99
Nsg100
Nsg80
Nsg101
Nsg102
Nsg103
Nsg104
Nsg105
Nsg106
Nsg107
Nsg108
Nsg109
Nsg110
Nsg111
Nsg112
Nsg113
Nsg114
Nsg115
Nsg116
VMaineIceHockey
p2191
sg118
Nsg119
VBlack Bear Hockey
p2192
sg121
Nsg122
Nsg123
I77255989
sg124
Nsbag3
(g92
g5
Ntp2193
Rp2194
(dp2195
g10
Nsg96
Nsg97
Nsg98
Nsg99
Nsg100
Nsg80
Nsg101
Nsg102
Nsg103
Nsg104
Nsg105
Nsg106
Nsg107
Nsg108
Nsg109
Nsg110
Nsg111
Nsg112
Nsg113
Nsg114
Nsg115
Nsg116
VRedGendron
p2196
sg118
Nsg119
VRed Gendron
p2197
sg121
Nsg122
Nsg123
I40866009
sg124
Nsbasg125
Nsg126
Nsg127
Nsg128
VRT @coachamyvachon: Congrat @MaineIceHockey and @RedGendron on the W! Get another one tomorrow in Pland!! #BlackBearNation
p2198
sg130
I00
sg131
Ven
p2199
sg133
g3
(g92
g5
Ntp2200
Rp2201
(dp2202
g10
VUniversity of Maine
p2203
sg96
V333333
p2204
sg97
Ven
p2205
sg98
VEastern Time (US & Canada)
p2206
sg99
I185
sg100
I2045
sg80
VWed Mar 05 18:12:08 +0000 2014
p2207
sg101
I00
sg102
VWe are a Property of @LearfieldSports, and the Official multimedia rights holder for University of Maine Athletics (@BlackBearNation). #PartnerWithUMaine
p2208
sg103
Vhttps://pbs.twimg.com/profile_images/441288554182737920/17ID16E5_normal.jpeg
p2209
sg104
I420
sg105
I735
sg106
I-18000
sg107
Nsg108
I00
sg109
Nsg110
I00
sg111
I00
sg112
V3B94D9
p2210
sg113
I00
sg114
I00
sg115
Vhttp://abs.twimg.com/images/themes/theme1/bg.png
p2211
sg116
VBBSPMaine
p2212
sg118
I4
sg119
VBlackBear Sport Prop
p2213
sg121
VDDEEF6
p2214
sg122
Vhttp://t.co/gY95idPK6T
p2215
sg123
I2374164199
sg124
VC0DEED
p2216
sbsg152
I3
sg153
V<a href="http://twitter.com/download/android" rel="nofollow">Twitter for Android</a>
p2217
sg155
(lp2218
sg123
I543594357526654977
sbag3
(g4
g5
Ntp2219
Rp2220
(dp2221
g9
I0
sg10
Nsg11
Nsg12
(lp2222
sg20
I00
sg21
g3
(g4
g5
Ntp2223
Rp2224
(dp2225
g9
I6
sg10
Nsg11
Nsg12
(lp2226
sg20
I00
sg21
Nsg30
Nsg31
(lp2227
sg77
Nsg78
Nsg79
Nsg80
VSat Dec 13 02:10:42 +0000 2014
p2228
sg82
Nsg83
Nsg84
Nsg85
Nsg86
Nsg87
Nsg88
I00
sg89
Nsg90
(lp2229
g3
(g92
g5
Ntp2230
Rp2231
(dp2232
g10
Nsg96
Nsg97
Nsg98
Nsg99
Nsg100
Nsg80
Nsg101
Nsg102
Nsg103
Nsg104
Nsg105
Nsg106
Nsg107
Nsg108
Nsg109
Nsg110
Nsg111
Nsg112
Nsg113
Nsg114
Nsg115
Nsg116
VBlackBearsWBB
p2233
sg118
Nsg119
VMaine Women's Hoops
p2234
sg121
Nsg122
Nsg123
I44691693
sg124
Nsbag3
(g92
g5
Ntp2235
Rp2236
(dp2237
g10
Nsg96
Nsg97
Nsg98
Nsg99
Nsg100
Nsg80
Nsg101
Nsg102
Nsg103
Nsg104
Nsg105
Nsg106
Nsg107
Nsg108
Nsg109
Nsg110
Nsg111
Nsg112
Nsg113
Nsg114
Nsg115
Nsg116
VCICBangor
p2238
sg118
Nsg119
VCrossInsuranceCenter
p2239
sg121
Nsg122
Nsg123
I1521013687
sg124
Nsbag3
(g92
g5
Ntp2240
Rp2241
(dp2242
g10
Nsg96
Nsg97
Nsg98
Nsg99
Nsg100
Nsg80
Nsg101
Nsg102
Nsg103
Nsg104
Nsg105
Nsg106
Nsg107
Nsg108
Nsg109
Nsg110
Nsg111
Nsg112
Nsg113
Nsg114
Nsg115
Nsg116
VBlackBearNation
p2243
sg118
Nsg119
VBlack Bear Nation
p2244
sg121
Nsg122
Nsg123
I27929580
sg124
Nsbasg125
Nsg126
Nsg127
Nsg128
VIn 2014, @BlackBearsWBB 10-5 at @CICBangor  4 of those losses are by a total of 5 points. @BlackBearNation helping make CIC great home court
p2245
sg130
I00
sg131
Ven
p2246
sg133
g3
(g92
g5
Ntp2247
Rp2248
(dp2249
g10
VOrono
p2250
sg96
V333333
p2251
sg97
Ven
p2252
sg98
Nsg99
I709
sg100
I2976
sg80
VFri Nov 22 19:43:01 +0000 2013
p2253
sg101
I01
sg102
VWomen's Basketball Coach at University of Maine
p2254
sg103
Vhttps://pbs.twimg.com/profile_images/378800000775749064/cce0e3389a5b2b9c92d35c4a84f22c10_normal.jpeg
p2255
sg104
I495
sg105
I1532
sg106
Nsg107
Nsg108
I00
sg109
Vhttps://pbs.twimg.com/profile_banners/2209462002/1415569944
p2256
sg110
I00
sg111
I00
sg112
V0084B4
p2257
sg113
I01
sg114
I00
sg115
Vhttp://abs.twimg.com/images/themes/theme1/bg.png
p2258
sg116
VCoachBumaine
p2259
sg118
I8
sg119
VRichard Barron
p2260
sg121
VDDEEF6
p2261
sg122
Vhttp://t.co/gsXih7HP3V
p2262
sg123
I2209462002
sg124
VC0DEED
p2263
sbsg152
I4
sg153
V<a href="http://twitter.com/download/iphone" rel="nofollow">Twitter for iPhone</a>
p2264
sg155
(lp2265
sg123
I543588795707572227
sbsg30
Nsg31
(lp2266
sg77
Nsg78
Nsg79
Nsg80
VSat Dec 13 02:18:44 +0000 2014
p2267
sg82
Nsg83
Nsg84
Nsg85
Nsg86
Nsg87
Nsg88
I00
sg89
Nsg90
(lp2268
g3
(g92
g5
Ntp2269
Rp2270
(dp2271
g10
Nsg96
Nsg97
Nsg98
Nsg99
Nsg100
Nsg80
Nsg101
Nsg102
Nsg103
Nsg104
Nsg105
Nsg106
Nsg107
Nsg108
Nsg109
Nsg110
Nsg111
Nsg112
Nsg113
Nsg114
Nsg115
Nsg116
VCoachBumaine
p2272
sg118
Nsg119
VRichard Barron
p2273
sg121
Nsg122
Nsg123
I2209462002
sg124
Nsbag3
(g92
g5
Ntp2274
Rp2275
(dp2276
g10
Nsg96
Nsg97
Nsg98
Nsg99
Nsg100
Nsg80
Nsg101
Nsg102
Nsg103
Nsg104
Nsg105
Nsg106
Nsg107
Nsg108
Nsg109
Nsg110
Nsg111
Nsg112
Nsg113
Nsg114
Nsg115
Nsg116
VBlackBearsWBB
p2277
sg118
Nsg119
VMaine Women's Hoops
p2278
sg121
Nsg122
Nsg123
I44691693
sg124
Nsbag3
(g92
g5
Ntp2279
Rp2280
(dp2281
g10
Nsg96
Nsg97
Nsg98
Nsg99
Nsg100
Nsg80
Nsg101
Nsg102
Nsg103
Nsg104
Nsg105
Nsg106
Nsg107
Nsg108
Nsg109
Nsg110
Nsg111
Nsg112
Nsg113
Nsg114
Nsg115
Nsg116
VCICBangor
p2282
sg118
Nsg119
VCrossInsuranceCenter
p2283
sg121
Nsg122
Nsg123
I1521013687
sg124
Nsbag3
(g92
g5
Ntp2284
Rp2285
(dp2286
g10
Nsg96
Nsg97
Nsg98
Nsg99
Nsg100
Nsg80
Nsg101
Nsg102
Nsg103
Nsg104
Nsg105
Nsg106
Nsg107
Nsg108
Nsg109
Nsg110
Nsg111
Nsg112
Nsg113
Nsg114
Nsg115
Nsg116
VBlackBearNation
p2287
sg118
Nsg119
VBlack Bear Nation
p2288
sg121
Nsg122
Nsg123
I27929580
sg124
Nsbasg125
Nsg126
Nsg127
Nsg128
VRT @CoachBumaine: In 2014, @BlackBearsWBB 10-5 at @CICBangor  4 of those losses are by a total of 5 points. @BlackBearNation helping make C\u2026
p2289
sg130
I00
sg131
Ven
p2290
sg133
g3
(g92
g5
Ntp2291
Rp2292
(dp2293
g10
VUniversity of Maine
p2294
sg96
V333333
p2295
sg97
Ven
p2296
sg98
VEastern Time (US & Canada)
p2297
sg99
I185
sg100
I2045
sg80
VWed Mar 05 18:12:08 +0000 2014
p2298
sg101
I00
sg102
VWe are a Property of @LearfieldSports, and the Official multimedia rights holder for University of Maine Athletics (@BlackBearNation). #PartnerWithUMaine
p2299
sg103
Vhttps://pbs.twimg.com/profile_images/441288554182737920/17ID16E5_normal.jpeg
p2300
sg104
I420
sg105
I735
sg106
I-18000
sg107
Nsg108
I00
sg109
Nsg110
I00
sg111
I00
sg112
V3B94D9
p2301
sg113
I00
sg114
I00
sg115
Vhttp://abs.twimg.com/images/themes/theme1/bg.png
p2302
sg116
VBBSPMaine
p2303
sg118
I4
sg119
VBlackBear Sport Prop
p2304
sg121
VDDEEF6
p2305
sg122
Vhttp://t.co/gY95idPK6T
p2306
sg123
I2374164199
sg124
VC0DEED
p2307
sbsg152
I4
sg153
V<a href="http://twitter.com/download/android" rel="nofollow">Twitter for Android</a>
p2308
sg155
(lp2309
sg123
I543590817429209089
sbaa.