(lp0
S'cindycroom'
p1
a(lp2
ccopy_reg
_reconstructor
p3
(ctwitter.status
Status
p4
c__builtin__
object
p5
Ntp6
Rp7
(dp8
S'_favorite_count'
p9
I0
sS'_location'
p10
NsS'_withheld_scope'
p11
NsS'hashtags'
p12
(lp13
g3
(ctwitter.hashtag
Hashtag
p14
g5
Ntp15
Rp16
(dp17
S'text'
p18
V12DaysofKeurig
p19
sbag3
(g14
g5
Ntp20
Rp21
(dp22
g18
VGiveaway
p23
sbasS'_truncated'
p24
I00
sS'_retweeted_status'
p25
NsS'_withheld_copyright'
p26
NsS'media'
p27
(lp28
sS'_place'
p29
NsS'_contributors'
p30
NsS'_current_user_retweet'
p31
NsS'_created_at'
p32
VSun Dec 14 15:25:09 +0000 2014
p33
sS'_scopes'
p34
NsS'_possibly_sensitive'
p35
I00
sS'_in_reply_to_screen_name'
p36
VCinnabon
p37
sS'_coordinates'
p38
NsS'_in_reply_to_user_id'
p39
I84708371
sS'_geo'
p40
NsS'_favorited'
p41
I00
sS'_withheld_in_countries'
p42
NsS'user_mentions'
p43
(lp44
g3
(ctwitter.user
User
p45
g5
Ntp46
Rp47
(dp48
g10
NsS'_profile_text_color'
p49
NsS'_lang'
p50
NsS'_time_zone'
p51
NsS'_followers_count'
p52
NsS'_statuses_count'
p53
Nsg32
NsS'_verified'
p54
NsS'_description'
p55
NsS'_profile_image_url'
p56
NsS'_friends_count'
p57
NsS'_favourites_count'
p58
NsS'_utc_offset'
p59
NsS'_status'
p60
NsS'_protected'
p61
NsS'_profile_banner_url'
p62
NsS'_notifications'
p63
NsS'_profile_background_tile'
p64
NsS'_profile_link_color'
p65
NsS'_geo_enabled'
p66
NsS'_contributors_enabled'
p67
NsS'_profile_background_image_url'
p68
NsS'_screen_name'
p69
VCinnabon
p70
sS'_listed_count'
p71
NsS'_name'
p72
VCinnabon
p73
sS'_profile_sidebar_fill_color'
p74
NsS'_url'
p75
NsS'_id'
p76
I84708371
sS'_profile_background_color'
p77
Nsbag3
(g45
g5
Ntp78
Rp79
(dp80
g10
Nsg49
Nsg50
Nsg51
Nsg52
Nsg53
Nsg32
Nsg54
Nsg55
Nsg56
Nsg57
Nsg58
Nsg59
Nsg60
Nsg61
Nsg62
Nsg63
Nsg64
Nsg65
Nsg66
Nsg67
Nsg68
Nsg69
VKeurig
p81
sg71
Nsg72
VKeurig
p82
sg74
Nsg75
Nsg76
I33330562
sg77
NsbasS'_now'
p83
NsS'_id_str'
p84
NsS'_in_reply_to_status_id'
p85
I544143541522280448
sS'_text'
p86
V@Cinnabon @Keurig Ease of use and flavors up my day #12DaysofKeurig #Giveaway http://t.co/eTthZVULlk
p87
sS'_retweeted'
p88
I00
sS'lang'
p89
Ven
p90
sS'_user'
p91
g3
(g45
g5
Ntp92
Rp93
(dp94
g10
VTexas
p95
sg49
V333333
p96
sg50
Ven
p97
sg51
VCentral Time (US & Canada)
p98
sg52
I88
sg53
I8519
sg32
VFri Apr 15 20:28:15 +0000 2011
p99
sg54
I00
sg55
V
p100
sg56
Vhttps://abs.twimg.com/sticky/default_profile_images/default_profile_0_normal.png
p101
sg57
I556
sg58
I55
sg59
I-21600
sg60
Nsg61
I00
sg62
Nsg63
I00
sg64
I00
sg65
V0084B4
p102
sg66
I00
sg67
I00
sg68
Vhttp://abs.twimg.com/images/themes/theme1/bg.png
p103
sg69
Vcindycroom
p104
sg71
I5
sg72
VCindy C.
p105
sg74
VDDEEF6
p106
sg75
Nsg76
I282737119
sg77
VC0DEED
p107
sbsS'_retweet_count'
p108
I0
sS'_source'
p109
V<a href="http://twitter.com" rel="nofollow">Twitter Web Client</a>
p110
sS'urls'
p111
(lp112
g3
(ctwitter.url
Url
p113
g5
Ntp114
Rp115
(dp116
S'url'
p117
Vhttp://t.co/eTthZVULlk
p118
sS'expanded_url'
p119
Vhttp://on.fb.me/1vQtY9o
p120
sbasg76
I544151110341386241
sbag3
(g4
g5
Ntp121
Rp122
(dp123
g9
I0
sg10
Nsg11
Nsg12
(lp124
g3
(g14
g5
Ntp125
Rp126
(dp127
g18
VReadySetGive
p128
sbasg24
I00
sg25
Nsg26
Nsg27
(lp129
sg29
Nsg30
Nsg31
Nsg32
VSun Dec 14 02:58:06 +0000 2014
p130
sg34
Nsg35
I00
sg36
Nsg38
Nsg39
Nsg40
Nsg41
I00
sg42
Nsg43
(lp131
g3
(g45
g5
Ntp132
Rp133
(dp134
g10
Nsg49
Nsg50
Nsg51
Nsg52
Nsg53
Nsg32
Nsg54
Nsg55
Nsg56
Nsg57
Nsg58
Nsg59
Nsg60
Nsg61
Nsg62
Nsg63
Nsg64
Nsg65
Nsg66
Nsg67
Nsg68
Nsg69
VBobbiBrown
p135
sg71
Nsg72
VBobbiBrown Cosmetics
p136
sg74
Nsg75
Nsg76
I43121121
sg77
Nsbasg83
Nsg84
Nsg85
Nsg86
VI just entered @BobbiBrown's #ReadySetGive Giveaway and you should, too! It's the gift that keeps on giving. http://t.co/nt8wfasjnU
p137
sg88
I00
sg89
Ven
p138
sg91
g3
(g45
g5
Ntp139
Rp140
(dp141
g10
VTexas
p142
sg49
V333333
p143
sg50
Ven
p144
sg51
VCentral Time (US & Canada)
p145
sg52
I88
sg53
I8519
sg32
VFri Apr 15 20:28:15 +0000 2011
p146
sg54
I00
sg55
g100
sg56
Vhttps://abs.twimg.com/sticky/default_profile_images/default_profile_0_normal.png
p147
sg57
I556
sg58
I55
sg59
I-21600
sg60
Nsg61
I00
sg62
Nsg63
I00
sg64
I00
sg65
V0084B4
p148
sg66
I00
sg67
I00
sg68
Vhttp://abs.twimg.com/images/themes/theme1/bg.png
p149
sg69
Vcindycroom
p150
sg71
I5
sg72
VCindy C.
p151
sg74
VDDEEF6
p152
sg75
Nsg76
I282737119
sg77
VC0DEED
p153
sbsg108
I0
sg109
V<a href="https://dev.twitter.com/docs/tfw" rel="nofollow">Twitter for Websites</a>
p154
sg111
(lp155
g3
(g113
g5
Ntp156
Rp157
(dp158
g117
Vhttp://t.co/nt8wfasjnU
p159
sg119
Vhttp://bbrwn.co/BBHoliday
p160
sbasg76
I543963110088798208
sbag3
(g4
g5
Ntp161
Rp162
(dp163
g9
I0
sg10
Nsg11
Nsg12
(lp164
g3
(g14
g5
Ntp165
Rp166
(dp167
g18
VPopUpSantaSweepsEntry
p168
sbasg24
I00
sg25
Nsg26
Nsg27
(lp169
sg29
Nsg30
Nsg31
Nsg32
VSun Dec 14 02:35:28 +0000 2014
p170
sg34
Nsg35
I00
sg36
Nsg38
Nsg39
Nsg40
Nsg41
I00
sg42
Nsg43
(lp171
g3
(g45
g5
Ntp172
Rp173
(dp174
g10
Nsg49
Nsg50
Nsg51
Nsg52
Nsg53
Nsg32
Nsg54
Nsg55
Nsg56
Nsg57
Nsg58
Nsg59
Nsg60
Nsg61
Nsg62
Nsg63
Nsg64
Nsg65
Nsg66
Nsg67
Nsg68
Nsg69
VABCF25days
p175
sg71
Nsg72
V25 Days of Christmas
p176
sg74
Nsg75
Nsg76
I91432615
sg77
Nsbasg83
Nsg84
Nsg85
Nsg86
VI just entered @ABCF25Days Pop Up Santa Sweepstakes! #PopUpSantaSweepsEntry http://t.co/M6dgULTh0F
p177
sg88
I00
sg89
Ven
p178
sg91
g3
(g45
g5
Ntp179
Rp180
(dp181
g10
VTexas
p182
sg49
V333333
p183
sg50
Ven
p184
sg51
VCentral Time (US & Canada)
p185
sg52
I88
sg53
I8519
sg32
VFri Apr 15 20:28:15 +0000 2011
p186
sg54
I00
sg55
g100
sg56
Vhttps://abs.twimg.com/sticky/default_profile_images/default_profile_0_normal.png
p187
sg57
I556
sg58
I55
sg59
I-21600
sg60
Nsg61
I00
sg62
Nsg63
I00
sg64
I00
sg65
V0084B4
p188
sg66
I00
sg67
I00
sg68
Vhttp://abs.twimg.com/images/themes/theme1/bg.png
p189
sg69
Vcindycroom
p190
sg71
I5
sg72
VCindy C.
p191
sg74
VDDEEF6
p192
sg75
Nsg76
I282737119
sg77
VC0DEED
p193
sbsg108
I0
sg109
V<a href="https://dev.twitter.com/docs/tfw" rel="nofollow">Twitter for Websites</a>
p194
sg111
(lp195
g3
(g113
g5
Ntp196
Rp197
(dp198
g117
Vhttp://t.co/M6dgULTh0F
p199
sg119
Vhttp://www.popupsanta.tv/day/13/sweepstakes
p200
sbasg76
I543957414282670080
sbag3
(g4
g5
Ntp201
Rp202
(dp203
g9
I0
sg10
Nsg11
Nsg12
(lp204
g3
(g14
g5
Ntp205
Rp206
(dp207
g18
Vwin
p208
sbag3
(g14
g5
Ntp209
Rp210
(dp211
g18
VMarvelSuperHeroes
p212
sbasg24
I00
sg25
Nsg26
Nsg27
(lp213
sg29
Nsg30
Nsg31
Nsg32
VSun Dec 14 01:55:37 +0000 2014
p214
sg34
Nsg35
I00
sg36
Nsg38
Nsg39
Nsg40
Nsg41
I00
sg42
Nsg43
(lp215
g3
(g45
g5
Ntp216
Rp217
(dp218
g10
Nsg49
Nsg50
Nsg51
Nsg52
Nsg53
Nsg32
Nsg54
Nsg55
Nsg56
Nsg57
Nsg58
Nsg59
Nsg60
Nsg61
Nsg62
Nsg63
Nsg64
Nsg65
Nsg66
Nsg67
Nsg68
Nsg69
VDisneyInfinity
p219
sg71
Nsg72
VDisney Infinity
p220
sg74
Nsg75
Nsg76
I807289412
sg77
Nsbag3
(g45
g5
Ntp221
Rp222
(dp223
g10
Nsg49
Nsg50
Nsg51
Nsg52
Nsg53
Nsg32
Nsg54
Nsg55
Nsg56
Nsg57
Nsg58
Nsg59
Nsg60
Nsg61
Nsg62
Nsg63
Nsg64
Nsg65
Nsg66
Nsg67
Nsg68
Nsg69
VUrbanGiveaways
p224
sg71
Nsg72
VUrbanMedia Contests
p225
sg74
Nsg75
Nsg76
I1134919392
sg77
Nsbasg83
Nsg84
Nsg85
Nsg86
VI entered to #win a @DisneyInfinity #MarvelSuperHeroes Starter pack from @UrbanGiveaways! Ends 12/14 http://t.co/TYx9d0OgPs
p226
sg88
I00
sg89
Ven
p227
sg91
g3
(g45
g5
Ntp228
Rp229
(dp230
g10
VTexas
p231
sg49
V333333
p232
sg50
Ven
p233
sg51
VCentral Time (US & Canada)
p234
sg52
I88
sg53
I8519
sg32
VFri Apr 15 20:28:15 +0000 2011
p235
sg54
I00
sg55
g100
sg56
Vhttps://abs.twimg.com/sticky/default_profile_images/default_profile_0_normal.png
p236
sg57
I556
sg58
I55
sg59
I-21600
sg60
Nsg61
I00
sg62
Nsg63
I00
sg64
I00
sg65
V0084B4
p237
sg66
I00
sg67
I00
sg68
Vhttp://abs.twimg.com/images/themes/theme1/bg.png
p238
sg69
Vcindycroom
p239
sg71
I5
sg72
VCindy C.
p240
sg74
VDDEEF6
p241
sg75
Nsg76
I282737119
sg77
VC0DEED
p242
sbsg108
I0
sg109
V<a href="https://dev.twitter.com/docs/tfw" rel="nofollow">Twitter for Websites</a>
p243
sg111
(lp244
g3
(g113
g5
Ntp245
Rp246
(dp247
g117
Vhttp://t.co/TYx9d0OgPs
p248
sg119
Vhttp://www.urbanmommies.com/contests/disney-infinity-2-0-marvel-super-heroes-giveaway/
p249
sbasg76
I543947384938442752
sbag3
(g4
g5
Ntp250
Rp251
(dp252
g9
I0
sg10
Nsg11
Nsg12
(lp253
g3
(g14
g5
Ntp254
Rp255
(dp256
g18
Vstealorstay
p257
sbasg24
I00
sg25
g3
(g4
g5
Ntp258
Rp259
(dp260
g9
I199
sg10
Nsg11
Nsg12
(lp261
g3
(g14
g5
Ntp262
Rp263
(dp264
g18
Vstealorstay
p265
sbasg24
I00
sg25
Nsg26
Nsg27
(lp266
sg29
Nsg30
Nsg31
Nsg32
VFri Dec 12 23:06:05 +0000 2014
p267
sg34
Nsg35
I00
sg36
Nsg38
Nsg39
Nsg40
Nsg41
I00
sg42
Nsg43
(lp268
g3
(g45
g5
Ntp269
Rp270
(dp271
g10
Nsg49
Nsg50
Nsg51
Nsg52
Nsg53
Nsg32
Nsg54
Nsg55
Nsg56
Nsg57
Nsg58
Nsg59
Nsg60
Nsg61
Nsg62
Nsg63
Nsg64
Nsg65
Nsg66
Nsg67
Nsg68
Nsg69
VOldNavy
p272
sg71
Nsg72
VOld Navy Official
p273
sg74
Nsg75
Nsg76
I18462539
sg77
Nsbasg83
Nsg84
Nsg85
Nsg86
VSo excited to play white elephant! \U0001f385\U0001f418 I'm going to stay &amp; get a gift! Use #stealorstay, &amp; follow @OldNavy  ... https://t.co/yLof5T9x1U
p274
sg88
I00
sg89
Ven
p275
sg91
g3
(g45
g5
Ntp276
Rp277
(dp278
g10
VLV//LA//SD
p279
sg49
V333333
p280
sg50
Ven
p281
sg51
VAlaska
p282
sg52
I1421
sg53
I10100
sg32
VFri Sep 30 04:19:26 +0000 2011
p283
sg54
I00
sg55
VI like to sing sometimes || vine & instagram @lexisorrentino
p284
sg56
Vhttps://pbs.twimg.com/profile_images/543845955343495168/rsCq9qBa_normal.jpeg
p285
sg57
I173
sg58
I4793
sg59
I-32400
sg60
Nsg61
I00
sg62
Vhttps://pbs.twimg.com/profile_banners/382478348/1375128363
p286
sg63
I00
sg64
I00
sg65
V0084B4
p287
sg66
I00
sg67
I00
sg68
Vhttp://abs.twimg.com/images/themes/theme1/bg.png
p288
sg69
VLexiiSorrentino
p289
sg71
I3
sg72
VLexi Sorrentino \u0950\u262f
p290
sg74
VDDEEF6
p291
sg75
Vhttp://t.co/GKTZYEsi9Z
p292
sg76
I382478348
sg77
VC0DEED
p293
sbsg108
I49
sg109
V<a href="http://vine.co" rel="nofollow">Vine - Make a Scene</a>
p294
sg111
(lp295
g3
(g113
g5
Ntp296
Rp297
(dp298
g117
Vhttps://t.co/yLof5T9x1U
p299
sg119
Vhttps://vine.co/v/O66XKQOLr0l
p300
sbasg76
I543542334563295232
sbsg26
Nsg27
(lp301
sg29
Nsg30
Nsg31
Nsg32
VSun Dec 14 00:30:22 +0000 2014
p302
sg34
Nsg35
I00
sg36
Nsg38
Nsg39
Nsg40
Nsg41
I00
sg42
Nsg43
(lp303
g3
(g45
g5
Ntp304
Rp305
(dp306
g10
Nsg49
Nsg50
Nsg51
Nsg52
Nsg53
Nsg32
Nsg54
Nsg55
Nsg56
Nsg57
Nsg58
Nsg59
Nsg60
Nsg61
Nsg62
Nsg63
Nsg64
Nsg65
Nsg66
Nsg67
Nsg68
Nsg69
VLexiiSorrentino
p307
sg71
Nsg72
VLexi Sorrentino \u0950\u262f
p308
sg74
Nsg75
Nsg76
I382478348
sg77
Nsbag3
(g45
g5
Ntp309
Rp310
(dp311
g10
Nsg49
Nsg50
Nsg51
Nsg52
Nsg53
Nsg32
Nsg54
Nsg55
Nsg56
Nsg57
Nsg58
Nsg59
Nsg60
Nsg61
Nsg62
Nsg63
Nsg64
Nsg65
Nsg66
Nsg67
Nsg68
Nsg69
VOldNavy
p312
sg71
Nsg72
VOld Navy Official
p313
sg74
Nsg75
Nsg76
I18462539
sg77
Nsbasg83
Nsg84
Nsg85
Nsg86
VRT @LexiiSorrentino: So excited to play white elephant! \U0001f385\U0001f418 I'm going to stay &amp; get a gift! Use #stealorstay, &amp; follow @OldNavy  ... https:/\u2026
p314
sg88
I00
sg89
Ven
p315
sg91
g3
(g45
g5
Ntp316
Rp317
(dp318
g10
VTexas
p319
sg49
V333333
p320
sg50
Ven
p321
sg51
VCentral Time (US & Canada)
p322
sg52
I88
sg53
I8519
sg32
VFri Apr 15 20:28:15 +0000 2011
p323
sg54
I00
sg55
g100
sg56
Vhttps://abs.twimg.com/sticky/default_profile_images/default_profile_0_normal.png
p324
sg57
I556
sg58
I55
sg59
I-21600
sg60
Nsg61
I00
sg62
Nsg63
I00
sg64
I00
sg65
V0084B4
p325
sg66
I00
sg67
I00
sg68
Vhttp://abs.twimg.com/images/themes/theme1/bg.png
p326
sg69
Vcindycroom
p327
sg71
I5
sg72
VCindy C.
p328
sg74
VDDEEF6
p329
sg75
Nsg76
I282737119
sg77
VC0DEED
p330
sbsg108
I49
sg109
V<a href="http://twitter.com" rel="nofollow">Twitter Web Client</a>
p331
sg111
(lp332
g3
(g113
g5
Ntp333
Rp334
(dp335
g117
Vhttps://t.co/yLof5T9x1U
p336
sg119
Vhttps://vine.co/v/O66XKQOLr0l
p337
sbasg76
I543925931422011393
sbag3
(g4
g5
Ntp338
Rp339
(dp340
g9
I0
sg10
Nsg11
Nsg12
(lp341
g3
(g14
g5
Ntp342
Rp343
(dp344
g18
V12DaysOfFandangoSweeps
p345
sbag3
(g14
g5
Ntp346
Rp347
(dp348
g18
Vsweeps
p349
sbasg24
I00
sg25
g3
(g4
g5
Ntp350
Rp351
(dp352
g9
I141
sg10
Nsg11
Nsg12
(lp353
g3
(g14
g5
Ntp354
Rp355
(dp356
g18
V12DaysOfFandangoSweeps
p357
sbag3
(g14
g5
Ntp358
Rp359
(dp360
g18
Vsweeps
p361
sbasg24
I00
sg25
Nsg26
Nsg27
(lp362
sg29
Nsg30
Nsg31
Nsg32
VSat Dec 13 18:00:02 +0000 2014
p363
sg34
Nsg35
I00
sg36
Nsg38
Nsg39
Nsg40
Nsg41
I00
sg42
Nsg43
(lp364
sg83
Nsg84
Nsg85
Nsg86
V12 days, 12 giveaways. Be on the lookout, it all starts today! #12DaysOfFandangoSweeps http://t.co/5yMCTNP9i5\u000a(NoPurNec 18+ USres) #sweeps
p365
sg88
I00
sg89
Ven
p366
sg91
g3
(g45
g5
Ntp367
Rp368
(dp369
g10
VLos Angeles
p370
sg49
V333333
p371
sg50
Ven
p372
sg51
VPacific Time (US & Canada)
p373
sg52
I153681
sg53
I15143
sg32
VMon Jun 02 18:52:51 +0000 2008
p374
sg54
I01
sg55
VWelcome to the official Twitter page for Fandango. We're tweeting the latest movie news, trailers & giveaways. Buy your movie tickets at http://t.co/pItjdWqzIJ!
p375
sg56
Vhttps://pbs.twimg.com/profile_images/474231151033200641/sdlhhJ7c_normal.png
p376
sg57
I884
sg58
I2521
sg59
I-28800
sg60
Nsg61
I00
sg62
Vhttps://pbs.twimg.com/profile_banners/14983499/1399567867
p377
sg63
I00
sg64
I00
sg65
V3478C1
p378
sg66
I01
sg67
I00
sg68
Vhttp://pbs.twimg.com/profile_background_images/455821305225297922/1bgVOxsL.png
p379
sg69
VFandango
p380
sg71
I1977
sg72
VFandango
p381
sg74
VDDEEF6
p382
sg75
Vhttp://t.co/NxhcPQj26a
p383
sg76
I14983499
sg77
V150000
p384
sbsg108
I218
sg109
V<a href="http://tra.cx" rel="nofollow">tracx platform</a>
p385
sg111
(lp386
g3
(g113
g5
Ntp387
Rp388
(dp389
g117
Vhttp://t.co/5yMCTNP9i5
p390
sg119
Vhttp://fandan.co/12days
p391
sbasg76
I543827699773747200
sbsg26
Nsg27
(lp392
sg29
Nsg30
Nsg31
Nsg32
VSun Dec 14 00:24:52 +0000 2014
p393
sg34
Nsg35
I00
sg36
Nsg38
Nsg39
Nsg40
Nsg41
I00
sg42
Nsg43
(lp394
g3
(g45
g5
Ntp395
Rp396
(dp397
g10
Nsg49
Nsg50
Nsg51
Nsg52
Nsg53
Nsg32
Nsg54
Nsg55
Nsg56
Nsg57
Nsg58
Nsg59
Nsg60
Nsg61
Nsg62
Nsg63
Nsg64
Nsg65
Nsg66
Nsg67
Nsg68
Nsg69
VFandango
p398
sg71
Nsg72
VFandango
p399
sg74
Nsg75
Nsg76
I14983499
sg77
Nsbasg83
Nsg84
Nsg85
Nsg86
VRT @Fandango: 12 days, 12 giveaways. Be on the lookout, it all starts today! #12DaysOfFandangoSweeps http://t.co/5yMCTNP9i5\u000a(NoPurNec 18+ U\u2026
p400
sg88
I00
sg89
Ven
p401
sg91
g3
(g45
g5
Ntp402
Rp403
(dp404
g10
VTexas
p405
sg49
V333333
p406
sg50
Ven
p407
sg51
VCentral Time (US & Canada)
p408
sg52
I88
sg53
I8519
sg32
VFri Apr 15 20:28:15 +0000 2011
p409
sg54
I00
sg55
g100
sg56
Vhttps://abs.twimg.com/sticky/default_profile_images/default_profile_0_normal.png
p410
sg57
I556
sg58
I55
sg59
I-21600
sg60
Nsg61
I00
sg62
Nsg63
I00
sg64
I00
sg65
V0084B4
p411
sg66
I00
sg67
I00
sg68
Vhttp://abs.twimg.com/images/themes/theme1/bg.png
p412
sg69
Vcindycroom
p413
sg71
I5
sg72
VCindy C.
p414
sg74
VDDEEF6
p415
sg75
Nsg76
I282737119
sg77
VC0DEED
p416
sbsg108
I218
sg109
V<a href="http://twitter.com" rel="nofollow">Twitter Web Client</a>
p417
sg111
(lp418
g3
(g113
g5
Ntp419
Rp420
(dp421
g117
Vhttp://t.co/5yMCTNP9i5
p422
sg119
Vhttp://fandan.co/12days
p423
sbasg76
I543924545955328000
sbag3
(g4
g5
Ntp424
Rp425
(dp426
g9
I0
sg10
Nsg11
Nsg12
(lp427
g3
(g14
g5
Ntp428
Rp429
(dp430
g18
V12DaysOfFandangoSweeps
p431
sbag3
(g14
g5
Ntp432
Rp433
(dp434
g18
VMockingjay
p435
sbasg24
I00
sg25
Nsg26
Nsg27
(lp436
sg29
Nsg30
Nsg31
Nsg32
VSun Dec 14 00:24:16 +0000 2014
p437
sg34
Nsg35
Nsg36
VFandango
p438
sg38
Nsg39
I14983499
sg40
Nsg41
I00
sg42
Nsg43
(lp439
g3
(g45
g5
Ntp440
Rp441
(dp442
g10
Nsg49
Nsg50
Nsg51
Nsg52
Nsg53
Nsg32
Nsg54
Nsg55
Nsg56
Nsg57
Nsg58
Nsg59
Nsg60
Nsg61
Nsg62
Nsg63
Nsg64
Nsg65
Nsg66
Nsg67
Nsg68
Nsg69
VFandango
p443
sg71
Nsg72
VFandango
p444
sg74
Nsg75
Nsg76
I14983499
sg77
Nsbag3
(g45
g5
Ntp445
Rp446
(dp447
g10
Nsg49
Nsg50
Nsg51
Nsg52
Nsg53
Nsg32
Nsg54
Nsg55
Nsg56
Nsg57
Nsg58
Nsg59
Nsg60
Nsg61
Nsg62
Nsg63
Nsg64
Nsg65
Nsg66
Nsg67
Nsg68
Nsg69
VTheHungerGames
p448
sg71
Nsg72
VMockingjay - Part 1
p449
sg74
Nsg75
Nsg76
I227390518
sg77
Nsbasg83
Nsg84
Nsg85
I543889865189122048
sg86
V@Fandango @TheHungerGames MAGS #12DaysOfFandangoSweeps  #Mockingjay
p450
sg88
I00
sg89
Ven
p451
sg91
g3
(g45
g5
Ntp452
Rp453
(dp454
g10
VTexas
p455
sg49
V333333
p456
sg50
Ven
p457
sg51
VCentral Time (US & Canada)
p458
sg52
I88
sg53
I8519
sg32
VFri Apr 15 20:28:15 +0000 2011
p459
sg54
I00
sg55
g100
sg56
Vhttps://abs.twimg.com/sticky/default_profile_images/default_profile_0_normal.png
p460
sg57
I556
sg58
I55
sg59
I-21600
sg60
Nsg61
I00
sg62
Nsg63
I00
sg64
I00
sg65
V0084B4
p461
sg66
I00
sg67
I00
sg68
Vhttp://abs.twimg.com/images/themes/theme1/bg.png
p462
sg69
Vcindycroom
p463
sg71
I5
sg72
VCindy C.
p464
sg74
VDDEEF6
p465
sg75
Nsg76
I282737119
sg77
VC0DEED
p466
sbsg108
I0
sg109
V<a href="http://twitter.com" rel="nofollow">Twitter Web Client</a>
p467
sg111
(lp468
sg76
I543924398370332672
sbag3
(g4
g5
Ntp469
Rp470
(dp471
g9
I0
sg10
Nsg11
Nsg12
(lp472
g3
(g14
g5
Ntp473
Rp474
(dp475
g18
VHostessTip
p476
sbasg24
I00
sg25
Nsg26
Nsg27
(lp477
sg29
Nsg30
Nsg31
Nsg32
VSat Dec 13 17:14:49 +0000 2014
p478
sg34
Nsg35
Nsg36
VLandsEnd
p479
sg38
Nsg39
I16492352
sg40
Nsg41
I00
sg42
Nsg43
(lp480
g3
(g45
g5
Ntp481
Rp482
(dp483
g10
Nsg49
Nsg50
Nsg51
Nsg52
Nsg53
Nsg32
Nsg54
Nsg55
Nsg56
Nsg57
Nsg58
Nsg59
Nsg60
Nsg61
Nsg62
Nsg63
Nsg64
Nsg65
Nsg66
Nsg67
Nsg68
Nsg69
VLandsEnd
p484
sg71
Nsg72
VLandsEnd
p485
sg74
Nsg75
Nsg76
I16492352
sg77
Nsbasg83
Nsg84
Nsg85
I543767373673545728
sg86
V@LandsEnd Make one spectacular dish and have recipe cards by dish for guests to take home #HostessTip
p486
sg88
I00
sg89
Ven
p487
sg91
g3
(g45
g5
Ntp488
Rp489
(dp490
g10
VTexas
p491
sg49
V333333
p492
sg50
Ven
p493
sg51
VCentral Time (US & Canada)
p494
sg52
I88
sg53
I8519
sg32
VFri Apr 15 20:28:15 +0000 2011
p495
sg54
I00
sg55
g100
sg56
Vhttps://abs.twimg.com/sticky/default_profile_images/default_profile_0_normal.png
p496
sg57
I556
sg58
I55
sg59
I-21600
sg60
Nsg61
I00
sg62
Nsg63
I00
sg64
I00
sg65
V0084B4
p497
sg66
I00
sg67
I00
sg68
Vhttp://abs.twimg.com/images/themes/theme1/bg.png
p498
sg69
Vcindycroom
p499
sg71
I5
sg72
VCindy C.
p500
sg74
VDDEEF6
p501
sg75
Nsg76
I282737119
sg77
VC0DEED
p502
sbsg108
I0
sg109
V<a href="http://twitter.com" rel="nofollow">Twitter Web Client</a>
p503
sg111
(lp504
sg76
I543816323575611392
sbag3
(g4
g5
Ntp505
Rp506
(dp507
g9
I0
sg10
Nsg11
Nsg12
(lp508
g3
(g14
g5
Ntp509
Rp510
(dp511
g18
VTryDry
p512
sbag3
(g14
g5
Ntp513
Rp514
(dp515
g18
VEntry
p516
sbasg24
I00
sg25
g3
(g4
g5
Ntp517
Rp518
(dp519
g9
I136
sg10
Nsg11
Nsg12
(lp520
g3
(g14
g5
Ntp521
Rp522
(dp523
g18
VTryDry
p524
sbag3
(g14
g5
Ntp525
Rp526
(dp527
g18
VEntry
p528
sbasg24
I00
sg25
Nsg26
Nsg27
(lp529
sg29
Nsg30
Nsg31
Nsg32
VMon Dec 01 17:46:12 +0000 2014
p530
sg34
(dp531
Vfollowers
p532
I00
ssg35
I00
sg36
Nsg38
Nsg39
Nsg40
Nsg41
I00
sg42
Nsg43
(lp533
sg83
Nsg84
Nsg85
Nsg86
VIt\u2019s time to #TryDry! RT &amp; you can instantly WIN 1 of 100s of prizes #Entry 18+NoPurNec12/1-30 http://t.co/6qYD46K5RI http://t.co/8jGpprWjKj
p534
sg88
I00
sg89
Ven
p535
sg91
g3
(g45
g5
Ntp536
Rp537
(dp538
g10
g100
sg49
V333333
p539
sg50
Ven
p540
sg51
VEastern Time (US & Canada)
p541
sg52
I59110
sg53
I11994
sg32
VThu May 07 14:31:41 +0000 2009
p542
sg54
I01
sg55
VFor those who DO, we say DO:MORE.
p543
sg56
Vhttps://pbs.twimg.com/profile_images/423476238934487040/Zvzce5GU_normal.jpeg
p544
sg57
I765
sg58
I2207
sg59
I-18000
sg60
Nsg61
I00
sg62
Vhttps://pbs.twimg.com/profile_banners/38440946/1417444996
p545
sg63
I00
sg64
I00
sg65
V99D0F1
p546
sg66
I00
sg67
I00
sg68
Vhttp://pbs.twimg.com/profile_background_images/378800000169409816/I627-OUS.jpeg
p547
sg69
VDegreeWomen
p548
sg71
I124
sg72
VDegree Women
p549
sg74
V755BA6
p550
sg75
Vhttp://t.co/wY9RxW3Apu
p551
sg76
I38440946
sg77
V483D37
p552
sbsg108
I1104
sg109
V<a href="https://ads.twitter.com" rel="nofollow">Twitter Ads</a>
p553
sg111
(lp554
g3
(g113
g5
Ntp555
Rp556
(dp557
g117
Vhttp://t.co/6qYD46K5RI
p558
sg119
Vhttp://Bit.ly/ClickForRules
p559
sbag3
(g113
g5
Ntp560
Rp561
(dp562
g117
Vhttp://t.co/8jGpprWjKj
p563
sg119
Vhttp://youtu.be/vaqC5kvUDkk
p564
sbasg76
I539475566496215041
sbsg26
Nsg27
(lp565
sg29
Nsg30
Nsg31
Nsg32
VSat Dec 13 16:48:52 +0000 2014
p566
sg34
Nsg35
I00
sg36
Nsg38
Nsg39
Nsg40
Nsg41
I00
sg42
Nsg43
(lp567
g3
(g45
g5
Ntp568
Rp569
(dp570
g10
Nsg49
Nsg50
Nsg51
Nsg52
Nsg53
Nsg32
Nsg54
Nsg55
Nsg56
Nsg57
Nsg58
Nsg59
Nsg60
Nsg61
Nsg62
Nsg63
Nsg64
Nsg65
Nsg66
Nsg67
Nsg68
Nsg69
VDegreeWomen
p571
sg71
Nsg72
VDegree Women
p572
sg74
Nsg75
Nsg76
I38440946
sg77
Nsbasg83
Nsg84
Nsg85
Nsg86
VRT @DegreeWomen: It\u2019s time to #TryDry! RT &amp; you can instantly WIN 1 of 100s of prizes #Entry 18+NoPurNec12/1-30 http://t.co/6qYD46K5RI http\u2026
p573
sg88
I00
sg89
Ven
p574
sg91
g3
(g45
g5
Ntp575
Rp576
(dp577
g10
VTexas
p578
sg49
V333333
p579
sg50
Ven
p580
sg51
VCentral Time (US & Canada)
p581
sg52
I88
sg53
I8519
sg32
VFri Apr 15 20:28:15 +0000 2011
p582
sg54
I00
sg55
g100
sg56
Vhttps://abs.twimg.com/sticky/default_profile_images/default_profile_0_normal.png
p583
sg57
I556
sg58
I55
sg59
I-21600
sg60
Nsg61
I00
sg62
Nsg63
I00
sg64
I00
sg65
V0084B4
p584
sg66
I00
sg67
I00
sg68
Vhttp://abs.twimg.com/images/themes/theme1/bg.png
p585
sg69
Vcindycroom
p586
sg71
I5
sg72
VCindy C.
p587
sg74
VDDEEF6
p588
sg75
Nsg76
I282737119
sg77
VC0DEED
p589
sbsg108
I1104
sg109
V<a href="http://twitter.com" rel="nofollow">Twitter Web Client</a>
p590
sg111
(lp591
g3
(g113
g5
Ntp592
Rp593
(dp594
g117
Vhttp://t.co/6qYD46K5RI
p595
sg119
Vhttp://Bit.ly/ClickForRules
p596
sbag3
(g113
g5
Ntp597
Rp598
(dp599
g117
Vhttp://t.co/8jGpprWjKj
p600
sg119
Vhttp://youtu.be/vaqC5kvUDkk
p601
sbasg76
I543809793723756545
sbag3
(g4
g5
Ntp602
Rp603
(dp604
g9
I0
sg10
Nsg11
Nsg12
(lp605
g3
(g14
g5
Ntp606
Rp607
(dp608
g18
VTryDry
p609
sbag3
(g14
g5
Ntp610
Rp611
(dp612
g18
VEntry
p613
sbasg24
I00
sg25
g3
(g4
g5
Ntp614
Rp615
(dp616
g9
I686
sg10
Nsg11
Nsg12
(lp617
g3
(g14
g5
Ntp618
Rp619
(dp620
g18
VTryDry
p621
sbag3
(g14
g5
Ntp622
Rp623
(dp624
g18
VEntry
p625
sbasg24
I00
sg25
Nsg26
Nsg27
(lp626
sg29
Nsg30
Nsg31
Nsg32
VMon Dec 01 19:56:38 +0000 2014
p627
sg34
Nsg35
I00
sg36
Nsg38
Nsg39
Nsg40
Nsg41
I00
sg42
Nsg43
(lp628
g3
(g45
g5
Ntp629
Rp630
(dp631
g10
Nsg49
Nsg50
Nsg51
Nsg52
Nsg53
Nsg32
Nsg54
Nsg55
Nsg56
Nsg57
Nsg58
Nsg59
Nsg60
Nsg61
Nsg62
Nsg63
Nsg64
Nsg65
Nsg66
Nsg67
Nsg68
Nsg69
VKenMarino
p632
sg71
Nsg72
VKen Marino
p633
sg74
Nsg75
Nsg76
I310109265
sg77
Nsbasg83
Nsg84
Nsg85
Nsg86
VWatch @KenMarino #TryDry http://t.co/4lb8574Mfw\u000aRT &amp; you cld win 1of100s of instant prizes #Entry 18+NoPurNec12/1-30 http://t.co/txfU93TyGk
p634
sg88
I00
sg89
Ven
p635
sg91
g3
(g45
g5
Ntp636
Rp637
(dp638
g10
g100
sg49
V333333
p639
sg50
Ven
p640
sg51
VEastern Time (US & Canada)
p641
sg52
I132918
sg53
I52233
sg32
VFri Feb 06 00:36:37 +0000 2009
p642
sg54
I01
sg55
VExperience AXE Redesigned and own it, seven days a week..
p643
sg56
Vhttps://pbs.twimg.com/profile_images/519917611249717248/yqvDaaX0_normal.jpeg
p644
sg57
I699
sg58
I292
sg59
I-18000
sg60
Nsg61
I00
sg62
Vhttps://pbs.twimg.com/profile_banners/20205854/1412793022
p645
sg63
I00
sg64
I00
sg65
V5C4209
p646
sg66
I01
sg67
I00
sg68
Vhttp://pbs.twimg.com/profile_background_images/378800000169905468/QtyPTwBg.jpeg
p647
sg69
VAXE
p648
sg71
I572
sg72
VAXE
p649
sg74
VEFEFEF
p650
sg75
Vhttp://t.co/oV2UD0blBH
p651
sg76
I20205854
sg77
V131516
p652
sbsg108
I3477
sg109
V<a href="http://twitter.com" rel="nofollow">Twitter Web Client</a>
p653
sg111
(lp654
g3
(g113
g5
Ntp655
Rp656
(dp657
g117
Vhttp://t.co/4lb8574Mfw
p658
sg119
Vhttp://youtu.be/qjmE2Ry-r9Y
p659
sbag3
(g113
g5
Ntp660
Rp661
(dp662
g117
Vhttp://t.co/txfU93TyGk
p663
sg119
Vhttp://bit.ly/ClickForRules
p664
sbasg76
I539508391560114176
sbsg26
Nsg27
(lp665
sg29
Nsg30
Nsg31
Nsg32
VSat Dec 13 16:48:32 +0000 2014
p666
sg34
Nsg35
I00
sg36
Nsg38
Nsg39
Nsg40
Nsg41
I00
sg42
Nsg43
(lp667
g3
(g45
g5
Ntp668
Rp669
(dp670
g10
Nsg49
Nsg50
Nsg51
Nsg52
Nsg53
Nsg32
Nsg54
Nsg55
Nsg56
Nsg57
Nsg58
Nsg59
Nsg60
Nsg61
Nsg62
Nsg63
Nsg64
Nsg65
Nsg66
Nsg67
Nsg68
Nsg69
VAXE
p671
sg71
Nsg72
VAXE
p672
sg74
Nsg75
Nsg76
I20205854
sg77
Nsbag3
(g45
g5
Ntp673
Rp674
(dp675
g10
Nsg49
Nsg50
Nsg51
Nsg52
Nsg53
Nsg32
Nsg54
Nsg55
Nsg56
Nsg57
Nsg58
Nsg59
Nsg60
Nsg61
Nsg62
Nsg63
Nsg64
Nsg65
Nsg66
Nsg67
Nsg68
Nsg69
VKenMarino
p676
sg71
Nsg72
VKen Marino
p677
sg74
Nsg75
Nsg76
I310109265
sg77
Nsbasg83
Nsg84
Nsg85
Nsg86
VRT @AXE: Watch @KenMarino #TryDry http://t.co/4lb8574Mfw\u000aRT &amp; you cld win 1of100s of instant prizes #Entry 18+NoPurNec12/1-30 http://t.co/t\u2026
p678
sg88
I00
sg89
Ven
p679
sg91
g3
(g45
g5
Ntp680
Rp681
(dp682
g10
VTexas
p683
sg49
V333333
p684
sg50
Ven
p685
sg51
VCentral Time (US & Canada)
p686
sg52
I88
sg53
I8519
sg32
VFri Apr 15 20:28:15 +0000 2011
p687
sg54
I00
sg55
g100
sg56
Vhttps://abs.twimg.com/sticky/default_profile_images/default_profile_0_normal.png
p688
sg57
I556
sg58
I55
sg59
I-21600
sg60
Nsg61
I00
sg62
Nsg63
I00
sg64
I00
sg65
V0084B4
p689
sg66
I00
sg67
I00
sg68
Vhttp://abs.twimg.com/images/themes/theme1/bg.png
p690
sg69
Vcindycroom
p691
sg71
I5
sg72
VCindy C.
p692
sg74
VDDEEF6
p693
sg75
Nsg76
I282737119
sg77
VC0DEED
p694
sbsg108
I3477
sg109
V<a href="http://twitter.com" rel="nofollow">Twitter Web Client</a>
p695
sg111
(lp696
g3
(g113
g5
Ntp697
Rp698
(dp699
g117
Vhttp://t.co/4lb8574Mfw
p700
sg119
Vhttp://youtu.be/qjmE2Ry-r9Y
p701
sbag3
(g113
g5
Ntp702
Rp703
(dp704
g117
Vhttp://t.co/txfU93TyGk
p705
sg119
Vhttp://bit.ly/ClickForRules
p706
sbasg76
I543809706876497921
sbag3
(g4
g5
Ntp707
Rp708
(dp709
g9
I0
sg10
Nsg11
Nsg12
(lp710
g3
(g14
g5
Ntp711
Rp712
(dp713
g18
Vstealorstay
p714
sbasg24
I00
sg25
g3
(g4
g5
Ntp715
Rp716
(dp717
g9
I231
sg10
Nsg11
Nsg12
(lp718
g3
(g14
g5
Ntp719
Rp720
(dp721
g18
Vstealorstay
p722
sbasg24
I00
sg25
Nsg26
Nsg27
(lp723
sg29
Nsg30
Nsg31
Nsg32
VSat Dec 13 00:31:04 +0000 2014
p724
sg34
Nsg35
I00
sg36
Nsg38
Nsg39
Nsg40
Nsg41
I00
sg42
Nsg43
(lp725
sg83
Nsg84
Nsg85
Nsg86
VHey big spender, RT for a chance to win a $1000 shopping spree! #stealorstay http://t.co/bRwHg0EUbq https://t.co/RtLeWbeKZW
p726
sg88
I00
sg89
Ven
p727
sg91
g3
(g45
g5
Ntp728
Rp729
(dp730
g10
g100
sg49
V333333
p731
sg50
Ven
p732
sg51
VPacific Time (US & Canada)
p733
sg52
I270850
sg53
I12205
sg32
VMon Dec 29 22:56:38 +0000 2008
p734
sg54
I01
sg55
VFashion for the people. Need customer service? Please tweet @ONCustServ or call 1-800-OLD-NAVY.
p735
sg56
Vhttps://pbs.twimg.com/profile_images/537017729849360384/JAyPB3mU_normal.png
p736
sg57
I3109
sg58
I3835
sg59
I-28800
sg60
Nsg61
I00
sg62
Vhttps://pbs.twimg.com/profile_banners/18462539/1417722700
p737
sg63
I00
sg64
I01
sg65
V008DB8
p738
sg66
I00
sg67
I00
sg68
Vhttp://pbs.twimg.com/profile_background_images/466999282113855488/5WwjzFxp.jpeg
p739
sg69
VOldNavy
p740
sg71
I2451
sg72
VOld Navy Official
p741
sg74
VFDDC46
p742
sg75
Vhttp://t.co/Ulj6zQnMVP
p743
sg76
I18462539
sg77
VFFFFFF
p744
sbsg108
I1499
sg109
V<a href="http://twitter.com" rel="nofollow">Twitter Web Client</a>
p745
sg111
(lp746
g3
(g113
g5
Ntp747
Rp748
(dp749
g117
Vhttp://t.co/bRwHg0EUbq
p750
sg119
Vhttp://oldnvy.me/1yYvlnz
p751
sbag3
(g113
g5
Ntp752
Rp753
(dp754
g117
Vhttps://t.co/RtLeWbeKZW
p755
sg119
Vhttps://vine.co/v/O6gZF07UghU
p756
sbasg76
I543563720605986817
sbsg26
Nsg27
(lp757
sg29
Nsg30
Nsg31
Nsg32
VSat Dec 13 16:47:25 +0000 2014
p758
sg34
Nsg35
I00
sg36
Nsg38
Nsg39
Nsg40
Nsg41
I00
sg42
Nsg43
(lp759
g3
(g45
g5
Ntp760
Rp761
(dp762
g10
Nsg49
Nsg50
Nsg51
Nsg52
Nsg53
Nsg32
Nsg54
Nsg55
Nsg56
Nsg57
Nsg58
Nsg59
Nsg60
Nsg61
Nsg62
Nsg63
Nsg64
Nsg65
Nsg66
Nsg67
Nsg68
Nsg69
VOldNavy
p763
sg71
Nsg72
VOld Navy Official
p764
sg74
Nsg75
Nsg76
I18462539
sg77
Nsbasg83
Nsg84
Nsg85
Nsg86
VRT @OldNavy: Hey big spender, RT for a chance to win a $1000 shopping spree! #stealorstay http://t.co/bRwHg0EUbq https://t.co/RtLeWbeKZW
p765
sg88
I00
sg89
Ven
p766
sg91
g3
(g45
g5
Ntp767
Rp768
(dp769
g10
VTexas
p770
sg49
V333333
p771
sg50
Ven
p772
sg51
VCentral Time (US & Canada)
p773
sg52
I88
sg53
I8519
sg32
VFri Apr 15 20:28:15 +0000 2011
p774
sg54
I00
sg55
g100
sg56
Vhttps://abs.twimg.com/sticky/default_profile_images/default_profile_0_normal.png
p775
sg57
I556
sg58
I55
sg59
I-21600
sg60
Nsg61
I00
sg62
Nsg63
I00
sg64
I00
sg65
V0084B4
p776
sg66
I00
sg67
I00
sg68
Vhttp://abs.twimg.com/images/themes/theme1/bg.png
p777
sg69
Vcindycroom
p778
sg71
I5
sg72
VCindy C.
p779
sg74
VDDEEF6
p780
sg75
Nsg76
I282737119
sg77
VC0DEED
p781
sbsg108
I1499
sg109
V<a href="http://twitter.com" rel="nofollow">Twitter Web Client</a>
p782
sg111
(lp783
g3
(g113
g5
Ntp784
Rp785
(dp786
g117
Vhttp://t.co/bRwHg0EUbq
p787
sg119
Vhttp://oldnvy.me/1yYvlnz
p788
sbag3
(g113
g5
Ntp789
Rp790
(dp791
g117
Vhttps://t.co/RtLeWbeKZW
p792
sg119
Vhttps://vine.co/v/O6gZF07UghU
p793
sbasg76
I543809427565211648
sbag3
(g4
g5
Ntp794
Rp795
(dp796
g9
I0
sg10
Nsg11
Nsg12
(lp797
g3
(g14
g5
Ntp798
Rp799
(dp800
g18
Vminutetipsweeps
p801
sbasg24
I00
sg25
Nsg26
Nsg27
(lp802
sg29
Nsg30
Nsg31
Nsg32
VSat Dec 13 16:46:46 +0000 2014
p803
sg34
Nsg35
Nsg36
Vminutemaid_us
p804
sg38
Nsg39
I213417597
sg40
Nsg41
I00
sg42
Nsg43
(lp805
g3
(g45
g5
Ntp806
Rp807
(dp808
g10
Nsg49
Nsg50
Nsg51
Nsg52
Nsg53
Nsg32
Nsg54
Nsg55
Nsg56
Nsg57
Nsg58
Nsg59
Nsg60
Nsg61
Nsg62
Nsg63
Nsg64
Nsg65
Nsg66
Nsg67
Nsg68
Nsg69
Vminutemaid_us
p809
sg71
Nsg72
VMinute Maid US
p810
sg74
Nsg75
Nsg76
I213417597
sg77
Nsbasg83
Nsg84
Nsg85
Nsg86
V@minutemaid_us Holiday Entertaining, prepare this weekend and freeze it. #minutetipsweeps
p811
sg88
I00
sg89
Ven
p812
sg91
g3
(g45
g5
Ntp813
Rp814
(dp815
g10
VTexas
p816
sg49
V333333
p817
sg50
Ven
p818
sg51
VCentral Time (US & Canada)
p819
sg52
I88
sg53
I8519
sg32
VFri Apr 15 20:28:15 +0000 2011
p820
sg54
I00
sg55
g100
sg56
Vhttps://abs.twimg.com/sticky/default_profile_images/default_profile_0_normal.png
p821
sg57
I556
sg58
I55
sg59
I-21600
sg60
Nsg61
I00
sg62
Nsg63
I00
sg64
I00
sg65
V0084B4
p822
sg66
I00
sg67
I00
sg68
Vhttp://abs.twimg.com/images/themes/theme1/bg.png
p823
sg69
Vcindycroom
p824
sg71
I5
sg72
VCindy C.
p825
sg74
VDDEEF6
p826
sg75
Nsg76
I282737119
sg77
VC0DEED
p827
sbsg108
I0
sg109
V<a href="http://twitter.com" rel="nofollow">Twitter Web Client</a>
p828
sg111
(lp829
sg76
I543809263945400321
sbag3
(g4
g5
Ntp830
Rp831
(dp832
g9
I0
sg10
Nsg11
Nsg12
(lp833
g3
(g14
g5
Ntp834
Rp835
(dp836
g18
VItsMillerTime
p837
sbasg24
I00
sg25
Nsg26
Nsg27
(lp838
(dp839
Vexpanded_url
p840
Vhttp://twitter.com/cindycroom/status/543808604428832768/photo/1
p841
sVdisplay_url
p842
Vpic.twitter.com/CgCLZ0L1Bm
p843
sVurl
p844
Vhttp://t.co/CgCLZ0L1Bm
p845
sVmedia_url_https
p846
Vhttps://pbs.twimg.com/media/B4v_CyRIEAA27oG.jpg
p847
sVid_str
p848
V543808603346702336
p849
sVsizes
p850
(dp851
Vsmall
p852
(dp853
Vh
p854
I255
sVresize
p855
Vfit
p856
sVw
p857
I340
ssVlarge
p858
(dp859
Vh
p860
I768
sVresize
p861
Vfit
p862
sVw
p863
I1024
ssVmedium
p864
(dp865
Vh
p866
I450
sVresize
p867
Vfit
p868
sVw
p869
I600
ssVthumb
p870
(dp871
Vh
p872
I150
sVresize
p873
Vcrop
p874
sVw
p875
I150
sssVindices
p876
(lp877
I57
aI79
asVtype
p878
Vphoto
p879
sVid
p880
I543808603346702336
sVmedia_url
p881
Vhttp://pbs.twimg.com/media/B4v_CyRIEAA27oG.jpg
p882
sasg29
Nsg30
Nsg31
Nsg32
VSat Dec 13 16:44:09 +0000 2014
p883
sg34
Nsg35
I00
sg36
VMillerLite
p884
sg38
Nsg39
I509145315
sg40
Nsg41
I00
sg42
Nsg43
(lp885
g3
(g45
g5
Ntp886
Rp887
(dp888
g10
Nsg49
Nsg50
Nsg51
Nsg52
Nsg53
Nsg32
Nsg54
Nsg55
Nsg56
Nsg57
Nsg58
Nsg59
Nsg60
Nsg61
Nsg62
Nsg63
Nsg64
Nsg65
Nsg66
Nsg67
Nsg68
Nsg69
VMillerLite
p889
sg71
Nsg72
VMiller Lite
p890
sg74
Nsg75
Nsg76
I509145315
sg77
Nsbasg83
Nsg84
Nsg85
Nsg86
V@MillerLite Stock up day for the holidays #ItsMillerTime http://t.co/CgCLZ0L1Bm
p891
sg88
I00
sg89
Ven
p892
sg91
g3
(g45
g5
Ntp893
Rp894
(dp895
g10
VTexas
p896
sg49
V333333
p897
sg50
Ven
p898
sg51
VCentral Time (US & Canada)
p899
sg52
I88
sg53
I8519
sg32
VFri Apr 15 20:28:15 +0000 2011
p900
sg54
I00
sg55
g100
sg56
Vhttps://abs.twimg.com/sticky/default_profile_images/default_profile_0_normal.png
p901
sg57
I556
sg58
I55
sg59
I-21600
sg60
Nsg61
I00
sg62
Nsg63
I00
sg64
I00
sg65
V0084B4
p902
sg66
I00
sg67
I00
sg68
Vhttp://abs.twimg.com/images/themes/theme1/bg.png
p903
sg69
Vcindycroom
p904
sg71
I5
sg72
VCindy C.
p905
sg74
VDDEEF6
p906
sg75
Nsg76
I282737119
sg77
VC0DEED
p907
sbsg108
I0
sg109
V<a href="http://twitter.com" rel="nofollow">Twitter Web Client</a>
p908
sg111
(lp909
sg76
I543808604428832768
sbag3
(g4
g5
Ntp910
Rp911
(dp912
g9
I0
sg10
Nsg11
Nsg12
(lp913
g3
(g14
g5
Ntp914
Rp915
(dp916
g18
Vwin
p917
sbag3
(g14
g5
Ntp918
Rp919
(dp920
g18
Vtheshoelover
p921
sbag3
(g14
g5
Ntp922
Rp923
(dp924
g18
Vfreeshoes
p925
sbasg24
I00
sg25
Nsg26
Nsg27
(lp926
sg29
Nsg30
Nsg31
Nsg32
VSat Dec 13 16:27:02 +0000 2014
p927
sg34
Nsg35
I00
sg36
Nsg38
Nsg39
Nsg40
Nsg41
I00
sg42
Nsg43
(lp928
g3
(g45
g5
Ntp929
Rp930
(dp931
g10
Nsg49
Nsg50
Nsg51
Nsg52
Nsg53
Nsg32
Nsg54
Nsg55
Nsg56
Nsg57
Nsg58
Nsg59
Nsg60
Nsg61
Nsg62
Nsg63
Nsg64
Nsg65
Nsg66
Nsg67
Nsg68
Nsg69
Vtheshoelover
p932
sg71
Nsg72
VThe Shoe Lover
p933
sg74
Nsg75
Nsg76
I139790337
sg77
Nsbasg83
Nsg84
Nsg85
Nsg86
VEnter to #win FREE SHOES from @theshoelover Click Here Now! #theshoelover #freeshoes http://t.co/uQI8qZKGZl
p934
sg88
I00
sg89
Ven
p935
sg91
g3
(g45
g5
Ntp936
Rp937
(dp938
g10
VTexas
p939
sg49
V333333
p940
sg50
Ven
p941
sg51
VCentral Time (US & Canada)
p942
sg52
I88
sg53
I8519
sg32
VFri Apr 15 20:28:15 +0000 2011
p943
sg54
I00
sg55
g100
sg56
Vhttps://abs.twimg.com/sticky/default_profile_images/default_profile_0_normal.png
p944
sg57
I556
sg58
I55
sg59
I-21600
sg60
Nsg61
I00
sg62
Nsg63
I00
sg64
I00
sg65
V0084B4
p945
sg66
I00
sg67
I00
sg68
Vhttp://abs.twimg.com/images/themes/theme1/bg.png
p946
sg69
Vcindycroom
p947
sg71
I5
sg72
VCindy C.
p948
sg74
VDDEEF6
p949
sg75
Nsg76
I282737119
sg77
VC0DEED
p950
sbsg108
I0
sg109
V<a href="https://dev.twitter.com/docs/tfw" rel="nofollow">Twitter for Websites</a>
p951
sg111
(lp952
g3
(g113
g5
Ntp953
Rp954
(dp955
g117
Vhttp://t.co/uQI8qZKGZl
p956
sg119
Vhttp://theshoelover.com/win-free-shoes-shoe-lover-theshoelover/
p957
sbasg76
I543804298925072385
sbag3
(g4
g5
Ntp958
Rp959
(dp960
g9
I0
sg10
Nsg11
Nsg12
(lp961
g3
(g14
g5
Ntp962
Rp963
(dp964
g18
VGiftGorgeously
p965
sbag3
(g14
g5
Ntp966
Rp967
(dp968
g18
VSweeps
p969
sbasg24
I00
sg25
Nsg26
Nsg27
(lp970
sg29
Nsg30
Nsg31
Nsg32
VSat Dec 13 16:22:54 +0000 2014
p971
sg34
Nsg35
Nsg36
VULTA_Beauty
p972
sg38
Nsg39
I28134825
sg40
Nsg41
I00
sg42
Nsg43
(lp973
g3
(g45
g5
Ntp974
Rp975
(dp976
g10
Nsg49
Nsg50
Nsg51
Nsg52
Nsg53
Nsg32
Nsg54
Nsg55
Nsg56
Nsg57
Nsg58
Nsg59
Nsg60
Nsg61
Nsg62
Nsg63
Nsg64
Nsg65
Nsg66
Nsg67
Nsg68
Nsg69
VULTA_Beauty
p977
sg71
Nsg72
VULTA Beauty
p978
sg74
Nsg75
Nsg76
I28134825
sg77
Nsbasg83
Nsg84
Nsg85
I543646514330206208
sg86
V@ULTA_Beauty the smell of PINE brings all the holiday memories back #GiftGorgeously  #Sweeps
p979
sg88
I00
sg89
Ven
p980
sg91
g3
(g45
g5
Ntp981
Rp982
(dp983
g10
VTexas
p984
sg49
V333333
p985
sg50
Ven
p986
sg51
VCentral Time (US & Canada)
p987
sg52
I88
sg53
I8519
sg32
VFri Apr 15 20:28:15 +0000 2011
p988
sg54
I00
sg55
g100
sg56
Vhttps://abs.twimg.com/sticky/default_profile_images/default_profile_0_normal.png
p989
sg57
I556
sg58
I55
sg59
I-21600
sg60
Nsg61
I00
sg62
Nsg63
I00
sg64
I00
sg65
V0084B4
p990
sg66
I00
sg67
I00
sg68
Vhttp://abs.twimg.com/images/themes/theme1/bg.png
p991
sg69
Vcindycroom
p992
sg71
I5
sg72
VCindy C.
p993
sg74
VDDEEF6
p994
sg75
Nsg76
I282737119
sg77
VC0DEED
p995
sbsg108
I0
sg109
V<a href="http://twitter.com" rel="nofollow">Twitter Web Client</a>
p996
sg111
(lp997
sg76
I543803257601011713
sbag3
(g4
g5
Ntp998
Rp999
(dp1000
g9
I0
sg10
Nsg11
Nsg12
(lp1001
g3
(g14
g5
Ntp1002
Rp1003
(dp1004
g18
Vwinabaggiveabag
p1005
sbasg24
I00
sg25
Nsg26
Nsg27
(lp1006
sg29
Nsg30
Nsg31
Nsg32
VSat Dec 13 15:58:27 +0000 2014
p1007
sg34
Nsg35
I00
sg36
Nsg38
Nsg39
Nsg40
Nsg41
I00
sg42
Nsg43
(lp1008
sg83
Nsg84
Nsg85
Nsg86
VI &lt;3 The Cheri Hobo in Rose by Emilie M. and I entered for a chance to #winabaggiveabag http://t.co/Bvlsyhb8eE
p1009
sg88
I00
sg89
Ven
p1010
sg91
g3
(g45
g5
Ntp1011
Rp1012
(dp1013
g10
VTexas
p1014
sg49
V333333
p1015
sg50
Ven
p1016
sg51
VCentral Time (US & Canada)
p1017
sg52
I88
sg53
I8519
sg32
VFri Apr 15 20:28:15 +0000 2011
p1018
sg54
I00
sg55
g100
sg56
Vhttps://abs.twimg.com/sticky/default_profile_images/default_profile_0_normal.png
p1019
sg57
I556
sg58
I55
sg59
I-21600
sg60
Nsg61
I00
sg62
Nsg63
I00
sg64
I00
sg65
V0084B4
p1020
sg66
I00
sg67
I00
sg68
Vhttp://abs.twimg.com/images/themes/theme1/bg.png
p1021
sg69
Vcindycroom
p1022
sg71
I5
sg72
VCindy C.
p1023
sg74
VDDEEF6
p1024
sg75
Nsg76
I282737119
sg77
VC0DEED
p1025
sbsg108
I0
sg109
V<a href="https://dev.twitter.com/docs/tfw" rel="nofollow">Twitter for Websites</a>
p1026
sg111
(lp1027
g3
(g113
g5
Ntp1028
Rp1029
(dp1030
g117
Vhttp://t.co/Bvlsyhb8eE
p1031
sg119
Vhttp://is.gd/dwD3SB
p1032
sbasg76
I543797104674484224
sbag3
(g4
g5
Ntp1033
Rp1034
(dp1035
g9
I0
sg10
Nsg11
Nsg12
(lp1036
g3
(g14
g5
Ntp1037
Rp1038
(dp1039
g18
V12DaysofKeurig
p1040
sbag3
(g14
g5
Ntp1041
Rp1042
(dp1043
g18
VGiveaway
p1044
sbasg24
I00
sg25
Nsg26
Nsg27
(lp1045
sg29
Nsg30
Nsg31
Nsg32
VSat Dec 13 15:05:29 +0000 2014
p1046
sg34
Nsg35
Nsg36
VCinnabon
p1047
sg38
Nsg39
I84708371
sg40
Nsg41
I00
sg42
Nsg43
(lp1048
g3
(g45
g5
Ntp1049
Rp1050
(dp1051
g10
Nsg49
Nsg50
Nsg51
Nsg52
Nsg53
Nsg32
Nsg54
Nsg55
Nsg56
Nsg57
Nsg58
Nsg59
Nsg60
Nsg61
Nsg62
Nsg63
Nsg64
Nsg65
Nsg66
Nsg67
Nsg68
Nsg69
VCinnabon
p1052
sg71
Nsg72
VCinnabon
p1053
sg74
Nsg75
Nsg76
I84708371
sg77
Nsbasg83
Nsg84
Nsg85
I543782688889786368
sg86
V@Cinnabon Afternoon for a treat #12DaysofKeurig  #Giveaway
p1054
sg88
I00
sg89
Ven
p1055
sg91
g3
(g45
g5
Ntp1056
Rp1057
(dp1058
g10
VTexas
p1059
sg49
V333333
p1060
sg50
Ven
p1061
sg51
VCentral Time (US & Canada)
p1062
sg52
I88
sg53
I8519
sg32
VFri Apr 15 20:28:15 +0000 2011
p1063
sg54
I00
sg55
g100
sg56
Vhttps://abs.twimg.com/sticky/default_profile_images/default_profile_0_normal.png
p1064
sg57
I556
sg58
I55
sg59
I-21600
sg60
Nsg61
I00
sg62
Nsg63
I00
sg64
I00
sg65
V0084B4
p1065
sg66
I00
sg67
I00
sg68
Vhttp://abs.twimg.com/images/themes/theme1/bg.png
p1066
sg69
Vcindycroom
p1067
sg71
I5
sg72
VCindy C.
p1068
sg74
VDDEEF6
p1069
sg75
Nsg76
I282737119
sg77
VC0DEED
p1070
sbsg108
I0
sg109
V<a href="http://twitter.com" rel="nofollow">Twitter Web Client</a>
p1071
sg111
(lp1072
sg76
I543783776107900928
sbag3
(g4
g5
Ntp1073
Rp1074
(dp1075
g9
I0
sg10
Nsg11
Nsg12
(lp1076
g3
(g14
g5
Ntp1077
Rp1078
(dp1079
g18
V201413HD
p1080
sbasg24
I00
sg25
Nsg26
Nsg27
(lp1081
sg29
Nsg30
Nsg31
Nsg32
VSat Dec 13 14:32:09 +0000 2014
p1082
sg34
Nsg35
Nsg36
VHarryandDavid
p1083
sg38
Nsg39
I21440100
sg40
Nsg41
I00
sg42
Nsg43
(lp1084
g3
(g45
g5
Ntp1085
Rp1086
(dp1087
g10
Nsg49
Nsg50
Nsg51
Nsg52
Nsg53
Nsg32
Nsg54
Nsg55
Nsg56
Nsg57
Nsg58
Nsg59
Nsg60
Nsg61
Nsg62
Nsg63
Nsg64
Nsg65
Nsg66
Nsg67
Nsg68
Nsg69
VHarryandDavid
p1088
sg71
Nsg72
VHarry & David
p1089
sg74
Nsg75
Nsg76
I21440100
sg77
Nsbasg83
Nsg84
Nsg85
I543722019091931136
sg86
V@HarryandDavid #201413HD
p1090
sg88
I00
sg89
Vund
p1091
sg91
g3
(g45
g5
Ntp1092
Rp1093
(dp1094
g10
VTexas
p1095
sg49
V333333
p1096
sg50
Ven
p1097
sg51
VCentral Time (US & Canada)
p1098
sg52
I88
sg53
I8519
sg32
VFri Apr 15 20:28:15 +0000 2011
p1099
sg54
I00
sg55
g100
sg56
Vhttps://abs.twimg.com/sticky/default_profile_images/default_profile_0_normal.png
p1100
sg57
I556
sg58
I55
sg59
I-21600
sg60
Nsg61
I00
sg62
Nsg63
I00
sg64
I00
sg65
V0084B4
p1101
sg66
I00
sg67
I00
sg68
Vhttp://abs.twimg.com/images/themes/theme1/bg.png
p1102
sg69
Vcindycroom
p1103
sg71
I5
sg72
VCindy C.
p1104
sg74
VDDEEF6
p1105
sg75
Nsg76
I282737119
sg77
VC0DEED
p1106
sbsg108
I0
sg109
V<a href="http://twitter.com" rel="nofollow">Twitter Web Client</a>
p1107
sg111
(lp1108
sg76
I543775385583116288
sbag3
(g4
g5
Ntp1109
Rp1110
(dp1111
g9
I0
sg10
Nsg11
Nsg12
(lp1112
g3
(g14
g5
Ntp1113
Rp1114
(dp1115
g18
VHostessTip
p1116
sbasg24
I00
sg25
Nsg26
Nsg27
(lp1117
sg29
Nsg30
Nsg31
Nsg32
VSat Dec 13 14:22:10 +0000 2014
p1118
sg34
Nsg35
Nsg36
VLandsEnd
p1119
sg38
Nsg39
I16492352
sg40
Nsg41
I00
sg42
Nsg43
(lp1120
g3
(g45
g5
Ntp1121
Rp1122
(dp1123
g10
Nsg49
Nsg50
Nsg51
Nsg52
Nsg53
Nsg32
Nsg54
Nsg55
Nsg56
Nsg57
Nsg58
Nsg59
Nsg60
Nsg61
Nsg62
Nsg63
Nsg64
Nsg65
Nsg66
Nsg67
Nsg68
Nsg69
VLandsEnd
p1124
sg71
Nsg72
VLandsEnd
p1125
sg74
Nsg75
Nsg76
I16492352
sg77
Nsbasg83
Nsg84
Nsg85
I543767373673545728
sg86
V@LandsEnd Only invite the amount of people you have comfortable seating for in your location #HostessTip
p1126
sg88
I00
sg89
Ven
p1127
sg91
g3
(g45
g5
Ntp1128
Rp1129
(dp1130
g10
VTexas
p1131
sg49
V333333
p1132
sg50
Ven
p1133
sg51
VCentral Time (US & Canada)
p1134
sg52
I88
sg53
I8519
sg32
VFri Apr 15 20:28:15 +0000 2011
p1135
sg54
I00
sg55
g100
sg56
Vhttps://abs.twimg.com/sticky/default_profile_images/default_profile_0_normal.png
p1136
sg57
I556
sg58
I55
sg59
I-21600
sg60
Nsg61
I00
sg62
Nsg63
I00
sg64
I00
sg65
V0084B4
p1137
sg66
I00
sg67
I00
sg68
Vhttp://abs.twimg.com/images/themes/theme1/bg.png
p1138
sg69
Vcindycroom
p1139
sg71
I5
sg72
VCindy C.
p1140
sg74
VDDEEF6
p1141
sg75
Nsg76
I282737119
sg77
VC0DEED
p1142
sbsg108
I0
sg109
V<a href="http://twitter.com" rel="nofollow">Twitter Web Client</a>
p1143
sg111
(lp1144
sg76
I543772873769623552
sbag3
(g4
g5
Ntp1145
Rp1146
(dp1147
g9
I0
sg10
Nsg11
Nsg12
(lp1148
g3
(g14
g5
Ntp1149
Rp1150
(dp1151
g18
VHostessTip
p1152
sbasg24
I00
sg25
Nsg26
Nsg27
(lp1153
sg29
Nsg30
Nsg31
Nsg32
VSat Dec 13 14:20:03 +0000 2014
p1154
sg34
Nsg35
Nsg36
VLandsEnd
p1155
sg38
Nsg39
I16492352
sg40
Nsg41
I00
sg42
Nsg43
(lp1156
g3
(g45
g5
Ntp1157
Rp1158
(dp1159
g10
Nsg49
Nsg50
Nsg51
Nsg52
Nsg53
Nsg32
Nsg54
Nsg55
Nsg56
Nsg57
Nsg58
Nsg59
Nsg60
Nsg61
Nsg62
Nsg63
Nsg64
Nsg65
Nsg66
Nsg67
Nsg68
Nsg69
VLandsEnd
p1160
sg71
Nsg72
VLandsEnd
p1161
sg74
Nsg75
Nsg76
I16492352
sg77
Nsbasg83
Nsg84
Nsg85
I543767373673545728
sg86
V@LandsEnd Have multiple choices of food and desert making sure that one doesn't include nuts or strawberries. #HostessTip
p1162
sg88
I00
sg89
Ven
p1163
sg91
g3
(g45
g5
Ntp1164
Rp1165
(dp1166
g10
VTexas
p1167
sg49
V333333
p1168
sg50
Ven
p1169
sg51
VCentral Time (US & Canada)
p1170
sg52
I88
sg53
I8519
sg32
VFri Apr 15 20:28:15 +0000 2011
p1171
sg54
I00
sg55
g100
sg56
Vhttps://abs.twimg.com/sticky/default_profile_images/default_profile_0_normal.png
p1172
sg57
I556
sg58
I55
sg59
I-21600
sg60
Nsg61
I00
sg62
Nsg63
I00
sg64
I00
sg65
V0084B4
p1173
sg66
I00
sg67
I00
sg68
Vhttp://abs.twimg.com/images/themes/theme1/bg.png
p1174
sg69
Vcindycroom
p1175
sg71
I5
sg72
VCindy C.
p1176
sg74
VDDEEF6
p1177
sg75
Nsg76
I282737119
sg77
VC0DEED
p1178
sbsg108
I0
sg109
V<a href="http://twitter.com" rel="nofollow">Twitter Web Client</a>
p1179
sg111
(lp1180
sg76
I543772342795919360
sbaa.