(lp0
S'EmmaMichaels'
p1
a(lp2
ccopy_reg
_reconstructor
p3
(ctwitter
Status
p4
c__builtin__
object
p5
Ntp6
Rp7
(dp8
S'_favorite_count'
p9
I0
sS'_location'
p10
NsS'_withheld_scope'
p11
NsS'hashtags'
p12
(lp13
g3
(ctwitter
Hashtag
p14
g5
Ntp15
Rp16
(dp17
S'text'
p18
VAmazon
p19
sbag3
(g14
g5
Ntp20
Rp21
(dp22
g18
VNew
p23
sbasS'_truncated'
p24
I00
sS'_retweeted_status'
p25
NsS'_withheld_copyright'
p26
NsS'media'
p27
(lp28
sS'_place'
p29
NsS'_contributors'
p30
NsS'_current_user_retweet'
p31
NsS'_created_at'
p32
VSun Dec 14 20:00:43 +0000 2014
p33
sS'_scopes'
p34
NsS'_possibly_sensitive'
p35
I00
sS'_in_reply_to_screen_name'
p36
NsS'_coordinates'
p37
NsS'_in_reply_to_user_id'
p38
NsS'_geo'
p39
NsS'_favorited'
p40
I00
sS'_withheld_in_countries'
p41
NsS'user_mentions'
p42
(lp43
sS'_now'
p44
NsS'_id_str'
p45
V544220458426851328
p46
sS'_in_reply_to_status_id'
p47
NsS'_text'
p48
VNothing in life is a coincidence.\u201d  Everyone has a past. It\u2019s time for Shauna Rousseau to face hers.  #Amazon #New http://t.co/dTsRAEDiwx
p49
sS'_retweeted'
p50
I00
sS'lang'
p51
Ven
p52
sS'_user'
p53
g3
(ctwitter
User
p54
g5
Ntp55
Rp56
(dp57
g10
V
p58
sS'_profile_text_color'
p59
V333333
p60
sS'_lang'
p61
Ven
p62
sS'_time_zone'
p63
VCentral Time (US & Canada)
p64
sS'_followers_count'
p65
I4926
sS'_statuses_count'
p66
I3311
sg32
VSun Feb 07 17:56:44 +0000 2010
p67
sS'_verified'
p68
I00
sS'_description'
p69
VI am a #book #blogger turned #author and cover artist. Feel free to stop by my site to find out more about my #novel OWLET.
p70
sS'_profile_image_url'
p71
Vhttps://pbs.twimg.com/profile_images/442148960526798848/7HDeAZOh_normal.jpeg
p72
sS'_friends_count'
p73
I1775
sS'_favourites_count'
p74
I279
sS'_utc_offset'
p75
I-21600
sS'_status'
p76
NsS'_protected'
p77
I00
sS'_profile_banner_url'
p78
Vhttps://pbs.twimg.com/profile_banners/112223434/1410996071
p79
sS'_notifications'
p80
I00
sS'_profile_background_tile'
p81
I00
sS'_profile_link_color'
p82
V93A644
p83
sS'_geo_enabled'
p84
I00
sS'_contributors_enabled'
p85
I00
sS'_profile_background_image_url'
p86
Vhttp://pbs.twimg.com/profile_background_images/573895463/ur0nj9k2f1qrl4d0f32n.jpeg
p87
sS'_screen_name'
p88
VEmmaMichaels
p89
sS'_listed_count'
p90
I168
sS'_name'
p91
VEmma Michaels
p92
sS'_profile_sidebar_fill_color'
p93
VEFEFEF
p94
sS'_url'
p95
Vhttp://t.co/bKlLxEQbYH
p96
sS'_id'
p97
I112223434
sS'_profile_background_color'
p98
VB2DFDA
p99
sbsS'_retweet_count'
p100
I0
sS'_source'
p101
V<a href="https://www.thunderclap.it" rel="nofollow">Thunderclap</a>
p102
sS'urls'
p103
(lp104
g3
(ctwitter
Url
p105
g5
Ntp106
Rp107
(dp108
S'url'
p109
Vhttp://t.co/dTsRAEDiwx
p110
sS'expanded_url'
p111
Vhttp://thndr.it/11U0hcG
p112
sbasg97
I544220458426851328
sbag3
(g4
g5
Ntp113
Rp114
(dp115
g9
I0
sg10
Nsg11
Nsg12
(lp116
g3
(g14
g5
Ntp117
Rp118
(dp119
g18
VHolidayRomance
p120
sbag3
(g14
g5
Ntp121
Rp122
(dp123
g18
Vromanticsuspense
p124
sbag3
(g14
g5
Ntp125
Rp126
(dp127
g18
Vvampires
p128
sbag3
(g14
g5
Ntp129
Rp130
(dp131
g18
VBDSM
p132
sbasg24
I00
sg25
Nsg26
Nsg27
(lp133
sg29
Nsg30
Nsg31
Nsg32
VSun Dec 14 19:00:32 +0000 2014
p134
sg34
Nsg35
I00
sg36
Nsg37
Nsg38
Nsg39
Nsg40
I00
sg41
Nsg42
(lp135
sg44
Nsg45
V544205313076109313
p136
sg47
Nsg48
VThree #HolidayRomance novels --edgy #romanticsuspense --rocking #vampires -sexy #BDSM --One Breathless Collection  http://t.co/AtLt5QHdw1
p137
sg50
I00
sg51
Ven
p138
sg53
g3
(g54
g5
Ntp139
Rp140
(dp141
g10
g58
sg59
V333333
p142
sg61
Ven
p143
sg63
VCentral Time (US & Canada)
p144
sg65
I4926
sg66
I3311
sg32
VSun Feb 07 17:56:44 +0000 2010
p145
sg68
I00
sg69
VI am a #book #blogger turned #author and cover artist. Feel free to stop by my site to find out more about my #novel OWLET.
p146
sg71
Vhttps://pbs.twimg.com/profile_images/442148960526798848/7HDeAZOh_normal.jpeg
p147
sg73
I1775
sg74
I279
sg75
I-21600
sg76
Nsg77
I00
sg78
Vhttps://pbs.twimg.com/profile_banners/112223434/1410996071
p148
sg80
I00
sg81
I00
sg82
V93A644
p149
sg84
I00
sg85
I00
sg86
Vhttp://pbs.twimg.com/profile_background_images/573895463/ur0nj9k2f1qrl4d0f32n.jpeg
p150
sg88
VEmmaMichaels
p151
sg90
I168
sg91
VEmma Michaels
p152
sg93
VEFEFEF
p153
sg95
Vhttp://t.co/bKlLxEQbYH
p154
sg97
I112223434
sg98
VB2DFDA
p155
sbsg100
I0
sg101
V<a href="https://www.thunderclap.it" rel="nofollow">Thunderclap</a>
p156
sg103
(lp157
g3
(g105
g5
Ntp158
Rp159
(dp160
g109
Vhttp://t.co/AtLt5QHdw1
p161
sg111
Vhttp://thndr.it/1HPxC9D
p162
sbasg97
I544205313076109313
sbag3
(g4
g5
Ntp163
Rp164
(dp165
g9
I0
sg10
Nsg11
Nsg12
(lp166
sg24
I00
sg25
Nsg26
Nsg27
(lp167
sg29
Nsg30
Nsg31
Nsg32
VSun Dec 14 17:00:28 +0000 2014
p168
sg34
Nsg35
I00
sg36
Nsg37
Nsg38
Nsg39
Nsg40
I00
sg41
Nsg42
(lp169
sg44
Nsg45
V544175099033972737
p170
sg47
Nsg48
VBreslyn tells his story and takes us into Legend! 12/14 to 12/18/2014  99cents!!!! http://t.co/0zk6hQDQNf
p171
sg50
I00
sg51
Ven
p172
sg53
g3
(g54
g5
Ntp173
Rp174
(dp175
g10
g58
sg59
V333333
p176
sg61
Ven
p177
sg63
VCentral Time (US & Canada)
p178
sg65
I4926
sg66
I3311
sg32
VSun Feb 07 17:56:44 +0000 2010
p179
sg68
I00
sg69
VI am a #book #blogger turned #author and cover artist. Feel free to stop by my site to find out more about my #novel OWLET.
p180
sg71
Vhttps://pbs.twimg.com/profile_images/442148960526798848/7HDeAZOh_normal.jpeg
p181
sg73
I1775
sg74
I279
sg75
I-21600
sg76
Nsg77
I00
sg78
Vhttps://pbs.twimg.com/profile_banners/112223434/1410996071
p182
sg80
I00
sg81
I00
sg82
V93A644
p183
sg84
I00
sg85
I00
sg86
Vhttp://pbs.twimg.com/profile_background_images/573895463/ur0nj9k2f1qrl4d0f32n.jpeg
p184
sg88
VEmmaMichaels
p185
sg90
I168
sg91
VEmma Michaels
p186
sg93
VEFEFEF
p187
sg95
Vhttp://t.co/bKlLxEQbYH
p188
sg97
I112223434
sg98
VB2DFDA
p189
sbsg100
I0
sg101
V<a href="https://www.thunderclap.it" rel="nofollow">Thunderclap</a>
p190
sg103
(lp191
g3
(g105
g5
Ntp192
Rp193
(dp194
g109
Vhttp://t.co/0zk6hQDQNf
p195
sg111
Vhttp://thndr.it/1Ib6nXh
p196
sbasg97
I544175099033972737
sbag3
(g4
g5
Ntp197
Rp198
(dp199
g9
I0
sg10
Nsg11
Nsg12
(lp200
g3
(g14
g5
Ntp201
Rp202
(dp203
g18
VNewRelease
p204
sbag3
(g14
g5
Ntp205
Rp206
(dp207
g18
VRomance
p208
sbag3
(g14
g5
Ntp209
Rp210
(dp211
g18
VAmReading
p212
sbasg24
I00
sg25
Nsg26
Nsg27
(lp213
sg29
Nsg30
Nsg31
Nsg32
VSun Dec 14 00:00:50 +0000 2014
p214
sg34
Nsg35
I00
sg36
Nsg37
Nsg38
Nsg39
Nsg40
I00
sg41
Nsg42
(lp215
sg44
Nsg45
V543918500562350080
p216
sg47
Nsg48
VTWISTED BY DESIRE by Desiree A. Cox ~ The Lust, Desire and Love Trilogy: Book 1 ~ #NewRelease #Romance #AmReading http://t.co/fkCzrIMrD7
p217
sg50
I00
sg51
Ven
p218
sg53
g3
(g54
g5
Ntp219
Rp220
(dp221
g10
g58
sg59
V333333
p222
sg61
Ven
p223
sg63
VCentral Time (US & Canada)
p224
sg65
I4926
sg66
I3311
sg32
VSun Feb 07 17:56:44 +0000 2010
p225
sg68
I00
sg69
VI am a #book #blogger turned #author and cover artist. Feel free to stop by my site to find out more about my #novel OWLET.
p226
sg71
Vhttps://pbs.twimg.com/profile_images/442148960526798848/7HDeAZOh_normal.jpeg
p227
sg73
I1775
sg74
I279
sg75
I-21600
sg76
Nsg77
I00
sg78
Vhttps://pbs.twimg.com/profile_banners/112223434/1410996071
p228
sg80
I00
sg81
I00
sg82
V93A644
p229
sg84
I00
sg85
I00
sg86
Vhttp://pbs.twimg.com/profile_background_images/573895463/ur0nj9k2f1qrl4d0f32n.jpeg
p230
sg88
VEmmaMichaels
p231
sg90
I168
sg91
VEmma Michaels
p232
sg93
VEFEFEF
p233
sg95
Vhttp://t.co/bKlLxEQbYH
p234
sg97
I112223434
sg98
VB2DFDA
p235
sbsg100
I0
sg101
V<a href="https://www.thunderclap.it" rel="nofollow">Thunderclap</a>
p236
sg103
(lp237
g3
(g105
g5
Ntp238
Rp239
(dp240
g109
Vhttp://t.co/fkCzrIMrD7
p241
sg111
Vhttp://thndr.it/1uWn8jB
p242
sbasg97
I543918500562350080
sbag3
(g4
g5
Ntp243
Rp244
(dp245
g9
I0
sg10
Nsg11
Nsg12
(lp246
g3
(g14
g5
Ntp247
Rp248
(dp249
g18
VFree
p250
sbag3
(g14
g5
Ntp251
Rp252
(dp253
g18
VKindleUnlimited
p254
sbasg24
I00
sg25
Nsg26
Nsg27
(lp255
sg29
Nsg30
Nsg31
Nsg32
VSat Dec 13 19:55:34 +0000 2014
p256
sg34
Nsg35
I00
sg36
Nsg37
Nsg38
Nsg39
Nsg40
I00
sg41
Nsg42
(lp257
sg44
Nsg45
V543856776622661632
p258
sg47
Nsg48
V*** Last chance $0.99 or #Free on #KindleUnlimited *** Somewhere between falling and flying\u2026 you will find... http://t.co/PeheYmXWbD
p259
sg50
I00
sg51
Ven
p260
sg53
g3
(g54
g5
Ntp261
Rp262
(dp263
g10
g58
sg59
V333333
p264
sg61
Ven
p265
sg63
VCentral Time (US & Canada)
p266
sg65
I4926
sg66
I3311
sg32
VSun Feb 07 17:56:44 +0000 2010
p267
sg68
I00
sg69
VI am a #book #blogger turned #author and cover artist. Feel free to stop by my site to find out more about my #novel OWLET.
p268
sg71
Vhttps://pbs.twimg.com/profile_images/442148960526798848/7HDeAZOh_normal.jpeg
p269
sg73
I1775
sg74
I279
sg75
I-21600
sg76
Nsg77
I00
sg78
Vhttps://pbs.twimg.com/profile_banners/112223434/1410996071
p270
sg80
I00
sg81
I00
sg82
V93A644
p271
sg84
I00
sg85
I00
sg86
Vhttp://pbs.twimg.com/profile_background_images/573895463/ur0nj9k2f1qrl4d0f32n.jpeg
p272
sg88
VEmmaMichaels
p273
sg90
I168
sg91
VEmma Michaels
p274
sg93
VEFEFEF
p275
sg95
Vhttp://t.co/bKlLxEQbYH
p276
sg97
I112223434
sg98
VB2DFDA
p277
sbsg100
I0
sg101
V<a href="http://tsu.co" rel="nofollow">Tsu.co</a>
p278
sg103
(lp279
g3
(g105
g5
Ntp280
Rp281
(dp282
g109
Vhttp://t.co/PeheYmXWbD
p283
sg111
Vhttp://tsu.co/EmmaMichaels/16877132
p284
sbasg97
I543856776622661632
sbag3
(g4
g5
Ntp285
Rp286
(dp287
g9
I0
sg10
Nsg11
Nsg12
(lp288
sg24
I00
sg25
Nsg26
Nsg27
(lp289
sg29
Nsg30
Nsg31
Nsg32
VSat Dec 13 17:00:19 +0000 2014
p290
sg34
Nsg35
I00
sg36
Nsg37
Nsg38
Nsg39
Nsg40
I00
sg41
Nsg42
(lp291
sg44
Nsg45
V543812673809707009
p292
sg47
Nsg48
VThe Queen of Swords, a paranormal tale of undying love. More than 50 five-star reviews. Grab it now for only $2.99! http://t.co/eLhGEUg73c
p293
sg50
I00
sg51
Ven
p294
sg53
g3
(g54
g5
Ntp295
Rp296
(dp297
g10
g58
sg59
V333333
p298
sg61
Ven
p299
sg63
VCentral Time (US & Canada)
p300
sg65
I4926
sg66
I3311
sg32
VSun Feb 07 17:56:44 +0000 2010
p301
sg68
I00
sg69
VI am a #book #blogger turned #author and cover artist. Feel free to stop by my site to find out more about my #novel OWLET.
p302
sg71
Vhttps://pbs.twimg.com/profile_images/442148960526798848/7HDeAZOh_normal.jpeg
p303
sg73
I1775
sg74
I279
sg75
I-21600
sg76
Nsg77
I00
sg78
Vhttps://pbs.twimg.com/profile_banners/112223434/1410996071
p304
sg80
I00
sg81
I00
sg82
V93A644
p305
sg84
I00
sg85
I00
sg86
Vhttp://pbs.twimg.com/profile_background_images/573895463/ur0nj9k2f1qrl4d0f32n.jpeg
p306
sg88
VEmmaMichaels
p307
sg90
I168
sg91
VEmma Michaels
p308
sg93
VEFEFEF
p309
sg95
Vhttp://t.co/bKlLxEQbYH
p310
sg97
I112223434
sg98
VB2DFDA
p311
sbsg100
I0
sg101
V<a href="https://www.thunderclap.it" rel="nofollow">Thunderclap</a>
p312
sg103
(lp313
g3
(g105
g5
Ntp314
Rp315
(dp316
g109
Vhttp://t.co/eLhGEUg73c
p317
sg111
Vhttp://thndr.it/1xZC5kF
p318
sbasg97
I543812673809707009
sbag3
(g4
g5
Ntp319
Rp320
(dp321
g9
I1
sg10
Nsg11
Nsg12
(lp322
sg24
I00
sg25
Nsg26
Nsg27
(lp323
sg29
Nsg30
Nsg31
Nsg32
VFri Dec 12 23:30:39 +0000 2014
p324
sg34
Nsg35
I00
sg36
Nsg37
Nsg38
Nsg39
Nsg40
I00
sg41
Nsg42
(lp325
sg44
Nsg45
V543548515247747073
p326
sg47
Nsg48
V16 stories, four poems, and 5 pieces of original artwork all combine to form this unique post-apocalyptic anthology! http://t.co/N5h5cjNlTC
p327
sg50
I00
sg51
Ven
p328
sg53
g3
(g54
g5
Ntp329
Rp330
(dp331
g10
g58
sg59
V333333
p332
sg61
Ven
p333
sg63
VCentral Time (US & Canada)
p334
sg65
I4926
sg66
I3311
sg32
VSun Feb 07 17:56:44 +0000 2010
p335
sg68
I00
sg69
VI am a #book #blogger turned #author and cover artist. Feel free to stop by my site to find out more about my #novel OWLET.
p336
sg71
Vhttps://pbs.twimg.com/profile_images/442148960526798848/7HDeAZOh_normal.jpeg
p337
sg73
I1775
sg74
I279
sg75
I-21600
sg76
Nsg77
I00
sg78
Vhttps://pbs.twimg.com/profile_banners/112223434/1410996071
p338
sg80
I00
sg81
I00
sg82
V93A644
p339
sg84
I00
sg85
I00
sg86
Vhttp://pbs.twimg.com/profile_background_images/573895463/ur0nj9k2f1qrl4d0f32n.jpeg
p340
sg88
VEmmaMichaels
p341
sg90
I168
sg91
VEmma Michaels
p342
sg93
VEFEFEF
p343
sg95
Vhttp://t.co/bKlLxEQbYH
p344
sg97
I112223434
sg98
VB2DFDA
p345
sbsg100
I0
sg101
V<a href="https://www.thunderclap.it" rel="nofollow">Thunderclap</a>
p346
sg103
(lp347
g3
(g105
g5
Ntp348
Rp349
(dp350
g109
Vhttp://t.co/N5h5cjNlTC
p351
sg111
Vhttp://thndr.it/1162Ck9
p352
sbasg97
I543548515247747073
sbag3
(g4
g5
Ntp353
Rp354
(dp355
g9
I0
sg10
Nsg11
Nsg12
(lp356
sg24
I00
sg25
Nsg26
Nsg27
(lp357
sg29
Nsg30
Nsg31
Nsg32
VFri Dec 12 23:29:03 +0000 2014
p358
sg34
Nsg35
I00
sg36
Nsg37
Nsg38
Nsg39
Nsg40
I00
sg41
Nsg42
(lp359
sg44
Nsg45
V543548115115331584
p360
sg47
Nsg48
V\u201cOnce upon a time there was a boy who loved a girl, and her laughter was a question he wanted to spend his... http://t.co/vdgpkw1IwG
p361
sg50
I00
sg51
Ven
p362
sg53
g3
(g54
g5
Ntp363
Rp364
(dp365
g10
g58
sg59
V333333
p366
sg61
Ven
p367
sg63
VCentral Time (US & Canada)
p368
sg65
I4926
sg66
I3311
sg32
VSun Feb 07 17:56:44 +0000 2010
p369
sg68
I00
sg69
VI am a #book #blogger turned #author and cover artist. Feel free to stop by my site to find out more about my #novel OWLET.
p370
sg71
Vhttps://pbs.twimg.com/profile_images/442148960526798848/7HDeAZOh_normal.jpeg
p371
sg73
I1775
sg74
I279
sg75
I-21600
sg76
Nsg77
I00
sg78
Vhttps://pbs.twimg.com/profile_banners/112223434/1410996071
p372
sg80
I00
sg81
I00
sg82
V93A644
p373
sg84
I00
sg85
I00
sg86
Vhttp://pbs.twimg.com/profile_background_images/573895463/ur0nj9k2f1qrl4d0f32n.jpeg
p374
sg88
VEmmaMichaels
p375
sg90
I168
sg91
VEmma Michaels
p376
sg93
VEFEFEF
p377
sg95
Vhttp://t.co/bKlLxEQbYH
p378
sg97
I112223434
sg98
VB2DFDA
p379
sbsg100
I0
sg101
V<a href="http://tsu.co" rel="nofollow">Tsu.co</a>
p380
sg103
(lp381
g3
(g105
g5
Ntp382
Rp383
(dp384
g109
Vhttp://t.co/vdgpkw1IwG
p385
sg111
Vhttp://tsu.co/EmmaMichaels/16632627
p386
sbasg97
I543548115115331584
sbag3
(g4
g5
Ntp387
Rp388
(dp389
g9
I0
sg10
Nsg11
Nsg12
(lp390
sg24
I00
sg25
Nsg26
Nsg27
(lp391
sg29
Nsg30
Nsg31
Nsg32
VFri Dec 12 23:27:47 +0000 2014
p392
sg34
Nsg35
I00
sg36
Nsg37
Nsg38
Nsg39
Nsg40
I00
sg41
Nsg42
(lp393
sg44
Nsg45
V543547795383144448
p394
sg47
Nsg48
VAre you on Tsu? https://t.co/3xXJqtKJwG
p395
sg50
I00
sg51
Ven
p396
sg53
g3
(g54
g5
Ntp397
Rp398
(dp399
g10
g58
sg59
V333333
p400
sg61
Ven
p401
sg63
VCentral Time (US & Canada)
p402
sg65
I4926
sg66
I3311
sg32
VSun Feb 07 17:56:44 +0000 2010
p403
sg68
I00
sg69
VI am a #book #blogger turned #author and cover artist. Feel free to stop by my site to find out more about my #novel OWLET.
p404
sg71
Vhttps://pbs.twimg.com/profile_images/442148960526798848/7HDeAZOh_normal.jpeg
p405
sg73
I1775
sg74
I279
sg75
I-21600
sg76
Nsg77
I00
sg78
Vhttps://pbs.twimg.com/profile_banners/112223434/1410996071
p406
sg80
I00
sg81
I00
sg82
V93A644
p407
sg84
I00
sg85
I00
sg86
Vhttp://pbs.twimg.com/profile_background_images/573895463/ur0nj9k2f1qrl4d0f32n.jpeg
p408
sg88
VEmmaMichaels
p409
sg90
I168
sg91
VEmma Michaels
p410
sg93
VEFEFEF
p411
sg95
Vhttp://t.co/bKlLxEQbYH
p412
sg97
I112223434
sg98
VB2DFDA
p413
sbsg100
I0
sg101
V<a href="http://twitter.com" rel="nofollow">Twitter Web Client</a>
p414
sg103
(lp415
g3
(g105
g5
Ntp416
Rp417
(dp418
g109
Vhttps://t.co/3xXJqtKJwG
p419
sg111
Vhttps://www.tsu.co/EmmaMichaels
p420
sbasg97
I543547795383144448
sbag3
(g4
g5
Ntp421
Rp422
(dp423
g9
I0
sg10
Nsg11
Nsg12
(lp424
sg24
I00
sg25
Nsg26
Nsg27
(lp425
sg29
Nsg30
Nsg31
Nsg32
VFri Dec 12 23:27:00 +0000 2014
p426
sg34
Nsg35
Nsg36
VSamKetteman
p427
sg37
Nsg38
I482351671
sg39
Nsg40
I00
sg41
Nsg42
(lp428
g3
(g54
g5
Ntp429
Rp430
(dp431
g10
Nsg59
Nsg61
Nsg63
Nsg65
Nsg66
Nsg32
Nsg68
Nsg69
Nsg71
Nsg73
Nsg74
Nsg75
Nsg76
Nsg77
Nsg78
Nsg80
Nsg81
Nsg82
Nsg84
Nsg85
Nsg86
Nsg88
VSamKetteman
p432
sg90
Nsg91
VSam Ketteman
p433
sg93
Nsg95
Nsg97
I482351671
sg98
Nsbag3
(g54
g5
Ntp434
Rp435
(dp436
g10
Nsg59
Nsg61
Nsg63
Nsg65
Nsg66
Nsg32
Nsg68
Nsg69
Nsg71
Nsg73
Nsg74
Nsg75
Nsg76
Nsg77
Nsg78
Nsg80
Nsg81
Nsg82
Nsg84
Nsg85
Nsg86
Nsg88
VCathStovall
p437
sg90
Nsg91
VCatherine  Stovall
p438
sg93
Nsg95
Nsg97
I42338770
sg98
Nsbasg44
Nsg45
V543547598489927680
p439
sg47
I543535023480000512
sg48
V@SamKetteman @CathStovall As long as you don't break twitter next I think you're all good. :p
p440
sg50
I00
sg51
Ven
p441
sg53
g3
(g54
g5
Ntp442
Rp443
(dp444
g10
g58
sg59
V333333
p445
sg61
Ven
p446
sg63
VCentral Time (US & Canada)
p447
sg65
I4926
sg66
I3311
sg32
VSun Feb 07 17:56:44 +0000 2010
p448
sg68
I00
sg69
VI am a #book #blogger turned #author and cover artist. Feel free to stop by my site to find out more about my #novel OWLET.
p449
sg71
Vhttps://pbs.twimg.com/profile_images/442148960526798848/7HDeAZOh_normal.jpeg
p450
sg73
I1775
sg74
I279
sg75
I-21600
sg76
Nsg77
I00
sg78
Vhttps://pbs.twimg.com/profile_banners/112223434/1410996071
p451
sg80
I00
sg81
I00
sg82
V93A644
p452
sg84
I00
sg85
I00
sg86
Vhttp://pbs.twimg.com/profile_background_images/573895463/ur0nj9k2f1qrl4d0f32n.jpeg
p453
sg88
VEmmaMichaels
p454
sg90
I168
sg91
VEmma Michaels
p455
sg93
VEFEFEF
p456
sg95
Vhttp://t.co/bKlLxEQbYH
p457
sg97
I112223434
sg98
VB2DFDA
p458
sbsg100
I0
sg101
V<a href="http://twitter.com" rel="nofollow">Twitter Web Client</a>
p459
sg103
(lp460
sg97
I543547598489927680
sbag3
(g4
g5
Ntp461
Rp462
(dp463
g9
I1
sg10
Nsg11
Nsg12
(lp464
sg24
I00
sg25
Nsg26
Nsg27
(lp465
sg29
Nsg30
Nsg31
Nsg32
VFri Dec 12 19:30:34 +0000 2014
p466
sg34
Nsg35
I00
sg36
Nsg37
Nsg38
Nsg39
Nsg40
I00
sg41
Nsg42
(lp467
sg44
Nsg45
V543488096034365442
p468
sg47
Nsg48
VWith a new look, my 1st novella Right Click, Love is being re-released\u000a\u000aThank you for your support http://t.co/ExJ3tQH1vd
p469
sg50
I00
sg51
Ven
p470
sg53
g3
(g54
g5
Ntp471
Rp472
(dp473
g10
g58
sg59
V333333
p474
sg61
Ven
p475
sg63
VCentral Time (US & Canada)
p476
sg65
I4926
sg66
I3311
sg32
VSun Feb 07 17:56:44 +0000 2010
p477
sg68
I00
sg69
VI am a #book #blogger turned #author and cover artist. Feel free to stop by my site to find out more about my #novel OWLET.
p478
sg71
Vhttps://pbs.twimg.com/profile_images/442148960526798848/7HDeAZOh_normal.jpeg
p479
sg73
I1775
sg74
I279
sg75
I-21600
sg76
Nsg77
I00
sg78
Vhttps://pbs.twimg.com/profile_banners/112223434/1410996071
p480
sg80
I00
sg81
I00
sg82
V93A644
p481
sg84
I00
sg85
I00
sg86
Vhttp://pbs.twimg.com/profile_background_images/573895463/ur0nj9k2f1qrl4d0f32n.jpeg
p482
sg88
VEmmaMichaels
p483
sg90
I168
sg91
VEmma Michaels
p484
sg93
VEFEFEF
p485
sg95
Vhttp://t.co/bKlLxEQbYH
p486
sg97
I112223434
sg98
VB2DFDA
p487
sbsg100
I0
sg101
V<a href="https://www.thunderclap.it" rel="nofollow">Thunderclap</a>
p488
sg103
(lp489
g3
(g105
g5
Ntp490
Rp491
(dp492
g109
Vhttp://t.co/ExJ3tQH1vd
p493
sg111
Vhttp://thndr.it/1ueKmfn
p494
sbasg97
I543488096034365442
sbag3
(g4
g5
Ntp495
Rp496
(dp497
g9
I0
sg10
Nsg11
Nsg12
(lp498
sg24
I00
sg25
Nsg26
Nsg27
(lp499
sg29
Nsg30
Nsg31
Nsg32
VFri Dec 12 19:00:51 +0000 2014
p500
sg34
Nsg35
I00
sg36
Nsg37
Nsg38
Nsg39
Nsg40
I00
sg41
Nsg42
(lp501
sg44
Nsg45
V543480618089480192
p502
sg47
Nsg48
V"Drop the casket and bury me now." http://t.co/UPMVcpUZ5p
p503
sg50
I00
sg51
Ven
p504
sg53
g3
(g54
g5
Ntp505
Rp506
(dp507
g10
g58
sg59
V333333
p508
sg61
Ven
p509
sg63
VCentral Time (US & Canada)
p510
sg65
I4926
sg66
I3311
sg32
VSun Feb 07 17:56:44 +0000 2010
p511
sg68
I00
sg69
VI am a #book #blogger turned #author and cover artist. Feel free to stop by my site to find out more about my #novel OWLET.
p512
sg71
Vhttps://pbs.twimg.com/profile_images/442148960526798848/7HDeAZOh_normal.jpeg
p513
sg73
I1775
sg74
I279
sg75
I-21600
sg76
Nsg77
I00
sg78
Vhttps://pbs.twimg.com/profile_banners/112223434/1410996071
p514
sg80
I00
sg81
I00
sg82
V93A644
p515
sg84
I00
sg85
I00
sg86
Vhttp://pbs.twimg.com/profile_background_images/573895463/ur0nj9k2f1qrl4d0f32n.jpeg
p516
sg88
VEmmaMichaels
p517
sg90
I168
sg91
VEmma Michaels
p518
sg93
VEFEFEF
p519
sg95
Vhttp://t.co/bKlLxEQbYH
p520
sg97
I112223434
sg98
VB2DFDA
p521
sbsg100
I0
sg101
V<a href="https://www.thunderclap.it" rel="nofollow">Thunderclap</a>
p522
sg103
(lp523
g3
(g105
g5
Ntp524
Rp525
(dp526
g109
Vhttp://t.co/UPMVcpUZ5p
p527
sg111
Vhttp://thndr.it/1oZlKMb
p528
sbasg97
I543480618089480192
sbag3
(g4
g5
Ntp529
Rp530
(dp531
g9
I1
sg10
Nsg11
Nsg12
(lp532
sg24
I00
sg25
Nsg26
Nsg27
(lp533
sg29
Nsg30
Nsg31
Nsg32
VFri Dec 12 18:03:56 +0000 2014
p534
sg34
Nsg35
Nsg36
VC_L_McCollum
p535
sg37
Nsg38
I2770303615
sg39
Nsg40
I00
sg41
Nsg42
(lp536
g3
(g54
g5
Ntp537
Rp538
(dp539
g10
Nsg59
Nsg61
Nsg63
Nsg65
Nsg66
Nsg32
Nsg68
Nsg69
Nsg71
Nsg73
Nsg74
Nsg75
Nsg76
Nsg77
Nsg78
Nsg80
Nsg81
Nsg82
Nsg84
Nsg85
Nsg86
Nsg88
VC_L_McCollum
p540
sg90
Nsg91
VC.L. McCollum
p541
sg93
Nsg95
Nsg97
I2770303615
sg98
Nsbasg44
Nsg45
V543466294922588160
p542
sg47
I543463550803378176
sg48
V@C_L_McCollum You can do it!!!! *All the luck!*
p543
sg50
I00
sg51
Ven
p544
sg53
g3
(g54
g5
Ntp545
Rp546
(dp547
g10
g58
sg59
V333333
p548
sg61
Ven
p549
sg63
VCentral Time (US & Canada)
p550
sg65
I4926
sg66
I3311
sg32
VSun Feb 07 17:56:44 +0000 2010
p551
sg68
I00
sg69
VI am a #book #blogger turned #author and cover artist. Feel free to stop by my site to find out more about my #novel OWLET.
p552
sg71
Vhttps://pbs.twimg.com/profile_images/442148960526798848/7HDeAZOh_normal.jpeg
p553
sg73
I1775
sg74
I279
sg75
I-21600
sg76
Nsg77
I00
sg78
Vhttps://pbs.twimg.com/profile_banners/112223434/1410996071
p554
sg80
I00
sg81
I00
sg82
V93A644
p555
sg84
I00
sg85
I00
sg86
Vhttp://pbs.twimg.com/profile_background_images/573895463/ur0nj9k2f1qrl4d0f32n.jpeg
p556
sg88
VEmmaMichaels
p557
sg90
I168
sg91
VEmma Michaels
p558
sg93
VEFEFEF
p559
sg95
Vhttp://t.co/bKlLxEQbYH
p560
sg97
I112223434
sg98
VB2DFDA
p561
sbsg100
I1
sg101
V<a href="http://twitter.com" rel="nofollow">Twitter Web Client</a>
p562
sg103
(lp563
sg97
I543466294922588160
sbag3
(g4
g5
Ntp564
Rp565
(dp566
g9
I0
sg10
Nsg11
Nsg12
(lp567
g3
(g14
g5
Ntp568
Rp569
(dp570
g18
VIndieBooksBeSeen
p571
sbasg24
I00
sg25
Nsg26
Nsg27
(lp572
sg29
Nsg30
Nsg31
Nsg32
VFri Dec 12 17:00:52 +0000 2014
p573
sg34
Nsg35
I00
sg36
Nsg37
Nsg38
Nsg39
Nsg40
I00
sg41
Nsg42
(lp574
sg44
Nsg45
V543450425308217345
p575
sg47
Nsg48
VHO HO HO Santa put more books under the tree!\u000a70+ FAB Indie Books Prizes\u000a#IndieBooksBeSeen\u000a http://t.co/u7RE0l9QCO
p576
sg50
I00
sg51
Ven
p577
sg53
g3
(g54
g5
Ntp578
Rp579
(dp580
g10
g58
sg59
V333333
p581
sg61
Ven
p582
sg63
VCentral Time (US & Canada)
p583
sg65
I4926
sg66
I3311
sg32
VSun Feb 07 17:56:44 +0000 2010
p584
sg68
I00
sg69
VI am a #book #blogger turned #author and cover artist. Feel free to stop by my site to find out more about my #novel OWLET.
p585
sg71
Vhttps://pbs.twimg.com/profile_images/442148960526798848/7HDeAZOh_normal.jpeg
p586
sg73
I1775
sg74
I279
sg75
I-21600
sg76
Nsg77
I00
sg78
Vhttps://pbs.twimg.com/profile_banners/112223434/1410996071
p587
sg80
I00
sg81
I00
sg82
V93A644
p588
sg84
I00
sg85
I00
sg86
Vhttp://pbs.twimg.com/profile_background_images/573895463/ur0nj9k2f1qrl4d0f32n.jpeg
p589
sg88
VEmmaMichaels
p590
sg90
I168
sg91
VEmma Michaels
p591
sg93
VEFEFEF
p592
sg95
Vhttp://t.co/bKlLxEQbYH
p593
sg97
I112223434
sg98
VB2DFDA
p594
sbsg100
I2
sg101
V<a href="https://www.thunderclap.it" rel="nofollow">Thunderclap</a>
p595
sg103
(lp596
g3
(g105
g5
Ntp597
Rp598
(dp599
g109
Vhttp://t.co/u7RE0l9QCO
p600
sg111
Vhttp://thndr.it/1vFtq9i
p601
sbasg97
I543450425308217345
sbag3
(g4
g5
Ntp602
Rp603
(dp604
g9
I0
sg10
Nsg11
Nsg12
(lp605
g3
(g14
g5
Ntp606
Rp607
(dp608
g18
Vkindle
p609
sbag3
(g14
g5
Ntp610
Rp611
(dp612
g18
Vromance
p613
sbasg24
I00
sg25
Nsg26
Nsg27
(lp614
sg29
Nsg30
Nsg31
Nsg32
VFri Dec 12 17:00:48 +0000 2014
p615
sg34
Nsg35
I00
sg36
Nsg37
Nsg38
Nsg39
Nsg40
I00
sg41
Nsg42
(lp616
sg44
Nsg45
V543450407675379712
p617
sg47
Nsg48
VMAKING HER HIS is finally available on #kindle ! Grab a copy because this is one HOT #romance you don't want to miss! http://t.co/OwiXS1C4UC
p618
sg50
I00
sg51
Ven
p619
sg53
g3
(g54
g5
Ntp620
Rp621
(dp622
g10
g58
sg59
V333333
p623
sg61
Ven
p624
sg63
VCentral Time (US & Canada)
p625
sg65
I4926
sg66
I3311
sg32
VSun Feb 07 17:56:44 +0000 2010
p626
sg68
I00
sg69
VI am a #book #blogger turned #author and cover artist. Feel free to stop by my site to find out more about my #novel OWLET.
p627
sg71
Vhttps://pbs.twimg.com/profile_images/442148960526798848/7HDeAZOh_normal.jpeg
p628
sg73
I1775
sg74
I279
sg75
I-21600
sg76
Nsg77
I00
sg78
Vhttps://pbs.twimg.com/profile_banners/112223434/1410996071
p629
sg80
I00
sg81
I00
sg82
V93A644
p630
sg84
I00
sg85
I00
sg86
Vhttp://pbs.twimg.com/profile_background_images/573895463/ur0nj9k2f1qrl4d0f32n.jpeg
p631
sg88
VEmmaMichaels
p632
sg90
I168
sg91
VEmma Michaels
p633
sg93
VEFEFEF
p634
sg95
Vhttp://t.co/bKlLxEQbYH
p635
sg97
I112223434
sg98
VB2DFDA
p636
sbsg100
I0
sg101
V<a href="https://www.thunderclap.it" rel="nofollow">Thunderclap</a>
p637
sg103
(lp638
g3
(g105
g5
Ntp639
Rp640
(dp641
g109
Vhttp://t.co/OwiXS1C4UC
p642
sg111
Vhttp://thndr.it/1vCn1pe
p643
sbasg97
I543450407675379712
sbag3
(g4
g5
Ntp644
Rp645
(dp646
g9
I0
sg10
Nsg11
Nsg12
(lp647
sg24
I00
sg25
Nsg26
Nsg27
(lp648
sg29
Nsg30
Nsg31
Nsg32
VFri Dec 12 17:00:45 +0000 2014
p649
sg34
Nsg35
I00
sg36
Nsg37
Nsg38
Nsg39
Nsg40
I00
sg41
Nsg42
(lp650
sg44
Nsg45
V543450396271063040
p651
sg47
Nsg48
VVenom - The first novel in The Reawakening Series (Imprinted Souls Series spin-off) - is now available!  http://t.co/TGXzab4YTa
p652
sg50
I00
sg51
Ven
p653
sg53
g3
(g54
g5
Ntp654
Rp655
(dp656
g10
g58
sg59
V333333
p657
sg61
Ven
p658
sg63
VCentral Time (US & Canada)
p659
sg65
I4926
sg66
I3311
sg32
VSun Feb 07 17:56:44 +0000 2010
p660
sg68
I00
sg69
VI am a #book #blogger turned #author and cover artist. Feel free to stop by my site to find out more about my #novel OWLET.
p661
sg71
Vhttps://pbs.twimg.com/profile_images/442148960526798848/7HDeAZOh_normal.jpeg
p662
sg73
I1775
sg74
I279
sg75
I-21600
sg76
Nsg77
I00
sg78
Vhttps://pbs.twimg.com/profile_banners/112223434/1410996071
p663
sg80
I00
sg81
I00
sg82
V93A644
p664
sg84
I00
sg85
I00
sg86
Vhttp://pbs.twimg.com/profile_background_images/573895463/ur0nj9k2f1qrl4d0f32n.jpeg
p665
sg88
VEmmaMichaels
p666
sg90
I168
sg91
VEmma Michaels
p667
sg93
VEFEFEF
p668
sg95
Vhttp://t.co/bKlLxEQbYH
p669
sg97
I112223434
sg98
VB2DFDA
p670
sbsg100
I0
sg101
V<a href="https://www.thunderclap.it" rel="nofollow">Thunderclap</a>
p671
sg103
(lp672
g3
(g105
g5
Ntp673
Rp674
(dp675
g109
Vhttp://t.co/TGXzab4YTa
p676
sg111
Vhttp://thndr.it/1oLnd8F
p677
sbasg97
I543450396271063040
sbag3
(g4
g5
Ntp678
Rp679
(dp680
g9
I0
sg10
Nsg11
Nsg12
(lp681
g3
(g14
g5
Ntp682
Rp683
(dp684
g18
Vgiveaway
p685
sbasg24
I00
sg25
Nsg26
Nsg27
(lp686
sg29
Nsg30
Nsg31
Nsg32
VFri Dec 12 17:00:45 +0000 2014
p687
sg34
Nsg35
I00
sg36
Nsg37
Nsg38
Nsg39
Nsg40
I00
sg41
Nsg42
(lp688
sg44
Nsg45
V543450396115890176
p689
sg47
Nsg48
VWant to win an ebook? How about 28 of them? Winner Takes ALL! #giveaway http://t.co/kwKqMWF7R1
p690
sg50
I00
sg51
Ven
p691
sg53
g3
(g54
g5
Ntp692
Rp693
(dp694
g10
g58
sg59
V333333
p695
sg61
Ven
p696
sg63
VCentral Time (US & Canada)
p697
sg65
I4926
sg66
I3311
sg32
VSun Feb 07 17:56:44 +0000 2010
p698
sg68
I00
sg69
VI am a #book #blogger turned #author and cover artist. Feel free to stop by my site to find out more about my #novel OWLET.
p699
sg71
Vhttps://pbs.twimg.com/profile_images/442148960526798848/7HDeAZOh_normal.jpeg
p700
sg73
I1775
sg74
I279
sg75
I-21600
sg76
Nsg77
I00
sg78
Vhttps://pbs.twimg.com/profile_banners/112223434/1410996071
p701
sg80
I00
sg81
I00
sg82
V93A644
p702
sg84
I00
sg85
I00
sg86
Vhttp://pbs.twimg.com/profile_background_images/573895463/ur0nj9k2f1qrl4d0f32n.jpeg
p703
sg88
VEmmaMichaels
p704
sg90
I168
sg91
VEmma Michaels
p705
sg93
VEFEFEF
p706
sg95
Vhttp://t.co/bKlLxEQbYH
p707
sg97
I112223434
sg98
VB2DFDA
p708
sbsg100
I0
sg101
V<a href="https://www.thunderclap.it" rel="nofollow">Thunderclap</a>
p709
sg103
(lp710
g3
(g105
g5
Ntp711
Rp712
(dp713
g109
Vhttp://t.co/kwKqMWF7R1
p714
sg111
Vhttp://thndr.it/1EOg9Mg
p715
sbasg97
I543450396115890176
sbag3
(g4
g5
Ntp716
Rp717
(dp718
g9
I0
sg10
Nsg11
Nsg12
(lp719
sg24
I00
sg25
Nsg26
Nsg27
(lp720
sg29
Nsg30
Nsg31
Nsg32
VFri Dec 12 17:00:40 +0000 2014
p721
sg34
Nsg35
I00
sg36
Nsg37
Nsg38
Nsg39
Nsg40
I00
sg41
Nsg42
(lp722
sg44
Nsg45
V543450372095107072
p723
sg47
Nsg48
VTreat yourself for Christmas! Saving Cassie is FREE and Ragan's Song is $.99 for a limited time only!\u000a http://t.co/0Nrd37BdEp
p724
sg50
I00
sg51
Ven
p725
sg53
g3
(g54
g5
Ntp726
Rp727
(dp728
g10
g58
sg59
V333333
p729
sg61
Ven
p730
sg63
VCentral Time (US & Canada)
p731
sg65
I4926
sg66
I3311
sg32
VSun Feb 07 17:56:44 +0000 2010
p732
sg68
I00
sg69
VI am a #book #blogger turned #author and cover artist. Feel free to stop by my site to find out more about my #novel OWLET.
p733
sg71
Vhttps://pbs.twimg.com/profile_images/442148960526798848/7HDeAZOh_normal.jpeg
p734
sg73
I1775
sg74
I279
sg75
I-21600
sg76
Nsg77
I00
sg78
Vhttps://pbs.twimg.com/profile_banners/112223434/1410996071
p735
sg80
I00
sg81
I00
sg82
V93A644
p736
sg84
I00
sg85
I00
sg86
Vhttp://pbs.twimg.com/profile_background_images/573895463/ur0nj9k2f1qrl4d0f32n.jpeg
p737
sg88
VEmmaMichaels
p738
sg90
I168
sg91
VEmma Michaels
p739
sg93
VEFEFEF
p740
sg95
Vhttp://t.co/bKlLxEQbYH
p741
sg97
I112223434
sg98
VB2DFDA
p742
sbsg100
I0
sg101
V<a href="https://www.thunderclap.it" rel="nofollow">Thunderclap</a>
p743
sg103
(lp744
g3
(g105
g5
Ntp745
Rp746
(dp747
g109
Vhttp://t.co/0Nrd37BdEp
p748
sg111
Vhttp://thndr.it/1vtOPiB
p749
sbasg97
I543450372095107072
sbag3
(g4
g5
Ntp750
Rp751
(dp752
g9
I0
sg10
Nsg11
Nsg12
(lp753
sg24
I00
sg25
Nsg26
Nsg27
(lp754
sg29
Nsg30
Nsg31
Nsg32
VFri Dec 12 17:00:36 +0000 2014
p755
sg34
Nsg35
I00
sg36
Nsg37
Nsg38
Nsg39
Nsg40
I00
sg41
Nsg42
(lp756
sg44
Nsg45
V543450358723645440
p757
sg47
Nsg48
V"It only took one heartbeat to change my life." - White Raven. \u2605\u2605\u2605Coming soon from bestselling author JL Weil \u2605\u2605\u2605 http://t.co/0AKGhzzO8i
p758
sg50
I00
sg51
Ven
p759
sg53
g3
(g54
g5
Ntp760
Rp761
(dp762
g10
g58
sg59
V333333
p763
sg61
Ven
p764
sg63
VCentral Time (US & Canada)
p765
sg65
I4926
sg66
I3311
sg32
VSun Feb 07 17:56:44 +0000 2010
p766
sg68
I00
sg69
VI am a #book #blogger turned #author and cover artist. Feel free to stop by my site to find out more about my #novel OWLET.
p767
sg71
Vhttps://pbs.twimg.com/profile_images/442148960526798848/7HDeAZOh_normal.jpeg
p768
sg73
I1775
sg74
I279
sg75
I-21600
sg76
Nsg77
I00
sg78
Vhttps://pbs.twimg.com/profile_banners/112223434/1410996071
p769
sg80
I00
sg81
I00
sg82
V93A644
p770
sg84
I00
sg85
I00
sg86
Vhttp://pbs.twimg.com/profile_background_images/573895463/ur0nj9k2f1qrl4d0f32n.jpeg
p771
sg88
VEmmaMichaels
p772
sg90
I168
sg91
VEmma Michaels
p773
sg93
VEFEFEF
p774
sg95
Vhttp://t.co/bKlLxEQbYH
p775
sg97
I112223434
sg98
VB2DFDA
p776
sbsg100
I0
sg101
V<a href="https://www.thunderclap.it" rel="nofollow">Thunderclap</a>
p777
sg103
(lp778
g3
(g105
g5
Ntp779
Rp780
(dp781
g109
Vhttp://t.co/0AKGhzzO8i
p782
sg111
Vhttp://thndr.it/1190993
p783
sbasg97
I543450358723645440
sbag3
(g4
g5
Ntp784
Rp785
(dp786
g9
I0
sg10
Nsg11
Nsg12
(lp787
g3
(g14
g5
Ntp788
Rp789
(dp790
g18
VTheChristmasNightsCollection
p791
sbasg24
I00
sg25
Nsg26
Nsg27
(lp792
sg29
Nsg30
Nsg31
Nsg32
VFri Dec 12 17:00:26 +0000 2014
p793
sg34
Nsg35
I00
sg36
Nsg37
Nsg38
Nsg39
Nsg40
I00
sg41
Nsg42
(lp794
sg44
Nsg45
V543450315341983745
p795
sg47
Nsg48
V10 great authors, 10 great holiday books #TheChristmasNightsCollection http://t.co/cmtuWAQ5UY http://t.co/ARj6PVogXI
p796
sg50
I00
sg51
Ven
p797
sg53
g3
(g54
g5
Ntp798
Rp799
(dp800
g10
g58
sg59
V333333
p801
sg61
Ven
p802
sg63
VCentral Time (US & Canada)
p803
sg65
I4926
sg66
I3311
sg32
VSun Feb 07 17:56:44 +0000 2010
p804
sg68
I00
sg69
VI am a #book #blogger turned #author and cover artist. Feel free to stop by my site to find out more about my #novel OWLET.
p805
sg71
Vhttps://pbs.twimg.com/profile_images/442148960526798848/7HDeAZOh_normal.jpeg
p806
sg73
I1775
sg74
I279
sg75
I-21600
sg76
Nsg77
I00
sg78
Vhttps://pbs.twimg.com/profile_banners/112223434/1410996071
p807
sg80
I00
sg81
I00
sg82
V93A644
p808
sg84
I00
sg85
I00
sg86
Vhttp://pbs.twimg.com/profile_background_images/573895463/ur0nj9k2f1qrl4d0f32n.jpeg
p809
sg88
VEmmaMichaels
p810
sg90
I168
sg91
VEmma Michaels
p811
sg93
VEFEFEF
p812
sg95
Vhttp://t.co/bKlLxEQbYH
p813
sg97
I112223434
sg98
VB2DFDA
p814
sbsg100
I0
sg101
V<a href="https://www.thunderclap.it" rel="nofollow">Thunderclap</a>
p815
sg103
(lp816
g3
(g105
g5
Ntp817
Rp818
(dp819
g109
Vhttp://t.co/cmtuWAQ5UY
p820
sg111
Vhttp://yvettehines.com/the-christmas-nights-collection/
p821
sbag3
(g105
g5
Ntp822
Rp823
(dp824
g109
Vhttp://t.co/ARj6PVogXI
p825
sg111
Vhttp://thndr.it/1to90Kr
p826
sbasg97
I543450315341983745
sbaa.