(lp0
S'ichibaya73'
p1
a(lp2
ccopy_reg
_reconstructor
p3
(ctwitter.status
Status
p4
c__builtin__
object
p5
Ntp6
Rp7
(dp8
S'_favorite_count'
p9
I0
sS'_location'
p10
NsS'_withheld_scope'
p11
NsS'hashtags'
p12
(lp13
sS'_truncated'
p14
I00
sS'_retweeted_status'
p15
g3
(g4
g5
Ntp16
Rp17
(dp18
g9
I93
sg10
Nsg11
Nsg12
(lp19
sg14
I00
sg15
NsS'_withheld_copyright'
p20
NsS'media'
p21
(lp22
(dp23
Vexpanded_url
p24
Vhttp://twitter.com/thinkdeepidea/status/542284269578510336/photo/1
p25
sVdisplay_url
p26
Vpic.twitter.com/ZnUASTTCVc
p27
sVurl
p28
Vhttp://t.co/ZnUASTTCVc
p29
sVmedia_url_https
p30
Vhttps://pbs.twimg.com/media/B4aUpy-CMAAzurA.jpg
p31
sVid_str
p32
V542284250922233856
p33
sVsizes
p34
(dp35
Vsmall
p36
(dp37
Vh
p38
I213
sVresize
p39
Vfit
p40
sVw
p41
I340
ssVlarge
p42
(dp43
Vh
p44
I376
sVresize
p45
Vfit
p46
sVw
p47
I600
ssVmedium
p48
(dp49
Vh
p50
I376
sVresize
p51
Vfit
p52
sVw
p53
I600
ssVthumb
p54
(dp55
Vh
p56
I150
sVresize
p57
Vcrop
p58
sVw
p59
I150
sssVindices
p60
(lp61
I135
aI157
asVtype
p62
Vphoto
p63
sVid
p64
I542284250922233856
sVmedia_url
p65
Vhttp://pbs.twimg.com/media/B4aUpy-CMAAzurA.jpg
p66
sasS'_place'
p67
NsS'_contributors'
p68
NsS'_current_user_retweet'
p69
NsS'_created_at'
p70
VTue Dec 09 11:46:59 +0000 2014
p71
sS'_scopes'
p72
NsS'_possibly_sensitive'
p73
I00
sS'_in_reply_to_screen_name'
p74
NsS'_coordinates'
p75
NsS'_in_reply_to_user_id'
p76
NsS'_geo'
p77
NsS'_favorited'
p78
I00
sS'_withheld_in_countries'
p79
NsS'user_mentions'
p80
(lp81
sS'_now'
p82
NsS'_id_str'
p83
NsS'_in_reply_to_status_id'
p84
NsS'_text'
p85
VThis 80 Year Old Man Has Not Taken A Bath In 60 Years. Just Wait Til You See click here&gt;&gt;&gt;&gt;&gt;&gt; http://t.co/rNqar0ieD0 http://t.co/ZnUASTTCVc
p86
sS'_retweeted'
p87
I00
sS'lang'
p88
Ven
p89
sS'_user'
p90
g3
(ctwitter.user
User
p91
g5
Ntp92
Rp93
(dp94
g10
Vcouple of hours
p95
sS'_profile_text_color'
p96
V333333
p97
sS'_lang'
p98
Ven
p99
sS'_time_zone'
p100
VNew Delhi
p101
sS'_followers_count'
p102
I29723
sS'_statuses_count'
p103
I8350
sg70
VWed Sep 10 17:52:58 +0000 2014
p104
sS'_verified'
p105
I00
sS'_description'
p106
Vshare your fab ideas with us to make it as worldwide....@TWITEER
p107
sS'_profile_image_url'
p108
Vhttps://pbs.twimg.com/profile_images/520266847761887232/gW1oydBs_normal.jpeg
p109
sS'_friends_count'
p110
I29679
sS'_favourites_count'
p111
I4990
sS'_utc_offset'
p112
I19800
sS'_status'
p113
NsS'_protected'
p114
I00
sS'_profile_banner_url'
p115
Vhttps://pbs.twimg.com/profile_banners/2802160836/1415873424
p116
sS'_notifications'
p117
I00
sS'_profile_background_tile'
p118
I00
sS'_profile_link_color'
p119
V0084B4
p120
sS'_geo_enabled'
p121
I00
sS'_contributors_enabled'
p122
I00
sS'_profile_background_image_url'
p123
Vhttp://abs.twimg.com/images/themes/theme1/bg.png
p124
sS'_screen_name'
p125
Vthinkdeepidea
p126
sS'_listed_count'
p127
I41
sS'_name'
p128
VNEW IDEA
p129
sS'_profile_sidebar_fill_color'
p130
VDDEEF6
p131
sS'_url'
p132
NsS'_id'
p133
I2802160836
sS'_profile_background_color'
p134
VC0DEED
p135
sbsS'_retweet_count'
p136
I74
sS'_source'
p137
V<a href="http://twitter.com/download/android" rel="nofollow">Twitter for Android</a>
p138
sS'urls'
p139
(lp140
g3
(ctwitter.url
Url
p141
g5
Ntp142
Rp143
(dp144
S'url'
p145
Vhttp://t.co/rNqar0ieD0
p146
sS'expanded_url'
p147
Vhttp://bit.ly/1z25cnY
p148
sbasg133
I542284269578510336
sbsg20
Nsg21
(lp149
(dp150
Vsource_user_id
p151
I2802160836
sVsource_status_id_str
p152
V542284269578510336
p153
sVexpanded_url
p154
Vhttp://twitter.com/thinkdeepidea/status/542284269578510336/photo/1
p155
sVdisplay_url
p156
Vpic.twitter.com/ZnUASTTCVc
p157
sVurl
p158
Vhttp://t.co/ZnUASTTCVc
p159
sVmedia_url_https
p160
Vhttps://pbs.twimg.com/media/B4aUpy-CMAAzurA.jpg
p161
sVsource_user_id_str
p162
V2802160836
p163
sVsource_status_id
p164
I542284269578510336
sVid_str
p165
V542284250922233856
p166
sVsizes
p167
(dp168
Vsmall
p169
(dp170
Vh
p171
I213
sVresize
p172
Vfit
p173
sVw
p174
I340
ssVlarge
p175
(dp176
Vh
p177
I376
sVresize
p178
Vfit
p179
sVw
p180
I600
ssVmedium
p181
(dp182
Vh
p183
I376
sVresize
p184
Vfit
p185
sVw
p186
I600
ssVthumb
p187
(dp188
Vh
p189
I150
sVresize
p190
Vcrop
p191
sVw
p192
I150
sssVindices
p193
(lp194
I157
aI158
asVtype
p195
Vphoto
p196
sVid
p197
I542284250922233856
sVmedia_url
p198
Vhttp://pbs.twimg.com/media/B4aUpy-CMAAzurA.jpg
p199
sasg67
Nsg68
Nsg69
Nsg70
VWed Dec 10 16:22:00 +0000 2014
p200
sg72
Nsg73
I00
sg74
Nsg75
Nsg76
Nsg77
Nsg78
I00
sg79
Nsg80
(lp201
g3
(g91
g5
Ntp202
Rp203
(dp204
g10
Nsg96
Nsg98
Nsg100
Nsg102
Nsg103
Nsg70
Nsg105
Nsg106
Nsg108
Nsg110
Nsg111
Nsg112
Nsg113
Nsg114
Nsg115
Nsg117
Nsg118
Nsg119
Nsg121
Nsg122
Nsg123
Nsg125
Vthinkdeepidea
p205
sg127
Nsg128
VNEW IDEA
p206
sg130
Nsg132
Nsg133
I2802160836
sg134
Nsbasg82
Nsg83
Nsg84
Nsg85
VRT @thinkdeepidea: This 80 Year Old Man Has Not Taken A Bath In 60 Years. Just Wait Til You See click here&gt;&gt;&gt;&gt;&gt;&gt; http://t.co/rNqar0ieD0 htt\u2026
p207
sg87
I00
sg88
Ven
p208
sg90
g3
(g91
g5
Ntp209
Rp210
(dp211
g10
V
p212
sg96
V333333
p213
sg98
Ven
p214
sg100
Nsg102
I105
sg103
I11
sg70
VWed Oct 29 11:41:37 +0000 2014
p215
sg105
I00
sg106
g212
sg108
Vhttps://pbs.twimg.com/profile_images/527425183846379520/Hv1e5Rfd_normal.jpeg
p216
sg110
I309
sg111
I0
sg112
Nsg113
Nsg114
I00
sg115
Nsg117
I00
sg118
I00
sg119
V0084B4
p217
sg121
I00
sg122
I00
sg123
Vhttp://abs.twimg.com/images/themes/theme1/bg.png
p218
sg125
Vichibaya73
p219
sg127
I0
sg128
Vjnrjustice Chibs
p220
sg130
VDDEEF6
p221
sg132
Nsg133
I2881974738
sg134
VC0DEED
p222
sbsg136
I74
sg137
V<a href="http://twitter.com/download/android" rel="nofollow">Twitter for Android</a>
p223
sg139
(lp224
g3
(g141
g5
Ntp225
Rp226
(dp227
g145
Vhttp://t.co/rNqar0ieD0
p228
sg147
Vhttp://bit.ly/1z25cnY
p229
sbasg133
I542715868593934336
sbag3
(g4
g5
Ntp230
Rp231
(dp232
g9
I0
sg10
Nsg11
Nsg12
(lp233
sg14
I00
sg15
Nsg20
Nsg21
(lp234
sg67
Nsg68
Nsg69
Nsg70
VSun Dec 07 20:56:27 +0000 2014
p235
sg72
Nsg73
Nsg74
Nsg75
Nsg76
Nsg77
Nsg78
I00
sg79
Nsg80
(lp236
sg82
Nsg83
Nsg84
Nsg85
VWhat matters most is how much bad u are willing to do in the name of right...
p237
sg87
I00
sg88
Ven
p238
sg90
g3
(g91
g5
Ntp239
Rp240
(dp241
g10
g212
sg96
V333333
p242
sg98
Ven
p243
sg100
Nsg102
I105
sg103
I11
sg70
VWed Oct 29 11:41:37 +0000 2014
p244
sg105
I00
sg106
g212
sg108
Vhttps://pbs.twimg.com/profile_images/527425183846379520/Hv1e5Rfd_normal.jpeg
p245
sg110
I309
sg111
I0
sg112
Nsg113
Nsg114
I00
sg115
Nsg117
I00
sg118
I00
sg119
V0084B4
p246
sg121
I00
sg122
I00
sg123
Vhttp://abs.twimg.com/images/themes/theme1/bg.png
p247
sg125
Vichibaya73
p248
sg127
I0
sg128
Vjnrjustice Chibs
p249
sg130
VDDEEF6
p250
sg132
Nsg133
I2881974738
sg134
VC0DEED
p251
sbsg136
I0
sg137
V<a href="http://twitter.com/download/android" rel="nofollow">Twitter for Android</a>
p252
sg139
(lp253
sg133
I541697770554269696
sbag3
(g4
g5
Ntp254
Rp255
(dp256
g9
I0
sg10
Nsg11
Nsg12
(lp257
sg14
I00
sg15
g3
(g4
g5
Ntp258
Rp259
(dp260
g9
I0
sg10
Nsg11
Nsg12
(lp261
sg14
I00
sg15
Nsg20
Nsg21
(lp262
sg67
(dp263
Vfull_name
p264
VBendosari, Sukoharjo
p265
sVurl
p266
Vhttps://api.twitter.com/1.1/geo/id/e6368656ba2e334c.json
p267
sVcountry
p268
VIndonesia
p269
sVplace_type
p270
Vcity
p271
sVbounding_box
p272
(dp273
Vtype
p274
VPolygon
p275
sVcoordinates
p276
(lp277
(lp278
(lp279
F110.829381
aF-7.747268
aa(lp280
F110.95391
aF-7.747268
aa(lp281
F110.95391
aF-7.63958
aa(lp282
F110.829381
aF-7.63958
aaassVcontained_within
p283
(lp284
sVcountry_code
p285
VID
p286
sVattributes
p287
(dp288
sVid
p289
Ve6368656ba2e334c
p290
sVname
p291
VBendosari
p292
ssg68
Nsg69
Nsg70
VThu Jul 10 09:21:56 +0000 2014
p293
sg72
Nsg73
Nsg74
Nsg75
(dp294
Vtype
p295
VPoint
p296
sVcoordinates
p297
(lp298
F110.8564993
aF-7.6854317
assg76
Nsg77
(dp299
Vtype
p300
VPoint
p301
sVcoordinates
p302
(lp303
F-7.6854317
aF110.8564993
assg78
I00
sg79
Nsg80
(lp304
sg82
Nsg83
Nsg84
Nsg85
VYou're what you follow ( in twitter )
p305
sg87
I00
sg88
Ven
p306
sg90
g3
(g91
g5
Ntp307
Rp308
(dp309
g10
VMadinah
p310
sg96
V827972
p311
sg98
Ven
p312
sg100
VJakarta
p313
sg102
I288
sg103
I2349
sg70
VWed Feb 29 06:58:13 +0000 2012
p314
sg105
I00
sg106
Vadalah Sobri Muhammad, I N D O N E S I A N | Islamic University of Madinah | Penikmat senja | - \u0627\u0644\u0631\u0627\u062d\u0629 \u0641\u064a \u0627\u0644\u062c\u0646\u0629 -
p315
sg108
Vhttps://pbs.twimg.com/profile_images/537358873242238977/f83VjgU7_normal.jpeg
p316
sg110
I271
sg111
I299
sg112
I25200
sg113
Nsg114
I00
sg115
Vhttps://pbs.twimg.com/profile_banners/508498910/1417113775
p317
sg117
I00
sg118
I00
sg119
V52555C
p318
sg121
I01
sg122
I00
sg123
Vhttp://pbs.twimg.com/profile_background_images/378800000117392745/d5b892af209e212de112792342b7137c.jpeg
p319
sg125
Vmesobri
p320
sg127
I1
sg128
Vsob
p321
sg130
V061127
p322
sg132
Nsg133
I508498910
sg134
V59472F
p323
sbsg136
I1
sg137
V<a href="http://www.tweetcaster.com" rel="nofollow">TweetCaster for Android</a>
p324
sg139
(lp325
sg133
I487164811331899394
sbsg20
Nsg21
(lp326
sg67
Nsg68
Nsg69
Nsg70
VTue Dec 02 08:48:13 +0000 2014
p327
sg72
Nsg73
Nsg74
Nsg75
Nsg76
Nsg77
Nsg78
I00
sg79
Nsg80
(lp328
g3
(g91
g5
Ntp329
Rp330
(dp331
g10
Nsg96
Nsg98
Nsg100
Nsg102
Nsg103
Nsg70
Nsg105
Nsg106
Nsg108
Nsg110
Nsg111
Nsg112
Nsg113
Nsg114
Nsg115
Nsg117
Nsg118
Nsg119
Nsg121
Nsg122
Nsg123
Nsg125
Vmesobri
p332
sg127
Nsg128
Vsob
p333
sg130
Nsg132
Nsg133
I508498910
sg134
Nsbasg82
Nsg83
Nsg84
Nsg85
VRT @mesobri: You're what you follow ( in twitter )
p334
sg87
I00
sg88
Ven
p335
sg90
g3
(g91
g5
Ntp336
Rp337
(dp338
g10
g212
sg96
V333333
p339
sg98
Ven
p340
sg100
Nsg102
I105
sg103
I11
sg70
VWed Oct 29 11:41:37 +0000 2014
p341
sg105
I00
sg106
g212
sg108
Vhttps://pbs.twimg.com/profile_images/527425183846379520/Hv1e5Rfd_normal.jpeg
p342
sg110
I309
sg111
I0
sg112
Nsg113
Nsg114
I00
sg115
Nsg117
I00
sg118
I00
sg119
V0084B4
p343
sg121
I00
sg122
I00
sg123
Vhttp://abs.twimg.com/images/themes/theme1/bg.png
p344
sg125
Vichibaya73
p345
sg127
I0
sg128
Vjnrjustice Chibs
p346
sg130
VDDEEF6
p347
sg132
Nsg133
I2881974738
sg134
VC0DEED
p348
sbsg136
I1
sg137
V<a href="http://twitter.com/download/android" rel="nofollow">Twitter for Android</a>
p349
sg139
(lp350
sg133
I539702565835796480
sbag3
(g4
g5
Ntp351
Rp352
(dp353
g9
I0
sg10
Nsg11
Nsg12
(lp354
sg14
I00
sg15
Nsg20
Nsg21
(lp355
sg67
Nsg68
Nsg69
Nsg70
VTue Dec 02 08:40:50 +0000 2014
p356
sg72
Nsg73
Nsg74
Nsg75
Nsg76
Nsg77
Nsg78
I00
sg79
Nsg80
(lp357
g3
(g91
g5
Ntp358
Rp359
(dp360
g10
Nsg96
Nsg98
Nsg100
Nsg102
Nsg103
Nsg70
Nsg105
Nsg106
Nsg108
Nsg110
Nsg111
Nsg112
Nsg113
Nsg114
Nsg115
Nsg117
Nsg118
Nsg119
Nsg121
Nsg122
Nsg123
Nsg125
Vfacebook
p361
sg127
Nsg128
VFacebook
p362
sg130
Nsg132
Nsg133
I2425151
sg134
Nsbag3
(g91
g5
Ntp363
Rp364
(dp365
g10
Nsg96
Nsg98
Nsg100
Nsg102
Nsg103
Nsg70
Nsg105
Nsg106
Nsg108
Nsg110
Nsg111
Nsg112
Nsg113
Nsg114
Nsg115
Nsg117
Nsg118
Nsg119
Nsg121
Nsg122
Nsg123
Nsg125
VWhatsApp
p366
sg127
Nsg128
VWhatsApp Inc.
p367
sg130
Nsg132
Nsg133
I40148479
sg134
Nsbag3
(g91
g5
Ntp368
Rp369
(dp370
g10
Nsg96
Nsg98
Nsg100
Nsg102
Nsg103
Nsg70
Nsg105
Nsg106
Nsg108
Nsg110
Nsg111
Nsg112
Nsg113
Nsg114
Nsg115
Nsg117
Nsg118
Nsg119
Nsg121
Nsg122
Nsg123
Nsg125
Vgoogle
p371
sg127
Nsg128
VGoogle
p372
sg130
Nsg132
Nsg133
I20536157
sg134
Nsbag3
(g91
g5
Ntp373
Rp374
(dp375
g10
Nsg96
Nsg98
Nsg100
Nsg102
Nsg103
Nsg70
Nsg105
Nsg106
Nsg108
Nsg110
Nsg111
Nsg112
Nsg113
Nsg114
Nsg115
Nsg117
Nsg118
Nsg119
Nsg121
Nsg122
Nsg123
Nsg125
VLinkedIn
p376
sg127
Nsg128
VLinkedIn
p377
sg130
Nsg132
Nsg133
I13058772
sg134
Nsbag3
(g91
g5
Ntp378
Rp379
(dp380
g10
Nsg96
Nsg98
Nsg100
Nsg102
Nsg103
Nsg70
Nsg105
Nsg106
Nsg108
Nsg110
Nsg111
Nsg112
Nsg113
Nsg114
Nsg115
Nsg117
Nsg118
Nsg119
Nsg121
Nsg122
Nsg123
Nsg125
Vtwitter
p381
sg127
Nsg128
VTwitter
p382
sg130
Nsg132
Nsg133
I783214
sg134
Nsbasg82
Nsg83
Nsg84
Nsg85
VWorld population: \u000a\u000a1 @Facebook \u000a2 China\u000a3 India\u000a4 Tencent\u000a5 @WhatsApp\u000a6 United States\u000a7 @Google +\u000a8 @LinkedIn\u000a9 @Twitter \u000a10 Indonesia"
p383
sg87
I00
sg88
Ven
p384
sg90
g3
(g91
g5
Ntp385
Rp386
(dp387
g10
g212
sg96
V333333
p388
sg98
Ven
p389
sg100
Nsg102
I105
sg103
I11
sg70
VWed Oct 29 11:41:37 +0000 2014
p390
sg105
I00
sg106
g212
sg108
Vhttps://pbs.twimg.com/profile_images/527425183846379520/Hv1e5Rfd_normal.jpeg
p391
sg110
I309
sg111
I0
sg112
Nsg113
Nsg114
I00
sg115
Nsg117
I00
sg118
I00
sg119
V0084B4
p392
sg121
I00
sg122
I00
sg123
Vhttp://abs.twimg.com/images/themes/theme1/bg.png
p393
sg125
Vichibaya73
p394
sg127
I0
sg128
Vjnrjustice Chibs
p395
sg130
VDDEEF6
p396
sg132
Nsg133
I2881974738
sg134
VC0DEED
p397
sbsg136
I0
sg137
V<a href="http://twitter.com/download/android" rel="nofollow">Twitter for Android</a>
p398
sg139
(lp399
sg133
I539700705997504512
sbag3
(g4
g5
Ntp400
Rp401
(dp402
g9
I0
sg10
Nsg11
Nsg12
(lp403
g3
(ctwitter.hashtag
Hashtag
p404
g5
Ntp405
Rp406
(dp407
S'text'
p408
VDeceptionSOS
p409
sbasg14
I00
sg15
g3
(g4
g5
Ntp410
Rp411
(dp412
g9
I76
sg10
Nsg11
Nsg12
(lp413
g3
(g404
g5
Ntp414
Rp415
(dp416
g408
VDeceptionSOS
p417
sbasg14
I00
sg15
Nsg20
Nsg21
(lp418
sg67
Nsg68
Nsg69
Nsg70
VFri Nov 07 19:24:59 +0000 2014
p419
sg72
Nsg73
Nsg74
Nsg75
Nsg76
Nsg77
Nsg78
I00
sg79
Nsg80
(lp420
sg82
Nsg83
Nsg84
Nsg85
VDon't be Shaytan's enemy in public and his best friend in secret. #DeceptionSOS
p421
sg87
I00
sg88
Ven
p422
sg90
g3
(g91
g5
Ntp423
Rp424
(dp425
g10
VDC Metro, USA 
p426
sg96
VF7951D
p427
sg98
Ven
p428
sg100
VRiyadh
p429
sg102
I20388
sg103
I4042
sg70
VSat Jan 02 18:57:47 +0000 2010
p430
sg105
I00
sg106
VOfficial twitter account of Saad Tasleem. For speaking requests please contact: bookings.saadtasleem@gmail.com
p431
sg108
Vhttps://pbs.twimg.com/profile_images/2980228142/559c581c11539b8a7c63e8b150d97767_normal.jpeg
p432
sg110
I59
sg111
I23
sg112
I10800
sg113
Nsg114
I00
sg115
Vhttps://pbs.twimg.com/profile_banners/101288547/1359286333
p433
sg117
I00
sg118
I00
sg119
V454545
p434
sg121
I01
sg122
I00
sg123
Vhttp://pbs.twimg.com/profile_background_images/385295760/Background.jpg
p435
sg125
VSaadTasleem
p436
sg127
I128
sg128
VSaad Tasleem
p437
sg130
V252429
p438
sg132
Vhttp://t.co/ARMGmNxrnI
p439
sg133
I101288547
sg134
V000105
p440
sbsg136
I57
sg137
V<a href="http://twitter.com/download/iphone" rel="nofollow">Twitter for iPhone</a>
p441
sg139
(lp442
sg133
I530803114870575104
sbsg20
Nsg21
(lp443
sg67
Nsg68
Nsg69
Nsg70
VTue Dec 02 08:38:54 +0000 2014
p444
sg72
Nsg73
Nsg74
Nsg75
Nsg76
Nsg77
Nsg78
I00
sg79
Nsg80
(lp445
g3
(g91
g5
Ntp446
Rp447
(dp448
g10
Nsg96
Nsg98
Nsg100
Nsg102
Nsg103
Nsg70
Nsg105
Nsg106
Nsg108
Nsg110
Nsg111
Nsg112
Nsg113
Nsg114
Nsg115
Nsg117
Nsg118
Nsg119
Nsg121
Nsg122
Nsg123
Nsg125
VSaadTasleem
p449
sg127
Nsg128
VSaad Tasleem
p450
sg130
Nsg132
Nsg133
I101288547
sg134
Nsbasg82
Nsg83
Nsg84
Nsg85
VRT @SaadTasleem: Don't be Shaytan's enemy in public and his best friend in secret. #DeceptionSOS
p451
sg87
I00
sg88
Ven
p452
sg90
g3
(g91
g5
Ntp453
Rp454
(dp455
g10
g212
sg96
V333333
p456
sg98
Ven
p457
sg100
Nsg102
I105
sg103
I11
sg70
VWed Oct 29 11:41:37 +0000 2014
p458
sg105
I00
sg106
g212
sg108
Vhttps://pbs.twimg.com/profile_images/527425183846379520/Hv1e5Rfd_normal.jpeg
p459
sg110
I309
sg111
I0
sg112
Nsg113
Nsg114
I00
sg115
Nsg117
I00
sg118
I00
sg119
V0084B4
p460
sg121
I00
sg122
I00
sg123
Vhttp://abs.twimg.com/images/themes/theme1/bg.png
p461
sg125
Vichibaya73
p462
sg127
I0
sg128
Vjnrjustice Chibs
p463
sg130
VDDEEF6
p464
sg132
Nsg133
I2881974738
sg134
VC0DEED
p465
sbsg136
I57
sg137
V<a href="http://twitter.com/download/android" rel="nofollow">Twitter for Android</a>
p466
sg139
(lp467
sg133
I539700221177896960
sbag3
(g4
g5
Ntp468
Rp469
(dp470
g9
I1
sg10
Nsg11
Nsg12
(lp471
sg14
I00
sg15
Nsg20
Nsg21
(lp472
(dp473
Vexpanded_url
p474
Vhttp://twitter.com/ichibaya73/status/539332769021562880/photo/1
p475
sVdisplay_url
p476
Vpic.twitter.com/RaUnSZwFmJ
p477
sVurl
p478
Vhttp://t.co/RaUnSZwFmJ
p479
sVmedia_url_https
p480
Vhttps://pbs.twimg.com/media/B3wYS0vCAAIuJJ6.jpg
p481
sVid_str
p482
V539332767050235906
p483
sVsizes
p484
(dp485
Vlarge
p486
(dp487
Vh
p488
I356
sVresize
p489
Vfit
p490
sVw
p491
I500
ssVsmall
p492
(dp493
Vh
p494
I242
sVresize
p495
Vfit
p496
sVw
p497
I340
ssVmedium
p498
(dp499
Vh
p500
I356
sVresize
p501
Vfit
p502
sVw
p503
I500
ssVthumb
p504
(dp505
Vh
p506
I150
sVresize
p507
Vcrop
p508
sVw
p509
I150
sssVindices
p510
(lp511
I8
aI30
asVtype
p512
Vphoto
p513
sVid
p514
I539332767050235906
sVmedia_url
p515
Vhttp://pbs.twimg.com/media/B3wYS0vCAAIuJJ6.jpg
p516
sasg67
Nsg68
Nsg69
Nsg70
VMon Dec 01 08:18:47 +0000 2014
p517
sg72
Nsg73
I00
sg74
Vaisrep
p518
sg75
Nsg76
I22732680
sg77
Nsg78
I00
sg79
Nsg80
(lp519
g3
(g91
g5
Ntp520
Rp521
(dp522
g10
Nsg96
Nsg98
Nsg100
Nsg102
Nsg103
Nsg70
Nsg105
Nsg106
Nsg108
Nsg110
Nsg111
Nsg112
Nsg113
Nsg114
Nsg115
Nsg117
Nsg118
Nsg119
Nsg121
Nsg122
Nsg123
Nsg125
Vaisrep
p523
sg127
Nsg128
VRad
p524
sg130
Nsg132
Nsg133
I22732680
sg134
Nsbasg82
Nsg83
Nsg84
Nsg85
V@aisrep http://t.co/RaUnSZwFmJ
p525
sg87
I00
sg88
Vund
p526
sg90
g3
(g91
g5
Ntp527
Rp528
(dp529
g10
g212
sg96
V333333
p530
sg98
Ven
p531
sg100
Nsg102
I105
sg103
I11
sg70
VWed Oct 29 11:41:37 +0000 2014
p532
sg105
I00
sg106
g212
sg108
Vhttps://pbs.twimg.com/profile_images/527425183846379520/Hv1e5Rfd_normal.jpeg
p533
sg110
I309
sg111
I0
sg112
Nsg113
Nsg114
I00
sg115
Nsg117
I00
sg118
I00
sg119
V0084B4
p534
sg121
I00
sg122
I00
sg123
Vhttp://abs.twimg.com/images/themes/theme1/bg.png
p535
sg125
Vichibaya73
p536
sg127
I0
sg128
Vjnrjustice Chibs
p537
sg130
VDDEEF6
p538
sg132
Nsg133
I2881974738
sg134
VC0DEED
p539
sbsg136
I0
sg137
V<a href="http://twitter.com/download/android" rel="nofollow">Twitter for Android</a>
p540
sg139
(lp541
sg133
I539332769021562880
sbag3
(g4
g5
Ntp542
Rp543
(dp544
g9
I0
sg10
Nsg11
Nsg12
(lp545
sg14
I00
sg15
Nsg20
Nsg21
(lp546
sg67
Nsg68
Nsg69
Nsg70
VFri Nov 14 08:14:04 +0000 2014
p547
sg72
Nsg73
I00
sg74
Nsg75
Nsg76
Nsg77
Nsg78
I00
sg79
Nsg80
(lp548
sg82
Nsg83
Nsg84
Nsg85
VHOW SMALL MISTAKES CAN COST IN LIFE\u000ahttps://t.co/vT0erhcGJ8
p549
sg87
I00
sg88
Ven
p550
sg90
g3
(g91
g5
Ntp551
Rp552
(dp553
g10
g212
sg96
V333333
p554
sg98
Ven
p555
sg100
Nsg102
I105
sg103
I11
sg70
VWed Oct 29 11:41:37 +0000 2014
p556
sg105
I00
sg106
g212
sg108
Vhttps://pbs.twimg.com/profile_images/527425183846379520/Hv1e5Rfd_normal.jpeg
p557
sg110
I309
sg111
I0
sg112
Nsg113
Nsg114
I00
sg115
Nsg117
I00
sg118
I00
sg119
V0084B4
p558
sg121
I00
sg122
I00
sg123
Vhttp://abs.twimg.com/images/themes/theme1/bg.png
p559
sg125
Vichibaya73
p560
sg127
I0
sg128
Vjnrjustice Chibs
p561
sg130
VDDEEF6
p562
sg132
Nsg133
I2881974738
sg134
VC0DEED
p563
sbsg136
I0
sg137
V<a href="https://twitter.com/download/android" rel="nofollow">Twitter for Android Tablets</a>
p564
sg139
(lp565
g3
(g141
g5
Ntp566
Rp567
(dp568
g145
Vhttps://t.co/vT0erhcGJ8
p569
sg147
Vhttps://plus.google.com/112186908898138778446/posts/Gds1pLRbpRJ
p570
sbasg133
I533170990327422976
sbag3
(g4
g5
Ntp571
Rp572
(dp573
g9
I0
sg10
Nsg11
Nsg12
(lp574
sg14
I00
sg15
Nsg20
Nsg21
(lp575
sg67
Nsg68
Nsg69
Nsg70
VFri Nov 14 08:09:39 +0000 2014
p576
sg72
Nsg73
I00
sg74
Nsg75
Nsg76
Nsg77
Nsg78
I00
sg79
Nsg80
(lp577
sg82
Nsg83
Nsg84
Nsg85
V\u0627\u0644\u062a\u0641\u0648\u0642 \u0627\u0644\u062f\u0631\u0627\u0633\u064a\u000a https://t.co/KvWfODF0JB
p578
sg87
I00
sg88
Var
p579
sg90
g3
(g91
g5
Ntp580
Rp581
(dp582
g10
g212
sg96
V333333
p583
sg98
Ven
p584
sg100
Nsg102
I105
sg103
I11
sg70
VWed Oct 29 11:41:37 +0000 2014
p585
sg105
I00
sg106
g212
sg108
Vhttps://pbs.twimg.com/profile_images/527425183846379520/Hv1e5Rfd_normal.jpeg
p586
sg110
I309
sg111
I0
sg112
Nsg113
Nsg114
I00
sg115
Nsg117
I00
sg118
I00
sg119
V0084B4
p587
sg121
I00
sg122
I00
sg123
Vhttp://abs.twimg.com/images/themes/theme1/bg.png
p588
sg125
Vichibaya73
p589
sg127
I0
sg128
Vjnrjustice Chibs
p590
sg130
VDDEEF6
p591
sg132
Nsg133
I2881974738
sg134
VC0DEED
p592
sbsg136
I0
sg137
V<a href="https://twitter.com/download/android" rel="nofollow">Twitter for Android Tablets</a>
p593
sg139
(lp594
g3
(g141
g5
Ntp595
Rp596
(dp597
g145
Vhttps://t.co/KvWfODF0JB
p598
sg147
Vhttps://plus.google.com/112186908898138778446/posts/CEyGhxsLtsW
p599
sbasg133
I533169879361130496
sbag3
(g4
g5
Ntp600
Rp601
(dp602
g9
I0
sg10
Nsg11
Nsg12
(lp603
sg14
I00
sg15
Nsg20
Nsg21
(lp604
sg67
Nsg68
Nsg69
Nsg70
VWed Nov 05 01:46:03 +0000 2014
p605
sg72
Nsg73
Nsg74
Nsg75
Nsg76
Nsg77
Nsg78
I00
sg79
Nsg80
(lp606
sg82
Nsg83
Nsg84
Nsg85
VI don't always have time to study...\u000a\u000abut when I do,\u000a\u000aI don't""
p607
sg87
I00
sg88
Ven
p608
sg90
g3
(g91
g5
Ntp609
Rp610
(dp611
g10
g212
sg96
V333333
p612
sg98
Ven
p613
sg100
Nsg102
I105
sg103
I11
sg70
VWed Oct 29 11:41:37 +0000 2014
p614
sg105
I00
sg106
g212
sg108
Vhttps://pbs.twimg.com/profile_images/527425183846379520/Hv1e5Rfd_normal.jpeg
p615
sg110
I309
sg111
I0
sg112
Nsg113
Nsg114
I00
sg115
Nsg117
I00
sg118
I00
sg119
V0084B4
p616
sg121
I00
sg122
I00
sg123
Vhttp://abs.twimg.com/images/themes/theme1/bg.png
p617
sg125
Vichibaya73
p618
sg127
I0
sg128
Vjnrjustice Chibs
p619
sg130
VDDEEF6
p620
sg132
Nsg133
I2881974738
sg134
VC0DEED
p621
sbsg136
I0
sg137
V<a href="https://twitter.com/download/android" rel="nofollow">Twitter for Android Tablets</a>
p622
sg139
(lp623
sg133
I529811849819090944
sbag3
(g4
g5
Ntp624
Rp625
(dp626
g9
I0
sg10
Nsg11
Nsg12
(lp627
sg14
I00
sg15
Nsg20
Nsg21
(lp628
sg67
Nsg68
Nsg69
Nsg70
VWed Nov 05 01:18:11 +0000 2014
p629
sg72
Nsg73
Nsg74
Nsg75
Nsg76
Nsg77
Nsg78
I00
sg79
Nsg80
(lp630
sg82
Nsg83
Nsg84
Nsg85
VI'ts sweet wen someone remembers every little detail about u.  not because u keep reminding them but because they pay attention
p631
sg87
I00
sg88
Ven
p632
sg90
g3
(g91
g5
Ntp633
Rp634
(dp635
g10
g212
sg96
V333333
p636
sg98
Ven
p637
sg100
Nsg102
I105
sg103
I11
sg70
VWed Oct 29 11:41:37 +0000 2014
p638
sg105
I00
sg106
g212
sg108
Vhttps://pbs.twimg.com/profile_images/527425183846379520/Hv1e5Rfd_normal.jpeg
p639
sg110
I309
sg111
I0
sg112
Nsg113
Nsg114
I00
sg115
Nsg117
I00
sg118
I00
sg119
V0084B4
p640
sg121
I00
sg122
I00
sg123
Vhttp://abs.twimg.com/images/themes/theme1/bg.png
p641
sg125
Vichibaya73
p642
sg127
I0
sg128
Vjnrjustice Chibs
p643
sg130
VDDEEF6
p644
sg132
Nsg133
I2881974738
sg134
VC0DEED
p645
sbsg136
I0
sg137
V<a href="https://twitter.com/download/android" rel="nofollow">Twitter for Android Tablets</a>
p646
sg139
(lp647
sg133
I529804837131526144
sbag3
(g4
g5
Ntp648
Rp649
(dp650
g9
I0
sg10
Nsg11
Nsg12
(lp651
g3
(g404
g5
Ntp652
Rp653
(dp654
g408
VTheInspirationProject
p655
sbasg14
I00
sg15
g3
(g4
g5
Ntp656
Rp657
(dp658
g9
I28
sg10
Nsg11
Nsg12
(lp659
g3
(g404
g5
Ntp660
Rp661
(dp662
g408
VTheInspirationProject
p663
sbasg14
I00
sg15
Nsg20
Nsg21
(lp664
sg67
Nsg68
Nsg69
Nsg70
VSun Nov 02 09:16:33 +0000 2014
p665
sg72
Nsg73
Nsg74
Nsg75
Nsg76
Nsg77
Nsg78
I00
sg79
Nsg80
(lp666
sg82
Nsg83
Nsg84
Nsg85
VCOMMITMENT is not about what we do when its "easy &amp; convenient". Commitment is what we do when it seems IMPOSSIBLE. #TheInspirationProject
p667
sg87
I00
sg88
Ven
p668
sg90
g3
(g91
g5
Ntp669
Rp670
(dp671
g10
VJhb. Amsterdam. London. NY
p672
sg96
V292529
p673
sg98
Ven
p674
sg100
VGreenland
p675
sg102
I37169
sg103
I21589
sg70
VThu Jul 02 18:00:05 +0000 2009
p676
sg105
I00
sg106
VGlobal Business Speaker. Private Equity CEO. Dragon. NSA New York. Deep love affair with Afrika. Email vusi@mygrowthfund.co.za
p677
sg108
Vhttps://pbs.twimg.com/profile_images/542065790347141120/i-74w0Dm_normal.jpeg
p678
sg110
I315
sg111
I253
sg112
I-10800
sg113
Nsg114
I00
sg115
Vhttps://pbs.twimg.com/profile_banners/53136959/1416754561
p679
sg117
I00
sg118
I01
sg119
VFF3300
p680
sg121
I01
sg122
I00
sg123
Vhttp://pbs.twimg.com/profile_background_images/882489510/cdc6dc79b9e988c6ca1d78a59fc37305.jpeg
p681
sg125
VVusiThembekwayo
p682
sg127
I127
sg128
VVusi Thembekwayo
p683
sg130
VA0C5C7
p684
sg132
Vhttp://t.co/ALgMttrKlM
p685
sg133
I53136959
sg134
V8F9E73
p686
sbsg136
I41
sg137
V<a href="http://twitter.com" rel="nofollow">Twitter Web Client</a>
p687
sg139
(lp688
sg133
I528838060918976513
sbsg20
Nsg21
(lp689
sg67
Nsg68
Nsg69
Nsg70
VSun Nov 02 09:26:24 +0000 2014
p690
sg72
Nsg73
Nsg74
Nsg75
Nsg76
Nsg77
Nsg78
I00
sg79
Nsg80
(lp691
g3
(g91
g5
Ntp692
Rp693
(dp694
g10
Nsg96
Nsg98
Nsg100
Nsg102
Nsg103
Nsg70
Nsg105
Nsg106
Nsg108
Nsg110
Nsg111
Nsg112
Nsg113
Nsg114
Nsg115
Nsg117
Nsg118
Nsg119
Nsg121
Nsg122
Nsg123
Nsg125
VVusiThembekwayo
p695
sg127
Nsg128
VVusi Thembekwayo
p696
sg130
Nsg132
Nsg133
I53136959
sg134
Nsbasg82
Nsg83
Nsg84
Nsg85
VRT @VusiThembekwayo: COMMITMENT is not about what we do when its "easy &amp; convenient". Commitment is what we do when it seems IMPOSSIBLE. #T\u2026
p697
sg87
I00
sg88
Ven
p698
sg90
g3
(g91
g5
Ntp699
Rp700
(dp701
g10
g212
sg96
V333333
p702
sg98
Ven
p703
sg100
Nsg102
I105
sg103
I11
sg70
VWed Oct 29 11:41:37 +0000 2014
p704
sg105
I00
sg106
g212
sg108
Vhttps://pbs.twimg.com/profile_images/527425183846379520/Hv1e5Rfd_normal.jpeg
p705
sg110
I309
sg111
I0
sg112
Nsg113
Nsg114
I00
sg115
Nsg117
I00
sg118
I00
sg119
V0084B4
p706
sg121
I00
sg122
I00
sg123
Vhttp://abs.twimg.com/images/themes/theme1/bg.png
p707
sg125
Vichibaya73
p708
sg127
I0
sg128
Vjnrjustice Chibs
p709
sg130
VDDEEF6
p710
sg132
Nsg133
I2881974738
sg134
VC0DEED
p711
sbsg136
I41
sg137
V<a href="https://twitter.com/download/android" rel="nofollow">Twitter for Android Tablets</a>
p712
sg139
(lp713
sg133
I528840538888220672
sbaa.