(lp0
S'amaramoore_'
p1
a(lp2
ccopy_reg
_reconstructor
p3
(ctwitter
Status
p4
c__builtin__
object
p5
Ntp6
Rp7
(dp8
S'_favorite_count'
p9
I0
sS'_location'
p10
NsS'_withheld_scope'
p11
NsS'hashtags'
p12
(lp13
g3
(ctwitter
Hashtag
p14
g5
Ntp15
Rp16
(dp17
S'text'
p18
VSoundCloud
p19
sbasS'_truncated'
p20
I00
sS'_retweeted_status'
p21
g3
(g4
g5
Ntp22
Rp23
(dp24
g9
I120
sg10
Nsg11
Nsg12
(lp25
g3
(g14
g5
Ntp26
Rp27
(dp28
g18
VSoundCloud
p29
sbasg20
I00
sg21
NsS'_withheld_copyright'
p30
NsS'media'
p31
(lp32
sS'_place'
p33
NsS'_contributors'
p34
NsS'_current_user_retweet'
p35
NsS'_created_at'
p36
VThu Dec 11 20:54:14 +0000 2014
p37
sS'_scopes'
p38
NsS'_possibly_sensitive'
p39
I00
sS'_in_reply_to_screen_name'
p40
NsS'_coordinates'
p41
NsS'_in_reply_to_user_id'
p42
NsS'_geo'
p43
NsS'_favorited'
p44
I00
sS'_withheld_in_countries'
p45
NsS'user_mentions'
p46
(lp47
sS'_now'
p48
NsS'_id_str'
p49
V543146766213062656
p50
sS'_in_reply_to_status_id'
p51
NsS'_text'
p52
VHomies by Nate Lewis I on #SoundCloud Everyone Go Listen \U0001f3a4\U0001f3b6\U0001f525  https://t.co/93O1zsRecF
p53
sS'_retweeted'
p54
I00
sS'lang'
p55
Ven
p56
sS'_user'
p57
g3
(ctwitter
User
p58
g5
Ntp59
Rp60
(dp61
g10
V
p62
sS'_profile_text_color'
p63
V333333
p64
sS'_lang'
p65
Ven
p66
sS'_time_zone'
p67
VQuito
p68
sS'_followers_count'
p69
I1917
sS'_statuses_count'
p70
I21740
sg36
VSun Jun 05 01:28:38 +0000 2011
p71
sS'_verified'
p72
I00
sS'_description'
p73
VSenior @ Glenoak, Music Producer, check my newest song out  'Homies' below!
p74
sS'_profile_image_url'
p75
Vhttps://pbs.twimg.com/profile_images/543291985575280640/INrskfWe_normal.jpeg
p76
sS'_friends_count'
p77
I789
sS'_favourites_count'
p78
I7465
sS'_utc_offset'
p79
I-18000
sS'_status'
p80
NsS'_protected'
p81
I00
sS'_profile_banner_url'
p82
Vhttps://pbs.twimg.com/profile_banners/311184553/1418014169
p83
sS'_notifications'
p84
I00
sS'_profile_background_tile'
p85
I00
sS'_profile_link_color'
p86
V009999
p87
sS'_geo_enabled'
p88
I01
sS'_contributors_enabled'
p89
I00
sS'_profile_background_image_url'
p90
Vhttp://pbs.twimg.com/profile_background_images/475884903/image
p91
sS'_screen_name'
p92
VNatee_Lewis
p93
sS'_listed_count'
p94
I0
sS'_name'
p95
VNATE LEWIS I
p96
sS'_profile_sidebar_fill_color'
p97
VEFEFEF
p98
sS'_url'
p99
Vhttps://t.co/GhqanGhrqj
p100
sS'_id'
p101
I311184553
sS'_profile_background_color'
p102
V131516
p103
sbsS'_retweet_count'
p104
I339
sS'_source'
p105
V<a href="http://www.apple.com" rel="nofollow">iOS</a>
p106
sS'urls'
p107
(lp108
g3
(ctwitter
Url
p109
g5
Ntp110
Rp111
(dp112
S'url'
p113
Vhttps://t.co/93O1zsRecF
p114
sS'expanded_url'
p115
Vhttps://soundcloud.com/nate-lewis-ii/homies
p116
sbasg101
I543146766213062656
sbsg30
Nsg31
(lp117
sg33
Nsg34
Nsg35
Nsg36
VFri Dec 12 06:46:15 +0000 2014
p118
sg38
Nsg39
I00
sg40
Nsg41
Nsg42
Nsg43
Nsg44
I00
sg45
Nsg46
(lp119
g3
(g58
g5
Ntp120
Rp121
(dp122
g10
Nsg63
Nsg65
Nsg67
Nsg69
Nsg70
Nsg36
Nsg72
Nsg73
Nsg75
Nsg77
Nsg78
Nsg79
Nsg80
Nsg81
Nsg82
Nsg84
Nsg85
Nsg86
Nsg88
Nsg89
Nsg90
Nsg92
VNatee_Lewis
p123
sg94
Nsg95
VNATE LEWIS I
p124
sg97
Nsg99
Nsg101
I311184553
sg102
Nsbasg48
Nsg49
V543295752139571200
p125
sg51
Nsg52
VRT @Natee_Lewis: Homies by Nate Lewis I on #SoundCloud Everyone Go Listen \U0001f3a4\U0001f3b6\U0001f525  https://t.co/93O1zsRecF
p126
sg54
I00
sg55
Ven
p127
sg57
g3
(g58
g5
Ntp128
Rp129
(dp130
g10
g62
sg63
V333333
p131
sg65
Ven
p132
sg67
VEastern Time (US & Canada)
p133
sg69
I1125
sg70
I23733
sg36
VWed Oct 10 01:35:28 +0000 2012
p134
sg72
I00
sg73
VIG: @_amaramoore ................................. single, senior, hooper
p135
sg75
Vhttps://pbs.twimg.com/profile_images/541409640655765504/OSph9-1M_normal.jpeg
p136
sg77
I644
sg78
I2277
sg79
I-18000
sg80
Nsg81
I00
sg82
Vhttps://pbs.twimg.com/profile_banners/870912158/1417917161
p137
sg84
I00
sg85
I00
sg86
V0084B4
p138
sg88
I00
sg89
I00
sg90
Vhttp://abs.twimg.com/images/themes/theme1/bg.png
p139
sg92
Vamaramoore_
p140
sg94
I1
sg95
V\u0101
p141
sg97
VDDEEF6
p142
sg99
Nsg101
I870912158
sg102
VC0DEED
p143
sbsg104
I339
sg105
V<a href="http://twitter.com/download/iphone" rel="nofollow">Twitter for iPhone</a>
p144
sg107
(lp145
g3
(g109
g5
Ntp146
Rp147
(dp148
g113
Vhttps://t.co/93O1zsRecF
p149
sg115
Vhttps://soundcloud.com/nate-lewis-ii/homies
p150
sbasg101
I543295752139571200
sbag3
(g4
g5
Ntp151
Rp152
(dp153
g9
I0
sg10
Nsg11
Nsg12
(lp154
sg20
I00
sg21
g3
(g4
g5
Ntp155
Rp156
(dp157
g9
I0
sg10
Nsg11
Nsg12
(lp158
sg20
I00
sg21
Nsg30
Nsg31
(lp159
sg33
Nsg34
Nsg35
Nsg36
VThu Dec 11 06:09:15 +0000 2014
p160
sg38
Nsg39
Nsg40
Vamaramoore_
p161
sg41
Nsg42
I870912158
sg43
Nsg44
I00
sg45
Nsg46
(lp162
g3
(g58
g5
Ntp163
Rp164
(dp165
g10
Nsg63
Nsg65
Nsg67
Nsg69
Nsg70
Nsg36
Nsg72
Nsg73
Nsg75
Nsg77
Nsg78
Nsg79
Nsg80
Nsg81
Nsg82
Nsg84
Nsg85
Nsg86
Nsg88
Nsg89
Nsg90
Nsg92
Vamaramoore_
p166
sg94
Nsg95
V\u0101
p167
sg97
Nsg99
Nsg101
I870912158
sg102
Nsbasg48
Nsg49
V542924050675535872
p168
sg51
I542923847419174913
sg52
V\u201c@amaramoore_: Don't ever put shii past nobody \U0001f645\u201d
p169
sg54
I00
sg55
Ven
p170
sg57
g3
(g58
g5
Ntp171
Rp172
(dp173
g10
g62
sg63
V333333
p174
sg65
Ven
p175
sg67
Nsg69
I1462
sg70
I45813
sg36
VTue Jun 11 03:29:37 +0000 2013
p176
sg72
I00
sg73
ViG : Rondonumbernine__ 1\u20e39\u20e3 Yr Old King | Squad Shit Only | By My Damn Self
p177
sg75
Vhttps://pbs.twimg.com/profile_images/543838528560705537/UuIfzJV__normal.jpeg
p178
sg77
I934
sg78
I30590
sg79
Nsg80
Nsg81
I00
sg82
Vhttps://pbs.twimg.com/profile_banners/1500180596/1417685244
p179
sg84
I00
sg85
I01
sg86
V009999
p180
sg88
I01
sg89
I00
sg90
Vhttp://abs.twimg.com/images/themes/theme14/bg.gif
p181
sg92
Vzheggy_the_hbk
p182
sg94
I1
sg95
V\u2728 #\u3072ncle_\u26a1\ufe0fleez \u2728
p183
sg97
VEFEFEF
p184
sg99
Nsg101
I1500180596
sg102
V131516
p185
sbsg104
I1
sg105
V<a href="http://twitter.com/download/iphone" rel="nofollow">Twitter for iPhone</a>
p186
sg107
(lp187
sg101
I542924050675535872
sbsg30
Nsg31
(lp188
sg33
Nsg34
Nsg35
Nsg36
VThu Dec 11 06:11:24 +0000 2014
p189
sg38
Nsg39
Nsg40
Nsg41
Nsg42
Nsg43
Nsg44
I00
sg45
Nsg46
(lp190
g3
(g58
g5
Ntp191
Rp192
(dp193
g10
Nsg63
Nsg65
Nsg67
Nsg69
Nsg70
Nsg36
Nsg72
Nsg73
Nsg75
Nsg77
Nsg78
Nsg79
Nsg80
Nsg81
Nsg82
Nsg84
Nsg85
Nsg86
Nsg88
Nsg89
Nsg90
Nsg92
Vzheggy_the_hbk
p194
sg94
Nsg95
V\u2728 #\u3072ncle_\u26a1\ufe0fleez \u2728
p195
sg97
Nsg99
Nsg101
I1500180596
sg102
Nsbag3
(g58
g5
Ntp196
Rp197
(dp198
g10
Nsg63
Nsg65
Nsg67
Nsg69
Nsg70
Nsg36
Nsg72
Nsg73
Nsg75
Nsg77
Nsg78
Nsg79
Nsg80
Nsg81
Nsg82
Nsg84
Nsg85
Nsg86
Nsg88
Nsg89
Nsg90
Nsg92
Vamaramoore_
p199
sg94
Nsg95
V\u0101
p200
sg97
Nsg99
Nsg101
I870912158
sg102
Nsbasg48
Nsg49
V542924591023153152
p201
sg51
Nsg52
VRT @zheggy_the_hbk: \u201c@amaramoore_: Don't ever put shii past nobody \U0001f645\u201d
p202
sg54
I00
sg55
Ven
p203
sg57
g3
(g58
g5
Ntp204
Rp205
(dp206
g10
g62
sg63
V333333
p207
sg65
Ven
p208
sg67
VEastern Time (US & Canada)
p209
sg69
I1125
sg70
I23733
sg36
VWed Oct 10 01:35:28 +0000 2012
p210
sg72
I00
sg73
VIG: @_amaramoore ................................. single, senior, hooper
p211
sg75
Vhttps://pbs.twimg.com/profile_images/541409640655765504/OSph9-1M_normal.jpeg
p212
sg77
I644
sg78
I2277
sg79
I-18000
sg80
Nsg81
I00
sg82
Vhttps://pbs.twimg.com/profile_banners/870912158/1417917161
p213
sg84
I00
sg85
I00
sg86
V0084B4
p214
sg88
I00
sg89
I00
sg90
Vhttp://abs.twimg.com/images/themes/theme1/bg.png
p215
sg92
Vamaramoore_
p216
sg94
I1
sg95
V\u0101
p217
sg97
VDDEEF6
p218
sg99
Nsg101
I870912158
sg102
VC0DEED
p219
sbsg104
I1
sg105
V<a href="http://twitter.com/download/iphone" rel="nofollow">Twitter for iPhone</a>
p220
sg107
(lp221
sg101
I542924591023153152
sbag3
(g4
g5
Ntp222
Rp223
(dp224
g9
I0
sg10
Nsg11
Nsg12
(lp225
sg20
I00
sg21
Nsg30
Nsg31
(lp226
sg33
Nsg34
Nsg35
Nsg36
VThu Dec 11 06:08:26 +0000 2014
p227
sg38
Nsg39
Nsg40
Nsg41
Nsg42
Nsg43
Nsg44
I00
sg45
Nsg46
(lp228
sg48
Nsg49
V542923847419174913
p229
sg51
Nsg52
VDon't ever put shii past nobody \U0001f645
p230
sg54
I00
sg55
Ven
p231
sg57
g3
(g58
g5
Ntp232
Rp233
(dp234
g10
g62
sg63
V333333
p235
sg65
Ven
p236
sg67
VEastern Time (US & Canada)
p237
sg69
I1125
sg70
I23733
sg36
VWed Oct 10 01:35:28 +0000 2012
p238
sg72
I00
sg73
VIG: @_amaramoore ................................. single, senior, hooper
p239
sg75
Vhttps://pbs.twimg.com/profile_images/541409640655765504/OSph9-1M_normal.jpeg
p240
sg77
I644
sg78
I2277
sg79
I-18000
sg80
Nsg81
I00
sg82
Vhttps://pbs.twimg.com/profile_banners/870912158/1417917161
p241
sg84
I00
sg85
I00
sg86
V0084B4
p242
sg88
I00
sg89
I00
sg90
Vhttp://abs.twimg.com/images/themes/theme1/bg.png
p243
sg92
Vamaramoore_
p244
sg94
I1
sg95
V\u0101
p245
sg97
VDDEEF6
p246
sg99
Nsg101
I870912158
sg102
VC0DEED
p247
sbsg104
I2
sg105
V<a href="http://twitter.com/download/iphone" rel="nofollow">Twitter for iPhone</a>
p248
sg107
(lp249
sg101
I542923847419174913
sbag3
(g4
g5
Ntp250
Rp251
(dp252
g9
I0
sg10
Nsg11
Nsg12
(lp253
sg20
I00
sg21
g3
(g4
g5
Ntp254
Rp255
(dp256
g9
I1
sg10
Nsg11
Nsg12
(lp257
sg20
I00
sg21
Nsg30
Nsg31
(lp258
sg33
Nsg34
Nsg35
Nsg36
VWed Dec 10 19:49:17 +0000 2014
p259
sg38
Nsg39
Nsg40
Nsg41
Nsg42
Nsg43
Nsg44
I00
sg45
Nsg46
(lp260
sg48
Nsg49
V542768030527549440
p261
sg51
Nsg52
VShit gets old Quick
p262
sg54
I00
sg55
Ven
p263
sg57
g3
(g58
g5
Ntp264
Rp265
(dp266
g10
VCanton OHIO
p267
sg63
V333333
p268
sg65
Ven
p269
sg67
Nsg69
I754
sg70
I18872
sg36
VFri Jan 04 19:53:05 +0000 2013
p270
sg72
I00
sg73
VReal Bo$$ | Free da Guys \u203c\ufe0f
p271
sg75
Vhttps://pbs.twimg.com/profile_images/539225692077318144/GLxbAiH__normal.jpeg
p272
sg77
I387
sg78
I2246
sg79
Nsg80
Nsg81
I00
sg82
Vhttps://pbs.twimg.com/profile_banners/1061293339/1418344694
p273
sg84
I00
sg85
I00
sg86
V0084B4
p274
sg88
I01
sg89
I00
sg90
Vhttp://abs.twimg.com/images/themes/theme1/bg.png
p275
sg92
VJ_thomp100
p276
sg94
I1
sg95
VJtone\u203c\ufe0f
p277
sg97
VDDEEF6
p278
sg99
Nsg101
I1061293339
sg102
VC0DEED
p279
sbsg104
I2
sg105
V<a href="http://twitter.com/download/iphone" rel="nofollow">Twitter for iPhone</a>
p280
sg107
(lp281
sg101
I542768030527549440
sbsg30
Nsg31
(lp282
sg33
Nsg34
Nsg35
Nsg36
VWed Dec 10 19:54:30 +0000 2014
p283
sg38
Nsg39
Nsg40
Nsg41
Nsg42
Nsg43
Nsg44
I00
sg45
Nsg46
(lp284
g3
(g58
g5
Ntp285
Rp286
(dp287
g10
Nsg63
Nsg65
Nsg67
Nsg69
Nsg70
Nsg36
Nsg72
Nsg73
Nsg75
Nsg77
Nsg78
Nsg79
Nsg80
Nsg81
Nsg82
Nsg84
Nsg85
Nsg86
Nsg88
Nsg89
Nsg90
Nsg92
VJ_thomp100
p288
sg94
Nsg95
VJtone\u203c\ufe0f
p289
sg97
Nsg99
Nsg101
I1061293339
sg102
Nsbasg48
Nsg49
V542769343050690560
p290
sg51
Nsg52
VRT @J_thomp100: Shit gets old Quick
p291
sg54
I00
sg55
Ven
p292
sg57
g3
(g58
g5
Ntp293
Rp294
(dp295
g10
g62
sg63
V333333
p296
sg65
Ven
p297
sg67
VEastern Time (US & Canada)
p298
sg69
I1125
sg70
I23733
sg36
VWed Oct 10 01:35:28 +0000 2012
p299
sg72
I00
sg73
VIG: @_amaramoore ................................. single, senior, hooper
p300
sg75
Vhttps://pbs.twimg.com/profile_images/541409640655765504/OSph9-1M_normal.jpeg
p301
sg77
I644
sg78
I2277
sg79
I-18000
sg80
Nsg81
I00
sg82
Vhttps://pbs.twimg.com/profile_banners/870912158/1417917161
p302
sg84
I00
sg85
I00
sg86
V0084B4
p303
sg88
I00
sg89
I00
sg90
Vhttp://abs.twimg.com/images/themes/theme1/bg.png
p304
sg92
Vamaramoore_
p305
sg94
I1
sg95
V\u0101
p306
sg97
VDDEEF6
p307
sg99
Nsg101
I870912158
sg102
VC0DEED
p308
sbsg104
I2
sg105
V<a href="http://twitter.com/download/iphone" rel="nofollow">Twitter for iPhone</a>
p309
sg107
(lp310
sg101
I542769343050690560
sbag3
(g4
g5
Ntp311
Rp312
(dp313
g9
I0
sg10
Nsg11
Nsg12
(lp314
sg20
I00
sg21
g3
(g4
g5
Ntp315
Rp316
(dp317
g9
I0
sg10
Nsg11
Nsg12
(lp318
sg20
I00
sg21
Nsg30
Nsg31
(lp319
(dp320
Vsource_user_id
p321
I1062210343
sVsource_status_id_str
p322
V542718734688059392
p323
sVexpanded_url
p324
Vhttp://twitter.com/_23isBACK_/status/542718734688059392/photo/1
p325
sVdisplay_url
p326
Vpic.twitter.com/wdRRpENliw
p327
sVurl
p328
Vhttp://t.co/wdRRpENliw
p329
sVmedia_url_https
p330
Vhttps://pbs.twimg.com/media/B4gf0DYIUAAm4ve.jpg
p331
sVsource_user_id_str
p332
V1062210343
p333
sVsource_status_id
p334
I542718734688059392
sVid_str
p335
V542718734218317824
p336
sVsizes
p337
(dp338
Vsmall
p339
(dp340
Vh
p341
I455
sVresize
p342
Vfit
p343
sVw
p344
I340
ssVlarge
p345
(dp346
Vh
p347
I804
sVresize
p348
Vfit
p349
sVw
p350
I600
ssVmedium
p351
(dp352
Vh
p353
I804
sVresize
p354
Vfit
p355
sVw
p356
I600
ssVthumb
p357
(dp358
Vh
p359
I150
sVresize
p360
Vcrop
p361
sVw
p362
I150
sssVindices
p363
(lp364
I105
aI127
asVtype
p365
Vphoto
p366
sVid
p367
I542718734218317824
sVmedia_url
p368
Vhttp://pbs.twimg.com/media/B4gf0DYIUAAm4ve.jpg
p369
sasg33
Nsg34
Nsg35
Nsg36
VWed Dec 10 16:45:04 +0000 2014
p370
sg38
Nsg39
I00
sg40
V_23isBACK_
p371
sg41
Nsg42
I1062210343
sg43
Nsg44
I00
sg45
Nsg46
(lp372
g3
(g58
g5
Ntp373
Rp374
(dp375
g10
Nsg63
Nsg65
Nsg67
Nsg69
Nsg70
Nsg36
Nsg72
Nsg73
Nsg75
Nsg77
Nsg78
Nsg79
Nsg80
Nsg81
Nsg82
Nsg84
Nsg85
Nsg86
Nsg88
Nsg89
Nsg90
Nsg92
V_23isBACK_
p376
sg94
Nsg95
V23isBACK.com
p377
sg97
Nsg99
Nsg101
I1062210343
sg102
Nsbasg48
Nsg49
V542721672567324672
p378
sg51
I542718734688059392
sg52
V\u201c@_23isBACK_: "Girls only" Jordans coming out in 2015. Click here http://t.co/egj3f2DVe2  for more pics. http://t.co/wdRRpENliw\u201d Bruh \U0001f611\U0001f64f
p379
sg54
I00
sg55
Ven
p380
sg57
g3
(g58
g5
Ntp381
Rp382
(dp383
g10
g62
sg63
V333333
p384
sg65
Ven
p385
sg67
Nsg69
I1287
sg70
I24774
sg36
VWed Dec 12 18:52:35 +0000 2012
p386
sg72
I00
sg73
VKing \u2728 #Massillon Basketball\u2757\ufe0fNumero 5 \u303d\ufe0f #TGOD \u270a
p387
sg75
Vhttps://pbs.twimg.com/profile_images/541970060177600512/cUY90yuH_normal.jpeg
p388
sg77
I811
sg78
I18532
sg79
Nsg80
Nsg81
I00
sg82
Vhttps://pbs.twimg.com/profile_banners/1007042328/1418324085
p389
sg84
I00
sg85
I00
sg86
V0084B4
p390
sg88
I01
sg89
I00
sg90
Vhttp://abs.twimg.com/images/themes/theme1/bg.png
p391
sg92
VKingMaxx__
p392
sg94
I0
sg95
VKingMax \ue10e
p393
sg97
VDDEEF6
p394
sg99
Nsg101
I1007042328
sg102
VC0DEED
p395
sbsg104
I1
sg105
V<a href="http://twitter.com/download/iphone" rel="nofollow">Twitter for iPhone</a>
p396
sg107
(lp397
g3
(g109
g5
Ntp398
Rp399
(dp400
g113
Vhttp://t.co/egj3f2DVe2
p401
sg115
Vhttp://23isBACK.com/re.htm
p402
sbasg101
I542721672567324672
sbsg30
Nsg31
(lp403
(dp404
Vsource_user_id
p405
I1062210343
sVsource_status_id_str
p406
V542718734688059392
p407
sVexpanded_url
p408
Vhttp://twitter.com/_23isBACK_/status/542718734688059392/photo/1
p409
sVdisplay_url
p410
Vpic.twitter.com/wdRRpENliw
p411
sVurl
p412
Vhttp://t.co/wdRRpENliw
p413
sVmedia_url_https
p414
Vhttps://pbs.twimg.com/media/B4gf0DYIUAAm4ve.jpg
p415
sVsource_user_id_str
p416
V1062210343
p417
sVsource_status_id
p418
I542718734688059392
sVid_str
p419
V542718734218317824
p420
sVsizes
p421
(dp422
Vsmall
p423
(dp424
Vh
p425
I455
sVresize
p426
Vfit
p427
sVw
p428
I340
ssVlarge
p429
(dp430
Vh
p431
I804
sVresize
p432
Vfit
p433
sVw
p434
I600
ssVmedium
p435
(dp436
Vh
p437
I804
sVresize
p438
Vfit
p439
sVw
p440
I600
ssVthumb
p441
(dp442
Vh
p443
I150
sVresize
p444
Vcrop
p445
sVw
p446
I150
sssVindices
p447
(lp448
I139
aI140
asVtype
p449
Vphoto
p450
sVid
p451
I542718734218317824
sVmedia_url
p452
Vhttp://pbs.twimg.com/media/B4gf0DYIUAAm4ve.jpg
p453
sasg33
Nsg34
Nsg35
Nsg36
VWed Dec 10 16:56:59 +0000 2014
p454
sg38
Nsg39
I00
sg40
Nsg41
Nsg42
Nsg43
Nsg44
I00
sg45
Nsg46
(lp455
g3
(g58
g5
Ntp456
Rp457
(dp458
g10
Nsg63
Nsg65
Nsg67
Nsg69
Nsg70
Nsg36
Nsg72
Nsg73
Nsg75
Nsg77
Nsg78
Nsg79
Nsg80
Nsg81
Nsg82
Nsg84
Nsg85
Nsg86
Nsg88
Nsg89
Nsg90
Nsg92
VKingMaxx__
p459
sg94
Nsg95
VKingMax \ue10e
p460
sg97
Nsg99
Nsg101
I1007042328
sg102
Nsbag3
(g58
g5
Ntp461
Rp462
(dp463
g10
Nsg63
Nsg65
Nsg67
Nsg69
Nsg70
Nsg36
Nsg72
Nsg73
Nsg75
Nsg77
Nsg78
Nsg79
Nsg80
Nsg81
Nsg82
Nsg84
Nsg85
Nsg86
Nsg88
Nsg89
Nsg90
Nsg92
V_23isBACK_
p464
sg94
Nsg95
V23isBACK.com
p465
sg97
Nsg99
Nsg101
I1062210343
sg102
Nsbasg48
Nsg49
V542724671917928448
p466
sg51
Nsg52
VRT @KingMaxx__: \u201c@_23isBACK_: "Girls only" Jordans coming out in 2015. Click here http://t.co/egj3f2DVe2  for more pics. http://t.co/wdRRpE\u2026
p467
sg54
I00
sg55
Ven
p468
sg57
g3
(g58
g5
Ntp469
Rp470
(dp471
g10
g62
sg63
V333333
p472
sg65
Ven
p473
sg67
VEastern Time (US & Canada)
p474
sg69
I1125
sg70
I23733
sg36
VWed Oct 10 01:35:28 +0000 2012
p475
sg72
I00
sg73
VIG: @_amaramoore ................................. single, senior, hooper
p476
sg75
Vhttps://pbs.twimg.com/profile_images/541409640655765504/OSph9-1M_normal.jpeg
p477
sg77
I644
sg78
I2277
sg79
I-18000
sg80
Nsg81
I00
sg82
Vhttps://pbs.twimg.com/profile_banners/870912158/1417917161
p478
sg84
I00
sg85
I00
sg86
V0084B4
p479
sg88
I00
sg89
I00
sg90
Vhttp://abs.twimg.com/images/themes/theme1/bg.png
p480
sg92
Vamaramoore_
p481
sg94
I1
sg95
V\u0101
p482
sg97
VDDEEF6
p483
sg99
Nsg101
I870912158
sg102
VC0DEED
p484
sbsg104
I1
sg105
V<a href="http://twitter.com/download/iphone" rel="nofollow">Twitter for iPhone</a>
p485
sg107
(lp486
g3
(g109
g5
Ntp487
Rp488
(dp489
g113
Vhttp://t.co/egj3f2DVe2
p490
sg115
Vhttp://23isBACK.com/re.htm
p491
sbasg101
I542724671917928448
sbag3
(g4
g5
Ntp492
Rp493
(dp494
g9
I0
sg10
Nsg11
Nsg12
(lp495
sg20
I00
sg21
g3
(g4
g5
Ntp496
Rp497
(dp498
g9
I1
sg10
Nsg11
Nsg12
(lp499
sg20
I00
sg21
Nsg30
Nsg31
(lp500
sg33
Nsg34
Nsg35
Nsg36
VWed Dec 10 16:53:50 +0000 2014
p501
sg38
Nsg39
Nsg40
Vamaramoore_
p502
sg41
Nsg42
I870912158
sg43
Nsg44
I00
sg45
Nsg46
(lp503
g3
(g58
g5
Ntp504
Rp505
(dp506
g10
Nsg63
Nsg65
Nsg67
Nsg69
Nsg70
Nsg36
Nsg72
Nsg73
Nsg75
Nsg77
Nsg78
Nsg79
Nsg80
Nsg81
Nsg82
Nsg84
Nsg85
Nsg86
Nsg88
Nsg89
Nsg90
Nsg92
Vamaramoore_
p507
sg94
Nsg95
V\u0101
p508
sg97
Nsg99
Nsg101
I870912158
sg102
Nsbasg48
Nsg49
V542723879157112832
p509
sg51
Nsg52
V@amaramoore_ Avi &gt;&gt;&gt;&gt; \U0001f60d\U0001f60d\U0001f60d\U0001f629
p510
sg54
I00
sg55
Vund
p511
sg57
g3
(g58
g5
Ntp512
Rp513
(dp514
g10
g62
sg63
V333333
p515
sg65
Ven
p516
sg67
Nsg69
I797
sg70
I33795
sg36
VSun Apr 29 03:07:06 +0000 2012
p517
sg72
I00
sg73
V\u2764\u2764 R.I.P. TANNY BABY !!!\u2764\ufe0f\u2764\ufe0f
p518
sg75
Vhttps://pbs.twimg.com/profile_images/543589187287797760/gQzz14bd_normal.jpeg
p519
sg77
I692
sg78
I4026
sg79
Nsg80
Nsg81
I00
sg82
Vhttps://pbs.twimg.com/profile_banners/566015541/1414906592
p520
sg84
I00
sg85
I00
sg86
V0084B4
p521
sg88
I01
sg89
I00
sg90
Vhttp://abs.twimg.com/images/themes/theme1/bg.png
p522
sg92
VFrancis_bitches
p523
sg94
I1
sg95
VImannni\u2764\ufe0f
p524
sg97
VDDEEF6
p525
sg99
Nsg101
I566015541
sg102
VC0DEED
p526
sbsg104
I1
sg105
V<a href="http://twitter.com/download/iphone" rel="nofollow">Twitter for iPhone</a>
p527
sg107
(lp528
sg101
I542723879157112832
sbsg30
Nsg31
(lp529
sg33
Nsg34
Nsg35
Nsg36
VWed Dec 10 16:56:31 +0000 2014
p530
sg38
Nsg39
Nsg40
Nsg41
Nsg42
Nsg43
Nsg44
I00
sg45
Nsg46
(lp531
g3
(g58
g5
Ntp532
Rp533
(dp534
g10
Nsg63
Nsg65
Nsg67
Nsg69
Nsg70
Nsg36
Nsg72
Nsg73
Nsg75
Nsg77
Nsg78
Nsg79
Nsg80
Nsg81
Nsg82
Nsg84
Nsg85
Nsg86
Nsg88
Nsg89
Nsg90
Nsg92
VFrancis_bitches
p535
sg94
Nsg95
VImannni\u2764\ufe0f
p536
sg97
Nsg99
Nsg101
I566015541
sg102
Nsbag3
(g58
g5
Ntp537
Rp538
(dp539
g10
Nsg63
Nsg65
Nsg67
Nsg69
Nsg70
Nsg36
Nsg72
Nsg73
Nsg75
Nsg77
Nsg78
Nsg79
Nsg80
Nsg81
Nsg82
Nsg84
Nsg85
Nsg86
Nsg88
Nsg89
Nsg90
Nsg92
Vamaramoore_
p540
sg94
Nsg95
V\u0101
p541
sg97
Nsg99
Nsg101
I870912158
sg102
Nsbasg48
Nsg49
V542724551818215425
p542
sg51
Nsg52
VRT @Francis_bitches: @amaramoore_ Avi &gt;&gt;&gt;&gt; \U0001f60d\U0001f60d\U0001f60d\U0001f629
p543
sg54
I00
sg55
Vund
p544
sg57
g3
(g58
g5
Ntp545
Rp546
(dp547
g10
g62
sg63
V333333
p548
sg65
Ven
p549
sg67
VEastern Time (US & Canada)
p550
sg69
I1125
sg70
I23733
sg36
VWed Oct 10 01:35:28 +0000 2012
p551
sg72
I00
sg73
VIG: @_amaramoore ................................. single, senior, hooper
p552
sg75
Vhttps://pbs.twimg.com/profile_images/541409640655765504/OSph9-1M_normal.jpeg
p553
sg77
I644
sg78
I2277
sg79
I-18000
sg80
Nsg81
I00
sg82
Vhttps://pbs.twimg.com/profile_banners/870912158/1417917161
p554
sg84
I00
sg85
I00
sg86
V0084B4
p555
sg88
I00
sg89
I00
sg90
Vhttp://abs.twimg.com/images/themes/theme1/bg.png
p556
sg92
Vamaramoore_
p557
sg94
I1
sg95
V\u0101
p558
sg97
VDDEEF6
p559
sg99
Nsg101
I870912158
sg102
VC0DEED
p560
sbsg104
I1
sg105
V<a href="http://twitter.com/download/iphone" rel="nofollow">Twitter for iPhone</a>
p561
sg107
(lp562
sg101
I542724551818215425
sbag3
(g4
g5
Ntp563
Rp564
(dp565
g9
I0
sg10
Nsg11
Nsg12
(lp566
sg20
I00
sg21
Nsg30
Nsg31
(lp567
sg33
Nsg34
Nsg35
Nsg36
VWed Dec 10 16:56:29 +0000 2014
p568
sg38
Nsg39
Nsg40
VFrancis_bitches
p569
sg41
Nsg42
I566015541
sg43
Nsg44
I00
sg45
Nsg46
(lp570
g3
(g58
g5
Ntp571
Rp572
(dp573
g10
Nsg63
Nsg65
Nsg67
Nsg69
Nsg70
Nsg36
Nsg72
Nsg73
Nsg75
Nsg77
Nsg78
Nsg79
Nsg80
Nsg81
Nsg82
Nsg84
Nsg85
Nsg86
Nsg88
Nsg89
Nsg90
Nsg92
VFrancis_bitches
p574
sg94
Nsg95
VImannni\u2764\ufe0f
p575
sg97
Nsg99
Nsg101
I566015541
sg102
Nsbag3
(g58
g5
Ntp576
Rp577
(dp578
g10
Nsg63
Nsg65
Nsg67
Nsg69
Nsg70
Nsg36
Nsg72
Nsg73
Nsg75
Nsg77
Nsg78
Nsg79
Nsg80
Nsg81
Nsg82
Nsg84
Nsg85
Nsg86
Nsg88
Nsg89
Nsg90
Nsg92
Vamaramoore_
p579
sg94
Nsg95
V\u0101
p580
sg97
Nsg99
Nsg101
I870912158
sg102
Nsbasg48
Nsg49
V542724543911960576
p581
sg51
I542723879157112832
sg52
V\u201c@Francis_bitches: @amaramoore_ Avi &gt;&gt;&gt;&gt; \U0001f60d\U0001f60d\U0001f60d\U0001f629\u201d thank you girl \U0001f618\u2764\ufe0f
p582
sg54
I00
sg55
Ven
p583
sg57
g3
(g58
g5
Ntp584
Rp585
(dp586
g10
g62
sg63
V333333
p587
sg65
Ven
p588
sg67
VEastern Time (US & Canada)
p589
sg69
I1125
sg70
I23733
sg36
VWed Oct 10 01:35:28 +0000 2012
p590
sg72
I00
sg73
VIG: @_amaramoore ................................. single, senior, hooper
p591
sg75
Vhttps://pbs.twimg.com/profile_images/541409640655765504/OSph9-1M_normal.jpeg
p592
sg77
I644
sg78
I2277
sg79
I-18000
sg80
Nsg81
I00
sg82
Vhttps://pbs.twimg.com/profile_banners/870912158/1417917161
p593
sg84
I00
sg85
I00
sg86
V0084B4
p594
sg88
I00
sg89
I00
sg90
Vhttp://abs.twimg.com/images/themes/theme1/bg.png
p595
sg92
Vamaramoore_
p596
sg94
I1
sg95
V\u0101
p597
sg97
VDDEEF6
p598
sg99
Nsg101
I870912158
sg102
VC0DEED
p599
sbsg104
I1
sg105
V<a href="http://twitter.com/download/iphone" rel="nofollow">Twitter for iPhone</a>
p600
sg107
(lp601
sg101
I542724543911960576
sbag3
(g4
g5
Ntp602
Rp603
(dp604
g9
I0
sg10
Nsg11
Nsg12
(lp605
sg20
I00
sg21
Nsg30
Nsg31
(lp606
sg33
Nsg34
Nsg35
Nsg36
VWed Dec 10 16:25:51 +0000 2014
p607
sg38
Nsg39
Nsg40
Nsg41
Nsg42
Nsg43
Nsg44
I00
sg45
Nsg46
(lp608
sg48
Nsg49
V542716837796921344
p609
sg51
Nsg52
VI'm so irritated I want this week to b over with.
p610
sg54
I00
sg55
Ven
p611
sg57
g3
(g58
g5
Ntp612
Rp613
(dp614
g10
g62
sg63
V333333
p615
sg65
Ven
p616
sg67
VEastern Time (US & Canada)
p617
sg69
I1125
sg70
I23733
sg36
VWed Oct 10 01:35:28 +0000 2012
p618
sg72
I00
sg73
VIG: @_amaramoore ................................. single, senior, hooper
p619
sg75
Vhttps://pbs.twimg.com/profile_images/541409640655765504/OSph9-1M_normal.jpeg
p620
sg77
I644
sg78
I2277
sg79
I-18000
sg80
Nsg81
I00
sg82
Vhttps://pbs.twimg.com/profile_banners/870912158/1417917161
p621
sg84
I00
sg85
I00
sg86
V0084B4
p622
sg88
I00
sg89
I00
sg90
Vhttp://abs.twimg.com/images/themes/theme1/bg.png
p623
sg92
Vamaramoore_
p624
sg94
I1
sg95
V\u0101
p625
sg97
VDDEEF6
p626
sg99
Nsg101
I870912158
sg102
VC0DEED
p627
sbsg104
I0
sg105
V<a href="http://twitter.com/download/iphone" rel="nofollow">Twitter for iPhone</a>
p628
sg107
(lp629
sg101
I542716837796921344
sbag3
(g4
g5
Ntp630
Rp631
(dp632
g9
I1
sg10
Nsg11
Nsg12
(lp633
sg20
I00
sg21
Nsg30
Nsg31
(lp634
sg33
Nsg34
Nsg35
Nsg36
VWed Dec 10 16:21:34 +0000 2014
p635
sg38
Nsg39
Nsg40
Vmeeraconley
p636
sg41
Nsg42
I465035252
sg43
Nsg44
I00
sg45
Nsg46
(lp637
g3
(g58
g5
Ntp638
Rp639
(dp640
g10
Nsg63
Nsg65
Nsg67
Nsg69
Nsg70
Nsg36
Nsg72
Nsg73
Nsg75
Nsg77
Nsg78
Nsg79
Nsg80
Nsg81
Nsg82
Nsg84
Nsg85
Nsg86
Nsg88
Nsg89
Nsg90
Nsg92
Vmeeraconley
p641
sg94
Nsg95
Vidc || Dec 10
p642
sg97
Nsg99
Nsg101
I465035252
sg102
Nsbasg48
Nsg49
V542715757998526464
p643
sg51
Nsg52
V@meeraconley happy birthday shawty \U0001f604\U0001f389
p644
sg54
I00
sg55
Ven
p645
sg57
g3
(g58
g5
Ntp646
Rp647
(dp648
g10
g62
sg63
V333333
p649
sg65
Ven
p650
sg67
VEastern Time (US & Canada)
p651
sg69
I1125
sg70
I23733
sg36
VWed Oct 10 01:35:28 +0000 2012
p652
sg72
I00
sg73
VIG: @_amaramoore ................................. single, senior, hooper
p653
sg75
Vhttps://pbs.twimg.com/profile_images/541409640655765504/OSph9-1M_normal.jpeg
p654
sg77
I644
sg78
I2277
sg79
I-18000
sg80
Nsg81
I00
sg82
Vhttps://pbs.twimg.com/profile_banners/870912158/1417917161
p655
sg84
I00
sg85
I00
sg86
V0084B4
p656
sg88
I00
sg89
I00
sg90
Vhttp://abs.twimg.com/images/themes/theme1/bg.png
p657
sg92
Vamaramoore_
p658
sg94
I1
sg95
V\u0101
p659
sg97
VDDEEF6
p660
sg99
Nsg101
I870912158
sg102
VC0DEED
p661
sbsg104
I1
sg105
V<a href="http://twitter.com/download/iphone" rel="nofollow">Twitter for iPhone</a>
p662
sg107
(lp663
sg101
I542715757998526464
sbag3
(g4
g5
Ntp664
Rp665
(dp666
g9
I0
sg10
Nsg11
Nsg12
(lp667
g3
(g14
g5
Ntp668
Rp669
(dp670
g18
Vrandomtweet
p671
sbasg20
I00
sg21
g3
(g4
g5
Ntp672
Rp673
(dp674
g9
I1
sg10
Nsg11
Nsg12
(lp675
g3
(g14
g5
Ntp676
Rp677
(dp678
g18
Vrandomtweet
p679
sbasg20
I00
sg21
Nsg30
Nsg31
(lp680
sg33
Nsg34
Nsg35
Nsg36
VTue Dec 09 21:22:53 +0000 2014
p681
sg38
Nsg39
Nsg40
Nsg41
Nsg42
Nsg43
Nsg44
I00
sg45
Nsg46
(lp682
sg48
Nsg49
V542429196937461760
p683
sg51
Nsg52
VMar mar sooooo pretty #randomtweet
p684
sg54
I00
sg55
Ven
p685
sg57
g3
(g58
g5
Ntp686
Rp687
(dp688
g10
VAmpadictirious and Independent
p689
sg63
V000000
p690
sg65
Ven
p691
sg67
VCentral Time (US & Canada)
p692
sg69
I849
sg70
I21852
sg36
VThu Apr 14 00:46:15 +0000 2011
p693
sg72
I00
sg73
g62
sg75
Vhttps://pbs.twimg.com/profile_images/544151065244221440/O889MOpM_normal.jpeg
p694
sg77
I824
sg78
I10111
sg79
I-21600
sg80
Nsg81
I00
sg82
Vhttps://pbs.twimg.com/profile_banners/281805839/1418483369
p695
sg84
I00
sg85
I00
sg86
V89C9FA
p696
sg88
I01
sg89
I00
sg90
Vhttp://abs.twimg.com/images/themes/theme1/bg.png
p697
sg92
Vairellesib
p698
sg94
I2
sg95
VA-$ib
p699
sg97
V000000
p700
sg99
Nsg101
I281805839
sg102
V000000
p701
sbsg104
I1
sg105
V<a href="http://twitter.com/download/android" rel="nofollow">Twitter for Android</a>
p702
sg107
(lp703
sg101
I542429196937461760
sbsg30
Nsg31
(lp704
sg33
Nsg34
Nsg35
Nsg36
VTue Dec 09 21:30:31 +0000 2014
p705
sg38
Nsg39
Nsg40
Nsg41
Nsg42
Nsg43
Nsg44
I00
sg45
Nsg46
(lp706
g3
(g58
g5
Ntp707
Rp708
(dp709
g10
Nsg63
Nsg65
Nsg67
Nsg69
Nsg70
Nsg36
Nsg72
Nsg73
Nsg75
Nsg77
Nsg78
Nsg79
Nsg80
Nsg81
Nsg82
Nsg84
Nsg85
Nsg86
Nsg88
Nsg89
Nsg90
Nsg92
Vairellesib
p710
sg94
Nsg95
VAirelle..
p711
sg97
Nsg99
Nsg101
I281805839
sg102
Nsbasg48
Nsg49
V542431119912607744
p712
sg51
Nsg52
VRT @airellesib: Mar mar sooooo pretty #randomtweet
p713
sg54
I00
sg55
Ven
p714
sg57
g3
(g58
g5
Ntp715
Rp716
(dp717
g10
g62
sg63
V333333
p718
sg65
Ven
p719
sg67
VEastern Time (US & Canada)
p720
sg69
I1125
sg70
I23733
sg36
VWed Oct 10 01:35:28 +0000 2012
p721
sg72
I00
sg73
VIG: @_amaramoore ................................. single, senior, hooper
p722
sg75
Vhttps://pbs.twimg.com/profile_images/541409640655765504/OSph9-1M_normal.jpeg
p723
sg77
I644
sg78
I2277
sg79
I-18000
sg80
Nsg81
I00
sg82
Vhttps://pbs.twimg.com/profile_banners/870912158/1417917161
p724
sg84
I00
sg85
I00
sg86
V0084B4
p725
sg88
I00
sg89
I00
sg90
Vhttp://abs.twimg.com/images/themes/theme1/bg.png
p726
sg92
Vamaramoore_
p727
sg94
I1
sg95
V\u0101
p728
sg97
VDDEEF6
p729
sg99
Nsg101
I870912158
sg102
VC0DEED
p730
sbsg104
I1
sg105
V<a href="http://twitter.com/download/iphone" rel="nofollow">Twitter for iPhone</a>
p731
sg107
(lp732
sg101
I542431119912607744
sbag3
(g4
g5
Ntp733
Rp734
(dp735
g9
I1
sg10
Nsg11
Nsg12
(lp736
g3
(g14
g5
Ntp737
Rp738
(dp739
g18
Vrandomtweet
p740
sbasg20
I00
sg21
Nsg30
Nsg31
(lp741
sg33
Nsg34
Nsg35
Nsg36
VTue Dec 09 21:30:30 +0000 2014
p742
sg38
Nsg39
Nsg40
Vairellesib
p743
sg41
Nsg42
I281805839
sg43
Nsg44
I00
sg45
Nsg46
(lp744
g3
(g58
g5
Ntp745
Rp746
(dp747
g10
Nsg63
Nsg65
Nsg67
Nsg69
Nsg70
Nsg36
Nsg72
Nsg73
Nsg75
Nsg77
Nsg78
Nsg79
Nsg80
Nsg81
Nsg82
Nsg84
Nsg85
Nsg86
Nsg88
Nsg89
Nsg90
Nsg92
Vairellesib
p748
sg94
Nsg95
VAirelle..
p749
sg97
Nsg99
Nsg101
I281805839
sg102
Nsbasg48
Nsg49
V542431113600192514
p750
sg51
I542429196937461760
sg52
V\u201c@airellesib: Mar mar sooooo pretty #randomtweet\u201d thanks Air , yu so handsome lol \U0001f618\U0001f648\U0001f60f
p751
sg54
I00
sg55
Ven
p752
sg57
g3
(g58
g5
Ntp753
Rp754
(dp755
g10
g62
sg63
V333333
p756
sg65
Ven
p757
sg67
VEastern Time (US & Canada)
p758
sg69
I1125
sg70
I23733
sg36
VWed Oct 10 01:35:28 +0000 2012
p759
sg72
I00
sg73
VIG: @_amaramoore ................................. single, senior, hooper
p760
sg75
Vhttps://pbs.twimg.com/profile_images/541409640655765504/OSph9-1M_normal.jpeg
p761
sg77
I644
sg78
I2277
sg79
I-18000
sg80
Nsg81
I00
sg82
Vhttps://pbs.twimg.com/profile_banners/870912158/1417917161
p762
sg84
I00
sg85
I00
sg86
V0084B4
p763
sg88
I00
sg89
I00
sg90
Vhttp://abs.twimg.com/images/themes/theme1/bg.png
p764
sg92
Vamaramoore_
p765
sg94
I1
sg95
V\u0101
p766
sg97
VDDEEF6
p767
sg99
Nsg101
I870912158
sg102
VC0DEED
p768
sbsg104
I1
sg105
V<a href="http://twitter.com/download/iphone" rel="nofollow">Twitter for iPhone</a>
p769
sg107
(lp770
sg101
I542431113600192514
sbag3
(g4
g5
Ntp771
Rp772
(dp773
g9
I0
sg10
Nsg11
Nsg12
(lp774
sg20
I00
sg21
g3
(g4
g5
Ntp775
Rp776
(dp777
g9
I6808
sg10
Nsg11
Nsg12
(lp778
sg20
I00
sg21
Nsg30
Nsg31
(lp779
(dp780
Vexpanded_url
p781
Vhttp://twitter.com/BluntPorn/status/535221456834416641/photo/1
p782
sVdisplay_url
p783
Vpic.twitter.com/SFzJp8fjfV
p784
sVurl
p785
Vhttp://t.co/SFzJp8fjfV
p786
sVmedia_url_https
p787
Vhttps://pbs.twimg.com/media/B219EBbIMAAUioM.jpg
p788
sVid_str
p789
V535221438782124032
p790
sVsizes
p791
(dp792
Vsmall
p793
(dp794
Vh
p795
I340
sVresize
p796
Vfit
p797
sVw
p798
I340
ssVlarge
p799
(dp800
Vh
p801
I640
sVresize
p802
Vfit
p803
sVw
p804
I640
ssVmedium
p805
(dp806
Vh
p807
I600
sVresize
p808
Vfit
p809
sVw
p810
I600
ssVthumb
p811
(dp812
Vh
p813
I150
sVresize
p814
Vcrop
p815
sVw
p816
I150
sssVindices
p817
(lp818
I20
aI42
asVtype
p819
Vphoto
p820
sVid
p821
I535221438782124032
sVmedia_url
p822
Vhttp://pbs.twimg.com/media/B219EBbIMAAUioM.jpg
p823
sasg33
Nsg34
Nsg35
Nsg36
VThu Nov 20 00:01:53 +0000 2014
p824
sg38
Nsg39
I00
sg40
Nsg41
Nsg42
Nsg43
Nsg44
I00
sg45
Nsg46
(lp825
sg48
Nsg49
V535221456834416641
p826
sg51
Nsg52
VI AINT GOT NO TYPE\U0001f3b6 http://t.co/SFzJp8fjfV
p827
sg54
I00
sg55
Ven
p828
sg57
g3
(g58
g5
Ntp829
Rp830
(dp831
g10
g62
sg63
V333333
p832
sg65
Ven
p833
sg67
VCentral Time (US & Canada)
p834
sg69
I90522
sg70
I384
sg36
VThu Feb 13 03:22:09 +0000 2014
p835
sg72
I00
sg73
Vthetwitterbizz@gmail.com
p836
sg75
Vhttps://pbs.twimg.com/profile_images/433808907807371266/vQitVscA_normal.jpeg
p837
sg77
I1
sg78
I51
sg79
I-21600
sg80
Nsg81
I00
sg82
Vhttps://pbs.twimg.com/profile_banners/2341308506/1392264986
p838
sg84
I00
sg85
I00
sg86
V0084B4
p839
sg88
I00
sg89
I00
sg90
Vhttp://abs.twimg.com/images/themes/theme1/bg.png
p840
sg92
VBluntPorn
p841
sg94
I64
sg95
VBlunt Porn
p842
sg97
VDDEEF6
p843
sg99
Nsg101
I2341308506
sg102
VC0DEED
p844
sbsg104
I5866
sg105
V<a href="http://twitter.com/download/iphone" rel="nofollow">Twitter for iPhone</a>
p845
sg107
(lp846
sg101
I535221456834416641
sbsg30
Nsg31
(lp847
(dp848
Vsource_user_id
p849
I2341308506
sVsource_status_id_str
p850
V535221456834416641
p851
sVexpanded_url
p852
Vhttp://twitter.com/BluntPorn/status/535221456834416641/photo/1
p853
sVdisplay_url
p854
Vpic.twitter.com/SFzJp8fjfV
p855
sVurl
p856
Vhttp://t.co/SFzJp8fjfV
p857
sVmedia_url_https
p858
Vhttps://pbs.twimg.com/media/B219EBbIMAAUioM.jpg
p859
sVsource_user_id_str
p860
V2341308506
p861
sVsource_status_id
p862
I535221456834416641
sVid_str
p863
V535221438782124032
p864
sVsizes
p865
(dp866
Vsmall
p867
(dp868
Vh
p869
I340
sVresize
p870
Vfit
p871
sVw
p872
I340
ssVlarge
p873
(dp874
Vh
p875
I640
sVresize
p876
Vfit
p877
sVw
p878
I640
ssVmedium
p879
(dp880
Vh
p881
I600
sVresize
p882
Vfit
p883
sVw
p884
I600
ssVthumb
p885
(dp886
Vh
p887
I150
sVresize
p888
Vcrop
p889
sVw
p890
I150
sssVindices
p891
(lp892
I35
aI57
asVtype
p893
Vphoto
p894
sVid
p895
I535221438782124032
sVmedia_url
p896
Vhttp://pbs.twimg.com/media/B219EBbIMAAUioM.jpg
p897
sasg33
Nsg34
Nsg35
Nsg36
VTue Dec 09 20:11:10 +0000 2014
p898
sg38
Nsg39
I00
sg40
Nsg41
Nsg42
Nsg43
Nsg44
I00
sg45
Nsg46
(lp899
g3
(g58
g5
Ntp900
Rp901
(dp902
g10
Nsg63
Nsg65
Nsg67
Nsg69
Nsg70
Nsg36
Nsg72
Nsg73
Nsg75
Nsg77
Nsg78
Nsg79
Nsg80
Nsg81
Nsg82
Nsg84
Nsg85
Nsg86
Nsg88
Nsg89
Nsg90
Nsg92
VBluntPorn
p903
sg94
Nsg95
VBlunt Porn
p904
sg97
Nsg99
Nsg101
I2341308506
sg102
Nsbasg48
Nsg49
V542411150453768194
p905
sg51
Nsg52
VRT @BluntPorn: I AINT GOT NO TYPE\U0001f3b6 http://t.co/SFzJp8fjfV
p906
sg54
I00
sg55
Ven
p907
sg57
g3
(g58
g5
Ntp908
Rp909
(dp910
g10
g62
sg63
V333333
p911
sg65
Ven
p912
sg67
VEastern Time (US & Canada)
p913
sg69
I1125
sg70
I23733
sg36
VWed Oct 10 01:35:28 +0000 2012
p914
sg72
I00
sg73
VIG: @_amaramoore ................................. single, senior, hooper
p915
sg75
Vhttps://pbs.twimg.com/profile_images/541409640655765504/OSph9-1M_normal.jpeg
p916
sg77
I644
sg78
I2277
sg79
I-18000
sg80
Nsg81
I00
sg82
Vhttps://pbs.twimg.com/profile_banners/870912158/1417917161
p917
sg84
I00
sg85
I00
sg86
V0084B4
p918
sg88
I00
sg89
I00
sg90
Vhttp://abs.twimg.com/images/themes/theme1/bg.png
p919
sg92
Vamaramoore_
p920
sg94
I1
sg95
V\u0101
p921
sg97
VDDEEF6
p922
sg99
Nsg101
I870912158
sg102
VC0DEED
p923
sbsg104
I5866
sg105
V<a href="http://twitter.com/download/iphone" rel="nofollow">Twitter for iPhone</a>
p924
sg107
(lp925
sg101
I542411150453768194
sbag3
(g4
g5
Ntp926
Rp927
(dp928
g9
I0
sg10
Nsg11
Nsg12
(lp929
sg20
I00
sg21
Nsg30
Nsg31
(lp930
sg33
Nsg34
Nsg35
Nsg36
VTue Dec 09 17:24:01 +0000 2014
p931
sg38
Nsg39
Nsg40
VGEEK_Qtino
p932
sg41
Nsg42
I167229156
sg43
Nsg44
I00
sg45
Nsg46
(lp933
g3
(g58
g5
Ntp934
Rp935
(dp936
g10
Nsg63
Nsg65
Nsg67
Nsg69
Nsg70
Nsg36
Nsg72
Nsg73
Nsg75
Nsg77
Nsg78
Nsg79
Nsg80
Nsg81
Nsg82
Nsg84
Nsg85
Nsg86
Nsg88
Nsg89
Nsg90
Nsg92
VGEEK_Qtino
p937
sg94
Nsg95
VAhoo Papa Q 
p938
sg97
Nsg99
Nsg101
I167229156
sg102
Nsbasg48
Nsg49
V542369084902363137
p939
sg51
I542368865838444544
sg52
V@GEEK_Qtino r u ?
p940
sg54
I00
sg55
Vund
p941
sg57
g3
(g58
g5
Ntp942
Rp943
(dp944
g10
g62
sg63
V333333
p945
sg65
Ven
p946
sg67
VEastern Time (US & Canada)
p947
sg69
I1125
sg70
I23733
sg36
VWed Oct 10 01:35:28 +0000 2012
p948
sg72
I00
sg73
VIG: @_amaramoore ................................. single, senior, hooper
p949
sg75
Vhttps://pbs.twimg.com/profile_images/541409640655765504/OSph9-1M_normal.jpeg
p950
sg77
I644
sg78
I2277
sg79
I-18000
sg80
Nsg81
I00
sg82
Vhttps://pbs.twimg.com/profile_banners/870912158/1417917161
p951
sg84
I00
sg85
I00
sg86
V0084B4
p952
sg88
I00
sg89
I00
sg90
Vhttp://abs.twimg.com/images/themes/theme1/bg.png
p953
sg92
Vamaramoore_
p954
sg94
I1
sg95
V\u0101
p955
sg97
VDDEEF6
p956
sg99
Nsg101
I870912158
sg102
VC0DEED
p957
sbsg104
I0
sg105
V<a href="http://twitter.com/download/iphone" rel="nofollow">Twitter for iPhone</a>
p958
sg107
(lp959
sg101
I542369084902363137
sbag3
(g4
g5
Ntp960
Rp961
(dp962
g9
I0
sg10
Nsg11
Nsg12
(lp963
sg20
I00
sg21
Nsg30
Nsg31
(lp964
sg33
Nsg34
Nsg35
Nsg36
VTue Dec 09 17:19:58 +0000 2014
p965
sg38
Nsg39
Nsg40
VGEEK_Qtino
p966
sg41
Nsg42
I167229156
sg43
Nsg44
I00
sg45
Nsg46
(lp967
g3
(g58
g5
Ntp968
Rp969
(dp970
g10
Nsg63
Nsg65
Nsg67
Nsg69
Nsg70
Nsg36
Nsg72
Nsg73
Nsg75
Nsg77
Nsg78
Nsg79
Nsg80
Nsg81
Nsg82
Nsg84
Nsg85
Nsg86
Nsg88
Nsg89
Nsg90
Nsg92
VGEEK_Qtino
p971
sg94
Nsg95
VAhoo Papa Q 
p972
sg97
Nsg99
Nsg101
I167229156
sg102
Nsbasg48
Nsg49
V542368067062202369
p973
sg51
I542367610789462016
sg52
V@GEEK_Qtino prolly not!
p974
sg54
I00
sg55
Ven
p975
sg57
g3
(g58
g5
Ntp976
Rp977
(dp978
g10
g62
sg63
V333333
p979
sg65
Ven
p980
sg67
VEastern Time (US & Canada)
p981
sg69
I1125
sg70
I23733
sg36
VWed Oct 10 01:35:28 +0000 2012
p982
sg72
I00
sg73
VIG: @_amaramoore ................................. single, senior, hooper
p983
sg75
Vhttps://pbs.twimg.com/profile_images/541409640655765504/OSph9-1M_normal.jpeg
p984
sg77
I644
sg78
I2277
sg79
I-18000
sg80
Nsg81
I00
sg82
Vhttps://pbs.twimg.com/profile_banners/870912158/1417917161
p985
sg84
I00
sg85
I00
sg86
V0084B4
p986
sg88
I00
sg89
I00
sg90
Vhttp://abs.twimg.com/images/themes/theme1/bg.png
p987
sg92
Vamaramoore_
p988
sg94
I1
sg95
V\u0101
p989
sg97
VDDEEF6
p990
sg99
Nsg101
I870912158
sg102
VC0DEED
p991
sbsg104
I0
sg105
V<a href="http://twitter.com/download/iphone" rel="nofollow">Twitter for iPhone</a>
p992
sg107
(lp993
sg101
I542368067062202369
sbag3
(g4
g5
Ntp994
Rp995
(dp996
g9
I0
sg10
Nsg11
Nsg12
(lp997
g3
(g14
g5
Ntp998
Rp999
(dp1000
g18
VFireFoams
p1001
sbag3
(g14
g5
Ntp1002
Rp1003
(dp1004
g18
VLaceEmUp
p1005
sbasg20
I00
sg21
g3
(g4
g5
Ntp1006
Rp1007
(dp1008
g9
I27
sg10
Nsg11
Nsg12
(lp1009
g3
(g14
g5
Ntp1010
Rp1011
(dp1012
g18
VFireFoams
p1013
sbag3
(g14
g5
Ntp1014
Rp1015
(dp1016
g18
VLaceEmUp
p1017
sbasg20
I00
sg21
Nsg30
Nsg31
(lp1018
(dp1019
Vexpanded_url
p1020
Vhttp://twitter.com/LaceEmUpCustoms/status/541658311155015680/photo/1
p1021
sVdisplay_url
p1022
Vpic.twitter.com/QnIc45Fqyz
p1023
sVurl
p1024
Vhttp://t.co/QnIc45Fqyz
p1025
sVmedia_url_https
p1026
Vhttps://pbs.twimg.com/media/B4RbTjRCUAAicLu.jpg
p1027
sVid_str
p1028
V541658246633639936
p1029
sVsizes
p1030
(dp1031
Vsmall
p1032
(dp1033
Vh
p1034
I226
sVresize
p1035
Vfit
p1036
sVw
p1037
I340
ssVlarge
p1038
(dp1039
Vh
p1040
I667
sVresize
p1041
Vfit
p1042
sVw
p1043
I1000
ssVmedium
p1044
(dp1045
Vh
p1046
I400
sVresize
p1047
Vfit
p1048
sVw
p1049
I600
ssVthumb
p1050
(dp1051
Vh
p1052
I150
sVresize
p1053
Vcrop
p1054
sVw
p1055
I150
sssVindices
p1056
(lp1057
I53
aI75
asVtype
p1058
Vphoto
p1059
sVid
p1060
I541658246633639936
sVmedia_url
p1061
Vhttp://pbs.twimg.com/media/B4RbTjRCUAAicLu.jpg
p1062
sasg33
Nsg34
Nsg35
Nsg36
VSun Dec 07 18:19:39 +0000 2014
p1063
sg38
Nsg39
I00
sg40
Nsg41
Nsg42
Nsg43
Nsg44
I00
sg45
Nsg46
(lp1064
sg48
Nsg49
V541658311155015680
p1065
sg51
Nsg52
VNike Air Foamposite "Hades" \U0001f631\U0001f631\U0001f631 #FireFoams #LaceEmUp http://t.co/QnIc45Fqyz
p1066
sg54
I00
sg55
Ven
p1067
sg57
g3
(g58
g5
Ntp1068
Rp1069
(dp1070
g10
VNew York
p1071
sg63
V333333
p1072
sg65
Ven
p1073
sg67
Nsg69
I16225
sg70
I1841
sg36
VMon Dec 23 18:25:53 +0000 2013
p1074
sg72
I00
sg73
VTwitter page showing off the hottest J's and customs! We don't take credit for any of the pictures, we just tweet them! #LaceEmUp LaceEmUpCustoms@yahoo.com
p1075
sg75
Vhttps://pbs.twimg.com/profile_images/421392208730673152/Xhge-X5D_normal.png
p1076
sg77
I11664
sg78
I2083
sg79
Nsg80
Nsg81
I00
sg82
Vhttps://pbs.twimg.com/profile_banners/2259253886/1409693354
p1077
sg84
I00
sg85
I01
sg86
V0084B4
p1078
sg88
I00
sg89
I00
sg90
Vhttp://pbs.twimg.com/profile_background_images/378800000165419666/gu9Fg9xo.png
p1079
sg92
VLaceEmUpCustoms
p1080
sg94
I12
sg95
VLace Em Up Customs
p1081
sg97
VDDEEF6
p1082
sg99
Vhttp://t.co/VjWWdBUMQU
p1083
sg101
I2259253886
sg102
VC0DEED
p1084
sbsg104
I44
sg105
V<a href="http://twitter.com/download/iphone" rel="nofollow">Twitter for iPhone</a>
p1085
sg107
(lp1086
sg101
I541658311155015680
sbsg30
Nsg31
(lp1087
(dp1088
Vsource_user_id
p1089
I2259253886
sVsource_status_id_str
p1090
V541658311155015680
p1091
sVexpanded_url
p1092
Vhttp://twitter.com/LaceEmUpCustoms/status/541658311155015680/photo/1
p1093
sVdisplay_url
p1094
Vpic.twitter.com/QnIc45Fqyz
p1095
sVurl
p1096
Vhttp://t.co/QnIc45Fqyz
p1097
sVmedia_url_https
p1098
Vhttps://pbs.twimg.com/media/B4RbTjRCUAAicLu.jpg
p1099
sVsource_user_id_str
p1100
V2259253886
p1101
sVsource_status_id
p1102
I541658311155015680
sVid_str
p1103
V541658246633639936
p1104
sVsizes
p1105
(dp1106
Vsmall
p1107
(dp1108
Vh
p1109
I226
sVresize
p1110
Vfit
p1111
sVw
p1112
I340
ssVlarge
p1113
(dp1114
Vh
p1115
I667
sVresize
p1116
Vfit
p1117
sVw
p1118
I1000
ssVmedium
p1119
(dp1120
Vh
p1121
I400
sVresize
p1122
Vfit
p1123
sVw
p1124
I600
ssVthumb
p1125
(dp1126
Vh
p1127
I150
sVresize
p1128
Vcrop
p1129
sVw
p1130
I150
sssVindices
p1131
(lp1132
I74
aI96
asVtype
p1133
Vphoto
p1134
sVid
p1135
I541658246633639936
sVmedia_url
p1136
Vhttp://pbs.twimg.com/media/B4RbTjRCUAAicLu.jpg
p1137
sasg33
Nsg34
Nsg35
Nsg36
VTue Dec 09 17:19:05 +0000 2014
p1138
sg38
Nsg39
I00
sg40
Nsg41
Nsg42
Nsg43
Nsg44
I00
sg45
Nsg46
(lp1139
g3
(g58
g5
Ntp1140
Rp1141
(dp1142
g10
Nsg63
Nsg65
Nsg67
Nsg69
Nsg70
Nsg36
Nsg72
Nsg73
Nsg75
Nsg77
Nsg78
Nsg79
Nsg80
Nsg81
Nsg82
Nsg84
Nsg85
Nsg86
Nsg88
Nsg89
Nsg90
Nsg92
VLaceEmUpCustoms
p1143
sg94
Nsg95
VLace Em Up Customs
p1144
sg97
Nsg99
Nsg101
I2259253886
sg102
Nsbasg48
Nsg49
V542367842851487744
p1145
sg51
Nsg52
VRT @LaceEmUpCustoms: Nike Air Foamposite "Hades" \U0001f631\U0001f631\U0001f631 #FireFoams #LaceEmUp http://t.co/QnIc45Fqyz
p1146
sg54
I00
sg55
Ven
p1147
sg57
g3
(g58
g5
Ntp1148
Rp1149
(dp1150
g10
g62
sg63
V333333
p1151
sg65
Ven
p1152
sg67
VEastern Time (US & Canada)
p1153
sg69
I1125
sg70
I23733
sg36
VWed Oct 10 01:35:28 +0000 2012
p1154
sg72
I00
sg73
VIG: @_amaramoore ................................. single, senior, hooper
p1155
sg75
Vhttps://pbs.twimg.com/profile_images/541409640655765504/OSph9-1M_normal.jpeg
p1156
sg77
I644
sg78
I2277
sg79
I-18000
sg80
Nsg81
I00
sg82
Vhttps://pbs.twimg.com/profile_banners/870912158/1417917161
p1157
sg84
I00
sg85
I00
sg86
V0084B4
p1158
sg88
I00
sg89
I00
sg90
Vhttp://abs.twimg.com/images/themes/theme1/bg.png
p1159
sg92
Vamaramoore_
p1160
sg94
I1
sg95
V\u0101
p1161
sg97
VDDEEF6
p1162
sg99
Nsg101
I870912158
sg102
VC0DEED
p1163
sbsg104
I44
sg105
V<a href="http://twitter.com/download/iphone" rel="nofollow">Twitter for iPhone</a>
p1164
sg107
(lp1165
sg101
I542367842851487744
sbag3
(g4
g5
Ntp1166
Rp1167
(dp1168
g9
I0
sg10
Nsg11
Nsg12
(lp1169
sg20
I00
sg21
Nsg30
Nsg31
(lp1170
sg33
Nsg34
Nsg35
Nsg36
VTue Dec 09 17:15:42 +0000 2014
p1171
sg38
Nsg39
Nsg40
Nsg41
Nsg42
Nsg43
Nsg44
I00
sg45
Nsg46
(lp1172
sg48
Nsg49
V542366994855505920
p1173
sg51
Nsg52
VI haven't copped no sneakers in a grip
p1174
sg54
I00
sg55
Ven
p1175
sg57
g3
(g58
g5
Ntp1176
Rp1177
(dp1178
g10
g62
sg63
V333333
p1179
sg65
Ven
p1180
sg67
VEastern Time (US & Canada)
p1181
sg69
I1125
sg70
I23733
sg36
VWed Oct 10 01:35:28 +0000 2012
p1182
sg72
I00
sg73
VIG: @_amaramoore ................................. single, senior, hooper
p1183
sg75
Vhttps://pbs.twimg.com/profile_images/541409640655765504/OSph9-1M_normal.jpeg
p1184
sg77
I644
sg78
I2277
sg79
I-18000
sg80
Nsg81
I00
sg82
Vhttps://pbs.twimg.com/profile_banners/870912158/1417917161
p1185
sg84
I00
sg85
I00
sg86
V0084B4
p1186
sg88
I00
sg89
I00
sg90
Vhttp://abs.twimg.com/images/themes/theme1/bg.png
p1187
sg92
Vamaramoore_
p1188
sg94
I1
sg95
V\u0101
p1189
sg97
VDDEEF6
p1190
sg99
Nsg101
I870912158
sg102
VC0DEED
p1191
sbsg104
I0
sg105
V<a href="http://twitter.com/download/iphone" rel="nofollow">Twitter for iPhone</a>
p1192
sg107
(lp1193
sg101
I542366994855505920
sbag3
(g4
g5
Ntp1194
Rp1195
(dp1196
g9
I1
sg10
Nsg11
Nsg12
(lp1197
g3
(g14
g5
Ntp1198
Rp1199
(dp1200
g18
VGAMEDAY
p1201
sbasg20
I00
sg21
Nsg30
Nsg31
(lp1202
sg33
Nsg34
Nsg35
Nsg36
VTue Dec 09 17:15:17 +0000 2014
p1203
sg38
Nsg39
Nsg40
Nsg41
Nsg42
Nsg43
Nsg44
I00
sg45
Nsg46
(lp1204
sg48
Nsg49
V542366886856384512
p1205
sg51
Nsg52
V#GAMEDAY \U0001f3c0
p1206
sg54
I00
sg55
Vund
p1207
sg57
g3
(g58
g5
Ntp1208
Rp1209
(dp1210
g10
g62
sg63
V333333
p1211
sg65
Ven
p1212
sg67
VEastern Time (US & Canada)
p1213
sg69
I1125
sg70
I23733
sg36
VWed Oct 10 01:35:28 +0000 2012
p1214
sg72
I00
sg73
VIG: @_amaramoore ................................. single, senior, hooper
p1215
sg75
Vhttps://pbs.twimg.com/profile_images/541409640655765504/OSph9-1M_normal.jpeg
p1216
sg77
I644
sg78
I2277
sg79
I-18000
sg80
Nsg81
I00
sg82
Vhttps://pbs.twimg.com/profile_banners/870912158/1417917161
p1217
sg84
I00
sg85
I00
sg86
V0084B4
p1218
sg88
I00
sg89
I00
sg90
Vhttp://abs.twimg.com/images/themes/theme1/bg.png
p1219
sg92
Vamaramoore_
p1220
sg94
I1
sg95
V\u0101
p1221
sg97
VDDEEF6
p1222
sg99
Nsg101
I870912158
sg102
VC0DEED
p1223
sbsg104
I0
sg105
V<a href="http://twitter.com/download/iphone" rel="nofollow">Twitter for iPhone</a>
p1224
sg107
(lp1225
sg101
I542366886856384512
sbag3
(g4
g5
Ntp1226
Rp1227
(dp1228
g9
I0
sg10
Nsg11
Nsg12
(lp1229
sg20
I00
sg21
g3
(g4
g5
Ntp1230
Rp1231
(dp1232
g9
I4475
sg10
Nsg11
Nsg12
(lp1233
sg20
I00
sg21
Nsg30
Nsg31
(lp1234
sg33
Nsg34
Nsg35
Nsg36
VThu Dec 04 15:30:14 +0000 2014
p1235
sg38
Nsg39
Nsg40
Nsg41
Nsg42
Nsg43
Nsg44
I00
sg45
Nsg46
(lp1236
sg48
Nsg49
V540528510683869185
p1237
sg51
Nsg52
Vclasswork: A\u000ahomework: A\u000aclasswork: A\u000ahomework: A\u000aclasswork: A\u000ahomework: A\u000a\u000atest: F\u000afinal grade: F
p1238
sg54
I00
sg55
Ven
p1239
sg57
g3
(g58
g5
Ntp1240
Rp1241
(dp1242
g10
Vinstagram : diynetwork
p1243
sg63
V333333
p1244
sg65
Ven
p1245
sg67
VEastern Time (US & Canada)
p1246
sg69
I1867128
sg70
I49738
sg36
VThu Dec 16 00:07:25 +0000 2010
p1247
sg72
I00
sg73
VIf you can relate to any of my tweets, congratulations. (Parody account) contact : techgrowerinfo@gmail.com
p1248
sg75
Vhttps://pbs.twimg.com/profile_images/533639722807984128/G2nF5aBg_normal.jpeg
p1249
sg77
I10430
sg78
I439
sg79
I-18000
sg80
Nsg81
I00
sg82
Vhttps://pbs.twimg.com/profile_banners/227121370/1416894936
p1250
sg84
I00
sg85
I00
sg86
VED134D
p1251
sg88
I00
sg89
I00
sg90
Vhttp://pbs.twimg.com/profile_background_images/378800000159680619/TjaB8rut.png
p1252
sg92
VGirlNotes
p1253
sg94
I5886
sg95
VGirl Notes\u2654
p1254
sg97
VF6F6F6
p1255
sg99
Vhttp://t.co/ehHh3ApMq7
p1256
sg101
I227121370
sg102
VFFFFFF
p1257
sbsg104
I4252
sg105
V<a href="http://bufferapp.com" rel="nofollow">Buffer</a>
p1258
sg107
(lp1259
sg101
I540528510683869185
sbsg30
Nsg31
(lp1260
sg33
Nsg34
Nsg35
Nsg36
VTue Dec 09 17:11:59 +0000 2014
p1261
sg38
Nsg39
Nsg40
Nsg41
Nsg42
Nsg43
Nsg44
I00
sg45
Nsg46
(lp1262
g3
(g58
g5
Ntp1263
Rp1264
(dp1265
g10
Nsg63
Nsg65
Nsg67
Nsg69
Nsg70
Nsg36
Nsg72
Nsg73
Nsg75
Nsg77
Nsg78
Nsg79
Nsg80
Nsg81
Nsg82
Nsg84
Nsg85
Nsg86
Nsg88
Nsg89
Nsg90
Nsg92
VGirlNotes
p1266
sg94
Nsg95
VGirl Notes\u2654
p1267
sg97
Nsg99
Nsg101
I227121370
sg102
Nsbasg48
Nsg49
V542366057806061568
p1268
sg51
Nsg52
VRT @GirlNotes: classwork: A\u000ahomework: A\u000aclasswork: A\u000ahomework: A\u000aclasswork: A\u000ahomework: A\u000a\u000atest: F\u000afinal grade: F
p1269
sg54
I00
sg55
Ven
p1270
sg57
g3
(g58
g5
Ntp1271
Rp1272
(dp1273
g10
g62
sg63
V333333
p1274
sg65
Ven
p1275
sg67
VEastern Time (US & Canada)
p1276
sg69
I1125
sg70
I23733
sg36
VWed Oct 10 01:35:28 +0000 2012
p1277
sg72
I00
sg73
VIG: @_amaramoore ................................. single, senior, hooper
p1278
sg75
Vhttps://pbs.twimg.com/profile_images/541409640655765504/OSph9-1M_normal.jpeg
p1279
sg77
I644
sg78
I2277
sg79
I-18000
sg80
Nsg81
I00
sg82
Vhttps://pbs.twimg.com/profile_banners/870912158/1417917161
p1280
sg84
I00
sg85
I00
sg86
V0084B4
p1281
sg88
I00
sg89
I00
sg90
Vhttp://abs.twimg.com/images/themes/theme1/bg.png
p1282
sg92
Vamaramoore_
p1283
sg94
I1
sg95
V\u0101
p1284
sg97
VDDEEF6
p1285
sg99
Nsg101
I870912158
sg102
VC0DEED
p1286
sbsg104
I4252
sg105
V<a href="http://twitter.com/download/iphone" rel="nofollow">Twitter for iPhone</a>
p1287
sg107
(lp1288
sg101
I542366057806061568
sbag3
(g4
g5
Ntp1289
Rp1290
(dp1291
g9
I0
sg10
Nsg11
Nsg12
(lp1292
sg20
I00
sg21
Nsg30
Nsg31
(lp1293
sg33
Nsg34
Nsg35
Nsg36
VTue Dec 09 01:15:29 +0000 2014
p1294
sg38
Nsg39
Nsg40
Nsg41
Nsg42
Nsg43
Nsg44
I00
sg45
Nsg46
(lp1295
sg48
Nsg49
V542125346037198848
p1296
sg51
Nsg52
VSee I would tell ya what's real but you ain't ready for all that.
p1297
sg54
I00
sg55
Ven
p1298
sg57
g3
(g58
g5
Ntp1299
Rp1300
(dp1301
g10
g62
sg63
V333333
p1302
sg65
Ven
p1303
sg67
VEastern Time (US & Canada)
p1304
sg69
I1125
sg70
I23733
sg36
VWed Oct 10 01:35:28 +0000 2012
p1305
sg72
I00
sg73
VIG: @_amaramoore ................................. single, senior, hooper
p1306
sg75
Vhttps://pbs.twimg.com/profile_images/541409640655765504/OSph9-1M_normal.jpeg
p1307
sg77
I644
sg78
I2277
sg79
I-18000
sg80
Nsg81
I00
sg82
Vhttps://pbs.twimg.com/profile_banners/870912158/1417917161
p1308
sg84
I00
sg85
I00
sg86
V0084B4
p1309
sg88
I00
sg89
I00
sg90
Vhttp://abs.twimg.com/images/themes/theme1/bg.png
p1310
sg92
Vamaramoore_
p1311
sg94
I1
sg95
V\u0101
p1312
sg97
VDDEEF6
p1313
sg99
Nsg101
I870912158
sg102
VC0DEED
p1314
sbsg104
I0
sg105
V<a href="http://twitter.com/download/iphone" rel="nofollow">Twitter for iPhone</a>
p1315
sg107
(lp1316
sg101
I542125346037198848
sbaa.