(lp0
S'RVAmericaInc'
p1
a(lp2
ccopy_reg
_reconstructor
p3
(ctwitter.status
Status
p4
c__builtin__
object
p5
Ntp6
Rp7
(dp8
S'_favorite_count'
p9
I0
sS'_location'
p10
NsS'_withheld_scope'
p11
NsS'hashtags'
p12
(lp13
sS'_truncated'
p14
I00
sS'_retweeted_status'
p15
NsS'_withheld_copyright'
p16
NsS'media'
p17
(lp18
(dp19
Vexpanded_url
p20
Vhttp://twitter.com/RVAmericaInc/status/543427958401409025/photo/1
p21
sVdisplay_url
p22
Vpic.twitter.com/nZxc4lYIca
p23
sVurl
p24
Vhttp://t.co/nZxc4lYIca
p25
sVmedia_url_https
p26
Vhttps://pbs.twimg.com/media/B4qk2TaCcAACIUM.jpg
p27
sVid_str
p28
V543427957880942592
p29
sVsizes
p30
(dp31
Vsmall
p32
(dp33
Vh
p34
I477
sVresize
p35
Vfit
p36
sVw
p37
I340
ssVlarge
p38
(dp39
Vh
p40
I657
sVresize
p41
Vfit
p42
sVw
p43
I468
ssVmedium
p44
(dp45
Vh
p46
I657
sVresize
p47
Vfit
p48
sVw
p49
I468
ssVthumb
p50
(dp51
Vh
p52
I150
sVresize
p53
Vcrop
p54
sVw
p55
I150
sssVindices
p56
(lp57
I94
aI116
asVtype
p58
Vphoto
p59
sVid
p60
I543427957880942592
sVmedia_url
p61
Vhttp://pbs.twimg.com/media/B4qk2TaCcAACIUM.jpg
p62
sasS'_place'
p63
NsS'_contributors'
p64
NsS'_current_user_retweet'
p65
NsS'_created_at'
p66
VFri Dec 12 15:31:36 +0000 2014
p67
sS'_scopes'
p68
NsS'_possibly_sensitive'
p69
I00
sS'_in_reply_to_screen_name'
p70
NsS'_coordinates'
p71
NsS'_in_reply_to_user_id'
p72
NsS'_geo'
p73
NsS'_favorited'
p74
I00
sS'_withheld_in_countries'
p75
NsS'user_mentions'
p76
(lp77
sS'_now'
p78
NsS'_id_str'
p79
NsS'_in_reply_to_status_id'
p80
NsS'_text'
p81
VHere are some accessories that are sure to enhance your RV experience: http://t.co/jUURWSmIw0 http://t.co/nZxc4lYIca
p82
sS'_retweeted'
p83
I00
sS'lang'
p84
Ven
p85
sS'_user'
p86
g3
(ctwitter.user
User
p87
g5
Ntp88
Rp89
(dp90
g10
VDenver, CO
p91
sS'_profile_text_color'
p92
V333333
p93
sS'_lang'
p94
Ven
p95
sS'_time_zone'
p96
VMountain Time (US & Canada)
p97
sS'_followers_count'
p98
I562
sS'_statuses_count'
p99
I1102
sg66
VThu Oct 20 17:46:39 +0000 2011
p100
sS'_verified'
p101
I00
sS'_description'
p102
VRV sales, maintenance, parts and rentals in Denver and surrounding areas. Start your outdoor adventure today.
p103
sS'_profile_image_url'
p104
Vhttps://pbs.twimg.com/profile_images/1598190002/rv.america.logo_nbkgd2_normal.jpg
p105
sS'_friends_count'
p106
I480
sS'_favourites_count'
p107
I8
sS'_utc_offset'
p108
I-25200
sS'_status'
p109
NsS'_protected'
p110
I00
sS'_profile_banner_url'
p111
Vhttps://pbs.twimg.com/profile_banners/394824303/1399042852
p112
sS'_notifications'
p113
I00
sS'_profile_background_tile'
p114
I01
sS'_profile_link_color'
p115
V009999
p116
sS'_geo_enabled'
p117
I01
sS'_contributors_enabled'
p118
I00
sS'_profile_background_image_url'
p119
Vhttp://pbs.twimg.com/profile_background_images/349889011/usa-2-stars-stripes.jpg
p120
sS'_screen_name'
p121
VRVAmericaInc
p122
sS'_listed_count'
p123
I8
sS'_name'
p124
VRVAmericaInc
p125
sS'_profile_sidebar_fill_color'
p126
VEFEFEF
p127
sS'_url'
p128
Vhttp://t.co/kNblS5UtpV
p129
sS'_id'
p130
I394824303
sS'_profile_background_color'
p131
V131516
p132
sbsS'_retweet_count'
p133
I0
sS'_source'
p134
V<a href="http://www.hootsuite.com" rel="nofollow">Hootsuite</a>
p135
sS'urls'
p136
(lp137
g3
(ctwitter.url
Url
p138
g5
Ntp139
Rp140
(dp141
S'url'
p142
Vhttp://t.co/jUURWSmIw0
p143
sS'expanded_url'
p144
Vhttp://goo.gl/ILYCMK
p145
sbasg130
I543427958401409025
sbag3
(g4
g5
Ntp146
Rp147
(dp148
g9
I0
sg10
Nsg11
Nsg12
(lp149
sg14
I00
sg15
Nsg16
Nsg17
(lp150
sg63
Nsg64
Nsg65
Nsg66
VFri Dec 12 15:30:32 +0000 2014
p151
sg68
Nsg69
I00
sg70
Nsg71
Nsg72
Nsg73
Nsg74
I00
sg75
Nsg76
(lp152
sg78
Nsg79
Nsg80
Nsg81
VAt RV America, Inc., we understand how important an RV purchase is. To make the most of your purchase, here are... http://t.co/Ybvbla6owX
p153
sg83
I00
sg84
Ven
p154
sg86
g3
(g87
g5
Ntp155
Rp156
(dp157
g10
VDenver, CO
p158
sg92
V333333
p159
sg94
Ven
p160
sg96
VMountain Time (US & Canada)
p161
sg98
I562
sg99
I1102
sg66
VThu Oct 20 17:46:39 +0000 2011
p162
sg101
I00
sg102
VRV sales, maintenance, parts and rentals in Denver and surrounding areas. Start your outdoor adventure today.
p163
sg104
Vhttps://pbs.twimg.com/profile_images/1598190002/rv.america.logo_nbkgd2_normal.jpg
p164
sg106
I480
sg107
I8
sg108
I-25200
sg109
Nsg110
I00
sg111
Vhttps://pbs.twimg.com/profile_banners/394824303/1399042852
p165
sg113
I00
sg114
I01
sg115
V009999
p166
sg117
I01
sg118
I00
sg119
Vhttp://pbs.twimg.com/profile_background_images/349889011/usa-2-stars-stripes.jpg
p167
sg121
VRVAmericaInc
p168
sg123
I8
sg124
VRVAmericaInc
p169
sg126
VEFEFEF
p170
sg128
Vhttp://t.co/kNblS5UtpV
p171
sg130
I394824303
sg131
V131516
p172
sbsg133
I0
sg134
V<a href="http://www.facebook.com/twitter" rel="nofollow">Facebook</a>
p173
sg136
(lp174
g3
(g138
g5
Ntp175
Rp176
(dp177
g142
Vhttp://t.co/Ybvbla6owX
p178
sg144
Vhttp://fb.me/466LWWgfQ
p179
sbasg130
I543427690481455104
sbag3
(g4
g5
Ntp180
Rp181
(dp182
g9
I0
sg10
Nsg11
Nsg12
(lp183
sg14
I00
sg15
Nsg16
Nsg17
(lp184
(dp185
Vexpanded_url
p186
Vhttp://twitter.com/RVAmericaInc/status/543070918999048192/photo/1
p187
sVdisplay_url
p188
Vpic.twitter.com/o9hRVL2kj5
p189
sVurl
p190
Vhttp://t.co/o9hRVL2kj5
p191
sVmedia_url_https
p192
Vhttps://pbs.twimg.com/media/B4lgH3sCAAMVMUw.jpg
p193
sVid_str
p194
V543070918398836739
p195
sVsizes
p196
(dp197
Vlarge
p198
(dp199
Vh
p200
I376
sVresize
p201
Vfit
p202
sVw
p203
I400
ssVsmall
p204
(dp205
Vh
p206
I319
sVresize
p207
Vfit
p208
sVw
p209
I340
ssVmedium
p210
(dp211
Vh
p212
I376
sVresize
p213
Vfit
p214
sVw
p215
I400
ssVthumb
p216
(dp217
Vh
p218
I150
sVresize
p219
Vcrop
p220
sVw
p221
I150
sssVindices
p222
(lp223
I118
aI140
asVtype
p224
Vphoto
p225
sVid
p226
I543070918398836739
sVmedia_url
p227
Vhttp://pbs.twimg.com/media/B4lgH3sCAAMVMUw.jpg
p228
sasg63
Nsg64
Nsg65
Nsg66
VThu Dec 11 15:52:51 +0000 2014
p229
sg68
Nsg69
I00
sg70
Nsg71
Nsg72
Nsg73
Nsg74
I00
sg75
Nsg76
(lp230
sg78
Nsg79
Nsg80
Nsg81
VAre you purchasing an RV? Protect your investment with insurance. Browse insurance plans here: http://t.co/SOqgKpaxrr http://t.co/o9hRVL2kj5
p231
sg83
I00
sg84
Ven
p232
sg86
g3
(g87
g5
Ntp233
Rp234
(dp235
g10
VDenver, CO
p236
sg92
V333333
p237
sg94
Ven
p238
sg96
VMountain Time (US & Canada)
p239
sg98
I562
sg99
I1102
sg66
VThu Oct 20 17:46:39 +0000 2011
p240
sg101
I00
sg102
VRV sales, maintenance, parts and rentals in Denver and surrounding areas. Start your outdoor adventure today.
p241
sg104
Vhttps://pbs.twimg.com/profile_images/1598190002/rv.america.logo_nbkgd2_normal.jpg
p242
sg106
I480
sg107
I8
sg108
I-25200
sg109
Nsg110
I00
sg111
Vhttps://pbs.twimg.com/profile_banners/394824303/1399042852
p243
sg113
I00
sg114
I01
sg115
V009999
p244
sg117
I01
sg118
I00
sg119
Vhttp://pbs.twimg.com/profile_background_images/349889011/usa-2-stars-stripes.jpg
p245
sg121
VRVAmericaInc
p246
sg123
I8
sg124
VRVAmericaInc
p247
sg126
VEFEFEF
p248
sg128
Vhttp://t.co/kNblS5UtpV
p249
sg130
I394824303
sg131
V131516
p250
sbsg133
I0
sg134
V<a href="http://www.hootsuite.com" rel="nofollow">Hootsuite</a>
p251
sg136
(lp252
g3
(g138
g5
Ntp253
Rp254
(dp255
g142
Vhttp://t.co/SOqgKpaxrr
p256
sg144
Vhttp://goo.gl/V6UXLY
p257
sbasg130
I543070918999048192
sbag3
(g4
g5
Ntp258
Rp259
(dp260
g9
I0
sg10
Nsg11
Nsg12
(lp261
sg14
I00
sg15
Nsg16
Nsg17
(lp262
sg63
Nsg64
Nsg65
Nsg66
VThu Dec 11 14:00:04 +0000 2014
p263
sg68
Nsg69
I00
sg70
Nsg71
Nsg72
Nsg73
Nsg74
I00
sg75
Nsg76
(lp264
sg78
Nsg79
Nsg80
Nsg81
VAre you considering an RV purchase? If so, protect your investment with insurance. Click here to find out which... http://t.co/12wbDUZXgU
p265
sg83
I00
sg84
Ven
p266
sg86
g3
(g87
g5
Ntp267
Rp268
(dp269
g10
VDenver, CO
p270
sg92
V333333
p271
sg94
Ven
p272
sg96
VMountain Time (US & Canada)
p273
sg98
I562
sg99
I1102
sg66
VThu Oct 20 17:46:39 +0000 2011
p274
sg101
I00
sg102
VRV sales, maintenance, parts and rentals in Denver and surrounding areas. Start your outdoor adventure today.
p275
sg104
Vhttps://pbs.twimg.com/profile_images/1598190002/rv.america.logo_nbkgd2_normal.jpg
p276
sg106
I480
sg107
I8
sg108
I-25200
sg109
Nsg110
I00
sg111
Vhttps://pbs.twimg.com/profile_banners/394824303/1399042852
p277
sg113
I00
sg114
I01
sg115
V009999
p278
sg117
I01
sg118
I00
sg119
Vhttp://pbs.twimg.com/profile_background_images/349889011/usa-2-stars-stripes.jpg
p279
sg121
VRVAmericaInc
p280
sg123
I8
sg124
VRVAmericaInc
p281
sg126
VEFEFEF
p282
sg128
Vhttp://t.co/kNblS5UtpV
p283
sg130
I394824303
sg131
V131516
p284
sbsg133
I0
sg134
V<a href="http://www.facebook.com/twitter" rel="nofollow">Facebook</a>
p285
sg136
(lp286
g3
(g138
g5
Ntp287
Rp288
(dp289
g142
Vhttp://t.co/12wbDUZXgU
p290
sg144
Vhttp://fb.me/3iokZARdi
p291
sbasg130
I543042534856228864
sbag3
(g4
g5
Ntp292
Rp293
(dp294
g9
I0
sg10
Nsg11
Nsg12
(lp295
sg14
I00
sg15
Nsg16
Nsg17
(lp296
(dp297
Vexpanded_url
p298
Vhttp://twitter.com/RVAmericaInc/status/542726086569000961/photo/1
p299
sVdisplay_url
p300
Vpic.twitter.com/Wx7clxPAFi
p301
sVurl
p302
Vhttp://t.co/Wx7clxPAFi
p303
sVmedia_url_https
p304
Vhttps://pbs.twimg.com/media/B4gmf_RIUAEu8_S.jpg
p305
sVid_str
p306
V542726086099226625
p307
sVsizes
p308
(dp309
Vsmall
p310
(dp311
Vh
p312
I340
sVresize
p313
Vfit
p314
sVw
p315
I340
ssVlarge
p316
(dp317
Vh
p318
I712
sVresize
p319
Vfit
p320
sVw
p321
I710
ssVmedium
p322
(dp323
Vh
p324
I601
sVresize
p325
Vfit
p326
sVw
p327
I600
ssVthumb
p328
(dp329
Vh
p330
I150
sVresize
p331
Vcrop
p332
sVw
p333
I150
sssVindices
p334
(lp335
I116
aI138
asVtype
p336
Vphoto
p337
sVid
p338
I542726086099226625
sVmedia_url
p339
Vhttp://pbs.twimg.com/media/B4gmf_RIUAEu8_S.jpg
p340
sasg63
Nsg64
Nsg65
Nsg66
VWed Dec 10 17:02:37 +0000 2014
p341
sg68
Nsg69
I00
sg70
Nsg71
Nsg72
Nsg73
Nsg74
I00
sg75
Nsg76
(lp342
sg78
Nsg79
Nsg80
Nsg81
VThis year, give the gift the keeps giving all year long. Click here to browse our inventory: http://t.co/J8bycz7PDJ http://t.co/Wx7clxPAFi
p343
sg83
I00
sg84
Ven
p344
sg86
g3
(g87
g5
Ntp345
Rp346
(dp347
g10
VDenver, CO
p348
sg92
V333333
p349
sg94
Ven
p350
sg96
VMountain Time (US & Canada)
p351
sg98
I562
sg99
I1102
sg66
VThu Oct 20 17:46:39 +0000 2011
p352
sg101
I00
sg102
VRV sales, maintenance, parts and rentals in Denver and surrounding areas. Start your outdoor adventure today.
p353
sg104
Vhttps://pbs.twimg.com/profile_images/1598190002/rv.america.logo_nbkgd2_normal.jpg
p354
sg106
I480
sg107
I8
sg108
I-25200
sg109
Nsg110
I00
sg111
Vhttps://pbs.twimg.com/profile_banners/394824303/1399042852
p355
sg113
I00
sg114
I01
sg115
V009999
p356
sg117
I01
sg118
I00
sg119
Vhttp://pbs.twimg.com/profile_background_images/349889011/usa-2-stars-stripes.jpg
p357
sg121
VRVAmericaInc
p358
sg123
I8
sg124
VRVAmericaInc
p359
sg126
VEFEFEF
p360
sg128
Vhttp://t.co/kNblS5UtpV
p361
sg130
I394824303
sg131
V131516
p362
sbsg133
I0
sg134
V<a href="http://www.hootsuite.com" rel="nofollow">Hootsuite</a>
p363
sg136
(lp364
g3
(g138
g5
Ntp365
Rp366
(dp367
g142
Vhttp://t.co/J8bycz7PDJ
p368
sg144
Vhttp://goo.gl/Qf4XaW
p369
sbasg130
I542726086569000961
sbag3
(g4
g5
Ntp370
Rp371
(dp372
g9
I0
sg10
Nsg11
Nsg12
(lp373
g3
(ctwitter.hashtag
Hashtag
p374
g5
Ntp375
Rp376
(dp377
S'text'
p378
VTipTuesday
p379
sbasg14
I00
sg15
Nsg16
Nsg17
(lp380
(dp381
Vexpanded_url
p382
Vhttp://twitter.com/RVAmericaInc/status/542363614905372673/photo/1
p383
sVdisplay_url
p384
Vpic.twitter.com/3tx1686Wp8
p385
sVurl
p386
Vhttp://t.co/3tx1686Wp8
p387
sVmedia_url_https
p388
Vhttps://pbs.twimg.com/media/B4bc1XEIAAAtXnp.jpg
p389
sVid_str
p390
V542363614427217920
p391
sVsizes
p392
(dp393
Vlarge
p394
(dp395
Vh
p396
I704
sVresize
p397
Vfit
p398
sVw
p399
I708
ssVsmall
p400
(dp401
Vh
p402
I338
sVresize
p403
Vfit
p404
sVw
p405
I340
ssVmedium
p406
(dp407
Vh
p408
I596
sVresize
p409
Vfit
p410
sVw
p411
I600
ssVthumb
p412
(dp413
Vh
p414
I150
sVresize
p415
Vcrop
p416
sVw
p417
I150
sssVindices
p418
(lp419
I111
aI133
asVtype
p420
Vphoto
p421
sVid
p422
I542363614427217920
sVmedia_url
p423
Vhttp://pbs.twimg.com/media/B4bc1XEIAAAtXnp.jpg
p424
sasg63
Nsg64
Nsg65
Nsg66
VTue Dec 09 17:02:17 +0000 2014
p425
sg68
Nsg69
I00
sg70
Nsg71
Nsg72
Nsg73
Nsg74
I00
sg75
Nsg76
(lp426
sg78
Nsg79
Nsg80
Nsg81
V#TipTuesday Are you braving the cold in your RV this winter? Be sure to insulate windows with foam insulation. http://t.co/3tx1686Wp8
p427
sg83
I00
sg84
Ven
p428
sg86
g3
(g87
g5
Ntp429
Rp430
(dp431
g10
VDenver, CO
p432
sg92
V333333
p433
sg94
Ven
p434
sg96
VMountain Time (US & Canada)
p435
sg98
I562
sg99
I1102
sg66
VThu Oct 20 17:46:39 +0000 2011
p436
sg101
I00
sg102
VRV sales, maintenance, parts and rentals in Denver and surrounding areas. Start your outdoor adventure today.
p437
sg104
Vhttps://pbs.twimg.com/profile_images/1598190002/rv.america.logo_nbkgd2_normal.jpg
p438
sg106
I480
sg107
I8
sg108
I-25200
sg109
Nsg110
I00
sg111
Vhttps://pbs.twimg.com/profile_banners/394824303/1399042852
p439
sg113
I00
sg114
I01
sg115
V009999
p440
sg117
I01
sg118
I00
sg119
Vhttp://pbs.twimg.com/profile_background_images/349889011/usa-2-stars-stripes.jpg
p441
sg121
VRVAmericaInc
p442
sg123
I8
sg124
VRVAmericaInc
p443
sg126
VEFEFEF
p444
sg128
Vhttp://t.co/kNblS5UtpV
p445
sg130
I394824303
sg131
V131516
p446
sbsg133
I0
sg134
V<a href="http://www.hootsuite.com" rel="nofollow">Hootsuite</a>
p447
sg136
(lp448
sg130
I542363614905372673
sbag3
(g4
g5
Ntp449
Rp450
(dp451
g9
I0
sg10
Nsg11
Nsg12
(lp452
g3
(g374
g5
Ntp453
Rp454
(dp455
g378
VThingsRVersSay
p456
sbag3
(g374
g5
Ntp457
Rp458
(dp459
g378
VGoRVing
p460
sbasg14
I00
sg15
g3
(g4
g5
Ntp461
Rp462
(dp463
g9
I8
sg10
Nsg11
Nsg12
(lp464
g3
(g374
g5
Ntp465
Rp466
(dp467
g378
VThingsRVersSay
p468
sbag3
(g374
g5
Ntp469
Rp470
(dp471
g378
VGoRVing
p472
sbasg14
I00
sg15
Nsg16
Nsg17
(lp473
(dp474
Vexpanded_url
p475
Vhttp://twitter.com/GoRVing/status/542001598126628864/photo/1
p476
sVdisplay_url
p477
Vpic.twitter.com/TQBcvS1Nw8
p478
sVurl
p479
Vhttp://t.co/TQBcvS1Nw8
p480
sVmedia_url_https
p481
Vhttps://pbs.twimg.com/media/B4WTlJYIUAAVVsN.jpg
p482
sVid_str
p483
V542001596549582848
p484
sVsizes
p485
(dp486
Vsmall
p487
(dp488
Vh
p489
I226
sVresize
p490
Vfit
p491
sVw
p492
I340
ssVlarge
p493
(dp494
Vh
p495
I682
sVresize
p496
Vfit
p497
sVw
p498
I1024
ssVmedium
p499
(dp500
Vh
p501
I400
sVresize
p502
Vfit
p503
sVw
p504
I600
ssVthumb
p505
(dp506
Vh
p507
I150
sVresize
p508
Vcrop
p509
sVw
p510
I150
sssVindices
p511
(lp512
I43
aI65
asVtype
p513
Vphoto
p514
sVid
p515
I542001596549582848
sVmedia_url
p516
Vhttp://pbs.twimg.com/media/B4WTlJYIUAAVVsN.jpg
p517
sasg63
Nsg64
Nsg65
Nsg66
VMon Dec 08 17:03:45 +0000 2014
p518
sg68
Nsg69
I00
sg70
Nsg71
Nsg72
Nsg73
Nsg74
I00
sg75
Nsg76
(lp519
sg78
Nsg79
Nsg80
Nsg81
VAdventure awaits. #ThingsRVersSay #GoRVing http://t.co/TQBcvS1Nw8
p520
sg83
I00
sg84
Ven
p521
sg86
g3
(g87
g5
Ntp522
Rp523
(dp524
g10
V
p525
sg92
V333333
p526
sg94
Ven
p527
sg96
VEastern Time (US & Canada)
p528
sg98
I8718
sg99
I1757
sg66
VFri Mar 20 19:53:34 +0000 2009
p529
sg101
I00
sg102
VCurrent RVers, RV dreamers, and happy campers - follow us for RV tips, news, contests, and inspiration from Go RVing bloggers. See you on the road!
p530
sg104
Vhttps://pbs.twimg.com/profile_images/3640075206/5268ff3eea4193ccab5a18f353d91b60_normal.jpeg
p531
sg106
I1223
sg107
I409
sg108
I-18000
sg109
Nsg110
I00
sg111
Vhttps://pbs.twimg.com/profile_banners/25563521/1400857543
p532
sg113
I00
sg114
I00
sg115
V0084B4
p533
sg117
I00
sg118
I00
sg119
Vhttp://abs.twimg.com/images/themes/theme1/bg.png
p534
sg121
VGoRVing
p535
sg123
I213
sg124
VGo RVing
p536
sg126
VDDEEF6
p537
sg128
Vhttp://t.co/zOVqHiLwzr
p538
sg130
I25563521
sg131
VC0DEED
p539
sbsg133
I6
sg134
V<a href="http://twitter.com" rel="nofollow">Twitter Web Client</a>
p540
sg136
(lp541
sg130
I542001598126628864
sbsg16
Nsg17
(lp542
(dp543
Vsource_user_id
p544
I25563521
sVsource_status_id_str
p545
V542001598126628864
p546
sVexpanded_url
p547
Vhttp://twitter.com/GoRVing/status/542001598126628864/photo/1
p548
sVdisplay_url
p549
Vpic.twitter.com/TQBcvS1Nw8
p550
sVurl
p551
Vhttp://t.co/TQBcvS1Nw8
p552
sVmedia_url_https
p553
Vhttps://pbs.twimg.com/media/B4WTlJYIUAAVVsN.jpg
p554
sVsource_user_id_str
p555
V25563521
p556
sVsource_status_id
p557
I542001598126628864
sVid_str
p558
V542001596549582848
p559
sVsizes
p560
(dp561
Vsmall
p562
(dp563
Vh
p564
I226
sVresize
p565
Vfit
p566
sVw
p567
I340
ssVlarge
p568
(dp569
Vh
p570
I682
sVresize
p571
Vfit
p572
sVw
p573
I1024
ssVmedium
p574
(dp575
Vh
p576
I400
sVresize
p577
Vfit
p578
sVw
p579
I600
ssVthumb
p580
(dp581
Vh
p582
I150
sVresize
p583
Vcrop
p584
sVw
p585
I150
sssVindices
p586
(lp587
I56
aI78
asVtype
p588
Vphoto
p589
sVid
p590
I542001596549582848
sVmedia_url
p591
Vhttp://pbs.twimg.com/media/B4WTlJYIUAAVVsN.jpg
p592
sasg63
Nsg64
Nsg65
Nsg66
VMon Dec 08 20:04:31 +0000 2014
p593
sg68
Nsg69
I00
sg70
Nsg71
Nsg72
Nsg73
Nsg74
I00
sg75
Nsg76
(lp594
g3
(g87
g5
Ntp595
Rp596
(dp597
g10
Nsg92
Nsg94
Nsg96
Nsg98
Nsg99
Nsg66
Nsg101
Nsg102
Nsg104
Nsg106
Nsg107
Nsg108
Nsg109
Nsg110
Nsg111
Nsg113
Nsg114
Nsg115
Nsg117
Nsg118
Nsg119
Nsg121
VGoRVing
p598
sg123
Nsg124
VGo RVing
p599
sg126
Nsg128
Nsg130
I25563521
sg131
Nsbasg78
Nsg79
Nsg80
Nsg81
VRT @GoRVing: Adventure awaits. #ThingsRVersSay #GoRVing http://t.co/TQBcvS1Nw8
p600
sg83
I00
sg84
Ven
p601
sg86
g3
(g87
g5
Ntp602
Rp603
(dp604
g10
VDenver, CO
p605
sg92
V333333
p606
sg94
Ven
p607
sg96
VMountain Time (US & Canada)
p608
sg98
I562
sg99
I1102
sg66
VThu Oct 20 17:46:39 +0000 2011
p609
sg101
I00
sg102
VRV sales, maintenance, parts and rentals in Denver and surrounding areas. Start your outdoor adventure today.
p610
sg104
Vhttps://pbs.twimg.com/profile_images/1598190002/rv.america.logo_nbkgd2_normal.jpg
p611
sg106
I480
sg107
I8
sg108
I-25200
sg109
Nsg110
I00
sg111
Vhttps://pbs.twimg.com/profile_banners/394824303/1399042852
p612
sg113
I00
sg114
I01
sg115
V009999
p613
sg117
I01
sg118
I00
sg119
Vhttp://pbs.twimg.com/profile_background_images/349889011/usa-2-stars-stripes.jpg
p614
sg121
VRVAmericaInc
p615
sg123
I8
sg124
VRVAmericaInc
p616
sg126
VEFEFEF
p617
sg128
Vhttp://t.co/kNblS5UtpV
p618
sg130
I394824303
sg131
V131516
p619
sbsg133
I6
sg134
V<a href="http://twitter.com" rel="nofollow">Twitter Web Client</a>
p620
sg136
(lp621
sg130
I542047089354866690
sbag3
(g4
g5
Ntp622
Rp623
(dp624
g9
I0
sg10
Nsg11
Nsg12
(lp625
sg14
I00
sg15
Nsg16
Nsg17
(lp626
(dp627
Vexpanded_url
p628
Vhttp://twitter.com/RVAmericaInc/status/540926001178755072/photo/1
p629
sVdisplay_url
p630
Vpic.twitter.com/kMzvpHiqZ5
p631
sVurl
p632
Vhttp://t.co/kMzvpHiqZ5
p633
sVmedia_url_https
p634
Vhttps://pbs.twimg.com/media/B4HBVOcCEAAs57E.jpg
p635
sVid_str
p636
V540926000658255872
p637
sVsizes
p638
(dp639
Vlarge
p640
(dp641
Vh
p642
I480
sVresize
p643
Vfit
p644
sVw
p645
I640
ssVsmall
p646
(dp647
Vh
p648
I255
sVresize
p649
Vfit
p650
sVw
p651
I340
ssVmedium
p652
(dp653
Vh
p654
I450
sVresize
p655
Vfit
p656
sVw
p657
I600
ssVthumb
p658
(dp659
Vh
p660
I150
sVresize
p661
Vcrop
p662
sVw
p663
I150
sssVindices
p664
(lp665
I104
aI126
asVtype
p666
Vphoto
p667
sVid
p668
I540926000658255872
sVmedia_url
p669
Vhttp://pbs.twimg.com/media/B4HBVOcCEAAs57E.jpg
p670
sasg63
Nsg64
Nsg65
Nsg66
VFri Dec 05 17:49:43 +0000 2014
p671
sg68
Nsg69
I00
sg70
Nsg71
Nsg72
Nsg73
Nsg74
I00
sg75
Nsg76
(lp672
sg78
Nsg79
Nsg80
Nsg81
VFull-time RVers know how to handle the winter. Click here for winter RVing tips: http://t.co/IjUtdZSi41 http://t.co/kMzvpHiqZ5
p673
sg83
I00
sg84
Ven
p674
sg86
g3
(g87
g5
Ntp675
Rp676
(dp677
g10
VDenver, CO
p678
sg92
V333333
p679
sg94
Ven
p680
sg96
VMountain Time (US & Canada)
p681
sg98
I562
sg99
I1102
sg66
VThu Oct 20 17:46:39 +0000 2011
p682
sg101
I00
sg102
VRV sales, maintenance, parts and rentals in Denver and surrounding areas. Start your outdoor adventure today.
p683
sg104
Vhttps://pbs.twimg.com/profile_images/1598190002/rv.america.logo_nbkgd2_normal.jpg
p684
sg106
I480
sg107
I8
sg108
I-25200
sg109
Nsg110
I00
sg111
Vhttps://pbs.twimg.com/profile_banners/394824303/1399042852
p685
sg113
I00
sg114
I01
sg115
V009999
p686
sg117
I01
sg118
I00
sg119
Vhttp://pbs.twimg.com/profile_background_images/349889011/usa-2-stars-stripes.jpg
p687
sg121
VRVAmericaInc
p688
sg123
I8
sg124
VRVAmericaInc
p689
sg126
VEFEFEF
p690
sg128
Vhttp://t.co/kNblS5UtpV
p691
sg130
I394824303
sg131
V131516
p692
sbsg133
I1
sg134
V<a href="http://www.hootsuite.com" rel="nofollow">Hootsuite</a>
p693
sg136
(lp694
g3
(g138
g5
Ntp695
Rp696
(dp697
g142
Vhttp://t.co/IjUtdZSi41
p698
sg144
Vhttp://goo.gl/iSkKpS
p699
sbasg130
I540926001178755072
sbag3
(g4
g5
Ntp700
Rp701
(dp702
g9
I0
sg10
Nsg11
Nsg12
(lp703
g3
(g374
g5
Ntp704
Rp705
(dp706
g378
VFunTownRVFact
p707
sbag3
(g374
g5
Ntp708
Rp709
(dp710
g378
VRV
p711
sbag3
(g374
g5
Ntp712
Rp713
(dp714
g378
VGoRVing
p715
sbasg14
I00
sg15
g3
(g4
g5
Ntp716
Rp717
(dp718
g9
I8
sg10
Nsg11
Nsg12
(lp719
g3
(g374
g5
Ntp720
Rp721
(dp722
g378
VFunTownRVFact
p723
sbag3
(g374
g5
Ntp724
Rp725
(dp726
g378
VRV
p727
sbag3
(g374
g5
Ntp728
Rp729
(dp730
g378
VGoRVing
p731
sbasg14
I00
sg15
Nsg16
Nsg17
(lp732
(dp733
Vexpanded_url
p734
Vhttp://twitter.com/FunTownRV/status/531144268304637952/photo/1
p735
sVdisplay_url
p736
Vpic.twitter.com/sqDn80W1ty
p737
sVurl
p738
Vhttp://t.co/sqDn80W1ty
p739
sVmedia_url_https
p740
Vhttps://pbs.twimg.com/media/B18A5dOIEAAPFWs.jpg
p741
sVid_str
p742
V531144268149428224
p743
sVsizes
p744
(dp745
Vsmall
p746
(dp747
Vh
p748
I226
sVresize
p749
Vfit
p750
sVw
p751
I340
ssVlarge
p752
(dp753
Vh
p754
I533
sVresize
p755
Vfit
p756
sVw
p757
I800
ssVmedium
p758
(dp759
Vh
p760
I399
sVresize
p761
Vfit
p762
sVw
p763
I600
ssVthumb
p764
(dp765
Vh
p766
I150
sVresize
p767
Vcrop
p768
sVw
p769
I150
sssVindices
p770
(lp771
I82
aI104
asVtype
p772
Vphoto
p773
sVid
p774
I531144268149428224
sVmedia_url
p775
Vhttp://pbs.twimg.com/media/B18A5dOIEAAPFWs.jpg
p776
sasg63
Nsg64
Nsg65
Nsg66
VSat Nov 08 18:00:36 +0000 2014
p777
sg68
Nsg69
I00
sg70
Nsg71
Nsg72
Nsg73
Nsg74
I00
sg75
Nsg76
(lp778
sg78
Nsg79
Nsg80
Nsg81
V#FunTownRVFact ~ Couples who #RV develop stronger bonds with each other! #GoRVing http://t.co/sqDn80W1ty
p779
sg83
I00
sg84
Ven
p780
sg86
g3
(g87
g5
Ntp781
Rp782
(dp783
g10
VCleburne, Texas
p784
sg92
V333333
p785
sg94
Ven
p786
sg96
VCentral Time (US & Canada)
p787
sg98
I585
sg99
I2931
sg66
VWed Aug 11 05:24:45 +0000 2010
p788
sg101
I00
sg102
VThe best investment in your family you could ever make.
p789
sg104
Vhttps://pbs.twimg.com/profile_images/499294781214703616/HKUh7Icc_normal.jpeg
p790
sg106
I739
sg107
I36
sg108
I-21600
sg109
Nsg110
I00
sg111
Vhttps://pbs.twimg.com/profile_banners/177078012/1415053567
p791
sg113
I00
sg114
I00
sg115
V0084B4
p792
sg117
I01
sg118
I00
sg119
Vhttp://pbs.twimg.com/profile_background_images/378800000042699767/560e900a436822255eb6a49452e61950.jpeg
p793
sg121
VFunTownRV
p794
sg123
I8
sg124
VFun Town RV
p795
sg126
VDDEEF6
p796
sg128
Vhttp://t.co/tIPvXRU7hx
p797
sg130
I177078012
sg131
VC0DEED
p798
sbsg133
I13
sg134
V<a href="http://bufferapp.com" rel="nofollow">Buffer</a>
p799
sg136
(lp800
sg130
I531144268304637952
sbsg16
Nsg17
(lp801
(dp802
Vsource_user_id
p803
I177078012
sVsource_status_id_str
p804
V531144268304637952
p805
sVexpanded_url
p806
Vhttp://twitter.com/FunTownRV/status/531144268304637952/photo/1
p807
sVdisplay_url
p808
Vpic.twitter.com/sqDn80W1ty
p809
sVurl
p810
Vhttp://t.co/sqDn80W1ty
p811
sVmedia_url_https
p812
Vhttps://pbs.twimg.com/media/B18A5dOIEAAPFWs.jpg
p813
sVsource_user_id_str
p814
V177078012
p815
sVsource_status_id
p816
I531144268304637952
sVid_str
p817
V531144268149428224
p818
sVsizes
p819
(dp820
Vsmall
p821
(dp822
Vh
p823
I226
sVresize
p824
Vfit
p825
sVw
p826
I340
ssVlarge
p827
(dp828
Vh
p829
I533
sVresize
p830
Vfit
p831
sVw
p832
I800
ssVmedium
p833
(dp834
Vh
p835
I399
sVresize
p836
Vfit
p837
sVw
p838
I600
ssVthumb
p839
(dp840
Vh
p841
I150
sVresize
p842
Vcrop
p843
sVw
p844
I150
sssVindices
p845
(lp846
I97
aI119
asVtype
p847
Vphoto
p848
sVid
p849
I531144268149428224
sVmedia_url
p850
Vhttp://pbs.twimg.com/media/B18A5dOIEAAPFWs.jpg
p851
sasg63
Nsg64
Nsg65
Nsg66
VThu Dec 04 15:03:38 +0000 2014
p852
sg68
Nsg69
I00
sg70
Nsg71
Nsg72
Nsg73
Nsg74
I00
sg75
Nsg76
(lp853
g3
(g87
g5
Ntp854
Rp855
(dp856
g10
Nsg92
Nsg94
Nsg96
Nsg98
Nsg99
Nsg66
Nsg101
Nsg102
Nsg104
Nsg106
Nsg107
Nsg108
Nsg109
Nsg110
Nsg111
Nsg113
Nsg114
Nsg115
Nsg117
Nsg118
Nsg119
Nsg121
VFunTownRV
p857
sg123
Nsg124
VFun Town RV
p858
sg126
Nsg128
Nsg130
I177078012
sg131
Nsbasg78
Nsg79
Nsg80
Nsg81
VRT @FunTownRV: #FunTownRVFact ~ Couples who #RV develop stronger bonds with each other! #GoRVing http://t.co/sqDn80W1ty
p859
sg83
I00
sg84
Ven
p860
sg86
g3
(g87
g5
Ntp861
Rp862
(dp863
g10
VDenver, CO
p864
sg92
V333333
p865
sg94
Ven
p866
sg96
VMountain Time (US & Canada)
p867
sg98
I562
sg99
I1102
sg66
VThu Oct 20 17:46:39 +0000 2011
p868
sg101
I00
sg102
VRV sales, maintenance, parts and rentals in Denver and surrounding areas. Start your outdoor adventure today.
p869
sg104
Vhttps://pbs.twimg.com/profile_images/1598190002/rv.america.logo_nbkgd2_normal.jpg
p870
sg106
I480
sg107
I8
sg108
I-25200
sg109
Nsg110
I00
sg111
Vhttps://pbs.twimg.com/profile_banners/394824303/1399042852
p871
sg113
I00
sg114
I01
sg115
V009999
p872
sg117
I01
sg118
I00
sg119
Vhttp://pbs.twimg.com/profile_background_images/349889011/usa-2-stars-stripes.jpg
p873
sg121
VRVAmericaInc
p874
sg123
I8
sg124
VRVAmericaInc
p875
sg126
VEFEFEF
p876
sg128
Vhttp://t.co/kNblS5UtpV
p877
sg130
I394824303
sg131
V131516
p878
sbsg133
I13
sg134
V<a href="http://twitter.com" rel="nofollow">Twitter Web Client</a>
p879
sg136
(lp880
sg130
I540521816201383936
sbag3
(g4
g5
Ntp881
Rp882
(dp883
g9
I0
sg10
Nsg11
Nsg12
(lp884
sg14
I00
sg15
Nsg16
Nsg17
(lp885
(dp886
Vexpanded_url
p887
Vhttp://twitter.com/RVAmericaInc/status/540506437089501184/photo/1
p888
sVdisplay_url
p889
Vpic.twitter.com/9bgnXNTxfk
p890
sVurl
p891
Vhttp://t.co/9bgnXNTxfk
p892
sVmedia_url_https
p893
Vhttps://pbs.twimg.com/media/B4BDvYjIcAEyiHb.jpg
p894
sVid_str
p895
V540506436607176705
p896
sVsizes
p897
(dp898
Vsmall
p899
(dp900
Vh
p901
I255
sVresize
p902
Vfit
p903
sVw
p904
I340
ssVlarge
p905
(dp906
Vh
p907
I768
sVresize
p908
Vfit
p909
sVw
p910
I1024
ssVmedium
p911
(dp912
Vh
p913
I450
sVresize
p914
Vfit
p915
sVw
p916
I600
ssVthumb
p917
(dp918
Vh
p919
I150
sVresize
p920
Vcrop
p921
sVw
p922
I150
sssVindices
p923
(lp924
I101
aI123
asVtype
p925
Vphoto
p926
sVid
p927
I540506436607176705
sVmedia_url
p928
Vhttp://pbs.twimg.com/media/B4BDvYjIcAEyiHb.jpg
p929
sasg63
Nsg64
Nsg65
Nsg66
VThu Dec 04 14:02:31 +0000 2014
p930
sg68
Nsg69
I00
sg70
Nsg71
Nsg72
Nsg73
Nsg74
I00
sg75
Nsg76
(lp931
sg78
Nsg79
Nsg80
Nsg81
VWe understand that accidents happen. If your RV has been involved in an accident, call 970-278-1900. http://t.co/9bgnXNTxfk
p932
sg83
I00
sg84
Ven
p933
sg86
g3
(g87
g5
Ntp934
Rp935
(dp936
g10
VDenver, CO
p937
sg92
V333333
p938
sg94
Ven
p939
sg96
VMountain Time (US & Canada)
p940
sg98
I562
sg99
I1102
sg66
VThu Oct 20 17:46:39 +0000 2011
p941
sg101
I00
sg102
VRV sales, maintenance, parts and rentals in Denver and surrounding areas. Start your outdoor adventure today.
p942
sg104
Vhttps://pbs.twimg.com/profile_images/1598190002/rv.america.logo_nbkgd2_normal.jpg
p943
sg106
I480
sg107
I8
sg108
I-25200
sg109
Nsg110
I00
sg111
Vhttps://pbs.twimg.com/profile_banners/394824303/1399042852
p944
sg113
I00
sg114
I01
sg115
V009999
p945
sg117
I01
sg118
I00
sg119
Vhttp://pbs.twimg.com/profile_background_images/349889011/usa-2-stars-stripes.jpg
p946
sg121
VRVAmericaInc
p947
sg123
I8
sg124
VRVAmericaInc
p948
sg126
VEFEFEF
p949
sg128
Vhttp://t.co/kNblS5UtpV
p950
sg130
I394824303
sg131
V131516
p951
sbsg133
I0
sg134
V<a href="http://www.hootsuite.com" rel="nofollow">Hootsuite</a>
p952
sg136
(lp953
sg130
I540506437089501184
sbag3
(g4
g5
Ntp954
Rp955
(dp956
g9
I0
sg10
Nsg11
Nsg12
(lp957
g3
(g374
g5
Ntp958
Rp959
(dp960
g378
VThingsRVersSay
p961
sbasg14
I00
sg15
g3
(g4
g5
Ntp962
Rp963
(dp964
g9
I10
sg10
Nsg11
Nsg12
(lp965
g3
(g374
g5
Ntp966
Rp967
(dp968
g378
VThingsRVersSay
p969
sbasg14
I00
sg15
Nsg16
Nsg17
(lp970
(dp971
Vexpanded_url
p972
Vhttp://twitter.com/GoRVing/status/519534110117994496/photo/1
p973
sVdisplay_url
p974
Vpic.twitter.com/cUum3McNQN
p975
sVurl
p976
Vhttp://t.co/cUum3McNQN
p977
sVmedia_url_https
p978
Vhttps://pbs.twimg.com/media/BzXBhIFCYAEO8_z.png
p979
sVid_str
p980
V519534106879614977
p981
sVsizes
p982
(dp983
Vsmall
p984
(dp985
Vh
p986
I230
sVresize
p987
Vfit
p988
sVw
p989
I340
ssVlarge
p990
(dp991
Vh
p992
I662
sVresize
p993
Vfit
p994
sVw
p995
I977
ssVmedium
p996
(dp997
Vh
p998
I406
sVresize
p999
Vfit
p1000
sVw
p1001
I600
ssVthumb
p1002
(dp1003
Vh
p1004
I150
sVresize
p1005
Vcrop
p1006
sVw
p1007
I150
sssVindices
p1008
(lp1009
I60
aI82
asVtype
p1010
Vphoto
p1011
sVid
p1012
I519534106879614977
sVmedia_url
p1013
Vhttp://pbs.twimg.com/media/BzXBhIFCYAEO8_z.png
p1014
sasg63
Nsg64
Nsg65
Nsg66
VTue Oct 07 17:05:58 +0000 2014
p1015
sg68
Nsg69
I00
sg70
Nsg71
Nsg72
Nsg73
Nsg74
I00
sg75
Nsg76
(lp1016
sg78
Nsg79
Nsg80
Nsg81
VRain or shine, our RV will always be there. #ThingsRVersSay http://t.co/cUum3McNQN
p1017
sg83
I00
sg84
Ven
p1018
sg86
g3
(g87
g5
Ntp1019
Rp1020
(dp1021
g10
g525
sg92
V333333
p1022
sg94
Ven
p1023
sg96
VEastern Time (US & Canada)
p1024
sg98
I8718
sg99
I1757
sg66
VFri Mar 20 19:53:34 +0000 2009
p1025
sg101
I00
sg102
VCurrent RVers, RV dreamers, and happy campers - follow us for RV tips, news, contests, and inspiration from Go RVing bloggers. See you on the road!
p1026
sg104
Vhttps://pbs.twimg.com/profile_images/3640075206/5268ff3eea4193ccab5a18f353d91b60_normal.jpeg
p1027
sg106
I1223
sg107
I409
sg108
I-18000
sg109
Nsg110
I00
sg111
Vhttps://pbs.twimg.com/profile_banners/25563521/1400857543
p1028
sg113
I00
sg114
I00
sg115
V0084B4
p1029
sg117
I00
sg118
I00
sg119
Vhttp://abs.twimg.com/images/themes/theme1/bg.png
p1030
sg121
VGoRVing
p1031
sg123
I213
sg124
VGo RVing
p1032
sg126
VDDEEF6
p1033
sg128
Vhttp://t.co/zOVqHiLwzr
p1034
sg130
I25563521
sg131
VC0DEED
p1035
sbsg133
I6
sg134
V<a href="http://twitter.com" rel="nofollow">Twitter Web Client</a>
p1036
sg136
(lp1037
sg130
I519534110117994496
sbsg16
Nsg17
(lp1038
(dp1039
Vsource_user_id
p1040
I25563521
sVsource_status_id_str
p1041
V519534110117994496
p1042
sVexpanded_url
p1043
Vhttp://twitter.com/GoRVing/status/519534110117994496/photo/1
p1044
sVdisplay_url
p1045
Vpic.twitter.com/cUum3McNQN
p1046
sVurl
p1047
Vhttp://t.co/cUum3McNQN
p1048
sVmedia_url_https
p1049
Vhttps://pbs.twimg.com/media/BzXBhIFCYAEO8_z.png
p1050
sVsource_user_id_str
p1051
V25563521
p1052
sVsource_status_id
p1053
I519534110117994496
sVid_str
p1054
V519534106879614977
p1055
sVsizes
p1056
(dp1057
Vsmall
p1058
(dp1059
Vh
p1060
I230
sVresize
p1061
Vfit
p1062
sVw
p1063
I340
ssVlarge
p1064
(dp1065
Vh
p1066
I662
sVresize
p1067
Vfit
p1068
sVw
p1069
I977
ssVmedium
p1070
(dp1071
Vh
p1072
I406
sVresize
p1073
Vfit
p1074
sVw
p1075
I600
ssVthumb
p1076
(dp1077
Vh
p1078
I150
sVresize
p1079
Vcrop
p1080
sVw
p1081
I150
sssVindices
p1082
(lp1083
I73
aI95
asVtype
p1084
Vphoto
p1085
sVid
p1086
I519534106879614977
sVmedia_url
p1087
Vhttp://pbs.twimg.com/media/BzXBhIFCYAEO8_z.png
p1088
sasg63
Nsg64
Nsg65
Nsg66
VTue Dec 02 21:00:19 +0000 2014
p1089
sg68
Nsg69
I00
sg70
Nsg71
Nsg72
Nsg73
Nsg74
I00
sg75
Nsg76
(lp1090
g3
(g87
g5
Ntp1091
Rp1092
(dp1093
g10
Nsg92
Nsg94
Nsg96
Nsg98
Nsg99
Nsg66
Nsg101
Nsg102
Nsg104
Nsg106
Nsg107
Nsg108
Nsg109
Nsg110
Nsg111
Nsg113
Nsg114
Nsg115
Nsg117
Nsg118
Nsg119
Nsg121
VGoRVing
p1094
sg123
Nsg124
VGo RVing
p1095
sg126
Nsg128
Nsg130
I25563521
sg131
Nsbasg78
Nsg79
Nsg80
Nsg81
VRT @GoRVing: Rain or shine, our RV will always be there. #ThingsRVersSay http://t.co/cUum3McNQN
p1096
sg83
I00
sg84
Ven
p1097
sg86
g3
(g87
g5
Ntp1098
Rp1099
(dp1100
g10
VDenver, CO
p1101
sg92
V333333
p1102
sg94
Ven
p1103
sg96
VMountain Time (US & Canada)
p1104
sg98
I562
sg99
I1102
sg66
VThu Oct 20 17:46:39 +0000 2011
p1105
sg101
I00
sg102
VRV sales, maintenance, parts and rentals in Denver and surrounding areas. Start your outdoor adventure today.
p1106
sg104
Vhttps://pbs.twimg.com/profile_images/1598190002/rv.america.logo_nbkgd2_normal.jpg
p1107
sg106
I480
sg107
I8
sg108
I-25200
sg109
Nsg110
I00
sg111
Vhttps://pbs.twimg.com/profile_banners/394824303/1399042852
p1108
sg113
I00
sg114
I01
sg115
V009999
p1109
sg117
I01
sg118
I00
sg119
Vhttp://pbs.twimg.com/profile_background_images/349889011/usa-2-stars-stripes.jpg
p1110
sg121
VRVAmericaInc
p1111
sg123
I8
sg124
VRVAmericaInc
p1112
sg126
VEFEFEF
p1113
sg128
Vhttp://t.co/kNblS5UtpV
p1114
sg130
I394824303
sg131
V131516
p1115
sbsg133
I6
sg134
V<a href="http://twitter.com" rel="nofollow">Twitter Web Client</a>
p1116
sg136
(lp1117
sg130
I539886803738976256
sbag3
(g4
g5
Ntp1118
Rp1119
(dp1120
g9
I0
sg10
Nsg11
Nsg12
(lp1121
sg14
I00
sg15
Nsg16
Nsg17
(lp1122
(dp1123
Vexpanded_url
p1124
Vhttp://twitter.com/RVAmericaInc/status/539783695847403520/photo/1
p1125
sVdisplay_url
p1126
Vpic.twitter.com/MWuaUhaXFk
p1127
sVurl
p1128
Vhttp://t.co/MWuaUhaXFk
p1129
sVmedia_url_https
p1130
Vhttps://pbs.twimg.com/media/B32yaTxIMAAMDfz.jpg
p1131
sVid_str
p1132
V539783695407001600
p1133
sVsizes
p1134
(dp1135
Vsmall
p1136
(dp1137
Vh
p1138
I226
sVresize
p1139
Vfit
p1140
sVw
p1141
I340
ssVlarge
p1142
(dp1143
Vh
p1144
I427
sVresize
p1145
Vfit
p1146
sVw
p1147
I640
ssVmedium
p1148
(dp1149
Vh
p1150
I400
sVresize
p1151
Vfit
p1152
sVw
p1153
I600
ssVthumb
p1154
(dp1155
Vh
p1156
I150
sVresize
p1157
Vcrop
p1158
sVw
p1159
I150
sssVindices
p1160
(lp1161
I50
aI72
asVtype
p1162
Vphoto
p1163
sVid
p1164
I539783695407001600
sVmedia_url
p1165
Vhttp://pbs.twimg.com/media/B32yaTxIMAAMDfz.jpg
p1166
sasg63
Nsg64
Nsg65
Nsg66
VTue Dec 02 14:10:36 +0000 2014
p1167
sg68
Nsg69
I00
sg70
Nsg71
Nsg72
Nsg73
Nsg74
I00
sg75
Nsg76
(lp1168
sg78
Nsg79
Nsg80
Nsg81
VMake yourself at home with an RV from RV America. http://t.co/MWuaUhaXFk
p1169
sg83
I00
sg84
Ven
p1170
sg86
g3
(g87
g5
Ntp1171
Rp1172
(dp1173
g10
VDenver, CO
p1174
sg92
V333333
p1175
sg94
Ven
p1176
sg96
VMountain Time (US & Canada)
p1177
sg98
I562
sg99
I1102
sg66
VThu Oct 20 17:46:39 +0000 2011
p1178
sg101
I00
sg102
VRV sales, maintenance, parts and rentals in Denver and surrounding areas. Start your outdoor adventure today.
p1179
sg104
Vhttps://pbs.twimg.com/profile_images/1598190002/rv.america.logo_nbkgd2_normal.jpg
p1180
sg106
I480
sg107
I8
sg108
I-25200
sg109
Nsg110
I00
sg111
Vhttps://pbs.twimg.com/profile_banners/394824303/1399042852
p1181
sg113
I00
sg114
I01
sg115
V009999
p1182
sg117
I01
sg118
I00
sg119
Vhttp://pbs.twimg.com/profile_background_images/349889011/usa-2-stars-stripes.jpg
p1183
sg121
VRVAmericaInc
p1184
sg123
I8
sg124
VRVAmericaInc
p1185
sg126
VEFEFEF
p1186
sg128
Vhttp://t.co/kNblS5UtpV
p1187
sg130
I394824303
sg131
V131516
p1188
sbsg133
I0
sg134
V<a href="http://www.hootsuite.com" rel="nofollow">Hootsuite</a>
p1189
sg136
(lp1190
sg130
I539783695847403520
sbag3
(g4
g5
Ntp1191
Rp1192
(dp1193
g9
I0
sg10
Nsg11
Nsg12
(lp1194
sg14
I00
sg15
Nsg16
Nsg17
(lp1195
sg63
Nsg64
Nsg65
Nsg66
VThu Nov 27 14:26:13 +0000 2014
p1196
sg68
Nsg69
I00
sg70
Nsg71
Nsg72
Nsg73
Nsg74
I00
sg75
Nsg76
(lp1197
sg78
Nsg79
Nsg80
Nsg81
VAll of us and our families wish you and yours http://t.co/sLZsNZIdmT
p1198
sg83
I00
sg84
Ven
p1199
sg86
g3
(g87
g5
Ntp1200
Rp1201
(dp1202
g10
VDenver, CO
p1203
sg92
V333333
p1204
sg94
Ven
p1205
sg96
VMountain Time (US & Canada)
p1206
sg98
I562
sg99
I1102
sg66
VThu Oct 20 17:46:39 +0000 2011
p1207
sg101
I00
sg102
VRV sales, maintenance, parts and rentals in Denver and surrounding areas. Start your outdoor adventure today.
p1208
sg104
Vhttps://pbs.twimg.com/profile_images/1598190002/rv.america.logo_nbkgd2_normal.jpg
p1209
sg106
I480
sg107
I8
sg108
I-25200
sg109
Nsg110
I00
sg111
Vhttps://pbs.twimg.com/profile_banners/394824303/1399042852
p1210
sg113
I00
sg114
I01
sg115
V009999
p1211
sg117
I01
sg118
I00
sg119
Vhttp://pbs.twimg.com/profile_background_images/349889011/usa-2-stars-stripes.jpg
p1212
sg121
VRVAmericaInc
p1213
sg123
I8
sg124
VRVAmericaInc
p1214
sg126
VEFEFEF
p1215
sg128
Vhttp://t.co/kNblS5UtpV
p1216
sg130
I394824303
sg131
V131516
p1217
sbsg133
I0
sg134
V<a href="http://www.facebook.com/twitter" rel="nofollow">Facebook</a>
p1218
sg136
(lp1219
g3
(g138
g5
Ntp1220
Rp1221
(dp1222
g142
Vhttp://t.co/sLZsNZIdmT
p1223
sg144
Vhttp://fb.me/74EfscZGo
p1224
sbasg130
I537975687706329089
sbag3
(g4
g5
Ntp1225
Rp1226
(dp1227
g9
I0
sg10
Nsg11
Nsg12
(lp1228
sg14
I00
sg15
Nsg16
Nsg17
(lp1229
(dp1230
Vexpanded_url
p1231
Vhttp://twitter.com/RVAmericaInc/status/537971763469373441/photo/1
p1232
sVdisplay_url
p1233
Vpic.twitter.com/DmBPM2xH7t
p1234
sVurl
p1235
Vhttp://t.co/DmBPM2xH7t
p1236
sVmedia_url_https
p1237
Vhttps://pbs.twimg.com/media/B3dCd9YCEAAWYrH.jpg
p1238
sVid_str
p1239
V537971762953064448
p1240
sVsizes
p1241
(dp1242
Vlarge
p1243
(dp1244
Vh
p1245
I429
sVresize
p1246
Vfit
p1247
sVw
p1248
I640
ssVsmall
p1249
(dp1250
Vh
p1251
I227
sVresize
p1252
Vfit
p1253
sVw
p1254
I340
ssVmedium
p1255
(dp1256
Vh
p1257
I402
sVresize
p1258
Vfit
p1259
sVw
p1260
I600
ssVthumb
p1261
(dp1262
Vh
p1263
I150
sVresize
p1264
Vcrop
p1265
sVw
p1266
I150
sssVindices
p1267
(lp1268
I110
aI132
asVtype
p1269
Vphoto
p1270
sVid
p1271
I537971762953064448
sVmedia_url
p1272
Vhttp://pbs.twimg.com/media/B3dCd9YCEAAWYrH.jpg
p1273
sasg63
Nsg64
Nsg65
Nsg66
VThu Nov 27 14:10:38 +0000 2014
p1274
sg68
Nsg69
I00
sg70
Nsg71
Nsg72
Nsg73
Nsg74
I00
sg75
Nsg76
(lp1275
sg78
Nsg79
Nsg80
Nsg81
VOh, the places you'll go in an RV from RV America. Click here to browse our inventory: http://t.co/J8bycz7PDJ http://t.co/DmBPM2xH7t
p1276
sg83
I00
sg84
Ven
p1277
sg86
g3
(g87
g5
Ntp1278
Rp1279
(dp1280
g10
VDenver, CO
p1281
sg92
V333333
p1282
sg94
Ven
p1283
sg96
VMountain Time (US & Canada)
p1284
sg98
I562
sg99
I1102
sg66
VThu Oct 20 17:46:39 +0000 2011
p1285
sg101
I00
sg102
VRV sales, maintenance, parts and rentals in Denver and surrounding areas. Start your outdoor adventure today.
p1286
sg104
Vhttps://pbs.twimg.com/profile_images/1598190002/rv.america.logo_nbkgd2_normal.jpg
p1287
sg106
I480
sg107
I8
sg108
I-25200
sg109
Nsg110
I00
sg111
Vhttps://pbs.twimg.com/profile_banners/394824303/1399042852
p1288
sg113
I00
sg114
I01
sg115
V009999
p1289
sg117
I01
sg118
I00
sg119
Vhttp://pbs.twimg.com/profile_background_images/349889011/usa-2-stars-stripes.jpg
p1290
sg121
VRVAmericaInc
p1291
sg123
I8
sg124
VRVAmericaInc
p1292
sg126
VEFEFEF
p1293
sg128
Vhttp://t.co/kNblS5UtpV
p1294
sg130
I394824303
sg131
V131516
p1295
sbsg133
I0
sg134
V<a href="http://www.hootsuite.com" rel="nofollow">Hootsuite</a>
p1296
sg136
(lp1297
g3
(g138
g5
Ntp1298
Rp1299
(dp1300
g142
Vhttp://t.co/J8bycz7PDJ
p1301
sg144
Vhttp://goo.gl/Qf4XaW
p1302
sbasg130
I537971763469373441
sbag3
(g4
g5
Ntp1303
Rp1304
(dp1305
g9
I0
sg10
Nsg11
Nsg12
(lp1306
sg14
I00
sg15
Nsg16
Nsg17
(lp1307
sg63
Nsg64
Nsg65
Nsg66
VWed Nov 26 17:31:57 +0000 2014
p1308
sg68
Nsg69
I00
sg70
Nsg71
Nsg72
Nsg73
Nsg74
I00
sg75
Nsg76
(lp1309
sg78
Nsg79
Nsg80
Nsg81
VHappy Holidays from our family to yours! In observance of the Thanksgiving Holiday, our stores will be closing at... http://t.co/9knPdzG5TR
p1310
sg83
I00
sg84
Ven
p1311
sg86
g3
(g87
g5
Ntp1312
Rp1313
(dp1314
g10
VDenver, CO
p1315
sg92
V333333
p1316
sg94
Ven
p1317
sg96
VMountain Time (US & Canada)
p1318
sg98
I562
sg99
I1102
sg66
VThu Oct 20 17:46:39 +0000 2011
p1319
sg101
I00
sg102
VRV sales, maintenance, parts and rentals in Denver and surrounding areas. Start your outdoor adventure today.
p1320
sg104
Vhttps://pbs.twimg.com/profile_images/1598190002/rv.america.logo_nbkgd2_normal.jpg
p1321
sg106
I480
sg107
I8
sg108
I-25200
sg109
Nsg110
I00
sg111
Vhttps://pbs.twimg.com/profile_banners/394824303/1399042852
p1322
sg113
I00
sg114
I01
sg115
V009999
p1323
sg117
I01
sg118
I00
sg119
Vhttp://pbs.twimg.com/profile_background_images/349889011/usa-2-stars-stripes.jpg
p1324
sg121
VRVAmericaInc
p1325
sg123
I8
sg124
VRVAmericaInc
p1326
sg126
VEFEFEF
p1327
sg128
Vhttp://t.co/kNblS5UtpV
p1328
sg130
I394824303
sg131
V131516
p1329
sbsg133
I0
sg134
V<a href="http://www.facebook.com/twitter" rel="nofollow">Facebook</a>
p1330
sg136
(lp1331
g3
(g138
g5
Ntp1332
Rp1333
(dp1334
g142
Vhttp://t.co/9knPdzG5TR
p1335
sg144
Vhttp://fb.me/1qKWKgPcv
p1336
sbasg130
I537660038580817920
sbag3
(g4
g5
Ntp1337
Rp1338
(dp1339
g9
I0
sg10
Nsg11
Nsg12
(lp1340
sg14
I00
sg15
Nsg16
Nsg17
(lp1341
(dp1342
Vexpanded_url
p1343
Vhttp://twitter.com/RVAmericaInc/status/537622875424194560/photo/1
p1344
sVdisplay_url
p1345
Vpic.twitter.com/kuyZO4vHin
p1346
sVurl
p1347
Vhttp://t.co/kuyZO4vHin
p1348
sVmedia_url_https
p1349
Vhttps://pbs.twimg.com/media/B3YFJ_vCEAA3vGz.jpg
p1350
sVid_str
p1351
V537622874803015680
p1352
sVsizes
p1353
(dp1354
Vlarge
p1355
(dp1356
Vh
p1357
I452
sVresize
p1358
Vfit
p1359
sVw
p1360
I680
ssVsmall
p1361
(dp1362
Vh
p1363
I226
sVresize
p1364
Vfit
p1365
sVw
p1366
I340
ssVmedium
p1367
(dp1368
Vh
p1369
I398
sVresize
p1370
Vfit
p1371
sVw
p1372
I600
ssVthumb
p1373
(dp1374
Vh
p1375
I150
sVresize
p1376
Vcrop
p1377
sVw
p1378
I150
sssVindices
p1379
(lp1380
I118
aI140
asVtype
p1381
Vphoto
p1382
sVid
p1383
I537622874803015680
sVmedia_url
p1384
Vhttp://pbs.twimg.com/media/B3YFJ_vCEAA3vGz.jpg
p1385
sasg63
Nsg64
Nsg65
Nsg66
VWed Nov 26 15:04:16 +0000 2014
p1386
sg68
Nsg69
I00
sg70
Nsg71
Nsg72
Nsg73
Nsg74
I00
sg75
Nsg76
(lp1387
sg78
Nsg79
Nsg80
Nsg81
VWe carry a wide variety of used RVs. Here are tips to keep in mind when shopping for a used RV http://t.co/rq2yJbL35n http://t.co/kuyZO4vHin
p1388
sg83
I00
sg84
Ven
p1389
sg86
g3
(g87
g5
Ntp1390
Rp1391
(dp1392
g10
VDenver, CO
p1393
sg92
V333333
p1394
sg94
Ven
p1395
sg96
VMountain Time (US & Canada)
p1396
sg98
I562
sg99
I1102
sg66
VThu Oct 20 17:46:39 +0000 2011
p1397
sg101
I00
sg102
VRV sales, maintenance, parts and rentals in Denver and surrounding areas. Start your outdoor adventure today.
p1398
sg104
Vhttps://pbs.twimg.com/profile_images/1598190002/rv.america.logo_nbkgd2_normal.jpg
p1399
sg106
I480
sg107
I8
sg108
I-25200
sg109
Nsg110
I00
sg111
Vhttps://pbs.twimg.com/profile_banners/394824303/1399042852
p1400
sg113
I00
sg114
I01
sg115
V009999
p1401
sg117
I01
sg118
I00
sg119
Vhttp://pbs.twimg.com/profile_background_images/349889011/usa-2-stars-stripes.jpg
p1402
sg121
VRVAmericaInc
p1403
sg123
I8
sg124
VRVAmericaInc
p1404
sg126
VEFEFEF
p1405
sg128
Vhttp://t.co/kNblS5UtpV
p1406
sg130
I394824303
sg131
V131516
p1407
sbsg133
I0
sg134
V<a href="http://www.hootsuite.com" rel="nofollow">Hootsuite</a>
p1408
sg136
(lp1409
g3
(g138
g5
Ntp1410
Rp1411
(dp1412
g142
Vhttp://t.co/rq2yJbL35n
p1413
sg144
Vhttp://goo.gl/tEpZ5S
p1414
sbasg130
I537622875424194560
sbag3
(g4
g5
Ntp1415
Rp1416
(dp1417
g9
I1
sg10
Nsg11
Nsg12
(lp1418
sg14
I00
sg15
Nsg16
Nsg17
(lp1419
(dp1420
Vexpanded_url
p1421
Vhttp://twitter.com/RVAmericaInc/status/537244962761748480/photo/1
p1422
sVdisplay_url
p1423
Vpic.twitter.com/9GRZ8ZXi08
p1424
sVurl
p1425
Vhttp://t.co/9GRZ8ZXi08
p1426
sVmedia_url_https
p1427
Vhttps://pbs.twimg.com/media/B3Stcl7IYAAwbDE.jpg
p1428
sVid_str
p1429
V537244962291998720
p1430
sVsizes
p1431
(dp1432
Vsmall
p1433
(dp1434
Vh
p1435
I226
sVresize
p1436
Vfit
p1437
sVw
p1438
I340
ssVlarge
p1439
(dp1440
Vh
p1441
I427
sVresize
p1442
Vfit
p1443
sVw
p1444
I640
ssVmedium
p1445
(dp1446
Vh
p1447
I400
sVresize
p1448
Vfit
p1449
sVw
p1450
I600
ssVthumb
p1451
(dp1452
Vh
p1453
I150
sVresize
p1454
Vcrop
p1455
sVw
p1456
I150
sssVindices
p1457
(lp1458
I117
aI139
asVtype
p1459
Vphoto
p1460
sVid
p1461
I537244962291998720
sVmedia_url
p1462
Vhttp://pbs.twimg.com/media/B3Stcl7IYAAwbDE.jpg
p1463
sasg63
Nsg64
Nsg65
Nsg66
VTue Nov 25 14:02:35 +0000 2014
p1464
sg68
Nsg69
I00
sg70
Nsg71
Nsg72
Nsg73
Nsg74
I00
sg75
Nsg76
(lp1465
sg78
Nsg79
Nsg80
Nsg81
VWe can take your childhood dream of owning an RV and turn it into a reality. Call us at 970-278-1900 to get started! http://t.co/9GRZ8ZXi08
p1466
sg83
I00
sg84
Ven
p1467
sg86
g3
(g87
g5
Ntp1468
Rp1469
(dp1470
g10
VDenver, CO
p1471
sg92
V333333
p1472
sg94
Ven
p1473
sg96
VMountain Time (US & Canada)
p1474
sg98
I562
sg99
I1102
sg66
VThu Oct 20 17:46:39 +0000 2011
p1475
sg101
I00
sg102
VRV sales, maintenance, parts and rentals in Denver and surrounding areas. Start your outdoor adventure today.
p1476
sg104
Vhttps://pbs.twimg.com/profile_images/1598190002/rv.america.logo_nbkgd2_normal.jpg
p1477
sg106
I480
sg107
I8
sg108
I-25200
sg109
Nsg110
I00
sg111
Vhttps://pbs.twimg.com/profile_banners/394824303/1399042852
p1478
sg113
I00
sg114
I01
sg115
V009999
p1479
sg117
I01
sg118
I00
sg119
Vhttp://pbs.twimg.com/profile_background_images/349889011/usa-2-stars-stripes.jpg
p1480
sg121
VRVAmericaInc
p1481
sg123
I8
sg124
VRVAmericaInc
p1482
sg126
VEFEFEF
p1483
sg128
Vhttp://t.co/kNblS5UtpV
p1484
sg130
I394824303
sg131
V131516
p1485
sbsg133
I1
sg134
V<a href="http://www.hootsuite.com" rel="nofollow">Hootsuite</a>
p1486
sg136
(lp1487
sg130
I537244962761748480
sbag3
(g4
g5
Ntp1488
Rp1489
(dp1490
g9
I1
sg10
Nsg11
Nsg12
(lp1491
sg14
I00
sg15
Nsg16
Nsg17
(lp1492
(dp1493
Vexpanded_url
p1494
Vhttp://twitter.com/RVAmericaInc/status/535814753487425536/photo/1
p1495
sVdisplay_url
p1496
Vpic.twitter.com/pxlp10iPKC
p1497
sVurl
p1498
Vhttp://t.co/pxlp10iPKC
p1499
sVmedia_url_https
p1500
Vhttps://pbs.twimg.com/media/B2-YrdHIgAAU0gT.jpg
p1501
sVid_str
p1502
V535814752996720640
p1503
sVsizes
p1504
(dp1505
Vlarge
p1506
(dp1507
Vh
p1508
I387
sVresize
p1509
Vfit
p1510
sVw
p1511
I577
ssVsmall
p1512
(dp1513
Vh
p1514
I228
sVresize
p1515
Vfit
p1516
sVw
p1517
I340
ssVmedium
p1518
(dp1519
Vh
p1520
I387
sVresize
p1521
Vfit
p1522
sVw
p1523
I577
ssVthumb
p1524
(dp1525
Vh
p1526
I150
sVresize
p1527
Vcrop
p1528
sVw
p1529
I150
sssVindices
p1530
(lp1531
I114
aI136
asVtype
p1532
Vphoto
p1533
sVid
p1534
I535814752996720640
sVmedia_url
p1535
Vhttp://pbs.twimg.com/media/B2-YrdHIgAAU0gT.jpg
p1536
sasg63
Nsg64
Nsg65
Nsg66
VFri Nov 21 15:19:26 +0000 2014
p1537
sg68
Nsg69
I00
sg70
Nsg71
Nsg72
Nsg73
Nsg74
I00
sg75
Nsg76
(lp1538
sg78
Nsg79
Nsg80
Nsg81
VDriving an RV is different from driving a car. Click here for the most common RV problems: http://t.co/KBlsqD5iGu http://t.co/pxlp10iPKC
p1539
sg83
I00
sg84
Ven
p1540
sg86
g3
(g87
g5
Ntp1541
Rp1542
(dp1543
g10
VDenver, CO
p1544
sg92
V333333
p1545
sg94
Ven
p1546
sg96
VMountain Time (US & Canada)
p1547
sg98
I562
sg99
I1102
sg66
VThu Oct 20 17:46:39 +0000 2011
p1548
sg101
I00
sg102
VRV sales, maintenance, parts and rentals in Denver and surrounding areas. Start your outdoor adventure today.
p1549
sg104
Vhttps://pbs.twimg.com/profile_images/1598190002/rv.america.logo_nbkgd2_normal.jpg
p1550
sg106
I480
sg107
I8
sg108
I-25200
sg109
Nsg110
I00
sg111
Vhttps://pbs.twimg.com/profile_banners/394824303/1399042852
p1551
sg113
I00
sg114
I01
sg115
V009999
p1552
sg117
I01
sg118
I00
sg119
Vhttp://pbs.twimg.com/profile_background_images/349889011/usa-2-stars-stripes.jpg
p1553
sg121
VRVAmericaInc
p1554
sg123
I8
sg124
VRVAmericaInc
p1555
sg126
VEFEFEF
p1556
sg128
Vhttp://t.co/kNblS5UtpV
p1557
sg130
I394824303
sg131
V131516
p1558
sbsg133
I1
sg134
V<a href="http://www.hootsuite.com" rel="nofollow">Hootsuite</a>
p1559
sg136
(lp1560
g3
(g138
g5
Ntp1561
Rp1562
(dp1563
g142
Vhttp://t.co/KBlsqD5iGu
p1564
sg144
Vhttp://goo.gl/HsLcAH
p1565
sbasg130
I535814753487425536
sbag3
(g4
g5
Ntp1566
Rp1567
(dp1568
g9
I1
sg10
Nsg11
Nsg12
(lp1569
g3
(g374
g5
Ntp1570
Rp1571
(dp1572
g378
VWeWantToKnow
p1573
sbasg14
I00
sg15
Nsg16
Nsg17
(lp1574
(dp1575
Vexpanded_url
p1576
Vhttp://twitter.com/RVAmericaInc/status/535433790391599105/photo/1
p1577
sVdisplay_url
p1578
Vpic.twitter.com/4aW8c72Qgo
p1579
sVurl
p1580
Vhttp://t.co/4aW8c72Qgo
p1581
sVmedia_url_https
p1582
Vhttps://pbs.twimg.com/media/B24-MfJIQAA8uLZ.jpg
p1583
sVid_str
p1584
V535433789942808576
p1585
sVsizes
p1586
(dp1587
Vsmall
p1588
(dp1589
Vh
p1590
I226
sVresize
p1591
Vfit
p1592
sVw
p1593
I340
ssVlarge
p1594
(dp1595
Vh
p1596
I427
sVresize
p1597
Vfit
p1598
sVw
p1599
I640
ssVmedium
p1600
(dp1601
Vh
p1602
I400
sVresize
p1603
Vfit
p1604
sVw
p1605
I600
ssVthumb
p1606
(dp1607
Vh
p1608
I150
sVresize
p1609
Vcrop
p1610
sVw
p1611
I150
sssVindices
p1612
(lp1613
I48
aI70
asVtype
p1614
Vphoto
p1615
sVid
p1616
I535433789942808576
sVmedia_url
p1617
Vhttp://pbs.twimg.com/media/B24-MfJIQAA8uLZ.jpg
p1618
sasg63
Nsg64
Nsg65
Nsg66
VThu Nov 20 14:05:38 +0000 2014
p1619
sg68
Nsg69
I00
sg70
Nsg71
Nsg72
Nsg73
Nsg74
I00
sg75
Nsg76
(lp1620
sg78
Nsg79
Nsg80
Nsg81
V#WeWantToKnow what would be in your perfect RV? http://t.co/4aW8c72Qgo
p1621
sg83
I00
sg84
Ven
p1622
sg86
g3
(g87
g5
Ntp1623
Rp1624
(dp1625
g10
VDenver, CO
p1626
sg92
V333333
p1627
sg94
Ven
p1628
sg96
VMountain Time (US & Canada)
p1629
sg98
I562
sg99
I1102
sg66
VThu Oct 20 17:46:39 +0000 2011
p1630
sg101
I00
sg102
VRV sales, maintenance, parts and rentals in Denver and surrounding areas. Start your outdoor adventure today.
p1631
sg104
Vhttps://pbs.twimg.com/profile_images/1598190002/rv.america.logo_nbkgd2_normal.jpg
p1632
sg106
I480
sg107
I8
sg108
I-25200
sg109
Nsg110
I00
sg111
Vhttps://pbs.twimg.com/profile_banners/394824303/1399042852
p1633
sg113
I00
sg114
I01
sg115
V009999
p1634
sg117
I01
sg118
I00
sg119
Vhttp://pbs.twimg.com/profile_background_images/349889011/usa-2-stars-stripes.jpg
p1635
sg121
VRVAmericaInc
p1636
sg123
I8
sg124
VRVAmericaInc
p1637
sg126
VEFEFEF
p1638
sg128
Vhttp://t.co/kNblS5UtpV
p1639
sg130
I394824303
sg131
V131516
p1640
sbsg133
I0
sg134
V<a href="http://www.hootsuite.com" rel="nofollow">Hootsuite</a>
p1641
sg136
(lp1642
sg130
I535433790391599105
sbag3
(g4
g5
Ntp1643
Rp1644
(dp1645
g9
I0
sg10
Nsg11
Nsg12
(lp1646
sg14
I00
sg15
Nsg16
Nsg17
(lp1647
(dp1648
Vexpanded_url
p1649
Vhttp://twitter.com/RVAmericaInc/status/534708991411384320/photo/1
p1650
sVdisplay_url
p1651
Vpic.twitter.com/7CUBHxIkvW
p1652
sVurl
p1653
Vhttp://t.co/7CUBHxIkvW
p1654
sVmedia_url_https
p1655
Vhttps://pbs.twimg.com/media/B2uq_ocIIAEOSJc.jpg
p1656
sVid_str
p1657
V534708990937407489
p1658
sVsizes
p1659
(dp1660
Vsmall
p1661
(dp1662
Vh
p1663
I225
sVresize
p1664
Vfit
p1665
sVw
p1666
I340
ssVlarge
p1667
(dp1668
Vh
p1669
I425
sVresize
p1670
Vfit
p1671
sVw
p1672
I640
ssVmedium
p1673
(dp1674
Vh
p1675
I398
sVresize
p1676
Vfit
p1677
sVw
p1678
I600
ssVthumb
p1679
(dp1680
Vh
p1681
I150
sVresize
p1682
Vcrop
p1683
sVw
p1684
I150
sssVindices
p1685
(lp1686
I82
aI104
asVtype
p1687
Vphoto
p1688
sVid
p1689
I534708990937407489
sVmedia_url
p1690
Vhttp://pbs.twimg.com/media/B2uq_ocIIAEOSJc.jpg
p1691
sasg63
Nsg64
Nsg65
Nsg66
VTue Nov 18 14:05:32 +0000 2014
p1692
sg68
Nsg69
I00
sg70
Nsg71
Nsg72
Nsg73
Nsg74
I00
sg75
Nsg76
(lp1693
sg78
Nsg79
Nsg80
Nsg81
VIs the RV lifestyle right for you? Click here to find out: http://t.co/1NpAknpFBu http://t.co/7CUBHxIkvW
p1694
sg83
I00
sg84
Ven
p1695
sg86
g3
(g87
g5
Ntp1696
Rp1697
(dp1698
g10
VDenver, CO
p1699
sg92
V333333
p1700
sg94
Ven
p1701
sg96
VMountain Time (US & Canada)
p1702
sg98
I562
sg99
I1102
sg66
VThu Oct 20 17:46:39 +0000 2011
p1703
sg101
I00
sg102
VRV sales, maintenance, parts and rentals in Denver and surrounding areas. Start your outdoor adventure today.
p1704
sg104
Vhttps://pbs.twimg.com/profile_images/1598190002/rv.america.logo_nbkgd2_normal.jpg
p1705
sg106
I480
sg107
I8
sg108
I-25200
sg109
Nsg110
I00
sg111
Vhttps://pbs.twimg.com/profile_banners/394824303/1399042852
p1706
sg113
I00
sg114
I01
sg115
V009999
p1707
sg117
I01
sg118
I00
sg119
Vhttp://pbs.twimg.com/profile_background_images/349889011/usa-2-stars-stripes.jpg
p1708
sg121
VRVAmericaInc
p1709
sg123
I8
sg124
VRVAmericaInc
p1710
sg126
VEFEFEF
p1711
sg128
Vhttp://t.co/kNblS5UtpV
p1712
sg130
I394824303
sg131
V131516
p1713
sbsg133
I0
sg134
V<a href="http://www.hootsuite.com" rel="nofollow">Hootsuite</a>
p1714
sg136
(lp1715
g3
(g138
g5
Ntp1716
Rp1717
(dp1718
g142
Vhttp://t.co/1NpAknpFBu
p1719
sg144
Vhttp://goo.gl/EdhclW
p1720
sbasg130
I534708991411384320
sbaa.