(lp0
S'KingPupps'
p1
a(lp2
ccopy_reg
_reconstructor
p3
(ctwitter
Status
p4
c__builtin__
object
p5
Ntp6
Rp7
(dp8
S'_favorite_count'
p9
I0
sS'_location'
p10
NsS'_withheld_scope'
p11
NsS'hashtags'
p12
(lp13
g3
(ctwitter
Hashtag
p14
g5
Ntp15
Rp16
(dp17
S'text'
p18
VMONEY
p19
sbasS'_truncated'
p20
I00
sS'_retweeted_status'
p21
NsS'_withheld_copyright'
p22
NsS'media'
p23
(lp24
sS'_place'
p25
NsS'_contributors'
p26
NsS'_current_user_retweet'
p27
NsS'_created_at'
p28
VSun Dec 14 19:21:26 +0000 2014
p29
sS'_scopes'
p30
NsS'_possibly_sensitive'
p31
NsS'_in_reply_to_screen_name'
p32
NsS'_coordinates'
p33
NsS'_in_reply_to_user_id'
p34
NsS'_geo'
p35
NsS'_favorited'
p36
I00
sS'_withheld_in_countries'
p37
NsS'user_mentions'
p38
(lp39
sS'_now'
p40
NsS'_id_str'
p41
V544210574134247424
p42
sS'_in_reply_to_status_id'
p43
NsS'_text'
p44
VGOOD MORNING TO ALL MY PEOPLE!!!, FRIENDS, FAMILY AND SUPPORTERS. LETS GET THIS #MONEY AND FOR THOSE THAT ARE RELAXING...ENJOY YOUR DAY
p45
sS'_retweeted'
p46
I00
sS'lang'
p47
Ven
p48
sS'_user'
p49
g3
(ctwitter
User
p50
g5
Ntp51
Rp52
(dp53
g10
VPASADENA, CA
p54
sS'_profile_text_color'
p55
V000000
p56
sS'_lang'
p57
Ven
p58
sS'_time_zone'
p59
VPacific Time (US & Canada)
p60
sS'_followers_count'
p61
I521
sS'_statuses_count'
p62
I743
sg28
VSat Oct 25 00:09:26 +0000 2014
p63
sS'_verified'
p64
I00
sS'_description'
p65
VRecording Artist | Producer | For Features & Beats Email puppetsouthboundent@gmail.com Follow me on IG & Facebook at @kingpupps
p66
sS'_profile_image_url'
p67
Vhttps://pbs.twimg.com/profile_images/525802057781870593/ZmhlkQui_normal.jpeg
p68
sS'_friends_count'
p69
I392
sS'_favourites_count'
p70
I1960
sS'_utc_offset'
p71
I-28800
sS'_status'
p72
NsS'_protected'
p73
I00
sS'_profile_banner_url'
p74
Vhttps://pbs.twimg.com/profile_banners/2875947169/1415697051
p75
sS'_notifications'
p76
I00
sS'_profile_background_tile'
p77
I00
sS'_profile_link_color'
p78
VABB8C2
p79
sS'_geo_enabled'
p80
I00
sS'_contributors_enabled'
p81
I00
sS'_profile_background_image_url'
p82
Vhttp://abs.twimg.com/images/themes/theme14/bg.gif
p83
sS'_screen_name'
p84
VKingPupps
p85
sS'_listed_count'
p86
I4
sS'_name'
p87
VKing Puppet
p88
sS'_profile_sidebar_fill_color'
p89
V000000
p90
sS'_url'
p91
Vhttp://t.co/rRKZbPnbRu
p92
sS'_id'
p93
I2875947169
sS'_profile_background_color'
p94
V000000
p95
sbsS'_retweet_count'
p96
I0
sS'_source'
p97
V<a href="http://www.facebook.com/twitter" rel="nofollow">Facebook</a>
p98
sS'urls'
p99
(lp100
sg93
I544210574134247424
sbag3
(g4
g5
Ntp101
Rp102
(dp103
g9
I1
sg10
Nsg11
Nsg12
(lp104
g3
(g14
g5
Ntp105
Rp106
(dp107
g18
Vbusinessdinner
p108
sbag3
(g14
g5
Ntp109
Rp110
(dp111
g18
Vdinner
p112
sbag3
(g14
g5
Ntp113
Rp114
(dp115
g18
Vcompany
p116
sbag3
(g14
g5
Ntp117
Rp118
(dp119
g18
Vbosses
p120
sbag3
(g14
g5
Ntp121
Rp122
(dp123
g18
Vboss
p124
sbag3
(g14
g5
Ntp125
Rp126
(dp127
g18
Vtopdog
p128
sbag3
(g14
g5
Ntp129
Rp130
(dp131
g18
Vluxury
p132
sbasg20
I00
sg21
Nsg22
Nsg23
(lp133
sg25
Nsg26
Nsg27
Nsg28
VSun Dec 14 03:26:48 +0000 2014
p134
sg30
Nsg31
I00
sg32
Nsg33
Nsg34
Nsg35
Nsg36
I00
sg37
Nsg38
(lp135
sg40
Nsg41
V543970331363647489
p136
sg43
Nsg44
VNight is about to begin. #businessdinner #dinner #company dinner for #bosses #boss #topdog #luxury http://t.co/I2SQTSwhIi
p137
sg46
I00
sg47
Ven
p138
sg49
g3
(g50
g5
Ntp139
Rp140
(dp141
g10
VPASADENA, CA
p142
sg55
V000000
p143
sg57
Ven
p144
sg59
VPacific Time (US & Canada)
p145
sg61
I521
sg62
I743
sg28
VSat Oct 25 00:09:26 +0000 2014
p146
sg64
I00
sg65
VRecording Artist | Producer | For Features & Beats Email puppetsouthboundent@gmail.com Follow me on IG & Facebook at @kingpupps
p147
sg67
Vhttps://pbs.twimg.com/profile_images/525802057781870593/ZmhlkQui_normal.jpeg
p148
sg69
I392
sg70
I1960
sg71
I-28800
sg72
Nsg73
I00
sg74
Vhttps://pbs.twimg.com/profile_banners/2875947169/1415697051
p149
sg76
I00
sg77
I00
sg78
VABB8C2
p150
sg80
I00
sg81
I00
sg82
Vhttp://abs.twimg.com/images/themes/theme14/bg.gif
p151
sg84
VKingPupps
p152
sg86
I4
sg87
VKing Puppet
p153
sg89
V000000
p154
sg91
Vhttp://t.co/rRKZbPnbRu
p155
sg93
I2875947169
sg94
V000000
p156
sbsg96
I0
sg97
V<a href="http://instagram.com" rel="nofollow">Instagram</a>
p157
sg99
(lp158
g3
(ctwitter
Url
p159
g5
Ntp160
Rp161
(dp162
S'url'
p163
Vhttp://t.co/I2SQTSwhIi
p164
sS'expanded_url'
p165
Vhttp://instagram.com/p/wkm7oMIVV0/
p166
sbasg93
I543970331363647489
sbag3
(g4
g5
Ntp167
Rp168
(dp169
g9
I0
sg10
Nsg11
Nsg12
(lp170
g3
(g14
g5
Ntp171
Rp172
(dp173
g18
Vlmao
p174
sbasg20
I00
sg21
Nsg22
Nsg23
(lp175
sg25
Nsg26
Nsg27
Nsg28
VSun Dec 14 03:21:56 +0000 2014
p176
sg30
Nsg31
I00
sg32
Nsg33
Nsg34
Nsg35
Nsg36
I00
sg37
Nsg38
(lp177
sg40
Nsg41
V543969107092058112
p178
sg43
Nsg44
VShe's my little buddy My Main Chick #lmao. Good dog http://t.co/sQttIUfl1z
p179
sg46
I00
sg47
Ven
p180
sg49
g3
(g50
g5
Ntp181
Rp182
(dp183
g10
VPASADENA, CA
p184
sg55
V000000
p185
sg57
Ven
p186
sg59
VPacific Time (US & Canada)
p187
sg61
I521
sg62
I743
sg28
VSat Oct 25 00:09:26 +0000 2014
p188
sg64
I00
sg65
VRecording Artist | Producer | For Features & Beats Email puppetsouthboundent@gmail.com Follow me on IG & Facebook at @kingpupps
p189
sg67
Vhttps://pbs.twimg.com/profile_images/525802057781870593/ZmhlkQui_normal.jpeg
p190
sg69
I392
sg70
I1960
sg71
I-28800
sg72
Nsg73
I00
sg74
Vhttps://pbs.twimg.com/profile_banners/2875947169/1415697051
p191
sg76
I00
sg77
I00
sg78
VABB8C2
p192
sg80
I00
sg81
I00
sg82
Vhttp://abs.twimg.com/images/themes/theme14/bg.gif
p193
sg84
VKingPupps
p194
sg86
I4
sg87
VKing Puppet
p195
sg89
V000000
p196
sg91
Vhttp://t.co/rRKZbPnbRu
p197
sg93
I2875947169
sg94
V000000
p198
sbsg96
I0
sg97
V<a href="http://instagram.com" rel="nofollow">Instagram</a>
p199
sg99
(lp200
g3
(g159
g5
Ntp201
Rp202
(dp203
g163
Vhttp://t.co/sQttIUfl1z
p204
sg165
Vhttp://instagram.com/p/wkmX-4IVUw/
p205
sbasg93
I543969107092058112
sbag3
(g4
g5
Ntp206
Rp207
(dp208
g9
I0
sg10
Nsg11
Nsg12
(lp209
g3
(g14
g5
Ntp210
Rp211
(dp212
g18
VPuppet
p213
sbag3
(g14
g5
Ntp214
Rp215
(dp216
g18
Vwinter
p217
sbasg20
I00
sg21
Nsg22
Nsg23
(lp218
sg25
Nsg26
Nsg27
Nsg28
VSun Dec 14 03:03:16 +0000 2014
p219
sg30
Nsg31
I00
sg32
Nsg33
Nsg34
Nsg35
Nsg36
I00
sg37
Nsg38
(lp220
sg40
Nsg41
V543964411094790144
p221
sg43
Nsg44
VFinally Here!! #Puppet beanies will be here soon for the #winter\u2744\ufe0f\u2744\ufe0f\u26c4\ufe0f If you would like to Order one\u2026 http://t.co/pEX64kr4g0
p222
sg46
I00
sg47
Ven
p223
sg49
g3
(g50
g5
Ntp224
Rp225
(dp226
g10
VPASADENA, CA
p227
sg55
V000000
p228
sg57
Ven
p229
sg59
VPacific Time (US & Canada)
p230
sg61
I521
sg62
I743
sg28
VSat Oct 25 00:09:26 +0000 2014
p231
sg64
I00
sg65
VRecording Artist | Producer | For Features & Beats Email puppetsouthboundent@gmail.com Follow me on IG & Facebook at @kingpupps
p232
sg67
Vhttps://pbs.twimg.com/profile_images/525802057781870593/ZmhlkQui_normal.jpeg
p233
sg69
I392
sg70
I1960
sg71
I-28800
sg72
Nsg73
I00
sg74
Vhttps://pbs.twimg.com/profile_banners/2875947169/1415697051
p234
sg76
I00
sg77
I00
sg78
VABB8C2
p235
sg80
I00
sg81
I00
sg82
Vhttp://abs.twimg.com/images/themes/theme14/bg.gif
p236
sg84
VKingPupps
p237
sg86
I4
sg87
VKing Puppet
p238
sg89
V000000
p239
sg91
Vhttp://t.co/rRKZbPnbRu
p240
sg93
I2875947169
sg94
V000000
p241
sbsg96
I0
sg97
V<a href="http://instagram.com" rel="nofollow">Instagram</a>
p242
sg99
(lp243
g3
(g159
g5
Ntp244
Rp245
(dp246
g163
Vhttp://t.co/pEX64kr4g0
p247
sg165
Vhttp://instagram.com/p/wkkPTdoVRJ/
p248
sbasg93
I543964411094790144
sbag3
(g4
g5
Ntp249
Rp250
(dp251
g9
I0
sg10
Nsg11
Nsg12
(lp252
g3
(g14
g5
Ntp253
Rp254
(dp255
g18
VPuppet
p256
sbag3
(g14
g5
Ntp257
Rp258
(dp259
g18
Vwinter
p260
sbasg20
I00
sg21
Nsg22
Nsg23
(lp261
sg25
Nsg26
Nsg27
Nsg28
VSun Dec 14 02:40:42 +0000 2014
p262
sg30
Nsg31
I00
sg32
Nsg33
Nsg34
Nsg35
Nsg36
I00
sg37
Nsg38
(lp263
sg40
Nsg41
V543958731692974080
p264
sg43
Nsg44
VFinally Here!! #Puppet beanies will be here soon for the #winter\u2744\ufe0f\u2744\ufe0f\u26c4\ufe0f If you would like to Order one\u2026 http://t.co/bad50ByH9z
p265
sg46
I00
sg47
Ven
p266
sg49
g3
(g50
g5
Ntp267
Rp268
(dp269
g10
VPASADENA, CA
p270
sg55
V000000
p271
sg57
Ven
p272
sg59
VPacific Time (US & Canada)
p273
sg61
I521
sg62
I743
sg28
VSat Oct 25 00:09:26 +0000 2014
p274
sg64
I00
sg65
VRecording Artist | Producer | For Features & Beats Email puppetsouthboundent@gmail.com Follow me on IG & Facebook at @kingpupps
p275
sg67
Vhttps://pbs.twimg.com/profile_images/525802057781870593/ZmhlkQui_normal.jpeg
p276
sg69
I392
sg70
I1960
sg71
I-28800
sg72
Nsg73
I00
sg74
Vhttps://pbs.twimg.com/profile_banners/2875947169/1415697051
p277
sg76
I00
sg77
I00
sg78
VABB8C2
p278
sg80
I00
sg81
I00
sg82
Vhttp://abs.twimg.com/images/themes/theme14/bg.gif
p279
sg84
VKingPupps
p280
sg86
I4
sg87
VKing Puppet
p281
sg89
V000000
p282
sg91
Vhttp://t.co/rRKZbPnbRu
p283
sg93
I2875947169
sg94
V000000
p284
sbsg96
I0
sg97
V<a href="http://instagram.com" rel="nofollow">Instagram</a>
p285
sg99
(lp286
g3
(g159
g5
Ntp287
Rp288
(dp289
g163
Vhttp://t.co/bad50ByH9z
p290
sg165
Vhttp://instagram.com/p/wkhqBDIVdH/
p291
sbasg93
I543958731692974080
sbag3
(g4
g5
Ntp292
Rp293
(dp294
g9
I0
sg10
Nsg11
Nsg12
(lp295
sg20
I00
sg21
Nsg22
Nsg23
(lp296
sg25
Nsg26
Nsg27
Nsg28
VSun Dec 14 00:58:13 +0000 2014
p297
sg30
Nsg31
I00
sg32
Nsg33
Nsg34
Nsg35
Nsg36
I00
sg37
Nsg38
(lp298
sg40
Nsg41
V543932942310195201
p299
sg43
Nsg44
VNew beanies now here. $15.00 cost and you can securely PayPal money to puppetsouthboundent@gmail.com and orders... http://t.co/BVD24DyeAy
p300
sg46
I00
sg47
Ven
p301
sg49
g3
(g50
g5
Ntp302
Rp303
(dp304
g10
VPASADENA, CA
p305
sg55
V000000
p306
sg57
Ven
p307
sg59
VPacific Time (US & Canada)
p308
sg61
I521
sg62
I743
sg28
VSat Oct 25 00:09:26 +0000 2014
p309
sg64
I00
sg65
VRecording Artist | Producer | For Features & Beats Email puppetsouthboundent@gmail.com Follow me on IG & Facebook at @kingpupps
p310
sg67
Vhttps://pbs.twimg.com/profile_images/525802057781870593/ZmhlkQui_normal.jpeg
p311
sg69
I392
sg70
I1960
sg71
I-28800
sg72
Nsg73
I00
sg74
Vhttps://pbs.twimg.com/profile_banners/2875947169/1415697051
p312
sg76
I00
sg77
I00
sg78
VABB8C2
p313
sg80
I00
sg81
I00
sg82
Vhttp://abs.twimg.com/images/themes/theme14/bg.gif
p314
sg84
VKingPupps
p315
sg86
I4
sg87
VKing Puppet
p316
sg89
V000000
p317
sg91
Vhttp://t.co/rRKZbPnbRu
p318
sg93
I2875947169
sg94
V000000
p319
sbsg96
I0
sg97
V<a href="http://www.facebook.com/twitter" rel="nofollow">Facebook</a>
p320
sg99
(lp321
g3
(g159
g5
Ntp322
Rp323
(dp324
g163
Vhttp://t.co/BVD24DyeAy
p325
sg165
Vhttp://fb.me/2S8Mx156e
p326
sbasg93
I543932942310195201
sbag3
(g4
g5
Ntp327
Rp328
(dp329
g9
I0
sg10
Nsg11
Nsg12
(lp330
g3
(g14
g5
Ntp331
Rp332
(dp333
g18
VPuppet
p334
sbag3
(g14
g5
Ntp335
Rp336
(dp337
g18
Vwinter
p338
sbasg20
I00
sg21
Nsg22
Nsg23
(lp339
sg25
Nsg26
Nsg27
Nsg28
VSun Dec 14 00:36:58 +0000 2014
p340
sg30
Nsg31
I00
sg32
Nsg33
Nsg34
Nsg35
Nsg36
I00
sg37
Nsg38
(lp341
sg40
Nsg41
V543927594962665472
p342
sg43
Nsg44
VFinally Here!! #Puppet beanies will be here soon for the #winter\u2744\ufe0f\u2744\ufe0f\u26c4\ufe0f If you would like to Order one\u2026 http://t.co/ZzKhs2gTBv
p343
sg46
I00
sg47
Ven
p344
sg49
g3
(g50
g5
Ntp345
Rp346
(dp347
g10
VPASADENA, CA
p348
sg55
V000000
p349
sg57
Ven
p350
sg59
VPacific Time (US & Canada)
p351
sg61
I521
sg62
I743
sg28
VSat Oct 25 00:09:26 +0000 2014
p352
sg64
I00
sg65
VRecording Artist | Producer | For Features & Beats Email puppetsouthboundent@gmail.com Follow me on IG & Facebook at @kingpupps
p353
sg67
Vhttps://pbs.twimg.com/profile_images/525802057781870593/ZmhlkQui_normal.jpeg
p354
sg69
I392
sg70
I1960
sg71
I-28800
sg72
Nsg73
I00
sg74
Vhttps://pbs.twimg.com/profile_banners/2875947169/1415697051
p355
sg76
I00
sg77
I00
sg78
VABB8C2
p356
sg80
I00
sg81
I00
sg82
Vhttp://abs.twimg.com/images/themes/theme14/bg.gif
p357
sg84
VKingPupps
p358
sg86
I4
sg87
VKing Puppet
p359
sg89
V000000
p360
sg91
Vhttp://t.co/rRKZbPnbRu
p361
sg93
I2875947169
sg94
V000000
p362
sbsg96
I0
sg97
V<a href="http://instagram.com" rel="nofollow">Instagram</a>
p363
sg99
(lp364
g3
(g159
g5
Ntp365
Rp366
(dp367
g163
Vhttp://t.co/ZzKhs2gTBv
p368
sg165
Vhttp://instagram.com/p/wkTf1wIVUq/
p369
sbasg93
I543927594962665472
sbag3
(g4
g5
Ntp370
Rp371
(dp372
g9
I0
sg10
Nsg11
Nsg12
(lp373
sg20
I00
sg21
Nsg22
Nsg23
(lp374
sg25
Nsg26
Nsg27
Nsg28
VSat Dec 13 23:08:12 +0000 2014
p375
sg30
Nsg31
I00
sg32
Nsg33
Nsg34
Nsg35
Nsg36
I00
sg37
Nsg38
(lp376
g3
(g50
g5
Ntp377
Rp378
(dp379
g10
Nsg55
Nsg57
Nsg59
Nsg61
Nsg62
Nsg28
Nsg64
Nsg65
Nsg67
Nsg69
Nsg70
Nsg71
Nsg72
Nsg73
Nsg74
Nsg76
Nsg77
Nsg78
Nsg80
Nsg81
Nsg82
Nsg84
VDatPiff
p380
sg86
Nsg87
VDatPiff.com
p381
sg89
Nsg91
Nsg93
I24987131
sg94
Nsbasg40
Nsg41
V543905255067381760
p382
sg43
Nsg44
VPUPPET - Here I Am Hosted by BETTANOIZE http://t.co/7udZkFTzCJ via @DatPiff
p383
sg46
I00
sg47
Ven
p384
sg49
g3
(g50
g5
Ntp385
Rp386
(dp387
g10
VPASADENA, CA
p388
sg55
V000000
p389
sg57
Ven
p390
sg59
VPacific Time (US & Canada)
p391
sg61
I521
sg62
I743
sg28
VSat Oct 25 00:09:26 +0000 2014
p392
sg64
I00
sg65
VRecording Artist | Producer | For Features & Beats Email puppetsouthboundent@gmail.com Follow me on IG & Facebook at @kingpupps
p393
sg67
Vhttps://pbs.twimg.com/profile_images/525802057781870593/ZmhlkQui_normal.jpeg
p394
sg69
I392
sg70
I1960
sg71
I-28800
sg72
Nsg73
I00
sg74
Vhttps://pbs.twimg.com/profile_banners/2875947169/1415697051
p395
sg76
I00
sg77
I00
sg78
VABB8C2
p396
sg80
I00
sg81
I00
sg82
Vhttp://abs.twimg.com/images/themes/theme14/bg.gif
p397
sg84
VKingPupps
p398
sg86
I4
sg87
VKing Puppet
p399
sg89
V000000
p400
sg91
Vhttp://t.co/rRKZbPnbRu
p401
sg93
I2875947169
sg94
V000000
p402
sbsg96
I0
sg97
V<a href="https://dev.twitter.com/docs/tfw" rel="nofollow">Twitter for Websites</a>
p403
sg99
(lp404
g3
(g159
g5
Ntp405
Rp406
(dp407
g163
Vhttp://t.co/7udZkFTzCJ
p408
sg165
Vhttp://www.datpiff.com/PUPPET-Here-I-Am-mixtape.651895.html
p409
sbasg93
I543905255067381760
sbag3
(g4
g5
Ntp410
Rp411
(dp412
g9
I1
sg10
Nsg11
Nsg12
(lp413
g3
(g14
g5
Ntp414
Rp415
(dp416
g18
VRap
p417
sbag3
(g14
g5
Ntp418
Rp419
(dp420
g18
VRnBass
p421
sbag3
(g14
g5
Ntp422
Rp423
(dp424
g18
VTrap
p425
sbag3
(g14
g5
Ntp426
Rp427
(dp428
g18
Vmusic
p429
sbag3
(g14
g5
Ntp430
Rp431
(dp432
g18
VLaBangs
p433
sbag3
(g14
g5
Ntp434
Rp435
(dp436
g18
VKingPuppet
p437
sbag3
(g14
g5
Ntp438
Rp439
(dp440
g18
VHereiAm
p441
sbag3
(g14
g5
Ntp442
Rp443
(dp444
g18
VNotADream
p445
sbasg20
I00
sg21
Nsg22
Nsg23
(lp446
sg25
Nsg26
Nsg27
Nsg28
VSat Dec 13 23:04:58 +0000 2014
p447
sg30
Nsg31
I00
sg32
Nsg33
Nsg34
Nsg35
Nsg36
I00
sg37
Nsg38
(lp448
sg40
Nsg41
V543904440743624704
p449
sg43
Nsg44
Vhttps://t.co/DUUR6JdYPu\u000a#Rap #RnBass #Trap #music #LaBangs #KingPuppet #HereiAm #NotADream http://t.co/w7byEvH8nE
p450
sg46
I00
sg47
Vund
p451
sg49
g3
(g50
g5
Ntp452
Rp453
(dp454
g10
VPASADENA, CA
p455
sg55
V000000
p456
sg57
Ven
p457
sg59
VPacific Time (US & Canada)
p458
sg61
I521
sg62
I743
sg28
VSat Oct 25 00:09:26 +0000 2014
p459
sg64
I00
sg65
VRecording Artist | Producer | For Features & Beats Email puppetsouthboundent@gmail.com Follow me on IG & Facebook at @kingpupps
p460
sg67
Vhttps://pbs.twimg.com/profile_images/525802057781870593/ZmhlkQui_normal.jpeg
p461
sg69
I392
sg70
I1960
sg71
I-28800
sg72
Nsg73
I00
sg74
Vhttps://pbs.twimg.com/profile_banners/2875947169/1415697051
p462
sg76
I00
sg77
I00
sg78
VABB8C2
p463
sg80
I00
sg81
I00
sg82
Vhttp://abs.twimg.com/images/themes/theme14/bg.gif
p464
sg84
VKingPupps
p465
sg86
I4
sg87
VKing Puppet
p466
sg89
V000000
p467
sg91
Vhttp://t.co/rRKZbPnbRu
p468
sg93
I2875947169
sg94
V000000
p469
sbsg96
I0
sg97
V<a href="http://www.facebook.com/twitter" rel="nofollow">Facebook</a>
p470
sg99
(lp471
g3
(g159
g5
Ntp472
Rp473
(dp474
g163
Vhttps://t.co/DUUR6JdYPu
p475
sg165
Vhttps://soundcloud.com/king-puppet/sets/here-i-am
p476
sbag3
(g159
g5
Ntp477
Rp478
(dp479
g163
Vhttp://t.co/w7byEvH8nE
p480
sg165
Vhttp://fb.me/1nCtN4hjr
p481
sbasg93
I543904440743624704
sbag3
(g4
g5
Ntp482
Rp483
(dp484
g9
I1
sg10
Nsg11
Nsg12
(lp485
g3
(g14
g5
Ntp486
Rp487
(dp488
g18
VSoundCloud
p489
sbag3
(g14
g5
Ntp490
Rp491
(dp492
g18
Vdownload
p493
sbag3
(g14
g5
Ntp494
Rp495
(dp496
g18
Vrap
p497
sbag3
(g14
g5
Ntp498
Rp499
(dp500
g18
Vtrap
p501
sbag3
(g14
g5
Ntp502
Rp503
(dp504
g18
Vslappers
p505
sbag3
(g14
g5
Ntp506
Rp507
(dp508
g18
Vkingpuppet
p509
sbasg20
I00
sg21
Nsg22
Nsg23
(lp510
sg25
Nsg26
Nsg27
Nsg28
VSat Dec 13 22:38:28 +0000 2014
p511
sg30
Nsg31
I00
sg32
Nsg33
Nsg34
Nsg35
Nsg36
I00
sg37
Nsg38
(lp512
sg40
Nsg41
V543897772714254336
p513
sg43
Nsg44
VHave you heard \u2018HERE I AM\u2019 by Puppet Southbound on #SoundCloud? https://t.co/4FzTHTFBUk #download #rap #trap #slappers #kingpuppet
p514
sg46
I00
sg47
Ven
p515
sg49
g3
(g50
g5
Ntp516
Rp517
(dp518
g10
VPASADENA, CA
p519
sg55
V000000
p520
sg57
Ven
p521
sg59
VPacific Time (US & Canada)
p522
sg61
I521
sg62
I743
sg28
VSat Oct 25 00:09:26 +0000 2014
p523
sg64
I00
sg65
VRecording Artist | Producer | For Features & Beats Email puppetsouthboundent@gmail.com Follow me on IG & Facebook at @kingpupps
p524
sg67
Vhttps://pbs.twimg.com/profile_images/525802057781870593/ZmhlkQui_normal.jpeg
p525
sg69
I392
sg70
I1960
sg71
I-28800
sg72
Nsg73
I00
sg74
Vhttps://pbs.twimg.com/profile_banners/2875947169/1415697051
p526
sg76
I00
sg77
I00
sg78
VABB8C2
p527
sg80
I00
sg81
I00
sg82
Vhttp://abs.twimg.com/images/themes/theme14/bg.gif
p528
sg84
VKingPupps
p529
sg86
I4
sg87
VKing Puppet
p530
sg89
V000000
p531
sg91
Vhttp://t.co/rRKZbPnbRu
p532
sg93
I2875947169
sg94
V000000
p533
sbsg96
I0
sg97
V<a href="https://dev.twitter.com/docs/tfw" rel="nofollow">Twitter for Websites</a>
p534
sg99
(lp535
g3
(g159
g5
Ntp536
Rp537
(dp538
g163
Vhttps://t.co/4FzTHTFBUk
p539
sg165
Vhttps://soundcloud.com/puppet-southbound/sets/here-i-am?utm_source=soundcloud&utm_campaign=share&utm_medium=twitter
p540
sbasg93
I543897772714254336
sbag3
(g4
g5
Ntp541
Rp542
(dp543
g9
I0
sg10
Nsg11
Nsg12
(lp544
g3
(g14
g5
Ntp545
Rp546
(dp547
g18
Vnp
p548
sbag3
(g14
g5
Ntp549
Rp550
(dp551
g18
VSoundCloud
p552
sbasg20
I00
sg21
Nsg22
Nsg23
(lp553
sg25
Nsg26
Nsg27
Nsg28
VSat Dec 13 22:22:39 +0000 2014
p554
sg30
Nsg31
I00
sg32
Nsg33
Nsg34
Nsg35
Nsg36
I00
sg37
Nsg38
(lp555
sg40
Nsg41
V543893792722808832
p556
sg43
Nsg44
VListen to HERE I AM by Puppet Southbound #np on #SoundCloud https://t.co/Se3hBapNml
p557
sg46
I00
sg47
Ven
p558
sg49
g3
(g50
g5
Ntp559
Rp560
(dp561
g10
VPASADENA, CA
p562
sg55
V000000
p563
sg57
Ven
p564
sg59
VPacific Time (US & Canada)
p565
sg61
I521
sg62
I743
sg28
VSat Oct 25 00:09:26 +0000 2014
p566
sg64
I00
sg65
VRecording Artist | Producer | For Features & Beats Email puppetsouthboundent@gmail.com Follow me on IG & Facebook at @kingpupps
p567
sg67
Vhttps://pbs.twimg.com/profile_images/525802057781870593/ZmhlkQui_normal.jpeg
p568
sg69
I392
sg70
I1960
sg71
I-28800
sg72
Nsg73
I00
sg74
Vhttps://pbs.twimg.com/profile_banners/2875947169/1415697051
p569
sg76
I00
sg77
I00
sg78
VABB8C2
p570
sg80
I00
sg81
I00
sg82
Vhttp://abs.twimg.com/images/themes/theme14/bg.gif
p571
sg84
VKingPupps
p572
sg86
I4
sg87
VKing Puppet
p573
sg89
V000000
p574
sg91
Vhttp://t.co/rRKZbPnbRu
p575
sg93
I2875947169
sg94
V000000
p576
sbsg96
I0
sg97
V<a href="http://www.apple.com" rel="nofollow">iOS</a>
p577
sg99
(lp578
g3
(g159
g5
Ntp579
Rp580
(dp581
g163
Vhttps://t.co/Se3hBapNml
p582
sg165
Vhttps://soundcloud.com/puppet-southbound/sets/here-i-am
p583
sbasg93
I543893792722808832
sbag3
(g4
g5
Ntp584
Rp585
(dp586
g9
I0
sg10
Nsg11
Nsg12
(lp587
g3
(g14
g5
Ntp588
Rp589
(dp590
g18
VSoundCloud
p591
sbasg20
I00
sg21
Nsg22
Nsg23
(lp592
sg25
Nsg26
Nsg27
Nsg28
VSat Dec 13 22:09:20 +0000 2014
p593
sg30
Nsg31
I00
sg32
Nsg33
Nsg34
Nsg35
Nsg36
I00
sg37
Nsg38
(lp594
g3
(g50
g5
Ntp595
Rp596
(dp597
g10
Nsg55
Nsg57
Nsg59
Nsg61
Nsg62
Nsg28
Nsg64
Nsg65
Nsg67
Nsg69
Nsg70
Nsg71
Nsg72
Nsg73
Nsg74
Nsg76
Nsg77
Nsg78
Nsg80
Nsg81
Nsg82
Nsg84
VKingPupps
p598
sg86
Nsg87
VKing Puppet
p599
sg89
Nsg91
Nsg93
I2875947169
sg94
Nsbasg40
Nsg41
V543890440345247744
p600
sg43
Nsg44
VHave you heard \u201810 Bad Guy\u2019 by @KingPupps on #SoundCloud? https://t.co/YOFHjRSKf2
p601
sg46
I00
sg47
Ven
p602
sg49
g3
(g50
g5
Ntp603
Rp604
(dp605
g10
VPASADENA, CA
p606
sg55
V000000
p607
sg57
Ven
p608
sg59
VPacific Time (US & Canada)
p609
sg61
I521
sg62
I743
sg28
VSat Oct 25 00:09:26 +0000 2014
p610
sg64
I00
sg65
VRecording Artist | Producer | For Features & Beats Email puppetsouthboundent@gmail.com Follow me on IG & Facebook at @kingpupps
p611
sg67
Vhttps://pbs.twimg.com/profile_images/525802057781870593/ZmhlkQui_normal.jpeg
p612
sg69
I392
sg70
I1960
sg71
I-28800
sg72
Nsg73
I00
sg74
Vhttps://pbs.twimg.com/profile_banners/2875947169/1415697051
p613
sg76
I00
sg77
I00
sg78
VABB8C2
p614
sg80
I00
sg81
I00
sg82
Vhttp://abs.twimg.com/images/themes/theme14/bg.gif
p615
sg84
VKingPupps
p616
sg86
I4
sg87
VKing Puppet
p617
sg89
V000000
p618
sg91
Vhttp://t.co/rRKZbPnbRu
p619
sg93
I2875947169
sg94
V000000
p620
sbsg96
I0
sg97
V<a href="https://dev.twitter.com/docs/tfw" rel="nofollow">Twitter for Websites</a>
p621
sg99
(lp622
g3
(g159
g5
Ntp623
Rp624
(dp625
g163
Vhttps://t.co/YOFHjRSKf2
p626
sg165
Vhttps://soundcloud.com/puppet-southbound/10-bad-guy?utm_source=soundcloud&utm_campaign=share&utm_medium=twitter
p627
sbasg93
I543890440345247744
sbag3
(g4
g5
Ntp628
Rp629
(dp630
g9
I0
sg10
Nsg11
Nsg12
(lp631
sg20
I00
sg21
g3
(g4
g5
Ntp632
Rp633
(dp634
g9
I14
sg10
Nsg11
Nsg12
(lp635
sg20
I00
sg21
Nsg22
Nsg23
(lp636
sg25
Nsg26
Nsg27
Nsg28
VSat Dec 13 21:07:04 +0000 2014
p637
sg30
Nsg31
I00
sg32
Nsg33
Nsg34
Nsg35
Nsg36
I00
sg37
Nsg38
(lp638
sg40
Nsg41
V543874770584891392
p639
sg43
Nsg44
VLets get a million likes http://t.co/l76OldqR1O
p640
sg46
I00
sg47
Ven
p641
sg49
g3
(g50
g5
Ntp642
Rp643
(dp644
g10
VLosAngeles/SGV 
p645
sg55
V333333
p646
sg57
Ven
p647
sg59
VCentral Time (US & Canada)
p648
sg61
I71567
sg62
I20760
sg28
VMon Apr 27 04:04:44 +0000 2009
p649
sg64
I00
sg65
VBiggest Independent Artist and label #HIPOWER( #NewAlbum 2 cds same day 2k15 ) http://t.co/6ZfpxOWJ7E
p650
sg67
Vhttps://pbs.twimg.com/profile_images/528625835675107328/YasmIqRU_normal.jpeg
p651
sg69
I714
sg70
I60
sg71
I-21600
sg72
Nsg73
I00
sg74
Vhttps://pbs.twimg.com/profile_banners/35665483/1405019005
p652
sg76
I00
sg77
I01
sg78
V0A8FB0
p653
sg80
I01
sg81
I00
sg82
Vhttp://pbs.twimg.com/profile_background_images/378800000060353387/b30451fc5faa6f98de21334a8e95e48a.jpeg
p654
sg84
VMrCaponeE
p655
sg86
I163
sg87
VMr. Capone-E
p656
sg89
VC0DFEC
p657
sg91
Vhttp://t.co/whKq8mU3x6
p658
sg93
I35665483
sg94
V1A1B1F
p659
sbsg96
I11
sg97
V<a href="http://twitter.com/download/iphone" rel="nofollow">Twitter for iPhone</a>
p660
sg99
(lp661
g3
(g159
g5
Ntp662
Rp663
(dp664
g163
Vhttp://t.co/l76OldqR1O
p665
sg165
Vhttp://www.facebook.com/hipowerent
p666
sbasg93
I543874770584891392
sbsg22
Nsg23
(lp667
sg25
Nsg26
Nsg27
Nsg28
VSat Dec 13 21:08:39 +0000 2014
p668
sg30
Nsg31
I00
sg32
Nsg33
Nsg34
Nsg35
Nsg36
I00
sg37
Nsg38
(lp669
g3
(g50
g5
Ntp670
Rp671
(dp672
g10
Nsg55
Nsg57
Nsg59
Nsg61
Nsg62
Nsg28
Nsg64
Nsg65
Nsg67
Nsg69
Nsg70
Nsg71
Nsg72
Nsg73
Nsg74
Nsg76
Nsg77
Nsg78
Nsg80
Nsg81
Nsg82
Nsg84
VMrCaponeE
p673
sg86
Nsg87
VMr. Capone-E
p674
sg89
Nsg91
Nsg93
I35665483
sg94
Nsbasg40
Nsg41
V543875167202869250
p675
sg43
Nsg44
VRT @MrCaponeE: Lets get a million likes http://t.co/l76OldqR1O
p676
sg46
I00
sg47
Ven
p677
sg49
g3
(g50
g5
Ntp678
Rp679
(dp680
g10
VPASADENA, CA
p681
sg55
V000000
p682
sg57
Ven
p683
sg59
VPacific Time (US & Canada)
p684
sg61
I521
sg62
I743
sg28
VSat Oct 25 00:09:26 +0000 2014
p685
sg64
I00
sg65
VRecording Artist | Producer | For Features & Beats Email puppetsouthboundent@gmail.com Follow me on IG & Facebook at @kingpupps
p686
sg67
Vhttps://pbs.twimg.com/profile_images/525802057781870593/ZmhlkQui_normal.jpeg
p687
sg69
I392
sg70
I1960
sg71
I-28800
sg72
Nsg73
I00
sg74
Vhttps://pbs.twimg.com/profile_banners/2875947169/1415697051
p688
sg76
I00
sg77
I00
sg78
VABB8C2
p689
sg80
I00
sg81
I00
sg82
Vhttp://abs.twimg.com/images/themes/theme14/bg.gif
p690
sg84
VKingPupps
p691
sg86
I4
sg87
VKing Puppet
p692
sg89
V000000
p693
sg91
Vhttp://t.co/rRKZbPnbRu
p694
sg93
I2875947169
sg94
V000000
p695
sbsg96
I11
sg97
V<a href="http://twitter.com/download/iphone" rel="nofollow">Twitter for iPhone</a>
p696
sg99
(lp697
g3
(g159
g5
Ntp698
Rp699
(dp700
g163
Vhttp://t.co/l76OldqR1O
p701
sg165
Vhttp://www.facebook.com/hipowerent
p702
sbasg93
I543875167202869250
sbag3
(g4
g5
Ntp703
Rp704
(dp705
g9
I0
sg10
Nsg11
Nsg12
(lp706
sg20
I00
sg21
Nsg22
Nsg23
(lp707
sg25
Nsg26
Nsg27
Nsg28
VSat Dec 13 19:30:56 +0000 2014
p708
sg30
Nsg31
I00
sg32
Nsg33
Nsg34
Nsg35
Nsg36
I00
sg37
Nsg38
(lp709
sg40
Nsg41
V543850578493730817
p710
sg43
Nsg44
VGotta get these also. Out with the old and in with the new is what I've been learning. Time for some\u2026 http://t.co/F2xySe8JiV
p711
sg46
I00
sg47
Ven
p712
sg49
g3
(g50
g5
Ntp713
Rp714
(dp715
g10
VPASADENA, CA
p716
sg55
V000000
p717
sg57
Ven
p718
sg59
VPacific Time (US & Canada)
p719
sg61
I521
sg62
I743
sg28
VSat Oct 25 00:09:26 +0000 2014
p720
sg64
I00
sg65
VRecording Artist | Producer | For Features & Beats Email puppetsouthboundent@gmail.com Follow me on IG & Facebook at @kingpupps
p721
sg67
Vhttps://pbs.twimg.com/profile_images/525802057781870593/ZmhlkQui_normal.jpeg
p722
sg69
I392
sg70
I1960
sg71
I-28800
sg72
Nsg73
I00
sg74
Vhttps://pbs.twimg.com/profile_banners/2875947169/1415697051
p723
sg76
I00
sg77
I00
sg78
VABB8C2
p724
sg80
I00
sg81
I00
sg82
Vhttp://abs.twimg.com/images/themes/theme14/bg.gif
p725
sg84
VKingPupps
p726
sg86
I4
sg87
VKing Puppet
p727
sg89
V000000
p728
sg91
Vhttp://t.co/rRKZbPnbRu
p729
sg93
I2875947169
sg94
V000000
p730
sbsg96
I0
sg97
V<a href="http://instagram.com" rel="nofollow">Instagram</a>
p731
sg99
(lp732
g3
(g159
g5
Ntp733
Rp734
(dp735
g163
Vhttp://t.co/F2xySe8JiV
p736
sg165
Vhttp://instagram.com/p/wjweVsoVem/
p737
sbasg93
I543850578493730817
sbag3
(g4
g5
Ntp738
Rp739
(dp740
g9
I0
sg10
Nsg11
Nsg12
(lp741
g3
(g14
g5
Ntp742
Rp743
(dp744
g18
Vsick
p745
sbag3
(g14
g5
Ntp746
Rp747
(dp748
g18
Vbadass
p749
sbag3
(g14
g5
Ntp750
Rp751
(dp752
g18
Vgettingthemsoon
p753
sbag3
(g14
g5
Ntp754
Rp755
(dp756
g18
Vshoes
p757
sbag3
(g14
g5
Ntp758
Rp759
(dp760
g18
Vkicks
p761
sbag3
(g14
g5
Ntp762
Rp763
(dp764
g18
Vsacsfifth
p765
sbasg20
I00
sg21
Nsg22
Nsg23
(lp766
sg25
Nsg26
Nsg27
Nsg28
VSat Dec 13 19:29:18 +0000 2014
p767
sg30
Nsg31
I00
sg32
Nsg33
Nsg34
Nsg35
Nsg36
I00
sg37
Nsg38
(lp768
sg40
Nsg41
V543850165606432768
p769
sg43
Nsg44
V#sick #badass #gettingthemsoon #shoes #kicks #sacsfifth http://t.co/KQDi6pS3iN
p770
sg46
I00
sg47
Vund
p771
sg49
g3
(g50
g5
Ntp772
Rp773
(dp774
g10
VPASADENA, CA
p775
sg55
V000000
p776
sg57
Ven
p777
sg59
VPacific Time (US & Canada)
p778
sg61
I521
sg62
I743
sg28
VSat Oct 25 00:09:26 +0000 2014
p779
sg64
I00
sg65
VRecording Artist | Producer | For Features & Beats Email puppetsouthboundent@gmail.com Follow me on IG & Facebook at @kingpupps
p780
sg67
Vhttps://pbs.twimg.com/profile_images/525802057781870593/ZmhlkQui_normal.jpeg
p781
sg69
I392
sg70
I1960
sg71
I-28800
sg72
Nsg73
I00
sg74
Vhttps://pbs.twimg.com/profile_banners/2875947169/1415697051
p782
sg76
I00
sg77
I00
sg78
VABB8C2
p783
sg80
I00
sg81
I00
sg82
Vhttp://abs.twimg.com/images/themes/theme14/bg.gif
p784
sg84
VKingPupps
p785
sg86
I4
sg87
VKing Puppet
p786
sg89
V000000
p787
sg91
Vhttp://t.co/rRKZbPnbRu
p788
sg93
I2875947169
sg94
V000000
p789
sbsg96
I0
sg97
V<a href="http://instagram.com" rel="nofollow">Instagram</a>
p790
sg99
(lp791
g3
(g159
g5
Ntp792
Rp793
(dp794
g163
Vhttp://t.co/KQDi6pS3iN
p795
sg165
Vhttp://instagram.com/p/wjwSUWoVeM/
p796
sbasg93
I543850165606432768
sbag3
(g4
g5
Ntp797
Rp798
(dp799
g9
I0
sg10
Nsg11
Nsg12
(lp800
g3
(g14
g5
Ntp801
Rp802
(dp803
g18
Vnp
p804
sbag3
(g14
g5
Ntp805
Rp806
(dp807
g18
VSoundCloud
p808
sbasg20
I00
sg21
Nsg22
Nsg23
(lp809
sg25
Nsg26
Nsg27
Nsg28
VSat Dec 13 16:39:21 +0000 2014
p810
sg30
Nsg31
I00
sg32
Nsg33
Nsg34
Nsg35
Nsg36
I00
sg37
Nsg38
(lp811
sg40
Nsg41
V543807398092099584
p812
sg43
Nsg44
VListen to 06 Eyes Low Ft Lil Crazy Loc &amp; Little Man (Produced By Dropper) by Puppet Southbound #np on #SoundCloud  https://t.co/b9kadVLpYh
p813
sg46
I00
sg47
Ven
p814
sg49
g3
(g50
g5
Ntp815
Rp816
(dp817
g10
VPASADENA, CA
p818
sg55
V000000
p819
sg57
Ven
p820
sg59
VPacific Time (US & Canada)
p821
sg61
I521
sg62
I743
sg28
VSat Oct 25 00:09:26 +0000 2014
p822
sg64
I00
sg65
VRecording Artist | Producer | For Features & Beats Email puppetsouthboundent@gmail.com Follow me on IG & Facebook at @kingpupps
p823
sg67
Vhttps://pbs.twimg.com/profile_images/525802057781870593/ZmhlkQui_normal.jpeg
p824
sg69
I392
sg70
I1960
sg71
I-28800
sg72
Nsg73
I00
sg74
Vhttps://pbs.twimg.com/profile_banners/2875947169/1415697051
p825
sg76
I00
sg77
I00
sg78
VABB8C2
p826
sg80
I00
sg81
I00
sg82
Vhttp://abs.twimg.com/images/themes/theme14/bg.gif
p827
sg84
VKingPupps
p828
sg86
I4
sg87
VKing Puppet
p829
sg89
V000000
p830
sg91
Vhttp://t.co/rRKZbPnbRu
p831
sg93
I2875947169
sg94
V000000
p832
sbsg96
I0
sg97
V<a href="http://www.apple.com" rel="nofollow">iOS</a>
p833
sg99
(lp834
g3
(g159
g5
Ntp835
Rp836
(dp837
g163
Vhttps://t.co/b9kadVLpYh
p838
sg165
Vhttps://soundcloud.com/puppet-southbound/06-eyes-low-ft-lil-crazy-loc-little-man-produced-by-dropper
p839
sbasg93
I543807398092099584
sbag3
(g4
g5
Ntp840
Rp841
(dp842
g9
I0
sg10
Nsg11
Nsg12
(lp843
sg20
I00
sg21
g3
(g4
g5
Ntp844
Rp845
(dp846
g9
I1
sg10
Nsg11
Nsg12
(lp847
sg20
I00
sg21
Nsg22
Nsg23
(lp848
sg25
Nsg26
Nsg27
Nsg28
VSat Dec 13 15:16:06 +0000 2014
p849
sg30
Nsg31
I00
sg32
VKingPupps
p850
sg33
Nsg34
I2875947169
sg35
Nsg36
I00
sg37
Nsg38
(lp851
g3
(g50
g5
Ntp852
Rp853
(dp854
g10
Nsg55
Nsg57
Nsg59
Nsg61
Nsg62
Nsg28
Nsg64
Nsg65
Nsg67
Nsg69
Nsg70
Nsg71
Nsg72
Nsg73
Nsg74
Nsg76
Nsg77
Nsg78
Nsg80
Nsg81
Nsg82
Nsg84
VKingPupps
p855
sg86
Nsg87
VKing Puppet
p856
sg89
Nsg91
Nsg93
I2875947169
sg94
Nsbasg40
Nsg41
V543786447225241600
p857
sg43
Nsg44
V@KingPupps https://t.co/Ni6dmU7y0X
p858
sg46
I00
sg47
Vund
p859
sg49
g3
(g50
g5
Ntp860
Rp861
(dp862
g10
VBronx, NY
p863
sg55
V333333
p864
sg57
Ven
p865
sg59
VEastern Time (US & Canada)
p866
sg61
I9690
sg62
I4230
sg28
VSun Feb 26 13:24:33 +0000 2012
p867
sg64
I00
sg65
V#teamGeechi Instagram: flea_geechi Recording Artist #GeechiGangHMG #TrippinOnDollars For Booking or feature contact geechigang1@gmail.com NYC\u2708\ufe0fDMV\u2708\ufe0fATL
p868
sg67
Vhttps://pbs.twimg.com/profile_images/531941974627328000/3SPq9ZkX_normal.jpeg
p869
sg69
I4073
sg70
I16
sg71
I-18000
sg72
Nsg73
I00
sg74
Vhttps://pbs.twimg.com/profile_banners/504502772/1417963136
p870
sg76
I00
sg77
I00
sg78
V009999
p871
sg80
I00
sg81
I00
sg82
Vhttp://pbs.twimg.com/profile_background_images/605869785/qyuf4dyvbicl3nhwknh5.jpeg
p872
sg84
VFlea_Geechi
p873
sg86
I8
sg87
VFlea Geechi
p874
sg89
VEFEFEF
p875
sg91
Vhttps://t.co/Qyx42eIYdd
p876
sg93
I504502772
sg94
V131516
p877
sbsg96
I1
sg97
V<a href="http://twitter.com/download/iphone" rel="nofollow">Twitter for iPhone</a>
p878
sg99
(lp879
g3
(g159
g5
Ntp880
Rp881
(dp882
g163
Vhttps://t.co/Ni6dmU7y0X
p883
sg165
Vhttps://m.soundcloud.com/flea_geechi/no-conversation
p884
sbasg93
I543786447225241600
sbsg22
Nsg23
(lp885
sg25
Nsg26
Nsg27
Nsg28
VSat Dec 13 16:38:30 +0000 2014
p886
sg30
Nsg31
I00
sg32
Nsg33
Nsg34
Nsg35
Nsg36
I00
sg37
Nsg38
(lp887
g3
(g50
g5
Ntp888
Rp889
(dp890
g10
Nsg55
Nsg57
Nsg59
Nsg61
Nsg62
Nsg28
Nsg64
Nsg65
Nsg67
Nsg69
Nsg70
Nsg71
Nsg72
Nsg73
Nsg74
Nsg76
Nsg77
Nsg78
Nsg80
Nsg81
Nsg82
Nsg84
VFlea_Geechi
p891
sg86
Nsg87
VFlea Geechi
p892
sg89
Nsg91
Nsg93
I504502772
sg94
Nsbag3
(g50
g5
Ntp893
Rp894
(dp895
g10
Nsg55
Nsg57
Nsg59
Nsg61
Nsg62
Nsg28
Nsg64
Nsg65
Nsg67
Nsg69
Nsg70
Nsg71
Nsg72
Nsg73
Nsg74
Nsg76
Nsg77
Nsg78
Nsg80
Nsg81
Nsg82
Nsg84
VKingPupps
p896
sg86
Nsg87
VKing Puppet
p897
sg89
Nsg91
Nsg93
I2875947169
sg94
Nsbasg40
Nsg41
V543807184933384192
p898
sg43
Nsg44
VRT @Flea_Geechi: @KingPupps https://t.co/Ni6dmU7y0X
p899
sg46
I00
sg47
Vund
p900
sg49
g3
(g50
g5
Ntp901
Rp902
(dp903
g10
VPASADENA, CA
p904
sg55
V000000
p905
sg57
Ven
p906
sg59
VPacific Time (US & Canada)
p907
sg61
I521
sg62
I743
sg28
VSat Oct 25 00:09:26 +0000 2014
p908
sg64
I00
sg65
VRecording Artist | Producer | For Features & Beats Email puppetsouthboundent@gmail.com Follow me on IG & Facebook at @kingpupps
p909
sg67
Vhttps://pbs.twimg.com/profile_images/525802057781870593/ZmhlkQui_normal.jpeg
p910
sg69
I392
sg70
I1960
sg71
I-28800
sg72
Nsg73
I00
sg74
Vhttps://pbs.twimg.com/profile_banners/2875947169/1415697051
p911
sg76
I00
sg77
I00
sg78
VABB8C2
p912
sg80
I00
sg81
I00
sg82
Vhttp://abs.twimg.com/images/themes/theme14/bg.gif
p913
sg84
VKingPupps
p914
sg86
I4
sg87
VKing Puppet
p915
sg89
V000000
p916
sg91
Vhttp://t.co/rRKZbPnbRu
p917
sg93
I2875947169
sg94
V000000
p918
sbsg96
I1
sg97
V<a href="http://twitter.com/download/iphone" rel="nofollow">Twitter for iPhone</a>
p919
sg99
(lp920
g3
(g159
g5
Ntp921
Rp922
(dp923
g163
Vhttps://t.co/Ni6dmU7y0X
p924
sg165
Vhttps://m.soundcloud.com/flea_geechi/no-conversation
p925
sbasg93
I543807184933384192
sbag3
(g4
g5
Ntp926
Rp927
(dp928
g9
I0
sg10
Nsg11
Nsg12
(lp929
g3
(g14
g5
Ntp930
Rp931
(dp932
g18
Vnp
p933
sbag3
(g14
g5
Ntp934
Rp935
(dp936
g18
VSoundCloud
p937
sbag3
(g14
g5
Ntp938
Rp939
(dp940
g18
Vslapper
p941
sbasg20
I00
sg21
Nsg22
Nsg23
(lp942
sg25
Nsg26
Nsg27
Nsg28
VSat Dec 13 16:38:25 +0000 2014
p943
sg30
Nsg31
I00
sg32
Nsg33
Nsg34
Nsg35
Nsg36
I00
sg37
Nsg38
(lp944
g3
(g50
g5
Ntp945
Rp946
(dp947
g10
Nsg55
Nsg57
Nsg59
Nsg61
Nsg62
Nsg28
Nsg64
Nsg65
Nsg67
Nsg69
Nsg70
Nsg71
Nsg72
Nsg73
Nsg74
Nsg76
Nsg77
Nsg78
Nsg80
Nsg81
Nsg82
Nsg84
VFlea_Geechi
p948
sg86
Nsg87
VFlea Geechi
p949
sg89
Nsg91
Nsg93
I504502772
sg94
Nsbasg40
Nsg41
V543807160405086210
p950
sg43
Nsg44
VListen to No Conversation by Flea Geechi #np on #SoundCloud @flea_geechi #slapper https://t.co/6X61subtjP
p951
sg46
I00
sg47
Ven
p952
sg49
g3
(g50
g5
Ntp953
Rp954
(dp955
g10
VPASADENA, CA
p956
sg55
V000000
p957
sg57
Ven
p958
sg59
VPacific Time (US & Canada)
p959
sg61
I521
sg62
I743
sg28
VSat Oct 25 00:09:26 +0000 2014
p960
sg64
I00
sg65
VRecording Artist | Producer | For Features & Beats Email puppetsouthboundent@gmail.com Follow me on IG & Facebook at @kingpupps
p961
sg67
Vhttps://pbs.twimg.com/profile_images/525802057781870593/ZmhlkQui_normal.jpeg
p962
sg69
I392
sg70
I1960
sg71
I-28800
sg72
Nsg73
I00
sg74
Vhttps://pbs.twimg.com/profile_banners/2875947169/1415697051
p963
sg76
I00
sg77
I00
sg78
VABB8C2
p964
sg80
I00
sg81
I00
sg82
Vhttp://abs.twimg.com/images/themes/theme14/bg.gif
p965
sg84
VKingPupps
p966
sg86
I4
sg87
VKing Puppet
p967
sg89
V000000
p968
sg91
Vhttp://t.co/rRKZbPnbRu
p969
sg93
I2875947169
sg94
V000000
p970
sbsg96
I2
sg97
V<a href="http://www.apple.com" rel="nofollow">iOS</a>
p971
sg99
(lp972
g3
(g159
g5
Ntp973
Rp974
(dp975
g163
Vhttps://t.co/6X61subtjP
p976
sg165
Vhttps://soundcloud.com/flea_geechi/no-conversation
p977
sbasg93
I543807160405086210
sbag3
(g4
g5
Ntp978
Rp979
(dp980
g9
I0
sg10
Nsg11
Nsg12
(lp981
g3
(g14
g5
Ntp982
Rp983
(dp984
g18
VThisIsMe
p985
sbag3
(g14
g5
Ntp986
Rp987
(dp988
g18
VDRUSKIEEZFOLLOWTRAIN
p989
sbasg20
I00
sg21
g3
(g4
g5
Ntp990
Rp991
(dp992
g9
I1
sg10
Nsg11
Nsg12
(lp993
g3
(g14
g5
Ntp994
Rp995
(dp996
g18
VThisIsMe
p997
sbag3
(g14
g5
Ntp998
Rp999
(dp1000
g18
VDRUSKIEEZFOLLOWTRAIN
p1001
sbasg20
I00
sg21
Nsg22
Nsg23
(lp1002
(dp1003
Vsource_user_id
p1004
I93320799
sVsource_status_id_str
p1005
V442204962810900480
p1006
sVexpanded_url
p1007
Vhttp://twitter.com/LukeSharpMusic/status/442204962810900480/photo/1
p1008
sVdisplay_url
p1009
Vpic.twitter.com/SSFY8XpAot
p1010
sVurl
p1011
Vhttp://t.co/SSFY8XpAot
p1012
sVmedia_url_https
p1013
Vhttps://pbs.twimg.com/media/BiMHEhJCYAA3Xjb.jpg
p1014
sVsource_user_id_str
p1015
V93320799
p1016
sVsource_status_id
p1017
I442204962810900480
sVid_str
p1018
V442204962609586176
p1019
sVsizes
p1020
(dp1021
Vlarge
p1022
(dp1023
Vh
p1024
I960
sVresize
p1025
Vfit
p1026
sVw
p1027
I960
ssVsmall
p1028
(dp1029
Vh
p1030
I340
sVresize
p1031
Vfit
p1032
sVw
p1033
I340
ssVmedium
p1034
(dp1035
Vh
p1036
I600
sVresize
p1037
Vfit
p1038
sVw
p1039
I600
ssVthumb
p1040
(dp1041
Vh
p1042
I150
sVresize
p1043
Vcrop
p1044
sVw
p1045
I150
sssVindices
p1046
(lp1047
I92
aI114
asVtype
p1048
Vphoto
p1049
sVid
p1050
I442204962609586176
sVmedia_url
p1051
Vhttp://pbs.twimg.com/media/BiMHEhJCYAA3Xjb.jpg
p1052
sasg25
Nsg26
Nsg27
Nsg28
VFri Dec 12 15:06:42 +0000 2014
p1053
sg30
Nsg31
I00
sg32
Nsg33
Nsg34
Nsg35
Nsg36
I00
sg37
Nsg38
(lp1054
g3
(g50
g5
Ntp1055
Rp1056
(dp1057
g10
Nsg55
Nsg57
Nsg59
Nsg61
Nsg62
Nsg28
Nsg64
Nsg65
Nsg67
Nsg69
Nsg70
Nsg71
Nsg72
Nsg73
Nsg74
Nsg76
Nsg77
Nsg78
Nsg80
Nsg81
Nsg82
Nsg84
VLukeSharpMusic
p1058
sg86
Nsg87
VLuke Sharp
p1059
sg89
Nsg91
Nsg93
I93320799
sg94
Nsbasg40
Nsg41
V543421692651905025
p1060
sg43
Nsg44
V\U0001f4af@LukeSharpMusic  #ThisIsMe (Deluxe Version#iTunes, Music, Spotify, AmazonMP3 &amp; eMusic. http://t.co/SSFY8XpAot #DRUSKIEEZFOLLOWTRAIN \U0001f6a7
p1061
sg46
I00
sg47
Ven
p1062
sg49
g3
(g50
g5
Ntp1063
Rp1064
(dp1065
g10
VCHIRAQ
p1066
sg55
V333333
p1067
sg57
Ven
p1068
sg59
Nsg61
I2210
sg62
I29965
sg28
VThu Jan 23 22:27:53 +0000 2014
p1069
sg64
I00
sg65
V#BURRGANG #TEAMMZBNIKKI #MGWV SEND EVERYTHING TO UFOLLOWDRUSKIEEZ@gmail.com MUSIC PROMOTER 312.772.8912 \u2708\u2708\u2708#TRAY!i! #DRUSKIEEZ #RETWEET
p1070
sg67
Vhttps://pbs.twimg.com/profile_images/483182896744636416/Q4iyo9bP_normal.jpeg
p1071
sg69
I967
sg70
I5232
sg71
Nsg72
Nsg73
I00
sg74
Vhttps://pbs.twimg.com/profile_banners/2307330890/1409248272
p1072
sg76
I00
sg77
I00
sg78
V0084B4
p1073
sg80
I01
sg81
I00
sg82
Vhttp://abs.twimg.com/images/themes/theme1/bg.png
p1074
sg84
Vskieezbaby
p1075
sg86
I11
sg87
V FUKZ WIT@DRUSKIEEZ\u24c2
p1076
sg89
VDDEEF6
p1077
sg91
Nsg93
I2307330890
sg94
VC0DEED
p1078
sbsg96
I2
sg97
V<a href="http://twitter.com/download/android" rel="nofollow">Twitter for Android</a>
p1079
sg99
(lp1080
sg93
I543421692651905025
sbsg22
Nsg23
(lp1081
(dp1082
Vsource_user_id
p1083
I93320799
sVsource_status_id_str
p1084
V442204962810900480
p1085
sVexpanded_url
p1086
Vhttp://twitter.com/LukeSharpMusic/status/442204962810900480/photo/1
p1087
sVdisplay_url
p1088
Vpic.twitter.com/SSFY8XpAot
p1089
sVurl
p1090
Vhttp://t.co/SSFY8XpAot
p1091
sVmedia_url_https
p1092
Vhttps://pbs.twimg.com/media/BiMHEhJCYAA3Xjb.jpg
p1093
sVsource_user_id_str
p1094
V93320799
p1095
sVsource_status_id
p1096
I442204962810900480
sVid_str
p1097
V442204962609586176
p1098
sVsizes
p1099
(dp1100
Vlarge
p1101
(dp1102
Vh
p1103
I960
sVresize
p1104
Vfit
p1105
sVw
p1106
I960
ssVsmall
p1107
(dp1108
Vh
p1109
I340
sVresize
p1110
Vfit
p1111
sVw
p1112
I340
ssVmedium
p1113
(dp1114
Vh
p1115
I600
sVresize
p1116
Vfit
p1117
sVw
p1118
I600
ssVthumb
p1119
(dp1120
Vh
p1121
I150
sVresize
p1122
Vcrop
p1123
sVw
p1124
I150
sssVindices
p1125
(lp1126
I108
aI130
asVtype
p1127
Vphoto
p1128
sVid
p1129
I442204962609586176
sVmedia_url
p1130
Vhttp://pbs.twimg.com/media/BiMHEhJCYAA3Xjb.jpg
p1131
sasg25
Nsg26
Nsg27
Nsg28
VSat Dec 13 08:49:24 +0000 2014
p1132
sg30
Nsg31
I00
sg32
Nsg33
Nsg34
Nsg35
Nsg36
I00
sg37
Nsg38
(lp1133
g3
(g50
g5
Ntp1134
Rp1135
(dp1136
g10
Nsg55
Nsg57
Nsg59
Nsg61
Nsg62
Nsg28
Nsg64
Nsg65
Nsg67
Nsg69
Nsg70
Nsg71
Nsg72
Nsg73
Nsg74
Nsg76
Nsg77
Nsg78
Nsg80
Nsg81
Nsg82
Nsg84
Vskieezbaby
p1137
sg86
Nsg87
V FUKZ WIT@DRUSKIEEZ\u24c2
p1138
sg89
Nsg91
Nsg93
I2307330890
sg94
Nsbag3
(g50
g5
Ntp1139
Rp1140
(dp1141
g10
Nsg55
Nsg57
Nsg59
Nsg61
Nsg62
Nsg28
Nsg64
Nsg65
Nsg67
Nsg69
Nsg70
Nsg71
Nsg72
Nsg73
Nsg74
Nsg76
Nsg77
Nsg78
Nsg80
Nsg81
Nsg82
Nsg84
VLukeSharpMusic
p1142
sg86
Nsg87
VLuke Sharp
p1143
sg89
Nsg91
Nsg93
I93320799
sg94
Nsbasg40
Nsg41
V543689131994251266
p1144
sg43
Nsg44
VRT @skieezbaby: \U0001f4af@LukeSharpMusic  #ThisIsMe (Deluxe Version#iTunes, Music, Spotify, AmazonMP3 &amp; eMusic. http://t.co/SSFY8XpAot #DRUSKIEEZFO\u2026
p1145
sg46
I00
sg47
Ven
p1146
sg49
g3
(g50
g5
Ntp1147
Rp1148
(dp1149
g10
VPASADENA, CA
p1150
sg55
V000000
p1151
sg57
Ven
p1152
sg59
VPacific Time (US & Canada)
p1153
sg61
I521
sg62
I743
sg28
VSat Oct 25 00:09:26 +0000 2014
p1154
sg64
I00
sg65
VRecording Artist | Producer | For Features & Beats Email puppetsouthboundent@gmail.com Follow me on IG & Facebook at @kingpupps
p1155
sg67
Vhttps://pbs.twimg.com/profile_images/525802057781870593/ZmhlkQui_normal.jpeg
p1156
sg69
I392
sg70
I1960
sg71
I-28800
sg72
Nsg73
I00
sg74
Vhttps://pbs.twimg.com/profile_banners/2875947169/1415697051
p1157
sg76
I00
sg77
I00
sg78
VABB8C2
p1158
sg80
I00
sg81
I00
sg82
Vhttp://abs.twimg.com/images/themes/theme14/bg.gif
p1159
sg84
VKingPupps
p1160
sg86
I4
sg87
VKing Puppet
p1161
sg89
V000000
p1162
sg91
Vhttp://t.co/rRKZbPnbRu
p1163
sg93
I2875947169
sg94
V000000
p1164
sbsg96
I2
sg97
V<a href="http://twitter.com/download/iphone" rel="nofollow">Twitter for iPhone</a>
p1165
sg99
(lp1166
sg93
I543689131994251266
sbag3
(g4
g5
Ntp1167
Rp1168
(dp1169
g9
I0
sg10
Nsg11
Nsg12
(lp1170
sg20
I00
sg21
g3
(g4
g5
Ntp1171
Rp1172
(dp1173
g9
I153
sg10
Nsg11
Nsg12
(lp1174
sg20
I00
sg21
Nsg22
Nsg23
(lp1175
sg25
Nsg26
Nsg27
Nsg28
VSat Dec 13 08:01:06 +0000 2014
p1176
sg30
Nsg31
Nsg32
Nsg33
Nsg34
Nsg35
Nsg36
I00
sg37
Nsg38
(lp1177
sg40
Nsg41
V543676976905867264
p1178
sg43
Nsg44
VTweet new video ima tweet yall
p1179
sg46
I00
sg47
Ven
p1180
sg49
g3
(g50
g5
Ntp1181
Rp1182
(dp1183
g10
VGlobal
p1184
sg55
V333333
p1185
sg57
Ven
p1186
sg59
VCentral Time (US & Canada)
p1187
sg61
I696785
sg62
I42046
sg28
VTue Aug 11 00:41:36 +0000 2009
p1188
sg64
I01
sg65
VI'm My Own Boss For Manangement Info Email teamlildurk@gmail.com For Booking
p1189
sg67
Vhttps://pbs.twimg.com/profile_images/543682847740268545/nlL2u3zn_normal.jpeg
p1190
sg69
I1013
sg70
I401
sg71
I-21600
sg72
Nsg73
I00
sg74
Vhttps://pbs.twimg.com/profile_banners/64571585/1416874640
p1191
sg76
I00
sg77
I01
sg78
V009999
p1192
sg80
I01
sg81
I00
sg82
Vhttp://abs.twimg.com/images/themes/theme14/bg.gif
p1193
sg84
Vlildurk_
p1194
sg86
I744
sg87
VLIL DURK
p1195
sg89
VEFEFEF
p1196
sg91
Vhttp://t.co/04kC9HiADG
p1197
sg93
I64571585
sg94
V131516
p1198
sbsg96
I56
sg97
V<a href="http://twitter.com/download/iphone" rel="nofollow">Twitter for iPhone</a>
p1199
sg99
(lp1200
sg93
I543676976905867264
sbsg22
Nsg23
(lp1201
sg25
Nsg26
Nsg27
Nsg28
VSat Dec 13 08:48:40 +0000 2014
p1202
sg30
Nsg31
Nsg32
Nsg33
Nsg34
Nsg35
Nsg36
I00
sg37
Nsg38
(lp1203
g3
(g50
g5
Ntp1204
Rp1205
(dp1206
g10
Nsg55
Nsg57
Nsg59
Nsg61
Nsg62
Nsg28
Nsg64
Nsg65
Nsg67
Nsg69
Nsg70
Nsg71
Nsg72
Nsg73
Nsg74
Nsg76
Nsg77
Nsg78
Nsg80
Nsg81
Nsg82
Nsg84
Vlildurk_
p1207
sg86
Nsg87
VLIL DURK
p1208
sg89
Nsg91
Nsg93
I64571585
sg94
Nsbasg40
Nsg41
V543688946077556736
p1209
sg43
Nsg44
VRT @lildurk_: Tweet new video ima tweet yall
p1210
sg46
I00
sg47
Ven
p1211
sg49
g3
(g50
g5
Ntp1212
Rp1213
(dp1214
g10
VPASADENA, CA
p1215
sg55
V000000
p1216
sg57
Ven
p1217
sg59
VPacific Time (US & Canada)
p1218
sg61
I521
sg62
I743
sg28
VSat Oct 25 00:09:26 +0000 2014
p1219
sg64
I00
sg65
VRecording Artist | Producer | For Features & Beats Email puppetsouthboundent@gmail.com Follow me on IG & Facebook at @kingpupps
p1220
sg67
Vhttps://pbs.twimg.com/profile_images/525802057781870593/ZmhlkQui_normal.jpeg
p1221
sg69
I392
sg70
I1960
sg71
I-28800
sg72
Nsg73
I00
sg74
Vhttps://pbs.twimg.com/profile_banners/2875947169/1415697051
p1222
sg76
I00
sg77
I00
sg78
VABB8C2
p1223
sg80
I00
sg81
I00
sg82
Vhttp://abs.twimg.com/images/themes/theme14/bg.gif
p1224
sg84
VKingPupps
p1225
sg86
I4
sg87
VKing Puppet
p1226
sg89
V000000
p1227
sg91
Vhttp://t.co/rRKZbPnbRu
p1228
sg93
I2875947169
sg94
V000000
p1229
sbsg96
I56
sg97
V<a href="http://twitter.com/download/iphone" rel="nofollow">Twitter for iPhone</a>
p1230
sg99
(lp1231
sg93
I543688946077556736
sbaa.