(lp0
S'kaydee_currie'
p1
a(lp2
ccopy_reg
_reconstructor
p3
(ctwitter
Status
p4
c__builtin__
object
p5
Ntp6
Rp7
(dp8
S'_favorite_count'
p9
I1
sS'_location'
p10
NsS'_withheld_scope'
p11
NsS'hashtags'
p12
(lp13
g3
(ctwitter
Hashtag
p14
g5
Ntp15
Rp16
(dp17
S'text'
p18
VUI2015
p19
sbasS'_truncated'
p20
I00
sS'_retweeted_status'
p21
NsS'_withheld_copyright'
p22
NsS'media'
p23
(lp24
sS'_place'
p25
NsS'_contributors'
p26
NsS'_current_user_retweet'
p27
NsS'_created_at'
p28
VFri Dec 12 15:09:34 +0000 2014
p29
sS'_scopes'
p30
NsS'_possibly_sensitive'
p31
NsS'_in_reply_to_screen_name'
p32
NsS'_coordinates'
p33
NsS'_in_reply_to_user_id'
p34
NsS'_geo'
p35
NsS'_favorited'
p36
I00
sS'_withheld_in_countries'
p37
NsS'user_mentions'
p38
(lp39
g3
(ctwitter
User
p40
g5
Ntp41
Rp42
(dp43
g10
NsS'_profile_text_color'
p44
NsS'_lang'
p45
NsS'_time_zone'
p46
NsS'_followers_count'
p47
NsS'_statuses_count'
p48
Nsg28
NsS'_verified'
p49
NsS'_description'
p50
NsS'_profile_image_url'
p51
NsS'_friends_count'
p52
NsS'_favourites_count'
p53
NsS'_utc_offset'
p54
NsS'_status'
p55
NsS'_protected'
p56
NsS'_profile_banner_url'
p57
NsS'_notifications'
p58
NsS'_profile_background_tile'
p59
NsS'_profile_link_color'
p60
NsS'_geo_enabled'
p61
NsS'_contributors_enabled'
p62
NsS'_profile_background_image_url'
p63
NsS'_screen_name'
p64
Vadc_int
p65
sS'_listed_count'
p66
NsS'_name'
p67
VADCI Official
p68
sS'_profile_sidebar_fill_color'
p69
NsS'_url'
p70
NsS'_id'
p71
I531308714
sS'_profile_background_color'
p72
NsbasS'_now'
p73
NsS'_id_str'
p74
V543422414450089984
p75
sS'_in_reply_to_status_id'
p76
NsS'_text'
p77
VWe just had our team meeting to discuss plans for #UI2015. I am SO excited already! One of my favorite shows of the year. @adc_int
p78
sS'_retweeted'
p79
I00
sS'lang'
p80
Ven
p81
sS'_user'
p82
g3
(g40
g5
Ntp83
Rp84
(dp85
g10
VTampa, FL
p86
sg44
V333333
p87
sg45
Ven
p88
sg46
VEastern Time (US & Canada)
p89
sg47
I103
sg48
I348
sg28
VThu Aug 23 21:17:40 +0000 2012
p90
sg49
I00
sg50
VSenior Marketing Account Specialist at Naylor Association Solutions. Aspiring entrepreneur, fur-mom, wanderlust, coffee addict and sports nut.
p91
sg51
Vhttps://pbs.twimg.com/profile_images/534469898420748288/Ard1Mtmd_normal.jpeg
p92
sg52
I117
sg53
I4
sg54
I-18000
sg55
Nsg56
I00
sg57
Nsg58
I00
sg59
I00
sg60
V93A644
p93
sg61
I00
sg62
I00
sg63
Vhttp://abs.twimg.com/images/themes/theme13/bg.gif
p94
sg64
Vkaydee_currie
p95
sg66
I5
sg67
VKaydee Currie
p96
sg69
VDDEEF6
p97
sg70
Vhttp://t.co/HkqUWMXQea
p98
sg71
I776778829
sg72
VB2DFDA
p99
sbsS'_retweet_count'
p100
I1
sS'_source'
p101
V<a href="https://about.twitter.com/products/tweetdeck" rel="nofollow">TweetDeck</a>
p102
sS'urls'
p103
(lp104
sg71
I543422414450089984
sbag3
(g4
g5
Ntp105
Rp106
(dp107
g9
I0
sg10
Nsg11
Nsg12
(lp108
g3
(g14
g5
Ntp109
Rp110
(dp111
g18
Vsolar
p112
sbasg20
I00
sg21
Nsg22
Nsg23
(lp113
sg25
Nsg26
Nsg27
Nsg28
VThu Dec 11 15:15:14 +0000 2014
p114
sg30
Nsg31
I00
sg32
Nsg33
Nsg34
Nsg35
Nsg36
I00
sg37
Nsg38
(lp115
g3
(g40
g5
Ntp116
Rp117
(dp118
g10
Nsg44
Nsg45
Nsg46
Nsg47
Nsg48
Nsg28
Nsg49
Nsg50
Nsg51
Nsg52
Nsg53
Nsg54
Nsg55
Nsg56
Nsg57
Nsg58
Nsg59
Nsg60
Nsg61
Nsg62
Nsg63
Nsg64
Vkatedeangelis
p119
sg66
Nsg67
VKate DeAngelis
p120
sg69
Nsg70
Nsg71
I36940063
sg72
Nsbag3
(g40
g5
Ntp121
Rp122
(dp123
g10
Nsg44
Nsg45
Nsg46
Nsg47
Nsg48
Nsg28
Nsg49
Nsg50
Nsg51
Nsg52
Nsg53
Nsg54
Nsg55
Nsg56
Nsg57
Nsg58
Nsg59
Nsg60
Nsg61
Nsg62
Nsg63
Nsg64
VSEIA
p124
sg66
Nsg67
VSolar Industry
p125
sg69
Nsg70
Nsg71
I331703548
sg72
Nsbasg73
Nsg74
V543061453599551489
p126
sg76
Nsg77
VRT @katedeangelis: US #solar market in 2014 and is expected to grow 36% over 2013  http://t.co/ZoBj1xplsD @seia
p127
sg79
I00
sg80
Ven
p128
sg82
g3
(g40
g5
Ntp129
Rp130
(dp131
g10
VTampa, FL
p132
sg44
V333333
p133
sg45
Ven
p134
sg46
VEastern Time (US & Canada)
p135
sg47
I103
sg48
I348
sg28
VThu Aug 23 21:17:40 +0000 2012
p136
sg49
I00
sg50
VSenior Marketing Account Specialist at Naylor Association Solutions. Aspiring entrepreneur, fur-mom, wanderlust, coffee addict and sports nut.
p137
sg51
Vhttps://pbs.twimg.com/profile_images/534469898420748288/Ard1Mtmd_normal.jpeg
p138
sg52
I117
sg53
I4
sg54
I-18000
sg55
Nsg56
I00
sg57
Nsg58
I00
sg59
I00
sg60
V93A644
p139
sg61
I00
sg62
I00
sg63
Vhttp://abs.twimg.com/images/themes/theme13/bg.gif
p140
sg64
Vkaydee_currie
p141
sg66
I5
sg67
VKaydee Currie
p142
sg69
VDDEEF6
p143
sg70
Vhttp://t.co/HkqUWMXQea
p144
sg71
I776778829
sg72
VB2DFDA
p145
sbsg100
I0
sg101
V<a href="https://about.twitter.com/products/tweetdeck" rel="nofollow">TweetDeck</a>
p146
sg103
(lp147
g3
(ctwitter
Url
p148
g5
Ntp149
Rp150
(dp151
S'url'
p152
Vhttp://t.co/ZoBj1xplsD
p153
sS'expanded_url'
p154
Vhttp://www.seia.org/research-resources/us-solar-market-insight
p155
sbasg71
I543061453599551489
sbag3
(g4
g5
Ntp156
Rp157
(dp158
g9
I0
sg10
Nsg11
Nsg12
(lp159
sg20
I00
sg21
Nsg22
Nsg23
(lp160
sg25
Nsg26
Nsg27
Nsg28
VWed Dec 10 19:20:01 +0000 2014
p161
sg30
Nsg31
I00
sg32
Nsg33
Nsg34
Nsg35
Nsg36
I00
sg37
Nsg38
(lp162
g3
(g40
g5
Ntp163
Rp164
(dp165
g10
Nsg44
Nsg45
Nsg46
Nsg47
Nsg48
Nsg28
Nsg49
Nsg50
Nsg51
Nsg52
Nsg53
Nsg54
Nsg55
Nsg56
Nsg57
Nsg58
Nsg59
Nsg60
Nsg61
Nsg62
Nsg63
Nsg64
VIPAAaccess
p166
sg66
Nsg67
VIPAAaccess
p167
sg69
Nsg70
Nsg71
I365562587
sg72
Nsbasg73
Nsg74
V542760666788925441
p168
sg76
Nsg77
VHave you read the Fall/Winter issue of IPAA Access? Tons of great industry info. Click here to read now: http://t.co/Vpd3wltGuB @IPAAaccess
p169
sg79
I00
sg80
Ven
p170
sg82
g3
(g40
g5
Ntp171
Rp172
(dp173
g10
VTampa, FL
p174
sg44
V333333
p175
sg45
Ven
p176
sg46
VEastern Time (US & Canada)
p177
sg47
I103
sg48
I348
sg28
VThu Aug 23 21:17:40 +0000 2012
p178
sg49
I00
sg50
VSenior Marketing Account Specialist at Naylor Association Solutions. Aspiring entrepreneur, fur-mom, wanderlust, coffee addict and sports nut.
p179
sg51
Vhttps://pbs.twimg.com/profile_images/534469898420748288/Ard1Mtmd_normal.jpeg
p180
sg52
I117
sg53
I4
sg54
I-18000
sg55
Nsg56
I00
sg57
Nsg58
I00
sg59
I00
sg60
V93A644
p181
sg61
I00
sg62
I00
sg63
Vhttp://abs.twimg.com/images/themes/theme13/bg.gif
p182
sg64
Vkaydee_currie
p183
sg66
I5
sg67
VKaydee Currie
p184
sg69
VDDEEF6
p185
sg70
Vhttp://t.co/HkqUWMXQea
p186
sg71
I776778829
sg72
VB2DFDA
p187
sbsg100
I1
sg101
V<a href="https://about.twitter.com/products/tweetdeck" rel="nofollow">TweetDeck</a>
p188
sg103
(lp189
g3
(g148
g5
Ntp190
Rp191
(dp192
g152
Vhttp://t.co/Vpd3wltGuB
p193
sg154
Vhttp://bit.ly/1wZJsZN
p194
sbasg71
I542760666788925441
sbag3
(g4
g5
Ntp195
Rp196
(dp197
g9
I1
sg10
Nsg11
Nsg12
(lp198
g3
(g14
g5
Ntp199
Rp200
(dp201
g18
VFluProblems
p202
sbasg20
I00
sg21
Nsg22
Nsg23
(lp203
sg25
Nsg26
Nsg27
Nsg28
VWed Dec 10 16:55:48 +0000 2014
p204
sg30
Nsg31
Nsg32
Nsg33
Nsg34
Nsg35
Nsg36
I00
sg37
Nsg38
(lp205
sg73
Nsg74
V542724371509678080
p206
sg76
Nsg77
VFinally bouncing back after being held hostage by the flu for the past five days. #FluProblems
p207
sg79
I00
sg80
Ven
p208
sg82
g3
(g40
g5
Ntp209
Rp210
(dp211
g10
VTampa, FL
p212
sg44
V333333
p213
sg45
Ven
p214
sg46
VEastern Time (US & Canada)
p215
sg47
I103
sg48
I348
sg28
VThu Aug 23 21:17:40 +0000 2012
p216
sg49
I00
sg50
VSenior Marketing Account Specialist at Naylor Association Solutions. Aspiring entrepreneur, fur-mom, wanderlust, coffee addict and sports nut.
p217
sg51
Vhttps://pbs.twimg.com/profile_images/534469898420748288/Ard1Mtmd_normal.jpeg
p218
sg52
I117
sg53
I4
sg54
I-18000
sg55
Nsg56
I00
sg57
Nsg58
I00
sg59
I00
sg60
V93A644
p219
sg61
I00
sg62
I00
sg63
Vhttp://abs.twimg.com/images/themes/theme13/bg.gif
p220
sg64
Vkaydee_currie
p221
sg66
I5
sg67
VKaydee Currie
p222
sg69
VDDEEF6
p223
sg70
Vhttp://t.co/HkqUWMXQea
p224
sg71
I776778829
sg72
VB2DFDA
p225
sbsg100
I0
sg101
V<a href="http://twitter.com" rel="nofollow">Twitter Web Client</a>
p226
sg103
(lp227
sg71
I542724371509678080
sbag3
(g4
g5
Ntp228
Rp229
(dp230
g9
I1
sg10
Nsg11
Nsg12
(lp231
g3
(g14
g5
Ntp232
Rp233
(dp234
g18
Voilfieldexpo
p235
sbasg20
I00
sg21
Nsg22
Nsg23
(lp236
(dp237
Vexpanded_url
p238
Vhttp://twitter.com/kaydee_currie/status/540532952321785856/photo/1
p239
sVdisplay_url
p240
Vpic.twitter.com/RtlfcXjdbQ
p241
sVurl
p242
Vhttp://t.co/RtlfcXjdbQ
p243
sVmedia_url_https
p244
Vhttps://pbs.twimg.com/media/B4Bb1RgIIAAaUIy.jpg
p245
sVid_str
p246
V540532926073806848
p247
sVsizes
p248
(dp249
Vsmall
p250
(dp251
Vh
p252
I453
sVresize
p253
Vfit
p254
sVw
p255
I340
ssVlarge
p256
(dp257
Vh
p258
I1024
sVresize
p259
Vfit
p260
sVw
p261
I768
ssVmedium
p262
(dp263
Vh
p264
I800
sVresize
p265
Vfit
p266
sVw
p267
I600
ssVthumb
p268
(dp269
Vh
p270
I150
sVresize
p271
Vcrop
p272
sVw
p273
I150
sssVindices
p274
(lp275
I113
aI135
asVtype
p276
Vphoto
p277
sVid
p278
I540532926073806848
sVmedia_url
p279
Vhttp://pbs.twimg.com/media/B4Bb1RgIIAAaUIy.jpg
p280
sasg25
Nsg26
Nsg27
Nsg28
VThu Dec 04 15:47:53 +0000 2014
p281
sg30
Nsg31
I00
sg32
Nsg33
Nsg34
Nsg35
Nsg36
I00
sg37
Nsg38
(lp282
g3
(g40
g5
Ntp283
Rp284
(dp285
g10
Nsg44
Nsg45
Nsg46
Nsg47
Nsg48
Nsg28
Nsg49
Nsg50
Nsg51
Nsg52
Nsg53
Nsg54
Nsg55
Nsg56
Nsg57
Nsg58
Nsg59
Nsg60
Nsg61
Nsg62
Nsg63
Nsg64
Vooga_hq
p286
sg66
Nsg67
VOhio Oil & Gas Assoc
p287
sg69
Nsg70
Nsg71
I455994600
sg72
Nsbasg73
Nsg74
V540532952321785856
p288
sg76
Nsg77
VWe're here for the final day of the @ooga_hq #oilfieldexpo! See Marcus up front and grab a copy of the Bulletin! http://t.co/RtlfcXjdbQ
p289
sg79
I00
sg80
Ven
p290
sg82
g3
(g40
g5
Ntp291
Rp292
(dp293
g10
VTampa, FL
p294
sg44
V333333
p295
sg45
Ven
p296
sg46
VEastern Time (US & Canada)
p297
sg47
I103
sg48
I348
sg28
VThu Aug 23 21:17:40 +0000 2012
p298
sg49
I00
sg50
VSenior Marketing Account Specialist at Naylor Association Solutions. Aspiring entrepreneur, fur-mom, wanderlust, coffee addict and sports nut.
p299
sg51
Vhttps://pbs.twimg.com/profile_images/534469898420748288/Ard1Mtmd_normal.jpeg
p300
sg52
I117
sg53
I4
sg54
I-18000
sg55
Nsg56
I00
sg57
Nsg58
I00
sg59
I00
sg60
V93A644
p301
sg61
I00
sg62
I00
sg63
Vhttp://abs.twimg.com/images/themes/theme13/bg.gif
p302
sg64
Vkaydee_currie
p303
sg66
I5
sg67
VKaydee Currie
p304
sg69
VDDEEF6
p305
sg70
Vhttp://t.co/HkqUWMXQea
p306
sg71
I776778829
sg72
VB2DFDA
p307
sbsg100
I0
sg101
V<a href="http://twitter.com/download/iphone" rel="nofollow">Twitter for iPhone</a>
p308
sg103
(lp309
sg71
I540532952321785856
sbag3
(g4
g5
Ntp310
Rp311
(dp312
g9
I0
sg10
Nsg11
Nsg12
(lp313
g3
(g14
g5
Ntp314
Rp315
(dp316
g18
Voilfieldexpo
p317
sbasg20
I00
sg21
Nsg22
Nsg23
(lp318
(dp319
Vexpanded_url
p320
Vhttp://twitter.com/kaydee_currie/status/540216827331497984/photo/1
p321
sVdisplay_url
p322
Vpic.twitter.com/2R7VhTyEqP
p323
sVurl
p324
Vhttp://t.co/2R7VhTyEqP
p325
sVmedia_url_https
p326
Vhttps://pbs.twimg.com/media/B388UxhIYAAVFi6.jpg
p327
sVid_str
p328
V540216807895097344
p329
sVsizes
p330
(dp331
Vsmall
p332
(dp333
Vh
p334
I453
sVresize
p335
Vfit
p336
sVw
p337
I340
ssVlarge
p338
(dp339
Vh
p340
I1024
sVresize
p341
Vfit
p342
sVw
p343
I768
ssVmedium
p344
(dp345
Vh
p346
I800
sVresize
p347
Vfit
p348
sVw
p349
I600
ssVthumb
p350
(dp351
Vh
p352
I150
sVresize
p353
Vcrop
p354
sVw
p355
I150
sssVindices
p356
(lp357
I120
aI142
asVtype
p358
Vphoto
p359
sVid
p360
I540216807895097344
sVmedia_url
p361
Vhttp://pbs.twimg.com/media/B388UxhIYAAVFi6.jpg
p362
sasg25
Nsg26
Nsg27
Nsg28
VWed Dec 03 18:51:43 +0000 2014
p363
sg30
Nsg31
I00
sg32
Nsg33
Nsg34
Nsg35
Nsg36
I00
sg37
Nsg38
(lp364
sg73
Nsg74
V540216827331497984
p365
sg76
Nsg77
VSwing by our table near the expo hall entrance &amp; grab a smartphone speaker or a copy of The Bulletin! #oilfieldexpo http://t.co/2R7VhTyEqP
p366
sg79
I00
sg80
Ven
p367
sg82
g3
(g40
g5
Ntp368
Rp369
(dp370
g10
VTampa, FL
p371
sg44
V333333
p372
sg45
Ven
p373
sg46
VEastern Time (US & Canada)
p374
sg47
I103
sg48
I348
sg28
VThu Aug 23 21:17:40 +0000 2012
p375
sg49
I00
sg50
VSenior Marketing Account Specialist at Naylor Association Solutions. Aspiring entrepreneur, fur-mom, wanderlust, coffee addict and sports nut.
p376
sg51
Vhttps://pbs.twimg.com/profile_images/534469898420748288/Ard1Mtmd_normal.jpeg
p377
sg52
I117
sg53
I4
sg54
I-18000
sg55
Nsg56
I00
sg57
Nsg58
I00
sg59
I00
sg60
V93A644
p378
sg61
I00
sg62
I00
sg63
Vhttp://abs.twimg.com/images/themes/theme13/bg.gif
p379
sg64
Vkaydee_currie
p380
sg66
I5
sg67
VKaydee Currie
p381
sg69
VDDEEF6
p382
sg70
Vhttp://t.co/HkqUWMXQea
p383
sg71
I776778829
sg72
VB2DFDA
p384
sbsg100
I0
sg101
V<a href="http://twitter.com/download/iphone" rel="nofollow">Twitter for iPhone</a>
p385
sg103
(lp386
sg71
I540216827331497984
sbag3
(g4
g5
Ntp387
Rp388
(dp389
g9
I0
sg10
Nsg11
Nsg12
(lp390
g3
(g14
g5
Ntp391
Rp392
(dp393
g18
Voilfieldexpo
p394
sbasg20
I00
sg21
Nsg22
Nsg23
(lp395
sg25
Nsg26
Nsg27
Nsg28
VWed Dec 03 16:44:36 +0000 2014
p396
sg30
Nsg31
Nsg32
Nsg33
Nsg34
Nsg35
Nsg36
I00
sg37
Nsg38
(lp397
g3
(g40
g5
Ntp398
Rp399
(dp400
g10
Nsg44
Nsg45
Nsg46
Nsg47
Nsg48
Nsg28
Nsg49
Nsg50
Nsg51
Nsg52
Nsg53
Nsg54
Nsg55
Nsg56
Nsg57
Nsg58
Nsg59
Nsg60
Nsg61
Nsg62
Nsg63
Nsg64
Vooga_hq
p401
sg66
Nsg67
VOhio Oil & Gas Assoc
p402
sg69
Nsg70
Nsg71
I455994600
sg72
Nsbasg73
Nsg74
V540184838150836224
p403
sg76
Nsg77
VDay one of the @ooga_hq #oilfieldexpo is underway in Cleveland! I'm so excited to be here with our team.
p404
sg79
I00
sg80
Ven
p405
sg82
g3
(g40
g5
Ntp406
Rp407
(dp408
g10
VTampa, FL
p409
sg44
V333333
p410
sg45
Ven
p411
sg46
VEastern Time (US & Canada)
p412
sg47
I103
sg48
I348
sg28
VThu Aug 23 21:17:40 +0000 2012
p413
sg49
I00
sg50
VSenior Marketing Account Specialist at Naylor Association Solutions. Aspiring entrepreneur, fur-mom, wanderlust, coffee addict and sports nut.
p414
sg51
Vhttps://pbs.twimg.com/profile_images/534469898420748288/Ard1Mtmd_normal.jpeg
p415
sg52
I117
sg53
I4
sg54
I-18000
sg55
Nsg56
I00
sg57
Nsg58
I00
sg59
I00
sg60
V93A644
p416
sg61
I00
sg62
I00
sg63
Vhttp://abs.twimg.com/images/themes/theme13/bg.gif
p417
sg64
Vkaydee_currie
p418
sg66
I5
sg67
VKaydee Currie
p419
sg69
VDDEEF6
p420
sg70
Vhttp://t.co/HkqUWMXQea
p421
sg71
I776778829
sg72
VB2DFDA
p422
sbsg100
I0
sg101
V<a href="http://twitter.com/download/iphone" rel="nofollow">Twitter for iPhone</a>
p423
sg103
(lp424
sg71
I540184838150836224
sbag3
(g4
g5
Ntp425
Rp426
(dp427
g9
I0
sg10
Nsg11
Nsg12
(lp428
g3
(g14
g5
Ntp429
Rp430
(dp431
g18
VGACSToday
p432
sbag3
(g14
g5
Ntp433
Rp434
(dp435
g18
Vcstores
p436
sbasg20
I00
sg21
Nsg22
Nsg23
(lp437
(dp438
Vexpanded_url
p439
Vhttp://twitter.com/kaydee_currie/status/539792379411046400/photo/1
p440
sVdisplay_url
p441
Vpic.twitter.com/Jjq9lRhwmW
p442
sVurl
p443
Vhttp://t.co/Jjq9lRhwmW
p444
sVmedia_url_https
p445
Vhttps://pbs.twimg.com/media/B2LK9PCIgAEl7w-.jpg
p446
sVid_str
p447
V532210859339448321
p448
sVsizes
p449
(dp450
Vsmall
p451
(dp452
Vh
p453
I445
sVresize
p454
Vfit
p455
sVw
p456
I340
ssVlarge
p457
(dp458
Vh
p459
I897
sVresize
p460
Vfit
p461
sVw
p462
I684
ssVmedium
p463
(dp464
Vh
p465
I786
sVresize
p466
Vfit
p467
sVw
p468
I600
ssVthumb
p469
(dp470
Vh
p471
I150
sVresize
p472
Vcrop
p473
sVw
p474
I150
sssVindices
p475
(lp476
I118
aI140
asVtype
p477
Vphoto
p478
sVid
p479
I532210859339448321
sVmedia_url
p480
Vhttp://pbs.twimg.com/media/B2LK9PCIgAEl7w-.jpg
p481
sasg25
Nsg26
Nsg27
Nsg28
VTue Dec 02 14:45:06 +0000 2014
p482
sg30
Nsg31
I00
sg32
Nsg33
Nsg34
Nsg35
Nsg36
I00
sg37
Nsg38
(lp483
g3
(g40
g5
Ntp484
Rp485
(dp486
g10
Nsg44
Nsg45
Nsg46
Nsg47
Nsg48
Nsg28
Nsg49
Nsg50
Nsg51
Nsg52
Nsg53
Nsg54
Nsg55
Nsg56
Nsg57
Nsg58
Nsg59
Nsg60
Nsg61
Nsg62
Nsg63
Nsg64
Vgacsga
p487
sg66
Nsg67
VGACS
p488
sg69
Nsg70
Nsg71
I993614186
sg72
Nsbasg73
Nsg74
V539792379411046400
p489
sg76
Nsg77
VNow reading: "Making Point of Sale Profitable" in the #GACSToday Winter issue #cstores @gacsga http://t.co/gXraLZ9JeJ http://t.co/Jjq9lRhwmW
p490
sg79
I00
sg80
Ven
p491
sg82
g3
(g40
g5
Ntp492
Rp493
(dp494
g10
VTampa, FL
p495
sg44
V333333
p496
sg45
Ven
p497
sg46
VEastern Time (US & Canada)
p498
sg47
I103
sg48
I348
sg28
VThu Aug 23 21:17:40 +0000 2012
p499
sg49
I00
sg50
VSenior Marketing Account Specialist at Naylor Association Solutions. Aspiring entrepreneur, fur-mom, wanderlust, coffee addict and sports nut.
p500
sg51
Vhttps://pbs.twimg.com/profile_images/534469898420748288/Ard1Mtmd_normal.jpeg
p501
sg52
I117
sg53
I4
sg54
I-18000
sg55
Nsg56
I00
sg57
Nsg58
I00
sg59
I00
sg60
V93A644
p502
sg61
I00
sg62
I00
sg63
Vhttp://abs.twimg.com/images/themes/theme13/bg.gif
p503
sg64
Vkaydee_currie
p504
sg66
I5
sg67
VKaydee Currie
p505
sg69
VDDEEF6
p506
sg70
Vhttp://t.co/HkqUWMXQea
p507
sg71
I776778829
sg72
VB2DFDA
p508
sbsg100
I0
sg101
V<a href="https://about.twitter.com/products/tweetdeck" rel="nofollow">TweetDeck</a>
p509
sg103
(lp510
g3
(g148
g5
Ntp511
Rp512
(dp513
g152
Vhttp://t.co/gXraLZ9JeJ
p514
sg154
Vhttp://bit.ly/1493jva
p515
sbasg71
I539792379411046400
sbag3
(g4
g5
Ntp516
Rp517
(dp518
g9
I0
sg10
Nsg11
Nsg12
(lp519
sg20
I00
sg21
Nsg22
Nsg23
(lp520
sg25
Nsg26
Nsg27
Nsg28
VMon Dec 01 16:46:56 +0000 2014
p521
sg30
Nsg31
Nsg32
Nsg33
Nsg34
Nsg35
Nsg36
I00
sg37
Nsg38
(lp522
sg73
Nsg74
V539460649232109568
p523
sg76
Nsg77
VI hope everyone had a great Thanksgiving holiday!
p524
sg79
I00
sg80
Ven
p525
sg82
g3
(g40
g5
Ntp526
Rp527
(dp528
g10
VTampa, FL
p529
sg44
V333333
p530
sg45
Ven
p531
sg46
VEastern Time (US & Canada)
p532
sg47
I103
sg48
I348
sg28
VThu Aug 23 21:17:40 +0000 2012
p533
sg49
I00
sg50
VSenior Marketing Account Specialist at Naylor Association Solutions. Aspiring entrepreneur, fur-mom, wanderlust, coffee addict and sports nut.
p534
sg51
Vhttps://pbs.twimg.com/profile_images/534469898420748288/Ard1Mtmd_normal.jpeg
p535
sg52
I117
sg53
I4
sg54
I-18000
sg55
Nsg56
I00
sg57
Nsg58
I00
sg59
I00
sg60
V93A644
p536
sg61
I00
sg62
I00
sg63
Vhttp://abs.twimg.com/images/themes/theme13/bg.gif
p537
sg64
Vkaydee_currie
p538
sg66
I5
sg67
VKaydee Currie
p539
sg69
VDDEEF6
p540
sg70
Vhttp://t.co/HkqUWMXQea
p541
sg71
I776778829
sg72
VB2DFDA
p542
sbsg100
I0
sg101
V<a href="http://twitter.com" rel="nofollow">Twitter Web Client</a>
p543
sg103
(lp544
sg71
I539460649232109568
sbag3
(g4
g5
Ntp545
Rp546
(dp547
g9
I0
sg10
Nsg11
Nsg12
(lp548
g3
(g14
g5
Ntp549
Rp550
(dp551
g18
VMortgageJournal
p552
sbag3
(g14
g5
Ntp553
Rp554
(dp555
g18
Vcaamp2014
p556
sbasg20
I00
sg21
g3
(g4
g5
Ntp557
Rp558
(dp559
g9
I3
sg10
Nsg11
Nsg12
(lp560
g3
(g14
g5
Ntp561
Rp562
(dp563
g18
VMortgageJournal
p564
sbag3
(g14
g5
Ntp565
Rp566
(dp567
g18
Vcaamp2014
p568
sbasg20
I00
sg21
Nsg22
Nsg23
(lp569
(dp570
Vexpanded_url
p571
Vhttp://twitter.com/KEDoerksen/status/536883458509766656/photo/1
p572
sVdisplay_url
p573
Vpic.twitter.com/XeXufCAcoh
p574
sVurl
p575
Vhttp://t.co/XeXufCAcoh
p576
sVmedia_url_https
p577
Vhttps://pbs.twimg.com/media/B3Nkpk4CUAA9nTv.jpg
p578
sVid_str
p579
V536883446023344128
p580
sVsizes
p581
(dp582
Vsmall
p583
(dp584
Vh
p585
I453
sVresize
p586
Vfit
p587
sVw
p588
I340
ssVlarge
p589
(dp590
Vh
p591
I1024
sVresize
p592
Vfit
p593
sVw
p594
I768
ssVmedium
p595
(dp596
Vh
p597
I800
sVresize
p598
Vfit
p599
sVw
p600
I600
ssVthumb
p601
(dp602
Vh
p603
I150
sVresize
p604
Vcrop
p605
sVw
p606
I150
sssVindices
p607
(lp608
I83
aI105
asVtype
p609
Vphoto
p610
sVid
p611
I536883446023344128
sVmedia_url
p612
Vhttp://pbs.twimg.com/media/B3Nkpk4CUAA9nTv.jpg
p613
sasg25
Nsg26
Nsg27
Nsg28
VMon Nov 24 14:06:05 +0000 2014
p614
sg30
Nsg31
I00
sg32
Nsg33
Nsg34
Nsg35
Nsg36
I00
sg37
Nsg38
(lp615
g3
(g40
g5
Ntp616
Rp617
(dp618
g10
Nsg44
Nsg45
Nsg46
Nsg47
Nsg48
Nsg28
Nsg49
Nsg50
Nsg51
Nsg52
Nsg53
Nsg54
Nsg55
Nsg56
Nsg57
Nsg58
Nsg59
Nsg60
Nsg61
Nsg62
Nsg63
Nsg64
Vcaampaccha
p619
sg66
Nsg67
VCAAMP/ACCHA
p620
sg69
Nsg70
Nsg71
I98951424
sg72
Nsbasg73
Nsg74
V536883458509766656
p621
sg76
Nsg77
VReady for day two of our #MortgageJournal selfie contest at #caamp2014 @caampaccha http://t.co/XeXufCAcoh
p622
sg79
I00
sg80
Ven
p623
sg82
g3
(g40
g5
Ntp624
Rp625
(dp626
g10
VWinnipeg, MB
p627
sg44
V333333
p628
sg45
Ven
p629
sg46
VCentral Time (US & Canada)
p630
sg47
I61
sg48
I98
sg28
VTue May 21 21:43:42 +0000 2013
p631
sg49
I00
sg50
VMarketing Account Specialist @NaylorLLC
p632
sg51
Vhttps://pbs.twimg.com/profile_images/493750135529025537/ZGojTGgp_normal.jpeg
p633
sg52
I118
sg53
I33
sg54
I-21600
sg55
Nsg56
I00
sg57
Nsg58
I00
sg59
I00
sg60
V0084B4
p634
sg61
I00
sg62
I00
sg63
Vhttp://abs.twimg.com/images/themes/theme1/bg.png
p635
sg64
VKEDoerksen
p636
sg66
I1
sg67
VKatie Doerksen
p637
sg69
VDDEEF6
p638
sg70
Nsg71
I1447352227
sg72
VC0DEED
p639
sbsg100
I2
sg101
V<a href="http://twitter.com/download/iphone" rel="nofollow">Twitter for iPhone</a>
p640
sg103
(lp641
sg71
I536883458509766656
sbsg22
Nsg23
(lp642
(dp643
Vsource_user_id
p644
I1447352227
sVsource_status_id_str
p645
V536883458509766656
p646
sVexpanded_url
p647
Vhttp://twitter.com/KEDoerksen/status/536883458509766656/photo/1
p648
sVdisplay_url
p649
Vpic.twitter.com/XeXufCAcoh
p650
sVurl
p651
Vhttp://t.co/XeXufCAcoh
p652
sVmedia_url_https
p653
Vhttps://pbs.twimg.com/media/B3Nkpk4CUAA9nTv.jpg
p654
sVsource_user_id_str
p655
V1447352227
p656
sVsource_status_id
p657
I536883458509766656
sVid_str
p658
V536883446023344128
p659
sVsizes
p660
(dp661
Vsmall
p662
(dp663
Vh
p664
I453
sVresize
p665
Vfit
p666
sVw
p667
I340
ssVlarge
p668
(dp669
Vh
p670
I1024
sVresize
p671
Vfit
p672
sVw
p673
I768
ssVmedium
p674
(dp675
Vh
p676
I800
sVresize
p677
Vfit
p678
sVw
p679
I600
ssVthumb
p680
(dp681
Vh
p682
I150
sVresize
p683
Vcrop
p684
sVw
p685
I150
sssVindices
p686
(lp687
I99
aI121
asVtype
p688
Vphoto
p689
sVid
p690
I536883446023344128
sVmedia_url
p691
Vhttp://pbs.twimg.com/media/B3Nkpk4CUAA9nTv.jpg
p692
sasg25
Nsg26
Nsg27
Nsg28
VMon Nov 24 20:59:37 +0000 2014
p693
sg30
Nsg31
I00
sg32
Nsg33
Nsg34
Nsg35
Nsg36
I00
sg37
Nsg38
(lp694
g3
(g40
g5
Ntp695
Rp696
(dp697
g10
Nsg44
Nsg45
Nsg46
Nsg47
Nsg48
Nsg28
Nsg49
Nsg50
Nsg51
Nsg52
Nsg53
Nsg54
Nsg55
Nsg56
Nsg57
Nsg58
Nsg59
Nsg60
Nsg61
Nsg62
Nsg63
Nsg64
VKEDoerksen
p698
sg66
Nsg67
VKatie Doerksen
p699
sg69
Nsg70
Nsg71
I1447352227
sg72
Nsbag3
(g40
g5
Ntp700
Rp701
(dp702
g10
Nsg44
Nsg45
Nsg46
Nsg47
Nsg48
Nsg28
Nsg49
Nsg50
Nsg51
Nsg52
Nsg53
Nsg54
Nsg55
Nsg56
Nsg57
Nsg58
Nsg59
Nsg60
Nsg61
Nsg62
Nsg63
Nsg64
Vcaampaccha
p703
sg66
Nsg67
VCAAMP/ACCHA
p704
sg69
Nsg70
Nsg71
I98951424
sg72
Nsbasg73
Nsg74
V536987524967989248
p705
sg76
Nsg77
VRT @KEDoerksen: Ready for day two of our #MortgageJournal selfie contest at #caamp2014 @caampaccha http://t.co/XeXufCAcoh
p706
sg79
I00
sg80
Ven
p707
sg82
g3
(g40
g5
Ntp708
Rp709
(dp710
g10
VTampa, FL
p711
sg44
V333333
p712
sg45
Ven
p713
sg46
VEastern Time (US & Canada)
p714
sg47
I103
sg48
I348
sg28
VThu Aug 23 21:17:40 +0000 2012
p715
sg49
I00
sg50
VSenior Marketing Account Specialist at Naylor Association Solutions. Aspiring entrepreneur, fur-mom, wanderlust, coffee addict and sports nut.
p716
sg51
Vhttps://pbs.twimg.com/profile_images/534469898420748288/Ard1Mtmd_normal.jpeg
p717
sg52
I117
sg53
I4
sg54
I-18000
sg55
Nsg56
I00
sg57
Nsg58
I00
sg59
I00
sg60
V93A644
p718
sg61
I00
sg62
I00
sg63
Vhttp://abs.twimg.com/images/themes/theme13/bg.gif
p719
sg64
Vkaydee_currie
p720
sg66
I5
sg67
VKaydee Currie
p721
sg69
VDDEEF6
p722
sg70
Vhttp://t.co/HkqUWMXQea
p723
sg71
I776778829
sg72
VB2DFDA
p724
sbsg100
I2
sg101
V<a href="http://twitter.com" rel="nofollow">Twitter Web Client</a>
p725
sg103
(lp726
sg71
I536987524967989248
sbag3
(g4
g5
Ntp727
Rp728
(dp729
g9
I0
sg10
Nsg11
Nsg12
(lp730
g3
(g14
g5
Ntp731
Rp732
(dp733
g18
VPublicPower
p734
sbasg20
I00
sg21
Nsg22
Nsg23
(lp735
sg25
Nsg26
Nsg27
Nsg28
VThu Nov 20 19:15:18 +0000 2014
p736
sg30
Nsg31
I00
sg32
Nsg33
Nsg34
Nsg35
Nsg36
I00
sg37
Nsg38
(lp737
g3
(g40
g5
Ntp738
Rp739
(dp740
g10
Nsg44
Nsg45
Nsg46
Nsg47
Nsg48
Nsg28
Nsg49
Nsg50
Nsg51
Nsg52
Nsg53
Nsg54
Nsg55
Nsg56
Nsg57
Nsg58
Nsg59
Nsg60
Nsg61
Nsg62
Nsg63
Nsg64
VAPPAnews
p741
sg66
Nsg67
VAPPA
p742
sg69
Nsg70
Nsg71
I24770381
sg72
Nsbasg73
Nsg74
V535511723898204160
p743
sg76
Nsg77
VCurrently reading "Preventing Utility Scams" from the Nov/Dec issue of #PublicPower magazine. GREAT tips! @APPAnews http://t.co/G6uT8ImWvA
p744
sg79
I00
sg80
Ven
p745
sg82
g3
(g40
g5
Ntp746
Rp747
(dp748
g10
VTampa, FL
p749
sg44
V333333
p750
sg45
Ven
p751
sg46
VEastern Time (US & Canada)
p752
sg47
I103
sg48
I348
sg28
VThu Aug 23 21:17:40 +0000 2012
p753
sg49
I00
sg50
VSenior Marketing Account Specialist at Naylor Association Solutions. Aspiring entrepreneur, fur-mom, wanderlust, coffee addict and sports nut.
p754
sg51
Vhttps://pbs.twimg.com/profile_images/534469898420748288/Ard1Mtmd_normal.jpeg
p755
sg52
I117
sg53
I4
sg54
I-18000
sg55
Nsg56
I00
sg57
Nsg58
I00
sg59
I00
sg60
V93A644
p756
sg61
I00
sg62
I00
sg63
Vhttp://abs.twimg.com/images/themes/theme13/bg.gif
p757
sg64
Vkaydee_currie
p758
sg66
I5
sg67
VKaydee Currie
p759
sg69
VDDEEF6
p760
sg70
Vhttp://t.co/HkqUWMXQea
p761
sg71
I776778829
sg72
VB2DFDA
p762
sbsg100
I1
sg101
V<a href="https://about.twitter.com/products/tweetdeck" rel="nofollow">TweetDeck</a>
p763
sg103
(lp764
g3
(g148
g5
Ntp765
Rp766
(dp767
g152
Vhttp://t.co/G6uT8ImWvA
p768
sg154
Vhttp://bit.ly/1xSeIt6
p769
sbasg71
I535511723898204160
sbag3
(g4
g5
Ntp770
Rp771
(dp772
g9
I0
sg10
Nsg11
Nsg12
(lp773
sg20
I00
sg21
Nsg22
Nsg23
(lp774
sg25
Nsg26
Nsg27
Nsg28
VThu Nov 20 12:59:11 +0000 2014
p775
sg30
Nsg31
Nsg32
Nsg33
Nsg34
Nsg35
Nsg36
I00
sg37
Nsg38
(lp776
sg73
Nsg74
V535417067777040384
p777
sg76
Nsg77
VMy thoughts are with everyone at Florida State University this morning.
p778
sg79
I00
sg80
Ven
p779
sg82
g3
(g40
g5
Ntp780
Rp781
(dp782
g10
VTampa, FL
p783
sg44
V333333
p784
sg45
Ven
p785
sg46
VEastern Time (US & Canada)
p786
sg47
I103
sg48
I348
sg28
VThu Aug 23 21:17:40 +0000 2012
p787
sg49
I00
sg50
VSenior Marketing Account Specialist at Naylor Association Solutions. Aspiring entrepreneur, fur-mom, wanderlust, coffee addict and sports nut.
p788
sg51
Vhttps://pbs.twimg.com/profile_images/534469898420748288/Ard1Mtmd_normal.jpeg
p789
sg52
I117
sg53
I4
sg54
I-18000
sg55
Nsg56
I00
sg57
Nsg58
I00
sg59
I00
sg60
V93A644
p790
sg61
I00
sg62
I00
sg63
Vhttp://abs.twimg.com/images/themes/theme13/bg.gif
p791
sg64
Vkaydee_currie
p792
sg66
I5
sg67
VKaydee Currie
p793
sg69
VDDEEF6
p794
sg70
Vhttp://t.co/HkqUWMXQea
p795
sg71
I776778829
sg72
VB2DFDA
p796
sbsg100
I0
sg101
V<a href="http://twitter.com/#!/download/ipad" rel="nofollow">Twitter for iPad</a>
p797
sg103
(lp798
sg71
I535417067777040384
sbag3
(g4
g5
Ntp799
Rp800
(dp801
g9
I2
sg10
Nsg11
Nsg12
(lp802
g3
(g14
g5
Ntp803
Rp804
(dp805
g18
Voilandgas
p806
sbasg20
I00
sg21
Nsg22
Nsg23
(lp807
sg25
Nsg26
Nsg27
Nsg28
VMon Nov 17 19:15:06 +0000 2014
p808
sg30
Nsg31
I00
sg32
Nsg33
Nsg34
Nsg35
Nsg36
I00
sg37
Nsg38
(lp809
g3
(g40
g5
Ntp810
Rp811
(dp812
g10
Nsg44
Nsg45
Nsg46
Nsg47
Nsg48
Nsg28
Nsg49
Nsg50
Nsg51
Nsg52
Nsg53
Nsg54
Nsg55
Nsg56
Nsg57
Nsg58
Nsg59
Nsg60
Nsg61
Nsg62
Nsg63
Nsg64
VLaOilGasAssoc
p813
sg66
Nsg67
VLa Oil & Gas Assoc
p814
sg69
Nsg70
Nsg71
I76138084
sg72
Nsbasg73
Nsg74
V534424506308116480
p815
sg76
Nsg77
VHave you read the Fall issue of the LOGA Industry Report? Great info for #oilandgas professionals. http://t.co/8f16Wzgw3q @LaOilGasAssoc
p816
sg79
I00
sg80
Ven
p817
sg82
g3
(g40
g5
Ntp818
Rp819
(dp820
g10
VTampa, FL
p821
sg44
V333333
p822
sg45
Ven
p823
sg46
VEastern Time (US & Canada)
p824
sg47
I103
sg48
I348
sg28
VThu Aug 23 21:17:40 +0000 2012
p825
sg49
I00
sg50
VSenior Marketing Account Specialist at Naylor Association Solutions. Aspiring entrepreneur, fur-mom, wanderlust, coffee addict and sports nut.
p826
sg51
Vhttps://pbs.twimg.com/profile_images/534469898420748288/Ard1Mtmd_normal.jpeg
p827
sg52
I117
sg53
I4
sg54
I-18000
sg55
Nsg56
I00
sg57
Nsg58
I00
sg59
I00
sg60
V93A644
p828
sg61
I00
sg62
I00
sg63
Vhttp://abs.twimg.com/images/themes/theme13/bg.gif
p829
sg64
Vkaydee_currie
p830
sg66
I5
sg67
VKaydee Currie
p831
sg69
VDDEEF6
p832
sg70
Vhttp://t.co/HkqUWMXQea
p833
sg71
I776778829
sg72
VB2DFDA
p834
sbsg100
I0
sg101
V<a href="https://about.twitter.com/products/tweetdeck" rel="nofollow">TweetDeck</a>
p835
sg103
(lp836
g3
(g148
g5
Ntp837
Rp838
(dp839
g152
Vhttp://t.co/8f16Wzgw3q
p840
sg154
Vhttp://bit.ly/116KqHq
p841
sbasg71
I534424506308116480
sbag3
(g4
g5
Ntp842
Rp843
(dp844
g9
I1
sg10
Nsg11
Nsg12
(lp845
g3
(g14
g5
Ntp846
Rp847
(dp848
g18
VNatGas
p849
sbasg20
I00
sg21
Nsg22
Nsg23
(lp850
sg25
Nsg26
Nsg27
Nsg28
VFri Nov 14 16:30:05 +0000 2014
p851
sg30
Nsg31
Nsg32
Nsg33
Nsg34
Nsg35
Nsg36
I00
sg37
Nsg38
(lp852
g3
(g40
g5
Ntp853
Rp854
(dp855
g10
Nsg44
Nsg45
Nsg46
Nsg47
Nsg48
Nsg28
Nsg49
Nsg50
Nsg51
Nsg52
Nsg53
Nsg54
Nsg55
Nsg56
Nsg57
Nsg58
Nsg59
Nsg60
Nsg61
Nsg62
Nsg63
Nsg64
VOhioGasAssoc
p856
sg66
Nsg67
VOhio Gas Association
p857
sg69
Nsg70
Nsg71
I802747021
sg72
Nsbasg73
Nsg74
V533295818594582528
p858
sg76
Nsg77
VThere is ONE space left on the @OhioGasAssoc website. Contact Nick Manis at nmanis@naylor.com to book it now &amp; get a $50 VISA card! #NatGas
p859
sg79
I00
sg80
Ven
p860
sg82
g3
(g40
g5
Ntp861
Rp862
(dp863
g10
VTampa, FL
p864
sg44
V333333
p865
sg45
Ven
p866
sg46
VEastern Time (US & Canada)
p867
sg47
I103
sg48
I348
sg28
VThu Aug 23 21:17:40 +0000 2012
p868
sg49
I00
sg50
VSenior Marketing Account Specialist at Naylor Association Solutions. Aspiring entrepreneur, fur-mom, wanderlust, coffee addict and sports nut.
p869
sg51
Vhttps://pbs.twimg.com/profile_images/534469898420748288/Ard1Mtmd_normal.jpeg
p870
sg52
I117
sg53
I4
sg54
I-18000
sg55
Nsg56
I00
sg57
Nsg58
I00
sg59
I00
sg60
V93A644
p871
sg61
I00
sg62
I00
sg63
Vhttp://abs.twimg.com/images/themes/theme13/bg.gif
p872
sg64
Vkaydee_currie
p873
sg66
I5
sg67
VKaydee Currie
p874
sg69
VDDEEF6
p875
sg70
Vhttp://t.co/HkqUWMXQea
p876
sg71
I776778829
sg72
VB2DFDA
p877
sbsg100
I1
sg101
V<a href="http://twitter.com" rel="nofollow">Twitter Web Client</a>
p878
sg103
(lp879
sg71
I533295818594582528
sbag3
(g4
g5
Ntp880
Rp881
(dp882
g9
I0
sg10
Nsg11
Nsg12
(lp883
g3
(g14
g5
Ntp884
Rp885
(dp886
g18
VGACSToday
p887
sbasg20
I00
sg21
Nsg22
Nsg23
(lp888
sg25
Nsg26
Nsg27
Nsg28
VTue Nov 11 19:15:04 +0000 2014
p889
sg30
Nsg31
I00
sg32
Nsg33
Nsg34
Nsg35
Nsg36
I00
sg37
Nsg38
(lp890
g3
(g40
g5
Ntp891
Rp892
(dp893
g10
Nsg44
Nsg45
Nsg46
Nsg47
Nsg48
Nsg28
Nsg49
Nsg50
Nsg51
Nsg52
Nsg53
Nsg54
Nsg55
Nsg56
Nsg57
Nsg58
Nsg59
Nsg60
Nsg61
Nsg62
Nsg63
Nsg64
Vgacsga
p894
sg66
Nsg67
VGACS
p895
sg69
Nsg70
Nsg71
I993614186
sg72
Nsbasg73
Nsg74
V532250173439606784
p896
sg76
Nsg77
VThe Winter issue of #GACSToday mag just hit my inbox! I can't wait to read this new issue. @gacsga http://t.co/gXraLYS86F
p897
sg79
I00
sg80
Ven
p898
sg82
g3
(g40
g5
Ntp899
Rp900
(dp901
g10
VTampa, FL
p902
sg44
V333333
p903
sg45
Ven
p904
sg46
VEastern Time (US & Canada)
p905
sg47
I103
sg48
I348
sg28
VThu Aug 23 21:17:40 +0000 2012
p906
sg49
I00
sg50
VSenior Marketing Account Specialist at Naylor Association Solutions. Aspiring entrepreneur, fur-mom, wanderlust, coffee addict and sports nut.
p907
sg51
Vhttps://pbs.twimg.com/profile_images/534469898420748288/Ard1Mtmd_normal.jpeg
p908
sg52
I117
sg53
I4
sg54
I-18000
sg55
Nsg56
I00
sg57
Nsg58
I00
sg59
I00
sg60
V93A644
p909
sg61
I00
sg62
I00
sg63
Vhttp://abs.twimg.com/images/themes/theme13/bg.gif
p910
sg64
Vkaydee_currie
p911
sg66
I5
sg67
VKaydee Currie
p912
sg69
VDDEEF6
p913
sg70
Vhttp://t.co/HkqUWMXQea
p914
sg71
I776778829
sg72
VB2DFDA
p915
sbsg100
I0
sg101
V<a href="https://about.twitter.com/products/tweetdeck" rel="nofollow">TweetDeck</a>
p916
sg103
(lp917
g3
(g148
g5
Ntp918
Rp919
(dp920
g152
Vhttp://t.co/gXraLYS86F
p921
sg154
Vhttp://bit.ly/1493jva
p922
sbasg71
I532250173439606784
sbag3
(g4
g5
Ntp923
Rp924
(dp925
g9
I0
sg10
Nsg11
Nsg12
(lp926
g3
(g14
g5
Ntp927
Rp928
(dp929
g18
VVeteransDay
p930
sbasg20
I00
sg21
Nsg22
Nsg23
(lp931
sg25
Nsg26
Nsg27
Nsg28
VTue Nov 11 16:27:36 +0000 2014
p932
sg30
Nsg31
Nsg32
Nsg33
Nsg34
Nsg35
Nsg36
I00
sg37
Nsg38
(lp933
sg73
Nsg74
V532208027982512129
p934
sg76
Nsg77
VHappy Veterans Day! Thank you all for your service and sacrifice. I am forever grateful. #VeteransDay
p935
sg79
I00
sg80
Ven
p936
sg82
g3
(g40
g5
Ntp937
Rp938
(dp939
g10
VTampa, FL
p940
sg44
V333333
p941
sg45
Ven
p942
sg46
VEastern Time (US & Canada)
p943
sg47
I103
sg48
I348
sg28
VThu Aug 23 21:17:40 +0000 2012
p944
sg49
I00
sg50
VSenior Marketing Account Specialist at Naylor Association Solutions. Aspiring entrepreneur, fur-mom, wanderlust, coffee addict and sports nut.
p945
sg51
Vhttps://pbs.twimg.com/profile_images/534469898420748288/Ard1Mtmd_normal.jpeg
p946
sg52
I117
sg53
I4
sg54
I-18000
sg55
Nsg56
I00
sg57
Nsg58
I00
sg59
I00
sg60
V93A644
p947
sg61
I00
sg62
I00
sg63
Vhttp://abs.twimg.com/images/themes/theme13/bg.gif
p948
sg64
Vkaydee_currie
p949
sg66
I5
sg67
VKaydee Currie
p950
sg69
VDDEEF6
p951
sg70
Vhttp://t.co/HkqUWMXQea
p952
sg71
I776778829
sg72
VB2DFDA
p953
sbsg100
I0
sg101
V<a href="https://about.twitter.com/products/tweetdeck" rel="nofollow">TweetDeck</a>
p954
sg103
(lp955
sg71
I532208027982512129
sbag3
(g4
g5
Ntp956
Rp957
(dp958
g9
I0
sg10
Nsg11
Nsg12
(lp959
g3
(g14
g5
Ntp960
Rp961
(dp962
g18
Vfriendship
p963
sbasg20
I00
sg21
Nsg22
Nsg23
(lp964
sg25
Nsg26
Nsg27
Nsg28
VThu Nov 06 19:52:19 +0000 2014
p965
sg30
Nsg31
I00
sg32
Nsg33
Nsg34
Nsg35
Nsg36
I00
sg37
Nsg38
(lp966
sg73
Nsg74
V530447608792506370
p967
sg76
Nsg77
V#friendship http://t.co/S3CLSi0n7l
p968
sg79
I00
sg80
Vund
p969
sg82
g3
(g40
g5
Ntp970
Rp971
(dp972
g10
VTampa, FL
p973
sg44
V333333
p974
sg45
Ven
p975
sg46
VEastern Time (US & Canada)
p976
sg47
I103
sg48
I348
sg28
VThu Aug 23 21:17:40 +0000 2012
p977
sg49
I00
sg50
VSenior Marketing Account Specialist at Naylor Association Solutions. Aspiring entrepreneur, fur-mom, wanderlust, coffee addict and sports nut.
p978
sg51
Vhttps://pbs.twimg.com/profile_images/534469898420748288/Ard1Mtmd_normal.jpeg
p979
sg52
I117
sg53
I4
sg54
I-18000
sg55
Nsg56
I00
sg57
Nsg58
I00
sg59
I00
sg60
V93A644
p980
sg61
I00
sg62
I00
sg63
Vhttp://abs.twimg.com/images/themes/theme13/bg.gif
p981
sg64
Vkaydee_currie
p982
sg66
I5
sg67
VKaydee Currie
p983
sg69
VDDEEF6
p984
sg70
Vhttp://t.co/HkqUWMXQea
p985
sg71
I776778829
sg72
VB2DFDA
p986
sbsg100
I0
sg101
V<a href="https://about.twitter.com/products/tweetdeck" rel="nofollow">TweetDeck</a>
p987
sg103
(lp988
g3
(g148
g5
Ntp989
Rp990
(dp991
g152
Vhttp://t.co/S3CLSi0n7l
p992
sg154
Vhttp://www.buzzfeed.com/tracyclayton/hold-it-down
p993
sbasg71
I530447608792506370
sbag3
(g4
g5
Ntp994
Rp995
(dp996
g9
I0
sg10
Nsg11
Nsg12
(lp997
g3
(g14
g5
Ntp998
Rp999
(dp1000
g18
VUntil2016
p1001
sbasg20
I00
sg21
Nsg22
Nsg23
(lp1002
sg25
Nsg26
Nsg27
Nsg28
VWed Nov 05 15:52:19 +0000 2014
p1003
sg30
Nsg31
Nsg32
Nsg33
Nsg34
Nsg35
Nsg36
I00
sg37
Nsg38
(lp1004
sg73
Nsg74
V530024822294581249
p1005
sg76
Nsg77
VDay one of no political robo-calls to my office line. It is so fantastic to have my phone back. #Until2016
p1006
sg79
I00
sg80
Ven
p1007
sg82
g3
(g40
g5
Ntp1008
Rp1009
(dp1010
g10
VTampa, FL
p1011
sg44
V333333
p1012
sg45
Ven
p1013
sg46
VEastern Time (US & Canada)
p1014
sg47
I103
sg48
I348
sg28
VThu Aug 23 21:17:40 +0000 2012
p1015
sg49
I00
sg50
VSenior Marketing Account Specialist at Naylor Association Solutions. Aspiring entrepreneur, fur-mom, wanderlust, coffee addict and sports nut.
p1016
sg51
Vhttps://pbs.twimg.com/profile_images/534469898420748288/Ard1Mtmd_normal.jpeg
p1017
sg52
I117
sg53
I4
sg54
I-18000
sg55
Nsg56
I00
sg57
Nsg58
I00
sg59
I00
sg60
V93A644
p1018
sg61
I00
sg62
I00
sg63
Vhttp://abs.twimg.com/images/themes/theme13/bg.gif
p1019
sg64
Vkaydee_currie
p1020
sg66
I5
sg67
VKaydee Currie
p1021
sg69
VDDEEF6
p1022
sg70
Vhttp://t.co/HkqUWMXQea
p1023
sg71
I776778829
sg72
VB2DFDA
p1024
sbsg100
I0
sg101
V<a href="https://about.twitter.com/products/tweetdeck" rel="nofollow">TweetDeck</a>
p1025
sg103
(lp1026
sg71
I530024822294581249
sbag3
(g4
g5
Ntp1027
Rp1028
(dp1029
g9
I0
sg10
Nsg11
Nsg12
(lp1030
sg20
I00
sg21
Nsg22
Nsg23
(lp1031
sg25
Nsg26
Nsg27
Nsg28
VTue Nov 04 15:15:11 +0000 2014
p1032
sg30
Nsg31
I00
sg32
Nsg33
Nsg34
Nsg35
Nsg36
I00
sg37
Nsg38
(lp1033
g3
(g40
g5
Ntp1034
Rp1035
(dp1036
g10
Nsg44
Nsg45
Nsg46
Nsg47
Nsg48
Nsg28
Nsg49
Nsg50
Nsg51
Nsg52
Nsg53
Nsg54
Nsg55
Nsg56
Nsg57
Nsg58
Nsg59
Nsg60
Nsg61
Nsg62
Nsg63
Nsg64
VIPAAaccess
p1037
sg66
Nsg67
VIPAAaccess
p1038
sg69
Nsg70
Nsg71
I365562587
sg72
Nsbasg73
Nsg74
V529653087955197953
p1039
sg76
Nsg77
VThe digital edition of the Fall/Winter issue of IPAA Access is now available! Click here to read: http://t.co/Vpd3wkCT6p @IPAAaccess
p1040
sg79
I00
sg80
Ven
p1041
sg82
g3
(g40
g5
Ntp1042
Rp1043
(dp1044
g10
VTampa, FL
p1045
sg44
V333333
p1046
sg45
Ven
p1047
sg46
VEastern Time (US & Canada)
p1048
sg47
I103
sg48
I348
sg28
VThu Aug 23 21:17:40 +0000 2012
p1049
sg49
I00
sg50
VSenior Marketing Account Specialist at Naylor Association Solutions. Aspiring entrepreneur, fur-mom, wanderlust, coffee addict and sports nut.
p1050
sg51
Vhttps://pbs.twimg.com/profile_images/534469898420748288/Ard1Mtmd_normal.jpeg
p1051
sg52
I117
sg53
I4
sg54
I-18000
sg55
Nsg56
I00
sg57
Nsg58
I00
sg59
I00
sg60
V93A644
p1052
sg61
I00
sg62
I00
sg63
Vhttp://abs.twimg.com/images/themes/theme13/bg.gif
p1053
sg64
Vkaydee_currie
p1054
sg66
I5
sg67
VKaydee Currie
p1055
sg69
VDDEEF6
p1056
sg70
Vhttp://t.co/HkqUWMXQea
p1057
sg71
I776778829
sg72
VB2DFDA
p1058
sbsg100
I0
sg101
V<a href="https://about.twitter.com/products/tweetdeck" rel="nofollow">TweetDeck</a>
p1059
sg103
(lp1060
g3
(g148
g5
Ntp1061
Rp1062
(dp1063
g152
Vhttp://t.co/Vpd3wkCT6p
p1064
sg154
Vhttp://bit.ly/1wZJsZN
p1065
sbasg71
I529653087955197953
sbag3
(g4
g5
Ntp1066
Rp1067
(dp1068
g9
I0
sg10
Nsg11
Nsg12
(lp1069
sg20
I00
sg21
g3
(g4
g5
Ntp1070
Rp1071
(dp1072
g9
I0
sg10
Nsg11
Nsg12
(lp1073
sg20
I00
sg21
Nsg22
Nsg23
(lp1074
sg25
Nsg26
Nsg27
Nsg28
VMon Nov 03 15:55:21 +0000 2014
p1075
sg30
Nsg31
I00
sg32
Nsg33
Nsg34
Nsg35
Nsg36
I00
sg37
Nsg38
(lp1076
g3
(g40
g5
Ntp1077
Rp1078
(dp1079
g10
Nsg44
Nsg45
Nsg46
Nsg47
Nsg48
Nsg28
Nsg49
Nsg50
Nsg51
Nsg52
Nsg53
Nsg54
Nsg55
Nsg56
Nsg57
Nsg58
Nsg59
Nsg60
Nsg61
Nsg62
Nsg63
Nsg64
VStarbucks
p1080
sg66
Nsg67
VStarbucks Coffee
p1081
sg69
Nsg70
Nsg71
I30973
sg72
Nsbasg73
Nsg74
V529300810166190083
p1082
sg76
Nsg77
V.@Starbucks Is Bringing the Barista to You | NACS Daily http://t.co/DCc0HOkNnl
p1083
sg79
I00
sg80
Ven
p1084
sg82
g3
(g40
g5
Ntp1085
Rp1086
(dp1087
g10
VConvenience Stores Worldwide
p1088
sg44
V333333
p1089
sg45
Ven
p1090
sg46
VEastern Time (US & Canada)
p1091
sg47
I5681
sg48
I12816
sg28
VWed Apr 15 13:21:53 +0000 2009
p1092
sg49
I00
sg50
VProviding knowledge, connections and advocacy to the convenience and fuel retailing industry.
p1093
sg51
Vhttps://pbs.twimg.com/profile_images/459774800148193280/LuLM1ScA_normal.jpeg
p1094
sg52
I1785
sg53
I597
sg54
I-18000
sg55
Nsg56
I00
sg57
Vhttps://pbs.twimg.com/profile_banners/31404932/1398453523
p1095
sg58
I00
sg59
I00
sg60
V0084B4
p1096
sg61
I01
sg62
I00
sg63
Vhttp://pbs.twimg.com/profile_background_images/531172294/NACS_twitter_background.jpg
p1097
sg64
VNACSonline
p1098
sg66
I177
sg67
VNACS
p1099
sg69
VDDFFCC
p1100
sg70
Vhttp://t.co/9BZlBE7PfC
p1101
sg71
I31404932
sg72
V134276
p1102
sbsg100
I1
sg101
V<a href="http://www.hootsuite.com" rel="nofollow">Hootsuite</a>
p1103
sg103
(lp1104
g3
(g148
g5
Ntp1105
Rp1106
(dp1107
g152
Vhttp://t.co/DCc0HOkNnl
p1108
sg154
Vhttp://ow.ly/DJHym
p1109
sbasg71
I529300810166190083
sbsg22
Nsg23
(lp1110
sg25
Nsg26
Nsg27
Nsg28
VMon Nov 03 15:59:51 +0000 2014
p1111
sg30
Nsg31
I00
sg32
Nsg33
Nsg34
Nsg35
Nsg36
I00
sg37
Nsg38
(lp1112
g3
(g40
g5
Ntp1113
Rp1114
(dp1115
g10
Nsg44
Nsg45
Nsg46
Nsg47
Nsg48
Nsg28
Nsg49
Nsg50
Nsg51
Nsg52
Nsg53
Nsg54
Nsg55
Nsg56
Nsg57
Nsg58
Nsg59
Nsg60
Nsg61
Nsg62
Nsg63
Nsg64
VNACSonline
p1116
sg66
Nsg67
VNACS
p1117
sg69
Nsg70
Nsg71
I31404932
sg72
Nsbag3
(g40
g5
Ntp1118
Rp1119
(dp1120
g10
Nsg44
Nsg45
Nsg46
Nsg47
Nsg48
Nsg28
Nsg49
Nsg50
Nsg51
Nsg52
Nsg53
Nsg54
Nsg55
Nsg56
Nsg57
Nsg58
Nsg59
Nsg60
Nsg61
Nsg62
Nsg63
Nsg64
VStarbucks
p1121
sg66
Nsg67
VStarbucks Coffee
p1122
sg69
Nsg70
Nsg71
I30973
sg72
Nsbasg73
Nsg74
V529301941097357312
p1123
sg76
Nsg77
VRT @NACSonline: .@Starbucks Is Bringing the Barista to You | NACS Daily http://t.co/DCc0HOkNnl
p1124
sg79
I00
sg80
Ven
p1125
sg82
g3
(g40
g5
Ntp1126
Rp1127
(dp1128
g10
VTampa, FL
p1129
sg44
V333333
p1130
sg45
Ven
p1131
sg46
VEastern Time (US & Canada)
p1132
sg47
I103
sg48
I348
sg28
VThu Aug 23 21:17:40 +0000 2012
p1133
sg49
I00
sg50
VSenior Marketing Account Specialist at Naylor Association Solutions. Aspiring entrepreneur, fur-mom, wanderlust, coffee addict and sports nut.
p1134
sg51
Vhttps://pbs.twimg.com/profile_images/534469898420748288/Ard1Mtmd_normal.jpeg
p1135
sg52
I117
sg53
I4
sg54
I-18000
sg55
Nsg56
I00
sg57
Nsg58
I00
sg59
I00
sg60
V93A644
p1136
sg61
I00
sg62
I00
sg63
Vhttp://abs.twimg.com/images/themes/theme13/bg.gif
p1137
sg64
Vkaydee_currie
p1138
sg66
I5
sg67
VKaydee Currie
p1139
sg69
VDDEEF6
p1140
sg70
Vhttp://t.co/HkqUWMXQea
p1141
sg71
I776778829
sg72
VB2DFDA
p1142
sbsg100
I1
sg101
V<a href="http://twitter.com" rel="nofollow">Twitter Web Client</a>
p1143
sg103
(lp1144
g3
(g148
g5
Ntp1145
Rp1146
(dp1147
g152
Vhttp://t.co/DCc0HOkNnl
p1148
sg154
Vhttp://ow.ly/DJHym
p1149
sbasg71
I529301941097357312
sbaa.