(lp0
S'annieseaton26'
p1
a(lp2
ccopy_reg
_reconstructor
p3
(ctwitter.status
Status
p4
c__builtin__
object
p5
Ntp6
Rp7
(dp8
S'_favorite_count'
p9
I0
sS'_location'
p10
NsS'_withheld_scope'
p11
NsS'hashtags'
p12
(lp13
g3
(ctwitter.hashtag
Hashtag
p14
g5
Ntp15
Rp16
(dp17
S'text'
p18
VHolidayRomance
p19
sbag3
(g14
g5
Ntp20
Rp21
(dp22
g18
Vromanticsuspense
p23
sbag3
(g14
g5
Ntp24
Rp25
(dp26
g18
Vvampires
p27
sbag3
(g14
g5
Ntp28
Rp29
(dp30
g18
VBDSM
p31
sbasS'_truncated'
p32
I00
sS'_retweeted_status'
p33
NsS'_withheld_copyright'
p34
NsS'media'
p35
(lp36
sS'_place'
p37
NsS'_contributors'
p38
NsS'_current_user_retweet'
p39
NsS'_created_at'
p40
VSun Dec 14 19:00:45 +0000 2014
p41
sS'_scopes'
p42
NsS'_possibly_sensitive'
p43
I00
sS'_in_reply_to_screen_name'
p44
NsS'_coordinates'
p45
NsS'_in_reply_to_user_id'
p46
NsS'_geo'
p47
NsS'_favorited'
p48
I00
sS'_withheld_in_countries'
p49
NsS'user_mentions'
p50
(lp51
sS'_now'
p52
NsS'_id_str'
p53
NsS'_in_reply_to_status_id'
p54
NsS'_text'
p55
VThree #HolidayRomance novels --edgy #romanticsuspense --rocking #vampires -sexy #BDSM --One Breathless Collection  http://t.co/cm3z9dHGL5
p56
sS'_retweeted'
p57
I00
sS'lang'
p58
Ven
p59
sS'_user'
p60
g3
(ctwitter.user
User
p61
g5
Ntp62
Rp63
(dp64
g10
VCoffs coast
p65
sS'_profile_text_color'
p66
V333333
p67
sS'_lang'
p68
Ven
p69
sS'_time_zone'
p70
NsS'_followers_count'
p71
I3314
sS'_statuses_count'
p72
I5776
sg40
VTue Jun 07 09:16:35 +0000 2011
p73
sS'_verified'
p74
I00
sS'_description'
p75
VNew release Capturing the Pirate's Heart  http://t.co/o5SduPkYVo
p76
sS'_profile_image_url'
p77
Vhttps://pbs.twimg.com/profile_images/439267523326771201/cdv2PJ4H_normal.jpeg
p78
sS'_friends_count'
p79
I1476
sS'_favourites_count'
p80
I539
sS'_utc_offset'
p81
NsS'_status'
p82
NsS'_protected'
p83
I00
sS'_profile_banner_url'
p84
Vhttps://pbs.twimg.com/profile_banners/312551628/1416283410
p85
sS'_notifications'
p86
I00
sS'_profile_background_tile'
p87
I01
sS'_profile_link_color'
p88
V4A913C
p89
sS'_geo_enabled'
p90
I00
sS'_contributors_enabled'
p91
I00
sS'_profile_background_image_url'
p92
Vhttp://pbs.twimg.com/profile_background_images/534556255382032384/gdX1dG6J.jpeg
p93
sS'_screen_name'
p94
Vannieseaton26
p95
sS'_listed_count'
p96
I148
sS'_name'
p97
VAnnie Seaton
p98
sS'_profile_sidebar_fill_color'
p99
VDDEEF6
p100
sS'_url'
p101
Vhttp://t.co/G0sor7AJqj
p102
sS'_id'
p103
I312551628
sS'_profile_background_color'
p104
V4A913C
p105
sbsS'_retweet_count'
p106
I0
sS'_source'
p107
V<a href="https://www.thunderclap.it" rel="nofollow">Thunderclap</a>
p108
sS'urls'
p109
(lp110
g3
(ctwitter.url
Url
p111
g5
Ntp112
Rp113
(dp114
S'url'
p115
Vhttp://t.co/cm3z9dHGL5
p116
sS'expanded_url'
p117
Vhttp://thndr.it/1HPxC9D
p118
sbasg103
I544205369778528256
sbag3
(g4
g5
Ntp119
Rp120
(dp121
g9
I0
sg10
Nsg11
Nsg12
(lp122
sg32
I00
sg33
Nsg34
Nsg35
(lp123
sg37
Nsg38
Nsg39
Nsg40
VSun Dec 14 02:06:25 +0000 2014
p124
sg42
Nsg43
I00
sg44
Nsg45
Nsg46
Nsg47
Nsg48
I00
sg49
Nsg50
(lp125
sg52
Nsg53
Nsg54
Nsg55
VSun, sand and Sizzzzzzle. http://t.co/rYpzc3EnIt
p126
sg57
I00
sg58
Ven
p127
sg60
g3
(g61
g5
Ntp128
Rp129
(dp130
g10
VCoffs coast
p131
sg66
V333333
p132
sg68
Ven
p133
sg70
Nsg71
I3314
sg72
I5776
sg40
VTue Jun 07 09:16:35 +0000 2011
p134
sg74
I00
sg75
VNew release Capturing the Pirate's Heart  http://t.co/o5SduPkYVo
p135
sg77
Vhttps://pbs.twimg.com/profile_images/439267523326771201/cdv2PJ4H_normal.jpeg
p136
sg79
I1476
sg80
I539
sg81
Nsg82
Nsg83
I00
sg84
Vhttps://pbs.twimg.com/profile_banners/312551628/1416283410
p137
sg86
I00
sg87
I01
sg88
V4A913C
p138
sg90
I00
sg91
I00
sg92
Vhttp://pbs.twimg.com/profile_background_images/534556255382032384/gdX1dG6J.jpeg
p139
sg94
Vannieseaton26
p140
sg96
I148
sg97
VAnnie Seaton
p141
sg99
VDDEEF6
p142
sg101
Vhttp://t.co/G0sor7AJqj
p143
sg103
I312551628
sg104
V4A913C
p144
sbsg106
I0
sg107
V<a href="http://twitter.com" rel="nofollow">Twitter Web Client</a>
p145
sg109
(lp146
g3
(g111
g5
Ntp147
Rp148
(dp149
g115
Vhttp://t.co/rYpzc3EnIt
p150
sg117
Vhttp://amzn.to/1xeT052
p151
sbasg103
I543950102155390976
sbag3
(g4
g5
Ntp152
Rp153
(dp154
g9
I0
sg10
Nsg11
Nsg12
(lp155
sg32
I00
sg33
Nsg34
Nsg35
(lp156
sg37
Nsg38
Nsg39
Nsg40
VSat Dec 13 23:08:40 +0000 2014
p157
sg42
Nsg43
I00
sg44
Nsg45
Nsg46
Nsg47
Nsg48
I00
sg49
Nsg50
(lp158
g3
(g61
g5
Ntp159
Rp160
(dp161
g10
Nsg66
Nsg68
Nsg70
Nsg71
Nsg72
Nsg40
Nsg74
Nsg75
Nsg77
Nsg79
Nsg80
Nsg81
Nsg82
Nsg83
Nsg84
Nsg86
Nsg87
Nsg88
Nsg90
Nsg91
Nsg92
Nsg94
Vreadcheaply
p162
sg96
Nsg97
VReadCheaply.com
p163
sg99
Nsg101
Nsg103
I1512637614
sg104
Nsbasg52
Nsg53
Nsg54
Nsg55
VWant Bestselling eBooks for FREE? Checkout ReadCheaply! http://t.co/bLqYlPsesE via @readcheaply
p164
sg57
I00
sg58
Ven
p165
sg60
g3
(g61
g5
Ntp166
Rp167
(dp168
g10
VCoffs coast
p169
sg66
V333333
p170
sg68
Ven
p171
sg70
Nsg71
I3314
sg72
I5776
sg40
VTue Jun 07 09:16:35 +0000 2011
p172
sg74
I00
sg75
VNew release Capturing the Pirate's Heart  http://t.co/o5SduPkYVo
p173
sg77
Vhttps://pbs.twimg.com/profile_images/439267523326771201/cdv2PJ4H_normal.jpeg
p174
sg79
I1476
sg80
I539
sg81
Nsg82
Nsg83
I00
sg84
Vhttps://pbs.twimg.com/profile_banners/312551628/1416283410
p175
sg86
I00
sg87
I01
sg88
V4A913C
p176
sg90
I00
sg91
I00
sg92
Vhttp://pbs.twimg.com/profile_background_images/534556255382032384/gdX1dG6J.jpeg
p177
sg94
Vannieseaton26
p178
sg96
I148
sg97
VAnnie Seaton
p179
sg99
VDDEEF6
p180
sg101
Vhttp://t.co/G0sor7AJqj
p181
sg103
I312551628
sg104
V4A913C
p182
sbsg106
I0
sg107
V<a href="https://dev.twitter.com/docs/tfw" rel="nofollow">Twitter for Websites</a>
p183
sg109
(lp184
g3
(g111
g5
Ntp185
Rp186
(dp187
g115
Vhttp://t.co/bLqYlPsesE
p188
sg117
Vhttp://readcheaply.com
p189
sbasg103
I543905370494611456
sbag3
(g4
g5
Ntp190
Rp191
(dp192
g9
I0
sg10
Nsg11
Nsg12
(lp193
sg32
I00
sg33
Nsg34
Nsg35
(lp194
sg37
Nsg38
Nsg39
Nsg40
VSat Dec 13 22:20:16 +0000 2014
p195
sg42
Nsg43
I00
sg44
Nsg45
Nsg46
Nsg47
Nsg48
I00
sg49
Nsg50
(lp196
sg52
Nsg53
Nsg54
Nsg55
VI just updated my website. http://t.co/0XIDR8o6kG
p197
sg57
I00
sg58
Ven
p198
sg60
g3
(g61
g5
Ntp199
Rp200
(dp201
g10
VCoffs coast
p202
sg66
V333333
p203
sg68
Ven
p204
sg70
Nsg71
I3314
sg72
I5776
sg40
VTue Jun 07 09:16:35 +0000 2011
p205
sg74
I00
sg75
VNew release Capturing the Pirate's Heart  http://t.co/o5SduPkYVo
p206
sg77
Vhttps://pbs.twimg.com/profile_images/439267523326771201/cdv2PJ4H_normal.jpeg
p207
sg79
I1476
sg80
I539
sg81
Nsg82
Nsg83
I00
sg84
Vhttps://pbs.twimg.com/profile_banners/312551628/1416283410
p208
sg86
I00
sg87
I01
sg88
V4A913C
p209
sg90
I00
sg91
I00
sg92
Vhttp://pbs.twimg.com/profile_background_images/534556255382032384/gdX1dG6J.jpeg
p210
sg94
Vannieseaton26
p211
sg96
I148
sg97
VAnnie Seaton
p212
sg99
VDDEEF6
p213
sg101
Vhttp://t.co/G0sor7AJqj
p214
sg103
I312551628
sg104
V4A913C
p215
sbsg106
I1
sg107
V<a href="http://www.weebly.com/" rel="nofollow">Weebly App</a>
p216
sg109
(lp217
g3
(g111
g5
Ntp218
Rp219
(dp220
g115
Vhttp://t.co/0XIDR8o6kG
p221
sg117
Vhttp://www.emeraldromance.com
p222
sbasg103
I543893192513298433
sbag3
(g4
g5
Ntp223
Rp224
(dp225
g9
I0
sg10
Nsg11
Nsg12
(lp226
sg32
I00
sg33
Nsg34
Nsg35
(lp227
sg37
Nsg38
Nsg39
Nsg40
VSat Dec 13 17:00:22 +0000 2014
p228
sg42
Nsg43
I00
sg44
Nsg45
Nsg46
Nsg47
Nsg48
I00
sg49
Nsg50
(lp229
sg52
Nsg53
Nsg54
Nsg55
VThe Queen of Swords, a paranormal tale of undying love. More than 50 five-star reviews. Grab it now for only $2.99! http://t.co/i9nJIYNcfd
p230
sg57
I00
sg58
Ven
p231
sg60
g3
(g61
g5
Ntp232
Rp233
(dp234
g10
VCoffs coast
p235
sg66
V333333
p236
sg68
Ven
p237
sg70
Nsg71
I3314
sg72
I5776
sg40
VTue Jun 07 09:16:35 +0000 2011
p238
sg74
I00
sg75
VNew release Capturing the Pirate's Heart  http://t.co/o5SduPkYVo
p239
sg77
Vhttps://pbs.twimg.com/profile_images/439267523326771201/cdv2PJ4H_normal.jpeg
p240
sg79
I1476
sg80
I539
sg81
Nsg82
Nsg83
I00
sg84
Vhttps://pbs.twimg.com/profile_banners/312551628/1416283410
p241
sg86
I00
sg87
I01
sg88
V4A913C
p242
sg90
I00
sg91
I00
sg92
Vhttp://pbs.twimg.com/profile_background_images/534556255382032384/gdX1dG6J.jpeg
p243
sg94
Vannieseaton26
p244
sg96
I148
sg97
VAnnie Seaton
p245
sg99
VDDEEF6
p246
sg101
Vhttp://t.co/G0sor7AJqj
p247
sg103
I312551628
sg104
V4A913C
p248
sbsg106
I0
sg107
V<a href="https://www.thunderclap.it" rel="nofollow">Thunderclap</a>
p249
sg109
(lp250
g3
(g111
g5
Ntp251
Rp252
(dp253
g115
Vhttp://t.co/i9nJIYNcfd
p254
sg117
Vhttp://thndr.it/1xZC5kF
p255
sbasg103
I543812684161249281
sbag3
(g4
g5
Ntp256
Rp257
(dp258
g9
I0
sg10
Nsg11
Nsg12
(lp259
sg32
I00
sg33
Nsg34
Nsg35
(lp260
sg37
Nsg38
Nsg39
Nsg40
VFri Dec 12 22:23:05 +0000 2014
p261
sg42
Nsg43
I00
sg44
Nsg45
Nsg46
Nsg47
Nsg48
I00
sg49
Nsg50
(lp262
sg52
Nsg53
Nsg54
Nsg55
VI just updated my website. http://t.co/0XIDR8o6kG
p263
sg57
I00
sg58
Ven
p264
sg60
g3
(g61
g5
Ntp265
Rp266
(dp267
g10
VCoffs coast
p268
sg66
V333333
p269
sg68
Ven
p270
sg70
Nsg71
I3314
sg72
I5776
sg40
VTue Jun 07 09:16:35 +0000 2011
p271
sg74
I00
sg75
VNew release Capturing the Pirate's Heart  http://t.co/o5SduPkYVo
p272
sg77
Vhttps://pbs.twimg.com/profile_images/439267523326771201/cdv2PJ4H_normal.jpeg
p273
sg79
I1476
sg80
I539
sg81
Nsg82
Nsg83
I00
sg84
Vhttps://pbs.twimg.com/profile_banners/312551628/1416283410
p274
sg86
I00
sg87
I01
sg88
V4A913C
p275
sg90
I00
sg91
I00
sg92
Vhttp://pbs.twimg.com/profile_background_images/534556255382032384/gdX1dG6J.jpeg
p276
sg94
Vannieseaton26
p277
sg96
I148
sg97
VAnnie Seaton
p278
sg99
VDDEEF6
p279
sg101
Vhttp://t.co/G0sor7AJqj
p280
sg103
I312551628
sg104
V4A913C
p281
sbsg106
I1
sg107
V<a href="http://www.weebly.com/" rel="nofollow">Weebly App</a>
p282
sg109
(lp283
g3
(g111
g5
Ntp284
Rp285
(dp286
g115
Vhttp://t.co/0XIDR8o6kG
p287
sg117
Vhttp://www.emeraldromance.com
p288
sbasg103
I543531513698983936
sbag3
(g4
g5
Ntp289
Rp290
(dp291
g9
I0
sg10
Nsg11
Nsg12
(lp292
sg32
I00
sg33
g3
(g4
g5
Ntp293
Rp294
(dp295
g9
I2
sg10
Nsg11
Nsg12
(lp296
sg32
I00
sg33
Nsg34
Nsg35
(lp297
sg37
Nsg38
Nsg39
Nsg40
VFri Dec 12 17:24:42 +0000 2014
p298
sg42
Nsg43
Nsg44
Nsg45
Nsg46
Nsg47
Nsg48
I00
sg49
Nsg50
(lp299
g3
(g61
g5
Ntp300
Rp301
(dp302
g10
Nsg66
Nsg68
Nsg70
Nsg71
Nsg72
Nsg40
Nsg74
Nsg75
Nsg77
Nsg79
Nsg80
Nsg81
Nsg82
Nsg83
Nsg84
Nsg86
Nsg87
Nsg88
Nsg90
Nsg91
Nsg92
Nsg94
Vannieseaton26
p303
sg96
Nsg97
VAnnie Seaton
p304
sg99
Nsg101
Nsg103
I312551628
sg104
Nsbag3
(g61
g5
Ntp305
Rp306
(dp307
g10
Nsg66
Nsg68
Nsg70
Nsg71
Nsg72
Nsg40
Nsg74
Nsg75
Nsg77
Nsg79
Nsg80
Nsg81
Nsg82
Nsg83
Nsg84
Nsg86
Nsg87
Nsg88
Nsg90
Nsg91
Nsg92
Nsg94
Vaudible_com
p308
sg96
Nsg97
VAudible
p309
sg99
Nsg101
Nsg103
I21001534
sg104
Nsbasg52
Nsg53
Nsg54
Nsg55
VFinished recording of 'Dangerous Desire' by @annieseaton26 - makes me want a tropical vacation!!! @audible_com
p310
sg57
I00
sg58
Ven
p311
sg60
g3
(g61
g5
Ntp312
Rp313
(dp314
g10
VNew York City
p315
sg66
V333333
p316
sg68
Ven
p317
sg70
VAtlantic Time (Canada)
p318
sg71
I75
sg72
I64
sg40
VSat Apr 20 00:06:11 +0000 2013
p319
sg74
I00
sg75
VAudiobook Narrator. Lover of stories, wonderful food and interesting folks!
p320
sg77
Vhttps://pbs.twimg.com/profile_images/472150478348771330/xSUXmTum_normal.jpeg
p321
sg79
I171
sg80
I23
sg81
I-14400
sg82
Nsg83
I00
sg84
Vhttps://pbs.twimg.com/profile_banners/1365676674/1401404898
p322
sg86
I00
sg87
I00
sg88
V6B00B3
p323
sg90
I00
sg91
I00
sg92
Vhttp://abs.twimg.com/images/themes/theme1/bg.png
p324
sg94
VSaskiaAudio
p325
sg96
I1
sg97
VSaskia Maarleveld
p326
sg99
VDDEEF6
p327
sg101
Nsg103
I1365676674
sg104
VC0DEED
p328
sbsg106
I1
sg107
V<a href="http://twitter.com/download/iphone" rel="nofollow">Twitter for iPhone</a>
p329
sg109
(lp330
sg103
I543456421049020416
sbsg34
Nsg35
(lp331
sg37
Nsg38
Nsg39
Nsg40
VFri Dec 12 19:24:52 +0000 2014
p332
sg42
Nsg43
Nsg44
Nsg45
Nsg46
Nsg47
Nsg48
I00
sg49
Nsg50
(lp333
g3
(g61
g5
Ntp334
Rp335
(dp336
g10
Nsg66
Nsg68
Nsg70
Nsg71
Nsg72
Nsg40
Nsg74
Nsg75
Nsg77
Nsg79
Nsg80
Nsg81
Nsg82
Nsg83
Nsg84
Nsg86
Nsg87
Nsg88
Nsg90
Nsg91
Nsg92
Nsg94
VSaskiaAudio
p337
sg96
Nsg97
VSaskia Maarleveld
p338
sg99
Nsg101
Nsg103
I1365676674
sg104
Nsbag3
(g61
g5
Ntp339
Rp340
(dp341
g10
Nsg66
Nsg68
Nsg70
Nsg71
Nsg72
Nsg40
Nsg74
Nsg75
Nsg77
Nsg79
Nsg80
Nsg81
Nsg82
Nsg83
Nsg84
Nsg86
Nsg87
Nsg88
Nsg90
Nsg91
Nsg92
Nsg94
Vannieseaton26
p342
sg96
Nsg97
VAnnie Seaton
p343
sg99
Nsg101
Nsg103
I312551628
sg104
Nsbag3
(g61
g5
Ntp344
Rp345
(dp346
g10
Nsg66
Nsg68
Nsg70
Nsg71
Nsg72
Nsg40
Nsg74
Nsg75
Nsg77
Nsg79
Nsg80
Nsg81
Nsg82
Nsg83
Nsg84
Nsg86
Nsg87
Nsg88
Nsg90
Nsg91
Nsg92
Nsg94
Vaudible_com
p347
sg96
Nsg97
VAudible
p348
sg99
Nsg101
Nsg103
I21001534
sg104
Nsbasg52
Nsg53
Nsg54
Nsg55
VRT @SaskiaAudio: Finished recording of 'Dangerous Desire' by @annieseaton26 - makes me want a tropical vacation!!! @audible_com
p349
sg57
I00
sg58
Ven
p350
sg60
g3
(g61
g5
Ntp351
Rp352
(dp353
g10
VCoffs coast
p354
sg66
V333333
p355
sg68
Ven
p356
sg70
Nsg71
I3314
sg72
I5776
sg40
VTue Jun 07 09:16:35 +0000 2011
p357
sg74
I00
sg75
VNew release Capturing the Pirate's Heart  http://t.co/o5SduPkYVo
p358
sg77
Vhttps://pbs.twimg.com/profile_images/439267523326771201/cdv2PJ4H_normal.jpeg
p359
sg79
I1476
sg80
I539
sg81
Nsg82
Nsg83
I00
sg84
Vhttps://pbs.twimg.com/profile_banners/312551628/1416283410
p360
sg86
I00
sg87
I01
sg88
V4A913C
p361
sg90
I00
sg91
I00
sg92
Vhttp://pbs.twimg.com/profile_background_images/534556255382032384/gdX1dG6J.jpeg
p362
sg94
Vannieseaton26
p363
sg96
I148
sg97
VAnnie Seaton
p364
sg99
VDDEEF6
p365
sg101
Vhttp://t.co/G0sor7AJqj
p366
sg103
I312551628
sg104
V4A913C
p367
sbsg106
I1
sg107
V<a href="https://dev.twitter.com/docs/tfw" rel="nofollow">Twitter for Websites</a>
p368
sg109
(lp369
sg103
I543486663372984335
sbag3
(g4
g5
Ntp370
Rp371
(dp372
g9
I0
sg10
Nsg11
Nsg12
(lp373
sg32
I00
sg33
Nsg34
Nsg35
(lp374
sg37
Nsg38
Nsg39
Nsg40
VFri Dec 12 19:00:44 +0000 2014
p375
sg42
Nsg43
I00
sg44
Nsg45
Nsg46
Nsg47
Nsg48
I00
sg49
Nsg50
(lp376
sg52
Nsg53
Nsg54
Nsg55
V"Drop the casket and bury me now." http://t.co/gW7pVr39Fi
p377
sg57
I00
sg58
Ven
p378
sg60
g3
(g61
g5
Ntp379
Rp380
(dp381
g10
VCoffs coast
p382
sg66
V333333
p383
sg68
Ven
p384
sg70
Nsg71
I3314
sg72
I5776
sg40
VTue Jun 07 09:16:35 +0000 2011
p385
sg74
I00
sg75
VNew release Capturing the Pirate's Heart  http://t.co/o5SduPkYVo
p386
sg77
Vhttps://pbs.twimg.com/profile_images/439267523326771201/cdv2PJ4H_normal.jpeg
p387
sg79
I1476
sg80
I539
sg81
Nsg82
Nsg83
I00
sg84
Vhttps://pbs.twimg.com/profile_banners/312551628/1416283410
p388
sg86
I00
sg87
I01
sg88
V4A913C
p389
sg90
I00
sg91
I00
sg92
Vhttp://pbs.twimg.com/profile_background_images/534556255382032384/gdX1dG6J.jpeg
p390
sg94
Vannieseaton26
p391
sg96
I148
sg97
VAnnie Seaton
p392
sg99
VDDEEF6
p393
sg101
Vhttp://t.co/G0sor7AJqj
p394
sg103
I312551628
sg104
V4A913C
p395
sbsg106
I0
sg107
V<a href="https://www.thunderclap.it" rel="nofollow">Thunderclap</a>
p396
sg109
(lp397
g3
(g111
g5
Ntp398
Rp399
(dp400
g115
Vhttp://t.co/gW7pVr39Fi
p401
sg117
Vhttp://thndr.it/1oZlKMb
p402
sbasg103
I543480588767068160
sbag3
(g4
g5
Ntp403
Rp404
(dp405
g9
I0
sg10
Nsg11
Nsg12
(lp406
g3
(g14
g5
Ntp407
Rp408
(dp409
g18
VUnchainedHearts
p410
sbag3
(g14
g5
Ntp411
Rp412
(dp413
g18
Vfree
p414
sbag3
(g14
g5
Ntp415
Rp416
(dp417
g18
Vkindle
p418
sbag3
(g14
g5
Ntp419
Rp420
(dp421
g18
Vretweet
p422
sbag3
(g14
g5
Ntp423
Rp424
(dp425
g18
Vromance
p426
sbag3
(g14
g5
Ntp427
Rp428
(dp429
g18
VIARTG
p430
sbasg32
I00
sg33
Nsg34
Nsg35
(lp431
sg37
Nsg38
Nsg39
Nsg40
VFri Dec 12 16:00:17 +0000 2014
p432
sg42
Nsg43
I00
sg44
Nsg45
Nsg46
Nsg47
Nsg48
I00
sg49
Nsg50
(lp433
sg52
Nsg53
Nsg54
Nsg55
VTwo love stories, one haunting legacy Read #UnchainedHearts #free on #kindle Dec 12&amp;13 #retweet #romance #IARTG http://t.co/iyahSfF69m
p434
sg57
I00
sg58
Ven
p435
sg60
g3
(g61
g5
Ntp436
Rp437
(dp438
g10
VCoffs coast
p439
sg66
V333333
p440
sg68
Ven
p441
sg70
Nsg71
I3314
sg72
I5776
sg40
VTue Jun 07 09:16:35 +0000 2011
p442
sg74
I00
sg75
VNew release Capturing the Pirate's Heart  http://t.co/o5SduPkYVo
p443
sg77
Vhttps://pbs.twimg.com/profile_images/439267523326771201/cdv2PJ4H_normal.jpeg
p444
sg79
I1476
sg80
I539
sg81
Nsg82
Nsg83
I00
sg84
Vhttps://pbs.twimg.com/profile_banners/312551628/1416283410
p445
sg86
I00
sg87
I01
sg88
V4A913C
p446
sg90
I00
sg91
I00
sg92
Vhttp://pbs.twimg.com/profile_background_images/534556255382032384/gdX1dG6J.jpeg
p447
sg94
Vannieseaton26
p448
sg96
I148
sg97
VAnnie Seaton
p449
sg99
VDDEEF6
p450
sg101
Vhttp://t.co/G0sor7AJqj
p451
sg103
I312551628
sg104
V4A913C
p452
sbsg106
I0
sg107
V<a href="https://www.thunderclap.it" rel="nofollow">Thunderclap</a>
p453
sg109
(lp454
g3
(g111
g5
Ntp455
Rp456
(dp457
g115
Vhttp://t.co/iyahSfF69m
p458
sg117
Vhttp://thndr.it/1x6Q1eB
p459
sbasg103
I543435177897496576
sbag3
(g4
g5
Ntp460
Rp461
(dp462
g9
I0
sg10
Nsg11
Nsg12
(lp463
sg32
I00
sg33
Nsg34
Nsg35
(lp464
sg37
Nsg38
Nsg39
Nsg40
VFri Dec 12 06:39:07 +0000 2014
p465
sg42
Nsg43
I00
sg44
Nsg45
Nsg46
Nsg47
Nsg48
I00
sg49
Nsg50
(lp466
sg52
Nsg53
Nsg54
Nsg55
VThe witch is live and ***99c***\u000ahttp://t.co/Rxs0NRBPhj
p467
sg57
I00
sg58
Ven
p468
sg60
g3
(g61
g5
Ntp469
Rp470
(dp471
g10
VCoffs coast
p472
sg66
V333333
p473
sg68
Ven
p474
sg70
Nsg71
I3314
sg72
I5776
sg40
VTue Jun 07 09:16:35 +0000 2011
p475
sg74
I00
sg75
VNew release Capturing the Pirate's Heart  http://t.co/o5SduPkYVo
p476
sg77
Vhttps://pbs.twimg.com/profile_images/439267523326771201/cdv2PJ4H_normal.jpeg
p477
sg79
I1476
sg80
I539
sg81
Nsg82
Nsg83
I00
sg84
Vhttps://pbs.twimg.com/profile_banners/312551628/1416283410
p478
sg86
I00
sg87
I01
sg88
V4A913C
p479
sg90
I00
sg91
I00
sg92
Vhttp://pbs.twimg.com/profile_background_images/534556255382032384/gdX1dG6J.jpeg
p480
sg94
Vannieseaton26
p481
sg96
I148
sg97
VAnnie Seaton
p482
sg99
VDDEEF6
p483
sg101
Vhttp://t.co/G0sor7AJqj
p484
sg103
I312551628
sg104
V4A913C
p485
sbsg106
I0
sg107
V<a href="http://twitter.com" rel="nofollow">Twitter Web Client</a>
p486
sg109
(lp487
g3
(g111
g5
Ntp488
Rp489
(dp490
g115
Vhttp://t.co/Rxs0NRBPhj
p491
sg117
Vhttp://amzn.to/1vzMRyJ
p492
sbasg103
I543293954771275776
sbag3
(g4
g5
Ntp493
Rp494
(dp495
g9
I0
sg10
Nsg11
Nsg12
(lp496
sg32
I00
sg33
Nsg34
Nsg35
(lp497
sg37
Nsg38
Nsg39
Nsg40
VThu Dec 11 23:53:31 +0000 2014
p498
sg42
Nsg43
I00
sg44
Nsg45
Nsg46
Nsg47
Nsg48
I00
sg49
Nsg50
(lp499
sg52
Nsg53
Nsg54
Nsg55
VI just updated my website. http://t.co/2MF2SYy873
p500
sg57
I00
sg58
Ven
p501
sg60
g3
(g61
g5
Ntp502
Rp503
(dp504
g10
VCoffs coast
p505
sg66
V333333
p506
sg68
Ven
p507
sg70
Nsg71
I3314
sg72
I5776
sg40
VTue Jun 07 09:16:35 +0000 2011
p508
sg74
I00
sg75
VNew release Capturing the Pirate's Heart  http://t.co/o5SduPkYVo
p509
sg77
Vhttps://pbs.twimg.com/profile_images/439267523326771201/cdv2PJ4H_normal.jpeg
p510
sg79
I1476
sg80
I539
sg81
Nsg82
Nsg83
I00
sg84
Vhttps://pbs.twimg.com/profile_banners/312551628/1416283410
p511
sg86
I00
sg87
I01
sg88
V4A913C
p512
sg90
I00
sg91
I00
sg92
Vhttp://pbs.twimg.com/profile_background_images/534556255382032384/gdX1dG6J.jpeg
p513
sg94
Vannieseaton26
p514
sg96
I148
sg97
VAnnie Seaton
p515
sg99
VDDEEF6
p516
sg101
Vhttp://t.co/G0sor7AJqj
p517
sg103
I312551628
sg104
V4A913C
p518
sbsg106
I1
sg107
V<a href="http://www.weebly.com/" rel="nofollow">Weebly App</a>
p519
sg109
(lp520
g3
(g111
g5
Ntp521
Rp522
(dp523
g115
Vhttp://t.co/2MF2SYy873
p524
sg117
Vhttp://www.annieseatonromance.com
p525
sbasg103
I543191881429970944
sbag3
(g4
g5
Ntp526
Rp527
(dp528
g9
I0
sg10
Nsg11
Nsg12
(lp529
g3
(g14
g5
Ntp530
Rp531
(dp532
g18
V99cents
p533
sbasg32
I00
sg33
g3
(g4
g5
Ntp534
Rp535
(dp536
g9
I1
sg10
Nsg11
Nsg12
(lp537
g3
(g14
g5
Ntp538
Rp539
(dp540
g18
V99cents
p541
sbasg32
I00
sg33
Nsg34
Nsg35
(lp542
sg37
Nsg38
Nsg39
Nsg40
VWed Dec 10 17:00:19 +0000 2014
p543
sg42
Nsg43
I00
sg44
Nsg45
Nsg46
Nsg47
Nsg48
I00
sg49
Nsg50
(lp544
sg52
Nsg53
Nsg54
Nsg55
VNaughty or nice for Santa? What do you want for Christmas?\u000a #99cents . Click here to read.\u000a http://t.co/xDSCvKFQyG  http://t.co/MoMymXxrii
p545
sg57
I00
sg58
Ven
p546
sg60
g3
(g61
g5
Ntp547
Rp548
(dp549
g10
VNorth Carolina
p550
sg66
V333333
p551
sg68
Ven
p552
sg70
Nsg71
I1077
sg72
I2348
sg40
VSat Jan 16 22:37:49 +0000 2010
p553
sg74
I00
sg75
VAuthor of Erotic Contemporary, Paranormal, and Historical Romance. Weekend Photographer. Shared world creator of The Wiccan Haus.
p554
sg77
Vhttps://pbs.twimg.com/profile_images/533242008236601344/NZvp1vit_normal.jpeg
p555
sg79
I1398
sg80
I518
sg81
Nsg82
Nsg83
I00
sg84
Vhttps://pbs.twimg.com/profile_banners/105611831/1415969748
p556
sg86
I00
sg87
I01
sg88
V74538A
p557
sg90
I00
sg91
I00
sg92
Vhttp://pbs.twimg.com/profile_background_images/586840913/suzttpo8ci1syn7scoeu.jpeg
p558
sg94
VDominiEastwick
p559
sg96
I46
sg97
VDominique Eastwick
p560
sg99
VC0DFEC
p561
sg101
Vhttp://t.co/ox1zKMlGFo
p562
sg103
I105611831
sg104
V022330
p563
sbsg106
I3
sg107
V<a href="https://www.thunderclap.it" rel="nofollow">Thunderclap</a>
p564
sg109
(lp565
g3
(g111
g5
Ntp566
Rp567
(dp568
g115
Vhttp://t.co/xDSCvKFQyG
p569
sg117
Vhttp://amzn.to/14IU3yc
p570
sbag3
(g111
g5
Ntp571
Rp572
(dp573
g115
Vhttp://t.co/MoMymXxrii
p574
sg117
Vhttp://thndr.it/1rj1QYc
p575
sbasg103
I542725511513137152
sbsg34
Nsg35
(lp576
sg37
Nsg38
Nsg39
Nsg40
VThu Dec 11 00:24:03 +0000 2014
p577
sg42
Nsg43
I00
sg44
Nsg45
Nsg46
Nsg47
Nsg48
I00
sg49
Nsg50
(lp578
g3
(g61
g5
Ntp579
Rp580
(dp581
g10
Nsg66
Nsg68
Nsg70
Nsg71
Nsg72
Nsg40
Nsg74
Nsg75
Nsg77
Nsg79
Nsg80
Nsg81
Nsg82
Nsg83
Nsg84
Nsg86
Nsg87
Nsg88
Nsg90
Nsg91
Nsg92
Nsg94
VDominiEastwick
p582
sg96
Nsg97
VDominique Eastwick
p583
sg99
Nsg101
Nsg103
I105611831
sg104
Nsbasg52
Nsg53
Nsg54
Nsg55
VRT @DominiEastwick: Naughty or nice for Santa? What do you want for Christmas?\u000a #99cents . Click here to read.\u000a http://t.co/xDSCvKFQyG  htt\u2026
p584
sg57
I00
sg58
Ven
p585
sg60
g3
(g61
g5
Ntp586
Rp587
(dp588
g10
VCoffs coast
p589
sg66
V333333
p590
sg68
Ven
p591
sg70
Nsg71
I3314
sg72
I5776
sg40
VTue Jun 07 09:16:35 +0000 2011
p592
sg74
I00
sg75
VNew release Capturing the Pirate's Heart  http://t.co/o5SduPkYVo
p593
sg77
Vhttps://pbs.twimg.com/profile_images/439267523326771201/cdv2PJ4H_normal.jpeg
p594
sg79
I1476
sg80
I539
sg81
Nsg82
Nsg83
I00
sg84
Vhttps://pbs.twimg.com/profile_banners/312551628/1416283410
p595
sg86
I00
sg87
I01
sg88
V4A913C
p596
sg90
I00
sg91
I00
sg92
Vhttp://pbs.twimg.com/profile_background_images/534556255382032384/gdX1dG6J.jpeg
p597
sg94
Vannieseaton26
p598
sg96
I148
sg97
VAnnie Seaton
p599
sg99
VDDEEF6
p600
sg101
Vhttp://t.co/G0sor7AJqj
p601
sg103
I312551628
sg104
V4A913C
p602
sbsg106
I3
sg107
V<a href="http://twitter.com" rel="nofollow">Twitter Web Client</a>
p603
sg109
(lp604
g3
(g111
g5
Ntp605
Rp606
(dp607
g115
Vhttp://t.co/xDSCvKFQyG
p608
sg117
Vhttp://amzn.to/14IU3yc
p609
sbag3
(g111
g5
Ntp610
Rp611
(dp612
g115
Vhttp://t.co/MoMymXxrii
p613
sg117
Vhttp://thndr.it/1rj1QYc
p614
sbasg103
I542837177139200001
sbag3
(g4
g5
Ntp615
Rp616
(dp617
g9
I0
sg10
Nsg11
Nsg12
(lp618
g3
(g14
g5
Ntp619
Rp620
(dp621
g18
V99cents
p622
sbasg32
I00
sg33
Nsg34
Nsg35
(lp623
sg37
Nsg38
Nsg39
Nsg40
VWed Dec 10 17:00:43 +0000 2014
p624
sg42
Nsg43
I00
sg44
Nsg45
Nsg46
Nsg47
Nsg48
I00
sg49
Nsg50
(lp625
sg52
Nsg53
Nsg54
Nsg55
VNaughty or nice for Santa? What do you want for Christmas?\u000a #99cents . Click here to read.\u000a http://t.co/Ou07E5We1V  http://t.co/tOsW9hnn8T
p626
sg57
I00
sg58
Ven
p627
sg60
g3
(g61
g5
Ntp628
Rp629
(dp630
g10
VCoffs coast
p631
sg66
V333333
p632
sg68
Ven
p633
sg70
Nsg71
I3314
sg72
I5776
sg40
VTue Jun 07 09:16:35 +0000 2011
p634
sg74
I00
sg75
VNew release Capturing the Pirate's Heart  http://t.co/o5SduPkYVo
p635
sg77
Vhttps://pbs.twimg.com/profile_images/439267523326771201/cdv2PJ4H_normal.jpeg
p636
sg79
I1476
sg80
I539
sg81
Nsg82
Nsg83
I00
sg84
Vhttps://pbs.twimg.com/profile_banners/312551628/1416283410
p637
sg86
I00
sg87
I01
sg88
V4A913C
p638
sg90
I00
sg91
I00
sg92
Vhttp://pbs.twimg.com/profile_background_images/534556255382032384/gdX1dG6J.jpeg
p639
sg94
Vannieseaton26
p640
sg96
I148
sg97
VAnnie Seaton
p641
sg99
VDDEEF6
p642
sg101
Vhttp://t.co/G0sor7AJqj
p643
sg103
I312551628
sg104
V4A913C
p644
sbsg106
I0
sg107
V<a href="https://www.thunderclap.it" rel="nofollow">Thunderclap</a>
p645
sg109
(lp646
g3
(g111
g5
Ntp647
Rp648
(dp649
g115
Vhttp://t.co/Ou07E5We1V
p650
sg117
Vhttp://amzn.to/14IU3yc
p651
sbag3
(g111
g5
Ntp652
Rp653
(dp654
g115
Vhttp://t.co/tOsW9hnn8T
p655
sg117
Vhttp://thndr.it/1rj1QYc
p656
sbasg103
I542725608904867840
sbag3
(g4
g5
Ntp657
Rp658
(dp659
g9
I0
sg10
Nsg11
Nsg12
(lp660
g3
(g14
g5
Ntp661
Rp662
(dp663
g18
VSignedPaperbacksAndMore
p664
sbag3
(g14
g5
Ntp665
Rp666
(dp667
g18
VTheLoveSeries
p668
sbag3
(g14
g5
Ntp669
Rp670
(dp671
g18
VTheFindingSeries
p672
sbag3
(g14
g5
Ntp673
Rp674
(dp675
g18
VHolidayGiveaway
p676
sbasg32
I00
sg33
Nsg34
Nsg35
(lp677
sg37
Nsg38
Nsg39
Nsg40
VWed Dec 10 16:00:36 +0000 2014
p678
sg42
Nsg43
I00
sg44
Nsg45
Nsg46
Nsg47
Nsg48
I00
sg49
Nsg50
(lp679
sg52
Nsg53
Nsg54
Nsg55
VAwesome Holiday Giveaway! Check it out!\u000a#SignedPaperbacksAndMore #TheLoveSeries #TheFindingSeries #HolidayGiveaway http://t.co/B0d7q6sUbe
p680
sg57
I00
sg58
Ven
p681
sg60
g3
(g61
g5
Ntp682
Rp683
(dp684
g10
VCoffs coast
p685
sg66
V333333
p686
sg68
Ven
p687
sg70
Nsg71
I3314
sg72
I5776
sg40
VTue Jun 07 09:16:35 +0000 2011
p688
sg74
I00
sg75
VNew release Capturing the Pirate's Heart  http://t.co/o5SduPkYVo
p689
sg77
Vhttps://pbs.twimg.com/profile_images/439267523326771201/cdv2PJ4H_normal.jpeg
p690
sg79
I1476
sg80
I539
sg81
Nsg82
Nsg83
I00
sg84
Vhttps://pbs.twimg.com/profile_banners/312551628/1416283410
p691
sg86
I00
sg87
I01
sg88
V4A913C
p692
sg90
I00
sg91
I00
sg92
Vhttp://pbs.twimg.com/profile_background_images/534556255382032384/gdX1dG6J.jpeg
p693
sg94
Vannieseaton26
p694
sg96
I148
sg97
VAnnie Seaton
p695
sg99
VDDEEF6
p696
sg101
Vhttp://t.co/G0sor7AJqj
p697
sg103
I312551628
sg104
V4A913C
p698
sbsg106
I0
sg107
V<a href="https://www.thunderclap.it" rel="nofollow">Thunderclap</a>
p699
sg109
(lp700
g3
(g111
g5
Ntp701
Rp702
(dp703
g115
Vhttp://t.co/B0d7q6sUbe
p704
sg117
Vhttp://thndr.it/1CMP4f8
p705
sbasg103
I542710481417691136
sbag3
(g4
g5
Ntp706
Rp707
(dp708
g9
I1
sg10
Nsg11
Nsg12
(lp709
sg32
I00
sg33
Nsg34
Nsg35
(lp710
sg37
Nsg38
Nsg39
Nsg40
VWed Dec 10 11:54:25 +0000 2014
p711
sg42
Nsg43
I00
sg44
Nsg45
Nsg46
Nsg47
Nsg48
I00
sg49
Nsg50
(lp712
sg52
Nsg53
Nsg54
Nsg55
VSlowly, silently, now the moon\u000aWalks the night in her silver shoon...http://t.co/VVTv7GVybk
p713
sg57
I00
sg58
Ven
p714
sg60
g3
(g61
g5
Ntp715
Rp716
(dp717
g10
VCoffs coast
p718
sg66
V333333
p719
sg68
Ven
p720
sg70
Nsg71
I3314
sg72
I5776
sg40
VTue Jun 07 09:16:35 +0000 2011
p721
sg74
I00
sg75
VNew release Capturing the Pirate's Heart  http://t.co/o5SduPkYVo
p722
sg77
Vhttps://pbs.twimg.com/profile_images/439267523326771201/cdv2PJ4H_normal.jpeg
p723
sg79
I1476
sg80
I539
sg81
Nsg82
Nsg83
I00
sg84
Vhttps://pbs.twimg.com/profile_banners/312551628/1416283410
p724
sg86
I00
sg87
I01
sg88
V4A913C
p725
sg90
I00
sg91
I00
sg92
Vhttp://pbs.twimg.com/profile_background_images/534556255382032384/gdX1dG6J.jpeg
p726
sg94
Vannieseaton26
p727
sg96
I148
sg97
VAnnie Seaton
p728
sg99
VDDEEF6
p729
sg101
Vhttp://t.co/G0sor7AJqj
p730
sg103
I312551628
sg104
V4A913C
p731
sbsg106
I1
sg107
V<a href="http://twitter.com" rel="nofollow">Twitter Web Client</a>
p732
sg109
(lp733
g3
(g111
g5
Ntp734
Rp735
(dp736
g115
Vhttp://t.co/VVTv7GVybk
p737
sg117
Vhttp://amzn.to/1GcpXR3
p738
sbasg103
I542648529294880768
sbag3
(g4
g5
Ntp739
Rp740
(dp741
g9
I0
sg10
Nsg11
Nsg12
(lp742
sg32
I00
sg33
Nsg34
Nsg35
(lp743
sg37
Nsg38
Nsg39
Nsg40
VWed Dec 10 09:44:18 +0000 2014
p744
sg42
Nsg43
I00
sg44
Nsg45
Nsg46
Nsg47
Nsg48
I00
sg49
Nsg50
(lp745
sg52
Nsg53
Nsg54
Nsg55
VSo look what's ***99c*** ready for the launch party tomorrow...\u000ahttp://t.co/VVTv7GVybk
p746
sg57
I00
sg58
Ven
p747
sg60
g3
(g61
g5
Ntp748
Rp749
(dp750
g10
VCoffs coast
p751
sg66
V333333
p752
sg68
Ven
p753
sg70
Nsg71
I3314
sg72
I5776
sg40
VTue Jun 07 09:16:35 +0000 2011
p754
sg74
I00
sg75
VNew release Capturing the Pirate's Heart  http://t.co/o5SduPkYVo
p755
sg77
Vhttps://pbs.twimg.com/profile_images/439267523326771201/cdv2PJ4H_normal.jpeg
p756
sg79
I1476
sg80
I539
sg81
Nsg82
Nsg83
I00
sg84
Vhttps://pbs.twimg.com/profile_banners/312551628/1416283410
p757
sg86
I00
sg87
I01
sg88
V4A913C
p758
sg90
I00
sg91
I00
sg92
Vhttp://pbs.twimg.com/profile_background_images/534556255382032384/gdX1dG6J.jpeg
p759
sg94
Vannieseaton26
p760
sg96
I148
sg97
VAnnie Seaton
p761
sg99
VDDEEF6
p762
sg101
Vhttp://t.co/G0sor7AJqj
p763
sg103
I312551628
sg104
V4A913C
p764
sbsg106
I1
sg107
V<a href="http://twitter.com" rel="nofollow">Twitter Web Client</a>
p765
sg109
(lp766
g3
(g111
g5
Ntp767
Rp768
(dp769
g115
Vhttp://t.co/VVTv7GVybk
p770
sg117
Vhttp://amzn.to/1GcpXR3
p771
sbasg103
I542615782547394560
sbag3
(g4
g5
Ntp772
Rp773
(dp774
g9
I0
sg10
Nsg11
Nsg12
(lp775
g3
(g14
g5
Ntp776
Rp777
(dp778
g18
Vmystery
p779
sbag3
(g14
g5
Ntp780
Rp781
(dp782
g18
Vsale
p783
sbag3
(g14
g5
Ntp784
Rp785
(dp786
g18
VMustRead
p787
sbag3
(g14
g5
Ntp788
Rp789
(dp790
g18
VReadTuesday
p791
sbasg32
I00
sg33
Nsg34
Nsg35
(lp792
sg37
Nsg38
Nsg39
Nsg40
VTue Dec 09 17:00:32 +0000 2014
p793
sg42
Nsg43
I00
sg44
Nsg45
Nsg46
Nsg47
Nsg48
I00
sg49
Nsg50
(lp794
sg52
Nsg53
Nsg54
Nsg55
VBrilliant Disguise A Charlie McClung Mystery Dec. 9th - One Day Only - 99 cents #mystery #sale #MustRead #ReadTuesday http://t.co/rHFMp3TDLA
p795
sg57
I00
sg58
Ven
p796
sg60
g3
(g61
g5
Ntp797
Rp798
(dp799
g10
VCoffs coast
p800
sg66
V333333
p801
sg68
Ven
p802
sg70
Nsg71
I3314
sg72
I5776
sg40
VTue Jun 07 09:16:35 +0000 2011
p803
sg74
I00
sg75
VNew release Capturing the Pirate's Heart  http://t.co/o5SduPkYVo
p804
sg77
Vhttps://pbs.twimg.com/profile_images/439267523326771201/cdv2PJ4H_normal.jpeg
p805
sg79
I1476
sg80
I539
sg81
Nsg82
Nsg83
I00
sg84
Vhttps://pbs.twimg.com/profile_banners/312551628/1416283410
p806
sg86
I00
sg87
I01
sg88
V4A913C
p807
sg90
I00
sg91
I00
sg92
Vhttp://pbs.twimg.com/profile_background_images/534556255382032384/gdX1dG6J.jpeg
p808
sg94
Vannieseaton26
p809
sg96
I148
sg97
VAnnie Seaton
p810
sg99
VDDEEF6
p811
sg101
Vhttp://t.co/G0sor7AJqj
p812
sg103
I312551628
sg104
V4A913C
p813
sbsg106
I0
sg107
V<a href="https://www.thunderclap.it" rel="nofollow">Thunderclap</a>
p814
sg109
(lp815
g3
(g111
g5
Ntp816
Rp817
(dp818
g115
Vhttp://t.co/rHFMp3TDLA
p819
sg117
Vhttp://thndr.it/1yg918x
p820
sbasg103
I542363174407008257
sbag3
(g4
g5
Ntp821
Rp822
(dp823
g9
I1
sg10
Nsg11
Nsg12
(lp824
g3
(g14
g5
Ntp825
Rp826
(dp827
g18
Vreleasedayblitz
p828
sbag3
(g14
g5
Ntp829
Rp830
(dp831
g18
Vamreading
p832
sbag3
(g14
g5
Ntp833
Rp834
(dp835
g18
Vfantasy
p836
sbag3
(g14
g5
Ntp837
Rp838
(dp839
g18
Vsciencefiction
p840
sbag3
(g14
g5
Ntp841
Rp842
(dp843
g18
Vparanormal
p844
sbag3
(g14
g5
Ntp845
Rp846
(dp847
g18
VPNR
p848
sbag3
(g14
g5
Ntp849
Rp850
(dp851
g18
Vmythology
p852
sbasg32
I00
sg33
Nsg34
Nsg35
(lp853
sg37
Nsg38
Nsg39
Nsg40
VTue Dec 09 17:00:26 +0000 2014
p854
sg42
Nsg43
I00
sg44
Nsg45
Nsg46
Nsg47
Nsg48
I00
sg49
Nsg50
(lp855
sg52
Nsg53
Nsg54
Nsg55
VRT #releasedayblitz For All in the Hope #amreading #fantasy #sciencefiction #paranormal #PNR #mythology http://t.co/WWw2SltI7d
p856
sg57
I00
sg58
Ven
p857
sg60
g3
(g61
g5
Ntp858
Rp859
(dp860
g10
VCoffs coast
p861
sg66
V333333
p862
sg68
Ven
p863
sg70
Nsg71
I3314
sg72
I5776
sg40
VTue Jun 07 09:16:35 +0000 2011
p864
sg74
I00
sg75
VNew release Capturing the Pirate's Heart  http://t.co/o5SduPkYVo
p865
sg77
Vhttps://pbs.twimg.com/profile_images/439267523326771201/cdv2PJ4H_normal.jpeg
p866
sg79
I1476
sg80
I539
sg81
Nsg82
Nsg83
I00
sg84
Vhttps://pbs.twimg.com/profile_banners/312551628/1416283410
p867
sg86
I00
sg87
I01
sg88
V4A913C
p868
sg90
I00
sg91
I00
sg92
Vhttp://pbs.twimg.com/profile_background_images/534556255382032384/gdX1dG6J.jpeg
p869
sg94
Vannieseaton26
p870
sg96
I148
sg97
VAnnie Seaton
p871
sg99
VDDEEF6
p872
sg101
Vhttp://t.co/G0sor7AJqj
p873
sg103
I312551628
sg104
V4A913C
p874
sbsg106
I0
sg107
V<a href="https://www.thunderclap.it" rel="nofollow">Thunderclap</a>
p875
sg109
(lp876
g3
(g111
g5
Ntp877
Rp878
(dp879
g115
Vhttp://t.co/WWw2SltI7d
p880
sg117
Vhttp://thndr.it/1EtGSvR
p881
sbasg103
I542363149094379520
sbag3
(g4
g5
Ntp882
Rp883
(dp884
g9
I0
sg10
Nsg11
Nsg12
(lp885
sg32
I00
sg33
Nsg34
Nsg35
(lp886
sg37
Nsg38
Nsg39
Nsg40
VTue Dec 09 17:00:19 +0000 2014
p887
sg42
Nsg43
I00
sg44
Nsg45
Nsg46
Nsg47
Nsg48
I00
sg49
Nsg50
(lp888
sg52
Nsg53
Nsg54
Nsg55
VWhen fire meets a force of nature an Incandescent is born.\u000aGet the explosive new book from Omnific Publishing!    http://t.co/YmBXjFTfJs
p889
sg57
I00
sg58
Ven
p890
sg60
g3
(g61
g5
Ntp891
Rp892
(dp893
g10
VCoffs coast
p894
sg66
V333333
p895
sg68
Ven
p896
sg70
Nsg71
I3314
sg72
I5776
sg40
VTue Jun 07 09:16:35 +0000 2011
p897
sg74
I00
sg75
VNew release Capturing the Pirate's Heart  http://t.co/o5SduPkYVo
p898
sg77
Vhttps://pbs.twimg.com/profile_images/439267523326771201/cdv2PJ4H_normal.jpeg
p899
sg79
I1476
sg80
I539
sg81
Nsg82
Nsg83
I00
sg84
Vhttps://pbs.twimg.com/profile_banners/312551628/1416283410
p900
sg86
I00
sg87
I01
sg88
V4A913C
p901
sg90
I00
sg91
I00
sg92
Vhttp://pbs.twimg.com/profile_background_images/534556255382032384/gdX1dG6J.jpeg
p902
sg94
Vannieseaton26
p903
sg96
I148
sg97
VAnnie Seaton
p904
sg99
VDDEEF6
p905
sg101
Vhttp://t.co/G0sor7AJqj
p906
sg103
I312551628
sg104
V4A913C
p907
sbsg106
I0
sg107
V<a href="https://www.thunderclap.it" rel="nofollow">Thunderclap</a>
p908
sg109
(lp909
g3
(g111
g5
Ntp910
Rp911
(dp912
g115
Vhttp://t.co/YmBXjFTfJs
p913
sg117
Vhttp://thndr.it/1BMT26O
p914
sbasg103
I542363123429425152
sbag3
(g4
g5
Ntp915
Rp916
(dp917
g9
I0
sg10
Nsg11
Nsg12
(lp918
sg32
I00
sg33
g3
(g4
g5
Ntp919
Rp920
(dp921
g9
I1
sg10
Nsg11
Nsg12
(lp922
sg32
I00
sg33
Nsg34
Nsg35
(lp923
sg37
Nsg38
Nsg39
Nsg40
VMon Dec 08 20:41:30 +0000 2014
p924
sg42
Nsg43
I00
sg44
Nsg45
Nsg46
Nsg47
Nsg48
I00
sg49
Nsg50
(lp925
g3
(g61
g5
Ntp926
Rp927
(dp928
g10
Nsg66
Nsg68
Nsg70
Nsg71
Nsg72
Nsg40
Nsg74
Nsg75
Nsg77
Nsg79
Nsg80
Nsg81
Nsg82
Nsg83
Nsg84
Nsg86
Nsg87
Nsg88
Nsg90
Nsg91
Nsg92
Nsg94
VAusRomToday
p929
sg96
Nsg97
VAusRomToday
p930
sg99
Nsg101
Nsg103
I2588839940
sg104
Nsbag3
(g61
g5
Ntp931
Rp932
(dp933
g10
Nsg66
Nsg68
Nsg70
Nsg71
Nsg72
Nsg40
Nsg74
Nsg75
Nsg77
Nsg79
Nsg80
Nsg81
Nsg82
Nsg83
Nsg84
Nsg86
Nsg87
Nsg88
Nsg90
Nsg91
Nsg92
Nsg94
Vannieseaton26
p934
sg96
Nsg97
VAnnie Seaton
p935
sg99
Nsg101
Nsg103
I312551628
sg104
Nsbasg52
Nsg53
Nsg54
Nsg55
VCHRISTMAS EXTRAVAGANZA: Annie Seaton: http://t.co/UhAZHNEFSu via @AusRomToday @AnnieSeaton26
p936
sg57
I00
sg58
Ves
p937
sg60
g3
(g61
g5
Ntp938
Rp939
(dp940
g10
VBrisbane, Australia
p941
sg66
V333333
p942
sg68
Ven
p943
sg70
VBrisbane
p944
sg71
I3141
sg72
I4419
sg40
VSun May 30 09:35:58 +0000 2010
p945
sg74
I00
sg75
VAustralian author. Published by Etopia Press & Secret Cravings Publishing.
p946
sg77
Vhttps://pbs.twimg.com/profile_images/1740208455/Stone_of_heaven_and_earth_web_size_normal.jpg
p947
sg79
I3387
sg80
I1598
sg81
I36000
sg82
Nsg83
I00
sg84
Vhttps://pbs.twimg.com/profile_banners/149824622/1409265057
p948
sg86
I00
sg87
I01
sg88
V0099CC
p949
sg90
I00
sg91
I00
sg92
Vhttp://abs.twimg.com/images/themes/theme19/bg.gif
p950
sg94
Vnoelle_clark
p951
sg96
I119
sg97
VNoelle Clark
p952
sg99
VF6FFD1
p953
sg101
Vhttp://t.co/DQrHOLWJah
p954
sg103
I149824622
sg104
VFFF04D
p955
sbsg106
I1
sg107
V<a href="https://dev.twitter.com/docs/tfw" rel="nofollow">Twitter for Websites</a>
p956
sg109
(lp957
g3
(g111
g5
Ntp958
Rp959
(dp960
g115
Vhttp://t.co/UhAZHNEFSu
p961
sg117
Vhttp://wp.me/p3lYHq-1mw
p962
sbasg103
I542056397316177920
sbsg34
Nsg35
(lp963
sg37
Nsg38
Nsg39
Nsg40
VTue Dec 09 06:19:41 +0000 2014
p964
sg42
Nsg43
I00
sg44
Nsg45
Nsg46
Nsg47
Nsg48
I00
sg49
Nsg50
(lp965
g3
(g61
g5
Ntp966
Rp967
(dp968
g10
Nsg66
Nsg68
Nsg70
Nsg71
Nsg72
Nsg40
Nsg74
Nsg75
Nsg77
Nsg79
Nsg80
Nsg81
Nsg82
Nsg83
Nsg84
Nsg86
Nsg87
Nsg88
Nsg90
Nsg91
Nsg92
Nsg94
Vnoelle_clark
p969
sg96
Nsg97
VNoelle Clark
p970
sg99
Nsg101
Nsg103
I149824622
sg104
Nsbag3
(g61
g5
Ntp971
Rp972
(dp973
g10
Nsg66
Nsg68
Nsg70
Nsg71
Nsg72
Nsg40
Nsg74
Nsg75
Nsg77
Nsg79
Nsg80
Nsg81
Nsg82
Nsg83
Nsg84
Nsg86
Nsg87
Nsg88
Nsg90
Nsg91
Nsg92
Nsg94
VAusRomToday
p974
sg96
Nsg97
VAusRomToday
p975
sg99
Nsg101
Nsg103
I2588839940
sg104
Nsbag3
(g61
g5
Ntp976
Rp977
(dp978
g10
Nsg66
Nsg68
Nsg70
Nsg71
Nsg72
Nsg40
Nsg74
Nsg75
Nsg77
Nsg79
Nsg80
Nsg81
Nsg82
Nsg83
Nsg84
Nsg86
Nsg87
Nsg88
Nsg90
Nsg91
Nsg92
Nsg94
Vannieseaton26
p979
sg96
Nsg97
VAnnie Seaton
p980
sg99
Nsg101
Nsg103
I312551628
sg104
Nsbasg52
Nsg53
Nsg54
Nsg55
VRT @noelle_clark: CHRISTMAS EXTRAVAGANZA: Annie Seaton: http://t.co/UhAZHNEFSu via @AusRomToday @AnnieSeaton26
p981
sg57
I00
sg58
Ves
p982
sg60
g3
(g61
g5
Ntp983
Rp984
(dp985
g10
VCoffs coast
p986
sg66
V333333
p987
sg68
Ven
p988
sg70
Nsg71
I3314
sg72
I5776
sg40
VTue Jun 07 09:16:35 +0000 2011
p989
sg74
I00
sg75
VNew release Capturing the Pirate's Heart  http://t.co/o5SduPkYVo
p990
sg77
Vhttps://pbs.twimg.com/profile_images/439267523326771201/cdv2PJ4H_normal.jpeg
p991
sg79
I1476
sg80
I539
sg81
Nsg82
Nsg83
I00
sg84
Vhttps://pbs.twimg.com/profile_banners/312551628/1416283410
p992
sg86
I00
sg87
I01
sg88
V4A913C
p993
sg90
I00
sg91
I00
sg92
Vhttp://pbs.twimg.com/profile_background_images/534556255382032384/gdX1dG6J.jpeg
p994
sg94
Vannieseaton26
p995
sg96
I148
sg97
VAnnie Seaton
p996
sg99
VDDEEF6
p997
sg101
Vhttp://t.co/G0sor7AJqj
p998
sg103
I312551628
sg104
V4A913C
p999
sbsg106
I1
sg107
V<a href="http://twitter.com" rel="nofollow">Twitter Web Client</a>
p1000
sg109
(lp1001
g3
(g111
g5
Ntp1002
Rp1003
(dp1004
g115
Vhttp://t.co/UhAZHNEFSu
p1005
sg117
Vhttp://wp.me/p3lYHq-1mw
p1006
sbasg103
I542201901823979520
sbaa.