(lp0
S'RobTomlinsonx'
p1
a(lp2
ccopy_reg
_reconstructor
p3
(ctwitter
Status
p4
c__builtin__
object
p5
Ntp6
Rp7
(dp8
S'_favorite_count'
p9
I0
sS'_location'
p10
NsS'_withheld_scope'
p11
NsS'hashtags'
p12
(lp13
sS'_truncated'
p14
I00
sS'_retweeted_status'
p15
NsS'_withheld_copyright'
p16
NsS'media'
p17
(lp18
sS'_place'
p19
NsS'_contributors'
p20
NsS'_current_user_retweet'
p21
NsS'_created_at'
p22
VWed Dec 10 22:26:35 +0000 2014
p23
sS'_scopes'
p24
NsS'_possibly_sensitive'
p25
NsS'_in_reply_to_screen_name'
p26
NsS'_coordinates'
p27
NsS'_in_reply_to_user_id'
p28
NsS'_geo'
p29
NsS'_favorited'
p30
I00
sS'_withheld_in_countries'
p31
NsS'user_mentions'
p32
(lp33
sS'_now'
p34
NsS'_id_str'
p35
V542807618910453762
p36
sS'_in_reply_to_status_id'
p37
NsS'_text'
p38
VHow are the VS models even real\U0001f63b
p39
sS'_retweeted'
p40
I00
sS'lang'
p41
Ven
p42
sS'_user'
p43
g3
(ctwitter
User
p44
g5
Ntp45
Rp46
(dp47
g10
V
p48
sS'_profile_text_color'
p49
V333333
p50
sS'_lang'
p51
Ven-gb
p52
sS'_time_zone'
p53
NsS'_followers_count'
p54
I226
sS'_statuses_count'
p55
I627
sg22
VThu Sep 19 20:01:50 +0000 2013
p56
sS'_verified'
p57
I00
sS'_description'
p58
g48
sS'_profile_image_url'
p59
Vhttps://pbs.twimg.com/profile_images/530402348406149120/Vjxa5urz_normal.jpeg
p60
sS'_friends_count'
p61
I379
sS'_favourites_count'
p62
I1022
sS'_utc_offset'
p63
NsS'_status'
p64
NsS'_protected'
p65
I00
sS'_profile_banner_url'
p66
Vhttps://pbs.twimg.com/profile_banners/1884197844/1418250544
p67
sS'_notifications'
p68
I00
sS'_profile_background_tile'
p69
I00
sS'_profile_link_color'
p70
V0084B4
p71
sS'_geo_enabled'
p72
I00
sS'_contributors_enabled'
p73
I00
sS'_profile_background_image_url'
p74
Vhttp://abs.twimg.com/images/themes/theme1/bg.png
p75
sS'_screen_name'
p76
VRobTomlinsonx
p77
sS'_listed_count'
p78
I0
sS'_name'
p79
VRobyn
p80
sS'_profile_sidebar_fill_color'
p81
VDDEEF6
p82
sS'_url'
p83
NsS'_id'
p84
I1884197844
sS'_profile_background_color'
p85
VC0DEED
p86
sbsS'_retweet_count'
p87
I0
sS'_source'
p88
V<a href="http://twitter.com/download/iphone" rel="nofollow">Twitter for iPhone</a>
p89
sS'urls'
p90
(lp91
sg84
I542807618910453762
sbag3
(g4
g5
Ntp92
Rp93
(dp94
g9
I0
sg10
Nsg11
Nsg12
(lp95
sg14
I00
sg15
Nsg16
Nsg17
(lp96
sg19
Nsg20
Nsg21
Nsg22
VWed Dec 10 22:24:48 +0000 2014
p97
sg24
Nsg25
Nsg26
Nsg27
Nsg28
Nsg29
Nsg30
I00
sg31
Nsg32
(lp98
sg34
Nsg35
V542807167418781696
p99
sg37
Nsg38
VThe victoria secret fashion shows depress me more and more each year\U0001f623
p100
sg40
I00
sg41
Ven
p101
sg43
g3
(g44
g5
Ntp102
Rp103
(dp104
g10
g48
sg49
V333333
p105
sg51
Ven-gb
p106
sg53
Nsg54
I226
sg55
I627
sg22
VThu Sep 19 20:01:50 +0000 2013
p107
sg57
I00
sg58
g48
sg59
Vhttps://pbs.twimg.com/profile_images/530402348406149120/Vjxa5urz_normal.jpeg
p108
sg61
I379
sg62
I1022
sg63
Nsg64
Nsg65
I00
sg66
Vhttps://pbs.twimg.com/profile_banners/1884197844/1418250544
p109
sg68
I00
sg69
I00
sg70
V0084B4
p110
sg72
I00
sg73
I00
sg74
Vhttp://abs.twimg.com/images/themes/theme1/bg.png
p111
sg76
VRobTomlinsonx
p112
sg78
I0
sg79
VRobyn
p113
sg81
VDDEEF6
p114
sg83
Nsg84
I1884197844
sg85
VC0DEED
p115
sbsg87
I0
sg88
V<a href="http://twitter.com/download/iphone" rel="nofollow">Twitter for iPhone</a>
p116
sg90
(lp117
sg84
I542807167418781696
sbag3
(g4
g5
Ntp118
Rp119
(dp120
g9
I0
sg10
Nsg11
Nsg12
(lp121
sg14
I00
sg15
Nsg16
Nsg17
(lp122
sg19
Nsg20
Nsg21
Nsg22
VTue Dec 09 21:24:17 +0000 2014
p123
sg24
Nsg25
I00
sg26
Nsg27
Nsg28
Nsg29
Nsg30
I00
sg31
Nsg32
(lp124
sg34
Nsg35
V542429550878011392
p125
sg37
Nsg38
VBY FAR ONE OF THE BEST DAYS OF MY LIFE!!! GOT TO MEET 5sos\U0001f46c\U0001f389\U0001f498 gutted we weren't aloud to take\u2026 http://t.co/LPwphUz1gI
p126
sg40
I00
sg41
Ven
p127
sg43
g3
(g44
g5
Ntp128
Rp129
(dp130
g10
g48
sg49
V333333
p131
sg51
Ven-gb
p132
sg53
Nsg54
I226
sg55
I627
sg22
VThu Sep 19 20:01:50 +0000 2013
p133
sg57
I00
sg58
g48
sg59
Vhttps://pbs.twimg.com/profile_images/530402348406149120/Vjxa5urz_normal.jpeg
p134
sg61
I379
sg62
I1022
sg63
Nsg64
Nsg65
I00
sg66
Vhttps://pbs.twimg.com/profile_banners/1884197844/1418250544
p135
sg68
I00
sg69
I00
sg70
V0084B4
p136
sg72
I00
sg73
I00
sg74
Vhttp://abs.twimg.com/images/themes/theme1/bg.png
p137
sg76
VRobTomlinsonx
p138
sg78
I0
sg79
VRobyn
p139
sg81
VDDEEF6
p140
sg83
Nsg84
I1884197844
sg85
VC0DEED
p141
sbsg87
I0
sg88
V<a href="http://instagram.com" rel="nofollow">Instagram</a>
p142
sg90
(lp143
g3
(ctwitter
Url
p144
g5
Ntp145
Rp146
(dp147
S'url'
p148
Vhttp://t.co/LPwphUz1gI
p149
sS'expanded_url'
p150
Vhttp://instagram.com/p/wZnVfjt9CF/
p151
sbasg84
I542429550878011392
sbag3
(g4
g5
Ntp152
Rp153
(dp154
g9
I0
sg10
Nsg11
Nsg12
(lp155
sg14
I00
sg15
Nsg16
Nsg17
(lp156
sg19
Nsg20
Nsg21
Nsg22
VTue Dec 09 19:54:11 +0000 2014
p157
sg24
Nsg25
Nsg26
Nsg27
Nsg28
Nsg29
Nsg30
I00
sg31
Nsg32
(lp158
sg34
Nsg35
V542406877540126721
p159
sg37
Nsg38
VCAN OFFICIALLY SAY THAT IVE MET 5SOS
p160
sg40
I00
sg41
Ven
p161
sg43
g3
(g44
g5
Ntp162
Rp163
(dp164
g10
g48
sg49
V333333
p165
sg51
Ven-gb
p166
sg53
Nsg54
I226
sg55
I627
sg22
VThu Sep 19 20:01:50 +0000 2013
p167
sg57
I00
sg58
g48
sg59
Vhttps://pbs.twimg.com/profile_images/530402348406149120/Vjxa5urz_normal.jpeg
p168
sg61
I379
sg62
I1022
sg63
Nsg64
Nsg65
I00
sg66
Vhttps://pbs.twimg.com/profile_banners/1884197844/1418250544
p169
sg68
I00
sg69
I00
sg70
V0084B4
p170
sg72
I00
sg73
I00
sg74
Vhttp://abs.twimg.com/images/themes/theme1/bg.png
p171
sg76
VRobTomlinsonx
p172
sg78
I0
sg79
VRobyn
p173
sg81
VDDEEF6
p174
sg83
Nsg84
I1884197844
sg85
VC0DEED
p175
sbsg87
I0
sg88
V<a href="http://twitter.com/download/iphone" rel="nofollow">Twitter for iPhone</a>
p176
sg90
(lp177
sg84
I542406877540126721
sbag3
(g4
g5
Ntp178
Rp179
(dp180
g9
I0
sg10
Nsg11
Nsg12
(lp181
sg14
I00
sg15
Nsg16
Nsg17
(lp182
sg19
Nsg20
Nsg21
Nsg22
VSat Dec 06 11:37:16 +0000 2014
p183
sg24
Nsg25
Nsg26
Nsg27
Nsg28
Nsg29
Nsg30
I00
sg31
Nsg32
(lp184
sg34
Nsg35
V541194659599753216
p185
sg37
Nsg38
VAway for Christmas and new year\U0001f389\U0001f1fa\U0001f1f8
p186
sg40
I00
sg41
Ven
p187
sg43
g3
(g44
g5
Ntp188
Rp189
(dp190
g10
g48
sg49
V333333
p191
sg51
Ven-gb
p192
sg53
Nsg54
I226
sg55
I627
sg22
VThu Sep 19 20:01:50 +0000 2013
p193
sg57
I00
sg58
g48
sg59
Vhttps://pbs.twimg.com/profile_images/530402348406149120/Vjxa5urz_normal.jpeg
p194
sg61
I379
sg62
I1022
sg63
Nsg64
Nsg65
I00
sg66
Vhttps://pbs.twimg.com/profile_banners/1884197844/1418250544
p195
sg68
I00
sg69
I00
sg70
V0084B4
p196
sg72
I00
sg73
I00
sg74
Vhttp://abs.twimg.com/images/themes/theme1/bg.png
p197
sg76
VRobTomlinsonx
p198
sg78
I0
sg79
VRobyn
p199
sg81
VDDEEF6
p200
sg83
Nsg84
I1884197844
sg85
VC0DEED
p201
sbsg87
I0
sg88
V<a href="http://twitter.com/download/iphone" rel="nofollow">Twitter for iPhone</a>
p202
sg90
(lp203
sg84
I541194659599753216
sbag3
(g4
g5
Ntp204
Rp205
(dp206
g9
I0
sg10
Nsg11
Nsg12
(lp207
sg14
I00
sg15
Nsg16
Nsg17
(lp208
sg19
Nsg20
Nsg21
Nsg22
VTue Dec 02 19:25:23 +0000 2014
p209
sg24
Nsg25
Nsg26
Nsg27
Nsg28
Nsg29
Nsg30
I00
sg31
Nsg32
(lp210
sg34
Nsg35
V539862913637679104
p211
sg37
Nsg38
VWould pay someone to dry my hair for me\U0001f634
p212
sg40
I00
sg41
Ven
p213
sg43
g3
(g44
g5
Ntp214
Rp215
(dp216
g10
g48
sg49
V333333
p217
sg51
Ven-gb
p218
sg53
Nsg54
I226
sg55
I627
sg22
VThu Sep 19 20:01:50 +0000 2013
p219
sg57
I00
sg58
g48
sg59
Vhttps://pbs.twimg.com/profile_images/530402348406149120/Vjxa5urz_normal.jpeg
p220
sg61
I379
sg62
I1022
sg63
Nsg64
Nsg65
I00
sg66
Vhttps://pbs.twimg.com/profile_banners/1884197844/1418250544
p221
sg68
I00
sg69
I00
sg70
V0084B4
p222
sg72
I00
sg73
I00
sg74
Vhttp://abs.twimg.com/images/themes/theme1/bg.png
p223
sg76
VRobTomlinsonx
p224
sg78
I0
sg79
VRobyn
p225
sg81
VDDEEF6
p226
sg83
Nsg84
I1884197844
sg85
VC0DEED
p227
sbsg87
I0
sg88
V<a href="http://twitter.com/download/iphone" rel="nofollow">Twitter for iPhone</a>
p228
sg90
(lp229
sg84
I539862913637679104
sbag3
(g4
g5
Ntp230
Rp231
(dp232
g9
I0
sg10
Nsg11
Nsg12
(lp233
sg14
I00
sg15
Nsg16
Nsg17
(lp234
sg19
Nsg20
Nsg21
Nsg22
VSun Nov 30 18:59:53 +0000 2014
p235
sg24
Nsg25
Nsg26
Nsg27
Nsg28
Nsg29
Nsg30
I00
sg31
Nsg32
(lp236
sg34
Nsg35
V539131721258909696
p237
sg37
Nsg38
VWhere did the weekend go
p238
sg40
I00
sg41
Ven
p239
sg43
g3
(g44
g5
Ntp240
Rp241
(dp242
g10
g48
sg49
V333333
p243
sg51
Ven-gb
p244
sg53
Nsg54
I226
sg55
I627
sg22
VThu Sep 19 20:01:50 +0000 2013
p245
sg57
I00
sg58
g48
sg59
Vhttps://pbs.twimg.com/profile_images/530402348406149120/Vjxa5urz_normal.jpeg
p246
sg61
I379
sg62
I1022
sg63
Nsg64
Nsg65
I00
sg66
Vhttps://pbs.twimg.com/profile_banners/1884197844/1418250544
p247
sg68
I00
sg69
I00
sg70
V0084B4
p248
sg72
I00
sg73
I00
sg74
Vhttp://abs.twimg.com/images/themes/theme1/bg.png
p249
sg76
VRobTomlinsonx
p250
sg78
I0
sg79
VRobyn
p251
sg81
VDDEEF6
p252
sg83
Nsg84
I1884197844
sg85
VC0DEED
p253
sbsg87
I0
sg88
V<a href="http://twitter.com/download/iphone" rel="nofollow">Twitter for iPhone</a>
p254
sg90
(lp255
sg84
I539131721258909696
sbag3
(g4
g5
Ntp256
Rp257
(dp258
g9
I0
sg10
Nsg11
Nsg12
(lp259
sg14
I00
sg15
Nsg16
Nsg17
(lp260
sg19
Nsg20
Nsg21
Nsg22
VSun Nov 30 13:35:37 +0000 2014
p261
sg24
Nsg25
Nsg26
Nsg27
Nsg28
Nsg29
Nsg30
I00
sg31
Nsg32
(lp262
sg34
Nsg35
V539050116800581632
p263
sg37
Nsg38
VMickeys twice upon a Christmas will always be from favourite christmas film\U0001f385\U0001f384\U0001f381
p264
sg40
I00
sg41
Ven
p265
sg43
g3
(g44
g5
Ntp266
Rp267
(dp268
g10
g48
sg49
V333333
p269
sg51
Ven-gb
p270
sg53
Nsg54
I226
sg55
I627
sg22
VThu Sep 19 20:01:50 +0000 2013
p271
sg57
I00
sg58
g48
sg59
Vhttps://pbs.twimg.com/profile_images/530402348406149120/Vjxa5urz_normal.jpeg
p272
sg61
I379
sg62
I1022
sg63
Nsg64
Nsg65
I00
sg66
Vhttps://pbs.twimg.com/profile_banners/1884197844/1418250544
p273
sg68
I00
sg69
I00
sg70
V0084B4
p274
sg72
I00
sg73
I00
sg74
Vhttp://abs.twimg.com/images/themes/theme1/bg.png
p275
sg76
VRobTomlinsonx
p276
sg78
I0
sg79
VRobyn
p277
sg81
VDDEEF6
p278
sg83
Nsg84
I1884197844
sg85
VC0DEED
p279
sbsg87
I0
sg88
V<a href="http://twitter.com/download/iphone" rel="nofollow">Twitter for iPhone</a>
p280
sg90
(lp281
sg84
I539050116800581632
sbag3
(g4
g5
Ntp282
Rp283
(dp284
g9
I2
sg10
Nsg11
Nsg12
(lp285
sg14
I00
sg15
Nsg16
Nsg17
(lp286
sg19
Nsg20
Nsg21
Nsg22
VThu Nov 27 15:55:29 +0000 2014
p287
sg24
Nsg25
Nsg26
Nsg27
Nsg28
Nsg29
Nsg30
I00
sg31
Nsg32
(lp288
sg34
Nsg35
V537998153501650944
p289
sg37
Nsg38
VLove love love daddy day care\u263a\ufe0f
p290
sg40
I00
sg41
Ven
p291
sg43
g3
(g44
g5
Ntp292
Rp293
(dp294
g10
g48
sg49
V333333
p295
sg51
Ven-gb
p296
sg53
Nsg54
I226
sg55
I627
sg22
VThu Sep 19 20:01:50 +0000 2013
p297
sg57
I00
sg58
g48
sg59
Vhttps://pbs.twimg.com/profile_images/530402348406149120/Vjxa5urz_normal.jpeg
p298
sg61
I379
sg62
I1022
sg63
Nsg64
Nsg65
I00
sg66
Vhttps://pbs.twimg.com/profile_banners/1884197844/1418250544
p299
sg68
I00
sg69
I00
sg70
V0084B4
p300
sg72
I00
sg73
I00
sg74
Vhttp://abs.twimg.com/images/themes/theme1/bg.png
p301
sg76
VRobTomlinsonx
p302
sg78
I0
sg79
VRobyn
p303
sg81
VDDEEF6
p304
sg83
Nsg84
I1884197844
sg85
VC0DEED
p305
sbsg87
I0
sg88
V<a href="http://twitter.com/download/iphone" rel="nofollow">Twitter for iPhone</a>
p306
sg90
(lp307
sg84
I537998153501650944
sbag3
(g4
g5
Ntp308
Rp309
(dp310
g9
I0
sg10
Nsg11
Nsg12
(lp311
sg14
I00
sg15
Nsg16
Nsg17
(lp312
sg19
Nsg20
Nsg21
Nsg22
VFri Nov 21 23:49:22 +0000 2014
p313
sg24
Nsg25
Nsg26
Nsg27
Nsg28
Nsg29
Nsg30
I00
sg31
Nsg32
(lp314
sg34
Nsg35
V535943079908622336
p315
sg37
Nsg38
VDesperately need a lie in
p316
sg40
I00
sg41
Ven
p317
sg43
g3
(g44
g5
Ntp318
Rp319
(dp320
g10
g48
sg49
V333333
p321
sg51
Ven-gb
p322
sg53
Nsg54
I226
sg55
I627
sg22
VThu Sep 19 20:01:50 +0000 2013
p323
sg57
I00
sg58
g48
sg59
Vhttps://pbs.twimg.com/profile_images/530402348406149120/Vjxa5urz_normal.jpeg
p324
sg61
I379
sg62
I1022
sg63
Nsg64
Nsg65
I00
sg66
Vhttps://pbs.twimg.com/profile_banners/1884197844/1418250544
p325
sg68
I00
sg69
I00
sg70
V0084B4
p326
sg72
I00
sg73
I00
sg74
Vhttp://abs.twimg.com/images/themes/theme1/bg.png
p327
sg76
VRobTomlinsonx
p328
sg78
I0
sg79
VRobyn
p329
sg81
VDDEEF6
p330
sg83
Nsg84
I1884197844
sg85
VC0DEED
p331
sbsg87
I1
sg88
V<a href="http://twitter.com/download/iphone" rel="nofollow">Twitter for iPhone</a>
p332
sg90
(lp333
sg84
I535943079908622336
sbag3
(g4
g5
Ntp334
Rp335
(dp336
g9
I0
sg10
Nsg11
Nsg12
(lp337
sg14
I00
sg15
Nsg16
Nsg17
(lp338
sg19
Nsg20
Nsg21
Nsg22
VMon Nov 17 18:34:45 +0000 2014
p339
sg24
Nsg25
Nsg26
Nsg27
Nsg28
Nsg29
Nsg30
I00
sg31
Nsg32
(lp340
sg34
Nsg35
V534414352481546241
p341
sg37
Nsg38
VIt's only Monday and I already want this week to be over
p342
sg40
I00
sg41
Ven
p343
sg43
g3
(g44
g5
Ntp344
Rp345
(dp346
g10
g48
sg49
V333333
p347
sg51
Ven-gb
p348
sg53
Nsg54
I226
sg55
I627
sg22
VThu Sep 19 20:01:50 +0000 2013
p349
sg57
I00
sg58
g48
sg59
Vhttps://pbs.twimg.com/profile_images/530402348406149120/Vjxa5urz_normal.jpeg
p350
sg61
I379
sg62
I1022
sg63
Nsg64
Nsg65
I00
sg66
Vhttps://pbs.twimg.com/profile_banners/1884197844/1418250544
p351
sg68
I00
sg69
I00
sg70
V0084B4
p352
sg72
I00
sg73
I00
sg74
Vhttp://abs.twimg.com/images/themes/theme1/bg.png
p353
sg76
VRobTomlinsonx
p354
sg78
I0
sg79
VRobyn
p355
sg81
VDDEEF6
p356
sg83
Nsg84
I1884197844
sg85
VC0DEED
p357
sbsg87
I0
sg88
V<a href="http://twitter.com/download/iphone" rel="nofollow">Twitter for iPhone</a>
p358
sg90
(lp359
sg84
I534414352481546241
sbag3
(g4
g5
Ntp360
Rp361
(dp362
g9
I1
sg10
Nsg11
Nsg12
(lp363
sg14
I00
sg15
Nsg16
Nsg17
(lp364
sg19
Nsg20
Nsg21
Nsg22
VSun Nov 16 21:26:37 +0000 2014
p365
sg24
Nsg25
Nsg26
Nsg27
Nsg28
Nsg29
Nsg30
I00
sg31
Nsg32
(lp366
sg34
Nsg35
V534095218526920704
p367
sg37
Nsg38
VWhat would im a celeb be without ant &amp; dec
p368
sg40
I00
sg41
Ven
p369
sg43
g3
(g44
g5
Ntp370
Rp371
(dp372
g10
g48
sg49
V333333
p373
sg51
Ven-gb
p374
sg53
Nsg54
I226
sg55
I627
sg22
VThu Sep 19 20:01:50 +0000 2013
p375
sg57
I00
sg58
g48
sg59
Vhttps://pbs.twimg.com/profile_images/530402348406149120/Vjxa5urz_normal.jpeg
p376
sg61
I379
sg62
I1022
sg63
Nsg64
Nsg65
I00
sg66
Vhttps://pbs.twimg.com/profile_banners/1884197844/1418250544
p377
sg68
I00
sg69
I00
sg70
V0084B4
p378
sg72
I00
sg73
I00
sg74
Vhttp://abs.twimg.com/images/themes/theme1/bg.png
p379
sg76
VRobTomlinsonx
p380
sg78
I0
sg79
VRobyn
p381
sg81
VDDEEF6
p382
sg83
Nsg84
I1884197844
sg85
VC0DEED
p383
sbsg87
I0
sg88
V<a href="http://twitter.com/download/iphone" rel="nofollow">Twitter for iPhone</a>
p384
sg90
(lp385
sg84
I534095218526920704
sbag3
(g4
g5
Ntp386
Rp387
(dp388
g9
I0
sg10
Nsg11
Nsg12
(lp389
sg14
I00
sg15
Nsg16
Nsg17
(lp390
sg19
Nsg20
Nsg21
Nsg22
VSun Nov 16 12:06:57 +0000 2014
p391
sg24
Nsg25
Nsg26
Nsg27
Nsg28
Nsg29
Nsg30
I00
sg31
Nsg32
(lp392
sg34
Nsg35
V533954373509206016
p393
sg37
Nsg38
VChristmas needs to come quick\U0001f629
p394
sg40
I00
sg41
Ven
p395
sg43
g3
(g44
g5
Ntp396
Rp397
(dp398
g10
g48
sg49
V333333
p399
sg51
Ven-gb
p400
sg53
Nsg54
I226
sg55
I627
sg22
VThu Sep 19 20:01:50 +0000 2013
p401
sg57
I00
sg58
g48
sg59
Vhttps://pbs.twimg.com/profile_images/530402348406149120/Vjxa5urz_normal.jpeg
p402
sg61
I379
sg62
I1022
sg63
Nsg64
Nsg65
I00
sg66
Vhttps://pbs.twimg.com/profile_banners/1884197844/1418250544
p403
sg68
I00
sg69
I00
sg70
V0084B4
p404
sg72
I00
sg73
I00
sg74
Vhttp://abs.twimg.com/images/themes/theme1/bg.png
p405
sg76
VRobTomlinsonx
p406
sg78
I0
sg79
VRobyn
p407
sg81
VDDEEF6
p408
sg83
Nsg84
I1884197844
sg85
VC0DEED
p409
sbsg87
I0
sg88
V<a href="http://twitter.com/download/iphone" rel="nofollow">Twitter for iPhone</a>
p410
sg90
(lp411
sg84
I533954373509206016
sbag3
(g4
g5
Ntp412
Rp413
(dp414
g9
I0
sg10
Nsg11
Nsg12
(lp415
sg14
I00
sg15
Nsg16
Nsg17
(lp416
sg19
Nsg20
Nsg21
Nsg22
VFri Nov 14 17:13:04 +0000 2014
p417
sg24
Nsg25
Nsg26
Nsg27
Nsg28
Nsg29
Nsg30
I00
sg31
Nsg32
(lp418
sg34
Nsg35
V533306632848285696
p419
sg37
Nsg38
VFriday feelin'\U0001f483\U0001f483
p420
sg40
I00
sg41
Ven
p421
sg43
g3
(g44
g5
Ntp422
Rp423
(dp424
g10
g48
sg49
V333333
p425
sg51
Ven-gb
p426
sg53
Nsg54
I226
sg55
I627
sg22
VThu Sep 19 20:01:50 +0000 2013
p427
sg57
I00
sg58
g48
sg59
Vhttps://pbs.twimg.com/profile_images/530402348406149120/Vjxa5urz_normal.jpeg
p428
sg61
I379
sg62
I1022
sg63
Nsg64
Nsg65
I00
sg66
Vhttps://pbs.twimg.com/profile_banners/1884197844/1418250544
p429
sg68
I00
sg69
I00
sg70
V0084B4
p430
sg72
I00
sg73
I00
sg74
Vhttp://abs.twimg.com/images/themes/theme1/bg.png
p431
sg76
VRobTomlinsonx
p432
sg78
I0
sg79
VRobyn
p433
sg81
VDDEEF6
p434
sg83
Nsg84
I1884197844
sg85
VC0DEED
p435
sbsg87
I0
sg88
V<a href="http://twitter.com/download/iphone" rel="nofollow">Twitter for iPhone</a>
p436
sg90
(lp437
sg84
I533306632848285696
sbag3
(g4
g5
Ntp438
Rp439
(dp440
g9
I1
sg10
Nsg11
Nsg12
(lp441
sg14
I00
sg15
Nsg16
Nsg17
(lp442
sg19
Nsg20
Nsg21
Nsg22
VSat Nov 08 22:43:11 +0000 2014
p443
sg24
Nsg25
Nsg26
Nsg27
Nsg28
Nsg29
Nsg30
I00
sg31
Nsg32
(lp444
sg34
Nsg35
V531215384121475073
p445
sg37
Nsg38
VNo way is it Christmas next month\U0001f633\U0001f633
p446
sg40
I00
sg41
Ven
p447
sg43
g3
(g44
g5
Ntp448
Rp449
(dp450
g10
g48
sg49
V333333
p451
sg51
Ven-gb
p452
sg53
Nsg54
I226
sg55
I627
sg22
VThu Sep 19 20:01:50 +0000 2013
p453
sg57
I00
sg58
g48
sg59
Vhttps://pbs.twimg.com/profile_images/530402348406149120/Vjxa5urz_normal.jpeg
p454
sg61
I379
sg62
I1022
sg63
Nsg64
Nsg65
I00
sg66
Vhttps://pbs.twimg.com/profile_banners/1884197844/1418250544
p455
sg68
I00
sg69
I00
sg70
V0084B4
p456
sg72
I00
sg73
I00
sg74
Vhttp://abs.twimg.com/images/themes/theme1/bg.png
p457
sg76
VRobTomlinsonx
p458
sg78
I0
sg79
VRobyn
p459
sg81
VDDEEF6
p460
sg83
Nsg84
I1884197844
sg85
VC0DEED
p461
sbsg87
I0
sg88
V<a href="http://twitter.com/download/iphone" rel="nofollow">Twitter for iPhone</a>
p462
sg90
(lp463
sg84
I531215384121475073
sbag3
(g4
g5
Ntp464
Rp465
(dp466
g9
I1
sg10
Nsg11
Nsg12
(lp467
sg14
I00
sg15
Nsg16
Nsg17
(lp468
sg19
Nsg20
Nsg21
Nsg22
VThu Nov 06 20:50:47 +0000 2014
p469
sg24
Nsg25
Nsg26
Nsg27
Nsg28
Nsg29
Nsg30
I00
sg31
Nsg32
(lp470
sg34
Nsg35
V530462322851323905
p471
sg37
Nsg38
VSpending my thursday night crying my eyes out over the walking dead\U0001f602\U0001f606
p472
sg40
I00
sg41
Ven
p473
sg43
g3
(g44
g5
Ntp474
Rp475
(dp476
g10
g48
sg49
V333333
p477
sg51
Ven-gb
p478
sg53
Nsg54
I226
sg55
I627
sg22
VThu Sep 19 20:01:50 +0000 2013
p479
sg57
I00
sg58
g48
sg59
Vhttps://pbs.twimg.com/profile_images/530402348406149120/Vjxa5urz_normal.jpeg
p480
sg61
I379
sg62
I1022
sg63
Nsg64
Nsg65
I00
sg66
Vhttps://pbs.twimg.com/profile_banners/1884197844/1418250544
p481
sg68
I00
sg69
I00
sg70
V0084B4
p482
sg72
I00
sg73
I00
sg74
Vhttp://abs.twimg.com/images/themes/theme1/bg.png
p483
sg76
VRobTomlinsonx
p484
sg78
I0
sg79
VRobyn
p485
sg81
VDDEEF6
p486
sg83
Nsg84
I1884197844
sg85
VC0DEED
p487
sbsg87
I0
sg88
V<a href="http://twitter.com/download/iphone" rel="nofollow">Twitter for iPhone</a>
p488
sg90
(lp489
sg84
I530462322851323905
sbag3
(g4
g5
Ntp490
Rp491
(dp492
g9
I0
sg10
Nsg11
Nsg12
(lp493
sg14
I00
sg15
Nsg16
Nsg17
(lp494
sg19
Nsg20
Nsg21
Nsg22
VThu Nov 06 16:52:59 +0000 2014
p495
sg24
Nsg25
Nsg26
Nsg27
Nsg28
Nsg29
Nsg30
I00
sg31
Nsg32
(lp496
sg34
Nsg35
V530402476928032768
p497
sg37
Nsg38
VThis house is absolutely freezing\U0001f616
p498
sg40
I00
sg41
Ven
p499
sg43
g3
(g44
g5
Ntp500
Rp501
(dp502
g10
g48
sg49
V333333
p503
sg51
Ven-gb
p504
sg53
Nsg54
I226
sg55
I627
sg22
VThu Sep 19 20:01:50 +0000 2013
p505
sg57
I00
sg58
g48
sg59
Vhttps://pbs.twimg.com/profile_images/530402348406149120/Vjxa5urz_normal.jpeg
p506
sg61
I379
sg62
I1022
sg63
Nsg64
Nsg65
I00
sg66
Vhttps://pbs.twimg.com/profile_banners/1884197844/1418250544
p507
sg68
I00
sg69
I00
sg70
V0084B4
p508
sg72
I00
sg73
I00
sg74
Vhttp://abs.twimg.com/images/themes/theme1/bg.png
p509
sg76
VRobTomlinsonx
p510
sg78
I0
sg79
VRobyn
p511
sg81
VDDEEF6
p512
sg83
Nsg84
I1884197844
sg85
VC0DEED
p513
sbsg87
I1
sg88
V<a href="http://twitter.com/download/iphone" rel="nofollow">Twitter for iPhone</a>
p514
sg90
(lp515
sg84
I530402476928032768
sbag3
(g4
g5
Ntp516
Rp517
(dp518
g9
I0
sg10
Nsg11
Nsg12
(lp519
sg14
I00
sg15
Nsg16
Nsg17
(lp520
sg19
Nsg20
Nsg21
Nsg22
VSun Nov 02 13:46:11 +0000 2014
p521
sg24
Nsg25
Nsg26
Nsg27
Nsg28
Nsg29
Nsg30
I00
sg31
Nsg32
(lp522
sg34
Nsg35
V528905917103108097
p523
sg37
Nsg38
VNot prepared for these early mornings\U0001f62d
p524
sg40
I00
sg41
Ven
p525
sg43
g3
(g44
g5
Ntp526
Rp527
(dp528
g10
g48
sg49
V333333
p529
sg51
Ven-gb
p530
sg53
Nsg54
I226
sg55
I627
sg22
VThu Sep 19 20:01:50 +0000 2013
p531
sg57
I00
sg58
g48
sg59
Vhttps://pbs.twimg.com/profile_images/530402348406149120/Vjxa5urz_normal.jpeg
p532
sg61
I379
sg62
I1022
sg63
Nsg64
Nsg65
I00
sg66
Vhttps://pbs.twimg.com/profile_banners/1884197844/1418250544
p533
sg68
I00
sg69
I00
sg70
V0084B4
p534
sg72
I00
sg73
I00
sg74
Vhttp://abs.twimg.com/images/themes/theme1/bg.png
p535
sg76
VRobTomlinsonx
p536
sg78
I0
sg79
VRobyn
p537
sg81
VDDEEF6
p538
sg83
Nsg84
I1884197844
sg85
VC0DEED
p539
sbsg87
I0
sg88
V<a href="http://twitter.com/download/iphone" rel="nofollow">Twitter for iPhone</a>
p540
sg90
(lp541
sg84
I528905917103108097
sbag3
(g4
g5
Ntp542
Rp543
(dp544
g9
I0
sg10
Nsg11
Nsg12
(lp545
sg14
I00
sg15
Nsg16
Nsg17
(lp546
sg19
Nsg20
Nsg21
Nsg22
VFri Oct 31 11:17:56 +0000 2014
p547
sg24
Nsg25
Nsg26
Nsg27
Nsg28
Nsg29
Nsg30
I00
sg31
Nsg32
(lp548
sg34
Nsg35
V528143832022388736
p549
sg37
Nsg38
VHappy halloween\U0001f383\U0001f47b
p550
sg40
I00
sg41
Ven
p551
sg43
g3
(g44
g5
Ntp552
Rp553
(dp554
g10
g48
sg49
V333333
p555
sg51
Ven-gb
p556
sg53
Nsg54
I226
sg55
I627
sg22
VThu Sep 19 20:01:50 +0000 2013
p557
sg57
I00
sg58
g48
sg59
Vhttps://pbs.twimg.com/profile_images/530402348406149120/Vjxa5urz_normal.jpeg
p558
sg61
I379
sg62
I1022
sg63
Nsg64
Nsg65
I00
sg66
Vhttps://pbs.twimg.com/profile_banners/1884197844/1418250544
p559
sg68
I00
sg69
I00
sg70
V0084B4
p560
sg72
I00
sg73
I00
sg74
Vhttp://abs.twimg.com/images/themes/theme1/bg.png
p561
sg76
VRobTomlinsonx
p562
sg78
I0
sg79
VRobyn
p563
sg81
VDDEEF6
p564
sg83
Nsg84
I1884197844
sg85
VC0DEED
p565
sbsg87
I1
sg88
V<a href="http://twitter.com/download/iphone" rel="nofollow">Twitter for iPhone</a>
p566
sg90
(lp567
sg84
I528143832022388736
sbag3
(g4
g5
Ntp568
Rp569
(dp570
g9
I0
sg10
Nsg11
Nsg12
(lp571
sg14
I00
sg15
Nsg16
Nsg17
(lp572
sg19
Nsg20
Nsg21
Nsg22
VFri Oct 31 00:00:03 +0000 2014
p573
sg24
Nsg25
Nsg26
Nsg27
Nsg28
Nsg29
Nsg30
I00
sg31
Nsg32
(lp574
sg34
Nsg35
V527973236618043393
p575
sg37
Nsg38
VWhen do I not crave chocolate
p576
sg40
I00
sg41
Ven
p577
sg43
g3
(g44
g5
Ntp578
Rp579
(dp580
g10
g48
sg49
V333333
p581
sg51
Ven-gb
p582
sg53
Nsg54
I226
sg55
I627
sg22
VThu Sep 19 20:01:50 +0000 2013
p583
sg57
I00
sg58
g48
sg59
Vhttps://pbs.twimg.com/profile_images/530402348406149120/Vjxa5urz_normal.jpeg
p584
sg61
I379
sg62
I1022
sg63
Nsg64
Nsg65
I00
sg66
Vhttps://pbs.twimg.com/profile_banners/1884197844/1418250544
p585
sg68
I00
sg69
I00
sg70
V0084B4
p586
sg72
I00
sg73
I00
sg74
Vhttp://abs.twimg.com/images/themes/theme1/bg.png
p587
sg76
VRobTomlinsonx
p588
sg78
I0
sg79
VRobyn
p589
sg81
VDDEEF6
p590
sg83
Nsg84
I1884197844
sg85
VC0DEED
p591
sbsg87
I1
sg88
V<a href="http://twitter.com/download/iphone" rel="nofollow">Twitter for iPhone</a>
p592
sg90
(lp593
sg84
I527973236618043393
sbaa.