(lp0
S'RockinSpaceGear'
p1
a(lp2
ccopy_reg
_reconstructor
p3
(ctwitter
Status
p4
c__builtin__
object
p5
Ntp6
Rp7
(dp8
S'_favorite_count'
p9
I0
sS'_location'
p10
NsS'_withheld_scope'
p11
NsS'hashtags'
p12
(lp13
sS'_truncated'
p14
I00
sS'_retweeted_status'
p15
NsS'_withheld_copyright'
p16
NsS'media'
p17
(lp18
sS'_place'
p19
NsS'_contributors'
p20
NsS'_current_user_retweet'
p21
NsS'_created_at'
p22
VSat Dec 13 21:25:03 +0000 2014
p23
sS'_scopes'
p24
NsS'_possibly_sensitive'
p25
NsS'_in_reply_to_screen_name'
p26
NsS'_coordinates'
p27
NsS'_in_reply_to_user_id'
p28
NsS'_geo'
p29
NsS'_favorited'
p30
I00
sS'_withheld_in_countries'
p31
NsS'user_mentions'
p32
(lp33
sS'_now'
p34
NsS'_id_str'
p35
V543879296516124672
p36
sS'_in_reply_to_status_id'
p37
NsS'_text'
p38
VBlah Blah Blah
p39
sS'_retweeted'
p40
I00
sS'lang'
p41
Vin
p42
sS'_user'
p43
g3
(ctwitter
User
p44
g5
Ntp45
Rp46
(dp47
g10
VMacon/OutterSpace
p48
sS'_profile_text_color'
p49
V666666
p50
sS'_lang'
p51
Ven
p52
sS'_time_zone'
p53
VQuito
p54
sS'_followers_count'
p55
I613
sS'_statuses_count'
p56
I5666
sg22
VSat Apr 17 05:13:24 +0000 2010
p57
sS'_verified'
p58
I00
sS'_description'
p59
VRecording Artist | #FullBlast  #HighSociety BroadCastingLive! #Stonernation Snapchat: lesz_blow / IG:Rockin_SpaceGear
p60
sS'_profile_image_url'
p61
Vhttps://pbs.twimg.com/profile_images/535239584570175488/sg3uMvcj_normal.jpeg
p62
sS'_friends_count'
p63
I579
sS'_favourites_count'
p64
I33
sS'_utc_offset'
p65
I-18000
sS'_status'
p66
NsS'_protected'
p67
I00
sS'_profile_banner_url'
p68
Vhttps://pbs.twimg.com/profile_banners/133994287/1417319917
p69
sS'_notifications'
p70
I00
sS'_profile_background_tile'
p71
I00
sS'_profile_link_color'
p72
V1FDE1F
p73
sS'_geo_enabled'
p74
I01
sS'_contributors_enabled'
p75
I00
sS'_profile_background_image_url'
p76
Vhttp://pbs.twimg.com/profile_background_images/540088722/images-4.jpeg
p77
sS'_screen_name'
p78
VRockinSpaceGear
p79
sS'_listed_count'
p80
I1
sS'_name'
p81
VLesz_Blow \u203c\ufe0f
p82
sS'_profile_sidebar_fill_color'
p83
V252429
p84
sS'_url'
p85
NsS'_id'
p86
I133994287
sS'_profile_background_color'
p87
V352726
p88
sbsS'_retweet_count'
p89
I0
sS'_source'
p90
V<a href="http://twitter.com/download/iphone" rel="nofollow">Twitter for iPhone</a>
p91
sS'urls'
p92
(lp93
sg86
I543879296516124672
sbag3
(g4
g5
Ntp94
Rp95
(dp96
g9
I1
sg10
Nsg11
Nsg12
(lp97
sg14
I00
sg15
Nsg16
Nsg17
(lp98
sg19
Nsg20
Nsg21
Nsg22
VSat Dec 13 21:09:46 +0000 2014
p99
sg24
Nsg25
Nsg26
Nsg27
Nsg28
Nsg29
Nsg30
I00
sg31
Nsg32
(lp100
sg34
Nsg35
V543875449722798080
p101
sg37
Nsg38
VDon't look at me nigga, call yo plug \U0001f634
p102
sg40
I00
sg41
Ven
p103
sg43
g3
(g44
g5
Ntp104
Rp105
(dp106
g10
VMacon/OutterSpace
p107
sg49
V666666
p108
sg51
Ven
p109
sg53
VQuito
p110
sg55
I613
sg56
I5666
sg22
VSat Apr 17 05:13:24 +0000 2010
p111
sg58
I00
sg59
VRecording Artist | #FullBlast  #HighSociety BroadCastingLive! #Stonernation Snapchat: lesz_blow / IG:Rockin_SpaceGear
p112
sg61
Vhttps://pbs.twimg.com/profile_images/535239584570175488/sg3uMvcj_normal.jpeg
p113
sg63
I579
sg64
I33
sg65
I-18000
sg66
Nsg67
I00
sg68
Vhttps://pbs.twimg.com/profile_banners/133994287/1417319917
p114
sg70
I00
sg71
I00
sg72
V1FDE1F
p115
sg74
I01
sg75
I00
sg76
Vhttp://pbs.twimg.com/profile_background_images/540088722/images-4.jpeg
p116
sg78
VRockinSpaceGear
p117
sg80
I1
sg81
VLesz_Blow \u203c\ufe0f
p118
sg83
V252429
p119
sg85
Nsg86
I133994287
sg87
V352726
p120
sbsg89
I0
sg90
V<a href="http://twitter.com/download/iphone" rel="nofollow">Twitter for iPhone</a>
p121
sg92
(lp122
sg86
I543875449722798080
sbag3
(g4
g5
Ntp123
Rp124
(dp125
g9
I0
sg10
Nsg11
Nsg12
(lp126
sg14
I00
sg15
g3
(g4
g5
Ntp127
Rp128
(dp129
g9
I15
sg10
Nsg11
Nsg12
(lp130
sg14
I00
sg15
Nsg16
Nsg17
(lp131
(dp132
Vexpanded_url
p133
Vhttp://twitter.com/KushBibIe/status/532287100948070400/photo/1
p134
sVdisplay_url
p135
Vpic.twitter.com/EVugfMbesQ
p136
sVurl
p137
Vhttp://t.co/EVugfMbesQ
p138
sVmedia_url_https
p139
Vhttps://pbs.twimg.com/media/B2MQTDGIcAA9TLq.jpg
p140
sVid_str
p141
V532287100394434560
p142
sVsizes
p143
(dp144
Vsmall
p145
(dp146
Vh
p147
I333
sVresize
p148
Vfit
p149
sVw
p150
I340
ssVlarge
p151
(dp152
Vh
p153
I580
sVresize
p154
Vfit
p155
sVw
p156
I592
ssVmedium
p157
(dp158
Vh
p159
I580
sVresize
p160
Vfit
p161
sVw
p162
I592
ssVthumb
p163
(dp164
Vh
p165
I150
sVresize
p166
Vcrop
p167
sVw
p168
I150
sssVindices
p169
(lp170
I22
aI44
asVtype
p171
Vphoto
p172
sVid
p173
I532287100394434560
sVmedia_url
p174
Vhttp://pbs.twimg.com/media/B2MQTDGIcAA9TLq.jpg
p175
sasg19
Nsg20
Nsg21
Nsg22
VTue Nov 11 21:41:48 +0000 2014
p176
sg24
Nsg25
I00
sg26
Nsg27
Nsg28
Nsg29
Nsg30
I00
sg31
Nsg32
(lp177
sg34
Nsg35
V532287100948070400
p178
sg37
Nsg38
VRT to pass the blunt. http://t.co/EVugfMbesQ
p179
sg40
I00
sg41
Ven
p180
sg43
g3
(g44
g5
Ntp181
Rp182
(dp183
g10
V
p184
sg49
V333333
p185
sg51
Ven
p186
sg53
VEastern Time (US & Canada)
p187
sg55
I43740
sg56
I1300
sg22
VSun Aug 18 16:13:10 +0000 2013
p188
sg58
I00
sg59
VEven if you don't smoke. FOLLOW to be entertained, educated, and enlightened. (WE DO NOT OWN PICTURES POSTED!)
p189
sg61
Vhttps://pbs.twimg.com/profile_images/532282299359186944/-RiuRKy0_normal.jpeg
p190
sg63
I45911
sg64
I38
sg65
I-18000
sg66
Nsg67
I00
sg68
Vhttps://pbs.twimg.com/profile_banners/1681044348/1415740991
p191
sg70
I00
sg71
I01
sg72
V009999
p192
sg74
I00
sg75
I00
sg76
Vhttp://abs.twimg.com/images/themes/theme14/bg.gif
p193
sg78
VKushBibIe
p194
sg80
I18
sg81
V\u2800
p195
sg83
VEFEFEF
p196
sg85
Nsg86
I1681044348
sg87
V131516
p197
sbsg89
I47
sg90
V<a href="http://twitter.com/download/iphone" rel="nofollow">Twitter for iPhone</a>
p198
sg92
(lp199
sg86
I532287100948070400
sbsg16
Nsg17
(lp200
(dp201
Vsource_user_id
p202
I1681044348
sVsource_status_id_str
p203
V532287100948070400
p204
sVexpanded_url
p205
Vhttp://twitter.com/KushBibIe/status/532287100948070400/photo/1
p206
sVdisplay_url
p207
Vpic.twitter.com/EVugfMbesQ
p208
sVurl
p209
Vhttp://t.co/EVugfMbesQ
p210
sVmedia_url_https
p211
Vhttps://pbs.twimg.com/media/B2MQTDGIcAA9TLq.jpg
p212
sVsource_user_id_str
p213
V1681044348
p214
sVsource_status_id
p215
I532287100948070400
sVid_str
p216
V532287100394434560
p217
sVsizes
p218
(dp219
Vsmall
p220
(dp221
Vh
p222
I333
sVresize
p223
Vfit
p224
sVw
p225
I340
ssVlarge
p226
(dp227
Vh
p228
I580
sVresize
p229
Vfit
p230
sVw
p231
I592
ssVmedium
p232
(dp233
Vh
p234
I580
sVresize
p235
Vfit
p236
sVw
p237
I592
ssVthumb
p238
(dp239
Vh
p240
I150
sVresize
p241
Vcrop
p242
sVw
p243
I150
sssVindices
p244
(lp245
I37
aI59
asVtype
p246
Vphoto
p247
sVid
p248
I532287100394434560
sVmedia_url
p249
Vhttp://pbs.twimg.com/media/B2MQTDGIcAA9TLq.jpg
p250
sasg19
Nsg20
Nsg21
Nsg22
VSat Dec 13 21:07:18 +0000 2014
p251
sg24
Nsg25
I00
sg26
Nsg27
Nsg28
Nsg29
Nsg30
I00
sg31
Nsg32
(lp252
g3
(g44
g5
Ntp253
Rp254
(dp255
g10
Nsg49
Nsg51
Nsg53
Nsg55
Nsg56
Nsg22
Nsg58
Nsg59
Nsg61
Nsg63
Nsg64
Nsg65
Nsg66
Nsg67
Nsg68
Nsg70
Nsg71
Nsg72
Nsg74
Nsg75
Nsg76
Nsg78
VKushBibIe
p256
sg80
Nsg81
V\u2800
p257
sg83
Nsg85
Nsg86
I1681044348
sg87
Nsbasg34
Nsg35
V543874827715887104
p258
sg37
Nsg38
VRT @KushBibIe: RT to pass the blunt. http://t.co/EVugfMbesQ
p259
sg40
I00
sg41
Ven
p260
sg43
g3
(g44
g5
Ntp261
Rp262
(dp263
g10
VMacon/OutterSpace
p264
sg49
V666666
p265
sg51
Ven
p266
sg53
VQuito
p267
sg55
I613
sg56
I5666
sg22
VSat Apr 17 05:13:24 +0000 2010
p268
sg58
I00
sg59
VRecording Artist | #FullBlast  #HighSociety BroadCastingLive! #Stonernation Snapchat: lesz_blow / IG:Rockin_SpaceGear
p269
sg61
Vhttps://pbs.twimg.com/profile_images/535239584570175488/sg3uMvcj_normal.jpeg
p270
sg63
I579
sg64
I33
sg65
I-18000
sg66
Nsg67
I00
sg68
Vhttps://pbs.twimg.com/profile_banners/133994287/1417319917
p271
sg70
I00
sg71
I00
sg72
V1FDE1F
p272
sg74
I01
sg75
I00
sg76
Vhttp://pbs.twimg.com/profile_background_images/540088722/images-4.jpeg
p273
sg78
VRockinSpaceGear
p274
sg80
I1
sg81
VLesz_Blow \u203c\ufe0f
p275
sg83
V252429
p276
sg85
Nsg86
I133994287
sg87
V352726
p277
sbsg89
I47
sg90
V<a href="http://twitter.com/download/iphone" rel="nofollow">Twitter for iPhone</a>
p278
sg92
(lp279
sg86
I543874827715887104
sbag3
(g4
g5
Ntp280
Rp281
(dp282
g9
I0
sg10
Nsg11
Nsg12
(lp283
sg14
I00
sg15
g3
(g4
g5
Ntp284
Rp285
(dp286
g9
I44
sg10
Nsg11
Nsg12
(lp287
sg14
I00
sg15
Nsg16
Nsg17
(lp288
sg19
Nsg20
Nsg21
Nsg22
VSat Dec 13 21:04:32 +0000 2014
p289
sg24
Nsg25
Nsg26
Nsg27
Nsg28
Nsg29
Nsg30
I00
sg31
Nsg32
(lp290
sg34
Nsg35
V543874131993706496
p291
sg37
Nsg38
VGet alot of gwap, smoke alot of pot.
p292
sg40
I00
sg41
Ven
p293
sg43
g3
(g44
g5
Ntp294
Rp295
(dp296
g10
g184
sg49
V333333
p297
sg51
Ven
p298
sg53
VEastern Time (US & Canada)
p299
sg55
I43740
sg56
I1300
sg22
VSun Aug 18 16:13:10 +0000 2013
p300
sg58
I00
sg59
VEven if you don't smoke. FOLLOW to be entertained, educated, and enlightened. (WE DO NOT OWN PICTURES POSTED!)
p301
sg61
Vhttps://pbs.twimg.com/profile_images/532282299359186944/-RiuRKy0_normal.jpeg
p302
sg63
I45911
sg64
I38
sg65
I-18000
sg66
Nsg67
I00
sg68
Vhttps://pbs.twimg.com/profile_banners/1681044348/1415740991
p303
sg70
I00
sg71
I01
sg72
V009999
p304
sg74
I00
sg75
I00
sg76
Vhttp://abs.twimg.com/images/themes/theme14/bg.gif
p305
sg78
VKushBibIe
p306
sg80
I18
sg81
V\u2800
p307
sg83
VEFEFEF
p308
sg85
Nsg86
I1681044348
sg87
V131516
p309
sbsg89
I49
sg90
V<a href="http://twitter.com/download/iphone" rel="nofollow">Twitter for iPhone</a>
p310
sg92
(lp311
sg86
I543874131993706496
sbsg16
Nsg17
(lp312
sg19
Nsg20
Nsg21
Nsg22
VSat Dec 13 21:06:52 +0000 2014
p313
sg24
Nsg25
Nsg26
Nsg27
Nsg28
Nsg29
Nsg30
I00
sg31
Nsg32
(lp314
g3
(g44
g5
Ntp315
Rp316
(dp317
g10
Nsg49
Nsg51
Nsg53
Nsg55
Nsg56
Nsg22
Nsg58
Nsg59
Nsg61
Nsg63
Nsg64
Nsg65
Nsg66
Nsg67
Nsg68
Nsg70
Nsg71
Nsg72
Nsg74
Nsg75
Nsg76
Nsg78
VKushBibIe
p318
sg80
Nsg81
V\u2800
p319
sg83
Nsg85
Nsg86
I1681044348
sg87
Nsbasg34
Nsg35
V543874717946744832
p320
sg37
Nsg38
VRT @KushBibIe: Get alot of gwap, smoke alot of pot.
p321
sg40
I00
sg41
Ven
p322
sg43
g3
(g44
g5
Ntp323
Rp324
(dp325
g10
VMacon/OutterSpace
p326
sg49
V666666
p327
sg51
Ven
p328
sg53
VQuito
p329
sg55
I613
sg56
I5666
sg22
VSat Apr 17 05:13:24 +0000 2010
p330
sg58
I00
sg59
VRecording Artist | #FullBlast  #HighSociety BroadCastingLive! #Stonernation Snapchat: lesz_blow / IG:Rockin_SpaceGear
p331
sg61
Vhttps://pbs.twimg.com/profile_images/535239584570175488/sg3uMvcj_normal.jpeg
p332
sg63
I579
sg64
I33
sg65
I-18000
sg66
Nsg67
I00
sg68
Vhttps://pbs.twimg.com/profile_banners/133994287/1417319917
p333
sg70
I00
sg71
I00
sg72
V1FDE1F
p334
sg74
I01
sg75
I00
sg76
Vhttp://pbs.twimg.com/profile_background_images/540088722/images-4.jpeg
p335
sg78
VRockinSpaceGear
p336
sg80
I1
sg81
VLesz_Blow \u203c\ufe0f
p337
sg83
V252429
p338
sg85
Nsg86
I133994287
sg87
V352726
p339
sbsg89
I49
sg90
V<a href="http://twitter.com/download/iphone" rel="nofollow">Twitter for iPhone</a>
p340
sg92
(lp341
sg86
I543874717946744832
sbag3
(g4
g5
Ntp342
Rp343
(dp344
g9
I0
sg10
Nsg11
Nsg12
(lp345
sg14
I00
sg15
Nsg16
Nsg17
(lp346
sg19
Nsg20
Nsg21
Nsg22
VSat Dec 13 21:06:23 +0000 2014
p347
sg24
Nsg25
Nsg26
Nsg27
Nsg28
Nsg29
Nsg30
I00
sg31
Nsg32
(lp348
sg34
Nsg35
V543874597360508929
p349
sg37
Nsg38
VBoolin wit the homie \U0001f347\U0001f489\U0001f489
p350
sg40
I00
sg41
Ven
p351
sg43
g3
(g44
g5
Ntp352
Rp353
(dp354
g10
VMacon/OutterSpace
p355
sg49
V666666
p356
sg51
Ven
p357
sg53
VQuito
p358
sg55
I613
sg56
I5666
sg22
VSat Apr 17 05:13:24 +0000 2010
p359
sg58
I00
sg59
VRecording Artist | #FullBlast  #HighSociety BroadCastingLive! #Stonernation Snapchat: lesz_blow / IG:Rockin_SpaceGear
p360
sg61
Vhttps://pbs.twimg.com/profile_images/535239584570175488/sg3uMvcj_normal.jpeg
p361
sg63
I579
sg64
I33
sg65
I-18000
sg66
Nsg67
I00
sg68
Vhttps://pbs.twimg.com/profile_banners/133994287/1417319917
p362
sg70
I00
sg71
I00
sg72
V1FDE1F
p363
sg74
I01
sg75
I00
sg76
Vhttp://pbs.twimg.com/profile_background_images/540088722/images-4.jpeg
p364
sg78
VRockinSpaceGear
p365
sg80
I1
sg81
VLesz_Blow \u203c\ufe0f
p366
sg83
V252429
p367
sg85
Nsg86
I133994287
sg87
V352726
p368
sbsg89
I0
sg90
V<a href="http://twitter.com/download/iphone" rel="nofollow">Twitter for iPhone</a>
p369
sg92
(lp370
sg86
I543874597360508929
sbag3
(g4
g5
Ntp371
Rp372
(dp373
g9
I0
sg10
Nsg11
Nsg12
(lp374
sg14
I00
sg15
Nsg16
Nsg17
(lp375
sg19
Nsg20
Nsg21
Nsg22
VSat Dec 13 20:22:22 +0000 2014
p376
sg24
Nsg25
Nsg26
Nsg27
Nsg28
Nsg29
Nsg30
I00
sg31
Nsg32
(lp377
sg34
Nsg35
V543863522586021889
p378
sg37
Nsg38
VSnapchat:\U0001f449\U0001f449 Lesz_Blow \U0001f489\U0001f489
p379
sg40
I00
sg41
Vhu
p380
sg43
g3
(g44
g5
Ntp381
Rp382
(dp383
g10
VMacon/OutterSpace
p384
sg49
V666666
p385
sg51
Ven
p386
sg53
VQuito
p387
sg55
I613
sg56
I5666
sg22
VSat Apr 17 05:13:24 +0000 2010
p388
sg58
I00
sg59
VRecording Artist | #FullBlast  #HighSociety BroadCastingLive! #Stonernation Snapchat: lesz_blow / IG:Rockin_SpaceGear
p389
sg61
Vhttps://pbs.twimg.com/profile_images/535239584570175488/sg3uMvcj_normal.jpeg
p390
sg63
I579
sg64
I33
sg65
I-18000
sg66
Nsg67
I00
sg68
Vhttps://pbs.twimg.com/profile_banners/133994287/1417319917
p391
sg70
I00
sg71
I00
sg72
V1FDE1F
p392
sg74
I01
sg75
I00
sg76
Vhttp://pbs.twimg.com/profile_background_images/540088722/images-4.jpeg
p393
sg78
VRockinSpaceGear
p394
sg80
I1
sg81
VLesz_Blow \u203c\ufe0f
p395
sg83
V252429
p396
sg85
Nsg86
I133994287
sg87
V352726
p397
sbsg89
I0
sg90
V<a href="http://twitter.com/download/iphone" rel="nofollow">Twitter for iPhone</a>
p398
sg92
(lp399
sg86
I543863522586021889
sbag3
(g4
g5
Ntp400
Rp401
(dp402
g9
I0
sg10
Nsg11
Nsg12
(lp403
sg14
I00
sg15
Nsg16
Nsg17
(lp404
sg19
Nsg20
Nsg21
Nsg22
VSat Dec 13 05:46:27 +0000 2014
p405
sg24
Nsg25
Nsg26
Nsg27
Nsg28
Nsg29
Nsg30
I00
sg31
Nsg32
(lp406
sg34
Nsg35
V543643089697792000
p407
sg37
Nsg38
VI'm tryna pull up
p408
sg40
I00
sg41
Ven
p409
sg43
g3
(g44
g5
Ntp410
Rp411
(dp412
g10
VMacon/OutterSpace
p413
sg49
V666666
p414
sg51
Ven
p415
sg53
VQuito
p416
sg55
I613
sg56
I5666
sg22
VSat Apr 17 05:13:24 +0000 2010
p417
sg58
I00
sg59
VRecording Artist | #FullBlast  #HighSociety BroadCastingLive! #Stonernation Snapchat: lesz_blow / IG:Rockin_SpaceGear
p418
sg61
Vhttps://pbs.twimg.com/profile_images/535239584570175488/sg3uMvcj_normal.jpeg
p419
sg63
I579
sg64
I33
sg65
I-18000
sg66
Nsg67
I00
sg68
Vhttps://pbs.twimg.com/profile_banners/133994287/1417319917
p420
sg70
I00
sg71
I00
sg72
V1FDE1F
p421
sg74
I01
sg75
I00
sg76
Vhttp://pbs.twimg.com/profile_background_images/540088722/images-4.jpeg
p422
sg78
VRockinSpaceGear
p423
sg80
I1
sg81
VLesz_Blow \u203c\ufe0f
p424
sg83
V252429
p425
sg85
Nsg86
I133994287
sg87
V352726
p426
sbsg89
I0
sg90
V<a href="http://twitter.com/download/iphone" rel="nofollow">Twitter for iPhone</a>
p427
sg92
(lp428
sg86
I543643089697792000
sbag3
(g4
g5
Ntp429
Rp430
(dp431
g9
I0
sg10
Nsg11
Nsg12
(lp432
sg14
I00
sg15
Nsg16
Nsg17
(lp433
sg19
Nsg20
Nsg21
Nsg22
VFri Dec 12 04:20:09 +0000 2014
p434
sg24
Nsg25
I00
sg26
Nsg27
Nsg28
Nsg29
Nsg30
I00
sg31
Nsg32
(lp435
sg34
Nsg35
V543258984883310592
p436
sg37
Nsg38
V'Mr.Heights' by Lesz Blow&gt;&gt;&gt; click here&gt;&gt;&gt; http://t.co/dd7SL2pgio
p437
sg40
I00
sg41
Ven
p438
sg43
g3
(g44
g5
Ntp439
Rp440
(dp441
g10
VMacon/OutterSpace
p442
sg49
V666666
p443
sg51
Ven
p444
sg53
VQuito
p445
sg55
I613
sg56
I5666
sg22
VSat Apr 17 05:13:24 +0000 2010
p446
sg58
I00
sg59
VRecording Artist | #FullBlast  #HighSociety BroadCastingLive! #Stonernation Snapchat: lesz_blow / IG:Rockin_SpaceGear
p447
sg61
Vhttps://pbs.twimg.com/profile_images/535239584570175488/sg3uMvcj_normal.jpeg
p448
sg63
I579
sg64
I33
sg65
I-18000
sg66
Nsg67
I00
sg68
Vhttps://pbs.twimg.com/profile_banners/133994287/1417319917
p449
sg70
I00
sg71
I00
sg72
V1FDE1F
p450
sg74
I01
sg75
I00
sg76
Vhttp://pbs.twimg.com/profile_background_images/540088722/images-4.jpeg
p451
sg78
VRockinSpaceGear
p452
sg80
I1
sg81
VLesz_Blow \u203c\ufe0f
p453
sg83
V252429
p454
sg85
Nsg86
I133994287
sg87
V352726
p455
sbsg89
I0
sg90
V<a href="https://dev.twitter.com/docs/tfw" rel="nofollow">Twitter for Websites</a>
p456
sg92
(lp457
g3
(ctwitter
Url
p458
g5
Ntp459
Rp460
(dp461
S'url'
p462
Vhttp://t.co/dd7SL2pgio
p463
sS'expanded_url'
p464
Vhttp://www.youtube.com/watch?v=cKLgVmHQxJg&sns=tw
p465
sbasg86
I543258984883310592
sbag3
(g4
g5
Ntp466
Rp467
(dp468
g9
I0
sg10
Nsg11
Nsg12
(lp469
g3
(ctwitter
Hashtag
p470
g5
Ntp471
Rp472
(dp473
S'text'
p474
VFullBlast
p475
sbasg14
I00
sg15
Nsg16
Nsg17
(lp476
sg19
Nsg20
Nsg21
Nsg22
VThu Dec 11 13:15:41 +0000 2014
p477
sg24
Nsg25
I00
sg26
Nsg27
Nsg28
Nsg29
Nsg30
I00
sg31
Nsg32
(lp478
sg34
Nsg35
V543031367429132288
p479
sg37
Nsg38
V'Mr.Heights' by Lesz Blow&gt;&gt;&gt; click here&gt;&gt;&gt;http://t.co/dd7SL2pgio #FullBlast
p480
sg40
I00
sg41
Ven
p481
sg43
g3
(g44
g5
Ntp482
Rp483
(dp484
g10
VMacon/OutterSpace
p485
sg49
V666666
p486
sg51
Ven
p487
sg53
VQuito
p488
sg55
I613
sg56
I5666
sg22
VSat Apr 17 05:13:24 +0000 2010
p489
sg58
I00
sg59
VRecording Artist | #FullBlast  #HighSociety BroadCastingLive! #Stonernation Snapchat: lesz_blow / IG:Rockin_SpaceGear
p490
sg61
Vhttps://pbs.twimg.com/profile_images/535239584570175488/sg3uMvcj_normal.jpeg
p491
sg63
I579
sg64
I33
sg65
I-18000
sg66
Nsg67
I00
sg68
Vhttps://pbs.twimg.com/profile_banners/133994287/1417319917
p492
sg70
I00
sg71
I00
sg72
V1FDE1F
p493
sg74
I01
sg75
I00
sg76
Vhttp://pbs.twimg.com/profile_background_images/540088722/images-4.jpeg
p494
sg78
VRockinSpaceGear
p495
sg80
I1
sg81
VLesz_Blow \u203c\ufe0f
p496
sg83
V252429
p497
sg85
Nsg86
I133994287
sg87
V352726
p498
sbsg89
I0
sg90
V<a href="https://dev.twitter.com/docs/tfw" rel="nofollow">Twitter for Websites</a>
p499
sg92
(lp500
g3
(g458
g5
Ntp501
Rp502
(dp503
g462
Vhttp://t.co/dd7SL2pgio
p504
sg464
Vhttp://www.youtube.com/watch?v=cKLgVmHQxJg&sns=tw
p505
sbasg86
I543031367429132288
sbag3
(g4
g5
Ntp506
Rp507
(dp508
g9
I1
sg10
Nsg11
Nsg12
(lp509
sg14
I00
sg15
Nsg16
Nsg17
(lp510
sg19
Nsg20
Nsg21
Nsg22
VThu Dec 11 08:45:39 +0000 2014
p511
sg24
Nsg25
Nsg26
Nsg27
Nsg28
Nsg29
Nsg30
I00
sg31
Nsg32
(lp512
sg34
Nsg35
V542963409667776513
p513
sg37
Nsg38
VCan't sleep \U0001f629
p514
sg40
I00
sg41
Ven
p515
sg43
g3
(g44
g5
Ntp516
Rp517
(dp518
g10
VMacon/OutterSpace
p519
sg49
V666666
p520
sg51
Ven
p521
sg53
VQuito
p522
sg55
I613
sg56
I5666
sg22
VSat Apr 17 05:13:24 +0000 2010
p523
sg58
I00
sg59
VRecording Artist | #FullBlast  #HighSociety BroadCastingLive! #Stonernation Snapchat: lesz_blow / IG:Rockin_SpaceGear
p524
sg61
Vhttps://pbs.twimg.com/profile_images/535239584570175488/sg3uMvcj_normal.jpeg
p525
sg63
I579
sg64
I33
sg65
I-18000
sg66
Nsg67
I00
sg68
Vhttps://pbs.twimg.com/profile_banners/133994287/1417319917
p526
sg70
I00
sg71
I00
sg72
V1FDE1F
p527
sg74
I01
sg75
I00
sg76
Vhttp://pbs.twimg.com/profile_background_images/540088722/images-4.jpeg
p528
sg78
VRockinSpaceGear
p529
sg80
I1
sg81
VLesz_Blow \u203c\ufe0f
p530
sg83
V252429
p531
sg85
Nsg86
I133994287
sg87
V352726
p532
sbsg89
I0
sg90
V<a href="http://twitter.com/download/iphone" rel="nofollow">Twitter for iPhone</a>
p533
sg92
(lp534
sg86
I542963409667776513
sbag3
(g4
g5
Ntp535
Rp536
(dp537
g9
I0
sg10
Nsg11
Nsg12
(lp538
sg14
I00
sg15
Nsg16
Nsg17
(lp539
sg19
Nsg20
Nsg21
Nsg22
VWed Dec 10 23:24:57 +0000 2014
p540
sg24
Nsg25
Nsg26
Nsg27
Nsg28
Nsg29
Nsg30
I00
sg31
Nsg32
(lp541
sg34
Nsg35
V542822306494836737
p542
sg37
Nsg38
VSnapchat: lesz_blow \U0001f448\U0001f448\U0001f448\u270a
p543
sg40
I00
sg41
Vhu
p544
sg43
g3
(g44
g5
Ntp545
Rp546
(dp547
g10
VMacon/OutterSpace
p548
sg49
V666666
p549
sg51
Ven
p550
sg53
VQuito
p551
sg55
I613
sg56
I5666
sg22
VSat Apr 17 05:13:24 +0000 2010
p552
sg58
I00
sg59
VRecording Artist | #FullBlast  #HighSociety BroadCastingLive! #Stonernation Snapchat: lesz_blow / IG:Rockin_SpaceGear
p553
sg61
Vhttps://pbs.twimg.com/profile_images/535239584570175488/sg3uMvcj_normal.jpeg
p554
sg63
I579
sg64
I33
sg65
I-18000
sg66
Nsg67
I00
sg68
Vhttps://pbs.twimg.com/profile_banners/133994287/1417319917
p555
sg70
I00
sg71
I00
sg72
V1FDE1F
p556
sg74
I01
sg75
I00
sg76
Vhttp://pbs.twimg.com/profile_background_images/540088722/images-4.jpeg
p557
sg78
VRockinSpaceGear
p558
sg80
I1
sg81
VLesz_Blow \u203c\ufe0f
p559
sg83
V252429
p560
sg85
Nsg86
I133994287
sg87
V352726
p561
sbsg89
I0
sg90
V<a href="http://twitter.com/download/iphone" rel="nofollow">Twitter for iPhone</a>
p562
sg92
(lp563
sg86
I542822306494836737
sbag3
(g4
g5
Ntp564
Rp565
(dp566
g9
I0
sg10
Nsg11
Nsg12
(lp567
sg14
I00
sg15
Nsg16
Nsg17
(lp568
sg19
Nsg20
Nsg21
Nsg22
VWed Dec 10 23:21:04 +0000 2014
p569
sg24
Nsg25
Nsg26
Nsg27
Nsg28
Nsg29
Nsg30
I00
sg31
Nsg32
(lp570
sg34
Nsg35
V542821329935007744
p571
sg37
Nsg38
VLike extension cord
p572
sg40
I00
sg41
Ven
p573
sg43
g3
(g44
g5
Ntp574
Rp575
(dp576
g10
VMacon/OutterSpace
p577
sg49
V666666
p578
sg51
Ven
p579
sg53
VQuito
p580
sg55
I613
sg56
I5666
sg22
VSat Apr 17 05:13:24 +0000 2010
p581
sg58
I00
sg59
VRecording Artist | #FullBlast  #HighSociety BroadCastingLive! #Stonernation Snapchat: lesz_blow / IG:Rockin_SpaceGear
p582
sg61
Vhttps://pbs.twimg.com/profile_images/535239584570175488/sg3uMvcj_normal.jpeg
p583
sg63
I579
sg64
I33
sg65
I-18000
sg66
Nsg67
I00
sg68
Vhttps://pbs.twimg.com/profile_banners/133994287/1417319917
p584
sg70
I00
sg71
I00
sg72
V1FDE1F
p585
sg74
I01
sg75
I00
sg76
Vhttp://pbs.twimg.com/profile_background_images/540088722/images-4.jpeg
p586
sg78
VRockinSpaceGear
p587
sg80
I1
sg81
VLesz_Blow \u203c\ufe0f
p588
sg83
V252429
p589
sg85
Nsg86
I133994287
sg87
V352726
p590
sbsg89
I0
sg90
V<a href="http://twitter.com/download/iphone" rel="nofollow">Twitter for iPhone</a>
p591
sg92
(lp592
sg86
I542821329935007744
sbag3
(g4
g5
Ntp593
Rp594
(dp595
g9
I0
sg10
Nsg11
Nsg12
(lp596
sg14
I00
sg15
Nsg16
Nsg17
(lp597
sg19
Nsg20
Nsg21
Nsg22
VWed Dec 10 23:17:28 +0000 2014
p598
sg24
Nsg25
Nsg26
Nsg27
Nsg28
Nsg29
Nsg30
I00
sg31
Nsg32
(lp599
sg34
Nsg35
V542820422178594816
p600
sg37
Nsg38
VUm connected
p601
sg40
I00
sg41
Ven
p602
sg43
g3
(g44
g5
Ntp603
Rp604
(dp605
g10
VMacon/OutterSpace
p606
sg49
V666666
p607
sg51
Ven
p608
sg53
VQuito
p609
sg55
I613
sg56
I5666
sg22
VSat Apr 17 05:13:24 +0000 2010
p610
sg58
I00
sg59
VRecording Artist | #FullBlast  #HighSociety BroadCastingLive! #Stonernation Snapchat: lesz_blow / IG:Rockin_SpaceGear
p611
sg61
Vhttps://pbs.twimg.com/profile_images/535239584570175488/sg3uMvcj_normal.jpeg
p612
sg63
I579
sg64
I33
sg65
I-18000
sg66
Nsg67
I00
sg68
Vhttps://pbs.twimg.com/profile_banners/133994287/1417319917
p613
sg70
I00
sg71
I00
sg72
V1FDE1F
p614
sg74
I01
sg75
I00
sg76
Vhttp://pbs.twimg.com/profile_background_images/540088722/images-4.jpeg
p615
sg78
VRockinSpaceGear
p616
sg80
I1
sg81
VLesz_Blow \u203c\ufe0f
p617
sg83
V252429
p618
sg85
Nsg86
I133994287
sg87
V352726
p619
sbsg89
I0
sg90
V<a href="http://twitter.com/download/iphone" rel="nofollow">Twitter for iPhone</a>
p620
sg92
(lp621
sg86
I542820422178594816
sbag3
(g4
g5
Ntp622
Rp623
(dp624
g9
I0
sg10
Nsg11
Nsg12
(lp625
sg14
I00
sg15
Nsg16
Nsg17
(lp626
sg19
Nsg20
Nsg21
Nsg22
VWed Dec 10 23:14:51 +0000 2014
p627
sg24
Nsg25
Nsg26
Nsg27
Nsg28
Nsg29
Nsg30
I00
sg31
Nsg32
(lp628
sg34
Nsg35
V542819764536893440
p629
sg37
Nsg38
VSee a fuck nigga shoot a fuck nigga \U0001f4a5\U0001f52b
p630
sg40
I00
sg41
Ven
p631
sg43
g3
(g44
g5
Ntp632
Rp633
(dp634
g10
VMacon/OutterSpace
p635
sg49
V666666
p636
sg51
Ven
p637
sg53
VQuito
p638
sg55
I613
sg56
I5666
sg22
VSat Apr 17 05:13:24 +0000 2010
p639
sg58
I00
sg59
VRecording Artist | #FullBlast  #HighSociety BroadCastingLive! #Stonernation Snapchat: lesz_blow / IG:Rockin_SpaceGear
p640
sg61
Vhttps://pbs.twimg.com/profile_images/535239584570175488/sg3uMvcj_normal.jpeg
p641
sg63
I579
sg64
I33
sg65
I-18000
sg66
Nsg67
I00
sg68
Vhttps://pbs.twimg.com/profile_banners/133994287/1417319917
p642
sg70
I00
sg71
I00
sg72
V1FDE1F
p643
sg74
I01
sg75
I00
sg76
Vhttp://pbs.twimg.com/profile_background_images/540088722/images-4.jpeg
p644
sg78
VRockinSpaceGear
p645
sg80
I1
sg81
VLesz_Blow \u203c\ufe0f
p646
sg83
V252429
p647
sg85
Nsg86
I133994287
sg87
V352726
p648
sbsg89
I0
sg90
V<a href="http://twitter.com/download/iphone" rel="nofollow">Twitter for iPhone</a>
p649
sg92
(lp650
sg86
I542819764536893440
sbag3
(g4
g5
Ntp651
Rp652
(dp653
g9
I0
sg10
Nsg11
Nsg12
(lp654
sg14
I00
sg15
Nsg16
Nsg17
(lp655
sg19
Nsg20
Nsg21
Nsg22
VWed Dec 10 23:13:32 +0000 2014
p656
sg24
Nsg25
Nsg26
Nsg27
Nsg28
Nsg29
Nsg30
I00
sg31
Nsg32
(lp657
sg34
Nsg35
V542819432217972736
p658
sg37
Nsg38
VThe pharmacy fuck with me still got medicine in my cup nigga \U0001f347\U0001f347
p659
sg40
I00
sg41
Ven
p660
sg43
g3
(g44
g5
Ntp661
Rp662
(dp663
g10
VMacon/OutterSpace
p664
sg49
V666666
p665
sg51
Ven
p666
sg53
VQuito
p667
sg55
I613
sg56
I5666
sg22
VSat Apr 17 05:13:24 +0000 2010
p668
sg58
I00
sg59
VRecording Artist | #FullBlast  #HighSociety BroadCastingLive! #Stonernation Snapchat: lesz_blow / IG:Rockin_SpaceGear
p669
sg61
Vhttps://pbs.twimg.com/profile_images/535239584570175488/sg3uMvcj_normal.jpeg
p670
sg63
I579
sg64
I33
sg65
I-18000
sg66
Nsg67
I00
sg68
Vhttps://pbs.twimg.com/profile_banners/133994287/1417319917
p671
sg70
I00
sg71
I00
sg72
V1FDE1F
p672
sg74
I01
sg75
I00
sg76
Vhttp://pbs.twimg.com/profile_background_images/540088722/images-4.jpeg
p673
sg78
VRockinSpaceGear
p674
sg80
I1
sg81
VLesz_Blow \u203c\ufe0f
p675
sg83
V252429
p676
sg85
Nsg86
I133994287
sg87
V352726
p677
sbsg89
I0
sg90
V<a href="http://twitter.com/download/iphone" rel="nofollow">Twitter for iPhone</a>
p678
sg92
(lp679
sg86
I542819432217972736
sbag3
(g4
g5
Ntp680
Rp681
(dp682
g9
I0
sg10
Nsg11
Nsg12
(lp683
sg14
I00
sg15
g3
(g4
g5
Ntp684
Rp685
(dp686
g9
I11515
sg10
Nsg11
Nsg12
(lp687
sg14
I00
sg15
Nsg16
Nsg17
(lp688
sg19
Nsg20
Nsg21
Nsg22
VFri Sep 05 03:53:10 +0000 2014
p689
sg24
Nsg25
Nsg26
Nsg27
Nsg28
Nsg29
Nsg30
I00
sg31
Nsg32
(lp690
sg34
Nsg35
V507738181924433921
p691
sg37
Nsg38
VShe gets her way, either way.
p692
sg40
I00
sg41
Ven
p693
sg43
g3
(g44
g5
Ntp694
Rp695
(dp696
g10
VMi.
p697
sg49
V333333
p698
sg51
Ven
p699
sg53
VPacific Time (US & Canada)
p700
sg55
I69059
sg56
I64
sg22
VMon Jul 21 13:09:07 +0000 2014
p701
sg58
I00
sg59
Vhttp://t.co/AX3e8U4DVm
p702
sg61
Vhttps://pbs.twimg.com/profile_images/540376285092913152/gmZQfbkE_normal.jpeg
p703
sg63
I273
sg64
I0
sg65
I-28800
sg66
Nsg67
I00
sg68
Vhttps://pbs.twimg.com/profile_banners/2665888100/1409820468
p704
sg70
I00
sg71
I00
sg72
V0000FF
p705
sg74
I00
sg75
I00
sg76
Vhttp://pbs.twimg.com/profile_background_images/507446566366363648/HMlTmrko.jpeg
p706
sg78
VPARTYYOMO
p707
sg80
I56
sg81
VPARTYNEXTDOOR
p708
sg83
VEFEFEF
p709
sg85
Nsg86
I2665888100
sg87
VFFFFFF
p710
sbsg89
I21233
sg90
V<a href="http://twitter.com/download/android" rel="nofollow">Twitter for Android</a>
p711
sg92
(lp712
sg86
I507738181924433921
sbsg16
Nsg17
(lp713
sg19
Nsg20
Nsg21
Nsg22
VWed Dec 10 22:48:48 +0000 2014
p714
sg24
Nsg25
Nsg26
Nsg27
Nsg28
Nsg29
Nsg30
I00
sg31
Nsg32
(lp715
g3
(g44
g5
Ntp716
Rp717
(dp718
g10
Nsg49
Nsg51
Nsg53
Nsg55
Nsg56
Nsg22
Nsg58
Nsg59
Nsg61
Nsg63
Nsg64
Nsg65
Nsg66
Nsg67
Nsg68
Nsg70
Nsg71
Nsg72
Nsg74
Nsg75
Nsg76
Nsg78
VPARTYYOMO
p719
sg80
Nsg81
VPARTYNEXTDOOR
p720
sg83
Nsg85
Nsg86
I2665888100
sg87
Nsbasg34
Nsg35
V542813206780313600
p721
sg37
Nsg38
VRT @PARTYYOMO: She gets her way, either way.
p722
sg40
I00
sg41
Ven
p723
sg43
g3
(g44
g5
Ntp724
Rp725
(dp726
g10
VMacon/OutterSpace
p727
sg49
V666666
p728
sg51
Ven
p729
sg53
VQuito
p730
sg55
I613
sg56
I5666
sg22
VSat Apr 17 05:13:24 +0000 2010
p731
sg58
I00
sg59
VRecording Artist | #FullBlast  #HighSociety BroadCastingLive! #Stonernation Snapchat: lesz_blow / IG:Rockin_SpaceGear
p732
sg61
Vhttps://pbs.twimg.com/profile_images/535239584570175488/sg3uMvcj_normal.jpeg
p733
sg63
I579
sg64
I33
sg65
I-18000
sg66
Nsg67
I00
sg68
Vhttps://pbs.twimg.com/profile_banners/133994287/1417319917
p734
sg70
I00
sg71
I00
sg72
V1FDE1F
p735
sg74
I01
sg75
I00
sg76
Vhttp://pbs.twimg.com/profile_background_images/540088722/images-4.jpeg
p736
sg78
VRockinSpaceGear
p737
sg80
I1
sg81
VLesz_Blow \u203c\ufe0f
p738
sg83
V252429
p739
sg85
Nsg86
I133994287
sg87
V352726
p740
sbsg89
I21233
sg90
V<a href="http://twitter.com/download/iphone" rel="nofollow">Twitter for iPhone</a>
p741
sg92
(lp742
sg86
I542813206780313600
sbag3
(g4
g5
Ntp743
Rp744
(dp745
g9
I0
sg10
Nsg11
Nsg12
(lp746
sg14
I00
sg15
Nsg16
Nsg17
(lp747
sg19
Nsg20
Nsg21
Nsg22
VWed Dec 10 22:47:35 +0000 2014
p748
sg24
Nsg25
Nsg26
Nsg27
Nsg28
Nsg29
Nsg30
I00
sg31
Nsg32
(lp749
sg34
Nsg35
V542812901011374081
p750
sg37
Nsg38
VMake a lot of money you should see my pockets
p751
sg40
I00
sg41
Ven
p752
sg43
g3
(g44
g5
Ntp753
Rp754
(dp755
g10
VMacon/OutterSpace
p756
sg49
V666666
p757
sg51
Ven
p758
sg53
VQuito
p759
sg55
I613
sg56
I5666
sg22
VSat Apr 17 05:13:24 +0000 2010
p760
sg58
I00
sg59
VRecording Artist | #FullBlast  #HighSociety BroadCastingLive! #Stonernation Snapchat: lesz_blow / IG:Rockin_SpaceGear
p761
sg61
Vhttps://pbs.twimg.com/profile_images/535239584570175488/sg3uMvcj_normal.jpeg
p762
sg63
I579
sg64
I33
sg65
I-18000
sg66
Nsg67
I00
sg68
Vhttps://pbs.twimg.com/profile_banners/133994287/1417319917
p763
sg70
I00
sg71
I00
sg72
V1FDE1F
p764
sg74
I01
sg75
I00
sg76
Vhttp://pbs.twimg.com/profile_background_images/540088722/images-4.jpeg
p765
sg78
VRockinSpaceGear
p766
sg80
I1
sg81
VLesz_Blow \u203c\ufe0f
p767
sg83
V252429
p768
sg85
Nsg86
I133994287
sg87
V352726
p769
sbsg89
I0
sg90
V<a href="http://twitter.com/download/iphone" rel="nofollow">Twitter for iPhone</a>
p770
sg92
(lp771
sg86
I542812901011374081
sbag3
(g4
g5
Ntp772
Rp773
(dp774
g9
I0
sg10
Nsg11
Nsg12
(lp775
sg14
I00
sg15
Nsg16
Nsg17
(lp776
sg19
Nsg20
Nsg21
Nsg22
VWed Dec 10 22:13:19 +0000 2014
p777
sg24
Nsg25
Nsg26
Nsg27
Nsg28
Nsg29
Nsg30
I00
sg31
Nsg32
(lp778
sg34
Nsg35
V542804277673361408
p779
sg37
Nsg38
VGettin to da Money \U0001f4b8
p780
sg40
I00
sg41
Ven
p781
sg43
g3
(g44
g5
Ntp782
Rp783
(dp784
g10
VMacon/OutterSpace
p785
sg49
V666666
p786
sg51
Ven
p787
sg53
VQuito
p788
sg55
I613
sg56
I5666
sg22
VSat Apr 17 05:13:24 +0000 2010
p789
sg58
I00
sg59
VRecording Artist | #FullBlast  #HighSociety BroadCastingLive! #Stonernation Snapchat: lesz_blow / IG:Rockin_SpaceGear
p790
sg61
Vhttps://pbs.twimg.com/profile_images/535239584570175488/sg3uMvcj_normal.jpeg
p791
sg63
I579
sg64
I33
sg65
I-18000
sg66
Nsg67
I00
sg68
Vhttps://pbs.twimg.com/profile_banners/133994287/1417319917
p792
sg70
I00
sg71
I00
sg72
V1FDE1F
p793
sg74
I01
sg75
I00
sg76
Vhttp://pbs.twimg.com/profile_background_images/540088722/images-4.jpeg
p794
sg78
VRockinSpaceGear
p795
sg80
I1
sg81
VLesz_Blow \u203c\ufe0f
p796
sg83
V252429
p797
sg85
Nsg86
I133994287
sg87
V352726
p798
sbsg89
I0
sg90
V<a href="http://twitter.com/download/iphone" rel="nofollow">Twitter for iPhone</a>
p799
sg92
(lp800
sg86
I542804277673361408
sbag3
(g4
g5
Ntp801
Rp802
(dp803
g9
I0
sg10
Nsg11
Nsg12
(lp804
sg14
I00
sg15
Nsg16
Nsg17
(lp805
sg19
Nsg20
Nsg21
Nsg22
VWed Dec 10 22:10:43 +0000 2014
p806
sg24
Nsg25
Nsg26
Nsg27
Nsg28
Nsg29
Nsg30
I00
sg31
Nsg32
(lp807
sg34
Nsg35
V542803623143809025
p808
sg37
Nsg38
VDon\u2019t be a bitter nigga, go and get your shit together
p809
sg40
I00
sg41
Ven
p810
sg43
g3
(g44
g5
Ntp811
Rp812
(dp813
g10
VMacon/OutterSpace
p814
sg49
V666666
p815
sg51
Ven
p816
sg53
VQuito
p817
sg55
I613
sg56
I5666
sg22
VSat Apr 17 05:13:24 +0000 2010
p818
sg58
I00
sg59
VRecording Artist | #FullBlast  #HighSociety BroadCastingLive! #Stonernation Snapchat: lesz_blow / IG:Rockin_SpaceGear
p819
sg61
Vhttps://pbs.twimg.com/profile_images/535239584570175488/sg3uMvcj_normal.jpeg
p820
sg63
I579
sg64
I33
sg65
I-18000
sg66
Nsg67
I00
sg68
Vhttps://pbs.twimg.com/profile_banners/133994287/1417319917
p821
sg70
I00
sg71
I00
sg72
V1FDE1F
p822
sg74
I01
sg75
I00
sg76
Vhttp://pbs.twimg.com/profile_background_images/540088722/images-4.jpeg
p823
sg78
VRockinSpaceGear
p824
sg80
I1
sg81
VLesz_Blow \u203c\ufe0f
p825
sg83
V252429
p826
sg85
Nsg86
I133994287
sg87
V352726
p827
sbsg89
I0
sg90
V<a href="http://twitter.com/download/iphone" rel="nofollow">Twitter for iPhone</a>
p828
sg92
(lp829
sg86
I542803623143809025
sbag3
(g4
g5
Ntp830
Rp831
(dp832
g9
I0
sg10
Nsg11
Nsg12
(lp833
g3
(g470
g5
Ntp834
Rp835
(dp836
g474
VFullBlast
p837
sbasg14
I00
sg15
Nsg16
Nsg17
(lp838
sg19
Nsg20
Nsg21
Nsg22
VWed Dec 10 21:48:11 +0000 2014
p839
sg24
Nsg25
Nsg26
Nsg27
Nsg28
Nsg29
Nsg30
I00
sg31
Nsg32
(lp840
sg34
Nsg35
V542797955393421312
p841
sg37
Nsg38
V#FullBlast we United \u270a\U0001f489
p842
sg40
I00
sg41
Ven
p843
sg43
g3
(g44
g5
Ntp844
Rp845
(dp846
g10
VMacon/OutterSpace
p847
sg49
V666666
p848
sg51
Ven
p849
sg53
VQuito
p850
sg55
I613
sg56
I5666
sg22
VSat Apr 17 05:13:24 +0000 2010
p851
sg58
I00
sg59
VRecording Artist | #FullBlast  #HighSociety BroadCastingLive! #Stonernation Snapchat: lesz_blow / IG:Rockin_SpaceGear
p852
sg61
Vhttps://pbs.twimg.com/profile_images/535239584570175488/sg3uMvcj_normal.jpeg
p853
sg63
I579
sg64
I33
sg65
I-18000
sg66
Nsg67
I00
sg68
Vhttps://pbs.twimg.com/profile_banners/133994287/1417319917
p854
sg70
I00
sg71
I00
sg72
V1FDE1F
p855
sg74
I01
sg75
I00
sg76
Vhttp://pbs.twimg.com/profile_background_images/540088722/images-4.jpeg
p856
sg78
VRockinSpaceGear
p857
sg80
I1
sg81
VLesz_Blow \u203c\ufe0f
p858
sg83
V252429
p859
sg85
Nsg86
I133994287
sg87
V352726
p860
sbsg89
I0
sg90
V<a href="http://twitter.com/download/iphone" rel="nofollow">Twitter for iPhone</a>
p861
sg92
(lp862
sg86
I542797955393421312
sbaa.